(dp0
S'../Data/x264_6.csv'
p1
(dp2
S'../Data/x264_13.csv'
p3
(dp4
S'abs_res'
p5
(lp6
cnumpy.core.multiarray
scalar
p7
(cnumpy
dtype
p8
(S'f8'
p9
I0
I1
tp10
Rp11
(I3
S'<'
p12
NNNI-1
I-1
I0
tp13
bS'\xc8\x00\x89&\xc0\x13\xbf@'
p14
tp15
Rp16
ag7
(g11
S'\xc8\x00\x89&\xc0\x13\xbf@'
p17
tp18
Rp19
ag7
(g11
S'\xc8\x00\x89&\xc0\x13\xbf@'
p20
tp21
Rp22
asss.