(dp0
S'../Data/x264_10.csv'
p1
(dp2
S'../Data/x264_4.csv'
p3
(dp4
S'mmre'
p5
(lp6
cnumpy.core.multiarray
scalar
p7
(cnumpy
dtype
p8
(S'f8'
p9
I0
I1
tp10
Rp11
(I3
S'<'
p12
NNNI-1
I-1
I0
tp13
bS'r\xef\x14\x86\xaa\xe6D@'
p14
tp15
Rp16
ag7
(g11
S'r\xef\x14\x86\xaa\xe6D@'
p17
tp18
Rp19
ag7
(g11
S'r\xef\x14\x86\xaa\xe6D@'
p20
tp21
Rp22
asss.