(dp0
S'../Data/x264_7.csv'
p1
(dp2
S'../Data/x264_3.csv'
p3
(dp4
F0.05
(dp5
S'mmre'
p6
(dp7
S'bellwether'
p8
(lp9
cnumpy.core.multiarray
scalar
p10
(cnumpy
dtype
p11
(S'f8'
p12
I0
I1
tp13
Rp14
(I3
S'<'
p15
NNNI-1
I-1
I0
tp16
bS"\xc5\xec\x82\xe0'Aq@"
p17
tp18
Rp19
ag10
(g14
S'f\xca*\xb6\xc1=q@'
p20
tp21
Rp22
ag10
(g14
S'\x1fJ\xc6W?2q@'
p23
tp24
Rp25
ag10
(g14
S'1\xdb\xdeW-/q@'
p26
tp27
Rp28
ag10
(g14
S'b\xc7\xf7)[Zq@'
p29
tp30
Rp31
ag10
(g14
S'*\xfaWq\x9c1q@'
p32
tp33
Rp34
ag10
(g14
S'\xa3\xc5N\xe5\xfe\x19q@'
p35
tp36
Rp37
ag10
(g14
S';h/+\xc4Dq@'
p38
tp39
Rp40
ag10
(g14
S'b.s\x1d\xa1Pq@'
p41
tp42
Rp43
ag10
(g14
S'\xa0\xdeK\x04\xb8,q@'
p44
tp45
Rp46
ag10
(g14
S'\x1b7\x8bY\xecGq@'
p47
tp48
Rp49
ag10
(g14
S'\xdb\xb5\xbfp\x1cUq@'
p50
tp51
Rp52
ag10
(g14
S'\xae[U\x1cd;q@'
p53
tp54
Rp55
ag10
(g14
S'\xa0\x00\r\xda]^q@'
p56
tp57
Rp58
ag10
(g14
S'h(\x99) \x1bq@'
p59
tp60
Rp61
ag10
(g14
S'\x1a@\xf8J0Yq@'
p62
tp63
Rp64
ag10
(g14
S'4\xb7V\xbcI8q@'
p65
tp66
Rp67
ag10
(g14
S'j7\xd6\x0c;Dq@'
p68
tp69
Rp70
ag10
(g14
S'\xe5n\x86\x8bi$q@'
p71
tp72
Rp73
ag10
(g14
S'\x8dF`Sh<q@'
p74
tp75
Rp76
asS'target'
p77
(lp78
g10
(g14
S'\xd7\rhU2\x8d\x0c@'
p79
tp80
Rp81
ag10
(g14
S'\x98\xbb\x826\x17\xe4\x0e@'
p82
tp83
Rp84
ag10
(g14
S'\x03\xecx\xa2\x93O\x0f@'
p85
tp86
Rp87
ag10
(g14
S'\x07G\x8e{R\x87\r@'
p88
tp89
Rp90
ag10
(g14
S'\x88wE!\x02b\x0f@'
p91
tp92
Rp93
ag10
(g14
S'|\xb8\x1e\xf2\xaau\x0e@'
p94
tp95
Rp96
ag10
(g14
S'b{\x94v~X\x10@'
p97
tp98
Rp99
ag10
(g14
S'?&XO\t\xdb\x12@'
p100
tp101
Rp102
ag10
(g14
S'H/ns{D\x0f@'
p103
tp104
Rp105
ag10
(g14
S'\xd7\xb6\x08\x9a\x9a\x0b\x0b@'
p106
tp107
Rp108
ag10
(g14
S'\xc9\xf2K\x14\xc9\x1f\x0f@'
p109
tp110
Rp111
ag10
(g14
S'\x9bC\x12\xafZE\x0e@'
p112
tp113
Rp114
ag10
(g14
S'\xe9\n{\xd5\x99\xf1\x0f@'
p115
tp116
Rp117
ag10
(g14
S"\xf9\xc5\rD\x10'\x0f@"
p118
tp119
Rp120
ag10
(g14
S'\x15&\xd4/T~\x0f@'
p121
tp122
Rp123
ag10
(g14
S'ys\xaeG\x8b\xe5\x0e@'
p124
tp125
Rp126
ag10
(g14
S'\x9a{~d\xab:\x0f@'
p127
tp128
Rp129
ag10
(g14
S'\xdd\x03I7\xdd\xd8\r@'
p130
tp131
Rp132
ag10
(g14
S'v\x03\x17\xdb\xae\x11\x10@'
p133
tp134
Rp135
ag10
(g14
S'\xbb\xfca\x16\rT\x11@'
p136
tp137
Rp138
asssss.