(dp0
S'../Data/x264_16.csv'
p1
(dp2
S'../Data/x264_17.csv'
p3
(dp4
F0.2
(dp5
S'mmre'
p6
(dp7
S'bellwether'
p8
(lp9
cnumpy.core.multiarray
scalar
p10
(cnumpy
dtype
p11
(S'f8'
p12
I0
I1
tp13
Rp14
(I3
S'<'
p15
NNNI-1
I-1
I0
tp16
bS'\xb8\xf4\x06\x8c\xdf(Q@'
p17
tp18
Rp19
ag10
(g14
S"\xd73A\xc4\xaa'Q@"
p20
tp21
Rp22
ag10
(g14
S'\xe2$Qs\xc9-Q@'
p23
tp24
Rp25
ag10
(g14
S'\xe3\xb3\x88N{0Q@'
p26
tp27
Rp28
ag10
(g14
S'n\x8b~\x14\x0f,Q@'
p29
tp30
Rp31
ag10
(g14
S'\xda8\x90Y\x08-Q@'
p32
tp33
Rp34
ag10
(g14
S'x!}\xc2\xb7&Q@'
p35
tp36
Rp37
ag10
(g14
S'jc\xe0\xabL0Q@'
p38
tp39
Rp40
ag10
(g14
S'P\xfd\x7f\xc7\xe3,Q@'
p41
tp42
Rp43
ag10
(g14
S'X\x1cv\x8dT-Q@'
p44
tp45
Rp46
ag10
(g14
S'\xa7\xfd5\x1e\x8a-Q@'
p47
tp48
Rp49
ag10
(g14
S'\xdc\xde\x07D\x87)Q@'
p50
tp51
Rp52
ag10
(g14
S'`\x15\xe5\x1b\xbe-Q@'
p53
tp54
Rp55
ag10
(g14
S'T@\xcc\x0e\xb4%Q@'
p56
tp57
Rp58
ag10
(g14
S'\x82\x07\xaeSq-Q@'
p59
tp60
Rp61
ag10
(g14
S'b_\xd7OF/Q@'
p62
tp63
Rp64
ag10
(g14
S'\xe1\xd2\xde\x97g%Q@'
p65
tp66
Rp67
ag10
(g14
S'\xd86\x81BN-Q@'
p68
tp69
Rp70
ag10
(g14
S'\xb4(\xdc\tG)Q@'
p71
tp72
Rp73
ag10
(g14
S'*J4\x08k+Q@'
p74
tp75
Rp76
asS'target'
p77
(lp78
g10
(g14
S'\xbf\x05\xf4:(\r"@'
p79
tp80
Rp81
ag10
(g14
S'\x94\xeaA\xfd\x007"@'
p82
tp83
Rp84
ag10
(g14
S'\xd0D\xf3\x12\xf6X"@'
p85
tp86
Rp87
ag10
(g14
S'i\xeb\xad\x02\x9bQ!@'
p88
tp89
Rp90
ag10
(g14
S'dl\x94{\x87\xbc"@'
p91
tp92
Rp93
ag10
(g14
S'\x85A\xbc\x94)\xf4!@'
p94
tp95
Rp96
ag10
(g14
S'|\x99\x92\x05\xcbT!@'
p97
tp98
Rp99
ag10
(g14
S'mK\xf0\xbe!\x05$@'
p100
tp101
Rp102
ag10
(g14
S'&~p\x93o*"@'
p103
tp104
Rp105
ag10
(g14
S'\r!R\xaf\x92\xba!@'
p106
tp107
Rp108
ag10
(g14
S')\x88j\xd7\x8a\xeb @'
p109
tp110
Rp111
ag10
(g14
S'[\xd3R\xfb\xa9|!@'
p112
tp113
Rp114
ag10
(g14
S'\x19\x15#\x15\xba\xad%@'
p115
tp116
Rp117
ag10
(g14
S'~\xf6\xb4\x99C\x98"@'
p118
tp119
Rp120
ag10
(g14
S'N\xf9\xff\xb1t\xc0"@'
p121
tp122
Rp123
ag10
(g14
S',\xcb\xca\xfa\x01\xbd"@'
p124
tp125
Rp126
ag10
(g14
S'ic4\x9e\x8a\x9a!@'
p127
tp128
Rp129
ag10
(g14
S'\xaa\x12\xe0@1>!@'
p130
tp131
Rp132
ag10
(g14
S'\xc4\xba\xd4\x93f!!@'
p133
tp134
Rp135
ag10
(g14
S'\xc7\x0b\xdcy\xc9#"@'
p136
tp137
Rp138
asssss.