(dp0
S'../Data/x264_5.csv'
p1
(dp2
S'../Data/x264_17.csv'
p3
(dp4
F0.35
(dp5
S'mmre'
p6
(dp7
S'bellwether'
p8
(lp9
cnumpy.core.multiarray
scalar
p10
(cnumpy
dtype
p11
(S'f8'
p12
I0
I1
tp13
Rp14
(I3
S'<'
p15
NNNI-1
I-1
I0
tp16
bS'V\x8bh\xabRKX@'
p17
tp18
Rp19
ag10
(g14
S'Rk\xf5\xe8\xc6KX@'
p20
tp21
Rp22
ag10
(g14
S'\x87bA\\\x19LX@'
p23
tp24
Rp25
ag10
(g14
S'\xe7\xd0ChvKX@'
p26
tp27
Rp28
ag10
(g14
S'D\xe6\xb9\xf9\x80KX@'
p29
tp30
Rp31
ag10
(g14
S'\xecZ\xe9\xaelKX@'
p32
tp33
Rp34
ag10
(g14
S'1\x9a\xda7\xc9KX@'
p35
tp36
Rp37
ag10
(g14
S'\x91t\xe0e\x93KX@'
p38
tp39
Rp40
ag10
(g14
S'\xc9A@GQKX@'
p41
tp42
Rp43
ag10
(g14
S'\xccMu\x91\x0bLX@'
p44
tp45
Rp46
ag10
(g14
S'\xcd\x1c\xc8duKX@'
p47
tp48
Rp49
ag10
(g14
S'\x19}^\xb5\xa0KX@'
p50
tp51
Rp52
ag10
(g14
S'\xf8\x16\xd6\xc8\xd6KX@'
p53
tp54
Rp55
ag10
(g14
S'\xdf\xf4\x1e\xda\x86KX@'
p56
tp57
Rp58
ag10
(g14
S'\x08\xcb\x11v\xcaKX@'
p59
tp60
Rp61
ag10
(g14
S'\xe3b\x03\xa8\xe0KX@'
p62
tp63
Rp64
ag10
(g14
S'$3N\x149KX@'
p65
tp66
Rp67
ag10
(g14
S'\xf5\t\xe4g\xc9KX@'
p68
tp69
Rp70
ag10
(g14
S'\xba\xf8\x12$4KX@'
p71
tp72
Rp73
ag10
(g14
S'"f\x15\x89\xd2KX@'
p74
tp75
Rp76
asS'target'
p77
(lp78
g10
(g14
S'b\xc0\xd9igg"@'
p79
tp80
Rp81
ag10
(g14
S'NY\x9far$!@'
p82
tp83
Rp84
ag10
(g14
S'\xfe\x1c\xc3Q\xaa@"@'
p85
tp86
Rp87
ag10
(g14
S'\xa2()}\xdc."@'
p88
tp89
Rp90
ag10
(g14
S'\x1a$\xdc\x10&\x92!@'
p91
tp92
Rp93
ag10
(g14
S'en\xd3\xa9\xa5\xc1!@'
p94
tp95
Rp96
ag10
(g14
S'\x12,Rl\'\x13"@'
p97
tp98
Rp99
ag10
(g14
S'7\xeb9\x80\xa6\x87!@'
p100
tp101
Rp102
ag10
(g14
S'A\x05\xda`\xc9\xfb!@'
p103
tp104
Rp105
ag10
(g14
S'\xa5\xba\x91\x04\xf2\xdd!@'
p106
tp107
Rp108
ag10
(g14
S'\x1f=\xa8\xdd\xf7S"@'
p109
tp110
Rp111
ag10
(g14
S'\x8f,\xb5\xf9\xa6\\!@'
p112
tp113
Rp114
ag10
(g14
S'\x8c\xaf\x03\xf5\xb7\x87!@'
p115
tp116
Rp117
ag10
(g14
S'\xa3o\xfc\xde\x86\xf3!@'
p118
tp119
Rp120
ag10
(g14
S'\xb1\x10a\xeb\x99Z!@'
p121
tp122
Rp123
ag10
(g14
S'iq_\xb21,!@'
p124
tp125
Rp126
ag10
(g14
S'\xef0\xa3\x16j\xc1 @'
p127
tp128
Rp129
ag10
(g14
S'\xf5&\xbb\xc1\xec#!@'
p130
tp131
Rp132
ag10
(g14
S'\x90\x0b=^\xab\x8f!@'
p133
tp134
Rp135
ag10
(g14
S"\x1d\x0c\x0f$'a!@"
p136
tp137
Rp138
asssss.