(dp0
S'../Data/x264_20.csv'
p1
(dp2
S'../Data/x264_7.csv'
p3
(dp4
F0.1
(dp5
S'abs_res'
p6
(dp7
S'bellwether'
p8
(lp9
cnumpy.core.multiarray
scalar
p10
(cnumpy
dtype
p11
(S'f8'
p12
I0
I1
tp13
Rp14
(I3
S'<'
p15
NNNI-1
I-1
I0
tp16
bS'<M-\x9b"l\rA'
p17
tp18
Rp19
ag10
(g14
S'\xe9\x90\x9b\xa1\xadr\rA'
p20
tp21
Rp22
ag10
(g14
S"\x13,\x0e'\xb1p\rA"
p23
tp24
Rp25
ag10
(g14
S'A(D\xc0.v\rA'
p26
tp27
Rp28
ag10
(g14
S'3:u\xe5\x0fy\rA'
p29
tp30
Rp31
ag10
(g14
S'\x8c\xf7\xaa\x15~x\rA'
p32
tp33
Rp34
ag10
(g14
S'G\xb9\xc2\xfb%r\rA'
p35
tp36
Rp37
ag10
(g14
S'\xc6\xb3Y5\xafx\rA'
p38
tp39
Rp40
ag10
(g14
S'-\xf5\xd6\xc0Dn\rA'
p41
tp42
Rp43
ag10
(g14
S'\xbc\xf9\x9b\x90\xb8n\rA'
p44
tp45
Rp46
ag10
(g14
S'j\x95`1ms\rA'
p47
tp48
Rp49
ag10
(g14
S".\xa6'\xac\xdaj\rA"
p50
tp51
Rp52
ag10
(g14
S'\xb6Y\xd8S\xd2t\rA'
p53
tp54
Rp55
ag10
(g14
S'\xd8\xb5\x84|\xd7q\rA'
p56
tp57
Rp58
ag10
(g14
S'8\xe0\xf3\x83\xe9z\rA'
p59
tp60
Rp61
ag10
(g14
S'!n\xa3\x01du\rA'
p62
tp63
Rp64
ag10
(g14
S'\x0c\xba\xa0\xfe#y\rA'
p65
tp66
Rp67
ag10
(g14
S'\x8b\x11\xa5\xfd\xd9r\rA'
p68
tp69
Rp70
ag10
(g14
S'\x06.V\xd4\xe1l\rA'
p71
tp72
Rp73
ag10
(g14
S"'\xd3\x13\xd6\xf5t\rA"
p74
tp75
Rp76
asS'target'
p77
(lp78
g10
(g14
S'>\xeew(\n\x90B@'
p79
tp80
Rp81
ag10
(g14
S'h\x8d]\xa2z\xe7F@'
p82
tp83
Rp84
ag10
(g14
S'\x00\xf9\xa0g\xb3fA@'
p85
tp86
Rp87
ag10
(g14
S'3>\xe8\xd9\xac\xfaD@'
p88
tp89
Rp90
ag10
(g14
S'o\x83/L\xa6"A@'
p91
tp92
Rp93
ag10
(g14
S'}\xe8e\x14\xcb\xa9C@'
p94
tp95
Rp96
ag10
(g14
S"\x00\x1a\xfa'\xb8\xb0D@"
p97
tp98
Rp99
ag10
(g14
S'\x913\xa2\xb47TE@'
p100
tp101
Rp102
ag10
(g14
S';X\xe2\x01e\xc5A@'
p103
tp104
Rp105
ag10
(g14
S'\xfdl9\x97\xe2*D@'
p106
tp107
Rp108
ag10
(g14
S'tm\x8b2\x1b\x98D@'
p109
tp110
Rp111
ag10
(g14
S'\xb4!T\xa9\xd9\x97@@'
p112
tp113
Rp114
ag10
(g14
S'Hs\x80`\x8e6C@'
p115
tp116
Rp117
ag10
(g14
S'H\xa2zk`3B@'
p118
tp119
Rp120
ag10
(g14
S'\xbb\x8cb\xb9\xa5)B@'
p121
tp122
Rp123
ag10
(g14
S'\xe8w(\n\xf4IA@'
p124
tp125
Rp126
ag10
(g14
S'%\xb1\xf9\xb86\x96C@'
p127
tp128
Rp129
ag10
(g14
S'\xe9\xc2d\xaa`\x94A@'
p130
tp131
Rp132
ag10
(g14
S"\x81\xb2\x0cq\xac'B@"
p133
tp134
Rp135
ag10
(g14
S'\x00$(~\x8c]B@'
p136
tp137
Rp138
asssss.