(dp0
S'../Data/x264_7.csv'
p1
(dp2
S'../Data/x264_19.csv'
p3
(dp4
F0.1
(dp5
S'mmre'
p6
(dp7
S'bellwether'
p8
(lp9
cnumpy.core.multiarray
scalar
p10
(cnumpy
dtype
p11
(S'f8'
p12
I0
I1
tp13
Rp14
(I3
S'<'
p15
NNNI-1
I-1
I0
tp16
bS'\x93\x8c\x84\xec\x03RW@'
p17
tp18
Rp19
ag10
(g14
S'\xfbi\x81\xd1\xb1KW@'
p20
tp21
Rp22
ag10
(g14
S'\x80z\t\x8c\x1eVW@'
p23
tp24
Rp25
ag10
(g14
S'%\xdb\xb9\xe2SRW@'
p26
tp27
Rp28
ag10
(g14
S'\x14\xec6\xa7IQW@'
p29
tp30
Rp31
ag10
(g14
S'\t\x93*\xa1\xbdEW@'
p32
tp33
Rp34
ag10
(g14
S'\xe9\xde\xa6L\x92PW@'
p35
tp36
Rp37
ag10
(g14
S'\x91h\x87m\xdbKW@'
p38
tp39
Rp40
ag10
(g14
S'\xfd\xa2\xfb\xbf\xa4IW@'
p41
tp42
Rp43
ag10
(g14
S'\xae?\x11z\x82QW@'
p44
tp45
Rp46
ag10
(g14
S'\xd9\xb3\xcd8@QW@'
p47
tp48
Rp49
ag10
(g14
S'\xeeh 9\xe5LW@'
p50
tp51
Rp52
ag10
(g14
S'4\x07!yFPW@'
p53
tp54
Rp55
ag10
(g14
S'\xf4>\xf6^\nUW@'
p56
tp57
Rp58
ag10
(g14
S'i\x82,\x17LMW@'
p59
tp60
Rp61
ag10
(g14
S'\xc1\x9f\n\xee:MW@'
p62
tp63
Rp64
ag10
(g14
S'\xe8-S\x9b\tBW@'
p65
tp66
Rp67
ag10
(g14
S'\x12;\x07W\xa6HW@'
p68
tp69
Rp70
ag10
(g14
S'b\xb6,\x93\xb1JW@'
p71
tp72
Rp73
ag10
(g14
S'\x10\x8bI\x14,GW@'
p74
tp75
Rp76
asS'target'
p77
(lp78
g10
(g14
S'\xe6\x82+Ort\\@'
p79
tp80
Rp81
ag10
(g14
S'\xd9\x8a\xc5K\xa0\xb4\\@'
p82
tp83
Rp84
ag10
(g14
S'sq!_\x0e\xb6\\@'
p85
tp86
Rp87
ag10
(g14
S',\xda\xc0\x90!\x7f\\@'
p88
tp89
Rp90
ag10
(g14
S')\xa3R(y\x01]@'
p91
tp92
Rp93
ag10
(g14
S'\xc8\xd6\x8b\x87ka^@'
p94
tp95
Rp96
ag10
(g14
S'\xa7A]\xdb\x81/^@'
p97
tp98
Rp99
ag10
(g14
S'p\xf9\xd4\xc8\xd7\xdf\\@'
p100
tp101
Rp102
ag10
(g14
S'0\xeci\xe7\xd4a]@'
p103
tp104
Rp105
ag10
(g14
S',:\x18\x80\xcb\x1f^@'
p106
tp107
Rp108
ag10
(g14
S'(:\\\xd5s\xb5]@'
p109
tp110
Rp111
ag10
(g14
S'LU\x17\x90\xae\xd5\\@'
p112
tp113
Rp114
ag10
(g14
S'O\x91\xb6L`\x8a\\@'
p115
tp116
Rp117
ag10
(g14
S'\x9a@\xb3\xbb[t\\@'
p118
tp119
Rp120
ag10
(g14
S'\xab\xa7\x8e(\xbc\xaa\\@'
p121
tp122
Rp123
ag10
(g14
S'\xb5\x8f\x7f\xb3\xd4\xe3\\@'
p124
tp125
Rp126
ag10
(g14
S'\x93\x8fE\x8bE,]@'
p127
tp128
Rp129
ag10
(g14
S'\xe55\x8ct*\xfe]@'
p130
tp131
Rp132
ag10
(g14
S'\xf3D^\xe9\x8e\xc0]@'
p133
tp134
Rp135
ag10
(g14
S'\x81\xb0px\xeb2^@'
p136
tp137
Rp138
asssss.