(dp0
S'../Data/x264_5.csv'
p1
(dp2
S'../Data/x264_17.csv'
p3
(dp4
F0.25
(dp5
S'mmre'
p6
(dp7
S'bellwether'
p8
(lp9
cnumpy.core.multiarray
scalar
p10
(cnumpy
dtype
p11
(S'f8'
p12
I0
I1
tp13
Rp14
(I3
S'<'
p15
NNNI-1
I-1
I0
tp16
bS'\xf6w\xe7\xeeRKX@'
p17
tp18
Rp19
ag10
(g14
S'A\x14\xab\xce\x8fKX@'
p20
tp21
Rp22
ag10
(g14
S'\x9e[\xa8\x9b\x93KX@'
p23
tp24
Rp25
ag10
(g14
S'\xa9\xd1\x9b\xfc\x94KX@'
p26
tp27
Rp28
ag10
(g14
S'\xc8\x12\xbf[\x88KX@'
p29
tp30
Rp31
ag10
(g14
S'~YD\x8d\x93KX@'
p32
tp33
Rp34
ag10
(g14
S'A\x93\xd8\xf9dKX@'
p35
tp36
Rp37
ag10
(g14
S'W\xed\x8cq\xf4KX@'
p38
tp39
Rp40
ag10
(g14
S'\xfep\xca"\xf1KX@'
p41
tp42
Rp43
ag10
(g14
S'\x9e\xa8\n1\xbbKX@'
p44
tp45
Rp46
ag10
(g14
S'\x85\xa2(!\x95KX@'
p47
tp48
Rp49
ag10
(g14
S'\x82z \x80\xb9KX@'
p50
tp51
Rp52
ag10
(g14
S'7PS3yKX@'
p53
tp54
Rp55
ag10
(g14
S'\x18[\xc6\xac\xc8KX@'
p56
tp57
Rp58
ag10
(g14
S')E\xea\xb2tKX@'
p59
tp60
Rp61
ag10
(g14
S'\x1b\xbc\x0bD\xe7KX@'
p62
tp63
Rp64
ag10
(g14
S'a\x19G=\xb8KX@'
p65
tp66
Rp67
ag10
(g14
S'\xbd\x05\x18u\xbcKX@'
p68
tp69
Rp70
ag10
(g14
S'/{W\xca\x80KX@'
p71
tp72
Rp73
ag10
(g14
S'\xdbm\rI\x8fKX@'
p74
tp75
Rp76
asS'target'
p77
(lp78
g10
(g14
S'\xf6\xc4@@\x83\x89"@'
p79
tp80
Rp81
ag10
(g14
S'\xban\x1dX\x04\xa4!@'
p82
tp83
Rp84
ag10
(g14
S'\xd9QQ>\rY"@'
p85
tp86
Rp87
ag10
(g14
S'\xb4\x0b4b\x06\xc4!@'
p88
tp89
Rp90
ag10
(g14
S'|&\x81\xedV$"@'
p91
tp92
Rp93
ag10
(g14
S'\xacr\x9c<\x98\x9b!@'
p94
tp95
Rp96
ag10
(g14
S'\x97}\xfc\x04\xbe\xba"@'
p97
tp98
Rp99
ag10
(g14
S'\x95\xb5\x89\xc6\x1bm!@'
p100
tp101
Rp102
ag10
(g14
S'=\xf7UH\xb0m!@'
p103
tp104
Rp105
ag10
(g14
S'G\xf5\xdc^S"!@'
p106
tp107
Rp108
ag10
(g14
S' \xcf\xb9I\xedm!@'
p109
tp110
Rp111
ag10
(g14
S'a\x1dUO\xf78"@'
p112
tp113
Rp114
ag10
(g14
S'\n\x8d\xdd\xca\xb4\x05"@'
p115
tp116
Rp117
ag10
(g14
S'6V\x1a%)\xa2!@'
p118
tp119
Rp120
ag10
(g14
S'\xa9}\xa4\xdf\x8f\xbd!@'
p121
tp122
Rp123
ag10
(g14
S'\xbbs\x80WIK!@'
p124
tp125
Rp126
ag10
(g14
S'\x8c\x9a\xa5\xb4\xfa\xfc @'
p127
tp128
Rp129
ag10
(g14
S'\xdd\xba\x10\xf8}\xdd @'
p130
tp131
Rp132
ag10
(g14
S'sa\x11Of\x1b!@'
p133
tp134
Rp135
ag10
(g14
S'\xdd\xc0\x92\xcfcD!@'
p136
tp137
Rp138
asssss.