(dp0
S'../Data/x264_15.csv'
p1
(dp2
S'../Data/x264_16.csv'
p3
(dp4
F0.1
(dp5
S'mmre'
p6
(dp7
S'bellwether'
p8
(lp9
cnumpy.core.multiarray
scalar
p10
(cnumpy
dtype
p11
(S'f8'
p12
I0
I1
tp13
Rp14
(I3
S'<'
p15
NNNI-1
I-1
I0
tp16
bS'\xc7E\x98\r\xa2cW@'
p17
tp18
Rp19
ag10
(g14
S'\x1d:Z\xb8LbW@'
p20
tp21
Rp22
ag10
(g14
S'\xbeHu\x80PaW@'
p23
tp24
Rp25
ag10
(g14
S'\xfeC1\xd3cbW@'
p26
tp27
Rp28
ag10
(g14
S'm\x8aF\x03%]W@'
p29
tp30
Rp31
ag10
(g14
S'e4\x00\\\x9eaW@'
p32
tp33
Rp34
ag10
(g14
S'\xbe\xcf\x10\xdb\xa4aW@'
p35
tp36
Rp37
ag10
(g14
S'\x848\x9ct\xd2cW@'
p38
tp39
Rp40
ag10
(g14
S'u\xbcE\x80\xe5`W@'
p41
tp42
Rp43
ag10
(g14
S'b\xd6o\xe8EcW@'
p44
tp45
Rp46
ag10
(g14
S'jHk\x13\teW@'
p47
tp48
Rp49
ag10
(g14
S'*\xdc\xdfKe^W@'
p50
tp51
Rp52
ag10
(g14
S'%\xc5\xf7B{aW@'
p53
tp54
Rp55
ag10
(g14
S'\x0e\xe9p\xadxbW@'
p56
tp57
Rp58
ag10
(g14
S'\x91\xbdonZ^W@'
p59
tp60
Rp61
ag10
(g14
S'@d\x15\xfbIbW@'
p62
tp63
Rp64
ag10
(g14
S'\xf8\x8fE\xc3\xcf`W@'
p65
tp66
Rp67
ag10
(g14
S'\x0c\xf8\x81\x9b\x89bW@'
p68
tp69
Rp70
ag10
(g14
S'(\xf1\xec\x13\xa2]W@'
p71
tp72
Rp73
ag10
(g14
S'\xf0\xfb\x8eP\x9daW@'
p74
tp75
Rp76
asS'target'
p77
(lp78
g10
(g14
S"=\xbaFJ\xde\xb5'@"
p79
tp80
Rp81
ag10
(g14
S'Y\xba\x1f\n\xc5\xbe+@'
p82
tp83
Rp84
ag10
(g14
S'{\xa1\xeb\xfe\xba\xef)@'
p85
tp86
Rp87
ag10
(g14
S'/9\xd0f<M*@'
p88
tp89
Rp90
ag10
(g14
S'\x19Gj:m\xf5(@'
p91
tp92
Rp93
ag10
(g14
S'\x9b\x0f\xe3\x84\xf3\xdb(@'
p94
tp95
Rp96
ag10
(g14
S'R\xd5\xe9\xde\xbe8+@'
p97
tp98
Rp99
ag10
(g14
S'\x065f\xeekq(@'
p100
tp101
Rp102
ag10
(g14
S'\xfe\xef\xc6\x99\x14\x07,@'
p103
tp104
Rp105
ag10
(g14
S'\xa5\xa6\xc2\xc72F*@'
p106
tp107
Rp108
ag10
(g14
S'\xc5\x07Ikz\x87(@'
p109
tp110
Rp111
ag10
(g14
S'\xf2\xf8s\xc0m\xb1)@'
p112
tp113
Rp114
ag10
(g14
S'J\xba7\t\xf1N)@'
p115
tp116
Rp117
ag10
(g14
S'N\xfd\xc9 \xd6\x93(@'
p118
tp119
Rp120
ag10
(g14
S'\x97\xab&\xc7\xa7\x87-@'
p121
tp122
Rp123
ag10
(g14
S'\x0cG\xe280F)@'
p124
tp125
Rp126
ag10
(g14
S'a\x01\xe1& \x1a(@'
p127
tp128
Rp129
ag10
(g14
S'E\x97PRsH-@'
p130
tp131
Rp132
ag10
(g14
S'S\x8b\x9b\xe7\x97b&@'
p133
tp134
Rp135
ag10
(g14
S'\x1e\x978\x9f\x14\x0e*@'
p136
tp137
Rp138
asssss.