(dp0
S'../Data/x264_18.csv'
p1
(dp2
S'../Data/x264_13.csv'
p3
(dp4
F0.25
(dp5
S'rank'
p6
(dp7
S'bellwether'
p8
(lp9
I2
aI1
aI34
aI2
aI30
aI2
aI2
aI39
aI1
aI1
aI27
aI2
aI3
aI2
aI1
aI2
aI3
aI2
aI34
aI35
asS'target'
p10
(lp11
I24
aI2
aI4
aI32
aI1
aI17
aI0
aI21
aI0
aI0
aI35
aI10
aI1
aI2
aI188
aI44
aI12
aI1
aI29
aI7
asssss.