(dp0
S'../Data/x264_0.csv'
p1
(dp2
S'../Data/x264_12.csv'
p3
(dp4
F0.35
(dp5
S'abs_res'
p6
(dp7
S'bellwether'
p8
(lp9
cnumpy.core.multiarray
scalar
p10
(cnumpy
dtype
p11
(S'f8'
p12
I0
I1
tp13
Rp14
(I3
S'<'
p15
NNNI-1
I-1
I0
tp16
bS'a/\x86rb3u@'
p17
tp18
Rp19
ag10
(g14
S'\x8d\xc5\xc4\xe6#Wu@'
p20
tp21
Rp22
ag10
(g14
S'\x83\xcb\x9c.\xcbdu@'
p23
tp24
Rp25
ag10
(g14
S'\xdd\x8a\xfde\xf7Tu@'
p26
tp27
Rp28
ag10
(g14
S'3\x9a\xceN\x06Iu@'
p29
tp30
Rp31
ag10
(g14
S'Z\x0e-\xb2\x9d)u@'
p32
tp33
Rp34
ag10
(g14
S'\xf4\x1f\xd2o_:u@'
p35
tp36
Rp37
ag10
(g14
S'K\x13D\xdd\x87Bu@'
p38
tp39
Rp40
ag10
(g14
S'\x94\x85Z\xd3|Hu@'
p41
tp42
Rp43
ag10
(g14
S'\xb1*\xfb\xaeHZu@'
p44
tp45
Rp46
ag10
(g14
S'\xc9\xee\xc9\xc3\x825u@'
p47
tp48
Rp49
ag10
(g14
S'\x9b\xe3N\xe9 Fu@'
p50
tp51
Rp52
ag10
(g14
S'\x9f\x12I\xf4\xf2Zu@'
p53
tp54
Rp55
ag10
(g14
S'\xb4\xa6y\xc7\xe96u@'
p56
tp57
Rp58
ag10
(g14
S'3\xe1\x97\xfa9Fu@'
p59
tp60
Rp61
ag10
(g14
S'\x05(\x9br\x05\\u@'
p62
tp63
Rp64
ag10
(g14
S'q\xe6Ws\x00Mu@'
p65
tp66
Rp67
ag10
(g14
S'\x14}\x05i\xc6Wu@'
p68
tp69
Rp70
ag10
(g14
S'-\xd4\x9a\xe6\x1dAu@'
p71
tp72
Rp73
ag10
(g14
S'9\x1c\xeb\xe26Iu@'
p74
tp75
Rp76
asS'target'
p77
(lp78
g10
(g14
S'W\x03[%XrG@'
p79
tp80
Rp81
ag10
(g14
S'\xf5\xf6u\xe0\x9cIG@'
p82
tp83
Rp84
ag10
(g14
S'd\xd1tv2fJ@'
p85
tp86
Rp87
ag10
(g14
S'\xf5w(\n\xf4eF@'
p88
tp89
Rp90
ag10
(g14
S'\xe7F\xe6\x91?ZF@'
p91
tp92
Rp93
ag10
(g14
S'\xe1S\x00\x8cg\xecJ@'
p94
tp95
Rp96
ag10
(g14
S'\x7f\xd0\xb3Y\xf5wJ@'
p97
tp98
Rp99
ag10
(g14
S'\xad\xbeHh\xcb\x15F@'
p100
tp101
Rp102
ag10
(g14
S'\xa4\x98\xd8|\\\xf5E@'
p103
tp104
Rp105
ag10
(g14
S'\xa1\xc6K7\x89\xb5G@'
p106
tp107
Rp108
ag10
(g14
S'58-x\xd1#I@'
p109
tp110
Rp111
ag10
(g14
S'\xbd\x974F\xeb$F@'
p112
tp113
Rp114
ag10
(g14
S'h\xf7\xe4a\xa1 G@'
p115
tp116
Rp117
ag10
(g14
S'T\x08rP\xc2\xc5P@'
p118
tp119
Rp120
ag10
(g14
S'V\x1b*\xc6\xf9+I@'
p121
tp122
Rp123
ag10
(g14
S'\xb6D\xf5\xd6\xc0HJ@'
p124
tp125
Rp126
ag10
(g14
S'\x86\xc3\x99_\xcd\x9fF@'
p127
tp128
Rp129
ag10
(g14
S'i}\x91\xd0\x96)G@'
p130
tp131
Rp132
ag10
(g14
S'{\x8d@\xbc\xae\x9dH@'
p133
tp134
Rp135
ag10
(g14
S'\xe2#bJ$5G@'
p136
tp137
Rp138
asssss.