(dp0
S'../Data/x264_1.csv'
p1
(dp2
S'../Data/x264_16.csv'
p3
(dp4
F0.4
(dp5
S'mmre'
p6
(dp7
S'bellwether'
p8
(lp9
cnumpy.core.multiarray
scalar
p10
(cnumpy
dtype
p11
(S'f8'
p12
I0
I1
tp13
Rp14
(I3
S'<'
p15
NNNI-1
I-1
I0
tp16
bS'\xc31\xb4\xab\xf3gW@'
p17
tp18
Rp19
ag10
(g14
S'\xfaJ\x12X4fW@'
p20
tp21
Rp22
ag10
(g14
S'\xc7cj`\xaaeW@'
p23
tp24
Rp25
ag10
(g14
S'!\x99\xda\x01\xdcfW@'
p26
tp27
Rp28
ag10
(g14
S'\xec\xcb1\x1f?gW@'
p29
tp30
Rp31
ag10
(g14
S'\xc5TG<PfW@'
p32
tp33
Rp34
ag10
(g14
S'R\x92(P\xf1cW@'
p35
tp36
Rp37
ag10
(g14
S'|\xabd\xe6OgW@'
p38
tp39
Rp40
ag10
(g14
S'\x0e1\xf1\r#fW@'
p41
tp42
Rp43
ag10
(g14
S'!]\xdf<\xdbdW@'
p44
tp45
Rp46
ag10
(g14
S'\x87\xbdO\xd5\x02fW@'
p47
tp48
Rp49
ag10
(g14
S'-c\x8d\x06\xe9gW@'
p50
tp51
Rp52
ag10
(g14
S'\xf8\xfaUN)gW@'
p53
tp54
Rp55
ag10
(g14
S'\xf0\x11\xebUEfW@'
p56
tp57
Rp58
ag10
(g14
S'\xfb\xcc\xee]\xdaeW@'
p59
tp60
Rp61
ag10
(g14
S'\xca\xa9\xe2\xa3\x90eW@'
p62
tp63
Rp64
ag10
(g14
S'\x0b\xb5\xf0\x9a!gW@'
p65
tp66
Rp67
ag10
(g14
S'\x08\x1a\x1fV\x8agW@'
p68
tp69
Rp70
ag10
(g14
S'\x9f\xbb\tnghW@'
p71
tp72
Rp73
ag10
(g14
S'\x87\x8aZ\x1e\xa6fW@'
p74
tp75
Rp76
asS'target'
p77
(lp78
g10
(g14
S'\x10\xe5\x0e\x9aV2)@'
p79
tp80
Rp81
ag10
(g14
S"\xd5\xb4\xc5\x00\xcf\xfd'@"
p82
tp83
Rp84
ag10
(g14
S'\x94\xa7\x04\xf1\xb5\xae(@'
p85
tp86
Rp87
ag10
(g14
S"$\x9b\x86$\xc2q'@"
p88
tp89
Rp90
ag10
(g14
S'\xf7FR\xde\x9a((@'
p91
tp92
Rp93
ag10
(g14
S'\xf8"4\xa4\xc1\x84(@'
p94
tp95
Rp96
ag10
(g14
S'u\x7f\x9c<&:(@'
p97
tp98
Rp99
ag10
(g14
S'Rz\xac3\x89R&@'
p100
tp101
Rp102
ag10
(g14
S'\xb3\x96\xaa3V\xaa)@'
p103
tp104
Rp105
ag10
(g14
S'\x1f$/\xd7B\xe3(@'
p106
tp107
Rp108
ag10
(g14
S'\\\x03\xc6<\xb48)@'
p109
tp110
Rp111
ag10
(g14
S'\xb9!JZ\xb1R(@'
p112
tp113
Rp114
ag10
(g14
S'\xbc\xe0w\xc9f\x91(@'
p115
tp116
Rp117
ag10
(g14
S'nx\xe88\x1a\x1a(@'
p118
tp119
Rp120
ag10
(g14
S'W\xe6\x04S]\xac(@'
p121
tp122
Rp123
ag10
(g14
S'\x90O\xcc\xf8\xfe\xbf)@'
p124
tp125
Rp126
ag10
(g14
S"A]\x9f\xa8N\xf4'@"
p127
tp128
Rp129
ag10
(g14
S'-\x05\xd7\xe5z>*@'
p130
tp131
Rp132
ag10
(g14
S"p.@\x9a]\xc0'@"
p133
tp134
Rp135
ag10
(g14
S"\x086\xa1\xbe\xf6\xac'@"
p136
tp137
Rp138
asssss.