(dp0
S'../Data/x264_18.csv'
p1
(dp2
S'../Data/x264_9.csv'
p3
(dp4
F0.3
(dp5
S'abs_res'
p6
(dp7
S'bellwether'
p8
(lp9
cnumpy.core.multiarray
scalar
p10
(cnumpy
dtype
p11
(S'f8'
p12
I0
I1
tp13
Rp14
(I3
S'<'
p15
NNNI-1
I-1
I0
tp16
bS'<\xdb\xc0\x1d(X}@'
p17
tp18
Rp19
ag10
(g14
S'\xd9\xde,8\x16\x18}@'
p20
tp21
Rp22
ag10
(g14
S'7\x89g\xf6f3}@'
p23
tp24
Rp25
ag10
(g14
S'5kuL\xf0\n}@'
p26
tp27
Rp28
ag10
(g14
S'\xd1!p$\x10#}@'
p29
tp30
Rp31
ag10
(g14
S'.%\xb8~\xa7\x18}@'
p32
tp33
Rp34
ag10
(g14
S'tj\xec% \x87}@'
p35
tp36
Rp37
ag10
(g14
S'\xb3\xdcj\xc3ND}@'
p38
tp39
Rp40
ag10
(g14
S'LO\xb7\xd9\x85\x90}@'
p41
tp42
Rp43
ag10
(g14
S'5\x8a\x1e\xf8\x98Q}@'
p44
tp45
Rp46
ag10
(g14
S'\xa1\xdef\x04._}@'
p47
tp48
Rp49
ag10
(g14
S'0\x8e\x1f*M\x83}@'
p50
tp51
Rp52
ag10
(g14
S'\nR<Au\x04}@'
p53
tp54
Rp55
ag10
(g14
S'\x02\xd7\x87\xf5F\x81}@'
p56
tp57
Rp58
ag10
(g14
S'\xce\xd6 \xb9"\x7f}@'
p59
tp60
Rp61
ag10
(g14
S';UV\xc0\xaaM}@'
p62
tp63
Rp64
ag10
(g14
S'\xdcV%\x91}\x15}@'
p65
tp66
Rp67
ag10
(g14
S'9h\xe8\x9f\xe0\xf2|@'
p68
tp69
Rp70
ag10
(g14
S'fAaP\xa6}}@'
p71
tp72
Rp73
ag10
(g14
S' g\xd3\x11@[}@'
p74
tp75
Rp76
asS'target'
p77
(lp78
g10
(g14
S'I\xf79>ZD#@'
p79
tp80
Rp81
ag10
(g14
S'\xb9r.\xc5U\xe1!@'
p82
tp83
Rp84
ag10
(g14
S'N\xca\xa3\x1baa"@'
p85
tp86
Rp87
ag10
(g14
S'>\xf00\xed\x9b\xeb!@'
p88
tp89
Rp90
ag10
(g14
S'\xb7\x0c\xc5\x1do\xb2!@'
p91
tp92
Rp93
ag10
(g14
S'.\x94\xd9 \x93|!@'
p94
tp95
Rp96
ag10
(g14
S'>J$\xd1\xcb\xe4!@'
p97
tp98
Rp99
ag10
(g14
S'\xd7\xfa!6X\x10!@'
p100
tp101
Rp102
ag10
(g14
S'\x89f\x9d\xf1}\xf1!@'
p103
tp104
Rp105
ag10
(g14
S'P\x06\xd4\x9bQ["@'
p106
tp107
Rp108
ag10
(g14
S'\xf2\xb3\x1e\xbeL\xd0"@'
p109
tp110
Rp111
ag10
(g14
S']A`\xe5\xd0\xd2!@'
p112
tp113
Rp114
ag10
(g14
S'\x91\xdc\x99\t\x86+#@'
p115
tp116
Rp117
ag10
(g14
S'\xdf\xad\x9d(\t\xe9 @'
p118
tp119
Rp120
ag10
(g14
S'\x03G\xc8@\x9ee!@'
p121
tp122
Rp123
ag10
(g14
S'Vb\x9d*\xdfo"@'
p124
tp125
Rp126
ag10
(g14
S'\x07*\xe2t\x921#@'
p127
tp128
Rp129
ag10
(g14
S'W\xa9\xd8\x98\xd7\x81"@'
p130
tp131
Rp132
ag10
(g14
S'\xda\xe5!S>\xdc!@'
p133
tp134
Rp135
ag10
(g14
S'\xc0\x8b\tDbU!@'
p136
tp137
Rp138
asssss.