(dp0
S'../Data/x264_16.csv'
p1
(dp2
S'../Data/x264_19.csv'
p3
(dp4
F0.4
(dp5
S'mmre'
p6
(dp7
S'bellwether'
p8
(lp9
cnumpy.core.multiarray
scalar
p10
(cnumpy
dtype
p11
(S'f8'
p12
I0
I1
tp13
Rp14
(I3
S'<'
p15
NNNI-1
I-1
I0
tp16
bS'1\x1de\xf7r\xc8s@'
p17
tp18
Rp19
ag10
(g14
S'\t\xddF\xf1_\xfds@'
p20
tp21
Rp22
ag10
(g14
S'\x94\x0eP\x85\xcapu@'
p23
tp24
Rp25
ag10
(g14
S'\\\xaf*\\\x83\xafs@'
p26
tp27
Rp28
ag10
(g14
S'kh:\x10\xb4*t@'
p29
tp30
Rp31
ag10
(g14
S'A\x8e<S\xfc\xcft@'
p32
tp33
Rp34
ag10
(g14
S"\xac'I\x05\x00\x00t@"
p35
tp36
Rp37
ag10
(g14
S'3\x13l\xab\xa3ru@'
p38
tp39
Rp40
ag10
(g14
S'\xe5\x99\x96\xc7\xad\xd6u@'
p41
tp42
Rp43
ag10
(g14
S'\xd7s#\x855\xcdt@'
p44
tp45
Rp46
ag10
(g14
S'\xe9\xa9~!\xa23t@'
p47
tp48
Rp49
ag10
(g14
S'jR\xbeM\x15+u@'
p50
tp51
Rp52
ag10
(g14
S'NV\x00S\xa0~u@'
p53
tp54
Rp55
ag10
(g14
S' n$Zr\x91t@'
p56
tp57
Rp58
ag10
(g14
S'jF\x98H\xbd\x0eu@'
p59
tp60
Rp61
ag10
(g14
S'\x04\xf4Qtm+u@'
p62
tp63
Rp64
ag10
(g14
S'\xcb\xf5I\r\xbb\x05u@'
p65
tp66
Rp67
ag10
(g14
S'\xa1\x11\x07q\x1f\xe7t@'
p68
tp69
Rp70
ag10
(g14
S'\x840|j\xedZu@'
p71
tp72
Rp73
ag10
(g14
S'\xc9\xc4\xfe\x84X\xf0t@'
p74
tp75
Rp76
asS'target'
p77
(lp78
g10
(g14
S'\xdc\xc2\x15-}[[@'
p79
tp80
Rp81
ag10
(g14
S'\xb9`qs\xd96[@'
p82
tp83
Rp84
ag10
(g14
S'\xdb\x88\x99\xe3(E^@'
p85
tp86
Rp87
ag10
(g14
S'\xb6|\xf8+\x00\xa5\\@'
p88
tp89
Rp90
ag10
(g14
S'5\x12\x80\xbe\xf7\xc5\\@'
p91
tp92
Rp93
ag10
(g14
S'\xa6\xc265\x0e\xbc\\@'
p94
tp95
Rp96
ag10
(g14
S'\xccX|\xb6=\x84Z@'
p97
tp98
Rp99
ag10
(g14
S'\xc9q\xcf\x11,\xa6]@'
p100
tp101
Rp102
ag10
(g14
S'\xba3\x00^\xd9\x9b^@'
p103
tp104
Rp105
ag10
(g14
S'\x97\x8c\x01\x15\x81\x98\\@'
p106
tp107
Rp108
ag10
(g14
S'\x7f\xc3r\xd0\xc7\x87\\@'
p109
tp110
Rp111
ag10
(g14
S'W\xe9\xd0\x10\xdf^^@'
p112
tp113
Rp114
ag10
(g14
S'\x0c\x8c\xe3!\xbc\xa5\\@'
p115
tp116
Rp117
ag10
(g14
S'\xf9r%\x1e\xbc\xbb\\@'
p118
tp119
Rp120
ag10
(g14
S'\xb0\xe2d\x1b\x92S\\@'
p121
tp122
Rp123
ag10
(g14
S'I\xf2!E;{\\@'
p124
tp125
Rp126
ag10
(g14
S',\x1f\x7fs\x0c0^@'
p127
tp128
Rp129
ag10
(g14
S'yH\xb3yY\x11[@'
p130
tp131
Rp132
ag10
(g14
S'\xd4@g#\xc0,]@'
p133
tp134
Rp135
ag10
(g14
S'4\xdeS\xec4s\\@'
p136
tp137
Rp138
asssss.