(dp0
S'../Data/x264_3.csv'
p1
(dp2
S'../Data/x264_6.csv'
p3
(dp4
F0.15
(dp5
S'abs_res'
p6
(dp7
S'bellwether'
p8
(lp9
cnumpy.core.multiarray
scalar
p10
(cnumpy
dtype
p11
(S'f8'
p12
I0
I1
tp13
Rp14
(I3
S'<'
p15
NNNI-1
I-1
I0
tp16
bS'\xd7\x87.\xa8\xefLp@'
p17
tp18
Rp19
ag10
(g14
S'\xbfG\xc4\x94HGp@'
p20
tp21
Rp22
ag10
(g14
S'-\xaec\\q#p@'
p23
tp24
Rp25
ag10
(g14
S'.\xec\xdbI\x04+p@'
p26
tp27
Rp28
ag10
(g14
S'\xd4\xa7\xc7\xb6\x8c\x11p@'
p29
tp30
Rp31
ag10
(g14
S'6Pe+\x02\x15p@'
p32
tp33
Rp34
ag10
(g14
S'\xa0\xd3\x9e\x923Cp@'
p35
tp36
Rp37
ag10
(g14
S'"\xda{\xde\xbaLp@'
p38
tp39
Rp40
ag10
(g14
S';e\x81\x89\x122p@'
p41
tp42
Rp43
ag10
(g14
S'\\i\x8bk\xbcKp@'
p44
tp45
Rp46
ag10
(g14
S'R4\x0f`\x11Op@'
p47
tp48
Rp49
ag10
(g14
S'Fn\x0b\xa9uQp@'
p50
tp51
Rp52
ag10
(g14
S'x{\x82\xc46\x02p@'
p53
tp54
Rp55
ag10
(g14
S'b_p\xe0\xa8Fp@'
p56
tp57
Rp58
ag10
(g14
S'/\xa1\xf4\x85\xd0=p@'
p59
tp60
Rp61
ag10
(g14
S'\t\xd2\xfe\x07\x183p@'
p62
tp63
Rp64
ag10
(g14
S'\xd65\xa6:\xf7Ap@'
p65
tp66
Rp67
ag10
(g14
S'\x11Y\xf0\xb5\xfa:p@'
p68
tp69
Rp70
ag10
(g14
S'x\x15R~RFp@'
p71
tp72
Rp73
ag10
(g14
S'\x1f\x03\xeb8\xfe\xf2o@'
p74
tp75
Rp76
asS'target'
p77
(lp78
g10
(g14
S'\xeb\x1b\xb4W\x1fK2@'
p79
tp80
Rp81
ag10
(g14
S'\x9f\xc8=]\xdd)1@'
p82
tp83
Rp84
ag10
(g14
S'\xbd\xe3\x85tx\xd40@'
p85
tp86
Rp87
ag10
(g14
S'\xecO\x8c,\x99\x9f1@'
p88
tp89
Rp90
ag10
(g14
S'\xe3%\x1b\x0f\xb602@'
p91
tp92
Rp93
ag10
(g14
S'\x0c\x81\x06\x9b:\xa70@'
p94
tp95
Rp96
ag10
(g14
S'&s*\x19\x00:/@'
p97
tp98
Rp99
ag10
(g14
S'\xaa "5\xedn1@'
p100
tp101
Rp102
ag10
(g14
S';\x91\x98\xa0\x86\xd10@'
p103
tp104
Rp105
ag10
(g14
S'\x11~SX\xa9p0@'
p106
tp107
Rp108
ag10
(g14
S'\x05ut\\\x8d\x081@'
p109
tp110
Rp111
ag10
(g14
S'\xcf\x8a\xc4\x045\xd02@'
p112
tp113
Rp114
ag10
(g14
S'\xb1p\xe7\xc2H\xfb2@'
p115
tp116
Rp117
ag10
(g14
S'\xf9G\xc2\xbe\x9dp1@'
p118
tp119
Rp120
ag10
(g14
S'\xad\xd3+e\x19n1@'
p121
tp122
Rp123
ag10
(g14
S'\x06\xbf\x9a\x03\x04/0@'
p124
tp125
Rp126
ag10
(g14
S'Ms*\x19\x00\xc60@'
p127
tp128
Rp129
ag10
(g14
S'-Y\x868\xd6)0@'
p130
tp131
Rp132
ag10
(g14
S'\x08\x1b\x9d\xf3S$1@'
p133
tp134
Rp135
ag10
(g14
S'R\xbeJ>v\xf71@'
p136
tp137
Rp138
asssss.