(dp0
S'../Data/x264_13.csv'
p1
(dp2
S'../Data/x264_20.csv'
p3
(dp4
F0.15
(dp5
S'mmre'
p6
(dp7
S'bellwether'
p8
(lp9
cnumpy.core.multiarray
scalar
p10
(cnumpy
dtype
p11
(S'f8'
p12
I0
I1
tp13
Rp14
(I3
S'<'
p15
NNNI-1
I-1
I0
tp16
bS'\x08\nI0\x119X@'
p17
tp18
Rp19
ag10
(g14
S'\xbe\xf0\xcc\xe6O9X@'
p20
tp21
Rp22
ag10
(g14
S'\x89\xffJ\xa8L9X@'
p23
tp24
Rp25
ag10
(g14
S'\x11T,\xb919X@'
p26
tp27
Rp28
ag10
(g14
S'U\xc5WT*9X@'
p29
tp30
Rp31
ag10
(g14
S')\x9f,&\xcb8X@'
p32
tp33
Rp34
ag10
(g14
S'\xdb\xce\xcc\xed49X@'
p35
tp36
Rp37
ag10
(g14
S'\x82O4&\xe48X@'
p38
tp39
Rp40
ag10
(g14
S'\x0c\xbd\xe0SD9X@'
p41
tp42
Rp43
ag10
(g14
S'\n\xcfD\xd5\x1b9X@'
p44
tp45
Rp46
ag10
(g14
S'%\xd8G019X@'
p47
tp48
Rp49
ag10
(g14
S';\xfb\xb3S#9X@'
p50
tp51
Rp52
ag10
(g14
S'\xd1AS~$9X@'
p53
tp54
Rp55
ag10
(g14
S'WVY\x7f\x059X@'
p56
tp57
Rp58
ag10
(g14
S',rWiY9X@'
p59
tp60
Rp61
ag10
(g14
S'\x81c\xba\x88\r9X@'
p62
tp63
Rp64
ag10
(g14
S'o\x96\x14(@9X@'
p65
tp66
Rp67
ag10
(g14
S"\xf5\xae\\\x0c'9X@"
p68
tp69
Rp70
ag10
(g14
S'\xcbTA\x16_9X@'
p71
tp72
Rp73
ag10
(g14
S'*\x0f\xbee!9X@'
p74
tp75
Rp76
asS'target'
p77
(lp78
g10
(g14
S'\x05\xc80cl\xc9\x1e@'
p79
tp80
Rp81
ag10
(g14
S'aL\x98\xd7\x1bZ\x1f@'
p82
tp83
Rp84
ag10
(g14
S'vf\xfcB\xa2|\x1e@'
p85
tp86
Rp87
ag10
(g14
S'\xfd\x08\x84\xa9\xda\xe6\x1e@'
p88
tp89
Rp90
ag10
(g14
S'\xb3\x01\xb8\x04U\xbb\x1f@'
p91
tp92
Rp93
ag10
(g14
S')\xaeG\x00\xc3F\x1f@'
p94
tp95
Rp96
ag10
(g14
S'\xf5\x98/\xa8\x8d\x91\x1e@'
p97
tp98
Rp99
ag10
(g14
S'\x99\xff\xb7\x19q\xa8\x1e@'
p100
tp101
Rp102
ag10
(g14
S'\x84\xe31\x04k\x07\x1f@'
p103
tp104
Rp105
ag10
(g14
S'!\xe1 z\xb3U @'
p106
tp107
Rp108
ag10
(g14
S'\x9e\xb46\xb7`\x7f\x1e@'
p109
tp110
Rp111
ag10
(g14
S'w9\xc6\xf6\x1a:\x1e@'
p112
tp113
Rp114
ag10
(g14
S'G\x08\xe3\xc4Jq\x1f@'
p115
tp116
Rp117
ag10
(g14
S'E\xc4>\xdb\xf6\x96\x1e@'
p118
tp119
Rp120
ag10
(g14
S'\x0e\xdc\xbbc\x98=!@'
p121
tp122
Rp123
ag10
(g14
S'\x82\xafi0K\x9d\x1d@'
p124
tp125
Rp126
ag10
(g14
S'9r"\x83\xfeB\x1e@'
p127
tp128
Rp129
ag10
(g14
S'>l\xacd\xbc@\x1e@'
p130
tp131
Rp132
ag10
(g14
S'\x88\xc3\xc5P\xfc\x19\x1f@'
p133
tp134
Rp135
ag10
(g14
S'\x8d]\xa8|\x95]\x1d@'
p136
tp137
Rp138
asssss.