(dp0
S'../Data/x264_5.csv'
p1
(dp2
S'../Data/x264_19.csv'
p3
(dp4
F0.2
(dp5
S'mmre'
p6
(dp7
S'bellwether'
p8
(lp9
cnumpy.core.multiarray
scalar
p10
(cnumpy
dtype
p11
(S'f8'
p12
I0
I1
tp13
Rp14
(I3
S'<'
p15
NNNI-1
I-1
I0
tp16
bS'\x08\xd1.\t\xb8TT@'
p17
tp18
Rp19
ag10
(g14
S'l\xd8B\xc8\xc7TT@'
p20
tp21
Rp22
ag10
(g14
S'4\xca9\xf3\xaeUT@'
p23
tp24
Rp25
ag10
(g14
S'Y\x06J\xe1#VT@'
p26
tp27
Rp28
ag10
(g14
S'\xe9\xa7\x03DQWT@'
p29
tp30
Rp31
ag10
(g14
S';lcW\x19TT@'
p32
tp33
Rp34
ag10
(g14
S'\t\x9b\xefH\x1fTT@'
p35
tp36
Rp37
ag10
(g14
S'\xbe\xc0\x9f \xa9UT@'
p38
tp39
Rp40
ag10
(g14
S'&IysNUT@'
p41
tp42
Rp43
ag10
(g14
S'Ew8-\x88VT@'
p44
tp45
Rp46
ag10
(g14
S'\xb0\xb3\x7f\xed\xd2TT@'
p47
tp48
Rp49
ag10
(g14
S'r\x8e\xfaO|TT@'
p50
tp51
Rp52
ag10
(g14
S'|!\x1dL\xffST@'
p53
tp54
Rp55
ag10
(g14
S'^\xd1\xc5\xdc\xa9TT@'
p56
tp57
Rp58
ag10
(g14
S'\xb7\xe0\xb2\x94yTT@'
p59
tp60
Rp61
ag10
(g14
S'\x07P\xd8a\xc2XT@'
p62
tp63
Rp64
ag10
(g14
S'/\x95\xb8"ORT@'
p65
tp66
Rp67
ag10
(g14
S'T,1\xfa\tWT@'
p68
tp69
Rp70
ag10
(g14
S'\xd2x\x8f5\x8aST@'
p71
tp72
Rp73
ag10
(g14
S'\xf9L\xa4(\x97WT@'
p74
tp75
Rp76
asS'target'
p77
(lp78
g10
(g14
S'\n[\xb6\x1f\x97\xe8]@'
p79
tp80
Rp81
ag10
(g14
S'Zz\xed\rc\xff\\@'
p82
tp83
Rp84
ag10
(g14
S"\xdc\xb4'\xf9k\x91Z@"
p85
tp86
Rp87
ag10
(g14
S'\xd4\x11C\xd0\xe7\xb4[@'
p88
tp89
Rp90
ag10
(g14
S'\x96u\xcc\xb4\x191^@'
p91
tp92
Rp93
ag10
(g14
S'\x10\xc6{\xd8\xe6\xb0Z@'
p94
tp95
Rp96
ag10
(g14
S'\xfd\xcck\x94\xb9\xfa]@'
p97
tp98
Rp99
ag10
(g14
S'b\x15\xe2I\xcer]@'
p100
tp101
Rp102
ag10
(g14
S'\x9ci\x1ch:\xbb[@'
p103
tp104
Rp105
ag10
(g14
S'xj\x85\xe1\x99\x89[@'
p106
tp107
Rp108
ag10
(g14
S'!\xf1`\xa8t\x92\\@'
p109
tp110
Rp111
ag10
(g14
S'\x8f\xe8o\xc1)]\\@'
p112
tp113
Rp114
ag10
(g14
S'a\x7f4\xa8\x04\x85[@'
p115
tp116
Rp117
ag10
(g14
S'.\xcc@\x97\x10\xba\\@'
p118
tp119
Rp120
ag10
(g14
S'\xe7`\x00\n.1\\@'
p121
tp122
Rp123
ag10
(g14
S'\xdb3\xd0\x84\x80\r]@'
p124
tp125
Rp126
ag10
(g14
S'\xda\xe8\x91>\x90\xe3\\@'
p127
tp128
Rp129
ag10
(g14
S'\xe5\x98W]Q<^@'
p130
tp131
Rp132
ag10
(g14
S'D\x02;\xbc`\x01[@'
p133
tp134
Rp135
ag10
(g14
S'\xdd\xda\r\xf4\xd8\x0c]@'
p136
tp137
Rp138
asssss.