(dp0
S'../Data/x264_10.csv'
p1
(dp2
S'../Data/x264_19.csv'
p3
(dp4
F0.3
(dp5
S'mmre'
p6
(dp7
S'bellwether'
p8
(lp9
cnumpy.core.multiarray
scalar
p10
(cnumpy
dtype
p11
(S'f8'
p12
I0
I1
tp13
Rp14
(I3
S'<'
p15
NNNI-1
I-1
I0
tp16
bS'\x05\xfb\x96\xf1\xbbFW@'
p17
tp18
Rp19
ag10
(g14
S'\xbe\x13\x05f\xfe4W@'
p20
tp21
Rp22
ag10
(g14
S'\x14\t\xa3\xed\xadDW@'
p23
tp24
Rp25
ag10
(g14
S's\xfexU\xc25W@'
p26
tp27
Rp28
ag10
(g14
S'\x1c\xf3p]L"W@'
p29
tp30
Rp31
ag10
(g14
S'\x9d\xe0\xa9[->W@'
p32
tp33
Rp34
ag10
(g14
S'\xc1.h \x94%W@'
p35
tp36
Rp37
ag10
(g14
S";\xa8\x8b\xf1'+W@"
p38
tp39
Rp40
ag10
(g14
S'S,\x1aX\xcf\x1dW@'
p41
tp42
Rp43
ag10
(g14
S'i\x83<\xf6\x8e0W@'
p44
tp45
Rp46
ag10
(g14
S'\xc2\x17\x97\x95\x8d>W@'
p47
tp48
Rp49
ag10
(g14
S'\xac[\xdd\x00\x03*W@'
p50
tp51
Rp52
ag10
(g14
S'\xc1\xdf{\xde\xfb\x19W@'
p53
tp54
Rp55
ag10
(g14
S'\x9a/B\x88S>W@'
p56
tp57
Rp58
ag10
(g14
S'_p\xea\xffv$W@'
p59
tp60
Rp61
ag10
(g14
S'\xea;\x13\xddD*W@'
p62
tp63
Rp64
ag10
(g14
S'\xcen\xeb\\T0W@'
p65
tp66
Rp67
ag10
(g14
S"\x91u\x19\x88\x19'W@"
p68
tp69
Rp70
ag10
(g14
S'>x\xa4\xd5m;W@'
p71
tp72
Rp73
ag10
(g14
S'6\xf2\xdfsQ,W@'
p74
tp75
Rp76
asS'target'
p77
(lp78
g10
(g14
S'|\xf4m\x80\x91\xd0\\@'
p79
tp80
Rp81
ag10
(g14
S'\xa0a3\xf4\xc5\x17^@'
p82
tp83
Rp84
ag10
(g14
S'Z\x8d\xc2W#^\\@'
p85
tp86
Rp87
ag10
(g14
S'V[\x8d\xa8Ub\\@'
p88
tp89
Rp90
ag10
(g14
S'\x10\x7f\xa5\x83d\xb4\\@'
p91
tp92
Rp93
ag10
(g14
S'P{FL\xb1\x96\\@'
p94
tp95
Rp96
ag10
(g14
S'\xb2\xe2\x99\x80\xd4x]@'
p97
tp98
Rp99
ag10
(g14
S'\x8d1W\x0b\x03(\\@'
p100
tp101
Rp102
ag10
(g14
S'\xf1d\x95\xe4\r!_@'
p103
tp104
Rp105
ag10
(g14
S'\xab\x99q\xd9[\xcb\\@'
p106
tp107
Rp108
ag10
(g14
S'\xc0z7\xd0S\xe8[@'
p109
tp110
Rp111
ag10
(g14
S'8\x91y\xadWM]@'
p112
tp113
Rp114
ag10
(g14
S'\x8e\t\x9e\xca\x9eN^@'
p115
tp116
Rp117
ag10
(g14
S'\x0c;\xe6\x1bm6Z@'
p118
tp119
Rp120
ag10
(g14
S'h\xf6\xad\x82\xc8\x18]@'
p121
tp122
Rp123
ag10
(g14
S'bc\x06?\x89\xb1\\@'
p124
tp125
Rp126
ag10
(g14
S'`\xa21_<\x15^@'
p127
tp128
Rp129
ag10
(g14
S"'Qj\xa2\xa9!^@"
p130
tp131
Rp132
ag10
(g14
S'\xbe\xf0z\xbd\xa4\xb8]@'
p133
tp134
Rp135
ag10
(g14
S'\xf7B\x13"\xbeg^@'
p136
tp137
Rp138
asssss.