(dp0
S'../Data/x264_18.csv'
p1
(dp2
S'../Data/x264_5.csv'
p3
(dp4
F0.25
(dp5
S'rank'
p6
(dp7
S'bellwether'
p8
(lp9
I4
aI22
aI2
aI4
aI1
aI3
aI3
aI3
aI2
aI3
aI2
aI2
aI2
aI4
aI4
aI3
aI3
aI26
aI26
aI32
asS'target'
p10
(lp11
I0
aI2
aI0
aI9
aI3
aI0
aI0
aI0
aI7
aI52
aI3
aI0
aI8
aI0
aI0
aI0
aI0
aI0
aI0
aI5
asssss.