(dp0
S'../Data/x264_20.csv'
p1
(dp2
S'../Data/x264_17.csv'
p3
(dp4
F0.3
(dp5
S'mmre'
p6
(dp7
S'bellwether'
p8
(lp9
cnumpy.core.multiarray
scalar
p10
(cnumpy
dtype
p11
(S'f8'
p12
I0
I1
tp13
Rp14
(I3
S'<'
p15
NNNI-1
I-1
I0
tp16
bS'\x8d\x9c\xa6hD\xfbH@'
p17
tp18
Rp19
ag10
(g14
S'\n,\x8bb\x19\nI@'
p20
tp21
Rp22
ag10
(g14
S'\xd9\xecz\xb5\x9b\xfaH@'
p23
tp24
Rp25
ag10
(g14
S'(\xe8`7@\x1aI@'
p26
tp27
Rp28
ag10
(g14
S'\x82^\xd0\x94\x1c\nI@'
p29
tp30
Rp31
ag10
(g14
S'l\xa4\x99k\xd8\x0fI@'
p32
tp33
Rp34
ag10
(g14
S'5X\x95.\x91\nI@'
p35
tp36
Rp37
ag10
(g14
S'}P\xe8\x1f\x19\rI@'
p38
tp39
Rp40
ag10
(g14
S'4\\e\x84\xb4\x0cI@'
p41
tp42
Rp43
ag10
(g14
S'(.\x82\xda\xa5\rI@'
p44
tp45
Rp46
ag10
(g14
S'l\t\xa7y\xa9\x07I@'
p47
tp48
Rp49
ag10
(g14
S'\xccJ\xae\xcd\xf8\tI@'
p50
tp51
Rp52
ag10
(g14
S'\xcd8P\xfa\xe9\xfcH@'
p53
tp54
Rp55
ag10
(g14
S'\x0e\xf5mWV\x08I@'
p56
tp57
Rp58
ag10
(g14
S'/p\xee\tJ\x06I@'
p59
tp60
Rp61
ag10
(g14
S"s\x99\xfe\xc3'\x04I@"
p62
tp63
Rp64
ag10
(g14
S'\xe8N\xc0\xdf\xaa\tI@'
p65
tp66
Rp67
ag10
(g14
S'\xb9\xfa\xf3\xe8\xef\tI@'
p68
tp69
Rp70
ag10
(g14
S']\x8a\xf48n\xfaH@'
p71
tp72
Rp73
ag10
(g14
S'$\x04UJM\xf1H@'
p74
tp75
Rp76
asS'target'
p77
(lp78
g10
(g14
S'\xbc\x80\xe84`\xc8!@'
p79
tp80
Rp81
ag10
(g14
S'\x9f\xc7I6i\x90"@'
p82
tp83
Rp84
ag10
(g14
S' N\xb6\x8c\xa8="@'
p85
tp86
Rp87
ag10
(g14
S'\xc4\x80j~\xc2\x1b"@'
p88
tp89
Rp90
ag10
(g14
S'\xc9\xf0\x15L?\x80!@'
p91
tp92
Rp93
ag10
(g14
S'y2;*\x95\x1a"@'
p94
tp95
Rp96
ag10
(g14
S'\xcd\x8dg?jP"@'
p97
tp98
Rp99
ag10
(g14
S'\x89\xec\xcc9\x0f\xe1 @'
p100
tp101
Rp102
ag10
(g14
S'k\xdf\xeai\x92\xbc!@'
p103
tp104
Rp105
ag10
(g14
S'\x87\x03\xf6\xdc\xd3\x81!@'
p106
tp107
Rp108
ag10
(g14
S'\x16P\xcfD;q"@'
p109
tp110
Rp111
ag10
(g14
S'\xe2L\xe0,-\x04"@'
p112
tp113
Rp114
ag10
(g14
S'Z\xf4\xf5\x9a$\xfa!@'
p115
tp116
Rp117
ag10
(g14
S'\n9o\x0c\xd6L"@'
p118
tp119
Rp120
ag10
(g14
S'\x89y\x00?-O!@'
p121
tp122
Rp123
ag10
(g14
S'T\xae\x9e\xf2\xb1L!@'
p124
tp125
Rp126
ag10
(g14
S'\'\xe1\xe8W\xbb;"@'
p127
tp128
Rp129
ag10
(g14
S'\xbb*&\xb0J\xa5"@'
p130
tp131
Rp132
ag10
(g14
S'\xf0\xf8mq\xa8\x8a"@'
p133
tp134
Rp135
ag10
(g14
S'\x87\xe2Z\xbf\x85}"@'
p136
tp137
Rp138
asssss.