(dp0
S'../Data/x264_20.csv'
p1
(dp2
S'../Data/x264_6.csv'
p3
(dp4
F0.2
(dp5
S'abs_res'
p6
(dp7
S'bellwether'
p8
(lp9
cnumpy.core.multiarray
scalar
p10
(cnumpy
dtype
p11
(S'f8'
p12
I0
I1
tp13
Rp14
(I3
S'<'
p15
NNNI-1
I-1
I0
tp16
bS'@\x1d\x8f\xd9:c\nA'
p17
tp18
Rp19
ag10
(g14
S'\x84 \xce\xa3+a\nA'
p20
tp21
Rp22
ag10
(g14
S'\x05\x1d\xad\xea\x07n\nA'
p23
tp24
Rp25
ag10
(g14
S'\xf7\rh\t\xc6l\nA'
p26
tp27
Rp28
ag10
(g14
S'$]l\x1aig\nA'
p29
tp30
Rp31
ag10
(g14
S'\xf1\\4\x84\xc3c\nA'
p32
tp33
Rp34
ag10
(g14
S'\xc1\t\xda\x84\xe3c\nA'
p35
tp36
Rp37
ag10
(g14
S'{u\x1c\xff\xe7a\nA'
p38
tp39
Rp40
ag10
(g14
S'Y;Q2zj\nA'
p41
tp42
Rp43
ag10
(g14
S')\x81\x94XYh\nA'
p44
tp45
Rp46
ag10
(g14
S'9\xe1\t\xdd\xb0X\nA'
p47
tp48
Rp49
ag10
(g14
S'\xac\x9au\xa6\x9bd\nA'
p50
tp51
Rp52
ag10
(g14
S'\xbf\x1b`\xa6br\nA'
p53
tp54
Rp55
ag10
(g14
S'd\x1fd\x99\xf6c\nA'
p56
tp57
Rp58
ag10
(g14
S'\xd4c"\xc5\xeao\nA'
p59
tp60
Rp61
ag10
(g14
S'`\xff<\xad\xf9d\nA'
p62
tp63
Rp64
ag10
(g14
S'EM\xf4y\xa1e\nA'
p65
tp66
Rp67
ag10
(g14
S'\xb8?\x17\xadfe\nA'
p68
tp69
Rp70
ag10
(g14
S'\xbf\x97\x89\x02Jk\nA'
p71
tp72
Rp73
ag10
(g14
S'\xbc\xbeH\x88+c\nA'
p74
tp75
Rp76
asS'target'
p77
(lp78
g10
(g14
S'\xa71\x91\xd2l\xfe-@'
p79
tp80
Rp81
ag10
(g14
S'0}t\xea\xca\x17.@'
p82
tp83
Rp84
ag10
(g14
S'\xcd\xe6\x1afh,.@'
p85
tp86
Rp87
ag10
(g14
S'\x8d\x8c\x7f\x9fq)0@'
p88
tp89
Rp90
ag10
(g14
S'\x9c\x1c \x98\xa3_.@'
p91
tp92
Rp93
ag10
(g14
S'\xc0\x81\xc8"MD0@'
p94
tp95
Rp96
ag10
(g14
S'\xa4\xcfEC\xc6\xfb+@'
p97
tp98
Rp99
ag10
(g14
S'\xe0J\xc9r\x12\xfa-@'
p100
tp101
Rp102
ag10
(g14
S'\x84H\xbd\xa7r\x02.@'
p103
tp104
Rp105
ag10
(g14
S't\xe2\x1b\n\x9f}-@'
p106
tp107
Rp108
ag10
(g14
S'\xa9\xa6\\\xe1]\xf20@'
p109
tp110
Rp111
ag10
(g14
S'\x9a\xe4)\xab\xe9z/@'
p112
tp113
Rp114
ag10
(g14
S'\xb8\xa5\xd3\xba\r:.@'
p115
tp116
Rp117
ag10
(g14
S'\x91v\x14\xe7\xa8\xe70@'
p118
tp119
Rp120
ag10
(g14
S'\xa3;\x86\xc7~f-@'
p121
tp122
Rp123
ag10
(g14
S'p\xfd++M\x8a-@'
p124
tp125
Rp126
ag10
(g14
S'\x05l\x05MKD/@'
p127
tp128
Rp129
ag10
(g14
S'\x9d\xd0"\xdb\xf9\x86,@'
p130
tp131
Rp132
ag10
(g14
S'\xd0\xd2\xbe\xb9\xbfB,@'
p133
tp134
Rp135
ag10
(g14
S'\x06To\rl\x95-@'
p136
tp137
Rp138
asssss.