(dp0
S'../Data/x264_4.csv'
p1
(dp2
S'../Data/x264_16.csv'
p3
(dp4
F0.15
(dp5
S'mmre'
p6
(dp7
S'bellwether'
p8
(lp9
cnumpy.core.multiarray
scalar
p10
(cnumpy
dtype
p11
(S'f8'
p12
I0
I1
tp13
Rp14
(I3
S'<'
p15
NNNI-1
I-1
I0
tp16
bS'\x03\xe3y\xd8\xe9EX@'
p17
tp18
Rp19
ag10
(g14
S'3vn\xf7\xa1EX@'
p20
tp21
Rp22
ag10
(g14
S'~\xbd\x960\x9aEX@'
p23
tp24
Rp25
ag10
(g14
S't?\xa2\xbeOEX@'
p26
tp27
Rp28
ag10
(g14
S'~#\xf6\xd4\xf2DX@'
p29
tp30
Rp31
ag10
(g14
S'*#\x95\xc6\xd6EX@'
p32
tp33
Rp34
ag10
(g14
S'$\xf5\x87\xcb@EX@'
p35
tp36
Rp37
ag10
(g14
S'\xcf\x14\xfa\x17kEX@'
p38
tp39
Rp40
ag10
(g14
S'\x0c\xc5\x17{\x04FX@'
p41
tp42
Rp43
ag10
(g14
S"\xa7'\xc2X<EX@"
p44
tp45
Rp46
ag10
(g14
S'\xfc\xab\xc8\x9anEX@'
p47
tp48
Rp49
ag10
(g14
S'\xa9IN\x92\xdaDX@'
p50
tp51
Rp52
ag10
(g14
S'\xf8\x84\xd7\xe4\x84EX@'
p53
tp54
Rp55
ag10
(g14
S'f\xd0>P\x15EX@'
p56
tp57
Rp58
ag10
(g14
S'\xeei1\xd5fEX@'
p59
tp60
Rp61
ag10
(g14
S'\x19\xd0\xe4A5EX@'
p62
tp63
Rp64
ag10
(g14
S'\xd6BLqfEX@'
p65
tp66
Rp67
ag10
(g14
S'N\xf1\x8c\xcedEX@'
p68
tp69
Rp70
ag10
(g14
S'D5\xc8`\xcbEX@'
p71
tp72
Rp73
ag10
(g14
S'\xe3\x83+y\xa5EX@'
p74
tp75
Rp76
asS'target'
p77
(lp78
g10
(g14
S'\x94\xd0\x9d\x16\xee\x15*@'
p79
tp80
Rp81
ag10
(g14
S'n\xb4\xe8d|\xa4(@'
p82
tp83
Rp84
ag10
(g14
S'\xf4c\x81\xd7\xa9\x01)@'
p85
tp86
Rp87
ag10
(g14
S'\xe3J\x1d5I2*@'
p88
tp89
Rp90
ag10
(g14
S'\xad5\x18\xa1GP&@'
p91
tp92
Rp93
ag10
(g14
S'^cP\xad\xec\x10)@'
p94
tp95
Rp96
ag10
(g14
S"A\x89\xf4\xe9v\xf5'@"
p97
tp98
Rp99
ag10
(g14
S'\x0c\x96\xc17w\xbe(@'
p100
tp101
Rp102
ag10
(g14
S'Je\x82G#i)@'
p103
tp104
Rp105
ag10
(g14
S"\x1by8Y\x06')@"
p106
tp107
Rp108
ag10
(g14
S'e\x8d\xd5\x17\x0e\x1b(@'
p109
tp110
Rp111
ag10
(g14
S'\xe3\x03E\xd1\x7f&(@'
p112
tp113
Rp114
ag10
(g14
S'\x18\xc47F\xffA)@'
p115
tp116
Rp117
ag10
(g14
S'A\x04@\x9fF\x01(@'
p118
tp119
Rp120
ag10
(g14
S'\xbb\r\xcct\xfc\xbc(@'
p121
tp122
Rp123
ag10
(g14
S'\x9a\xf5\xc3E\xc3G)@'
p124
tp125
Rp126
ag10
(g14
S".\xe2L6G\xdd'@"
p127
tp128
Rp129
ag10
(g14
S'$P\xe3\x18\xa6\xba(@'
p130
tp131
Rp132
ag10
(g14
S'\xac\xbb\xc3`V\xa0+@'
p133
tp134
Rp135
ag10
(g14
S'\xe3\x04\x0c\xab\x9eA)@'
p136
tp137
Rp138
asssss.