(dp0
S'../Data/x264_5.csv'
p1
(dp2
S'../Data/x264_19.csv'
p3
(dp4
F0.1
(dp5
S'mmre'
p6
(dp7
S'bellwether'
p8
(lp9
cnumpy.core.multiarray
scalar
p10
(cnumpy
dtype
p11
(S'f8'
p12
I0
I1
tp13
Rp14
(I3
S'<'
p15
NNNI-1
I-1
I0
tp16
bS'\xc7#\t#bTT@'
p17
tp18
Rp19
ag10
(g14
S'E\x18\xe7\xb9VST@'
p20
tp21
Rp22
ag10
(g14
S'\xfcU\x01\xba>XT@'
p23
tp24
Rp25
ag10
(g14
S'p2\xab\xf5aUT@'
p26
tp27
Rp28
ag10
(g14
S'\x06\xa1\xc1\xe6XVT@'
p29
tp30
Rp31
ag10
(g14
S'\x1b\xc4\x90?\xc1TT@'
p32
tp33
Rp34
ag10
(g14
S'\xec=\x96y}ST@'
p35
tp36
Rp37
ag10
(g14
S'\xdd\xbe\x86\xb0tTT@'
p38
tp39
Rp40
ag10
(g14
S'\xf7\xee\xc4%bVT@'
p41
tp42
Rp43
ag10
(g14
S'm\t\xc9\x14#UT@'
p44
tp45
Rp46
ag10
(g14
S'\xf9>\xd3\xff\x0cST@'
p47
tp48
Rp49
ag10
(g14
S',y\xa6c\xa1UT@'
p50
tp51
Rp52
ag10
(g14
S'\x87J\xa8c\xf3ST@'
p53
tp54
Rp55
ag10
(g14
S'~\xde\xd3\xd9\xb1UT@'
p56
tp57
Rp58
ag10
(g14
S'\xb57r\xceDYT@'
p59
tp60
Rp61
ag10
(g14
S'\xdea\n\xa3\xc7TT@'
p62
tp63
Rp64
ag10
(g14
S's\x14\x0e\xc6,ST@'
p65
tp66
Rp67
ag10
(g14
S'-B\x06\xe8\x93UT@'
p68
tp69
Rp70
ag10
(g14
S'\xf9\xc0\x8f\xaa\xaaRT@'
p71
tp72
Rp73
ag10
(g14
S'p\x17\r\x1e4UT@'
p74
tp75
Rp76
asS'target'
p77
(lp78
g10
(g14
S'q\x0bw\x95\xc1V^@'
p79
tp80
Rp81
ag10
(g14
S'\x16\n\x07\x80\x1f \\@'
p82
tp83
Rp84
ag10
(g14
S'L\x98\x1e\x9c\xcc\x1c\\@'
p85
tp86
Rp87
ag10
(g14
S'\x86&\xd2\xdf\xaeq\\@'
p88
tp89
Rp90
ag10
(g14
S'+\xfa\x7f\x00b\r[@'
p91
tp92
Rp93
ag10
(g14
S'\x96\xac,Ik~]@'
p94
tp95
Rp96
ag10
(g14
S'\xe5\x1bu\xcb\xdeB\\@'
p97
tp98
Rp99
ag10
(g14
S'[\xa4sWae]@'
p100
tp101
Rp102
ag10
(g14
S'\xb4\xed\xb7\x95\x1d\x12\\@'
p103
tp104
Rp105
ag10
(g14
S'\xcc\x15\xd8\xe6\xb5%]@'
p106
tp107
Rp108
ag10
(g14
S'\x18=|7\xfe\xf5\\@'
p109
tp110
Rp111
ag10
(g14
S'\xa6\x8a\x92\x10\x8eB[@'
p112
tp113
Rp114
ag10
(g14
S'\xfed1{\xdf\xfc\\@'
p115
tp116
Rp117
ag10
(g14
S'\xd3\xd9\x84\x7f,}\\@'
p118
tp119
Rp120
ag10
(g14
S'(\xf6\xebmOt\\@'
p121
tp122
Rp123
ag10
(g14
S'\xf8\xd60p\x00\x1e]@'
p124
tp125
Rp126
ag10
(g14
S'\x9f\x8c\xe7x\x94\x19]@'
p127
tp128
Rp129
ag10
(g14
S'$\x0e\x93\x0b\xf6\xbb[@'
p130
tp131
Rp132
ag10
(g14
S'\xd0S\x0f\xfc\xfb\xdb]@'
p133
tp134
Rp135
ag10
(g14
S'b<\x8c0`"[@'
p136
tp137
Rp138
asssss.