(dp0
S'../Data/x264_10.csv'
p1
(dp2
S'../Data/x264_19.csv'
p3
(dp4
F0.25
(dp5
S'mmre'
p6
(dp7
S'bellwether'
p8
(lp9
cnumpy.core.multiarray
scalar
p10
(cnumpy
dtype
p11
(S'f8'
p12
I0
I1
tp13
Rp14
(I3
S'<'
p15
NNNI-1
I-1
I0
tp16
bS'{\x97\xd88%KW@'
p17
tp18
Rp19
ag10
(g14
S'&\xda\xe9Z\xc35W@'
p20
tp21
Rp22
ag10
(g14
S'\xa4\x08\xe7\xf3\xf20W@'
p23
tp24
Rp25
ag10
(g14
S'\x08.\xa5\x95VEW@'
p26
tp27
Rp28
ag10
(g14
S'$\xfe\x85\xedlBW@'
p29
tp30
Rp31
ag10
(g14
S'?t\x15\xde\x9b\x1eW@'
p32
tp33
Rp34
ag10
(g14
S'|\xb4\x8d\x1f\x02;W@'
p35
tp36
Rp37
ag10
(g14
S'\xf6\\K\x7f\xa12W@'
p38
tp39
Rp40
ag10
(g14
S'\xd9@eIfJW@'
p41
tp42
Rp43
ag10
(g14
S'a\xe4}1U;W@'
p44
tp45
Rp46
ag10
(g14
S"\x98\x955\xbe\xbd'W@"
p47
tp48
Rp49
ag10
(g14
S'\xf3\xde_t\xe6\x1fW@'
p50
tp51
Rp52
ag10
(g14
S'N\x17\xcd\xb4\xc9.W@'
p53
tp54
Rp55
ag10
(g14
S"0\xde'7s4W@"
p56
tp57
Rp58
ag10
(g14
S'e`\xea\x86\x03?W@'
p59
tp60
Rp61
ag10
(g14
S'3\xfc\x99La/W@'
p62
tp63
Rp64
ag10
(g14
S' \xb9\x1c\\\xf7&W@'
p65
tp66
Rp67
ag10
(g14
S'@\xf4\x1b.I@W@'
p68
tp69
Rp70
ag10
(g14
S'J\x1d\x9e/\xad@W@'
p71
tp72
Rp73
ag10
(g14
S'\xe1\xab\x9fW\xb60W@'
p74
tp75
Rp76
asS'target'
p77
(lp78
g10
(g14
S'\xbf\n!\xbd\xed$]@'
p79
tp80
Rp81
ag10
(g14
S'\x0cmvV\xb1\xec\\@'
p82
tp83
Rp84
ag10
(g14
S'+"_\xdb\xe1\xe0]@'
p85
tp86
Rp87
ag10
(g14
S'\xb9\xe5\xdd#O\x1d[@'
p88
tp89
Rp90
ag10
(g14
S'\xae\xa5e\xe3HR\\@'
p91
tp92
Rp93
ag10
(g14
S')iE\xbe\xda\x08^@'
p94
tp95
Rp96
ag10
(g14
S'\x84+\xcf\x03\x15k\\@'
p97
tp98
Rp99
ag10
(g14
S'\x06\xd0\xa3}\xe6\xb4]@'
p100
tp101
Rp102
ag10
(g14
S"\x13\x17'\xc1\xf8\xd6[@"
p103
tp104
Rp105
ag10
(g14
S"\xd3\xe9\xc5<\xaa']@"
p106
tp107
Rp108
ag10
(g14
S'\xab\xb5\xce\xef\x19Z]@'
p109
tp110
Rp111
ag10
(g14
S'\xe2;\x98\xa9\xa6\x99^@'
p112
tp113
Rp114
ag10
(g14
S'U]?c\xb9\x0c]@'
p115
tp116
Rp117
ag10
(g14
S';\x19T\x969\x15^@'
p118
tp119
Rp120
ag10
(g14
S'\xeaj\x9d?\x85\x97[@'
p121
tp122
Rp123
ag10
(g14
S'\xe1o?\xf3\xa0\xa0^@'
p124
tp125
Rp126
ag10
(g14
S'\x90rE\x98]i\\@'
p127
tp128
Rp129
ag10
(g14
S'n\x06Y\x86\x1a\xda[@'
p130
tp131
Rp132
ag10
(g14
S'\x92\xe9-b#\xb1\\@'
p133
tp134
Rp135
ag10
(g14
S'iX\x9a\xea\xddm]@'
p136
tp137
Rp138
asssss.