(dp0
S'../Data/x264_4.csv'
p1
(dp2
S'../Data/x264_16.csv'
p3
(dp4
F0.05
(dp5
S'mmre'
p6
(dp7
S'bellwether'
p8
(lp9
cnumpy.core.multiarray
scalar
p10
(cnumpy
dtype
p11
(S'f8'
p12
I0
I1
tp13
Rp14
(I3
S'<'
p15
NNNI-1
I-1
I0
tp16
bS'\x13\xe8\x18}OEX@'
p17
tp18
Rp19
ag10
(g14
S'\x06\xb8\xb5ZtEX@'
p20
tp21
Rp22
ag10
(g14
S'\xf5\xa3.\xd36EX@'
p23
tp24
Rp25
ag10
(g14
S'\xef\x07`pvEX@'
p26
tp27
Rp28
ag10
(g14
S'\xe1!4\x8b9EX@'
p29
tp30
Rp31
ag10
(g14
S'\xd7\xc7;\xab\xa7EX@'
p32
tp33
Rp34
ag10
(g14
S'M!\xcc\xd8\x82EX@'
p35
tp36
Rp37
ag10
(g14
S'\x04c\xe9\x1aEEX@'
p38
tp39
Rp40
ag10
(g14
S'\xf0\x08\x84\x99\x8eEX@'
p41
tp42
Rp43
ag10
(g14
S' \xdc\x9cJPEX@'
p44
tp45
Rp46
ag10
(g14
S'j\x89\xf0d\x88EX@'
p47
tp48
Rp49
ag10
(g14
S'K\x94\xb4\x81dEX@'
p50
tp51
Rp52
ag10
(g14
S'\xee\xef\xb33\x91EX@'
p53
tp54
Rp55
ag10
(g14
S'\xd9b0\xe3 EX@'
p56
tp57
Rp58
ag10
(g14
S'\xfbc\x8d\x9beEX@'
p59
tp60
Rp61
ag10
(g14
S'\x96?g\rPEX@'
p62
tp63
Rp64
ag10
(g14
S'\xa6)\x1d<<EX@'
p65
tp66
Rp67
ag10
(g14
S'[ 4y@EX@'
p68
tp69
Rp70
ag10
(g14
S'~\xc7D\xfbAEX@'
p71
tp72
Rp73
ag10
(g14
S'\xdb\x16\xc8\xee\x80EX@'
p74
tp75
Rp76
asS'target'
p77
(lp78
g10
(g14
S'\xb9\xcc\x94\xf0\x1f)(@'
p79
tp80
Rp81
ag10
(g14
S'#\xc6\xe2\xd0\xfd\xa2(@'
p82
tp83
Rp84
ag10
(g14
S'\x9b\xcd\xd9\xc7\xc6\xa8+@'
p85
tp86
Rp87
ag10
(g14
S'\x14\xb4\xc2@-\x82&@'
p88
tp89
Rp90
ag10
(g14
S'\xc7\xfa\xb66R\xaf-@'
p91
tp92
Rp93
ag10
(g14
S"e\xbc2\x99I'0@"
p94
tp95
Rp96
ag10
(g14
S'\x18z\xa4\xe6S\xb80@'
p97
tp98
Rp99
ag10
(g14
S"8\xa2\xac\xe4!\xe8'@"
p100
tp101
Rp102
ag10
(g14
S'9\x10\x9d\x10:\x8a)@'
p103
tp104
Rp105
ag10
(g14
S'\x7fN\x93\x13b\xcb,@'
p106
tp107
Rp108
ag10
(g14
S'\x05\xee\xe7\x02d\xf7)@'
p109
tp110
Rp111
ag10
(g14
S'P\xc4%\xbb\x7f\xc0)@'
p112
tp113
Rp114
ag10
(g14
S'\xbf\xadsEj\x06/@'
p115
tp116
Rp117
ag10
(g14
S'\x9e9\x1a\xd4|"+@'
p118
tp119
Rp120
ag10
(g14
S'pR\x06\xc9\xda\xe4)@'
p121
tp122
Rp123
ag10
(g14
S'\xde\x94\x8e}\x9cZ+@'
p124
tp125
Rp126
ag10
(g14
S"|]*\xc5A\xec'@"
p127
tp128
Rp129
ag10
(g14
S"\xa7\xc6 \x97r\x8d'@"
p130
tp131
Rp132
ag10
(g14
S')\x90\x85\x048*)@'
p133
tp134
Rp135
ag10
(g14
S'n\x9eg\x8f\xc2x)@'
p136
tp137
Rp138
asssss.