(dp0
S'../Data/x264_2.csv'
p1
(dp2
S'../Data/x264_17.csv'
p3
(dp4
F0.35
(dp5
S'mmre'
p6
(dp7
S'bellwether'
p8
(lp9
cnumpy.core.multiarray
scalar
p10
(cnumpy
dtype
p11
(S'f8'
p12
I0
I1
tp13
Rp14
(I3
S'<'
p15
NNNI-1
I-1
I0
tp16
bS'\x82\xabtczrW@'
p17
tp18
Rp19
ag10
(g14
S'[0\x8a\xf3\tsW@'
p20
tp21
Rp22
ag10
(g14
S'\xeb\x97tl\x7frW@'
p23
tp24
Rp25
ag10
(g14
S'\xf9\x8fB\x8c\xefrW@'
p26
tp27
Rp28
ag10
(g14
S'\xf7\x82[\x9f]rW@'
p29
tp30
Rp31
ag10
(g14
S'\xe5\xf9t=9rW@'
p32
tp33
Rp34
ag10
(g14
S'\x86p5o\xa8rW@'
p35
tp36
Rp37
ag10
(g14
S')\xb9\xe0)yrW@'
p38
tp39
Rp40
ag10
(g14
S'\xa0\xafKm\xf2rW@'
p41
tp42
Rp43
ag10
(g14
S'\xca\xedPiWrW@'
p44
tp45
Rp46
ag10
(g14
S'\xc4\x87\xc2,\xabrW@'
p47
tp48
Rp49
ag10
(g14
S'\xe1;\xf9\xf2\xdbrW@'
p50
tp51
Rp52
ag10
(g14
S'(\xed\x1b\x8c\xf2rW@'
p53
tp54
Rp55
ag10
(g14
S'MZ\x82\x05\xe4pW@'
p56
tp57
Rp58
ag10
(g14
S'\xc1\xd6|I\x99rW@'
p59
tp60
Rp61
ag10
(g14
S'\xad\xde\xb3\xf1GsW@'
p62
tp63
Rp64
ag10
(g14
S'\xb9\x9a\x8f\x9e\x11sW@'
p65
tp66
Rp67
ag10
(g14
S' \\0\xa6\xebrW@'
p68
tp69
Rp70
ag10
(g14
S'0\x9ehw\x0esW@'
p71
tp72
Rp73
ag10
(g14
S'\xf0C\x9c|\x96rW@'
p74
tp75
Rp76
asS'target'
p77
(lp78
g10
(g14
S'\xe3\xc4\x19\x8f\xb9m!@'
p79
tp80
Rp81
ag10
(g14
S'\xedG\xc5&\x1d\xf6"@'
p82
tp83
Rp84
ag10
(g14
S'\xe4\x1c\xef\xbf\x92\xb6!@'
p85
tp86
Rp87
ag10
(g14
S'-\xa6w\xbf\x0e\xe1!@'
p88
tp89
Rp90
ag10
(g14
S'\xccc{\xd1\xd26!@'
p91
tp92
Rp93
ag10
(g14
S'\x93,n?"\xc3!@'
p94
tp95
Rp96
ag10
(g14
S'\xc4\x93\x15+It"@'
p97
tp98
Rp99
ag10
(g14
S')\xd46\xc4X\xe5 @'
p100
tp101
Rp102
ag10
(g14
S'z4oJ%\x10"@'
p103
tp104
Rp105
ag10
(g14
S'\xb6\x9a\x95\x14\t\x9c!@'
p106
tp107
Rp108
ag10
(g14
S'\xc0e\xae\xfd\xcb>"@'
p109
tp110
Rp111
ag10
(g14
S"\xa2S\xa8\xf5\x92'#@"
p112
tp113
Rp114
ag10
(g14
S'\xd3&\x0c\xdc4O!@'
p115
tp116
Rp117
ag10
(g14
S'/\xfa\x8d|\x94\x8c!@'
p118
tp119
Rp120
ag10
(g14
S'\xcc\xd6\xf7fc]"@'
p121
tp122
Rp123
ag10
(g14
S'\xdcU\xdd\xb1\x0b\xa9"@'
p124
tp125
Rp126
ag10
(g14
S'\xbfo\xa3\x06\xdbn"@'
p127
tp128
Rp129
ag10
(g14
S'\xe0\x14EI(r!@'
p130
tp131
Rp132
ag10
(g14
S'\xa7\xda\xedBS\x01!@'
p133
tp134
Rp135
ag10
(g14
S'\xf5\xed\xed;\x8e\x9f!@'
p136
tp137
Rp138
asssss.