(dp0
S'../Data/x264_1.csv'
p1
(dp2
S'../Data/x264_16.csv'
p3
(dp4
F0.1
(dp5
S'mmre'
p6
(dp7
S'bellwether'
p8
(lp9
cnumpy.core.multiarray
scalar
p10
(cnumpy
dtype
p11
(S'f8'
p12
I0
I1
tp13
Rp14
(I3
S'<'
p15
NNNI-1
I-1
I0
tp16
bS';"`#\x88fW@'
p17
tp18
Rp19
ag10
(g14
S'\xcc^\x04\n\xa4fW@'
p20
tp21
Rp22
ag10
(g14
S'\x04W\xb4\xdb\x84gW@'
p23
tp24
Rp25
ag10
(g14
S'\xed\xde\x933\x91fW@'
p26
tp27
Rp28
ag10
(g14
S'*j\x1b\n}gW@'
p29
tp30
Rp31
ag10
(g14
S'\x99\x0b\x00N\xeefW@'
p32
tp33
Rp34
ag10
(g14
S'\x9f\x99\x93[\xf7fW@'
p35
tp36
Rp37
ag10
(g14
S'1\xc4 B\x8dfW@'
p38
tp39
Rp40
ag10
(g14
S'3\x06x\x0f\x92fW@'
p41
tp42
Rp43
ag10
(g14
S'\xdd\x01\xd1\x19\x12gW@'
p44
tp45
Rp46
ag10
(g14
S'\x97\x18FyRfW@'
p47
tp48
Rp49
ag10
(g14
S'\x19M\x88\x99\x9efW@'
p50
tp51
Rp52
ag10
(g14
S'\x81GC\x1b\x00gW@'
p53
tp54
Rp55
ag10
(g14
S'L\r\x95\xa0)gW@'
p56
tp57
Rp58
ag10
(g14
S'\xed\x1bN\t\x8efW@'
p59
tp60
Rp61
ag10
(g14
S'\x14V\x03F\xdffW@'
p62
tp63
Rp64
ag10
(g14
S'\t\x07\xa9\xa8\xa7fW@'
p65
tp66
Rp67
ag10
(g14
S'\xb2\xc8\x10afgW@'
p68
tp69
Rp70
ag10
(g14
S'#\x12G\x08\xbbfW@'
p71
tp72
Rp73
ag10
(g14
S'/hf&|fW@'
p74
tp75
Rp76
asS'target'
p77
(lp78
g10
(g14
S'\x80\xdd\x99\xef\xd8\xa4&@'
p79
tp80
Rp81
ag10
(g14
S'g\xdf\xf0)\xa28)@'
p82
tp83
Rp84
ag10
(g14
S's\xbe\xee\x98\xe67+@'
p85
tp86
Rp87
ag10
(g14
S'\xc9\x02M\xe1\x96\x9c)@'
p88
tp89
Rp90
ag10
(g14
S'\x05\xf1R>\x15\xde*@'
p91
tp92
Rp93
ag10
(g14
S'\x19\xe2\xe2\xe9\xd6\xb9*@'
p94
tp95
Rp96
ag10
(g14
S'pav\x1bn\xa3*@'
p97
tp98
Rp99
ag10
(g14
S'\x88\xe01"\xe1\x15\'@'
p100
tp101
Rp102
ag10
(g14
S'\x08b\n~=:(@'
p103
tp104
Rp105
ag10
(g14
S'\xfd\x8ct\xba\xa8G+@'
p106
tp107
Rp108
ag10
(g14
S'A\xa0{,\x04\xa6(@'
p109
tp110
Rp111
ag10
(g14
S"\xc7\xe52\xef\xc4\x07'@"
p112
tp113
Rp114
ag10
(g14
S'\n\xb8V\x1a\xc3\x93(@'
p115
tp116
Rp117
ag10
(g14
S'm.4\xf0\x01\xea*@'
p118
tp119
Rp120
ag10
(g14
S'\x925\x8e-E\x0f*@'
p121
tp122
Rp123
ag10
(g14
S'O\x05H\x10\xcc\xc5,@'
p124
tp125
Rp126
ag10
(g14
S'\xa3=\xc9\\\x81P,@'
p127
tp128
Rp129
ag10
(g14
S'#\xa88\x86\xc9\x86+@'
p130
tp131
Rp132
ag10
(g14
S"1An\xc2\xbb\x0e'@"
p133
tp134
Rp135
ag10
(g14
S'\xe3\x94O\xd0\xa0?&@'
p136
tp137
Rp138
asssss.