(dp0
S'../Data/x264_15.csv'
p1
(dp2
S'../Data/x264_16.csv'
p3
(dp4
F0.05
(dp5
S'mmre'
p6
(dp7
S'bellwether'
p8
(lp9
cnumpy.core.multiarray
scalar
p10
(cnumpy
dtype
p11
(S'f8'
p12
I0
I1
tp13
Rp14
(I3
S'<'
p15
NNNI-1
I-1
I0
tp16
bS'U\xac\x02U\x07bW@'
p17
tp18
Rp19
ag10
(g14
S'\x89Q%DicW@'
p20
tp21
Rp22
ag10
(g14
S'1\xfb\x16\xdd\xfccW@'
p23
tp24
Rp25
ag10
(g14
S'\xe7#]{b^W@'
p26
tp27
Rp28
ag10
(g14
S'H1\x1e\x0c\x07eW@'
p29
tp30
Rp31
ag10
(g14
S'\xe8\x17\x7f\x01\x8fcW@'
p32
tp33
Rp34
ag10
(g14
S'\x1b\x19&h\xf0aW@'
p35
tp36
Rp37
ag10
(g14
S'\xcc\xabk\x9bvdW@'
p38
tp39
Rp40
ag10
(g14
S'\xc4\xa4%0\xbbfW@'
p41
tp42
Rp43
ag10
(g14
S'\x80\x02Le\x9ddW@'
p44
tp45
Rp46
ag10
(g14
S'R\xaa\xee?[_W@'
p47
tp48
Rp49
ag10
(g14
S'\xceAN1\x8bcW@'
p50
tp51
Rp52
ag10
(g14
S'\xef\xdf\xe8\x08.aW@'
p53
tp54
Rp55
ag10
(g14
S'\xad\x17\xee-\x87cW@'
p56
tp57
Rp58
ag10
(g14
S'\xf8\x93\x96\xf2\xafbW@'
p59
tp60
Rp61
ag10
(g14
S'!\x1b\xaf\xf3\xa3aW@'
p62
tp63
Rp64
ag10
(g14
S'\xf8o\x94}\x81cW@'
p65
tp66
Rp67
ag10
(g14
S'\xc7n\x15P~aW@'
p68
tp69
Rp70
ag10
(g14
S'\xc6\x0f\xe2\x98\x04bW@'
p71
tp72
Rp73
ag10
(g14
S'\x1cJ\xc5\x1c\xf3^W@'
p74
tp75
Rp76
asS'target'
p77
(lp78
g10
(g14
S'R\xddz\xcf\xdf9)@'
p79
tp80
Rp81
ag10
(g14
S'c6\x84\xb1\x82\xb7)@'
p82
tp83
Rp84
ag10
(g14
S'\xa9\x9cE\x1d"\x98)@'
p85
tp86
Rp87
ag10
(g14
S'\xd3\x1d1(\x1f\xe3)@'
p88
tp89
Rp90
ag10
(g14
S'\xfa@l<\xf7\x9e+@'
p91
tp92
Rp93
ag10
(g14
S'\xe8\xdd{\xb2^o+@'
p94
tp95
Rp96
ag10
(g14
S'\xbd\x85\xf4\xac\xb1@,@'
p97
tp98
Rp99
ag10
(g14
S'X\x1c&M\x16O+@'
p100
tp101
Rp102
ag10
(g14
S"b\x01'\xfb\x1bd*@"
p103
tp104
Rp105
ag10
(g14
S'\x85\x8cZ8T\xc1)@'
p106
tp107
Rp108
ag10
(g14
S'\xb7\x00L\x8as%,@'
p109
tp110
Rp111
ag10
(g14
S'c\xcf\x01{\x06U(@'
p112
tp113
Rp114
ag10
(g14
S'JB*\xb7\xa9\xbd(@'
p115
tp116
Rp117
ag10
(g14
S'_5g\xf3\xd9n-@'
p118
tp119
Rp120
ag10
(g14
S'u\xab\x17\xfa\xa7\xaa)@'
p121
tp122
Rp123
ag10
(g14
S'\xbc\xd7\xd6\x164x*@'
p124
tp125
Rp126
ag10
(g14
S'1}\xf6\x1fb\x14+@'
p127
tp128
Rp129
ag10
(g14
S'\x1c\xa4-\xb8\x9a\x07.@'
p130
tp131
Rp132
ag10
(g14
S'ld\xd7MR/-@'
p133
tp134
Rp135
ag10
(g14
S'\xcb\xec\x9c\xf8{~,@'
p136
tp137
Rp138
asssss.