(dp0
S'../Data/x264_16.csv'
p1
(dp2
S'../Data/x264_17.csv'
p3
(dp4
F0.4
(dp5
S'mmre'
p6
(dp7
S'bellwether'
p8
(lp9
cnumpy.core.multiarray
scalar
p10
(cnumpy
dtype
p11
(S'f8'
p12
I0
I1
tp13
Rp14
(I3
S'<'
p15
NNNI-1
I-1
I0
tp16
bS'/\x9a\x7fFG+Q@'
p17
tp18
Rp19
ag10
(g14
S'\x0cFj\x04\x1c*Q@'
p20
tp21
Rp22
ag10
(g14
S'\xcd\x02\x12\xa3\xab(Q@'
p23
tp24
Rp25
ag10
(g14
S'\xc3\xbez\xe3|(Q@'
p26
tp27
Rp28
ag10
(g14
S'_\x12\xa0$\xa75Q@'
p29
tp30
Rp31
ag10
(g14
S'\xff\xaeh_\xde4Q@'
p32
tp33
Rp34
ag10
(g14
S'h\x8a\n$J*Q@'
p35
tp36
Rp37
ag10
(g14
S'!\xb5\x7f\xfc\xc6/Q@'
p38
tp39
Rp40
ag10
(g14
S'\xc56\xc2~\x8a%Q@'
p41
tp42
Rp43
ag10
(g14
S"f\x0e'\xd4`1Q@"
p44
tp45
Rp46
ag10
(g14
S'\xad\x1b\x19\xb7<.Q@'
p47
tp48
Rp49
ag10
(g14
S'\xe6#\x9c\xa6\x1c1Q@'
p50
tp51
Rp52
ag10
(g14
S'M\xf4\xbe\x06\xf3/Q@'
p53
tp54
Rp55
ag10
(g14
S'\x1e\xaa\xdf\x07?!Q@'
p56
tp57
Rp58
ag10
(g14
S' \xa1?8\xe4)Q@'
p59
tp60
Rp61
ag10
(g14
S'\xaa/\xf2\xe7\xf9"Q@'
p62
tp63
Rp64
ag10
(g14
S'\x95mK\x1e\xc0&Q@'
p65
tp66
Rp67
ag10
(g14
S'nZ\x93\x8c\xbf*Q@'
p68
tp69
Rp70
ag10
(g14
S':4\xc6\xe779Q@'
p71
tp72
Rp73
ag10
(g14
S'`.\x88\x8f\x0c)Q@'
p74
tp75
Rp76
asS'target'
p77
(lp78
g10
(g14
S'\\~\xfd\x9d\xaa@!@'
p79
tp80
Rp81
ag10
(g14
S'\x8c\xecx>\x88\x8f"@'
p82
tp83
Rp84
ag10
(g14
S'<\t\xab4\xf4\xd7!@'
p85
tp86
Rp87
ag10
(g14
S'\xd6*t\xb7P-!@'
p88
tp89
Rp90
ag10
(g14
S'4\x8a\x8e\x8b\xdb\xb4!@'
p91
tp92
Rp93
ag10
(g14
S'o\x88\x13\x1a\x08\x87"@'
p94
tp95
Rp96
ag10
(g14
S'<\xe4\x07>\xf9\x15"@'
p97
tp98
Rp99
ag10
(g14
S'\x80\xb4\x1d>\xde\xc8!@'
p100
tp101
Rp102
ag10
(g14
S'\xf3\x05yd\xde\x92!@'
p103
tp104
Rp105
ag10
(g14
S'\xc7-\x1c\xa5_n"@'
p106
tp107
Rp108
ag10
(g14
S'\x85\x9d\xeb\xcc\xcbq!@'
p109
tp110
Rp111
ag10
(g14
S'\x0c\xf0\xd9 s\xda!@'
p112
tp113
Rp114
ag10
(g14
S'U\x8fr\xc2/\xa9!@'
p115
tp116
Rp117
ag10
(g14
S'\xc63\xa1\xe0\xeb\x91!@'
p118
tp119
Rp120
ag10
(g14
S'-btR<\xf3!@'
p121
tp122
Rp123
ag10
(g14
S'\x9f`0\x93Z{!@'
p124
tp125
Rp126
ag10
(g14
S'7i,y\xf7D"@'
p127
tp128
Rp129
ag10
(g14
S'\xc9}l\x9b]\xd6!@'
p130
tp131
Rp132
ag10
(g14
S'\xe9Vb\xa2\xb0\x83!@'
p133
tp134
Rp135
ag10
(g14
S'\xcc*M-\xf5\xd2!@'
p136
tp137
Rp138
asssss.