(dp0
S'../Data/x264_1.csv'
p1
(dp2
S'../Data/x264_16.csv'
p3
(dp4
F0.15
(dp5
S'mmre'
p6
(dp7
S'bellwether'
p8
(lp9
cnumpy.core.multiarray
scalar
p10
(cnumpy
dtype
p11
(S'f8'
p12
I0
I1
tp13
Rp14
(I3
S'<'
p15
NNNI-1
I-1
I0
tp16
bS'\x17!\x83\xd3\xb1fW@'
p17
tp18
Rp19
ag10
(g14
S'^$\xf2.\x12gW@'
p20
tp21
Rp22
ag10
(g14
S'\xa0\x83\x96\xd1mgW@'
p23
tp24
Rp25
ag10
(g14
S'/\xa7\x04*WgW@'
p26
tp27
Rp28
ag10
(g14
S'\\\xfcY\x1f\xf3fW@'
p29
tp30
Rp31
ag10
(g14
S'\xc9<\xf5&~gW@'
p32
tp33
Rp34
ag10
(g14
S'\x87\xe0\x87Y7gW@'
p35
tp36
Rp37
ag10
(g14
S'\xf5\xdeG\xa3\x17gW@'
p38
tp39
Rp40
ag10
(g14
S'\xc1\xcew|\x1fgW@'
p41
tp42
Rp43
ag10
(g14
S'\xcb\xfc\r\x19\x13gW@'
p44
tp45
Rp46
ag10
(g14
S'R\xd4\xcel\xb8fW@'
p47
tp48
Rp49
ag10
(g14
S'\xef\xa0_\x11?fW@'
p50
tp51
Rp52
ag10
(g14
S'\xd5c\xaf\x05\x7ffW@'
p53
tp54
Rp55
ag10
(g14
S'\x0f\x92\xbc\xbe\x88fW@'
p56
tp57
Rp58
ag10
(g14
S'a\x04\xa4\xf8[gW@'
p59
tp60
Rp61
ag10
(g14
S'\x97\xe2t\x87jgW@'
p62
tp63
Rp64
ag10
(g14
S'\xf7U\xad\xda\x08gW@'
p65
tp66
Rp67
ag10
(g14
S'\n\xdd\x19\xf6PgW@'
p68
tp69
Rp70
ag10
(g14
S'\x89\x99%\x0e]fW@'
p71
tp72
Rp73
ag10
(g14
S'\xa2\x95\x07\xad\xfcfW@'
p74
tp75
Rp76
asS'target'
p77
(lp78
g10
(g14
S'\x08te\xcf\x12\x06(@'
p79
tp80
Rp81
ag10
(g14
S'T\xb5A\xc0\xca\xda)@'
p82
tp83
Rp84
ag10
(g14
S'>c\x10}>E*@'
p85
tp86
Rp87
ag10
(g14
S'\x1a\x1eX\xb7\x827)@'
p88
tp89
Rp90
ag10
(g14
S'j\xcd\x86\x8fT\x12+@'
p91
tp92
Rp93
ag10
(g14
S"\xaa:\xc3@\x94\x9e'@"
p94
tp95
Rp96
ag10
(g14
S'_\xfc\xaf\xb8@\xd3)@'
p97
tp98
Rp99
ag10
(g14
S'\xe6\xd6/\x1fE\xc2)@'
p100
tp101
Rp102
ag10
(g14
S'r\x9eH\x05\xab\x86)@'
p103
tp104
Rp105
ag10
(g14
S'\x9f\xdc\x14p\x1c\r)@'
p106
tp107
Rp108
ag10
(g14
S'7]u]\x90j+@'
p109
tp110
Rp111
ag10
(g14
S'\xf3\xfb\xb4v+i(@'
p112
tp113
Rp114
ag10
(g14
S'\x83#Fl\xb1\xeb)@'
p115
tp116
Rp117
ag10
(g14
S'&Ry\x89\xf1I(@'
p118
tp119
Rp120
ag10
(g14
S'\xc2\xac1!T\xdd(@'
p121
tp122
Rp123
ag10
(g14
S"S\xfb\ra_\xb9'@"
p124
tp125
Rp126
ag10
(g14
S'\xe0jB\xb9\x03\xbb(@'
p127
tp128
Rp129
ag10
(g14
S"0\xf3\x8f'\xc8l*@"
p130
tp131
Rp132
ag10
(g14
S"\xaaJe\x15\xc3r'@"
p133
tp134
Rp135
ag10
(g14
S'\x85\x96\xf4\xd4m\xba(@'
p136
tp137
Rp138
asssss.