(dp0
S'../Data/x264_15.csv'
p1
(dp2
S'../Data/x264_16.csv'
p3
(dp4
F0.15
(dp5
S'mmre'
p6
(dp7
S'bellwether'
p8
(lp9
cnumpy.core.multiarray
scalar
p10
(cnumpy
dtype
p11
(S'f8'
p12
I0
I1
tp13
Rp14
(I3
S'<'
p15
NNNI-1
I-1
I0
tp16
bS'\xfd\x18I\x1f\xcacW@'
p17
tp18
Rp19
ag10
(g14
S'k$\xae\xe6mgW@'
p20
tp21
Rp22
ag10
(g14
S'\xbc\xee\xaf\xcb4]W@'
p23
tp24
Rp25
ag10
(g14
S'fT\x05Z\xe6aW@'
p26
tp27
Rp28
ag10
(g14
S'\xfe\xd0D>zeW@'
p29
tp30
Rp31
ag10
(g14
S'\x1d\xc4\x9f\xdd/^W@'
p32
tp33
Rp34
ag10
(g14
S'\x80\xc8s\\\xe8_W@'
p35
tp36
Rp37
ag10
(g14
S'nt!\x0b\xf5fW@'
p38
tp39
Rp40
ag10
(g14
S'\xadp\x99\x92K`W@'
p41
tp42
Rp43
ag10
(g14
S'\x0b\xf1\xc5_cbW@'
p44
tp45
Rp46
ag10
(g14
S'\x8d\xc9\x8f*\xb5dW@'
p47
tp48
Rp49
ag10
(g14
S'"+\x1f\xe5*_W@'
p50
tp51
Rp52
ag10
(g14
S'\x97\xf5\xa4i\xa4`W@'
p53
tp54
Rp55
ag10
(g14
S'\x88\x14\xe8\x94:iW@'
p56
tp57
Rp58
ag10
(g14
S'\x8e\x99\xa1\x8a/cW@'
p59
tp60
Rp61
ag10
(g14
S'\x13Z9\xc9o`W@'
p62
tp63
Rp64
ag10
(g14
S'5J\xe6e\xffgW@'
p65
tp66
Rp67
ag10
(g14
S'\xf0\xb5\x03\x84\xa4bW@'
p68
tp69
Rp70
ag10
(g14
S'e\xef\xa4a\x8ecW@'
p71
tp72
Rp73
ag10
(g14
S'N*\x1d\x11(aW@'
p74
tp75
Rp76
asS'target'
p77
(lp78
g10
(g14
S'\xaa\xb8\x87d\x86\xeb*@'
p79
tp80
Rp81
ag10
(g14
S'c_\xa8\xe3\x82\x01)@'
p82
tp83
Rp84
ag10
(g14
S'\x00\xe0\xba\x8a09+@'
p85
tp86
Rp87
ag10
(g14
S'\xd5\xef\xd6X\xa3x*@'
p88
tp89
Rp90
ag10
(g14
S'\xeb\x0fz\n\x99\xa5+@'
p91
tp92
Rp93
ag10
(g14
S'2\xa1%\xa3\xed\t)@'
p94
tp95
Rp96
ag10
(g14
S'\x1fTm\x15\xce\xf3(@'
p97
tp98
Rp99
ag10
(g14
S'W\x90z0\xfe\xd3)@'
p100
tp101
Rp102
ag10
(g14
S'\x08\x06\x06K\xc2O+@'
p103
tp104
Rp105
ag10
(g14
S'{0\xaa \xbd/(@'
p106
tp107
Rp108
ag10
(g14
S'\xd2@\x1a\xf4Eb)@'
p109
tp110
Rp111
ag10
(g14
S'[\x0b\xba\x1a\xdb\xcd)@'
p112
tp113
Rp114
ag10
(g14
S'\x9b\x07\xca{\x16g*@'
p115
tp116
Rp117
ag10
(g14
S'Vr\x85o\x967*@'
p118
tp119
Rp120
ag10
(g14
S' \xca\x109T#*@'
p121
tp122
Rp123
ag10
(g14
S'\xdb;/\xda$t)@'
p124
tp125
Rp126
ag10
(g14
S'\x1fM\xc6\xb3\xe8[(@'
p127
tp128
Rp129
ag10
(g14
S'&7\x91\xf7\x1a"\'@'
p130
tp131
Rp132
ag10
(g14
S'F\x96\xff\x8b$\xf3(@'
p133
tp134
Rp135
ag10
(g14
S'\x9d \nE,\x04*@'
p136
tp137
Rp138
asssss.