(dp0
S'../Data/x264_9.csv'
p1
(dp2
S'../Data/x264_6.csv'
p3
(dp4
F0.35
(dp5
S'abs_res'
p6
(dp7
S'bellwether'
p8
(lp9
cnumpy.core.multiarray
scalar
p10
(cnumpy
dtype
p11
(S'f8'
p12
I0
I1
tp13
Rp14
(I3
S'<'
p15
NNNI-1
I-1
I0
tp16
bS'\xebq\rF\xff:+@'
p17
tp18
Rp19
ag10
(g14
S'p8G\x1d\x1d\x8b+@'
p20
tp21
Rp22
ag10
(g14
S'\xe3\xd8\xbb,\x13/+@'
p23
tp24
Rp25
ag10
(g14
S'\x1fH~\xd7zU+@'
p26
tp27
Rp28
ag10
(g14
S'\x87:{T\xe9\x80+@'
p29
tp30
Rp31
ag10
(g14
S'`\xb5s\x87:\xf9*@'
p32
tp33
Rp34
ag10
(g14
S'\x03\xdfu#\x19c+@'
p35
tp36
Rp37
ag10
(g14
S'\x87\xf0]](\xcb)@'
p38
tp39
Rp40
ag10
(g14
S'\x86\\#o\xa6_*@'
p41
tp42
Rp43
ag10
(g14
S'\x12H)\xfb\xc1\xc7*@'
p44
tp45
Rp46
ag10
(g14
S'\xa1\xc7\xb5\xa1bx)@'
p47
tp48
Rp49
ag10
(g14
S'\t5\x12\x8eFs*@'
p50
tp51
Rp52
ag10
(g14
S'\xd4\xc3$\\\xc8\x13*@'
p53
tp54
Rp55
ag10
(g14
S'\xaf\xae\xffM\x02\x12+@'
p56
tp57
Rp58
ag10
(g14
S'\xf6\x90\x90[\xa6\x19+@'
p59
tp60
Rp61
ag10
(g14
S"\x19\xbaS'\x8d\x0e*@"
p62
tp63
Rp64
ag10
(g14
S'[\x00\xd6\xbd(4*@'
p65
tp66
Rp67
ag10
(g14
S'\xd9[W\xcc\x08c*@'
p68
tp69
Rp70
ag10
(g14
S'\x92X\xa6_"\xee*@'
p71
tp72
Rp73
ag10
(g14
S'#5gj\xffh+@'
p74
tp75
Rp76
asS'target'
p77
(lp78
g10
(g14
S'\x8d\xa79y\x911%@'
p79
tp80
Rp81
ag10
(g14
S"B\xd9!\xfea\xdb'@"
p82
tp83
Rp84
ag10
(g14
S"\xd3\xe6\xfe\xeaq\xb7'@"
p85
tp86
Rp87
ag10
(g14
S'\x91\\\x8b\x16\xa0\xe5%@'
p88
tp89
Rp90
ag10
(g14
S'\x15\xd0\x98I\xd4;&@'
p91
tp92
Rp93
ag10
(g14
S'=@KW\xb0M%@'
p94
tp95
Rp96
ag10
(g14
S'\x19\xfe\xd2\xa2>\xe1&@'
p97
tp98
Rp99
ag10
(g14
S'1l\xe8f\x7f`&@'
p100
tp101
Rp102
ag10
(g14
S'X\x9f8\x80~C$@'
p103
tp104
Rp105
ag10
(g14
S'\xb9^`V(\xa2&@'
p106
tp107
Rp108
ag10
(g14
S'F1?74m$@'
p109
tp110
Rp111
ag10
(g14
S'm\x0c\x8e\x92Wg&@'
p112
tp113
Rp114
ag10
(g14
S'\xceY\x9e\x07w\x03%@'
p115
tp116
Rp117
ag10
(g14
S'\x02*\xe2t\x92e$@'
p118
tp119
Rp120
ag10
(g14
S'?\x9f\x00\x8a\x91q&@'
p121
tp122
Rp123
ag10
(g14
S'\x04\x0f\x99\xf2!(&@'
p124
tp125
Rp126
ag10
(g14
S'\x9b\xf2u\x19\xfe\x97&@'
p127
tp128
Rp129
ag10
(g14
S'<\xd8\xef\x89u&%@'
p130
tp131
Rp132
ag10
(g14
S'\xf5\xfd\x0co\xd6@%@'
p133
tp134
Rp135
ag10
(g14
S"_\xd0\x086\xae\x07'@"
p136
tp137
Rp138
asssss.