(dp0
S'../Data/x264_12.csv'
p1
(dp2
S'../Data/x264_0.csv'
p3
(dp4
F0.1
(dp5
S'abs_res'
p6
(dp7
S'bellwether'
p8
(lp9
cnumpy.core.multiarray
scalar
p10
(cnumpy
dtype
p11
(S'f8'
p12
I0
I1
tp13
Rp14
(I3
S'<'
p15
NNNI-1
I-1
I0
tp16
bS'(\x81[w\xb3k}@'
p17
tp18
Rp19
ag10
(g14
S'\xc4\x11k\xf1\xe9e}@'
p20
tp21
Rp22
ag10
(g14
S' .9\xee\x94h}@'
p23
tp24
Rp25
ag10
(g14
S')\x99*\x18\x95\x86}@'
p26
tp27
Rp28
ag10
(g14
S'>\xe9}\xe3kr}@'
p29
tp30
Rp31
ag10
(g14
S'\xbf\xdb\x11N\xcbp}@'
p32
tp33
Rp34
ag10
(g14
S'\\N\x97\xc5\xc4^}@'
p35
tp36
Rp37
ag10
(g14
S'[R\n\xba\xbdn}@'
p38
tp39
Rp40
ag10
(g14
S'Z+\x13~\xa9x}@'
p41
tp42
Rp43
ag10
(g14
S'V\xadL\xf8\xa5y}@'
p44
tp45
Rp46
ag10
(g14
S'D\x93R\xd0\xed^}@'
p47
tp48
Rp49
ag10
(g14
S'#z\x19\xc5r`}@'
p50
tp51
Rp52
ag10
(g14
S'\xc1\xb3Y\xf5\xb9\x87}@'
p53
tp54
Rp55
ag10
(g14
S'\xb0\xd6\x17\t\xady}@'
p56
tp57
Rp58
ag10
(g14
S'\x8b;\xa5\x835\x86}@'
p59
tp60
Rp61
ag10
(g14
S'HD\x86U<t}@'
p62
tp63
Rp64
ag10
(g14
S'%\xe2;1+\x83}@'
p65
tp66
Rp67
ag10
(g14
S"\xe7/\xbb'\xcf{}@"
p68
tp69
Rp70
ag10
(g14
S"\xa0\xfc\xa4\xda'r}@"
p71
tp72
Rp73
ag10
(g14
S'\x11\x0c<\xf7\x9e}}@'
p74
tp75
Rp76
asS'target'
p77
(lp78
g10
(g14
S'\x88\xa9\x9f7\x15\x91<@'
p79
tp80
Rp81
ag10
(g14
S'\x9e0\xd3\xf6\xaf\xbc<@'
p82
tp83
Rp84
ag10
(g14
S'+\tm9\x97\x1a<@'
p85
tp86
Rp87
ag10
(g14
S'\xa8\x9a=\xd0\n\x8c;@'
p88
tp89
Rp90
ag10
(g14
S'\xf2,\xeci\x87O9@'
p91
tp92
Rp93
ag10
(g14
S'\xc5M\x7f\xf6#]9@'
p94
tp95
Rp96
ag10
(g14
S'(\x8f\x19\xa8\x8c7<@'
p97
tp98
Rp99
ag10
(g14
S'\x15J\xb5O\xc7\x93<@'
p100
tp101
Rp102
ag10
(g14
S'9\x0b\x98\xc0\xad\x13:@'
p103
tp104
Rp105
ag10
(g14
S'\x9fN]\xf9,W:@'
p106
tp107
Rp108
ag10
(g14
S'\xde_vO\x1e.:@'
p109
tp110
Rp111
ag10
(g14
S'2\xe7R\\U\xf69@'
p112
tp113
Rp114
ag10
(g14
S'5\xba\xbd\xa41>;@'
p115
tp116
Rp117
ag10
(g14
S'B-\x95\xb7#\xd49@'
p118
tp119
Rp120
ag10
(g14
S'+\xe8\x13y\x92\xd4<@'
p121
tp122
Rp123
ag10
(g14
S'\xf2C\x17\xd4\xb7\x94:@'
p124
tp125
Rp126
ag10
(g14
S'\x7fr\xbfCQP;@'
p127
tp128
Rp129
ag10
(g14
S'j\xe4,\xecig;@'
p130
tp131
Rp132
ag10
(g14
S'\xc7\x8b\xbe\x824\xcb:@'
p133
tp134
Rp135
ag10
(g14
S'\xc6\xb8\x8d\x06\xf0\xba9@'
p136
tp137
Rp138
asssss.