(dp0
S'../Data/x264_20.csv'
p1
(dp2
S'../Data/x264_12.csv'
p3
(dp4
F0.2
(dp5
S'abs_res'
p6
(dp7
S'bellwether'
p8
(lp9
cnumpy.core.multiarray
scalar
p10
(cnumpy
dtype
p11
(S'f8'
p12
I0
I1
tp13
Rp14
(I3
S'<'
p15
NNNI-1
I-1
I0
tp16
bS'\xae\xd9\x03\xediN\nA'
p17
tp18
Rp19
ag10
(g14
S"\xf3\xa5~\x9e'X\nA"
p20
tp21
Rp22
ag10
(g14
S'J\xb4\xab\x90\x14Y\nA'
p23
tp24
Rp25
ag10
(g14
S'9J^\x1d\xf0U\nA'
p26
tp27
Rp28
ag10
(g14
S'\xb0\xf4\xa1\xcbtQ\nA'
p29
tp30
Rp31
ag10
(g14
S'\xda4\xefx\x12X\nA'
p32
tp33
Rp34
ag10
(g14
S'\xa52\xfe\xfd\xb0]\nA'
p35
tp36
Rp37
ag10
(g14
S'<W[1\xbcT\nA'
p38
tp39
Rp40
ag10
(g14
S'(x\xd1\x97`R\nA'
p41
tp42
Rp43
ag10
(g14
S'z\x9c\xa2#`L\nA'
p44
tp45
Rp46
ag10
(g14
S'c\xd0\xd0\x7f\x87U\nA'
p47
tp48
Rp49
ag10
(g14
S'\xa5\xa9ekRJ\nA'
p50
tp51
Rp52
ag10
(g14
S'd\xc7F \xa6\\\nA'
p53
tp54
Rp55
ag10
(g14
S'\xb4\xa4N@\xbeU\nA'
p56
tp57
Rp58
ag10
(g14
S'"\x80\xd4&CO\nA'
p59
tp60
Rp61
ag10
(g14
S'Z\x17\xb7\xd1\xebG\nA'
p62
tp63
Rp64
ag10
(g14
S'S\xdd\x07 \xa6N\nA'
p65
tp66
Rp67
ag10
(g14
S'\xcb@e|\xb2e\nA'
p68
tp69
Rp70
ag10
(g14
S'\xee&1\x08\xacH\nA'
p71
tp72
Rp73
ag10
(g14
S'\x1e\x03\xb2\x97VS\nA'
p74
tp75
Rp76
asS'target'
p77
(lp78
g10
(g14
S'\x7fX\x8bO\x01\x86O@'
p79
tp80
Rp81
ag10
(g14
S'6\x15\xa90\xb6DP@'
p82
tp83
Rp84
ag10
(g14
S'\xe3\x03\x90\xda\xc4uK@'
p85
tp86
Rp87
ag10
(g14
S'\xfe\xe6\x8c(\xed!P@'
p88
tp89
Rp90
ag10
(g14
S'm\xd9=yX(K@'
p91
tp92
Rp93
ag10
(g14
S'\x97\xfdH\x11\x19\xe2O@'
p94
tp95
Rp96
ag10
(g14
S'\xc8\x92\x005\xb5\xf4P@'
p97
tp98
Rp99
ag10
(g14
S'p\xf6#Ed\\K@'
p100
tp101
Rp102
ag10
(g14
S'\xa1=\xd0\n\x0c\xf1J@'
p103
tp104
Rp105
ag10
(g14
S'\xc5\x98\xbb\x96\x90\x8fL@'
p106
tp107
Rp108
ag10
(g14
S'\xe1\xce\xdam\x17\xc8K@'
p109
tp110
Rp111
ag10
(g14
S'1EGr\xf9\xdfJ@'
p112
tp113
Rp114
ag10
(g14
S'\x90]\xa2zk|P@'
p115
tp116
Rp117
ag10
(g14
S'V\xe8\xbc\xc6.MN@'
p118
tp119
Rp120
ag10
(g14
S'\x899]\x16\x13\xfbO@'
p121
tp122
Rp123
ag10
(g14
S'Z\xe5\xd0"\xdb\xc9N@'
p124
tp125
Rp126
ag10
(g14
S'\x1a\xf2$\xe9\x9aCN@'
p127
tp128
Rp129
ag10
(g14
S'\xf0\x93j\x9f\x8eeP@'
p130
tp131
Rp132
ag10
(g14
S'\x03\xfco%;\xf6K@'
p133
tp134
Rp135
ag10
(g14
S'vy\x01\xf6\xd19J@'
p136
tp137
Rp138
asssss.