(dp0
S'../Data/x264_1.csv'
p1
(dp2
S'../Data/x264_16.csv'
p3
(dp4
F0.25
(dp5
S'mmre'
p6
(dp7
S'bellwether'
p8
(lp9
cnumpy.core.multiarray
scalar
p10
(cnumpy
dtype
p11
(S'f8'
p12
I0
I1
tp13
Rp14
(I3
S'<'
p15
NNNI-1
I-1
I0
tp16
bS'&\xad\xdb\xed_fW@'
p17
tp18
Rp19
ag10
(g14
S'\xb0w\xb5\xa7/gW@'
p20
tp21
Rp22
ag10
(g14
S'(TQNrhW@'
p23
tp24
Rp25
ag10
(g14
S'>C\xd7\x1e\xa7fW@'
p26
tp27
Rp28
ag10
(g14
S'd\x9f\xff\xf1CfW@'
p29
tp30
Rp31
ag10
(g14
S'\x0cD\xcd3=fW@'
p32
tp33
Rp34
ag10
(g14
S'9F\x03}\x9bfW@'
p35
tp36
Rp37
ag10
(g14
S'-A<\xe9\x81gW@'
p38
tp39
Rp40
ag10
(g14
S'\xf1\xc6\x87\x9c\x06gW@'
p41
tp42
Rp43
ag10
(g14
S'\xc9Ai\x9f\xb7gW@'
p44
tp45
Rp46
ag10
(g14
S'0\xdcO\xe1_fW@'
p47
tp48
Rp49
ag10
(g14
S'z&,\xa37gW@'
p50
tp51
Rp52
ag10
(g14
S'B\xc6tQ&gW@'
p53
tp54
Rp55
ag10
(g14
S'\xfc\x0eX\x91\x9feW@'
p56
tp57
Rp58
ag10
(g14
S'\xec\x15txPgW@'
p59
tp60
Rp61
ag10
(g14
S'\x96@\xb40>gW@'
p62
tp63
Rp64
ag10
(g14
S'\x90\xc4i\xea\x97fW@'
p65
tp66
Rp67
ag10
(g14
S'P\xc2O\xd5\x98fW@'
p68
tp69
Rp70
ag10
(g14
S'w\xd8\x92\xf3\x83fW@'
p71
tp72
Rp73
ag10
(g14
S'\xe5\xb3[]AgW@'
p74
tp75
Rp76
asS'target'
p77
(lp78
g10
(g14
S'\xc0\xd1\xfa\xecrk)@'
p79
tp80
Rp81
ag10
(g14
S'\x13Igd\xdb\xa8(@'
p82
tp83
Rp84
ag10
(g14
S'\x90\x0c\xcc\xebeI)@'
p85
tp86
Rp87
ag10
(g14
S"\x153tN\x1b)'@"
p88
tp89
Rp90
ag10
(g14
S'Z\xa0\x1e1\x8f\xaf)@'
p91
tp92
Rp93
ag10
(g14
S"v\x05\x1bVnQ'@"
p94
tp95
Rp96
ag10
(g14
S'\x87\xe2}\xba\xb0v)@'
p97
tp98
Rp99
ag10
(g14
S'\xfd\x85\xd6\xd1\xd9H(@'
p100
tp101
Rp102
ag10
(g14
S"\x97GD\x94\xa8\x0e'@"
p103
tp104
Rp105
ag10
(g14
S'aAaD3\r(@'
p106
tp107
Rp108
ag10
(g14
S'*@;\xe1\xd6\x82(@'
p109
tp110
Rp111
ag10
(g14
S'\xc2`/\xf7dv*@'
p112
tp113
Rp114
ag10
(g14
S'\x88d\xa3\xf5N\x92)@'
p115
tp116
Rp117
ag10
(g14
S"]\xcb\x02)F\x95'@"
p118
tp119
Rp120
ag10
(g14
S'\xd05\xdd\x81L\xb1(@'
p121
tp122
Rp123
ag10
(g14
S'-x\r\x83\xb7v(@'
p124
tp125
Rp126
ag10
(g14
S'/i\xdc\xc3\x1b\x92(@'
p127
tp128
Rp129
ag10
(g14
S"m'\xfa\xbe'6)@"
p130
tp131
Rp132
ag10
(g14
S'8\x17\x81\xc1\x11\xae(@'
p133
tp134
Rp135
ag10
(g14
S'\xb8\xafW$4\xcf(@'
p136
tp137
Rp138
asssss.