(dp0
S'../Data/x264_15.csv'
p1
(dp2
S'../Data/x264_19.csv'
p3
(dp4
F0.1
(dp5
S'mmre'
p6
(dp7
S'bellwether'
p8
(lp9
cnumpy.core.multiarray
scalar
p10
(cnumpy
dtype
p11
(S'f8'
p12
I0
I1
tp13
Rp14
(I3
S'<'
p15
NNNI-1
I-1
I0
tp16
bS'\x9d&aP^_U@'
p17
tp18
Rp19
ag10
(g14
S'\xb3\xb0\xfb|\x08_U@'
p20
tp21
Rp22
ag10
(g14
S'L\xe0\x07\x91\xe8`U@'
p23
tp24
Rp25
ag10
(g14
S'ro\xf2W`ZU@'
p26
tp27
Rp28
ag10
(g14
S'%\xcd\xdaz\x06gU@'
p29
tp30
Rp31
ag10
(g14
S'\x95\x82\xc1\xdb\xa1`U@'
p32
tp33
Rp34
ag10
(g14
S'\xbe8[B\x18hU@'
p35
tp36
Rp37
ag10
(g14
S'bBq\xf9\xb1ZU@'
p38
tp39
Rp40
ag10
(g14
S'\t\xd5\xcc}\xdcgU@'
p41
tp42
Rp43
ag10
(g14
S'I\x9ci[\xddVU@'
p44
tp45
Rp46
ag10
(g14
S'c+\\\x89KZU@'
p47
tp48
Rp49
ag10
(g14
S"/]'\xeaLcU@"
p50
tp51
Rp52
ag10
(g14
S'\xa7]\x91\xa7*hU@'
p53
tp54
Rp55
ag10
(g14
S'\xc1\xc0W\x08\xb4eU@'
p56
tp57
Rp58
ag10
(g14
S'N_\x92\xde\x8c_U@'
p59
tp60
Rp61
ag10
(g14
S'\xda\x0e\xda<4YU@'
p62
tp63
Rp64
ag10
(g14
S'3\xf4&U\xceaU@'
p65
tp66
Rp67
ag10
(g14
S'%~\x84\x82raU@'
p68
tp69
Rp70
ag10
(g14
S'\x0ee\x1a/\xbbcU@'
p71
tp72
Rp73
ag10
(g14
S'%\x9bC\x1f\xac]U@'
p74
tp75
Rp76
asS'target'
p77
(lp78
g10
(g14
S'f\xc0\xa8#\xfdk\\@'
p79
tp80
Rp81
ag10
(g14
S'9\nz\xa73\xcb\\@'
p82
tp83
Rp84
ag10
(g14
S'e\x1d2}\x12I]@'
p85
tp86
Rp87
ag10
(g14
S'T\xa6\n\xc6$\xbe[@'
p88
tp89
Rp90
ag10
(g14
S'\xb6b;}E\x7f\\@'
p91
tp92
Rp93
ag10
(g14
S'\xb4w\xc5B\x11\xed[@'
p94
tp95
Rp96
ag10
(g14
S'\x94\xc4\xbf\xad\x97\xbe[@'
p97
tp98
Rp99
ag10
(g14
S'P+\x94C\x92\x11]@'
p100
tp101
Rp102
ag10
(g14
S'\xb6\xa5\x14\xf7\\,\\@'
p103
tp104
Rp105
ag10
(g14
S'\x8f\xd2\xe5\x8bJ\xab]@'
p106
tp107
Rp108
ag10
(g14
S'u\x95]e\xc0P]@'
p109
tp110
Rp111
ag10
(g14
S'\x9c[\xdeWh\xae[@'
p112
tp113
Rp114
ag10
(g14
S'&\xcf\xfb\x9f>\x0e]@'
p115
tp116
Rp117
ag10
(g14
S'\xd9\xaf\xe2\xe3\x16P\\@'
p118
tp119
Rp120
ag10
(g14
S'B\xb5\x1e\xbe\xed\x97Z@'
p121
tp122
Rp123
ag10
(g14
S'\x9f\xa6$K\x8f;\\@'
p124
tp125
Rp126
ag10
(g14
S'\xcb\xe5+\xd7\x075\\@'
p127
tp128
Rp129
ag10
(g14
S':g\x82& \xdd[@'
p130
tp131
Rp132
ag10
(g14
S'\xc1O\x003\x08\x1a\\@'
p133
tp134
Rp135
ag10
(g14
S'F\xa3d\x0826\\@'
p136
tp137
Rp138
asssss.