(dp0
S'../Data/x264_7.csv'
p1
(dp2
S'../Data/x264_19.csv'
p3
(dp4
F0.05
(dp5
S'mmre'
p6
(dp7
S'bellwether'
p8
(lp9
cnumpy.core.multiarray
scalar
p10
(cnumpy
dtype
p11
(S'f8'
p12
I0
I1
tp13
Rp14
(I3
S'<'
p15
NNNI-1
I-1
I0
tp16
bS'e\xe1\xf6\xbfMOW@'
p17
tp18
Rp19
ag10
(g14
S'_1\xb2V\x1fMW@'
p20
tp21
Rp22
ag10
(g14
S'\x91(7^1LW@'
p23
tp24
Rp25
ag10
(g14
S'KY\x06l\xe9FW@'
p26
tp27
Rp28
ag10
(g14
S'|\x1a@\xeb\xbcPW@'
p29
tp30
Rp31
ag10
(g14
S'\xe9VV\xb6qMW@'
p32
tp33
Rp34
ag10
(g14
S'>"\xea\xab\x15HW@'
p35
tp36
Rp37
ag10
(g14
S'/\xe4\xf2\xccYLW@'
p38
tp39
Rp40
ag10
(g14
S'X\xb7}\xaf(NW@'
p41
tp42
Rp43
ag10
(g14
S'[\x9a\xb3\xda5QW@'
p44
tp45
Rp46
ag10
(g14
S'\nadT\xe8KW@'
p47
tp48
Rp49
ag10
(g14
S'\x16\x8c\\\xe3:OW@'
p50
tp51
Rp52
ag10
(g14
S'1\xa9\x03\x8c\xf7BW@'
p53
tp54
Rp55
ag10
(g14
S'%\xb6\x10+0MW@'
p56
tp57
Rp58
ag10
(g14
S'\x0c]\x03\x8eyIW@'
p59
tp60
Rp61
ag10
(g14
S'\xa4\x9d\xc7O\xd6MW@'
p62
tp63
Rp64
ag10
(g14
S'\x00\xd9`\xbb\xb3OW@'
p65
tp66
Rp67
ag10
(g14
S'5\xc7\x97\x06\xf7TW@'
p68
tp69
Rp70
ag10
(g14
S'\xfd\xf2\x88q\x90QW@'
p71
tp72
Rp73
ag10
(g14
S'L\xe4\xb0\xb2{MW@'
p74
tp75
Rp76
asS'target'
p77
(lp78
g10
(g14
S'\xc9\x005h\x04:]@'
p79
tp80
Rp81
ag10
(g14
S'x\xe6\x9b_\xde\xc1\\@'
p82
tp83
Rp84
ag10
(g14
S'\xfc\x0fU\x86\x07\xe3\\@'
p85
tp86
Rp87
ag10
(g14
S'\x9a\x08^\xe4\xfc:^@'
p88
tp89
Rp90
ag10
(g14
S'\xa8Z\xef=\x03\xdb\\@'
p91
tp92
Rp93
ag10
(g14
S'\xf6\xf1\xa5\x01\x00\xdd[@'
p94
tp95
Rp96
ag10
(g14
S'\xfa\x9d?7y\xbe]@'
p97
tp98
Rp99
ag10
(g14
S'O?z\x19y\x8a]@'
p100
tp101
Rp102
ag10
(g14
S'\x02Z\x04\xbb;\x9c]@'
p103
tp104
Rp105
ag10
(g14
S'\xc6\xdd\xde4\xea\xba\\@'
p106
tp107
Rp108
ag10
(g14
S'\xd8\xed,S\x04\xd0]@'
p109
tp110
Rp111
ag10
(g14
S'&\xb3\xc4\xcfy\xf8[@'
p112
tp113
Rp114
ag10
(g14
S'1\xfb\xbeV\xb5\xaa]@'
p115
tp116
Rp117
ag10
(g14
S'\xdc\xb5(\x0b\xd4\xbf\\@'
p118
tp119
Rp120
ag10
(g14
S'\x0fsFq4\xd2]@'
p121
tp122
Rp123
ag10
(g14
S'\xda&\x1c\xcc\xa5D\\@'
p124
tp125
Rp126
ag10
(g14
S'<\xaa}N\xb7\xaf[@'
p127
tp128
Rp129
ag10
(g14
S'$\xa8\xcej\xe7.Z@'
p130
tp131
Rp132
ag10
(g14
S'B}\xc5\x82\x9e=^@'
p133
tp134
Rp135
ag10
(g14
S'_Z\x8b\xa4\x18\xd6]@'
p136
tp137
Rp138
asssss.