(dp0
S'../Data/x264_20.csv'
p1
(dp2
S'../Data/x264_18.csv'
p3
(dp4
F0.2
(dp5
S'abs_res'
p6
(dp7
S'bellwether'
p8
(lp9
cnumpy.core.multiarray
scalar
p10
(cnumpy
dtype
p11
(S'f8'
p12
I0
I1
tp13
Rp14
(I3
S'<'
p15
NNNI-1
I-1
I0
tp16
bS"r\xea\xca'\x99Q\nA"
p17
tp18
Rp19
ag10
(g14
S';&6\x9f\xf5^\nA'
p20
tp21
Rp22
ag10
(g14
S'\xee\xd7dM\xb0f\nA'
p23
tp24
Rp25
ag10
(g14
S'\x95\xe5\x96\x16d[\nA'
p26
tp27
Rp28
ag10
(g14
S'\x86\x91\xd0\x16}T\nA'
p29
tp30
Rp31
ag10
(g14
S'Fu\xe5\xb3cZ\nA'
p32
tp33
Rp34
ag10
(g14
S'\xda\x9f\xfd\xc8rR\nA'
p35
tp36
Rp37
ag10
(g14
S'\x7f\xb6\x9c\xcb|O\nA'
p38
tp39
Rp40
ag10
(g14
S"hR'\xe0+a\nA"
p41
tp42
Rp43
ag10
(g14
S'\x8c\xc0\xcaaZf\nA'
p44
tp45
Rp46
ag10
(g14
S'z\xbfC\x119Z\nA'
p47
tp48
Rp49
ag10
(g14
S'\x19\x18\xb2\xba\xbfc\nA'
p50
tp51
Rp52
ag10
(g14
S'\x06HP<x@\nA'
p53
tp54
Rp55
ag10
(g14
S'\x1d2\xac\xa2P\\\nA'
p56
tp57
Rp58
ag10
(g14
S'^y;\x02CU\nA'
p59
tp60
Rp61
ag10
(g14
S'\xe9\xae%$\x8fL\nA'
p62
tp63
Rp64
ag10
(g14
S'Y\x02\xb7.\x01Q\nA'
p65
tp66
Rp67
ag10
(g14
S'&a\xa6\xad\xf0T\nA'
p68
tp69
Rp70
ag10
(g14
S'\xac\xb2\xef\x8a\xb9T\nA'
p71
tp72
Rp73
ag10
(g14
S'\x10T\xc6?\x13W\nA'
p74
tp75
Rp76
asS'target'
p77
(lp78
g10
(g14
S'\x07\xc4\x94H\xa2\xc7$@'
p79
tp80
Rp81
ag10
(g14
S"{\x1f\x0c<\xf7.'@"
p82
tp83
Rp84
ag10
(g14
S'&\x03>?\x8c &@'
p85
tp86
Rp87
ag10
(g14
S'L1w-!\x97$@'
p88
tp89
Rp90
ag10
(g14
S']3\xa2\xb478%@'
p91
tp92
Rp93
ag10
(g14
S'J\xcc#\x7f0\xd0$@'
p94
tp95
Rp96
ag10
(g14
S"\xf9cX\xc5\x1b\x11'@"
p97
tp98
Rp99
ag10
(g14
S'0[\x94\xd9 3$@'
p100
tp101
Rp102
ag10
(g14
S'\xe6\xf1$\xe9\x9a\x99$@'
p103
tp104
Rp105
ag10
(g14
S"\xdb\xcf'\xf2$9'@"
p106
tp107
Rp108
ag10
(g14
S'\x88\x1a\xf5\x10\x8d\xce%@'
p109
tp110
Rp111
ag10
(g14
S'\xbe\xa1\xee\x03\x90\xda&@'
p112
tp113
Rp114
ag10
(g14
S'}\x99_\xcd\x01z%@'
p115
tp116
Rp117
ag10
(g14
S'\xa0\xbdje\xc2\xaf%@'
p118
tp119
Rp120
ag10
(g14
S'q\xffs\x98/?$@'
p121
tp122
Rp123
ag10
(g14
S'\xea/du\xab\xaf%@'
p124
tp125
Rp126
ag10
(g14
S'\x0f\xca2\xc4\xb1v&@'
p127
tp128
Rp129
ag10
(g14
S'\xd33\xf4Op\t%@'
p130
tp131
Rp132
ag10
(g14
S'\x82eN\x97\xc5d&@'
p133
tp134
Rp135
ag10
(g14
S'\x97z1\x94\x13\x05$@'
p136
tp137
Rp138
asssss.