(dp0
S'../Data/x264_7.csv'
p1
(dp2
S'../Data/x264_19.csv'
p3
(dp4
F0.3
(dp5
S'mmre'
p6
(dp7
S'bellwether'
p8
(lp9
cnumpy.core.multiarray
scalar
p10
(cnumpy
dtype
p11
(S'f8'
p12
I0
I1
tp13
Rp14
(I3
S'<'
p15
NNNI-1
I-1
I0
tp16
bS'\x12LN\x9cw:W@'
p17
tp18
Rp19
ag10
(g14
S'\xd9%\xf4Q\xebFW@'
p20
tp21
Rp22
ag10
(g14
S'G\xa3\xfa\x1c5^W@'
p23
tp24
Rp25
ag10
(g14
S'b\xcf\xf4sx@W@'
p26
tp27
Rp28
ag10
(g14
S'GN\xc7\xbc%OW@'
p29
tp30
Rp31
ag10
(g14
S'a\xd3\xce\xfa\xdbNW@'
p32
tp33
Rp34
ag10
(g14
S'(\xb25\x0cOEW@'
p35
tp36
Rp37
ag10
(g14
S'()t\xe8>QW@'
p38
tp39
Rp40
ag10
(g14
S'\xbc\xaa\xdctOHW@'
p41
tp42
Rp43
ag10
(g14
S'\r=\x15\x06\xaaLW@'
p44
tp45
Rp46
ag10
(g14
S'4\xb0\xfe\x98\x16DW@'
p47
tp48
Rp49
ag10
(g14
S"\xce'!\\\xedSW@"
p50
tp51
Rp52
ag10
(g14
S'$\xc8\xbfF\x8fSW@'
p53
tp54
Rp55
ag10
(g14
S'3\x93$\x99\x8bYW@'
p56
tp57
Rp58
ag10
(g14
S'p6\x9c\t\x91GW@'
p59
tp60
Rp61
ag10
(g14
S'q\x97\x13\x15TTW@'
p62
tp63
Rp64
ag10
(g14
S'!x\xdc\xe0\x17JW@'
p65
tp66
Rp67
ag10
(g14
S'o\xd8\xe6\xa2\x95EW@'
p68
tp69
Rp70
ag10
(g14
S'H\x95h\x15 ZW@'
p71
tp72
Rp73
ag10
(g14
S'\xf5\x1f\x00\xaa\x9eDW@'
p74
tp75
Rp76
asS'target'
p77
(lp78
g10
(g14
S'\xd3\xd9P\x16\t\xe0_@'
p79
tp80
Rp81
ag10
(g14
S'd{\xb3\xf7\xdd.[@'
p82
tp83
Rp84
ag10
(g14
S'q\x8b\x07B\x89\xd3\\@'
p85
tp86
Rp87
ag10
(g14
S'V_\x00\x9a\x1d\x1e^@'
p88
tp89
Rp90
ag10
(g14
S'F\x92\xdfbH\x81[@'
p91
tp92
Rp93
ag10
(g14
S'\x02\x02!\xc3y\xcf]@'
p94
tp95
Rp96
ag10
(g14
S'\xaam\x95eM\xc2[@'
p97
tp98
Rp99
ag10
(g14
S'V\xda\x1dP\xf8\xa5[@'
p100
tp101
Rp102
ag10
(g14
S'*.\x07\xc5\xa2\xac[@'
p103
tp104
Rp105
ag10
(g14
S'U\xbe7\xc7\xca\xb4[@'
p106
tp107
Rp108
ag10
(g14
S'\x12s\x0bO\xc5\x8a]@'
p109
tp110
Rp111
ag10
(g14
S'_K.\xc1\xed\xc1]@'
p112
tp113
Rp114
ag10
(g14
S'\x92\xe1.\xcfR\x12\\@'
p115
tp116
Rp117
ag10
(g14
S'\t\xdd\xebN\xfa\xe6\\@'
p118
tp119
Rp120
ag10
(g14
S'\xac(L\r\xe4\xa1\\@'
p121
tp122
Rp123
ag10
(g14
S'\xf41\x9c\xf9}2\\@'
p124
tp125
Rp126
ag10
(g14
S'?\xb2\x83|\xcf\xc1[@'
p127
tp128
Rp129
ag10
(g14
S'#,\xdbf^\x81\\@'
p130
tp131
Rp132
ag10
(g14
S'\x07M"\xe1\xd7o[@'
p133
tp134
Rp135
ag10
(g14
S'tE/\x00\x17s]@'
p136
tp137
Rp138
asssss.