(dp0
S'../Data/x264_2.csv'
p1
(dp2
S'../Data/x264_17.csv'
p3
(dp4
F0.2
(dp5
S'mmre'
p6
(dp7
S'bellwether'
p8
(lp9
cnumpy.core.multiarray
scalar
p10
(cnumpy
dtype
p11
(S'f8'
p12
I0
I1
tp13
Rp14
(I3
S'<'
p15
NNNI-1
I-1
I0
tp16
bS'\xf4\x921\xec\xadrW@'
p17
tp18
Rp19
ag10
(g14
S'/N\r\x84\rrW@'
p20
tp21
Rp22
ag10
(g14
S'c\x11\x8b_:rW@'
p23
tp24
Rp25
ag10
(g14
S'\xd3\xa7z\xbdUrW@'
p26
tp27
Rp28
ag10
(g14
S'S\xd6&\xc9\xf3qW@'
p29
tp30
Rp31
ag10
(g14
S'\x01;\x95\xc2RrW@'
p32
tp33
Rp34
ag10
(g14
S'|\xa14*\xa8rW@'
p35
tp36
Rp37
ag10
(g14
S'l\xe3\x90I\xf7qW@'
p38
tp39
Rp40
ag10
(g14
S'\n\xceuSyrW@'
p41
tp42
Rp43
ag10
(g14
S'N\xa4\x12\x9e\xcerW@'
p44
tp45
Rp46
ag10
(g14
S'K\xbc,6YrW@'
p47
tp48
Rp49
ag10
(g14
S'\xd3\x07L\x12UrW@'
p50
tp51
Rp52
ag10
(g14
S'@\x8e\x85\xa7\xc1rW@'
p53
tp54
Rp55
ag10
(g14
S'PFp\x91\x95rW@'
p56
tp57
Rp58
ag10
(g14
S'\xa2J\xfe\xb7\x95rW@'
p59
tp60
Rp61
ag10
(g14
S'\xcb\x93<\x8a\xf3rW@'
p62
tp63
Rp64
ag10
(g14
S'\xda\xf2\xdc\x88]rW@'
p65
tp66
Rp67
ag10
(g14
S'\xd1\xf9\xbf\x84XrW@'
p68
tp69
Rp70
ag10
(g14
S'I\x95y\xdc+rW@'
p71
tp72
Rp73
ag10
(g14
S'\x08!:\xe49rW@'
p74
tp75
Rp76
asS'target'
p77
(lp78
g10
(g14
S'\x84\x11|B\xfbq#@'
p79
tp80
Rp81
ag10
(g14
S'\xa7%\x0b\xc1\x1b\xd8!@'
p82
tp83
Rp84
ag10
(g14
S'\x0b\xd4j\x0en\xbb!@'
p85
tp86
Rp87
ag10
(g14
S'x\x81\x02\xc3\xb9a!@'
p88
tp89
Rp90
ag10
(g14
S'\x80\x920a>\xdd"@'
p91
tp92
Rp93
ag10
(g14
S'O\xfa\xf71\xd7@"@'
p94
tp95
Rp96
ag10
(g14
S'\x80F\\\xe0\xb3\xb9"@'
p97
tp98
Rp99
ag10
(g14
S'\xeeU\x1bY\x94G"@'
p100
tp101
Rp102
ag10
(g14
S'\x9b9ZX\xe1\xc1!@'
p103
tp104
Rp105
ag10
(g14
S'\n\xf2\x11a\xef\x1d#@'
p106
tp107
Rp108
ag10
(g14
S'\x17\x01{T\x1da#@'
p109
tp110
Rp111
ag10
(g14
S'\xe7\x0e\xa9\xf0~K!@'
p112
tp113
Rp114
ag10
(g14
S'\xf4\xb9\xd1\\O\xc4!@'
p115
tp116
Rp117
ag10
(g14
S'I\x0b0Q$J#@'
p118
tp119
Rp120
ag10
(g14
S'&\x0cb4\x94\xae!@'
p121
tp122
Rp123
ag10
(g14
S'^&\xec\x00\xeb\x81"@'
p124
tp125
Rp126
ag10
(g14
S'g\xdc\x9c\x8eo(#@'
p127
tp128
Rp129
ag10
(g14
S'\x83\xec\x0c>J\xef!@'
p130
tp131
Rp132
ag10
(g14
S'*s\x83\xc9\xa9\x8f!@'
p133
tp134
Rp135
ag10
(g14
S'h\x87\xf5\xdc\xdfi"@'
p136
tp137
Rp138
asssss.