(dp0
S'../Data/x264_15.csv'
p1
(dp2
S'../Data/x264_19.csv'
p3
(dp4
F0.3
(dp5
S'mmre'
p6
(dp7
S'bellwether'
p8
(lp9
cnumpy.core.multiarray
scalar
p10
(cnumpy
dtype
p11
(S'f8'
p12
I0
I1
tp13
Rp14
(I3
S'<'
p15
NNNI-1
I-1
I0
tp16
bS'W\xb7\xe8e\x18sU@'
p17
tp18
Rp19
ag10
(g14
S'\xa8\xc8>\xd5\x8axU@'
p20
tp21
Rp22
ag10
(g14
S'\xba\xf3\x0b\xba\x1cwU@'
p23
tp24
Rp25
ag10
(g14
S'\xa8\xda\xec\xf7\xfejU@'
p26
tp27
Rp28
ag10
(g14
S'\xd0\xe37\xbb]rU@'
p29
tp30
Rp31
ag10
(g14
S'M>J\xa9\xe6RU@'
p32
tp33
Rp34
ag10
(g14
S'\xa9\x85\xc2f\xe8dU@'
p35
tp36
Rp37
ag10
(g14
S'!\xb7\xa2\xed\x11]U@'
p38
tp39
Rp40
ag10
(g14
S'\x9f\x9d~\xc5\x96eU@'
p41
tp42
Rp43
ag10
(g14
S'\x05\xe2\x16\xd2mjU@'
p44
tp45
Rp46
ag10
(g14
S'\xf0d\x9f\xf3\xbdeU@'
p47
tp48
Rp49
ag10
(g14
S'\xd8\xe7\xa8_\xb1iU@'
p50
tp51
Rp52
ag10
(g14
S'5a\xf2\xbc\xd4`U@'
p53
tp54
Rp55
ag10
(g14
S'h \xcd\xb6\xe7zU@'
p56
tp57
Rp58
ag10
(g14
S'A-\xb6PnYU@'
p59
tp60
Rp61
ag10
(g14
S'\x81x\x82n\xbdhU@'
p62
tp63
Rp64
ag10
(g14
S'\x9c3z!\x8agU@'
p65
tp66
Rp67
ag10
(g14
S'\x01\x10\x13\x02\x87nU@'
p68
tp69
Rp70
ag10
(g14
S'W<\x8b|{YU@'
p71
tp72
Rp73
ag10
(g14
S'\x07\x1dm\xf1[nU@'
p74
tp75
Rp76
asS'target'
p77
(lp78
g10
(g14
S'\x13\xf6\x04E]M]@'
p79
tp80
Rp81
ag10
(g14
S'1\x02}O\xeb_[@'
p82
tp83
Rp84
ag10
(g14
S'\xcb\x80paZx]@'
p85
tp86
Rp87
ag10
(g14
S'\xaa!\xd6\x11\x01=[@'
p88
tp89
Rp90
ag10
(g14
S'\xfd\n\x11\xe8`\x11_@'
p91
tp92
Rp93
ag10
(g14
S'B\x15\x0e\xfcOx]@'
p94
tp95
Rp96
ag10
(g14
S'\x80\x90y`\x1a\xa1\\@'
p97
tp98
Rp99
ag10
(g14
S'^\xa3\xb7d\xe0k]@'
p100
tp101
Rp102
ag10
(g14
S'\xdf^6J\xb7\x9d\\@'
p103
tp104
Rp105
ag10
(g14
S'\xcf\x12\x1f\xec\xa2\xce\\@'
p106
tp107
Rp108
ag10
(g14
S'\xacN\xda\xa1\xd0\xb4\\@'
p109
tp110
Rp111
ag10
(g14
S'3D\x8c\xfa\xcf\xde^@'
p112
tp113
Rp114
ag10
(g14
S'a-\x9c\x9b*-^@'
p115
tp116
Rp117
ag10
(g14
S'P"\xf4r\t*]@'
p118
tp119
Rp120
ag10
(g14
S'YI\xd9\x0b\x94=\\@'
p121
tp122
Rp123
ag10
(g14
S'\x17\xf0 Jk\xb2\\@'
p124
tp125
Rp126
ag10
(g14
S"\x00cv\xe3'5\\@"
p127
tp128
Rp129
ag10
(g14
S'\xa4O\x1eN\xaa\xc5[@'
p130
tp131
Rp132
ag10
(g14
S'\x95Y\xaa\xec\xebN^@'
p133
tp134
Rp135
ag10
(g14
S'\xadp\x88C\xe4\x87^@'
p136
tp137
Rp138
asssss.