(dp0
S'../Data/x264_5.csv'
p1
(dp2
S'../Data/x264_17.csv'
p3
(dp4
F0.3
(dp5
S'mmre'
p6
(dp7
S'bellwether'
p8
(lp9
cnumpy.core.multiarray
scalar
p10
(cnumpy
dtype
p11
(S'f8'
p12
I0
I1
tp13
Rp14
(I3
S'<'
p15
NNNI-1
I-1
I0
tp16
bS'\x7fv\xe1\xe6@KX@'
p17
tp18
Rp19
ag10
(g14
S'1\xd1"\x85\x99KX@'
p20
tp21
Rp22
ag10
(g14
S'\xab\x14\xa9\x86\xeaKX@'
p23
tp24
Rp25
ag10
(g14
S'\x7fpUy\x97KX@'
p26
tp27
Rp28
ag10
(g14
S'\xd19>\xc4vKX@'
p29
tp30
Rp31
ag10
(g14
S'\xb9\xa3\x9c\x86<KX@'
p32
tp33
Rp34
ag10
(g14
S'\x18\xfb\xc2\x03\xd2KX@'
p35
tp36
Rp37
ag10
(g14
S'\x9e\xd7\x16\xc0\\KX@'
p38
tp39
Rp40
ag10
(g14
S'\x19\xd13\xa7\x98KX@'
p41
tp42
Rp43
ag10
(g14
S'\xa9\xdcE\xb4>KX@'
p44
tp45
Rp46
ag10
(g14
S'\xe1\x92\xca_\xc8KX@'
p47
tp48
Rp49
ag10
(g14
S'\n\xf9Xc\x9aKX@'
p50
tp51
Rp52
ag10
(g14
S'\xf0\x9a#waLX@'
p53
tp54
Rp55
ag10
(g14
S'.\xe7W~]KX@'
p56
tp57
Rp58
ag10
(g14
S'\xc0|@V\rKX@'
p59
tp60
Rp61
ag10
(g14
S'\xcc\xf7-\xa3\x8aKX@'
p62
tp63
Rp64
ag10
(g14
S'\xbc\xa8\xbd\xb6\x84KX@'
p65
tp66
Rp67
ag10
(g14
S',\xf7\xdfk\xf3JX@'
p68
tp69
Rp70
ag10
(g14
S'\xff\xdcQ\xee\xb8KX@'
p71
tp72
Rp73
ag10
(g14
S'q\xa1\xd6\xbe\x80KX@'
p74
tp75
Rp76
asS'target'
p77
(lp78
g10
(g14
S"\xdc('e\xde\xc5!@"
p79
tp80
Rp81
ag10
(g14
S'L\xd0H\xb5\xaf\xcd!@'
p82
tp83
Rp84
ag10
(g14
S'\xfal\x13BCw!@'
p85
tp86
Rp87
ag10
(g14
S'6e\x8fQ\x9b\x82"@'
p88
tp89
Rp90
ag10
(g14
S'~_\x99vo\xd7!@'
p91
tp92
Rp93
ag10
(g14
S'u\xb5\xba\xbd${!@'
p94
tp95
Rp96
ag10
(g14
S'\x85L\xff|\xa1?"@'
p97
tp98
Rp99
ag10
(g14
S'\xad\xac_\r\xe5""@'
p100
tp101
Rp102
ag10
(g14
S'\xaf\xb7\x00\xa3\x95\x9a!@'
p103
tp104
Rp105
ag10
(g14
S')\xf4/\xf7\tK"@'
p106
tp107
Rp108
ag10
(g14
S'\x88\x87\\\xe8Jj"@'
p109
tp110
Rp111
ag10
(g14
S'U\xda\xf9\xacl\r"@'
p112
tp113
Rp114
ag10
(g14
S'fr\xe9\x1c\xaa["@'
p115
tp116
Rp117
ag10
(g14
S'\\\x05\xed\xd6\xf2\x11!@'
p118
tp119
Rp120
ag10
(g14
S'\xc7\x958H\x02\xda!@'
p121
tp122
Rp123
ag10
(g14
S'\xa9\xc2I\xbf3}!@'
p124
tp125
Rp126
ag10
(g14
S'\x99\r\xc6\xe1\x0fz!@'
p127
tp128
Rp129
ag10
(g14
S'L\xb8\t\xc6\x13\x9e"@'
p130
tp131
Rp132
ag10
(g14
S'\n\xa7\x18L\xbd\xa7!@'
p133
tp134
Rp135
ag10
(g14
S'e+\xb1Vc}!@'
p136
tp137
Rp138
asssss.