(dp0
S'../Data/x264_2.csv'
p1
(dp2
S'../Data/x264_17.csv'
p3
(dp4
F0.1
(dp5
S'mmre'
p6
(dp7
S'bellwether'
p8
(lp9
cnumpy.core.multiarray
scalar
p10
(cnumpy
dtype
p11
(S'f8'
p12
I0
I1
tp13
Rp14
(I3
S'<'
p15
NNNI-1
I-1
I0
tp16
bS'\xb2\xa3\x8et\x83rW@'
p17
tp18
Rp19
ag10
(g14
S'E]"\x10DrW@'
p20
tp21
Rp22
ag10
(g14
S'$\x82\x11\xd35rW@'
p23
tp24
Rp25
ag10
(g14
S'\x025\xdb\x8bSrW@'
p26
tp27
Rp28
ag10
(g14
S'*\x92\xde[\x9frW@'
p29
tp30
Rp31
ag10
(g14
S'\x1a%\x86PJrW@'
p32
tp33
Rp34
ag10
(g14
S'Yi\xa3\xcf\x83rW@'
p35
tp36
Rp37
ag10
(g14
S'\xb7HrX\x9frW@'
p38
tp39
Rp40
ag10
(g14
S'\x88T#\xc0xrW@'
p41
tp42
Rp43
ag10
(g14
S'.\xc1O\xda\x97rW@'
p44
tp45
Rp46
ag10
(g14
S'.\xba\xab\x82\xaarW@'
p47
tp48
Rp49
ag10
(g14
S'\xa1\xde\xacP\x95rW@'
p50
tp51
Rp52
ag10
(g14
S'\x9f\xaee\xfamrW@'
p53
tp54
Rp55
ag10
(g14
S'4\xc4\x1eY\xe8rW@'
p56
tp57
Rp58
ag10
(g14
S'\x1a{\xe7\x00~rW@'
p59
tp60
Rp61
ag10
(g14
S'\xcf\xab\x86$\xd7rW@'
p62
tp63
Rp64
ag10
(g14
S')\x9e)\x00\xf3rW@'
p65
tp66
Rp67
ag10
(g14
S'I\xb8\x83\x13@rW@'
p68
tp69
Rp70
ag10
(g14
S'}\x1c\xbav\xb9rW@'
p71
tp72
Rp73
ag10
(g14
S'lr9\xec\xa6rW@'
p74
tp75
Rp76
asS'target'
p77
(lp78
g10
(g14
S'\\\xdfX2E+"@'
p79
tp80
Rp81
ag10
(g14
S'R\x83PL\x93\xfd"@'
p82
tp83
Rp84
ag10
(g14
S'\xfe\x15\xc0\xa6\xe8D!@'
p85
tp86
Rp87
ag10
(g14
S'\xa9\xe7\x11z\x19\xe2!@'
p88
tp89
Rp90
ag10
(g14
S'\r\xc9\x91\xc8\xa4\x93!@'
p91
tp92
Rp93
ag10
(g14
S'\xea\x83\xa7\x8d\xdaK$@'
p94
tp95
Rp96
ag10
(g14
S'3x\x08\'\xf0/"@'
p97
tp98
Rp99
ag10
(g14
S'\xcd\x96RCze$@'
p100
tp101
Rp102
ag10
(g14
S'v\x91D\xf3\xd0Q#@'
p103
tp104
Rp105
ag10
(g14
S'\x1b[\x11\x1e.s!@'
p106
tp107
Rp108
ag10
(g14
S'_\x13M\x19\xfcf!@'
p109
tp110
Rp111
ag10
(g14
S'\x847g\xd0Kn#@'
p112
tp113
Rp114
ag10
(g14
S'\x95\xcc\x84\x98x\x17"@'
p115
tp116
Rp117
ag10
(g14
S'\xb4I\xaa\xf7\x94\xb2"@'
p118
tp119
Rp120
ag10
(g14
S'&\xa8\x15R\xd8k!@'
p121
tp122
Rp123
ag10
(g14
S'\xeb\x88[\xee\xaa\x8a"@'
p124
tp125
Rp126
ag10
(g14
S'\x84\x13\xcb\xe28\xd3"@'
p127
tp128
Rp129
ag10
(g14
S'\xa1\xeb\x1c\xd2\x02\xf8 @'
p130
tp131
Rp132
ag10
(g14
S'b@\x04F\xe0\x84"@'
p133
tp134
Rp135
ag10
(g14
S'\xa0Yg\xe1(\xfe!@'
p136
tp137
Rp138
asssss.