(dp0
S'../Data/x264_20.csv'
p1
(dp2
S'../Data/x264_16.csv'
p3
(dp4
F0.15
(dp5
S'mmre'
p6
(dp7
S'bellwether'
p8
(lp9
cnumpy.core.multiarray
scalar
p10
(cnumpy
dtype
p11
(S'f8'
p12
I0
I1
tp13
Rp14
(I3
S'<'
p15
NNNI-1
I-1
I0
tp16
bS'\xa1D pNEO@'
p17
tp18
Rp19
ag10
(g14
S'%\'\xb7\x80\xe1"O@'
p20
tp21
Rp22
ag10
(g14
S'{\x97\xacZ dO@'
p23
tp24
Rp25
ag10
(g14
S'q\xf3"\x06s\x1eO@'
p26
tp27
Rp28
ag10
(g14
S"%\x08\x0b>,'O@"
p29
tp30
Rp31
ag10
(g14
S'\x12g\xa6\xdc\x957O@'
p32
tp33
Rp34
ag10
(g14
S'G\x8d\x16\x0c\xe1OO@'
p35
tp36
Rp37
ag10
(g14
S'\x81\xd2\x88\xc48KO@'
p38
tp39
Rp40
ag10
(g14
S'\xf8\xc2\xd9\x8d\xe1IO@'
p41
tp42
Rp43
ag10
(g14
S'z\xbc)e/\x13O@'
p44
tp45
Rp46
ag10
(g14
S'\xf5\x81\x02\x9a*\xe7N@'
p47
tp48
Rp49
ag10
(g14
S'}\xd7V\x96PgO@'
p50
tp51
Rp52
ag10
(g14
S'\xd5ML\x87\xe1&O@'
p53
tp54
Rp55
ag10
(g14
S'L\xee\xd2F\xcd-O@'
p56
tp57
Rp58
ag10
(g14
S' \x80q\xdf\x01tO@'
p59
tp60
Rp61
ag10
(g14
S'\xd2\xa9\x8a\x97Y3O@'
p62
tp63
Rp64
ag10
(g14
S'P6\xc0]\xa8\x01O@'
p65
tp66
Rp67
ag10
(g14
S'\x98\xdcB\xf7\xa0\x11O@'
p68
tp69
Rp70
ag10
(g14
S',u\x9e\x06J*O@'
p71
tp72
Rp73
ag10
(g14
S"\x1b\x9d\xc6'\x1dQO@"
p74
tp75
Rp76
asS'target'
p77
(lp78
g10
(g14
S'\xe9\xa2\xb0_\x98\xca(@'
p79
tp80
Rp81
ag10
(g14
S'\xb54\xa0\xd81_(@'
p82
tp83
Rp84
ag10
(g14
S"YJ\xc3\x0b\x8b\x84'@"
p85
tp86
Rp87
ag10
(g14
S'~h\x15ks\xc9)@'
p88
tp89
Rp90
ag10
(g14
S't\xd8f\xbd\xa4")@'
p91
tp92
Rp93
ag10
(g14
S'\xc3\xd0\xc6\xaa\xdb\xf6(@'
p94
tp95
Rp96
ag10
(g14
S'j\xc70c\xba\xa2&@'
p97
tp98
Rp99
ag10
(g14
S'\xd6o\xa8V&\xef*@'
p100
tp101
Rp102
ag10
(g14
S"\xd99''A\xf7*@"
p103
tp104
Rp105
ag10
(g14
S'\xda\x13\x8bW\x84\x05)@'
p106
tp107
Rp108
ag10
(g14
S'Mq\xc5\x83W\x93)@'
p109
tp110
Rp111
ag10
(g14
S'\xc5\xaf\xadB\xa3J*@'
p112
tp113
Rp114
ag10
(g14
S'$\xd9H\xc8L\xd0)@'
p115
tp116
Rp117
ag10
(g14
S"<\x01\xa7x\xa9\xf9'@"
p118
tp119
Rp120
ag10
(g14
S"\\\xe9\xa8\xb4\xf6\x05'@"
p121
tp122
Rp123
ag10
(g14
S"\xfc`~\x10\x9a\xb2'@"
p124
tp125
Rp126
ag10
(g14
S'\xb0?\xe7M\x08t)@'
p127
tp128
Rp129
ag10
(g14
S'\\\xa5\x97S{G*@'
p130
tp131
Rp132
ag10
(g14
S'\x99\xd2+z})(@'
p133
tp134
Rp135
ag10
(g14
S"\xc0a\xc9\x80~i'@"
p136
tp137
Rp138
asssss.