(dp0
S'../Data/x264_8.csv'
p1
(dp2
S'../Data/x264_17.csv'
p3
(dp4
F0.2
(dp5
S'rank'
p6
(dp7
S'bellwether'
p8
(lp9
I2
aI4
aI2
aI308
aI2
aI4
aI4
aI3
aI3
aI3
aI4
aI2
aI3
aI3
aI3
aI4
aI298
aI2
aI3
aI4
asS'target'
p10
(lp11
I102
aI12
aI45
aI7
aI150
aI19
aI438
aI37
aI22
aI363
aI33
aI554
aI54
aI466
aI5
aI196
aI52
aI51
aI0
aI302
asssss.