(dp0
S'../Data/x264_19.csv'
p1
(dp2
S'../Data/x264_11.csv'
p3
(dp4
F0.4
(dp5
S'rank'
p6
(dp7
S'bellwether'
p8
(lp9
I31
aI629
aI629
aI616
aI25
aI25
aI628
aI643
aI24
aI25
aI26
aI628
aI629
aI620
aI615
aI25
aI614
aI623
aI645
aI636
asS'target'
p10
(lp11
I0
aI1
aI0
aI11
aI2
aI0
aI3
aI6
aI0
aI4
aI1
aI0
aI2
aI2
aI3
aI1
aI0
aI0
aI10
aI2
asssss.