(dp0
S'../Data/x264_4.csv'
p1
(dp2
S'../Data/x264_16.csv'
p3
(dp4
F0.4
(dp5
S'mmre'
p6
(dp7
S'bellwether'
p8
(lp9
cnumpy.core.multiarray
scalar
p10
(cnumpy
dtype
p11
(S'f8'
p12
I0
I1
tp13
Rp14
(I3
S'<'
p15
NNNI-1
I-1
I0
tp16
bS'\x80\x8d;\x8d\xccDX@'
p17
tp18
Rp19
ag10
(g14
S'\x00\xd8r;\xf7DX@'
p20
tp21
Rp22
ag10
(g14
S'\xc6\x98\xae\xff\xc7DX@'
p23
tp24
Rp25
ag10
(g14
S'\xf8#o\xdb\xb1DX@'
p26
tp27
Rp28
ag10
(g14
S'X\xf3\xfc)\xabDX@'
p29
tp30
Rp31
ag10
(g14
S'\xda1\xbd3\xc6EX@'
p32
tp33
Rp34
ag10
(g14
S'\x8fh\xc1\x88CEX@'
p35
tp36
Rp37
ag10
(g14
S'`\x11\x1f\x98\xfdDX@'
p38
tp39
Rp40
ag10
(g14
S'\x1fv\x15l\x06FX@'
p41
tp42
Rp43
ag10
(g14
S'\xb6`\xed\x8d\x86EX@'
p44
tp45
Rp46
ag10
(g14
S'\x19~\xc1\xd0\x7fEX@'
p47
tp48
Rp49
ag10
(g14
S'\x88)\xcclvDX@'
p50
tp51
Rp52
ag10
(g14
S'\x80g\xe0\xd4\x00DX@'
p53
tp54
Rp55
ag10
(g14
S'\xbc\x1b\xff\x8fZDX@'
p56
tp57
Rp58
ag10
(g14
S'\xf4\xce{\x1eqDX@'
p59
tp60
Rp61
ag10
(g14
S'\xbb#/z\x9eEX@'
p62
tp63
Rp64
ag10
(g14
S'\x1d\xf5\x18P\x1bEX@'
p65
tp66
Rp67
ag10
(g14
S'\x04\x06\x07SWEX@'
p68
tp69
Rp70
ag10
(g14
S'3\n\x16 \xe0EX@'
p71
tp72
Rp73
ag10
(g14
S'L\xfb\xa3\x1c\xbdEX@'
p74
tp75
Rp76
asS'target'
p77
(lp78
g10
(g14
S'@\xd5\xa6\x19,3(@'
p79
tp80
Rp81
ag10
(g14
S'\xec\x90\x84T\xce\x9c)@'
p82
tp83
Rp84
ag10
(g14
S'^\xc9v\xd7Fy(@'
p85
tp86
Rp87
ag10
(g14
S'C\xf73\x8d\xc1\x7f+@'
p88
tp89
Rp90
ag10
(g14
S'\xcbcxO5\x9c(@'
p91
tp92
Rp93
ag10
(g14
S'&\xa3\xf6\xed3K(@'
p94
tp95
Rp96
ag10
(g14
S"sfeO\x94\xd3'@"
p97
tp98
Rp99
ag10
(g14
S"\x1a\x10B\x7fMj'@"
p100
tp101
Rp102
ag10
(g14
S"o\xe2\x0e\tJN'@"
p103
tp104
Rp105
ag10
(g14
S"\xeb\x06\xc7\xc3@\xf5'@"
p106
tp107
Rp108
ag10
(g14
S'{\x08\xe4\xcc\x8f.(@'
p109
tp110
Rp111
ag10
(g14
S"\xd0_yE\x13b'@"
p112
tp113
Rp114
ag10
(g14
S'TH\xa4I\xbf\x06(@'
p115
tp116
Rp117
ag10
(g14
S'u\xec\xf7\x13;\xc1(@'
p118
tp119
Rp120
ag10
(g14
S' QUS \x8e)@'
p121
tp122
Rp123
ag10
(g14
S';BRoE\x90(@'
p124
tp125
Rp126
ag10
(g14
S'6)#\x88\xd0\xfe&@'
p127
tp128
Rp129
ag10
(g14
S'\x08\xf2\\\x0c\x89Q(@'
p130
tp131
Rp132
ag10
(g14
S"4\xaf3\x7fh\xf5'@"
p133
tp134
Rp135
ag10
(g14
S'\x8f\x84<\xd3\xe3\x15)@'
p136
tp137
Rp138
asssss.