(dp0
S'../Data/x264_3.csv'
p1
(dp2
S'../Data/x264_19.csv'
p3
(dp4
F0.05
(dp5
S'mmre'
p6
(dp7
S'bellwether'
p8
(lp9
cnumpy.core.multiarray
scalar
p10
(cnumpy
dtype
p11
(S'f8'
p12
I0
I1
tp13
Rp14
(I3
S'<'
p15
NNNI-1
I-1
I0
tp16
bS'/T\x8f\n\x0b\x8bX@'
p17
tp18
Rp19
ag10
(g14
S'\xf0f5\x18\x12\x88X@'
p20
tp21
Rp22
ag10
(g14
S'\x98x\xb89J\x89X@'
p23
tp24
Rp25
ag10
(g14
S'\x1aZmS+\x89X@'
p26
tp27
Rp28
ag10
(g14
S'\xe1\xed&\x0ei\x87X@'
p29
tp30
Rp31
ag10
(g14
S')+\x0c\x13D\x88X@'
p32
tp33
Rp34
ag10
(g14
S'\x8d6\xa6\xa1U\x89X@'
p35
tp36
Rp37
ag10
(g14
S'\xbd\xbd\xab\xe6\xeb\x88X@'
p38
tp39
Rp40
ag10
(g14
S'Ab\x97\x0f\x07\x89X@'
p41
tp42
Rp43
ag10
(g14
S'\xe4u;y>\x89X@'
p44
tp45
Rp46
ag10
(g14
S'Twj\x84V\x8aX@'
p47
tp48
Rp49
ag10
(g14
S'\xa9r\x1b$W\x89X@'
p50
tp51
Rp52
ag10
(g14
S'\xbaEJ\xb7k\x89X@'
p53
tp54
Rp55
ag10
(g14
S'q<)1m\x8aX@'
p56
tp57
Rp58
ag10
(g14
S'\x18cn9N\x89X@'
p59
tp60
Rp61
ag10
(g14
S'\xb0\xcc\x80\xda\x03\x89X@'
p62
tp63
Rp64
ag10
(g14
S'N"\xf91\xac\x89X@'
p65
tp66
Rp67
ag10
(g14
S'Be\xbf\xcc\xf7\x88X@'
p68
tp69
Rp70
ag10
(g14
S'\xd5\xfd\xacc`\x8aX@'
p71
tp72
Rp73
ag10
(g14
S'/\x17\xb00e\x8aX@'
p74
tp75
Rp76
asS'target'
p77
(lp78
g10
(g14
S'\xa1\x8b\xa6kK\xaf[@'
p79
tp80
Rp81
ag10
(g14
S'\x89\xd6\xe1]n\xca]@'
p82
tp83
Rp84
ag10
(g14
S'\x90\x03PI\xb0R\\@'
p85
tp86
Rp87
ag10
(g14
S'\xdc\xf1r\x99p$]@'
p88
tp89
Rp90
ag10
(g14
S"'\xebO\xff\xa9\xa5^@"
p91
tp92
Rp93
ag10
(g14
S'\x90Eu\xdb\x93k]@'
p94
tp95
Rp96
ag10
(g14
S'|\xe3\xdfWS4\\@'
p97
tp98
Rp99
ag10
(g14
S'\xddGi\xdd\x90[]@'
p100
tp101
Rp102
ag10
(g14
S'\xa8\x96E\xcd-\xb0]@'
p103
tp104
Rp105
ag10
(g14
S'4\xca-.X\xc5\\@'
p106
tp107
Rp108
ag10
(g14
S'L\xc0&\x99X:[@'
p109
tp110
Rp111
ag10
(g14
S'\xc0+ \x14\xcc\xaa\\@'
p112
tp113
Rp114
ag10
(g14
S'\xea\x95X\x93\xff\xb6\\@'
p115
tp116
Rp117
ag10
(g14
S'{AE\x87\x9b/\\@'
p118
tp119
Rp120
ag10
(g14
S':ir\xc66F]@'
p121
tp122
Rp123
ag10
(g14
S'!\xa6\xc7\xc7!%]@'
p124
tp125
Rp126
ag10
(g14
S'\x17\x9ac\x86\x87\xfa[@'
p127
tp128
Rp129
ag10
(g14
S'@\xb6w&\xae\xab]@'
p130
tp131
Rp132
ag10
(g14
S'\x00\xd5Z\\\x95d[@'
p133
tp134
Rp135
ag10
(g14
S'\xae\x1b1I\x91R\\@'
p136
tp137
Rp138
asssss.