(dp0
S'../Data/x264_5.csv'
p1
(dp2
S'../Data/x264_19.csv'
p3
(dp4
F0.25
(dp5
S'mmre'
p6
(dp7
S'bellwether'
p8
(lp9
cnumpy.core.multiarray
scalar
p10
(cnumpy
dtype
p11
(S'f8'
p12
I0
I1
tp13
Rp14
(I3
S'<'
p15
NNNI-1
I-1
I0
tp16
bS'\xbe;\x86\xb5\x04TT@'
p17
tp18
Rp19
ag10
(g14
S'\xaeJ\xdd\x08nST@'
p20
tp21
Rp22
ag10
(g14
S'\xd7\x1e,\xe1CUT@'
p23
tp24
Rp25
ag10
(g14
S'[\x7f\xf58\x13UT@'
p26
tp27
Rp28
ag10
(g14
S'\xd9@g\xcb+VT@'
p29
tp30
Rp31
ag10
(g14
S'\xa5\x1dbL\xb0UT@'
p32
tp33
Rp34
ag10
(g14
S' ~\x7f\xcbmUT@'
p35
tp36
Rp37
ag10
(g14
S'\x99\xa2\\\x9b\xd6TT@'
p38
tp39
Rp40
ag10
(g14
S'p\xc7\x13m\x05UT@'
p41
tp42
Rp43
ag10
(g14
S'\n\xe5\x9e\n\x1bVT@'
p44
tp45
Rp46
ag10
(g14
S'L\xc4]\x116YT@'
p47
tp48
Rp49
ag10
(g14
S'\xf2\xb2\xf4#\xb4QT@'
p50
tp51
Rp52
ag10
(g14
S'\xf5Eu{/VT@'
p53
tp54
Rp55
ag10
(g14
S'\xe5F\xbb\xb4UVT@'
p56
tp57
Rp58
ag10
(g14
S'u{-\x8c[UT@'
p59
tp60
Rp61
ag10
(g14
S'\xff\rk\x97\xf5VT@'
p62
tp63
Rp64
ag10
(g14
S'<#(I3UT@'
p65
tp66
Rp67
ag10
(g14
S'@\xfe\xd1j6VT@'
p68
tp69
Rp70
ag10
(g14
S'\x03A\xbf\xbf\xfaZT@'
p71
tp72
Rp73
ag10
(g14
S'\xe3t\xbf\x0c\xe8ST@'
p74
tp75
Rp76
asS'target'
p77
(lp78
g10
(g14
S'\xe9\x9e]\xebR\xfaZ@'
p79
tp80
Rp81
ag10
(g14
S'D\xf5R.\x91d]@'
p82
tp83
Rp84
ag10
(g14
S'\xea\x90\x02\xc7\xc5\xab]@'
p85
tp86
Rp87
ag10
(g14
S'\x86\xf0Q-Z;]@'
p88
tp89
Rp90
ag10
(g14
S'\x15D\x18\xf5\x01\\]@'
p91
tp92
Rp93
ag10
(g14
S'2\xda\xcf\x01\x8d/\\@'
p94
tp95
Rp96
ag10
(g14
S'\xde~\xe0\n\xa4kZ@'
p97
tp98
Rp99
ag10
(g14
S'\xdc:L\xea\x04\xa1\\@'
p100
tp101
Rp102
ag10
(g14
S'\xe3\xfe}5 \x82]@'
p103
tp104
Rp105
ag10
(g14
S'E\xd4\x02\xe2tT[@'
p106
tp107
Rp108
ag10
(g14
S'"\x9f&bC\x95[@'
p109
tp110
Rp111
ag10
(g14
S'4\xdb\xf1\xe7&\xd5[@'
p112
tp113
Rp114
ag10
(g14
S'\xb6n\xc9u\xd3\xf8]@'
p115
tp116
Rp117
ag10
(g14
S'\x99\xb3\xf3\x89\xa2\x05\\@'
p118
tp119
Rp120
ag10
(g14
S'0\x99\xe3|\xd4\xd9[@'
p121
tp122
Rp123
ag10
(g14
S'~<\xa8opG[@'
p124
tp125
Rp126
ag10
(g14
S'i\xfa\x8ex\xc0\xa4Z@'
p127
tp128
Rp129
ag10
(g14
S'\x00\x19h}\xd6\x84Y@'
p130
tp131
Rp132
ag10
(g14
S'\xc4\xb6G7\xfe\xb4\\@'
p133
tp134
Rp135
ag10
(g14
S'\x96*x\xd5\x88yZ@'
p136
tp137
Rp138
asssss.