(dp0
S'../Data/x264_18.csv'
p1
(dp2
S'../Data/x264_0.csv'
p3
(dp4
F0.1
(dp5
S'abs_res'
p6
(dp7
S'bellwether'
p8
(lp9
cnumpy.core.multiarray
scalar
p10
(cnumpy
dtype
p11
(S'f8'
p12
I0
I1
tp13
Rp14
(I3
S'<'
p15
NNNI-1
I-1
I0
tp16
bS'\x91\xdc\x0c7`2|@'
p17
tp18
Rp19
ag10
(g14
S'\xcb\xd0?\xc1\x859|@'
p20
tp21
Rp22
ag10
(g14
S'?\xf5\xf3\xa6">|@'
p23
tp24
Rp25
ag10
(g14
S'7gDi\xef@|@'
p26
tp27
Rp28
ag10
(g14
S'q\x1b\r\xe0m4|@'
p29
tp30
Rp31
ag10
(g14
S'<IxUzC|@'
p32
tp33
Rp34
ag10
(g14
S'\x90\xcb\x7fH\xbf:|@'
p35
tp36
Rp37
ag10
(g14
S'\x7f\xc8\x8b_\x8b*|@'
p38
tp39
Rp40
ag10
(g14
S'oDio0:|@'
p41
tp42
Rp43
ag10
(g14
S'\xb5\x9a\x03\x04\xf3G|@'
p44
tp45
Rp46
ag10
(g14
S'y]}O\xff@|@'
p47
tp48
Rp49
ag10
(g14
S'Uo\xcbZ\xdd2|@'
p50
tp51
Rp52
ag10
(g14
S'w_\x07\xce\x99?|@'
p53
tp54
Rp55
ag10
(g14
S'\xb8\xbc\xdb\xcf<K|@'
p56
tp57
Rp58
ag10
(g14
S'\xefF\xe6\x91\xbf4|@'
p59
tp60
Rp61
ag10
(g14
S'\xcf/\xf5\xf3f0|@'
p62
tp63
Rp64
ag10
(g14
S'8\xfb\xae\x08><|@'
p65
tp66
Rp67
ag10
(g14
S'%\tm9\xd7/|@'
p68
tp69
Rp70
ag10
(g14
S'\x7fk`\xabD6|@'
p71
tp72
Rp73
ag10
(g14
S'W`\x86\xd9^-|@'
p74
tp75
Rp76
asS'target'
p77
(lp78
g10
(g14
S'\x12\xd2\xa9+\x9f\xfd=@'
p79
tp80
Rp81
ag10
(g14
S'\xde\xa3p=\n\xcf7@'
p82
tp83
Rp84
ag10
(g14
S';\xb7\xb4\x1a\x12\x03<@'
p85
tp86
Rp87
ag10
(g14
S'\xf3\x83\xbb\xb3v\x1b;@'
p88
tp89
Rp90
ag10
(g14
S'28gDi_9@'
p91
tp92
Rp93
ag10
(g14
S'5=~o\xd3\xc7;@'
p94
tp95
Rp96
ag10
(g14
S'G\xb2\x80\t\xdc\x929@'
p97
tp98
Rp99
ag10
(g14
S'\x9cf,\x9a\xce^;@'
p100
tp101
Rp102
ag10
(g14
S'\xa3\xb8\xc7\xd2\x87f:@'
p103
tp104
Rp105
ag10
(g14
S'\xdd\xe8\x0ebg\x92:@'
p106
tp107
Rp108
ag10
(g14
S'8L\xc3\xf0\x11A<@'
p109
tp110
Rp111
ag10
(g14
S'N\x8c\x10\x1em\x94;@'
p112
tp113
Rp114
ag10
(g14
S'\xfa<\xb8;k\x8f9@'
p115
tp116
Rp117
ag10
(g14
S"\xe867\xa6'd<@"
p118
tp119
Rp120
ag10
(g14
S'\xedbE\r\xa6\xd9:@'
p121
tp122
Rp123
ag10
(g14
S'\xdb\xfd\x0eE\x81\x0e;@'
p124
tp125
Rp126
ag10
(g14
S'\xaf\xae|\x96\xe7\x018@'
p127
tp128
Rp129
ag10
(g14
S'\xf6\xd3\x0e\x7fM\x16:@'
p130
tp131
Rp132
ag10
(g14
S'\xc2L\xf8\xa5~N<@'
p133
tp134
Rp135
ag10
(g14
S'Fdu\xab\xe7`;@'
p136
tp137
Rp138
asssss.