(dp0
S'../Data/x264_2.csv'
p1
(dp2
S'../Data/x264_19.csv'
p3
(dp4
F0.15
(dp5
S'mmre'
p6
(dp7
S'bellwether'
p8
(lp9
cnumpy.core.multiarray
scalar
p10
(cnumpy
dtype
p11
(S'f8'
p12
I0
I1
tp13
Rp14
(I3
S'<'
p15
NNNI-1
I-1
I0
tp16
bS'\x84\xd4\xac%8\x83V@'
p17
tp18
Rp19
ag10
(g14
S'\x10\x13q\xb98\x9dV@'
p20
tp21
Rp22
ag10
(g14
S'\xa6\xafR)\xf3vV@'
p23
tp24
Rp25
ag10
(g14
S'\x8e\x90D:8EV@'
p26
tp27
Rp28
ag10
(g14
S'\x1f\xba|\x97\xb3\x8aV@'
p29
tp30
Rp31
ag10
(g14
S'\xe2oT%cSV@'
p32
tp33
Rp34
ag10
(g14
S'\xa9\xd0\xed8R\xb1V@'
p35
tp36
Rp37
ag10
(g14
S'\x08\xcd\xc8\xcfhJV@'
p38
tp39
Rp40
ag10
(g14
S'\xe3\x8c\xd9<M3V@'
p41
tp42
Rp43
ag10
(g14
S'\xec\x01\x90&\x85\x90V@'
p44
tp45
Rp46
ag10
(g14
S'H\xab\xf2\x8e\x94XV@'
p47
tp48
Rp49
ag10
(g14
S'\xccqG\xf0\xe9\x8aV@'
p50
tp51
Rp52
ag10
(g14
S'Xh\x93\x83Z\x08V@'
p53
tp54
Rp55
ag10
(g14
S'\xed\x12\xd2\xd2\x07zV@'
p56
tp57
Rp58
ag10
(g14
S'@\xb8\xe3-K|V@'
p59
tp60
Rp61
ag10
(g14
S'a1\x98i\x91kV@'
p62
tp63
Rp64
ag10
(g14
S'PO\xa5\xc4\xc9:V@'
p65
tp66
Rp67
ag10
(g14
S'\xacY&IG\x8aV@'
p68
tp69
Rp70
ag10
(g14
S'\\\xb8\x9d5\x9c<V@'
p71
tp72
Rp73
ag10
(g14
S'\xaa\x19[UI%V@'
p74
tp75
Rp76
asS'target'
p77
(lp78
g10
(g14
S'7.\\7A\x85\\@'
p79
tp80
Rp81
ag10
(g14
S'*\x95\xff\x04\xd3\xcb]@'
p82
tp83
Rp84
ag10
(g14
S'\x0b){\x9f\xf1\xf8\\@'
p85
tp86
Rp87
ag10
(g14
S'\x104\xa7\xcb\xf7\xf0[@'
p88
tp89
Rp90
ag10
(g14
S'\xdc|\x0f\x19u|\\@'
p91
tp92
Rp93
ag10
(g14
S'\xaao;\x98\xf5\x97[@'
p94
tp95
Rp96
ag10
(g14
S'(g\xa4E\xc5\x11]@'
p97
tp98
Rp99
ag10
(g14
S'\x9e-\xb7\xe4ZS\\@'
p100
tp101
Rp102
ag10
(g14
S'\x93\x87+\nu\xbaZ@'
p103
tp104
Rp105
ag10
(g14
S'\x92/\xc9\xcdJ\x97]@'
p106
tp107
Rp108
ag10
(g14
S'\xb3l\x0f\xba\xbe\xf3\\@'
p109
tp110
Rp111
ag10
(g14
S"\xab~a\xb2''^@"
p112
tp113
Rp114
ag10
(g14
S'\xc0\xb3\\\x10\x0f[[@'
p115
tp116
Rp117
ag10
(g14
S'\x9a(q\x1b+i\\@'
p118
tp119
Rp120
ag10
(g14
S'\xd9/!\xcf/b]@'
p121
tp122
Rp123
ag10
(g14
S'U<}V\xb0\x11\\@'
p124
tp125
Rp126
ag10
(g14
S'\x0e\xb5a\x8b\xa4\x93\\@'
p127
tp128
Rp129
ag10
(g14
S'D!k\xbf\x93\xa9\\@'
p130
tp131
Rp132
ag10
(g14
S'\x8c\x0b-\xc7\x82\xea\\@'
p133
tp134
Rp135
ag10
(g14
S']\xc0Y \xa9K[@'
p136
tp137
Rp138
asssss.