(dp0
S'../Data/x264_4.csv'
p1
(dp2
S'../Data/x264_16.csv'
p3
(dp4
F0.25
(dp5
S'mmre'
p6
(dp7
S'bellwether'
p8
(lp9
cnumpy.core.multiarray
scalar
p10
(cnumpy
dtype
p11
(S'f8'
p12
I0
I1
tp13
Rp14
(I3
S'<'
p15
NNNI-1
I-1
I0
tp16
bS',\xf4\x0e\x95}EX@'
p17
tp18
Rp19
ag10
(g14
S'\x82\xcdF\x16\x8dEX@'
p20
tp21
Rp22
ag10
(g14
S'A\xfb/:KEX@'
p23
tp24
Rp25
ag10
(g14
S'\xe0^U\x10\x01EX@'
p26
tp27
Rp28
ag10
(g14
S'\xceX\x9f\xa9RDX@'
p29
tp30
Rp31
ag10
(g14
S'\x07\x12\x8f\xa7\xf0DX@'
p32
tp33
Rp34
ag10
(g14
S'q\nZ\x90\xddEX@'
p35
tp36
Rp37
ag10
(g14
S'V4\x8a\x8e\xdaEX@'
p38
tp39
Rp40
ag10
(g14
S'\x01jPM\x1aFX@'
p41
tp42
Rp43
ag10
(g14
S'?\x90X\xdc\xbeEX@'
p44
tp45
Rp46
ag10
(g14
S'M#\xf2\x85\xaeEX@'
p47
tp48
Rp49
ag10
(g14
S'\xac>.9\xfdEX@'
p50
tp51
Rp52
ag10
(g14
S'4\\s\x19rEX@'
p53
tp54
Rp55
ag10
(g14
S'\xf8\x13\x17\x12eEX@'
p56
tp57
Rp58
ag10
(g14
S'\xe9Sb\x15\x15FX@'
p59
tp60
Rp61
ag10
(g14
S'\xf1\x89\x02l^EX@'
p62
tp63
Rp64
ag10
(g14
S'<\xf8Y\xc2/EX@'
p65
tp66
Rp67
ag10
(g14
S'\xa0[\x94\x89\xd0EX@'
p68
tp69
Rp70
ag10
(g14
S'w\xff\nB\xa4DX@'
p71
tp72
Rp73
ag10
(g14
S'\xaa\xe5$\xf3\xc1EX@'
p74
tp75
Rp76
asS'target'
p77
(lp78
g10
(g14
S'\xe5\xedd\xef\xa2{)@'
p79
tp80
Rp81
ag10
(g14
S'N\x1fl\xaf\xdd&)@'
p82
tp83
Rp84
ag10
(g14
S"'*\x9c\xb2m\x05(@"
p85
tp86
Rp87
ag10
(g14
S"xz\xf0uwe'@"
p88
tp89
Rp90
ag10
(g14
S'-("\x8b\xf3\x85(@'
p91
tp92
Rp93
ag10
(g14
S"\xd2\xe2\xe8l\xf8\xf2'@"
p94
tp95
Rp96
ag10
(g14
S'\xf6WW`tF)@'
p97
tp98
Rp99
ag10
(g14
S'6Rm\xad7\xad*@'
p100
tp101
Rp102
ag10
(g14
S'\xf5\xcdZ\x9f\xeeW(@'
p103
tp104
Rp105
ag10
(g14
S'\xc7\x18[\xc1\x02\x8c)@'
p106
tp107
Rp108
ag10
(g14
S'\xa6\xd6\xec\x14%\x86)@'
p109
tp110
Rp111
ag10
(g14
S'8C>&t\xa2*@'
p112
tp113
Rp114
ag10
(g14
S'\xe6\xb9\xb9v<y(@'
p115
tp116
Rp117
ag10
(g14
S"\xdb\x1a_/0{'@"
p118
tp119
Rp120
ag10
(g14
S'A\x1a\x8f\xab\xa0s)@'
p121
tp122
Rp123
ag10
(g14
S")\x94\x84\x86\xed\x94'@"
p124
tp125
Rp126
ag10
(g14
S'\x9e<\x80p\xca.(@'
p127
tp128
Rp129
ag10
(g14
S'\xa0\xbf\xca^3\xde(@'
p130
tp131
Rp132
ag10
(g14
S'\xd2\x19yYV\x18)@'
p133
tp134
Rp135
ag10
(g14
S'\xe0f\xa2xS-+@'
p136
tp137
Rp138
asssss.