(dp0
S'../Data/x264_20.csv'
p1
(dp2
S'../Data/x264_9.csv'
p3
(dp4
F0.2
(dp5
S'abs_res'
p6
(dp7
S'bellwether'
p8
(lp9
cnumpy.core.multiarray
scalar
p10
(cnumpy
dtype
p11
(S'f8'
p12
I0
I1
tp13
Rp14
(I3
S'<'
p15
NNNI-1
I-1
I0
tp16
bS'~2\xc6\xc7@d\nA'
p17
tp18
Rp19
ag10
(g14
S'\x93\x9a\x04/\x84\\\nA'
p20
tp21
Rp22
ag10
(g14
S'g\xda\xc5\x94\x90d\nA'
p23
tp24
Rp25
ag10
(g14
S'\x1e\x99G\xbe\xcfm\nA'
p26
tp27
Rp28
ag10
(g14
S'\x0c\xc6\xc1\xa5jc\nA'
p29
tp30
Rp31
ag10
(g14
S'[\x08\xab1Td\nA'
p32
tp33
Rp34
ag10
(g14
S'\xdf\x9d|\x1a\xbdc\nA'
p35
tp36
Rp37
ag10
(g14
S'!Y\xf9\x05Ld\nA'
p38
tp39
Rp40
ag10
(g14
S'\xf8y\x8c\x92\xceW\nA'
p41
tp42
Rp43
ag10
(g14
S'\x9e\xdb\x84\x9b,X\nA'
p44
tp45
Rp46
ag10
(g14
S'\xfc7\xf6L=m\nA'
p47
tp48
Rp49
ag10
(g14
S'V\xca\x16\xa9Da\nA'
p50
tp51
Rp52
ag10
(g14
S'9\xf4\x16o|`\nA'
p53
tp54
Rp55
ag10
(g14
S'[|C!`o\nA'
p56
tp57
Rp58
ag10
(g14
S'RQ.\xad\xa2i\nA'
p59
tp60
Rp61
ag10
(g14
S'\\\xf4N\x05Me\nA'
p62
tp63
Rp64
ag10
(g14
S'\xd8\xdb\xf4\xc7\xd9l\nA'
p65
tp66
Rp67
ag10
(g14
S'\xc0\xd2\x87\x8eI^\nA'
p68
tp69
Rp70
ag10
(g14
S'\xd7\xfa\x94\x83\xa5a\nA'
p71
tp72
Rp73
ag10
(g14
S'\xb2\x84\xb51\x00l\nA'
p74
tp75
Rp76
asS'target'
p77
(lp78
g10
(g14
S'\xfdJ\xc9r\x12\xba%@'
p79
tp80
Rp81
ag10
(g14
S'\t$|\xefo8&@'
p82
tp83
Rp84
ag10
(g14
S'\xc4\xb5\x11Ov\x03)@'
p85
tp86
Rp87
ag10
(g14
S'\xd7\xf8.\xa5.\xf9&@'
p88
tp89
Rp90
ag10
(g14
S'\x012V\x9b\xff\x97%@'
p91
tp92
Rp93
ag10
(g14
S"\xad\xb4\xe0E_\xc9'@"
p94
tp95
Rp96
ag10
(g14
S'\x84,{\x12\xd8\x0c&@'
p97
tp98
Rp99
ag10
(g14
S'\x11\xb4\x1dSw=&@'
p100
tp101
Rp102
ag10
(g14
S'pC5%Y\x9b&@'
p103
tp104
Rp105
ag10
(g14
S"\x04\xfa_\xaeE\x0b'@"
p106
tp107
Rp108
ag10
(g14
S'K\xfa]\xd8\x9a=(@'
p109
tp110
Rp111
ag10
(g14
S'\x93\x84\xd1\xacl\x8f%@'
p112
tp113
Rp114
ag10
(g14
S"tup\xb07\x91'@"
p115
tp116
Rp117
ag10
(g14
S'\xab\x0f?\xff=\xe8&@'
p118
tp119
Rp120
ag10
(g14
S"\xabm3\x15\xe2\xe9'@"
p121
tp122
Rp123
ag10
(g14
S'~[Y\xa2\xb3$&@'
p124
tp125
Rp126
ag10
(g14
S"\x19\r4\x9fs\x0f'@"
p127
tp128
Rp129
ag10
(g14
S'&\x8a\xe4+\x81,$@'
p130
tp131
Rp132
ag10
(g14
S'l\xc3\n\xb7||&@'
p133
tp134
Rp135
ag10
(g14
S"\x9d\x03\x1f\x83\x15\x17'@"
p136
tp137
Rp138
asssss.