(dp0
S'../Data/x264_2.csv'
p1
(dp2
S'../Data/x264_17.csv'
p3
(dp4
F0.25
(dp5
S'mmre'
p6
(dp7
S'bellwether'
p8
(lp9
cnumpy.core.multiarray
scalar
p10
(cnumpy
dtype
p11
(S'f8'
p12
I0
I1
tp13
Rp14
(I3
S'<'
p15
NNNI-1
I-1
I0
tp16
bS'w\xea:aPrW@'
p17
tp18
Rp19
ag10
(g14
S'p.\x13\xd0\xfbrW@'
p20
tp21
Rp22
ag10
(g14
S'\xd6\xec\\b\xb5rW@'
p23
tp24
Rp25
ag10
(g14
S'\x16\xfe?AYrW@'
p26
tp27
Rp28
ag10
(g14
S'\xe2\xd5Mi\xabsW@'
p29
tp30
Rp31
ag10
(g14
S'\x12\x12R\xa5\xb8rW@'
p32
tp33
Rp34
ag10
(g14
S'\xec6\xb2b\x14sW@'
p35
tp36
Rp37
ag10
(g14
S'~jF\x85\x18rW@'
p38
tp39
Rp40
ag10
(g14
S'\xd1g%\xf6;sW@'
p41
tp42
Rp43
ag10
(g14
S'\xe7=\xe73>sW@'
p44
tp45
Rp46
ag10
(g14
S"\x00'/\x0e\xa2rW@"
p47
tp48
Rp49
ag10
(g14
S'\xd9\xd9\\\x0cDsW@'
p50
tp51
Rp52
ag10
(g14
S'-)\xe2\xe4\trW@'
p53
tp54
Rp55
ag10
(g14
S'kdGs\x1csW@'
p56
tp57
Rp58
ag10
(g14
S'8\\\xba\xd2\x1arW@'
p59
tp60
Rp61
ag10
(g14
S'\x9c\xa7{\x07\x8brW@'
p62
tp63
Rp64
ag10
(g14
S'C|\xaf\xa4\x1csW@'
p65
tp66
Rp67
ag10
(g14
S"o\x8f\x99'frW@"
p68
tp69
Rp70
ag10
(g14
S'\xc4\x07\xdc\x17urW@'
p71
tp72
Rp73
ag10
(g14
S'\xba\x92\x00n\x1asW@'
p74
tp75
Rp76
asS'target'
p77
(lp78
g10
(g14
S'@#%\x90|\x1e"@'
p79
tp80
Rp81
ag10
(g14
S'?\xa4p\xc1\x94~"@'
p82
tp83
Rp84
ag10
(g14
S'\xe8\xe2\xa8\x98O\x9e!@'
p85
tp86
Rp87
ag10
(g14
S'\xc6\xd0\xe2\x13\xd2\xd3!@'
p88
tp89
Rp90
ag10
(g14
S"H'\xa8\xc3l\xa2!@"
p91
tp92
Rp93
ag10
(g14
S'A\xdf\x8b0S-"@'
p94
tp95
Rp96
ag10
(g14
S'\\y\xd8=\x8ed!@'
p97
tp98
Rp99
ag10
(g14
S'*\x9e\xbd;\xb1\xac!@'
p100
tp101
Rp102
ag10
(g14
S'\xdf\x97\xa1zQ\xf7!@'
p103
tp104
Rp105
ag10
(g14
S"\xa1'\xcdI\xba\xb3!@"
p106
tp107
Rp108
ag10
(g14
S'\xbb\x1c\xf9\xfe\xa4p!@'
p109
tp110
Rp111
ag10
(g14
S'\xe5\x02\x12\x90\xf7\xe6 @'
p112
tp113
Rp114
ag10
(g14
S'\x07afZ0G"@'
p115
tp116
Rp117
ag10
(g14
S'\x7f\xf4\x9b\xd3XN!@'
p118
tp119
Rp120
ag10
(g14
S'\x7f\xc4a\r\x95\x1d"@'
p121
tp122
Rp123
ag10
(g14
S'\xac\xeeF\xf8W\x0e"@'
p124
tp125
Rp126
ag10
(g14
S'\x82L\x19\xcf\xdfI"@'
p127
tp128
Rp129
ag10
(g14
S'jj\x17\x05\xcd\xf1!@'
p130
tp131
Rp132
ag10
(g14
S'x\xea\x87\xf4Q\xfa"@'
p133
tp134
Rp135
ag10
(g14
S'\xad\xf1r)u("@'
p136
tp137
Rp138
asssss.