(dp0
S'../Data/x264_15.csv'
p1
(dp2
S'../Data/x264_16.csv'
p3
(dp4
F0.25
(dp5
S'mmre'
p6
(dp7
S'bellwether'
p8
(lp9
cnumpy.core.multiarray
scalar
p10
(cnumpy
dtype
p11
(S'f8'
p12
I0
I1
tp13
Rp14
(I3
S'<'
p15
NNNI-1
I-1
I0
tp16
bS'\x0f\xbf6\xc3\xaddW@'
p17
tp18
Rp19
ag10
(g14
S'\xa8\xb0\x07\rKiW@'
p20
tp21
Rp22
ag10
(g14
S'\xef\x98-\x87\xd2^W@'
p23
tp24
Rp25
ag10
(g14
S'@\xe3]\x85DaW@'
p26
tp27
Rp28
ag10
(g14
S'[&\xfa\x86\x86aW@'
p29
tp30
Rp31
ag10
(g14
S'`\xf4\xee\xd9\xc0_W@'
p32
tp33
Rp34
ag10
(g14
S'\xa2\x8c0\x1d\x99SW@'
p35
tp36
Rp37
ag10
(g14
S'\xdav.VkbW@'
p38
tp39
Rp40
ag10
(g14
S'\xf0u\x1bX\x10[W@'
p41
tp42
Rp43
ag10
(g14
S'\x92M\xcd\xb6\x01gW@'
p44
tp45
Rp46
ag10
(g14
S'\xae\xc1Y\r\xcaeW@'
p47
tp48
Rp49
ag10
(g14
S'S\x16>\xf8\xacjW@'
p50
tp51
Rp52
ag10
(g14
S'4\\\xc5\xc5\x89gW@'
p53
tp54
Rp55
ag10
(g14
S'$\x88^\xdf\x0efW@'
p56
tp57
Rp58
ag10
(g14
S'\xcc\xa3I\x91(ZW@'
p59
tp60
Rp61
ag10
(g14
S'\xc2\x90+\x84rXW@'
p62
tp63
Rp64
ag10
(g14
S'\xf6\xa7J\x9d\x9e[W@'
p65
tp66
Rp67
ag10
(g14
S'\xad\xaaQ\xec\xbd`W@'
p68
tp69
Rp70
ag10
(g14
S'\xf7\xbbw\xc0\xdc`W@'
p71
tp72
Rp73
ag10
(g14
S'\x81>\xc1\xfb"hW@'
p74
tp75
Rp76
asS'target'
p77
(lp78
g10
(g14
S'^\x0c;\xa4\xf8?(@'
p79
tp80
Rp81
ag10
(g14
S'j\xed\xeao\xaa\xbb(@'
p82
tp83
Rp84
ag10
(g14
S'q\xb6\xa3_\xb8h)@'
p85
tp86
Rp87
ag10
(g14
S'\x82\x16n\x08\x02\x7f)@'
p88
tp89
Rp90
ag10
(g14
S'S\xda\xd9\x94\xa7\n(@'
p91
tp92
Rp93
ag10
(g14
S'b&\x12\x07\x94\xd4(@'
p94
tp95
Rp96
ag10
(g14
S'I\xac\x9av;\x14*@'
p97
tp98
Rp99
ag10
(g14
S'\\s\xbe\x8b\xf1d*@'
p100
tp101
Rp102
ag10
(g14
S'M\xc6W\x8ahw)@'
p103
tp104
Rp105
ag10
(g14
S'R\xa8nY\xa2\xb9&@'
p106
tp107
Rp108
ag10
(g14
S'a\xae1\x1a*\xe0(@'
p109
tp110
Rp111
ag10
(g14
S'\xc9\xec\xda_\xa3D(@'
p112
tp113
Rp114
ag10
(g14
S"[!}\xc9\xe7\n'@"
p115
tp116
Rp117
ag10
(g14
S"p\xc4\xd2|&\xf1'@"
p118
tp119
Rp120
ag10
(g14
S"\xf6'\x82_.\x15*@"
p121
tp122
Rp123
ag10
(g14
S'J;n!\xbc\xb0(@'
p124
tp125
Rp126
ag10
(g14
S'@\x87{u\xad\xad)@'
p127
tp128
Rp129
ag10
(g14
S'8\xf5\xe5z\xf4\x92)@'
p130
tp131
Rp132
ag10
(g14
S'\xe0\xe1Ha\x07\xb3(@'
p133
tp134
Rp135
ag10
(g14
S'\x8d:\xc3^\xbeV)@'
p136
tp137
Rp138
asssss.