(dp0
S'../Data/x264_12.csv'
p1
(dp2
S'../Data/x264_16.csv'
p3
(dp4
F0.05
(dp5
S'mmre'
p6
(dp7
S'bellwether'
p8
(lp9
cnumpy.core.multiarray
scalar
p10
(cnumpy
dtype
p11
(S'f8'
p12
I0
I1
tp13
Rp14
(I3
S'<'
p15
NNNI-1
I-1
I0
tp16
bS'0t;\x19J\xd6X@'
p17
tp18
Rp19
ag10
(g14
S'<mf,R\xd6X@'
p20
tp21
Rp22
ag10
(g14
S'$\xc7L\x8cr\xd6X@'
p23
tp24
Rp25
ag10
(g14
S'\x04B\xe6\xccX\xd6X@'
p26
tp27
Rp28
ag10
(g14
S'^\xb4h\xe0^\xd6X@'
p29
tp30
Rp31
ag10
(g14
S'y\x17\xcf\xa8E\xd6X@'
p32
tp33
Rp34
ag10
(g14
S'"\xb65J[\xd6X@'
p35
tp36
Rp37
ag10
(g14
S'\x9fa\xc1\xfdO\xd6X@'
p38
tp39
Rp40
ag10
(g14
S'~o}\x9fJ\xd6X@'
p41
tp42
Rp43
ag10
(g14
S'\xf8s\x82(F\xd6X@'
p44
tp45
Rp46
ag10
(g14
S'\xb4\xcch\xcaO\xd6X@'
p47
tp48
Rp49
ag10
(g14
S'\x91\xf5M]f\xd6X@'
p50
tp51
Rp52
ag10
(g14
S's\r\xd4\xcfM\xd6X@'
p53
tp54
Rp55
ag10
(g14
S"'\xedE7R\xd6X@"
p56
tp57
Rp58
ag10
(g14
S'\xa2\xe6\\\t_\xd6X@'
p59
tp60
Rp61
ag10
(g14
S'\xa1a\xcc\xf0E\xd6X@'
p62
tp63
Rp64
ag10
(g14
S'\xc9<\xac&V\xd6X@'
p65
tp66
Rp67
ag10
(g14
S'\\\x84S\xd8a\xd6X@'
p68
tp69
Rp70
ag10
(g14
S'\xe3\xce1\x14W\xd6X@'
p71
tp72
Rp73
ag10
(g14
S'u\x8f\xf7mI\xd6X@'
p74
tp75
Rp76
asS'target'
p77
(lp78
g10
(g14
S'\x11\x8eMr\tK(@'
p79
tp80
Rp81
ag10
(g14
S'\x1d\xb2\xfe\xcf\x9cM)@'
p82
tp83
Rp84
ag10
(g14
S'\xb3\x9d{\x14\xe8z+@'
p85
tp86
Rp87
ag10
(g14
S'\xd1\x9e\xb6\x82>s(@'
p88
tp89
Rp90
ag10
(g14
S'\x08\x1d\xde\xae~\xa7-@'
p91
tp92
Rp93
ag10
(g14
S'\xdb_\xc3\xd7\xd9=*@'
p94
tp95
Rp96
ag10
(g14
S'~\x85C\x13H8*@'
p97
tp98
Rp99
ag10
(g14
S'\xfa\r.\xcf\xaa\x98(@'
p100
tp101
Rp102
ag10
(g14
S'_\xde5\x97oP,@'
p103
tp104
Rp105
ag10
(g14
S'm\r\xd34\x90\xc3&@'
p106
tp107
Rp108
ag10
(g14
S'a2\xc0\xdc2])@'
p109
tp110
Rp111
ag10
(g14
S'\xc8\xfb\xcb\x9cv^+@'
p112
tp113
Rp114
ag10
(g14
S'\x9fc\xc1G\xd4\xb7+@'
p115
tp116
Rp117
ag10
(g14
S'p|\xf2\x00Ch(@'
p118
tp119
Rp120
ag10
(g14
S'\xc8\xd4?\x90\xd0\x98)@'
p121
tp122
Rp123
ag10
(g14
S's\xd9\xb8S\xf2\xb9&@'
p124
tp125
Rp126
ag10
(g14
S'\xcc[\xbaw\xf3\xa6(@'
p127
tp128
Rp129
ag10
(g14
S"\xcc\x05vE\x1a`'@"
p130
tp131
Rp132
ag10
(g14
S'\xc4\x8a]\xf8Y9+@'
p133
tp134
Rp135
ag10
(g14
S"\x85\xc9\xc0\xad\x11F'@"
p136
tp137
Rp138
asssss.