(dp0
S'../Data/x264_18.csv'
p1
(dp2
S'../Data/x264_19.csv'
p3
(dp4
F0.2
(dp5
S'mmre'
p6
(dp7
S'bellwether'
p8
(lp9
cnumpy.core.multiarray
scalar
p10
(cnumpy
dtype
p11
(S'f8'
p12
I0
I1
tp13
Rp14
(I3
S'<'
p15
NNNI-1
I-1
I0
tp16
bS'v\xbf#P\xd1LX@'
p17
tp18
Rp19
ag10
(g14
S'BYYY\xc7LX@'
p20
tp21
Rp22
ag10
(g14
S'\xc1\xfa\xe7\x883HX@'
p23
tp24
Rp25
ag10
(g14
S'+\xe8\x13\xf8HMX@'
p26
tp27
Rp28
ag10
(g14
S'D\xd5\xc4\nGJX@'
p29
tp30
Rp31
ag10
(g14
S'#f\x82\xafiJX@'
p32
tp33
Rp34
ag10
(g14
S'N\xcc\xa8W\x06LX@'
p35
tp36
Rp37
ag10
(g14
S'\x8bk\x7f\x9aeNX@'
p38
tp39
Rp40
ag10
(g14
S'\x9d6\x18\xd5aJX@'
p41
tp42
Rp43
ag10
(g14
S'\xaf\xb5\xdc*\xd0MX@'
p44
tp45
Rp46
ag10
(g14
S']\xa9\xf59^OX@'
p47
tp48
Rp49
ag10
(g14
S'\xca\xccB\x94\xf9EX@'
p50
tp51
Rp52
ag10
(g14
S'\xf0\xce\xcd\x14\x02LX@'
p53
tp54
Rp55
ag10
(g14
S'\xfeu\x8d\xee\xfbKX@'
p56
tp57
Rp58
ag10
(g14
S'\xeb\xb5\x94\xa7`JX@'
p59
tp60
Rp61
ag10
(g14
S'\xbb\xf4x\xd7\x8dKX@'
p62
tp63
Rp64
ag10
(g14
S'N\xa4aG\xdbMX@'
p65
tp66
Rp67
ag10
(g14
S'v\xf0b1?HX@'
p68
tp69
Rp70
ag10
(g14
S'\nY_\xa8wIX@'
p71
tp72
Rp73
ag10
(g14
S'\xf4\x88sq\xafJX@'
p74
tp75
Rp76
asS'target'
p77
(lp78
g10
(g14
S'\x94\xc8\x9c0wm]@'
p79
tp80
Rp81
ag10
(g14
S'O\xac\xb6Q\xc5\xbd[@'
p82
tp83
Rp84
ag10
(g14
S'\x88\x91I\x1b|F^@'
p85
tp86
Rp87
ag10
(g14
S'\x00\x9a\xbf\x1c\xf9\x0c]@'
p88
tp89
Rp90
ag10
(g14
S'\xbe\x83zHJ\x8f^@'
p91
tp92
Rp93
ag10
(g14
S's2f\xab\x8c\x0b\\@'
p94
tp95
Rp96
ag10
(g14
S'\x9bZ\t{\x88E]@'
p97
tp98
Rp99
ag10
(g14
S'\x19\x9cv\xb5RO]@'
p100
tp101
Rp102
ag10
(g14
S'\x1c\xec5\x84rc]@'
p103
tp104
Rp105
ag10
(g14
S'w8\x16\x1dp\xbd\\@'
p106
tp107
Rp108
ag10
(g14
S'\x96\xb9aX{\xf0[@'
p109
tp110
Rp111
ag10
(g14
S'\xc0\xd1G\xe3.9]@'
p112
tp113
Rp114
ag10
(g14
S'pz\x04_\xf5\xdd]@'
p115
tp116
Rp117
ag10
(g14
S'\x07\xedr\x82\xf7\x7f\\@'
p118
tp119
Rp120
ag10
(g14
S'\xe1\xfc\x9dT\xfe\x03]@'
p121
tp122
Rp123
ag10
(g14
S'\xac\x89N\x85C\x83]@'
p124
tp125
Rp126
ag10
(g14
S'V\xa0\x8c\xa8\x83\x9d[@'
p127
tp128
Rp129
ag10
(g14
S'\xa7x\x8a\xac\x8e\x0f]@'
p130
tp131
Rp132
ag10
(g14
S'e8=\x1a\xf9\xf6\\@'
p133
tp134
Rp135
ag10
(g14
S'aL\x13\xb9\xc1\x84\\@'
p136
tp137
Rp138
asssss.