(dp0
S'../Data/x264_3.csv'
p1
(dp2
S'../Data/x264_2.csv'
p3
(dp4
F0.4
(dp5
S'abs_res'
p6
(dp7
S'bellwether'
p8
(lp9
cnumpy.core.multiarray
scalar
p10
(cnumpy
dtype
p11
(S'f8'
p12
I0
I1
tp13
Rp14
(I3
S'<'
p15
NNNI-1
I-1
I0
tp16
bS'^2U0\xddQ\xd3@'
p17
tp18
Rp19
ag10
(g14
S'I\x02\xd4\xd4WC\xd3@'
p20
tp21
Rp22
ag10
(g14
S'\xde\xeb\x1f1\xcfO\xd3@'
p23
tp24
Rp25
ag10
(g14
S'YD\x86UZE\xd3@'
p26
tp27
Rp28
ag10
(g14
S'\xc5Ah*\xb2L\xd3@'
p29
tp30
Rp31
ag10
(g14
S'\xb8O\xc7c-H\xd3@'
p32
tp33
Rp34
ag10
(g14
S"\xb1'\x0f\x0b\x97H\xd3@"
p35
tp36
Rp37
ag10
(g14
S'\xdc[El\xb0L\xd3@'
p38
tp39
Rp40
ag10
(g14
S'\xd9|\\\x1b\rY\xd3@'
p41
tp42
Rp43
ag10
(g14
S'\x8dF\x18\x19\xf9R\xd3@'
p44
tp45
Rp46
ag10
(g14
S'o\xd4\xe4<\x14K\xd3@'
p47
tp48
Rp49
ag10
(g14
S'\xab\xc3\x1d\x82"S\xd3@'
p50
tp51
Rp52
ag10
(g14
S'T\\U\xf6hI\xd3@'
p53
tp54
Rp55
ag10
(g14
S'\xc6F ^7B\xd3@'
p56
tp57
Rp58
ag10
(g14
S'\xb7\xfa\xfduXM\xd3@'
p59
tp60
Rp61
ag10
(g14
S'jR\xab\xc2\xa0K\xd3@'
p62
tp63
Rp64
ag10
(g14
S'\xf7,\xcf\x83\xbfO\xd3@'
p65
tp66
Rp67
ag10
(g14
S'\x01I\xb2!;E\xd3@'
p68
tp69
Rp70
ag10
(g14
S'A\x18x\xee\x1bS\xd3@'
p71
tp72
Rp73
ag10
(g14
S'\xb8\xa8\xa4N\xeaN\xd3@'
p74
tp75
Rp76
asS'target'
p77
(lp78
g10
(g14
S'b=\n\xd7\xa3\xb8Z@'
p79
tp80
Rp81
ag10
(g14
S'n\xe7\xfb\xa9\xf1\xf4`@'
p82
tp83
Rp84
ag10
(g14
S'\x1d\xd9\xce\xf7S\xa7X@'
p85
tp86
Rp87
ag10
(g14
S'\xb6:&x0%c@'
p88
tp89
Rp90
ag10
(g14
S'\xd5O\x8d\x97nVY@'
p91
tp92
Rp93
ag10
(g14
S'z\xbe\x9f\x1a/K`@'
p94
tp95
Rp96
ag10
(g14
S'=3333\x1bX@'
p97
tp98
Rp99
ag10
(g14
S'\xa9\x99\x99\x99\x99QZ@'
p100
tp101
Rp102
ag10
(g14
S'lffff\xfaa@'
p103
tp104
Rp105
ag10
(g14
S'\xe2"\xdb\xf9~FZ@'
p106
tp107
Rp108
ag10
(g14
S'\xf4S\xe3\xa5\x9b\x1e`@'
p109
tp110
Rp111
ag10
(g14
S'S\xe1z\x14\xae3Z@'
p112
tp113
Rp114
ag10
(g14
S'p\xbct\x93\x18\xacX@'
p115
tp116
Rp117
ag10
(g14
S'\xb6\x1cZd;g]@'
p118
tp119
Rp120
ag10
(g14
S'@\n\xd7\xa3p\xf9]@'
p121
tp122
Rp123
ag10
(g14
S'\x19/\xdd$\x06UY@'
p124
tp125
Rp126
ag10
(g14
S'\r\xd5x\xe9&\x85Y@'
p127
tp128
Rp129
ag10
(g14
S'%Zd;\xdfWa@'
p130
tp131
Rp132
ag10
(g14
S'B3333\x13[@'
p133
tp134
Rp135
ag10
(g14
S"E\x98'\xea\xdf\x84Z@"
p136
tp137
Rp138
asssss.