(dp0
S'../Data/x264_5.csv'
p1
(dp2
S'../Data/x264_17.csv'
p3
(dp4
F0.15
(dp5
S'mmre'
p6
(dp7
S'bellwether'
p8
(lp9
cnumpy.core.multiarray
scalar
p10
(cnumpy
dtype
p11
(S'f8'
p12
I0
I1
tp13
Rp14
(I3
S'<'
p15
NNNI-1
I-1
I0
tp16
bS'&\x1b\x8dR}KX@'
p17
tp18
Rp19
ag10
(g14
S'\x88\xb9ms\xcfKX@'
p20
tp21
Rp22
ag10
(g14
S']\x00P@\x90KX@'
p23
tp24
Rp25
ag10
(g14
S'E\xd1\xaa\xd9\xa6KX@'
p26
tp27
Rp28
ag10
(g14
S'O\xc8\xaa2\xd7KX@'
p29
tp30
Rp31
ag10
(g14
S'm\x02\xea\xd9\x92KX@'
p32
tp33
Rp34
ag10
(g14
S"'\x15%\x1c\x80KX@"
p35
tp36
Rp37
ag10
(g14
S'\x0e|\xf6E\xf2KX@'
p38
tp39
Rp40
ag10
(g14
S'w#\xc8\x13[KX@'
p41
tp42
Rp43
ag10
(g14
S'\xbc\xad\xc3&\x96KX@'
p44
tp45
Rp46
ag10
(g14
S'2l\x85\xb9zKX@'
p47
tp48
Rp49
ag10
(g14
S'\xaeA$\x8f\x9eKX@'
p50
tp51
Rp52
ag10
(g14
S'G\xff\xc6R\xa9KX@'
p53
tp54
Rp55
ag10
(g14
S'\x04\xa1rt\xb1KX@'
p56
tp57
Rp58
ag10
(g14
S'T`\x9d\x87\xa0KX@'
p59
tp60
Rp61
ag10
(g14
S'?\n,\xbe\xa3KX@'
p62
tp63
Rp64
ag10
(g14
S'\xce\x89\xcf\xa3\xb0KX@'
p65
tp66
Rp67
ag10
(g14
S'\xa4\x16\xc6\xd4oKX@'
p68
tp69
Rp70
ag10
(g14
S'}\xe6\x97\xc3\x91KX@'
p71
tp72
Rp73
ag10
(g14
S'\x00-h\xc4}KX@'
p74
tp75
Rp76
asS'target'
p77
(lp78
g10
(g14
S'\xf4\xd12\xd7C\xda"@'
p79
tp80
Rp81
ag10
(g14
S'z\xa9\x0e\xb3\n\x97 @'
p82
tp83
Rp84
ag10
(g14
S'\xf5\x8a\x81e\x7fB"@'
p85
tp86
Rp87
ag10
(g14
S'5M.72T!@'
p88
tp89
Rp90
ag10
(g14
S'\xbc\xf9\xe5u\xa5b!@'
p91
tp92
Rp93
ag10
(g14
S'\xf1=zL\x87g"@'
p94
tp95
Rp96
ag10
(g14
S'9\xd5$\x1f*\xc2!@'
p97
tp98
Rp99
ag10
(g14
S'\x83F\xe3]\x8aI"@'
p100
tp101
Rp102
ag10
(g14
S'\x89FU\xf0\xc5\xb8#@'
p103
tp104
Rp105
ag10
(g14
S'\xe1Y*+Y\x0b"@'
p106
tp107
Rp108
ag10
(g14
S'\r\r\xf2\xab\xd3\xf6!@'
p109
tp110
Rp111
ag10
(g14
S'\x0f\xa2\xe5\x874\x05!@'
p112
tp113
Rp114
ag10
(g14
S'l\x06\x10\xbd\xd4\xca!@'
p115
tp116
Rp117
ag10
(g14
S'>\xd3\xfe s\x9d!@'
p118
tp119
Rp120
ag10
(g14
S'\xb9-@\x92? "@'
p121
tp122
Rp123
ag10
(g14
S'\xdf\xef.\x96}\xeb @'
p124
tp125
Rp126
ag10
(g14
S'\x9fi\x1f8\xb9l!@'
p127
tp128
Rp129
ag10
(g14
S'\xe4\t\x8d\xa0Q\x9c!@'
p130
tp131
Rp132
ag10
(g14
S'$y\x0e\x11\x99\x90"@'
p133
tp134
Rp135
ag10
(g14
S'\xa1\x85\xe4\xf8\xed<"@'
p136
tp137
Rp138
asssss.