(dp0
S'../Data/x264_3.csv'
p1
(dp2
S'../Data/x264_18.csv'
p3
(dp4
F0.15
(dp5
S'abs_res'
p6
(dp7
S'bellwether'
p8
(lp9
cnumpy.core.multiarray
scalar
p10
(cnumpy
dtype
p11
(S'f8'
p12
I0
I1
tp13
Rp14
(I3
S'<'
p15
NNNI-1
I-1
I0
tp16
bS'\xfa,\xcf\x83\xbb/t@'
p17
tp18
Rp19
ag10
(g14
S'\xf2\xb9\xda\x8a=&t@'
p20
tp21
Rp22
ag10
(g14
S'\xbefQ\xc5\xba$t@'
p23
tp24
Rp25
ag10
(g14
S"W\xe3\xa5\x9b\x84't@"
p26
tp27
Rp28
ag10
(g14
S'\xcd\xacv:}*t@'
p29
tp30
Rp31
ag10
(g14
S'Z\x8f\xdf\xdb\xb4/t@'
p32
tp33
Rp34
ag10
(g14
S'\x00m\x98\x8e\xe6\x1dt@'
p35
tp36
Rp37
ag10
(g14
S'@\xd4\x1e\t\xce#t@'
p38
tp39
Rp40
ag10
(g14
S'sJf\xe2\x83$t@'
p41
tp42
Rp43
ag10
(g14
S'\x9dE\xb6\xf3}\x1dt@'
p44
tp45
Rp46
ag10
(g14
S'\xdf\x92\xe3Ni/t@'
p47
tp48
Rp49
ag10
(g14
S'l}\xf0\xc7Z,t@'
p50
tp51
Rp52
ag10
(g14
S'<\xd2\x94\x8a\xb3&t@'
p53
tp54
Rp55
ag10
(g14
S'\x16g\x1f>\xc3$t@'
p56
tp57
Rp58
ag10
(g14
S'\xba\x0e\x9c3"\x1ct@'
p59
tp60
Rp61
ag10
(g14
S'!\x88\xba\x0f\x00 t@'
p62
tp63
Rp64
ag10
(g14
S'\x02\xfe\xb7\x92\xdd%t@'
p65
tp66
Rp67
ag10
(g14
S'4\xb5l\xad/"t@'
p68
tp69
Rp70
ag10
(g14
S'\x92\x14\x91aU%t@'
p71
tp72
Rp73
ag10
(g14
S'p\x0b\x83\x1f\x02&t@'
p74
tp75
Rp76
asS'target'
p77
(lp78
g10
(g14
S"}\x1f\x0c<\xf7F'@"
p79
tp80
Rp81
ag10
(g14
S'<\xbb\x96\x90\x0f:*@'
p82
tp83
Rp84
ag10
(g14
S'P\xc6K7\x891)@'
p85
tp86
Rp87
ag10
(g14
S'Q}:\x1e3P+@'
p88
tp89
Rp90
ag10
(g14
S'A\xacQ\x0f\xd1\xc0*@'
p91
tp92
Rp93
ag10
(g14
S'l\x7fH\xbf}e-@'
p94
tp95
Rp96
ag10
(g14
S'&\xc5\xe1\xcc\xaf6,@'
p97
tp98
Rp99
ag10
(g14
S'J\x86\xe1#bZ)@'
p100
tp101
Rp102
ag10
(g14
S"D\x0e\xd6\xff9\\'@"
p103
tp104
Rp105
ag10
(g14
S';\xdf\xdb\xf4g_+@'
p106
tp107
Rp108
ag10
(g14
S'\xd6:6\x02\xf1\xca)@'
p109
tp110
Rp111
ag10
(g14
S'\x9bF\xe6\x91?P)@'
p112
tp113
Rp114
ag10
(g14
S'\xf2\xf8I\xb5O\xa7)@'
p115
tp116
Rp117
ag10
(g14
S'[\x16\x9f\x02`\x94)@'
p118
tp119
Rp120
ag10
(g14
S'\xb5\xdb\xba\x9b\xa7\x92)@'
p121
tp122
Rp123
ag10
(g14
S'R\xa1b\x9c\xbfi,@'
p124
tp125
Rp126
ag10
(g14
S',\x02}"O\xca)@'
p127
tp128
Rp129
ag10
(g14
S'\xc7H\xf42\x8au*@'
p130
tp131
Rp132
ag10
(g14
S'H\x18\xe7oB\xe1+@'
p133
tp134
Rp135
ag10
(g14
S'\xf2l\xe2\xe4~\xf7)@'
p136
tp137
Rp138
asssss.