(dp0
S'../Data/x264_12.csv'
p1
(dp2
S'../Data/x264_19.csv'
p3
(dp4
F0.25
(dp5
S'mmre'
p6
(dp7
S'bellwether'
p8
(lp9
cnumpy.core.multiarray
scalar
p10
(cnumpy
dtype
p11
(S'f8'
p12
I0
I1
tp13
Rp14
(I3
S'<'
p15
NNNI-1
I-1
I0
tp16
bS'\xf5\x88`\xa18RX@'
p17
tp18
Rp19
ag10
(g14
S'\xb6\xfd0\x0b\rOX@'
p20
tp21
Rp22
ag10
(g14
S'\xea)\xb8\x1b(RX@'
p23
tp24
Rp25
ag10
(g14
S'F\xff0\x99\xe8OX@'
p26
tp27
Rp28
ag10
(g14
S'_\x17\xc7\xeb\xd1OX@'
p29
tp30
Rp31
ag10
(g14
S'\xd0\xb9f\xb0PJX@'
p32
tp33
Rp34
ag10
(g14
S',\x9b\xf2\xd8\rOX@'
p35
tp36
Rp37
ag10
(g14
S'X\xcdM={RX@'
p38
tp39
Rp40
ag10
(g14
S'\xba\x1d\x07W\xd6NX@'
p41
tp42
Rp43
ag10
(g14
S'|\xa0A\xc3\xdeOX@'
p44
tp45
Rp46
ag10
(g14
S'\xba$X\xdb`IX@'
p47
tp48
Rp49
ag10
(g14
S'j\x0bt`WRX@'
p50
tp51
Rp52
ag10
(g14
S'e8E\xbe\xddOX@'
p53
tp54
Rp55
ag10
(g14
S'\x82DTHoOX@'
p56
tp57
Rp58
ag10
(g14
S'~\t\xad\xeePPX@'
p59
tp60
Rp61
ag10
(g14
S'\xe6xq:\xdbMX@'
p62
tp63
Rp64
ag10
(g14
S'\xaaa\x9e\x845OX@'
p65
tp66
Rp67
ag10
(g14
S'\xb6\xbcM\xad\x0bKX@'
p68
tp69
Rp70
ag10
(g14
S'\xf3\xaddv.PX@'
p71
tp72
Rp73
ag10
(g14
S'\x12\xe0\x1c\xf1\xd2HX@'
p74
tp75
Rp76
asS'target'
p77
(lp78
g10
(g14
S'\xf8\x1b\xe8Ck3Z@'
p79
tp80
Rp81
ag10
(g14
S'3\xba)\xfd.\xc6\\@'
p82
tp83
Rp84
ag10
(g14
S'\xf7\x7f\xad<\x88\xfe[@'
p85
tp86
Rp87
ag10
(g14
S'N\xdd\x9a5\x979[@'
p88
tp89
Rp90
ag10
(g14
S'\x84\x99\xd4\x9c\x16\xd1[@'
p91
tp92
Rp93
ag10
(g14
S'\x94\xe1\xa6\x0eE,_@'
p94
tp95
Rp96
ag10
(g14
S'd\xf2\xdc\xb3\x01\x0e]@'
p97
tp98
Rp99
ag10
(g14
S'\xb2\x9b<\xf7\x88\xef[@'
p100
tp101
Rp102
ag10
(g14
S'\x9ej\x94%w\x9e\\@'
p103
tp104
Rp105
ag10
(g14
S'JMgK7M\\@'
p106
tp107
Rp108
ag10
(g14
S'\xf0\xfb\xb8\x98\xbf\x84_@'
p109
tp110
Rp111
ag10
(g14
S"D\xad\x15\xefl'\\@"
p112
tp113
Rp114
ag10
(g14
S'y\xe8\xb9\x7f:\xf5[@'
p115
tp116
Rp117
ag10
(g14
S'\xfd\xf0E\xf8K\xb2]@'
p118
tp119
Rp120
ag10
(g14
S'\xa8\xbe\xa4M\x16L[@'
p121
tp122
Rp123
ag10
(g14
S'\x05\x95\xba\xc5lc^@'
p124
tp125
Rp126
ag10
(g14
S'=xX\xf4u\xaa[@'
p127
tp128
Rp129
ag10
(g14
S'\xa9\xf9Nl)\x15]@'
p130
tp131
Rp132
ag10
(g14
S'\xe9\xa9\x9dAV\x10[@'
p133
tp134
Rp135
ag10
(g14
S'*\xa8/\xd7\r-^@'
p136
tp137
Rp138
asssss.