(dp0
S'../Data/x264_18.csv'
p1
(dp2
S'../Data/x264_19.csv'
p3
(dp4
F0.4
(dp5
S'mmre'
p6
(dp7
S'bellwether'
p8
(lp9
cnumpy.core.multiarray
scalar
p10
(cnumpy
dtype
p11
(S'f8'
p12
I0
I1
tp13
Rp14
(I3
S'<'
p15
NNNI-1
I-1
I0
tp16
bS'\xed\x97\xc0\xf3\xeeFX@'
p17
tp18
Rp19
ag10
(g14
S'\x91\xb91PiNX@'
p20
tp21
Rp22
ag10
(g14
S'\xccqP\xe59GX@'
p23
tp24
Rp25
ag10
(g14
S'\xf8H!\xa7\x82EX@'
p26
tp27
Rp28
ag10
(g14
S'\x0c\x91\xfa\xa9\xa0NX@'
p29
tp30
Rp31
ag10
(g14
S'-\x8b\xd6\x10\x07IX@'
p32
tp33
Rp34
ag10
(g14
S'kF\xef\xbdTKX@'
p35
tp36
Rp37
ag10
(g14
S'\xb9J#\xa9\xe5JX@'
p38
tp39
Rp40
ag10
(g14
S'\xdd\xc8\x1d\x9aCHX@'
p41
tp42
Rp43
ag10
(g14
S'\xdb\xbcqb\x03OX@'
p44
tp45
Rp46
ag10
(g14
S'f %13CX@'
p47
tp48
Rp49
ag10
(g14
S'\x86]W;\xd3NX@'
p50
tp51
Rp52
ag10
(g14
S'\xf5gQm\x80PX@'
p53
tp54
Rp55
ag10
(g14
S'\xd1\xaa.\xb4\xe1SX@'
p56
tp57
Rp58
ag10
(g14
S')*\x10-TDX@'
p59
tp60
Rp61
ag10
(g14
S'\xd6\xe4j\x01\x17MX@'
p62
tp63
Rp64
ag10
(g14
S'\x7f\xc7\xc9,"@X@'
p65
tp66
Rp67
ag10
(g14
S'\xb5\xea\x0e=QEX@'
p68
tp69
Rp70
ag10
(g14
S'+\xb9\xa2\xe8\x8cKX@'
p71
tp72
Rp73
ag10
(g14
S'\tn\xe4C9IX@'
p74
tp75
Rp76
asS'target'
p77
(lp78
g10
(g14
S"=%\x18'\xda\xa3\\@"
p79
tp80
Rp81
ag10
(g14
S'\x17!,\x93\r?\\@'
p82
tp83
Rp84
ag10
(g14
S'0K\xd3O\x16*]@'
p85
tp86
Rp87
ag10
(g14
S'L]8o\xc0\xd7]@'
p88
tp89
Rp90
ag10
(g14
S'\xbe\xf4\xe7<\x13\x92[@'
p91
tp92
Rp93
ag10
(g14
S'HuC\x875\xd7\\@'
p94
tp95
Rp96
ag10
(g14
S'\xc0\x84\xccg\xf4+]@'
p97
tp98
Rp99
ag10
(g14
S'\xaa\xdb\x0c\xeaQ\x02]@'
p100
tp101
Rp102
ag10
(g14
S'\x18\xff]P\x0e\xc5^@'
p103
tp104
Rp105
ag10
(g14
S'\xac\x1ev\x97%\xd2Z@'
p106
tp107
Rp108
ag10
(g14
S'"a\x06\x8d\x16\xcf]@'
p109
tp110
Rp111
ag10
(g14
S'BZ\xca^\xab\xbe\\@'
p112
tp113
Rp114
ag10
(g14
S'\xd2i\xd8\xf1\xa0\x97Z@'
p115
tp116
Rp117
ag10
(g14
S'\xe9T[\xd5\xb9\x9d[@'
p118
tp119
Rp120
ag10
(g14
S'\xe7:\x1e\x9f\x85t_@'
p121
tp122
Rp123
ag10
(g14
S'"\xb692\xa6c[@'
p124
tp125
Rp126
ag10
(g14
S'A\xca\x9fVr\xf0_@'
p127
tp128
Rp129
ag10
(g14
S'\x1d\xb20\xd5\x99\xbf]@'
p130
tp131
Rp132
ag10
(g14
S'c\xff$\xf0\xd0\xab]@'
p133
tp134
Rp135
ag10
(g14
S'\xb9\x9e\x0bP}N]@'
p136
tp137
Rp138
asssss.