(dp0
S'../Data/x264_7.csv'
p1
(dp2
S'../Data/x264_19.csv'
p3
(dp4
F0.15
(dp5
S'mmre'
p6
(dp7
S'bellwether'
p8
(lp9
cnumpy.core.multiarray
scalar
p10
(cnumpy
dtype
p11
(S'f8'
p12
I0
I1
tp13
Rp14
(I3
S'<'
p15
NNNI-1
I-1
I0
tp16
bS'G\x80\xd8\xe8\xdcNW@'
p17
tp18
Rp19
ag10
(g14
S'\xd9L\x04\xa0\xfc_W@'
p20
tp21
Rp22
ag10
(g14
S'XN_WRTW@'
p23
tp24
Rp25
ag10
(g14
S'\xcbm\xfc\xea,FW@'
p26
tp27
Rp28
ag10
(g14
S'9T/\xdd\x19GW@'
p29
tp30
Rp31
ag10
(g14
S'\x9e<i\xb5\xecJW@'
p32
tp33
Rp34
ag10
(g14
S'\x8eBI\xe1\xf4VW@'
p35
tp36
Rp37
ag10
(g14
S'\xeeu\x93{\xd9MW@'
p38
tp39
Rp40
ag10
(g14
S'\x87\x8a\xe8\xb5\xdaVW@'
p41
tp42
Rp43
ag10
(g14
S'\xb1TSK.DW@'
p44
tp45
Rp46
ag10
(g14
S'\xd0\xb5\xeaS?MW@'
p47
tp48
Rp49
ag10
(g14
S'\x0f\x04\xe6\xe9\x95QW@'
p50
tp51
Rp52
ag10
(g14
S'_yX\xe5\x0e\\W@'
p53
tp54
Rp55
ag10
(g14
S'\x02\x95\x91\xd0\xe0LW@'
p56
tp57
Rp58
ag10
(g14
S'd\xbf\x0f\xe3rQW@'
p59
tp60
Rp61
ag10
(g14
S'\x9c\x07\xc0\x13\x0cSW@'
p62
tp63
Rp64
ag10
(g14
S'\xce\x95sK\xa5AW@'
p65
tp66
Rp67
ag10
(g14
S'v\xbaA\xee\xc3RW@'
p68
tp69
Rp70
ag10
(g14
S'D\\OPgIW@'
p71
tp72
Rp73
ag10
(g14
S'lI\x16Q\x8ePW@'
p74
tp75
Rp76
asS'target'
p77
(lp78
g10
(g14
S'\x93\xb8"\xb7|\xdf\\@'
p79
tp80
Rp81
ag10
(g14
S'L\xc0)\x99\xad\xbe[@'
p82
tp83
Rp84
ag10
(g14
S'\xd0\xfe\xb7\xe9\x02\xcf[@'
p85
tp86
Rp87
ag10
(g14
S'\x90\xfdU\x9b\x87L]@'
p88
tp89
Rp90
ag10
(g14
S'\xa8#\xe6\x0f\xf8\xd6]@'
p91
tp92
Rp93
ag10
(g14
S'}\xb5RF\xddE\\@'
p94
tp95
Rp96
ag10
(g14
S'f.!\x96\t\xd8\\@'
p97
tp98
Rp99
ag10
(g14
S'\x9e\xaap\xae\xa3G\\@'
p100
tp101
Rp102
ag10
(g14
S'^\x88k\xae\x83{\\@'
p103
tp104
Rp105
ag10
(g14
S'&\xac-6\x91Z^@'
p106
tp107
Rp108
ag10
(g14
S'\xf1\x9d-\xba.I]@'
p109
tp110
Rp111
ag10
(g14
S'\x91\xdfjO\x8f\x84\\@'
p112
tp113
Rp114
ag10
(g14
S'\x0e\x18\xb9*y\xe6Y@'
p115
tp116
Rp117
ag10
(g14
S'\xa3}\xf3\xe9%O]@'
p118
tp119
Rp120
ag10
(g14
S'\x8a\n!\x16\x1d\x07]@'
p121
tp122
Rp123
ag10
(g14
S'!\x9e\xa3\xebJ\xe6[@'
p124
tp125
Rp126
ag10
(g14
S'8\x0b\xe9\x0e?\x10]@'
p127
tp128
Rp129
ag10
(g14
S';_\xb0%\xa1\x98[@'
p130
tp131
Rp132
ag10
(g14
S'\x1a\xbf\xeb\xbb;\x80\\@'
p133
tp134
Rp135
ag10
(g14
S'\xfd\xfcJ+\x8dN]@'
p136
tp137
Rp138
asssss.