(dp0
S'../Data/x264_16.csv'
p1
(dp2
S'../Data/x264_17.csv'
p3
(dp4
F0.05
(dp5
S'mmre'
p6
(dp7
S'bellwether'
p8
(lp9
cnumpy.core.multiarray
scalar
p10
(cnumpy
dtype
p11
(S'f8'
p12
I0
I1
tp13
Rp14
(I3
S'<'
p15
NNNI-1
I-1
I0
tp16
bS'\xdef\x9d\x9a\xd9+Q@'
p17
tp18
Rp19
ag10
(g14
S',\t\x8as\xa6,Q@'
p20
tp21
Rp22
ag10
(g14
S'\x92\xe3,\xc6\xf7,Q@'
p23
tp24
Rp25
ag10
(g14
S'mvS\xe4\xa3*Q@'
p26
tp27
Rp28
ag10
(g14
S'\xc4?\xd8g%,Q@'
p29
tp30
Rp31
ag10
(g14
S'>d\x06\xfd2-Q@'
p32
tp33
Rp34
ag10
(g14
S'\xadt\xf1o\xba-Q@'
p35
tp36
Rp37
ag10
(g14
S'Z\x94\x16\xb0\xca,Q@'
p38
tp39
Rp40
ag10
(g14
S'\x18U#Lx,Q@'
p41
tp42
Rp43
ag10
(g14
S'\xd4\xf1\x81\xe5\xdd,Q@'
p44
tp45
Rp46
ag10
(g14
S'+~\xfeB\x03,Q@'
p47
tp48
Rp49
ag10
(g14
S'\xb74Pm>)Q@'
p50
tp51
Rp52
ag10
(g14
S'\xe0p\x8c\x840,Q@'
p53
tp54
Rp55
ag10
(g14
S'\xf1\xbdn\xa6\xb8+Q@'
p56
tp57
Rp58
ag10
(g14
S'~@\xa4\xb0\x92+Q@'
p59
tp60
Rp61
ag10
(g14
S'\x9fK\xe9o\x1f-Q@'
p62
tp63
Rp64
ag10
(g14
S'I\x80\x88\x05\\+Q@'
p65
tp66
Rp67
ag10
(g14
S'\xf1\xc9\xb3T\x9a,Q@'
p68
tp69
Rp70
ag10
(g14
S'}\xcd\xcb\xc1\x12+Q@'
p71
tp72
Rp73
ag10
(g14
S'V7\xa8\xc9\xea)Q@'
p74
tp75
Rp76
asS'target'
p77
(lp78
g10
(g14
S'\r\xe9\x00\x12\xd2\xee @'
p79
tp80
Rp81
ag10
(g14
S'E\x1f\x97:\t\xc8"@'
p82
tp83
Rp84
ag10
(g14
S'!\xf3{r!\xf5!@'
p85
tp86
Rp87
ag10
(g14
S'I\xb6?\xae\x0b\xc4&@'
p88
tp89
Rp90
ag10
(g14
S'M\xfb\xbf\x04\x1c\xad!@'
p91
tp92
Rp93
ag10
(g14
S'\x00Kn\x83\x17\xfe!@'
p94
tp95
Rp96
ag10
(g14
S'\xe3w\xd2:F\xbd"@'
p97
tp98
Rp99
ag10
(g14
S'\x16j\xdb\x88\xed\xd2!@'
p100
tp101
Rp102
ag10
(g14
S'\xb7ES\xf4\x05\xd8"@'
p103
tp104
Rp105
ag10
(g14
S'}\xa8Ds\x8a\x13!@'
p106
tp107
Rp108
ag10
(g14
S'|\xc4\xa5me\xc9#@'
p109
tp110
Rp111
ag10
(g14
S'C\xf64\xc8bb!@'
p112
tp113
Rp114
ag10
(g14
S'\x86\xd3\xad@\xe0\xc0 @'
p115
tp116
Rp117
ag10
(g14
S'j\xf4\xf7H>|"@'
p118
tp119
Rp120
ag10
(g14
S'\xc2\xad(\xe6K\xe9!@'
p121
tp122
Rp123
ag10
(g14
S'\xea\xf9;7\x9a_!@'
p124
tp125
Rp126
ag10
(g14
S'[\xc2\xac\xe6\xdeY!@'
p127
tp128
Rp129
ag10
(g14
S'\xc5\x82\xf7\x96\x0b\xbd#@'
p130
tp131
Rp132
ag10
(g14
S'\x1b#\x19g\x0f\x8c"@'
p133
tp134
Rp135
ag10
(g14
S"\xd6\n0'\x81\xe1!@"
p136
tp137
Rp138
asssss.