(dp0
S'../Data/x264_15.csv'
p1
(dp2
S'../Data/x264_16.csv'
p3
(dp4
F0.4
(dp5
S'mmre'
p6
(dp7
S'bellwether'
p8
(lp9
cnumpy.core.multiarray
scalar
p10
(cnumpy
dtype
p11
(S'f8'
p12
I0
I1
tp13
Rp14
(I3
S'<'
p15
NNNI-1
I-1
I0
tp16
bS':\xda\xde1;]W@'
p17
tp18
Rp19
ag10
(g14
S'\xbc\xaf\x11\xd9pYW@'
p20
tp21
Rp22
ag10
(g14
S'\\\x9b\x0f$QUW@'
p23
tp24
Rp25
ag10
(g14
S'F\xfb`\xb8qhW@'
p26
tp27
Rp28
ag10
(g14
S'\xfd\xc2\x133\x9aaW@'
p29
tp30
Rp31
ag10
(g14
S'[z\x11\xbe\xf4kW@'
p32
tp33
Rp34
ag10
(g14
S':\xc9D\x04_hW@'
p35
tp36
Rp37
ag10
(g14
S'\xa4\x0e-\xcb\xa2fW@'
p38
tp39
Rp40
ag10
(g14
S'\xe2\xd4/8\x88\\W@'
p41
tp42
Rp43
ag10
(g14
S',\x06\xe4\xaaB`W@'
p44
tp45
Rp46
ag10
(g14
S's\xd9\r\x9a{_W@'
p47
tp48
Rp49
ag10
(g14
S'\xb1\xa6%Q\xb0fW@'
p50
tp51
Rp52
ag10
(g14
S'\xb8\x0b5b[[W@'
p53
tp54
Rp55
ag10
(g14
S'vs\xb88ZfW@'
p56
tp57
Rp58
ag10
(g14
S'\x8b\x16\xdco dW@'
p59
tp60
Rp61
ag10
(g14
S'&!D\x8bAnW@'
p62
tp63
Rp64
ag10
(g14
S'\xc4\xe1}GyWW@'
p65
tp66
Rp67
ag10
(g14
S'\r<\xa1B\xb7gW@'
p68
tp69
Rp70
ag10
(g14
S'\xa1\xa0\xc3\xc7d\\W@'
p71
tp72
Rp73
ag10
(g14
S"\xc2\x02\xb5'dcW@"
p74
tp75
Rp76
asS'target'
p77
(lp78
g10
(g14
S'\\DJ\x89\xdd\x9d(@'
p79
tp80
Rp81
ag10
(g14
S'k\xeb\xc9>0\x0b)@'
p82
tp83
Rp84
ag10
(g14
S"\xba4\x85L\xde\xd9'@"
p85
tp86
Rp87
ag10
(g14
S'\xebU^\x81pM)@'
p88
tp89
Rp90
ag10
(g14
S"\xe6\xbc\xea\x80\xa7\xf2'@"
p91
tp92
Rp93
ag10
(g14
S'E\rc\xe2\x99\xae)@'
p94
tp95
Rp96
ag10
(g14
S'\x10inr\x9fi(@'
p97
tp98
Rp99
ag10
(g14
S'\xa1\xba3\xcd\xddh(@'
p100
tp101
Rp102
ag10
(g14
S"W\x96\xfd\xea\x8a''@"
p103
tp104
Rp105
ag10
(g14
S'P2\xaf\x15\x08\x91(@'
p106
tp107
Rp108
ag10
(g14
S'LPf\xc6\xaby(@'
p109
tp110
Rp111
ag10
(g14
S'\x82\xd1\x8b1\xfa[(@'
p112
tp113
Rp114
ag10
(g14
S'\xab\x15\xf1\xe2\xc4\xc8)@'
p115
tp116
Rp117
ag10
(g14
S" `R\xb1\xc3\xc7'@"
p118
tp119
Rp120
ag10
(g14
S'7\x1a\xd4\xda\x90\x1d)@'
p121
tp122
Rp123
ag10
(g14
S'\x8fr\xc5\xf8\x17\xc1(@'
p124
tp125
Rp126
ag10
(g14
S"\x96\x00@)\xe8\x19'@"
p127
tp128
Rp129
ag10
(g14
S"\xc1!\x87?\xf5\xa6'@"
p130
tp131
Rp132
ag10
(g14
S'\xc5\xce\xe1|\xbbA(@'
p133
tp134
Rp135
ag10
(g14
S"\xcf\x0b\x94p\xed\xc1'@"
p136
tp137
Rp138
asssss.