(dp0
S'../Data/x264_20.csv'
p1
(dp2
S'../Data/x264_1.csv'
p3
(dp4
F0.2
(dp5
S'abs_res'
p6
(dp7
S'bellwether'
p8
(lp9
cnumpy.core.multiarray
scalar
p10
(cnumpy
dtype
p11
(S'f8'
p12
I0
I1
tp13
Rp14
(I3
S'<'
p15
NNNI-1
I-1
I0
tp16
bS'\x9e\xa2#9\xf2m\tA'
p17
tp18
Rp19
ag10
(g14
S'W9\xb4H\xd0d\tA'
p20
tp21
Rp22
ag10
(g14
S'\x8b&\xc2\x06\xcfe\tA'
p23
tp24
Rp25
ag10
(g14
S',\\\x8fByl\tA'
p26
tp27
Rp28
ag10
(g14
S'8\xe8\xd9,\xfeX\tA'
p29
tp30
Rp31
ag10
(g14
S'Y[\xb1?\xa4q\tA'
p32
tp33
Rp34
ag10
(g14
S";\xbb'\x0f\xbfe\tA"
p35
tp36
Rp37
ag10
(g14
S'\xb7.n\xa3KY\tA'
p38
tp39
Rp40
ag10
(g14
S'\x12a\xc3\xd3tf\tA'
p41
tp42
Rp43
ag10
(g14
S'\x19\r\xe0-\xb6X\tA'
p44
tp45
Rp46
ag10
(g14
S'\xec\xe9\x952Lm\tA'
p47
tp48
Rp49
ag10
(g14
S'\x16\xe2X\x97\xcbZ\tA'
p50
tp51
Rp52
ag10
(g14
S'=\xf6\x97]\xc2_\tA'
p53
tp54
Rp55
ag10
(g14
S'\xb8\xa6y\xc7\xadk\tA'
p56
tp57
Rp58
ag10
(g14
S'\x7fc]\xdc.f\tA'
p59
tp60
Rp61
ag10
(g14
S'\x1a\x95\xd4\t\rc\tA'
p62
tp63
Rp64
ag10
(g14
S'b\x05\xa3\x92\x12_\tA'
p65
tp66
Rp67
ag10
(g14
S'\xa4\x80&\xc2\x1aZ\tA'
p68
tp69
Rp70
ag10
(g14
S'\x1fJ{\x03\x9c\\\tA'
p71
tp72
Rp73
ag10
(g14
S'\xe8q\x8a\x0e\xb1k\tA'
p74
tp75
Rp76
asS'target'
p77
(lp78
g10
(g14
S'z\xae\xb6b\x7f\xb1D@'
p79
tp80
Rp81
ag10
(g14
S'\xfc\xb2{\xf2\xb0\xa8D@'
p82
tp83
Rp84
ag10
(g14
S'x\xb6=T-\xc0D@'
p85
tp86
Rp87
ag10
(g14
S'\xd5\x9c\x11\xa5\xbd\x05G@'
p88
tp89
Rp90
ag10
(g14
S'\xe2q\x8a\x8e\xe4\xdaE@'
p91
tp92
Rp93
ag10
(g14
S'\x0e\xfb\xcb\xee\xc9\x13E@'
p94
tp95
Rp96
ag10
(g14
S'\xee\xf4JY\x86\xc8E@'
p97
tp98
Rp99
ag10
(g14
S"'\x92\xcb\x7fH_E@"
p100
tp101
Rp102
ag10
(g14
S'\xfe\xdd\x02\t\x8a\xdbE@'
p103
tp104
Rp105
ag10
(g14
S'\xd64\xef8E\xf7C@'
p106
tp107
Rp108
ag10
(g14
S'=\xdfO\x8d\x97\xe6D@'
p109
tp110
Rp111
ag10
(g14
S'\x9ep=\n\xd7wE@'
p112
tp113
Rp114
ag10
(g14
S'\xeeZB>\xe8\x99D@'
p115
tp116
Rp117
ag10
(g14
S',\xe6\xae%\xe4_D@'
p118
tp119
Rp120
ag10
(g14
S'XDio\xf0\x1dG@'
p121
tp122
Rp123
ag10
(g14
S'\x921w-!\xa7C@'
p124
tp125
Rp126
ag10
(g14
S':\xab>W[\xb9E@'
p127
tp128
Rp129
ag10
(g14
S'\xa7\x9d\xef\xa7\xc6\xabD@'
p130
tp131
Rp132
ag10
(g14
S'g\x1b\r\xe0-|E@'
p133
tp134
Rp135
ag10
(g14
S'\x9c$\xbc*=tE@'
p136
tp137
Rp138
asssss.