(dp0
S'../Data/x264_18.csv'
p1
(dp2
S'../Data/x264_19.csv'
p3
(dp4
F0.15
(dp5
S'mmre'
p6
(dp7
S'bellwether'
p8
(lp9
cnumpy.core.multiarray
scalar
p10
(cnumpy
dtype
p11
(S'f8'
p12
I0
I1
tp13
Rp14
(I3
S'<'
p15
NNNI-1
I-1
I0
tp16
bS'*\x01\x94\xf9\x10IX@'
p17
tp18
Rp19
ag10
(g14
S'\xa4\x81\xb0{\tMX@'
p20
tp21
Rp22
ag10
(g14
S'\xf6:\x00F\xadKX@'
p23
tp24
Rp25
ag10
(g14
S'\xc2\xff\x18\x0c\xa6FX@'
p26
tp27
Rp28
ag10
(g14
S'\xccL\xcf\xb4\xf6IX@'
p29
tp30
Rp31
ag10
(g14
S'\xf1\x99d\xf8xMX@'
p32
tp33
Rp34
ag10
(g14
S'\xc7\x99\x83\xe5\xf6KX@'
p35
tp36
Rp37
ag10
(g14
S'W\xe0\xf5\xd3=IX@'
p38
tp39
Rp40
ag10
(g14
S"\xfa'\xc4}\xacKX@"
p41
tp42
Rp43
ag10
(g14
S'm\xf9\x8c\xf3\x8bLX@'
p44
tp45
Rp46
ag10
(g14
S'\x82Q?\xda3GX@'
p47
tp48
Rp49
ag10
(g14
S'\xf8\x9e\x06?\xebIX@'
p50
tp51
Rp52
ag10
(g14
S'h\xd2\xe9\xe6\xe7HX@'
p53
tp54
Rp55
ag10
(g14
S'\xba[?\x87\x13IX@'
p56
tp57
Rp58
ag10
(g14
S'3\xd0_\xf2\xd3MX@'
p59
tp60
Rp61
ag10
(g14
S'{\x9a\xed\xb56KX@'
p62
tp63
Rp64
ag10
(g14
S'\xf4\xa6=\xb3rKX@'
p65
tp66
Rp67
ag10
(g14
S'c\xb2]\xd7\xceKX@'
p68
tp69
Rp70
ag10
(g14
S'\xb8ycS+OX@'
p71
tp72
Rp73
ag10
(g14
S'[\xcd\xa0\xa18KX@'
p74
tp75
Rp76
asS'target'
p77
(lp78
g10
(g14
S'\xe2\xab\xfe\x00\xb6\x0e^@'
p79
tp80
Rp81
ag10
(g14
S'\xfd\x913\xda\x0cS\\@'
p82
tp83
Rp84
ag10
(g14
S'\xf3\xe8%\xce&D]@'
p85
tp86
Rp87
ag10
(g14
S'\x9e\xbbh7\xe2\xd6]@'
p88
tp89
Rp90
ag10
(g14
S'\x8b\xa6\xf2~\xafy]@'
p91
tp92
Rp93
ag10
(g14
S'\xd1\xf3v!\xdf\x9a[@'
p94
tp95
Rp96
ag10
(g14
S"'\xad\x90}\x8fs]@"
p97
tp98
Rp99
ag10
(g14
S'YLp=\x84\x8c\\@'
p100
tp101
Rp102
ag10
(g14
S'\x1d\x83\x90}v\x18^@'
p103
tp104
Rp105
ag10
(g14
S'\x8a\tf+\xea+\\@'
p106
tp107
Rp108
ag10
(g14
S'\xd5\x15\xa2\xf9\xa4,^@'
p109
tp110
Rp111
ag10
(g14
S'\x85LE*\xc5\xa1]@'
p112
tp113
Rp114
ag10
(g14
S'\xb6#\x84n^`]@'
p115
tp116
Rp117
ag10
(g14
S'^*\x98Y\xf8N^@'
p118
tp119
Rp120
ag10
(g14
S'\xc8\xc0tj$2[@'
p121
tp122
Rp123
ag10
(g14
S'\xd4\x9d&\xfbX\xb3]@'
p124
tp125
Rp126
ag10
(g14
S'\x9eX2\xd5\x7fv\\@'
p127
tp128
Rp129
ag10
(g14
S'}{\xe0\xc7\xe8\xbe\\@'
p130
tp131
Rp132
ag10
(g14
S'12=\x07z\xd2[@'
p133
tp134
Rp135
ag10
(g14
S'\x06\xb3E\x08\x13M]@'
p136
tp137
Rp138
asssss.