(dp0
S'../Data/x264_3.csv'
p1
(dp2
S'../Data/x264_18.csv'
p3
(dp4
F0.1
(dp5
S'abs_res'
p6
(dp7
S'bellwether'
p8
(lp9
cnumpy.core.multiarray
scalar
p10
(cnumpy
dtype
p11
(S'f8'
p12
I0
I1
tp13
Rp14
(I3
S'<'
p15
NNNI-1
I-1
I0
tp16
bS'\x9b\x18\x04VNWu@'
p17
tp18
Rp19
ag10
(g14
S"47\xa6',au@"
p20
tp21
Rp22
ag10
(g14
S'\x8c\xd4\th"Pu@'
p23
tp24
Rp25
ag10
(g14
S'i->\x05\x00Tu@'
p26
tp27
Rp28
ag10
(g14
S'\xba.Q\xbd\xf5Tu@'
p29
tp30
Rp31
ag10
(g14
S'\xb5\xd3HK%[u@'
p32
tp33
Rp34
ag10
(g14
S'\x87\xa2@\x9f\x88Xu@'
p35
tp36
Rp37
ag10
(g14
S'\xcc%\xaa\xb7\x06Zu@'
p38
tp39
Rp40
ag10
(g14
S'\xc9\x02\x85goTu@'
p41
tp42
Rp43
ag10
(g14
S'pZ\xf0\xa2/`u@'
p44
tp45
Rp46
ag10
(g14
S'\xb1K\xb3f\x91Ru@'
p47
tp48
Rp49
ag10
(g14
S'\xd0":\xf1BWu@'
p50
tp51
Rp52
ag10
(g14
S'\xb7zNz_Ru@'
p53
tp54
Rp55
ag10
(g14
S'8&x0\xcf\\u@'
p56
tp57
Rp58
ag10
(g14
S'\x11\xa20\x15\xc8`u@'
p59
tp60
Rp61
ag10
(g14
S'\xeeQ\xfa/}\\u@'
p62
tp63
Rp64
ag10
(g14
S'\x08\x10\xcc\xd1\xa3Pu@'
p65
tp66
Rp67
ag10
(g14
S'"$\xac\xa0\xbc\\u@'
p68
tp69
Rp70
ag10
(g14
S'\xa8\xaf\xc1\xd5\xd4cu@'
p71
tp72
Rp73
ag10
(g14
S'\xa3i=i\x8eYu@'
p74
tp75
Rp76
asS'target'
p77
(lp78
g10
(g14
S'c?\x18x\xee\x850@'
p79
tp80
Rp81
ag10
(g14
S'\x82\xe5\\\x8a\xab*0@'
p82
tp83
Rp84
ag10
(g14
S'\xeaYd;\xdf\xd71@'
p85
tp86
Rp87
ag10
(g14
S'\xc1\xa8j\x82\xa8S1@'
p88
tp89
Rp90
ag10
(g14
S'XG\x1bG\xac\xb51@'
p91
tp92
Rp93
ag10
(g14
S'\xbf$\xe9\x9a\xc9\xc30@'
p94
tp95
Rp96
ag10
(g14
S'\xe2\xca\xd6\xfa"\xe1/@'
p97
tp98
Rp99
ag10
(g14
S'\x17\xcff\xd5\xe7"2@'
p100
tp101
Rp102
ag10
(g14
S'\xd9 Y\xc0\x04\x861@'
p103
tp104
Rp105
ag10
(g14
S'2\xa1\xd64\xef\xe80@'
p106
tp107
Rp108
ag10
(g14
S'\x0e\xc0!T\xa9)0@'
p109
tp110
Rp111
ag10
(g14
S'\x93\x8e6\x8eX3/@'
p112
tp113
Rp114
ag10
(g14
S'\x9e\xd7\x81sF\x040@'
p115
tp116
Rp117
ag10
(g14
S'\xc7yS\x91\nK0@'
p118
tp119
Rp120
ag10
(g14
S'\xd9\xf1A\xcffA0@'
p121
tp122
Rp123
ag10
(g14
S'P/L\xa6\n.1@'
p124
tp125
Rp126
ag10
(g14
S'\x8d\x01\xbc\x05\x12t5@'
p127
tp128
Rp129
ag10
(g14
S'\xe2\xbaa\xdb\xa2D2@'
p130
tp131
Rp132
ag10
(g14
S'/\xfa\xd0\x05\xf5e2@'
p133
tp134
Rp135
ag10
(g14
S'\xe5w\xee=\\\xf20@'
p136
tp137
Rp138
asssss.