(dp0
S'../Data/sac_6.csv'
p1
(dp2
S'../Data/sac_3.csv'
p3
(dp4
S'abs_res'
p5
(lp6
cnumpy.core.multiarray
scalar
p7
(cnumpy
dtype
p8
(S'f8'
p9
I0
I1
tp10
Rp11
(I3
S'<'
p12
NNNI-1
I-1
I0
tp13
bS'\xab\xe4\x17\x0b\xdc_*A'
p14
tp15
Rp16
ag7
(g11
S'F\xe1z\xd4\xc3`*A'
p17
tp18
Rp19
ag7
(g11
S'T\x8f\xc2\xf5TX*A'
p20
tp21
Rp22
asss.