(dp0
S'../Data/sac_6.csv'
p1
(dp2
S'../Data/sac_2.csv'
p3
(dp4
S'mmre'
p5
(lp6
cnumpy.core.multiarray
scalar
p7
(cnumpy
dtype
p8
(S'f8'
p9
I0
I1
tp10
Rp11
(I3
S'<'
p12
NNNI-1
I-1
I0
tp13
bS'\xda\t\xb8\x07\x87\x10\xbf@'
p14
tp15
Rp16
ag7
(g11
S'\x96\xf8x\xf1\xe5\r\xbf@'
p17
tp18
Rp19
ag7
(g11
S'\xa4\xf8\xd1\xe3_\x0e\xbf@'
p20
tp21
Rp22
asss.