(dp0
S'../Data/sac_8.csv'
p1
(dp2
S'../Data/sac_4.csv'
p3
(dp4
S'mmre'
p5
(lp6
cnumpy.core.multiarray
scalar
p7
(cnumpy
dtype
p8
(S'f8'
p9
I0
I1
tp10
Rp11
(I3
S'<'
p12
NNNI-1
I-1
I0
tp13
bS'\xa4\xc6\x8fji\xb5\xca@'
p14
tp15
Rp16
ag7
(g11
S'1\xc3\xf4\xb2;\xa0\xca@'
p17
tp18
Rp19
ag7
(g11
S'\xb3f\xc7S\x81\xa0\xca@'
p20
tp21
Rp22
asss.