(dp0
S'../Data/sac_4.csv'
p1
(dp2
S'../Data/sac_0.csv'
p3
(dp4
S'abs_res'
p5
(lp6
cnumpy.core.multiarray
scalar
p7
(cnumpy
dtype
p8
(S'f8'
p9
I0
I1
tp10
Rp11
(I3
S'<'
p12
NNNI-1
I-1
I0
tp13
bS'7fff\x8f\x04\x0eA'
p14
tp15
Rp16
ag7
(g11
S'\xa4\xb7\x1e\x85\xbc\x07\x0eA'
p17
tp18
Rp19
ag7
(g11
S'e\x99\x99\x99{\n\x0eA'
p20
tp21
Rp22
asss.