(dp0
S'../Data/sac_9.csv'
p1
(dp2
S'../Data/sac_4.csv'
p3
(dp4
S'mmre'
p5
(lp6
cnumpy.core.multiarray
scalar
p7
(cnumpy
dtype
p8
(S'f8'
p9
I0
I1
tp10
Rp11
(I3
S'<'
p12
NNNI-1
I-1
I0
tp13
bS'\x1a\x9f{a\x90\xa5\xd2@'
p14
tp15
Rp16
ag7
(g11
S'\xda\xba^\x8d%\xc8\xd2@'
p17
tp18
Rp19
ag7
(g11
S'\x8c\x92\xb2\xcf\xf9\xa8\xd2@'
p20
tp21
Rp22
asss.