(dp0
S'../Data/sac_5.csv'
p1
(dp2
S'../Data/sac_4.csv'
p3
(dp4
S'mmre'
p5
(lp6
cnumpy.core.multiarray
scalar
p7
(cnumpy
dtype
p8
(S'f8'
p9
I0
I1
tp10
Rp11
(I3
S'<'
p12
NNNI-1
I-1
I0
tp13
bS'\x04(\xe6\x1b_\xa0\xd2@'
p14
tp15
Rp16
ag7
(g11
S'\xcb\x13\xec_\x8a\xa7\xd2@'
p17
tp18
Rp19
ag7
(g11
S'\xee\xff\xc4\x8c\x91\x9b\xd2@'
p20
tp21
Rp22
asss.