(dp0
S'../Data/sac_7.csv'
p1
(dp2
S'../Data/sac_1.csv'
p3
(dp4
S'abs_res'
p5
(lp6
cnumpy.core.multiarray
scalar
p7
(cnumpy
dtype
p8
(S'f8'
p9
I0
I1
tp10
Rp11
(I3
S'<'
p12
NNNI-1
I-1
I0
tp13
bS'\xd4\\\x8f\xe6qNdA'
p14
tp15
Rp16
ag7
(g11
S'\x93\x18KH\xd7@dA'
p17
tp18
Rp19
ag7
(g11
S'R0\x96\xb02GdA'
p20
tp21
Rp22
asss.