(dp0
S'../Data/sac_6.csv'
p1
(dp2
S'../Data/sac_3.csv'
p3
(dp4
S'mmre'
p5
(lp6
cnumpy.core.multiarray
scalar
p7
(cnumpy
dtype
p8
(S'f8'
p9
I0
I1
tp10
Rp11
(I3
S'<'
p12
NNNI-1
I-1
I0
tp13
bS'd\x00\xb6-\xdf\x87\xa3@'
p14
tp15
Rp16
ag7
(g11
S'\x98\xf9P\xff\xc5\x8b\xa3@'
p17
tp18
Rp19
ag7
(g11
S'\xf3d\xa0\xe9=\x8a\xa3@'
p20
tp21
Rp22
asss.