(dp0
S'../Data/sac_6.csv'
p1
(dp2
S'../Data/sac_0.csv'
p3
(dp4
S'mmre'
p5
(lp6
cnumpy.core.multiarray
scalar
p7
(cnumpy
dtype
p8
(S'f8'
p9
I0
I1
tp10
Rp11
(I3
S'<'
p12
NNNI-1
I-1
I0
tp13
bS'\x12\x82\xec\xb7\x94\x9c\xd0@'
p14
tp15
Rp16
ag7
(g11
S'I\xf7\xdb\x84\xa5\xa1\xd0@'
p17
tp18
Rp19
ag7
(g11
S'\x9d\x1c\x08\x05\x81\xa3\xd0@'
p20
tp21
Rp22
asss.