(dp0
S'../Data/sqlite_17.csv'
p1
(dp2
S'../Data/sqlite_92.csv'
p3
(dp4
S'mmre'
p5
(lp6
cnumpy.core.multiarray
scalar
p7
(cnumpy
dtype
p8
(S'f8'
p9
I0
I1
tp10
Rp11
(I3
S'<'
p12
NNNI-1
I-1
I0
tp13
bS'N]\x03\x8b\x81\x80b@'
p14
tp15
Rp16
ag7
(g11
S'N]\x03\x8b\x81\x80b@'
p17
tp18
Rp19
ag7
(g11
S'N]\x03\x8b\x81\x80b@'
p20
tp21
Rp22
asss.