(dp0
S'../Data/sqlite_15.csv'
p1
(dp2
S'../Data/sqlite_13.csv'
p3
(dp4
S'abs_res'
p5
(lp6
cnumpy.core.multiarray
scalar
p7
(cnumpy
dtype
p8
(S'f8'
p9
I0
I1
tp10
Rp11
(I3
S'<'
p12
NNNI-1
I-1
I0
tp13
bS'\xd4x\xe9\x96\xcf\x95BA'
p14
tp15
Rp16
ag7
(g11
S'\xd4x\xe9\x96\xcf\x95BA'
p17
tp18
Rp19
ag7
(g11
S'\xd4x\xe9\x96\xcf\x95BA'
p20
tp21
Rp22
asss.