(dp0
S'../Data/sqlite_69.csv'
p1
(dp2
S'../Data/sqlite_7.csv'
p3
(dp4
S'mmre'
p5
(lp6
cnumpy.core.multiarray
scalar
p7
(cnumpy
dtype
p8
(S'f8'
p9
I0
I1
tp10
Rp11
(I3
S'<'
p12
NNNI-1
I-1
I0
tp13
bS'\xfe\x0co\xf6\x81\xbb\x81@'
p14
tp15
Rp16
ag7
(g11
S'\xfe\x0co\xf6\x81\xbb\x81@'
p17
tp18
Rp19
ag7
(g11
S'\xfe\x0co\xf6\x81\xbb\x81@'
p20
tp21
Rp22
asss.