(dp0
S'../Data/sqlite_70.csv'
p1
(dp2
S'../Data/sqlite_82.csv'
p3
(dp4
S'mmre'
p5
(lp6
cnumpy.core.multiarray
scalar
p7
(cnumpy
dtype
p8
(S'f8'
p9
I0
I1
tp10
Rp11
(I3
S'<'
p12
NNNI-1
I-1
I0
tp13
bS'\xde\xa9\xba\xa9\x9e\xfbR@'
p14
tp15
Rp16
ag7
(g11
S'\xde\xa9\xba\xa9\x9e\xfbR@'
p17
tp18
Rp19
ag7
(g11
S'\xde\xa9\xba\xa9\x9e\xfbR@'
p20
tp21
Rp22
asss.