(dp0
S'../Data/sqlite_85.csv'
p1
(dp2
S'../Data/sqlite_10.csv'
p3
(dp4
S'mmre'
p5
(lp6
cnumpy.core.multiarray
scalar
p7
(cnumpy
dtype
p8
(S'f8'
p9
I0
I1
tp10
Rp11
(I3
S'<'
p12
NNNI-1
I-1
I0
tp13
bS'\xfd\x86\xfc\x8d\x8d\xb7\x97@'
p14
tp15
Rp16
ag7
(g11
S'\xfd\x86\xfc\x8d\x8d\xb7\x97@'
p17
tp18
Rp19
ag7
(g11
S'\xfd\x86\xfc\x8d\x8d\xb7\x97@'
p20
tp21
Rp22
asss.