(lp0
I1023
aI477
aI1592
aI792
aI1593
aI643
aI383
aI492
aI566
aI1282
aI1691
aI1379
aI265
aI610
aI1408
aI1520
aI426
aI1822
aI817
aI410
aI1367
aI1804
aI496
aI548
aI1056
aI1323
aI1489
aI1739
aI1482
aI1604
a.