(lp0
I1312
aI1773
aI1405
aI1645
aI1294
aI1503
aI438
aI1666
aI1864
aI342
aI1044
aI1492
aI722
aI1764
aI1459
aI651
aI1542
aI1643
aI617
aI762
aI1450
aI210
aI1813
aI952
aI1177
aI505
aI991
aI218
aI1309
aI1384
a.