(dp0
S'sac'
p1
(dp2
S'./BWLocker/sac/sac_4'
p3
(dp4
S'60'
p5
(dp6
S'11'
p7
(lp8
I5
aI5
aI5
aI5
aI5
aI0
aI0
aI0
aI5
aI5
aI5
aI5
aI5
aI5
aI5
aI5
aI4
aI5
aI5
aI5
aI1
aI3
aI4
aI4
aI8
aI9
aI3
aI1
aI0
aI0
asS'10'
p9
(lp10
I5
aI5
aI5
aI5
aI5
aI0
aI0
aI0
aI5
aI5
aI5
aI5
aI5
aI5
aI5
aI5
aI4
aI5
aI5
aI5
aI1
aI4
aI3
aI4
aI8
aI9
aI3
aI1
aI0
aI0
asS'13'
p11
(lp12
I5
aI5
aI5
aI5
aI5
aI0
aI0
aI0
aI5
aI5
aI5
aI5
aI5
aI5
aI5
aI5
aI4
aI5
aI5
aI5
aI1
aI4
aI4
aI0
aI0
aI1
aI1
aI1
aI2
aI2
asS'12'
p13
(lp14
I5
aI5
aI5
aI5
aI5
aI0
aI0
aI0
aI5
aI5
aI5
aI5
aI5
aI5
aI5
aI5
aI4
aI5
aI5
aI5
aI1
aI3
aI4
aI4
aI8
aI9
aI3
aI1
aI3
aI0
asS'15'
p15
(lp16
I5
aI5
aI5
aI5
aI5
aI0
aI0
aI0
aI5
aI5
aI5
aI5
aI5
aI5
aI5
aI5
aI4
aI5
aI5
aI5
aI1
aI4
aI8
aI3
aI3
aI9
aI4
aI1
aI0
aI0
asS'14'
p17
(lp18
I5
aI5
aI5
aI5
aI5
aI0
aI0
aI0
aI5
aI5
aI5
aI5
aI5
aI5
aI5
aI5
aI4
aI5
aI5
aI5
aI1
aI4
aI3
aI4
aI7
aI8
aI3
aI9
aI1
aI3
asS'17'
p19
(lp20
I5
aI5
aI5
aI5
aI5
aI0
aI0
aI0
aI5
aI5
aI5
aI5
aI5
aI5
aI5
aI5
aI4
aI5
aI5
aI5
aI1
aI4
aI3
aI4
aI7
aI8
aI3
aI4
aI3
aI9
asS'16'
p21
(lp22
I5
aI5
aI5
aI5
aI5
aI0
aI0
aI0
aI5
aI5
aI5
aI5
aI5
aI5
aI5
aI5
aI4
aI5
aI5
aI5
aI1
aI4
aI3
aI8
aI4
aI3
aI1
aI0
aI0
aI1
asS'19'
p23
(lp24
I5
aI5
aI5
aI5
aI5
aI0
aI0
aI0
aI5
aI5
aI5
aI5
aI5
aI5
aI5
aI5
aI4
aI5
aI5
aI5
aI1
aI4
aI3
aI4
aI7
aI8
aI9
aI3
aI1
aI3
asS'18'
p25
(lp26
I5
aI5
aI5
aI5
aI5
aI0
aI0
aI0
aI5
aI5
aI5
aI5
aI5
aI5
aI5
aI5
aI4
aI5
aI5
aI5
aI1
aI4
aI4
aI0
aI0
aI1
aI1
aI1
aI2
aI2
asS'1'
p27
(lp28
I5
aI5
aI5
aI5
aI5
aI0
aI0
aI0
aI5
aI5
aI5
aI5
aI5
aI5
aI5
aI5
aI4
aI5
aI5
aI5
aI1
aI4
aI4
aI0
aI0
aI1
aI1
aI1
aI2
aI2
asS'0'
p29
(lp30
I5
aI5
aI5
aI5
aI5
aI0
aI0
aI0
aI5
aI5
aI5
aI5
aI5
aI5
aI5
aI5
aI4
aI5
aI5
aI5
aI1
aI3
aI4
aI4
aI8
aI7
aI9
aI9
aI3
aI1
asS'3'
p31
(lp32
I5
aI5
aI5
aI5
aI5
aI0
aI0
aI0
aI5
aI5
aI5
aI5
aI5
aI5
aI5
aI5
aI4
aI5
aI5
aI5
aI1
aI4
aI3
aI8
aI9
aI9
aI4
aI3
aI1
aI3
asS'2'
p33
(lp34
I5
aI5
aI5
aI5
aI5
aI0
aI0
aI0
aI5
aI5
aI5
aI5
aI5
aI5
aI5
aI5
aI4
aI5
aI5
aI5
aI1
aI4
aI3
aI4
aI7
aI8
aI8
aI3
aI1
aI3
asS'5'
p35
(lp36
I5
aI5
aI5
aI5
aI5
aI0
aI0
aI0
aI5
aI5
aI5
aI5
aI5
aI5
aI5
aI5
aI4
aI5
aI5
aI5
aI1
aI4
aI4
aI0
aI0
aI1
aI1
aI1
aI2
aI2
asS'4'
p37
(lp38
I5
aI5
aI5
aI5
aI5
aI0
aI0
aI0
aI5
aI5
aI5
aI5
aI5
aI5
aI5
aI5
aI4
aI5
aI5
aI5
aI1
aI4
aI4
aI0
aI0
aI1
aI1
aI1
aI2
aI2
asS'7'
p39
(lp40
I5
aI5
aI5
aI5
aI5
aI0
aI0
aI0
aI5
aI5
aI5
aI5
aI5
aI5
aI5
aI5
aI4
aI5
aI5
aI5
aI1
aI4
aI4
aI0
aI0
aI1
aI1
aI1
aI2
aI2
asS'6'
p41
(lp42
I5
aI5
aI5
aI5
aI5
aI0
aI0
aI0
aI5
aI5
aI5
aI5
aI5
aI5
aI5
aI5
aI4
aI5
aI5
aI5
aI1
aI3
aI4
aI4
aI8
aI3
aI9
aI1
aI0
aI0
asS'9'
p43
(lp44
I5
aI5
aI5
aI5
aI5
aI0
aI0
aI0
aI5
aI5
aI5
aI5
aI5
aI5
aI5
aI5
aI4
aI5
aI5
aI5
aI1
aI4
aI3
aI4
aI8
aI3
aI9
aI1
aI3
aI0
asS'8'
p45
(lp46
I5
aI5
aI5
aI5
aI5
aI0
aI0
aI0
aI5
aI5
aI5
aI5
aI5
aI5
aI5
aI5
aI4
aI5
aI5
aI5
aI1
aI4
aI4
aI0
aI0
aI1
aI1
aI1
aI2
aI2
assS'30'
p47
(dp48
S'11'
p49
(lp50
I5
aI5
aI5
aI5
aI5
aI0
aI0
aI0
aI5
aI5
aI5
aI5
aI5
aI5
aI5
aI5
aI4
aI5
aI5
aI5
aI1
aI4
aI3
aI4
aI7
aI8
aI3
aI9
aI1
aI3
asS'10'
p51
(lp52
I5
aI5
aI5
aI5
aI5
aI0
aI0
aI0
aI5
aI5
aI5
aI5
aI5
aI5
aI5
aI5
aI4
aI5
aI5
aI5
aI1
aI4
aI4
aI0
aI0
aI1
aI1
aI1
aI2
aI2
asS'13'
p53
(lp54
I5
aI5
aI5
aI5
aI5
aI0
aI0
aI0
aI5
aI5
aI5
aI5
aI5
aI5
aI5
aI5
aI4
aI5
aI5
aI5
aI1
aI3
aI4
aI8
aI3
aI9
aI4
aI1
aI0
aI0
asS'12'
p55
(lp56
I5
aI5
aI5
aI5
aI5
aI0
aI0
aI0
aI5
aI5
aI5
aI5
aI5
aI5
aI5
aI5
aI4
aI5
aI5
aI5
aI1
aI3
aI4
aI4
aI8
aI3
aI1
aI0
aI0
aI1
asS'15'
p57
(lp58
I5
aI5
aI5
aI5
aI5
aI0
aI0
aI0
aI5
aI5
aI5
aI5
aI5
aI5
aI5
aI5
aI4
aI5
aI5
aI5
aI1
aI4
aI3
aI4
aI7
aI8
aI3
aI4
aI9
aI1
asS'14'
p59
(lp60
I5
aI5
aI5
aI5
aI5
aI0
aI0
aI0
aI5
aI5
aI5
aI5
aI5
aI5
aI5
aI5
aI4
aI5
aI5
aI5
aI1
aI3
aI4
aI4
aI8
aI7
aI9
aI3
aI9
aI1
asS'17'
p61
(lp62
I5
aI5
aI5
aI5
aI5
aI0
aI0
aI0
aI5
aI5
aI5
aI5
aI5
aI5
aI5
aI5
aI4
aI5
aI5
aI5
aI1
aI4
aI3
aI4
aI7
aI8
aI9
aI9
aI3
aI1
asS'16'
p63
(lp64
I5
aI5
aI5
aI5
aI5
aI0
aI0
aI0
aI5
aI5
aI5
aI5
aI5
aI5
aI5
aI5
aI4
aI5
aI5
aI5
aI1
aI3
aI4
aI4
aI8
aI9
aI3
aI1
aI0
aI0
asS'19'
p65
(lp66
I5
aI5
aI5
aI5
aI5
aI0
aI0
aI0
aI5
aI5
aI5
aI5
aI5
aI5
aI5
aI5
aI4
aI5
aI5
aI5
aI1
aI4
aI4
aI0
aI0
aI1
aI1
aI1
aI2
aI2
asS'18'
p67
(lp68
I5
aI5
aI5
aI5
aI5
aI0
aI0
aI0
aI5
aI5
aI5
aI5
aI5
aI5
aI5
aI5
aI4
aI5
aI5
aI5
aI1
aI3
aI4
aI7
aI8
aI9
aI4
aI9
aI3
aI1
asg27
(lp69
I5
aI5
aI5
aI5
aI5
aI0
aI0
aI0
aI5
aI5
aI5
aI5
aI5
aI5
aI5
aI5
aI4
aI5
aI5
aI5
aI1
aI3
aI4
aI4
aI8
aI3
aI9
aI1
aI0
aI0
asg29
(lp70
I5
aI5
aI5
aI5
aI5
aI0
aI0
aI0
aI5
aI5
aI5
aI5
aI5
aI5
aI5
aI5
aI4
aI5
aI5
aI5
aI1
aI4
aI4
aI0
aI0
aI1
aI1
aI1
aI2
aI2
asg31
(lp71
I5
aI5
aI5
aI5
aI5
aI0
aI0
aI0
aI5
aI5
aI5
aI5
aI5
aI5
aI5
aI5
aI4
aI5
aI5
aI5
aI1
aI3
aI4
aI8
aI3
aI9
aI4
aI9
aI1
aI0
asg33
(lp72
I5
aI5
aI5
aI5
aI5
aI0
aI0
aI0
aI5
aI5
aI5
aI5
aI5
aI5
aI5
aI5
aI4
aI5
aI5
aI5
aI1
aI4
aI4
aI0
aI0
aI1
aI1
aI1
aI2
aI2
asg35
(lp73
I5
aI5
aI5
aI5
aI5
aI0
aI0
aI0
aI5
aI5
aI5
aI5
aI5
aI5
aI5
aI5
aI4
aI5
aI5
aI5
aI1
aI3
aI4
aI8
aI4
aI3
aI9
aI1
aI9
aI0
asg37
(lp74
I5
aI5
aI5
aI5
aI5
aI0
aI0
aI0
aI5
aI5
aI5
aI5
aI5
aI5
aI5
aI5
aI4
aI5
aI5
aI5
aI1
aI4
aI4
aI0
aI0
aI1
aI1
aI1
aI2
aI2
asg39
(lp75
I5
aI5
aI5
aI5
aI5
aI0
aI0
aI0
aI5
aI5
aI5
aI5
aI5
aI5
aI5
aI5
aI4
aI5
aI5
aI5
aI1
aI4
aI4
aI0
aI0
aI1
aI1
aI1
aI2
aI2
asg41
(lp76
I5
aI5
aI5
aI5
aI5
aI0
aI0
aI0
aI5
aI5
aI5
aI5
aI5
aI5
aI5
aI5
aI4
aI5
aI5
aI5
aI1
aI3
aI4
aI4
aI7
aI8
aI9
aI3
aI1
aI3
asg43
(lp77
I5
aI5
aI5
aI5
aI5
aI0
aI0
aI0
aI5
aI5
aI5
aI5
aI5
aI5
aI5
aI5
aI4
aI5
aI5
aI5
aI1
aI4
aI8
aI3
aI9
aI3
aI3
aI1
aI0
aI0
asg45
(lp78
I5
aI5
aI5
aI5
aI5
aI0
aI0
aI0
aI5
aI5
aI5
aI5
aI5
aI5
aI5
aI5
aI4
aI5
aI5
aI5
aI1
aI4
aI4
aI0
aI0
aI1
aI1
aI1
aI2
aI2
assS'50'
p79
(dp80
S'11'
p81
(lp82
I5
aI5
aI5
aI5
aI5
aI0
aI0
aI0
aI5
aI5
aI5
aI5
aI5
aI5
aI5
aI5
aI4
aI5
aI5
aI5
aI1
aI4
aI4
aI0
aI0
aI1
aI1
aI1
aI2
aI2
asS'10'
p83
(lp84
I5
aI5
aI5
aI5
aI5
aI0
aI0
aI0
aI5
aI5
aI5
aI5
aI5
aI5
aI5
aI5
aI4
aI5
aI5
aI5
aI1
aI4
aI4
aI0
aI0
aI1
aI1
aI1
aI2
aI2
asS'13'
p85
(lp86
I5
aI5
aI5
aI5
aI5
aI0
aI0
aI0
aI5
aI5
aI5
aI5
aI5
aI5
aI5
aI5
aI4
aI5
aI5
aI5
aI1
aI3
aI4
aI8
aI9
aI3
aI9
aI3
aI4
aI1
asS'12'
p87
(lp88
I5
aI5
aI5
aI5
aI5
aI0
aI0
aI0
aI5
aI5
aI5
aI5
aI5
aI5
aI5
aI5
aI4
aI5
aI5
aI5
aI1
aI4
aI4
aI0
aI0
aI1
aI1
aI1
aI2
aI2
asS'15'
p89
(lp90
I5
aI5
aI5
aI5
aI5
aI0
aI0
aI0
aI5
aI5
aI5
aI5
aI5
aI5
aI5
aI5
aI4
aI5
aI5
aI5
aI1
aI4
aI4
aI0
aI0
aI1
aI1
aI1
aI2
aI2
asS'14'
p91
(lp92
I5
aI5
aI5
aI5
aI5
aI0
aI0
aI0
aI5
aI5
aI5
aI5
aI5
aI5
aI5
aI5
aI4
aI5
aI5
aI5
aI1
aI3
aI4
aI8
aI4
aI3
aI1
aI9
aI9
aI3
asS'17'
p93
(lp94
I5
aI5
aI5
aI5
aI5
aI0
aI0
aI0
aI5
aI5
aI5
aI5
aI5
aI5
aI5
aI5
aI4
aI5
aI5
aI5
aI1
aI4
aI4
aI0
aI0
aI1
aI1
aI1
aI2
aI2
asS'16'
p95
(lp96
I5
aI5
aI5
aI5
aI5
aI0
aI0
aI0
aI5
aI5
aI5
aI5
aI5
aI5
aI5
aI5
aI4
aI5
aI5
aI5
aI1
aI4
aI8
aI3
aI4
aI9
aI0
aI0
aI1
aI1
asS'19'
p97
(lp98
I5
aI5
aI5
aI5
aI5
aI0
aI0
aI0
aI5
aI5
aI5
aI5
aI5
aI5
aI5
aI5
aI4
aI5
aI5
aI5
aI1
aI4
aI4
aI0
aI0
aI1
aI1
aI1
aI2
aI2
asS'18'
p99
(lp100
I5
aI5
aI5
aI5
aI5
aI0
aI0
aI0
aI5
aI5
aI5
aI5
aI5
aI5
aI5
aI5
aI4
aI5
aI5
aI5
aI1
aI4
aI4
aI0
aI0
aI1
aI1
aI1
aI2
aI2
asg27
(lp101
I5
aI5
aI5
aI5
aI5
aI0
aI0
aI0
aI5
aI5
aI5
aI5
aI5
aI5
aI5
aI5
aI4
aI5
aI5
aI5
aI1
aI4
aI3
aI4
aI8
aI3
aI1
aI9
aI0
aI0
asg29
(lp102
I5
aI5
aI5
aI5
aI5
aI0
aI0
aI0
aI5
aI5
aI5
aI5
aI5
aI5
aI5
aI5
aI4
aI5
aI5
aI5
aI1
aI3
aI4
aI4
aI7
aI8
aI9
aI3
aI9
aI1
asg31
(lp103
I5
aI5
aI5
aI5
aI5
aI0
aI0
aI0
aI5
aI5
aI5
aI5
aI5
aI5
aI5
aI5
aI4
aI5
aI5
aI5
aI1
aI4
aI4
aI0
aI0
aI1
aI1
aI1
aI2
aI2
asg33
(lp104
I5
aI5
aI5
aI5
aI5
aI0
aI0
aI0
aI5
aI5
aI5
aI5
aI5
aI5
aI5
aI5
aI4
aI5
aI5
aI5
aI1
aI3
aI4
aI4
aI8
aI3
aI1
aI3
aI0
aI0
asg35
(lp105
I5
aI5
aI5
aI5
aI5
aI0
aI0
aI0
aI5
aI5
aI5
aI5
aI5
aI5
aI5
aI5
aI4
aI5
aI5
aI5
aI1
aI4
aI3
aI4
aI7
aI8
aI9
aI3
aI1
aI0
asg37
(lp106
I5
aI5
aI5
aI5
aI5
aI0
aI0
aI0
aI5
aI5
aI5
aI5
aI5
aI5
aI5
aI5
aI4
aI5
aI5
aI5
aI1
aI4
aI3
aI4
aI7
aI8
aI9
aI9
aI3
aI1
asg39
(lp107
I5
aI5
aI5
aI5
aI5
aI0
aI0
aI0
aI5
aI5
aI5
aI5
aI5
aI5
aI5
aI5
aI4
aI5
aI5
aI5
aI1
aI3
aI4
aI4
aI7
aI8
aI9
aI3
aI1
aI3
asg41
(lp108
I5
aI5
aI5
aI5
aI5
aI0
aI0
aI0
aI5
aI5
aI5
aI5
aI5
aI5
aI5
aI5
aI4
aI5
aI5
aI5
aI1
aI4
aI8
aI4
aI9
aI0
aI0
aI1
aI1
aI1
asg43
(lp109
I5
aI5
aI5
aI5
aI5
aI0
aI0
aI0
aI5
aI5
aI5
aI5
aI5
aI5
aI5
aI5
aI4
aI5
aI5
aI5
aI1
aI3
aI4
aI8
aI9
aI3
aI3
aI4
aI1
aI0
asg45
(lp110
I5
aI5
aI5
aI5
aI5
aI0
aI0
aI0
aI5
aI5
aI5
aI5
aI5
aI5
aI5
aI5
aI4
aI5
aI5
aI5
aI1
aI3
aI4
aI4
aI8
aI9
aI9
aI3
aI1
aI3
assS'40'
p111
(dp112
S'11'
p113
(lp114
I5
aI5
aI5
aI5
aI5
aI0
aI0
aI0
aI5
aI5
aI5
aI5
aI5
aI5
aI5
aI5
aI4
aI5
aI5
aI5
aI1
aI4
aI4
aI0
aI0
aI1
aI1
aI1
aI2
aI2
asS'10'
p115
(lp116
I5
aI5
aI5
aI5
aI5
aI0
aI0
aI0
aI5
aI5
aI5
aI5
aI5
aI5
aI5
aI5
aI4
aI5
aI5
aI5
aI1
aI3
aI4
aI4
aI8
aI7
aI9
aI3
aI1
aI3
asS'13'
p117
(lp118
I5
aI5
aI5
aI5
aI5
aI0
aI0
aI0
aI5
aI5
aI5
aI5
aI5
aI5
aI5
aI5
aI4
aI5
aI5
aI5
aI1
aI4
aI4
aI0
aI0
aI1
aI1
aI1
aI2
aI2
asS'12'
p119
(lp120
I5
aI5
aI5
aI5
aI5
aI0
aI0
aI0
aI5
aI5
aI5
aI5
aI5
aI5
aI5
aI5
aI4
aI5
aI5
aI5
aI1
aI3
aI4
aI8
aI4
aI9
aI3
aI1
aI3
aI0
asS'15'
p121
(lp122
I5
aI5
aI5
aI5
aI5
aI0
aI0
aI0
aI5
aI5
aI5
aI5
aI5
aI5
aI5
aI5
aI4
aI5
aI5
aI5
aI1
aI4
aI7
aI0
aI0
aI1
aI1
aI1
aI2
aI2
asS'14'
p123
(lp124
I5
aI5
aI5
aI5
aI5
aI0
aI0
aI0
aI5
aI5
aI5
aI5
aI5
aI5
aI5
aI5
aI4
aI5
aI5
aI5
aI1
aI4
aI4
aI0
aI0
aI1
aI1
aI1
aI2
aI2
asS'17'
p125
(lp126
I5
aI5
aI5
aI5
aI5
aI0
aI0
aI0
aI5
aI5
aI5
aI5
aI5
aI5
aI5
aI5
aI4
aI5
aI5
aI5
aI1
aI3
aI4
aI4
aI7
aI8
aI9
aI9
aI3
aI1
asS'16'
p127
(lp128
I5
aI5
aI5
aI5
aI5
aI0
aI0
aI0
aI5
aI5
aI5
aI5
aI5
aI5
aI5
aI5
aI4
aI5
aI5
aI5
aI1
aI4
aI3
aI7
aI8
aI3
aI4
aI9
aI4
aI3
asS'19'
p129
(lp130
I5
aI5
aI5
aI5
aI5
aI0
aI0
aI0
aI5
aI5
aI5
aI5
aI5
aI5
aI5
aI5
aI4
aI5
aI5
aI5
aI1
aI4
aI4
aI0
aI0
aI1
aI1
aI1
aI2
aI2
asS'18'
p131
(lp132
I5
aI5
aI5
aI5
aI5
aI0
aI0
aI0
aI5
aI5
aI5
aI5
aI5
aI5
aI5
aI5
aI4
aI5
aI5
aI5
aI1
aI4
aI3
aI4
aI8
aI9
aI3
aI1
aI0
aI0
asg27
(lp133
I5
aI5
aI5
aI5
aI5
aI0
aI0
aI0
aI5
aI5
aI5
aI5
aI5
aI5
aI5
aI5
aI4
aI5
aI5
aI5
aI1
aI4
aI4
aI0
aI0
aI1
aI1
aI1
aI2
aI2
asg29
(lp134
I5
aI5
aI5
aI5
aI5
aI0
aI0
aI0
aI5
aI5
aI5
aI5
aI5
aI5
aI5
aI5
aI4
aI5
aI5
aI5
aI1
aI4
aI3
aI4
aI8
aI3
aI9
aI1
aI3
aI0
asg31
(lp135
I5
aI5
aI5
aI5
aI5
aI0
aI0
aI0
aI5
aI5
aI5
aI5
aI5
aI5
aI5
aI5
aI4
aI5
aI5
aI5
aI1
aI3
aI4
aI4
aI7
aI8
aI9
aI9
aI3
aI1
asg33
(lp136
I5
aI5
aI5
aI5
aI5
aI0
aI0
aI0
aI5
aI5
aI5
aI5
aI5
aI5
aI5
aI5
aI4
aI5
aI5
aI5
aI1
aI4
aI4
aI0
aI0
aI1
aI1
aI1
aI2
aI2
asg35
(lp137
I5
aI5
aI5
aI5
aI5
aI0
aI0
aI0
aI5
aI5
aI5
aI5
aI5
aI5
aI5
aI5
aI4
aI5
aI5
aI5
aI1
aI3
aI4
aI4
aI8
aI3
aI1
aI9
aI0
aI0
asg37
(lp138
I5
aI5
aI5
aI5
aI5
aI0
aI0
aI0
aI5
aI5
aI5
aI5
aI5
aI5
aI5
aI5
aI4
aI5
aI5
aI5
aI1
aI4
aI3
aI8
aI9
aI3
aI4
aI9
aI1
aI0
asg39
(lp139
I5
aI5
aI5
aI5
aI5
aI0
aI0
aI0
aI5
aI5
aI5
aI5
aI5
aI5
aI5
aI5
aI4
aI5
aI5
aI5
aI1
aI4
aI3
aI4
aI8
aI7
aI3
aI9
aI1
aI0
asg41
(lp140
I5
aI5
aI5
aI5
aI5
aI0
aI0
aI0
aI5
aI5
aI5
aI5
aI5
aI5
aI5
aI5
aI4
aI5
aI5
aI5
aI1
aI4
aI3
aI4
aI7
aI8
aI9
aI3
aI1
aI0
asg43
(lp141
I5
aI5
aI5
aI5
aI5
aI0
aI0
aI0
aI5
aI5
aI5
aI5
aI5
aI5
aI5
aI5
aI4
aI5
aI5
aI5
aI1
aI4
aI8
aI4
aI3
aI3
aI9
aI1
aI3
aI0
asg45
(lp142
I5
aI5
aI5
aI5
aI5
aI0
aI0
aI0
aI5
aI5
aI5
aI5
aI5
aI5
aI5
aI5
aI4
aI5
aI5
aI5
aI1
aI3
aI4
aI4
aI7
aI8
aI9
aI3
aI1
aI3
asssS'./BWLocker/sac/sac_7'
p143
(dp144
S'60'
p145
(dp146
S'11'
p147
(lp148
I166
aI175
aI178
aI161
aI153
aI11
aI11
aI11
aI180
aI148
aI148
aI149
aI153
aI173
aI166
aI166
aI100
aI161
aI175
aI173
aI2
aI191
aI109
aI15
aI19
aI22
aI22
aI23
aI24
aI28
asS'10'
p149
(lp150
I166
aI175
aI178
aI161
aI153
aI11
aI11
aI11
aI180
aI148
aI148
aI149
aI153
aI173
aI166
aI166
aI100
aI161
aI175
aI173
aI2
aI191
aI109
aI15
aI19
aI22
aI22
aI23
aI24
aI28
asS'13'
p151
(lp152
I166
aI175
aI178
aI161
aI153
aI11
aI11
aI11
aI180
aI148
aI148
aI149
aI153
aI173
aI166
aI166
aI100
aI161
aI175
aI173
aI2
aI15
aI191
aI109
aI19
aI22
aI22
aI23
aI24
aI28
asS'12'
p153
(lp154
I166
aI175
aI178
aI161
aI153
aI11
aI11
aI11
aI180
aI148
aI148
aI149
aI153
aI173
aI166
aI166
aI100
aI161
aI175
aI173
aI2
aI191
aI15
aI109
aI19
aI22
aI22
aI23
aI24
aI28
asS'15'
p155
(lp156
I166
aI175
aI178
aI161
aI153
aI11
aI11
aI11
aI180
aI148
aI148
aI149
aI153
aI173
aI166
aI166
aI100
aI161
aI175
aI173
aI2
aI15
aI191
aI109
aI19
aI22
aI22
aI23
aI24
aI28
asS'14'
p157
(lp158
I166
aI175
aI178
aI161
aI153
aI11
aI11
aI11
aI180
aI148
aI148
aI149
aI153
aI173
aI166
aI166
aI100
aI161
aI175
aI173
aI2
aI191
aI109
aI15
aI19
aI22
aI22
aI23
aI24
aI28
asS'17'
p159
(lp160
I166
aI175
aI178
aI161
aI153
aI11
aI11
aI11
aI180
aI148
aI148
aI149
aI153
aI173
aI166
aI166
aI100
aI161
aI175
aI173
aI2
aI15
aI191
aI109
aI19
aI22
aI22
aI23
aI24
aI28
asS'16'
p161
(lp162
I166
aI175
aI178
aI161
aI153
aI11
aI11
aI11
aI180
aI148
aI148
aI149
aI153
aI173
aI166
aI166
aI100
aI161
aI175
aI173
aI2
aI15
aI191
aI109
aI19
aI22
aI22
aI23
aI24
aI28
asS'19'
p163
(lp164
I166
aI175
aI178
aI161
aI153
aI11
aI11
aI11
aI180
aI148
aI148
aI149
aI153
aI173
aI166
aI166
aI100
aI161
aI175
aI173
aI2
aI15
aI191
aI109
aI19
aI22
aI22
aI23
aI24
aI28
asS'18'
p165
(lp166
I166
aI175
aI178
aI161
aI153
aI11
aI11
aI11
aI180
aI148
aI148
aI149
aI153
aI173
aI166
aI166
aI100
aI161
aI175
aI173
aI2
aI191
aI109
aI15
aI19
aI22
aI22
aI23
aI24
aI28
asg27
(lp167
I166
aI175
aI178
aI161
aI153
aI11
aI11
aI11
aI180
aI148
aI148
aI149
aI153
aI173
aI166
aI166
aI100
aI161
aI175
aI173
aI2
aI15
aI191
aI109
aI19
aI22
aI22
aI23
aI24
aI28
asg29
(lp168
I166
aI175
aI178
aI161
aI153
aI11
aI11
aI11
aI180
aI148
aI148
aI149
aI153
aI173
aI166
aI166
aI100
aI161
aI175
aI173
aI2
aI191
aI15
aI109
aI19
aI22
aI22
aI23
aI24
aI28
asg31
(lp169
I166
aI175
aI178
aI161
aI153
aI11
aI11
aI11
aI180
aI148
aI148
aI149
aI153
aI173
aI166
aI166
aI100
aI161
aI175
aI173
aI2
aI15
aI191
aI109
aI19
aI22
aI22
aI23
aI24
aI28
asg33
(lp170
I166
aI175
aI178
aI161
aI153
aI11
aI11
aI11
aI180
aI148
aI148
aI149
aI153
aI173
aI166
aI166
aI100
aI161
aI175
aI173
aI2
aI191
aI15
aI109
aI19
aI22
aI22
aI23
aI24
aI28
asg35
(lp171
I166
aI175
aI178
aI161
aI153
aI11
aI11
aI11
aI180
aI148
aI148
aI149
aI153
aI173
aI166
aI166
aI100
aI161
aI175
aI173
aI2
aI15
aI191
aI109
aI19
aI22
aI22
aI23
aI24
aI28
asg37
(lp172
I166
aI175
aI178
aI161
aI153
aI11
aI11
aI11
aI180
aI148
aI148
aI149
aI153
aI173
aI166
aI166
aI100
aI161
aI175
aI173
aI2
aI191
aI109
aI15
aI19
aI22
aI22
aI23
aI24
aI28
asg39
(lp173
I166
aI175
aI178
aI161
aI153
aI11
aI11
aI11
aI180
aI148
aI148
aI149
aI153
aI173
aI166
aI166
aI100
aI161
aI175
aI173
aI2
aI191
aI15
aI109
aI19
aI22
aI22
aI23
aI24
aI28
asg41
(lp174
I166
aI175
aI178
aI161
aI153
aI11
aI11
aI11
aI180
aI148
aI148
aI149
aI153
aI173
aI166
aI166
aI100
aI161
aI175
aI173
aI2
aI191
aI109
aI15
aI19
aI22
aI22
aI23
aI24
aI28
asg43
(lp175
I166
aI175
aI178
aI161
aI153
aI11
aI11
aI11
aI180
aI148
aI148
aI149
aI153
aI173
aI166
aI166
aI100
aI161
aI175
aI173
aI2
aI15
aI191
aI109
aI19
aI22
aI22
aI23
aI24
aI28
asg45
(lp176
I166
aI175
aI178
aI161
aI153
aI11
aI11
aI11
aI180
aI148
aI148
aI149
aI153
aI173
aI166
aI166
aI100
aI161
aI175
aI173
aI2
aI191
aI109
aI297
aI15
aI19
aI22
aI22
aI23
aI24
assS'30'
p177
(dp178
S'11'
p179
(lp180
I166
aI175
aI178
aI161
aI153
aI11
aI11
aI11
aI180
aI148
aI148
aI149
aI153
aI173
aI166
aI166
aI100
aI161
aI175
aI173
aI2
aI191
aI15
aI109
aI19
aI22
aI22
aI23
aI24
aI28
asS'10'
p181
(lp182
I166
aI175
aI178
aI161
aI153
aI11
aI11
aI11
aI180
aI148
aI148
aI149
aI153
aI173
aI166
aI166
aI100
aI161
aI175
aI173
aI2
aI15
aI191
aI109
aI19
aI22
aI22
aI23
aI24
aI28
asS'13'
p183
(lp184
I166
aI175
aI178
aI161
aI153
aI11
aI11
aI11
aI180
aI148
aI148
aI149
aI153
aI173
aI166
aI166
aI100
aI161
aI175
aI173
aI2
aI191
aI109
aI15
aI19
aI22
aI22
aI23
aI24
aI28
asS'12'
p185
(lp186
I166
aI175
aI178
aI161
aI153
aI11
aI11
aI11
aI180
aI148
aI148
aI149
aI153
aI173
aI166
aI166
aI100
aI161
aI175
aI173
aI2
aI191
aI109
aI15
aI19
aI22
aI22
aI23
aI24
aI28
asS'15'
p187
(lp188
I166
aI175
aI178
aI161
aI153
aI11
aI11
aI11
aI180
aI148
aI148
aI149
aI153
aI173
aI166
aI166
aI100
aI161
aI175
aI173
aI2
aI191
aI15
aI109
aI19
aI22
aI22
aI23
aI24
aI28
asS'14'
p189
(lp190
I166
aI175
aI178
aI161
aI153
aI11
aI11
aI11
aI180
aI148
aI148
aI149
aI153
aI173
aI166
aI166
aI100
aI161
aI175
aI173
aI2
aI15
aI191
aI109
aI19
aI22
aI22
aI23
aI24
aI28
asS'17'
p191
(lp192
I166
aI175
aI178
aI161
aI153
aI11
aI11
aI11
aI180
aI148
aI148
aI149
aI153
aI173
aI166
aI166
aI100
aI161
aI175
aI173
aI2
aI15
aI191
aI109
aI19
aI22
aI22
aI23
aI24
aI28
asS'16'
p193
(lp194
I166
aI175
aI178
aI161
aI153
aI11
aI11
aI11
aI180
aI148
aI148
aI149
aI153
aI173
aI166
aI166
aI100
aI161
aI175
aI173
aI2
aI15
aI191
aI109
aI19
aI22
aI22
aI23
aI24
aI28
asS'19'
p195
(lp196
I166
aI175
aI178
aI161
aI153
aI11
aI11
aI11
aI180
aI148
aI148
aI149
aI153
aI173
aI166
aI166
aI100
aI161
aI175
aI173
aI2
aI191
aI109
aI15
aI19
aI22
aI22
aI23
aI24
aI28
asS'18'
p197
(lp198
I166
aI175
aI178
aI161
aI153
aI11
aI11
aI11
aI180
aI148
aI148
aI149
aI153
aI173
aI166
aI166
aI100
aI161
aI175
aI173
aI2
aI191
aI15
aI109
aI19
aI22
aI22
aI23
aI24
aI28
asg27
(lp199
I166
aI175
aI178
aI161
aI153
aI11
aI11
aI11
aI180
aI148
aI148
aI149
aI153
aI173
aI166
aI166
aI100
aI161
aI175
aI173
aI2
aI15
aI191
aI109
aI19
aI22
aI22
aI23
aI24
aI28
asg29
(lp200
I166
aI175
aI178
aI161
aI153
aI11
aI11
aI11
aI180
aI148
aI148
aI149
aI153
aI173
aI166
aI166
aI100
aI161
aI175
aI173
aI2
aI191
aI109
aI297
aI650
aI5
aI124
aI15
aI69
aI277
asg31
(lp201
I166
aI175
aI178
aI161
aI153
aI11
aI11
aI11
aI180
aI148
aI148
aI149
aI153
aI173
aI166
aI166
aI100
aI161
aI175
aI173
aI2
aI191
aI15
aI109
aI19
aI22
aI22
aI23
aI24
aI28
asg33
(lp202
I166
aI175
aI178
aI161
aI153
aI11
aI11
aI11
aI180
aI148
aI148
aI149
aI153
aI173
aI166
aI166
aI100
aI161
aI175
aI173
aI2
aI15
aI191
aI109
aI19
aI22
aI22
aI23
aI24
aI28
asg35
(lp203
I166
aI175
aI178
aI161
aI153
aI11
aI11
aI11
aI180
aI148
aI148
aI149
aI153
aI173
aI166
aI166
aI100
aI161
aI175
aI173
aI2
aI15
aI191
aI109
aI19
aI22
aI22
aI23
aI24
aI28
asg37
(lp204
I166
aI175
aI178
aI161
aI153
aI11
aI11
aI11
aI180
aI148
aI148
aI149
aI153
aI173
aI166
aI166
aI100
aI161
aI175
aI173
aI2
aI191
aI15
aI109
aI19
aI22
aI22
aI23
aI24
aI28
asg39
(lp205
I166
aI175
aI178
aI161
aI153
aI11
aI11
aI11
aI180
aI148
aI148
aI149
aI153
aI173
aI166
aI166
aI100
aI161
aI175
aI173
aI2
aI15
aI191
aI109
aI19
aI22
aI22
aI23
aI24
aI28
asg41
(lp206
I166
aI175
aI178
aI161
aI153
aI11
aI11
aI11
aI180
aI148
aI148
aI149
aI153
aI173
aI166
aI166
aI100
aI161
aI175
aI173
aI2
aI15
aI191
aI109
aI19
aI22
aI22
aI23
aI24
aI28
asg43
(lp207
I166
aI175
aI178
aI161
aI153
aI11
aI11
aI11
aI180
aI148
aI148
aI149
aI153
aI173
aI166
aI166
aI100
aI161
aI175
aI173
aI2
aI191
aI15
aI109
aI19
aI22
aI22
aI23
aI24
aI28
asg45
(lp208
I166
aI175
aI178
aI161
aI153
aI11
aI11
aI11
aI180
aI148
aI148
aI149
aI153
aI173
aI166
aI166
aI100
aI161
aI175
aI173
aI2
aI191
aI109
aI15
aI19
aI22
aI22
aI23
aI24
aI28
assS'50'
p209
(dp210
S'11'
p211
(lp212
I166
aI175
aI178
aI161
aI153
aI11
aI11
aI11
aI180
aI148
aI148
aI149
aI153
aI173
aI166
aI166
aI100
aI161
aI175
aI173
aI2
aI15
aI191
aI109
aI19
aI22
aI22
aI23
aI24
aI28
asS'10'
p213
(lp214
I166
aI175
aI178
aI161
aI153
aI11
aI11
aI11
aI180
aI148
aI148
aI149
aI153
aI173
aI166
aI166
aI100
aI161
aI175
aI173
aI2
aI191
aI15
aI109
aI19
aI22
aI22
aI23
aI24
aI28
asS'13'
p215
(lp216
I166
aI175
aI178
aI161
aI153
aI11
aI11
aI11
aI180
aI148
aI148
aI149
aI153
aI173
aI166
aI166
aI100
aI161
aI175
aI173
aI2
aI15
aI191
aI109
aI19
aI22
aI22
aI23
aI24
aI28
asS'12'
p217
(lp218
I166
aI175
aI178
aI161
aI153
aI11
aI11
aI11
aI180
aI148
aI148
aI149
aI153
aI173
aI166
aI166
aI100
aI161
aI175
aI173
aI2
aI191
aI109
aI15
aI19
aI22
aI22
aI23
aI24
aI28
asS'15'
p219
(lp220
I166
aI175
aI178
aI161
aI153
aI11
aI11
aI11
aI180
aI148
aI148
aI149
aI153
aI173
aI166
aI166
aI100
aI161
aI175
aI173
aI2
aI15
aI191
aI109
aI19
aI22
aI22
aI23
aI24
aI28
asS'14'
p221
(lp222
I166
aI175
aI178
aI161
aI153
aI11
aI11
aI11
aI180
aI148
aI148
aI149
aI153
aI173
aI166
aI166
aI100
aI161
aI175
aI173
aI2
aI15
aI191
aI109
aI19
aI22
aI22
aI23
aI24
aI28
asS'17'
p223
(lp224
I166
aI175
aI178
aI161
aI153
aI11
aI11
aI11
aI180
aI148
aI148
aI149
aI153
aI173
aI166
aI166
aI100
aI161
aI175
aI173
aI2
aI191
aI109
aI15
aI19
aI22
aI22
aI23
aI24
aI28
asS'16'
p225
(lp226
I166
aI175
aI178
aI161
aI153
aI11
aI11
aI11
aI180
aI148
aI148
aI149
aI153
aI173
aI166
aI166
aI100
aI161
aI175
aI173
aI2
aI191
aI109
aI297
aI15
aI19
aI22
aI22
aI23
aI24
asS'19'
p227
(lp228
I166
aI175
aI178
aI161
aI153
aI11
aI11
aI11
aI180
aI148
aI148
aI149
aI153
aI173
aI166
aI166
aI100
aI161
aI175
aI173
aI2
aI15
aI191
aI109
aI19
aI22
aI22
aI23
aI24
aI28
asS'18'
p229
(lp230
I166
aI175
aI178
aI161
aI153
aI11
aI11
aI11
aI180
aI148
aI148
aI149
aI153
aI173
aI166
aI166
aI100
aI161
aI175
aI173
aI2
aI191
aI109
aI15
aI19
aI22
aI22
aI23
aI24
aI28
asg27
(lp231
I166
aI175
aI178
aI161
aI153
aI11
aI11
aI11
aI180
aI148
aI148
aI149
aI153
aI173
aI166
aI166
aI100
aI161
aI175
aI173
aI2
aI191
aI15
aI109
aI19
aI22
aI22
aI23
aI24
aI28
asg29
(lp232
I166
aI175
aI178
aI161
aI153
aI11
aI11
aI11
aI180
aI148
aI148
aI149
aI153
aI173
aI166
aI166
aI100
aI161
aI175
aI173
aI2
aI191
aI109
aI297
aI15
aI19
aI22
aI22
aI23
aI24
asg31
(lp233
I166
aI175
aI178
aI161
aI153
aI11
aI11
aI11
aI180
aI148
aI148
aI149
aI153
aI173
aI166
aI166
aI100
aI161
aI175
aI173
aI2
aI191
aI15
aI109
aI19
aI22
aI22
aI23
aI24
aI28
asg33
(lp234
I166
aI175
aI178
aI161
aI153
aI11
aI11
aI11
aI180
aI148
aI148
aI149
aI153
aI173
aI166
aI166
aI100
aI161
aI175
aI173
aI2
aI15
aI191
aI109
aI19
aI22
aI22
aI23
aI24
aI28
asg35
(lp235
I166
aI175
aI178
aI161
aI153
aI11
aI11
aI11
aI180
aI148
aI148
aI149
aI153
aI173
aI166
aI166
aI100
aI161
aI175
aI173
aI2
aI15
aI191
aI109
aI19
aI22
aI22
aI23
aI24
aI28
asg37
(lp236
I166
aI175
aI178
aI161
aI153
aI11
aI11
aI11
aI180
aI148
aI148
aI149
aI153
aI173
aI166
aI166
aI100
aI161
aI175
aI173
aI2
aI15
aI191
aI109
aI19
aI22
aI22
aI23
aI24
aI28
asg39
(lp237
I166
aI175
aI178
aI161
aI153
aI11
aI11
aI11
aI180
aI148
aI148
aI149
aI153
aI173
aI166
aI166
aI100
aI161
aI175
aI173
aI2
aI191
aI15
aI109
aI19
aI22
aI22
aI23
aI24
aI28
asg41
(lp238
I166
aI175
aI178
aI161
aI153
aI11
aI11
aI11
aI180
aI148
aI148
aI149
aI153
aI173
aI166
aI166
aI100
aI161
aI175
aI173
aI2
aI191
aI109
aI15
aI19
aI22
aI22
aI23
aI24
aI28
asg43
(lp239
I166
aI175
aI178
aI161
aI153
aI11
aI11
aI11
aI180
aI148
aI148
aI149
aI153
aI173
aI166
aI166
aI100
aI161
aI175
aI173
aI2
aI15
aI191
aI109
aI19
aI22
aI22
aI23
aI24
aI28
asg45
(lp240
I166
aI175
aI178
aI161
aI153
aI11
aI11
aI11
aI180
aI148
aI148
aI149
aI153
aI173
aI166
aI166
aI100
aI161
aI175
aI173
aI2
aI191
aI109
aI297
aI15
aI19
aI22
aI22
aI23
aI24
assS'40'
p241
(dp242
S'11'
p243
(lp244
I166
aI175
aI178
aI161
aI153
aI11
aI11
aI11
aI180
aI148
aI148
aI149
aI153
aI173
aI166
aI166
aI100
aI161
aI175
aI173
aI2
aI191
aI15
aI109
aI19
aI22
aI22
aI23
aI24
aI28
asS'10'
p245
(lp246
I166
aI175
aI178
aI161
aI153
aI11
aI11
aI11
aI180
aI148
aI148
aI149
aI153
aI173
aI166
aI166
aI100
aI161
aI175
aI173
aI2
aI191
aI109
aI297
aI15
aI19
aI22
aI22
aI23
aI24
asS'13'
p247
(lp248
I166
aI175
aI178
aI161
aI153
aI11
aI11
aI11
aI180
aI148
aI148
aI149
aI153
aI173
aI166
aI166
aI100
aI161
aI175
aI173
aI2
aI191
aI15
aI109
aI19
aI22
aI22
aI23
aI24
aI28
asS'12'
p249
(lp250
I166
aI175
aI178
aI161
aI153
aI11
aI11
aI11
aI180
aI148
aI148
aI149
aI153
aI173
aI166
aI166
aI100
aI161
aI175
aI173
aI2
aI191
aI15
aI109
aI19
aI22
aI22
aI23
aI24
aI28
asS'15'
p251
(lp252
I166
aI175
aI178
aI161
aI153
aI11
aI11
aI11
aI180
aI148
aI148
aI149
aI153
aI173
aI166
aI166
aI100
aI161
aI175
aI173
aI2
aI15
aI191
aI109
aI19
aI22
aI22
aI23
aI24
aI28
asS'14'
p253
(lp254
I166
aI175
aI178
aI161
aI153
aI11
aI11
aI11
aI180
aI148
aI148
aI149
aI153
aI173
aI166
aI166
aI100
aI161
aI175
aI173
aI2
aI191
aI109
aI15
aI19
aI22
aI22
aI23
aI24
aI28
asS'17'
p255
(lp256
I166
aI175
aI178
aI161
aI153
aI11
aI11
aI11
aI180
aI148
aI148
aI149
aI153
aI173
aI166
aI166
aI100
aI161
aI175
aI173
aI2
aI191
aI15
aI109
aI19
aI22
aI22
aI23
aI24
aI28
asS'16'
p257
(lp258
I166
aI175
aI178
aI161
aI153
aI11
aI11
aI11
aI180
aI148
aI148
aI149
aI153
aI173
aI166
aI166
aI100
aI161
aI175
aI173
aI2
aI15
aI191
aI109
aI19
aI22
aI22
aI23
aI24
aI28
asS'19'
p259
(lp260
I166
aI175
aI178
aI161
aI153
aI11
aI11
aI11
aI180
aI148
aI148
aI149
aI153
aI173
aI166
aI166
aI100
aI161
aI175
aI173
aI2
aI15
aI191
aI109
aI19
aI22
aI22
aI23
aI24
aI28
asS'18'
p261
(lp262
I166
aI175
aI178
aI161
aI153
aI11
aI11
aI11
aI180
aI148
aI148
aI149
aI153
aI173
aI166
aI166
aI100
aI161
aI175
aI173
aI2
aI191
aI15
aI109
aI19
aI22
aI22
aI23
aI24
aI28
asg27
(lp263
I166
aI175
aI178
aI161
aI153
aI11
aI11
aI11
aI180
aI148
aI148
aI149
aI153
aI173
aI166
aI166
aI100
aI161
aI175
aI173
aI2
aI15
aI191
aI109
aI19
aI22
aI22
aI23
aI24
aI28
asg29
(lp264
I166
aI175
aI178
aI161
aI153
aI11
aI11
aI11
aI180
aI148
aI148
aI149
aI153
aI173
aI166
aI166
aI100
aI161
aI175
aI173
aI2
aI191
aI15
aI109
aI19
aI22
aI22
aI23
aI24
aI28
asg31
(lp265
I166
aI175
aI178
aI161
aI153
aI11
aI11
aI11
aI180
aI148
aI148
aI149
aI153
aI173
aI166
aI166
aI100
aI161
aI175
aI173
aI2
aI191
aI15
aI109
aI19
aI22
aI22
aI23
aI24
aI28
asg33
(lp266
I166
aI175
aI178
aI161
aI153
aI11
aI11
aI11
aI180
aI148
aI148
aI149
aI153
aI173
aI166
aI166
aI100
aI161
aI175
aI173
aI2
aI15
aI191
aI109
aI19
aI22
aI22
aI23
aI24
aI28
asg35
(lp267
I166
aI175
aI178
aI161
aI153
aI11
aI11
aI11
aI180
aI148
aI148
aI149
aI153
aI173
aI166
aI166
aI100
aI161
aI175
aI173
aI2
aI15
aI191
aI109
aI19
aI22
aI22
aI23
aI24
aI28
asg37
(lp268
I166
aI175
aI178
aI161
aI153
aI11
aI11
aI11
aI180
aI148
aI148
aI149
aI153
aI173
aI166
aI166
aI100
aI161
aI175
aI173
aI2
aI191
aI109
aI15
aI19
aI22
aI22
aI23
aI24
aI28
asg39
(lp269
I166
aI175
aI178
aI161
aI153
aI11
aI11
aI11
aI180
aI148
aI148
aI149
aI153
aI173
aI166
aI166
aI100
aI161
aI175
aI173
aI2
aI15
aI191
aI109
aI19
aI22
aI22
aI23
aI24
aI28
asg41
(lp270
I166
aI175
aI178
aI161
aI153
aI11
aI11
aI11
aI180
aI148
aI148
aI149
aI153
aI173
aI166
aI166
aI100
aI161
aI175
aI173
aI2
aI15
aI191
aI109
aI19
aI22
aI22
aI23
aI24
aI28
asg43
(lp271
I166
aI175
aI178
aI161
aI153
aI11
aI11
aI11
aI180
aI148
aI148
aI149
aI153
aI173
aI166
aI166
aI100
aI161
aI175
aI173
aI2
aI15
aI191
aI109
aI19
aI22
aI22
aI23
aI24
aI28
asg45
(lp272
I166
aI175
aI178
aI161
aI153
aI11
aI11
aI11
aI180
aI148
aI148
aI149
aI153
aI173
aI166
aI166
aI100
aI161
aI175
aI173
aI2
aI15
aI191
aI109
aI19
aI22
aI22
aI23
aI24
aI28
asssS'./BWLocker/sac/sac_6'
p273
(dp274
S'60'
p275
(dp276
S'11'
p277
(lp278
I73
aI75
aI75
aI73
aI72
aI9
aI9
aI9
aI75
aI72
aI72
aI72
aI72
aI74
aI73
aI73
aI53
aI73
aI75
aI74
aI3
aI49
aI4
aI85
aI67
aI91
aI93
aI5
aI47
aI5
asS'10'
p279
(lp280
I73
aI75
aI75
aI73
aI72
aI9
aI9
aI9
aI75
aI72
aI72
aI72
aI72
aI74
aI73
aI73
aI53
aI73
aI75
aI74
aI67
aI91
aI464
aI3
aI49
aI93
aI4
aI85
aI5
aI47
asS'13'
p281
(lp282
I73
aI75
aI75
aI73
aI72
aI9
aI9
aI9
aI75
aI72
aI72
aI72
aI72
aI74
aI73
aI73
aI53
aI73
aI75
aI74
aI3
aI49
aI4
aI85
aI67
aI91
aI93
aI5
aI47
aI5
asS'12'
p283
(lp284
I73
aI75
aI75
aI73
aI72
aI9
aI9
aI9
aI75
aI72
aI72
aI72
aI72
aI74
aI73
aI73
aI53
aI73
aI75
aI74
aI3
aI4
aI5
aI49
aI5
aI85
aI5
aI6
aI6
aI7
asS'15'
p285
(lp286
I73
aI75
aI75
aI73
aI72
aI9
aI9
aI9
aI75
aI72
aI72
aI72
aI72
aI74
aI73
aI73
aI53
aI73
aI75
aI74
aI67
aI3
aI4
aI49
aI85
aI91
aI93
aI5
aI47
aI95
asS'14'
p287
(lp288
I73
aI75
aI75
aI73
aI72
aI9
aI9
aI9
aI75
aI72
aI72
aI72
aI72
aI74
aI73
aI73
aI53
aI73
aI75
aI74
aI3
aI4
aI5
aI49
aI85
aI5
aI5
aI6
aI6
aI7
asS'17'
p289
(lp290
I73
aI75
aI75
aI73
aI72
aI9
aI9
aI9
aI75
aI72
aI72
aI72
aI72
aI74
aI73
aI73
aI53
aI73
aI75
aI74
aI3
aI49
aI4
aI85
aI67
aI5
aI47
aI91
aI93
aI5
asS'16'
p291
(lp292
I73
aI75
aI75
aI73
aI72
aI9
aI9
aI9
aI75
aI72
aI72
aI72
aI72
aI74
aI73
aI73
aI53
aI73
aI75
aI74
aI3
aI4
aI49
aI85
aI67
aI5
aI47
aI91
aI5
aI48
asS'19'
p293
(lp294
I73
aI75
aI75
aI73
aI72
aI9
aI9
aI9
aI75
aI72
aI72
aI72
aI72
aI74
aI73
aI73
aI53
aI73
aI75
aI74
aI67
aI3
aI4
aI5
aI49
aI85
aI47
aI91
aI93
aI5
asS'18'
p295
(lp296
I73
aI75
aI75
aI73
aI72
aI9
aI9
aI9
aI75
aI72
aI72
aI72
aI72
aI74
aI73
aI73
aI53
aI73
aI75
aI74
aI3
aI4
aI5
aI49
aI85
aI5
aI5
aI6
aI6
aI7
asg27
(lp297
I73
aI75
aI75
aI73
aI72
aI9
aI9
aI9
aI75
aI72
aI72
aI72
aI72
aI74
aI73
aI73
aI53
aI73
aI75
aI74
aI3
aI49
aI67
aI91
aI4
aI85
aI93
aI5
aI47
aI95
asg29
(lp298
I73
aI75
aI75
aI73
aI72
aI9
aI9
aI9
aI75
aI72
aI72
aI72
aI72
aI74
aI73
aI73
aI53
aI73
aI75
aI74
aI3
aI4
aI5
aI49
aI85
aI5
aI5
aI6
aI6
aI7
asg31
(lp299
I73
aI75
aI75
aI73
aI72
aI9
aI9
aI9
aI75
aI72
aI72
aI72
aI72
aI74
aI73
aI73
aI53
aI73
aI75
aI74
aI67
aI3
aI49
aI4
aI85
aI5
aI47
aI91
aI93
aI95
asg33
(lp300
I73
aI75
aI75
aI73
aI72
aI9
aI9
aI9
aI75
aI72
aI72
aI72
aI72
aI74
aI73
aI73
aI53
aI73
aI75
aI74
aI3
aI4
aI5
aI49
aI5
aI85
aI5
aI6
aI6
aI7
asg35
(lp301
I73
aI75
aI75
aI73
aI72
aI9
aI9
aI9
aI75
aI72
aI72
aI72
aI72
aI74
aI73
aI73
aI53
aI73
aI75
aI74
aI67
aI3
aI49
aI91
aI93
aI464
aI4
aI85
aI5
aI47
asg37
(lp302
I73
aI75
aI75
aI73
aI72
aI9
aI9
aI9
aI75
aI72
aI72
aI72
aI72
aI74
aI73
aI73
aI53
aI73
aI75
aI74
aI3
aI49
aI4
aI5
aI5
aI85
aI5
aI6
aI6
aI7
asg39
(lp303
I73
aI75
aI75
aI73
aI72
aI9
aI9
aI9
aI75
aI72
aI72
aI72
aI72
aI74
aI73
aI73
aI53
aI73
aI75
aI74
aI67
aI3
aI49
aI4
aI85
aI91
aI93
aI5
aI47
aI5
asg41
(lp304
I73
aI75
aI75
aI73
aI72
aI9
aI9
aI9
aI75
aI72
aI72
aI72
aI72
aI74
aI73
aI73
aI53
aI73
aI75
aI74
aI3
aI4
aI5
aI49
aI5
aI85
aI5
aI6
aI6
aI7
asg43
(lp305
I73
aI75
aI75
aI73
aI72
aI9
aI9
aI9
aI75
aI72
aI72
aI72
aI72
aI74
aI73
aI73
aI53
aI73
aI75
aI74
aI3
aI4
aI49
aI5
aI5
aI85
aI5
aI6
aI6
aI7
asg45
(lp306
I73
aI75
aI75
aI73
aI72
aI9
aI9
aI9
aI75
aI72
aI72
aI72
aI72
aI74
aI73
aI73
aI53
aI73
aI75
aI74
aI3
aI4
aI49
aI85
aI67
aI91
aI93
aI5
aI47
aI5
assS'30'
p307
(dp308
S'11'
p309
(lp310
I73
aI75
aI75
aI73
aI72
aI9
aI9
aI9
aI75
aI72
aI72
aI72
aI72
aI74
aI73
aI73
aI53
aI73
aI75
aI74
aI67
aI91
aI464
aI3
aI49
aI4
aI85
aI93
aI5
aI47
asS'10'
p311
(lp312
I73
aI75
aI75
aI73
aI72
aI9
aI9
aI9
aI75
aI72
aI72
aI72
aI72
aI74
aI73
aI73
aI53
aI73
aI75
aI74
aI67
aI3
aI49
aI4
aI85
aI91
aI93
aI5
aI47
aI95
asS'13'
p313
(lp314
I73
aI75
aI75
aI73
aI72
aI9
aI9
aI9
aI75
aI72
aI72
aI72
aI72
aI74
aI73
aI73
aI53
aI73
aI75
aI74
aI3
aI4
aI5
aI49
aI85
aI5
aI5
aI6
aI6
aI7
asS'12'
p315
(lp316
I73
aI75
aI75
aI73
aI72
aI9
aI9
aI9
aI75
aI72
aI72
aI72
aI72
aI74
aI73
aI73
aI53
aI73
aI75
aI74
aI3
aI4
aI49
aI5
aI5
aI85
aI5
aI6
aI6
aI7
asS'15'
p317
(lp318
I73
aI75
aI75
aI73
aI72
aI9
aI9
aI9
aI75
aI72
aI72
aI72
aI72
aI74
aI73
aI73
aI53
aI73
aI75
aI74
aI67
aI3
aI49
aI91
aI4
aI85
aI93
aI5
aI47
aI95
asS'14'
p319
(lp320
I73
aI75
aI75
aI73
aI72
aI9
aI9
aI9
aI75
aI72
aI72
aI72
aI72
aI74
aI73
aI73
aI53
aI73
aI75
aI74
aI3
aI4
aI5
aI49
aI5
aI85
aI5
aI6
aI6
aI7
asS'17'
p321
(lp322
I73
aI75
aI75
aI73
aI72
aI9
aI9
aI9
aI75
aI72
aI72
aI72
aI72
aI74
aI73
aI73
aI53
aI73
aI75
aI74
aI67
aI3
aI4
aI49
aI85
aI5
aI47
aI91
aI5
aI48
asS'16'
p323
(lp324
I73
aI75
aI75
aI73
aI72
aI9
aI9
aI9
aI75
aI72
aI72
aI72
aI72
aI74
aI73
aI73
aI53
aI73
aI75
aI74
aI3
aI4
aI5
aI49
aI5
aI85
aI5
aI6
aI6
aI7
asS'19'
p325
(lp326
I73
aI75
aI75
aI73
aI72
aI9
aI9
aI9
aI75
aI72
aI72
aI72
aI72
aI74
aI73
aI73
aI53
aI73
aI75
aI74
aI3
aI4
aI49
aI5
aI5
aI85
aI5
aI6
aI6
aI7
asS'18'
p327
(lp328
I73
aI75
aI75
aI73
aI72
aI9
aI9
aI9
aI75
aI72
aI72
aI72
aI72
aI74
aI73
aI73
aI53
aI73
aI75
aI74
aI3
aI49
aI67
aI91
aI4
aI85
aI93
aI5
aI47
aI95
asg27
(lp329
I73
aI75
aI75
aI73
aI72
aI9
aI9
aI9
aI75
aI72
aI72
aI72
aI72
aI74
aI73
aI73
aI53
aI73
aI75
aI74
aI3
aI49
aI4
aI85
aI67
aI91
aI93
aI5
aI47
aI95
asg29
(lp330
I73
aI75
aI75
aI73
aI72
aI9
aI9
aI9
aI75
aI72
aI72
aI72
aI72
aI74
aI73
aI73
aI53
aI73
aI75
aI74
aI3
aI4
aI5
aI49
aI85
aI5
aI5
aI6
aI6
aI7
asg31
(lp331
I73
aI75
aI75
aI73
aI72
aI9
aI9
aI9
aI75
aI72
aI72
aI72
aI72
aI74
aI73
aI73
aI53
aI73
aI75
aI74
aI3
aI4
aI49
aI85
aI67
aI91
aI93
aI5
aI47
aI5
asg33
(lp332
I73
aI75
aI75
aI73
aI72
aI9
aI9
aI9
aI75
aI72
aI72
aI72
aI72
aI74
aI73
aI73
aI53
aI73
aI75
aI74
aI3
aI49
aI4
aI85
aI67
aI5
aI47
aI91
aI93
aI5
asg35
(lp333
I73
aI75
aI75
aI73
aI72
aI9
aI9
aI9
aI75
aI72
aI72
aI72
aI72
aI74
aI73
aI73
aI53
aI73
aI75
aI74
aI3
aI4
aI5
aI49
aI5
aI85
aI5
aI6
aI6
aI7
asg37
(lp334
I73
aI75
aI75
aI73
aI72
aI9
aI9
aI9
aI75
aI72
aI72
aI72
aI72
aI74
aI73
aI73
aI53
aI73
aI75
aI74
aI3
aI49
aI4
aI85
aI67
aI91
aI93
aI5
aI47
aI95
asg39
(lp335
I73
aI75
aI75
aI73
aI72
aI9
aI9
aI9
aI75
aI72
aI72
aI72
aI72
aI74
aI73
aI73
aI53
aI73
aI75
aI74
aI3
aI49
aI4
aI85
aI67
aI91
aI93
aI5
aI47
aI5
asg41
(lp336
I73
aI75
aI75
aI73
aI72
aI9
aI9
aI9
aI75
aI72
aI72
aI72
aI72
aI74
aI73
aI73
aI53
aI73
aI75
aI74
aI3
aI49
aI4
aI85
aI67
aI91
aI93
aI5
aI47
aI5
asg43
(lp337
I73
aI75
aI75
aI73
aI72
aI9
aI9
aI9
aI75
aI72
aI72
aI72
aI72
aI74
aI73
aI73
aI53
aI73
aI75
aI74
aI67
aI91
aI464
aI3
aI49
aI93
aI4
aI85
aI5
aI47
asg45
(lp338
I73
aI75
aI75
aI73
aI72
aI9
aI9
aI9
aI75
aI72
aI72
aI72
aI72
aI74
aI73
aI73
aI53
aI73
aI75
aI74
aI3
aI49
aI4
aI85
aI67
aI91
aI93
aI5
aI47
aI5
assS'50'
p339
(dp340
S'11'
p341
(lp342
I73
aI75
aI75
aI73
aI72
aI9
aI9
aI9
aI75
aI72
aI72
aI72
aI72
aI74
aI73
aI73
aI53
aI73
aI75
aI74
aI3
aI4
aI49
aI5
aI5
aI85
aI5
aI6
aI6
aI7
asS'10'
p343
(lp344
I73
aI75
aI75
aI73
aI72
aI9
aI9
aI9
aI75
aI72
aI72
aI72
aI72
aI74
aI73
aI73
aI53
aI73
aI75
aI74
aI3
aI49
aI67
aI4
aI85
aI91
aI93
aI5
aI47
aI95
asS'13'
p345
(lp346
I73
aI75
aI75
aI73
aI72
aI9
aI9
aI9
aI75
aI72
aI72
aI72
aI72
aI74
aI73
aI73
aI53
aI73
aI75
aI74
aI67
aI91
aI464
aI3
aI49
aI4
aI85
aI93
aI5
aI47
asS'12'
p347
(lp348
I73
aI75
aI75
aI73
aI72
aI9
aI9
aI9
aI75
aI72
aI72
aI72
aI72
aI74
aI73
aI73
aI53
aI73
aI75
aI74
aI3
aI49
aI4
aI85
aI67
aI5
aI47
aI91
aI93
aI95
asS'15'
p349
(lp350
I73
aI75
aI75
aI73
aI72
aI9
aI9
aI9
aI75
aI72
aI72
aI72
aI72
aI74
aI73
aI73
aI53
aI73
aI75
aI74
aI67
aI91
aI464
aI3
aI49
aI93
aI4
aI85
aI5
aI47
asS'14'
p351
(lp352
I73
aI75
aI75
aI73
aI72
aI9
aI9
aI9
aI75
aI72
aI72
aI72
aI72
aI74
aI73
aI73
aI53
aI73
aI75
aI74
aI3
aI49
aI67
aI91
aI4
aI85
aI93
aI5
aI47
aI95
asS'17'
p353
(lp354
I73
aI75
aI75
aI73
aI72
aI9
aI9
aI9
aI75
aI72
aI72
aI72
aI72
aI74
aI73
aI73
aI53
aI73
aI75
aI74
aI67
aI91
aI464
aI3
aI49
aI93
aI4
aI85
aI5
aI47
asS'16'
p355
(lp356
I73
aI75
aI75
aI73
aI72
aI9
aI9
aI9
aI75
aI72
aI72
aI72
aI72
aI74
aI73
aI73
aI53
aI73
aI75
aI74
aI3
aI49
aI4
aI85
aI67
aI91
aI93
aI5
aI47
aI5
asS'19'
p357
(lp358
I73
aI75
aI75
aI73
aI72
aI9
aI9
aI9
aI75
aI72
aI72
aI72
aI72
aI74
aI73
aI73
aI53
aI73
aI75
aI74
aI3
aI49
aI67
aI4
aI85
aI5
aI47
aI91
aI93
aI5
asS'18'
p359
(lp360
I73
aI75
aI75
aI73
aI72
aI9
aI9
aI9
aI75
aI72
aI72
aI72
aI72
aI74
aI73
aI73
aI53
aI73
aI75
aI74
aI3
aI49
aI4
aI85
aI67
aI91
aI93
aI5
aI47
aI5
asg27
(lp361
I73
aI75
aI75
aI73
aI72
aI9
aI9
aI9
aI75
aI72
aI72
aI72
aI72
aI74
aI73
aI73
aI53
aI73
aI75
aI74
aI67
aI3
aI49
aI4
aI85
aI5
aI47
aI91
aI5
aI48
asg29
(lp362
I73
aI75
aI75
aI73
aI72
aI9
aI9
aI9
aI75
aI72
aI72
aI72
aI72
aI74
aI73
aI73
aI53
aI73
aI75
aI74
aI3
aI49
aI67
aI91
aI4
aI85
aI93
aI5
aI47
aI95
asg31
(lp363
I73
aI75
aI75
aI73
aI72
aI9
aI9
aI9
aI75
aI72
aI72
aI72
aI72
aI74
aI73
aI73
aI53
aI73
aI75
aI74
aI3
aI4
aI5
aI49
aI5
aI85
aI5
aI6
aI6
aI7
asg33
(lp364
I73
aI75
aI75
aI73
aI72
aI9
aI9
aI9
aI75
aI72
aI72
aI72
aI72
aI74
aI73
aI73
aI53
aI73
aI75
aI74
aI3
aI4
aI5
aI49
aI85
aI5
aI5
aI6
aI6
aI7
asg35
(lp365
I73
aI75
aI75
aI73
aI72
aI9
aI9
aI9
aI75
aI72
aI72
aI72
aI72
aI74
aI73
aI73
aI53
aI73
aI75
aI74
aI3
aI49
aI4
aI85
aI67
aI91
aI93
aI5
aI47
aI5
asg37
(lp366
I73
aI75
aI75
aI73
aI72
aI9
aI9
aI9
aI75
aI72
aI72
aI72
aI72
aI74
aI73
aI73
aI53
aI73
aI75
aI74
aI3
aI49
aI4
aI5
aI5
aI85
aI5
aI6
aI6
aI7
asg39
(lp367
I73
aI75
aI75
aI73
aI72
aI9
aI9
aI9
aI75
aI72
aI72
aI72
aI72
aI74
aI73
aI73
aI53
aI73
aI75
aI74
aI3
aI49
aI4
aI85
aI67
aI91
aI93
aI5
aI47
aI5
asg41
(lp368
I73
aI75
aI75
aI73
aI72
aI9
aI9
aI9
aI75
aI72
aI72
aI72
aI72
aI74
aI73
aI73
aI53
aI73
aI75
aI74
aI3
aI49
aI67
aI4
aI85
aI5
aI47
aI91
aI5
aI48
asg43
(lp369
I73
aI75
aI75
aI73
aI72
aI9
aI9
aI9
aI75
aI72
aI72
aI72
aI72
aI74
aI73
aI73
aI53
aI73
aI75
aI74
aI67
aI3
aI4
aI5
aI49
aI85
aI47
aI91
aI93
aI95
asg45
(lp370
I73
aI75
aI75
aI73
aI72
aI9
aI9
aI9
aI75
aI72
aI72
aI72
aI72
aI74
aI73
aI73
aI53
aI73
aI75
aI74
aI3
aI49
aI4
aI85
aI67
aI91
aI93
aI5
aI47
aI5
assS'40'
p371
(dp372
S'11'
p373
(lp374
I73
aI75
aI75
aI73
aI72
aI9
aI9
aI9
aI75
aI72
aI72
aI72
aI72
aI74
aI73
aI73
aI53
aI73
aI75
aI74
aI67
aI91
aI464
aI3
aI49
aI4
aI85
aI93
aI5
aI47
asS'10'
p375
(lp376
I73
aI75
aI75
aI73
aI72
aI9
aI9
aI9
aI75
aI72
aI72
aI72
aI72
aI74
aI73
aI73
aI53
aI73
aI75
aI74
aI3
aI49
aI4
aI5
aI5
aI85
aI5
aI6
aI6
aI7
asS'13'
p377
(lp378
I73
aI75
aI75
aI73
aI72
aI9
aI9
aI9
aI75
aI72
aI72
aI72
aI72
aI74
aI73
aI73
aI53
aI73
aI75
aI74
aI3
aI49
aI67
aI4
aI85
aI91
aI93
aI5
aI47
aI5
asS'12'
p379
(lp380
I73
aI75
aI75
aI73
aI72
aI9
aI9
aI9
aI75
aI72
aI72
aI72
aI72
aI74
aI73
aI73
aI53
aI73
aI75
aI74
aI3
aI4
aI49
aI85
aI67
aI5
aI47
aI91
aI5
aI48
asS'15'
p381
(lp382
I73
aI75
aI75
aI73
aI72
aI9
aI9
aI9
aI75
aI72
aI72
aI72
aI72
aI74
aI73
aI73
aI53
aI73
aI75
aI74
aI3
aI4
aI49
aI85
aI67
aI91
aI93
aI5
aI47
aI95
asS'14'
p383
(lp384
I73
aI75
aI75
aI73
aI72
aI9
aI9
aI9
aI75
aI72
aI72
aI72
aI72
aI74
aI73
aI73
aI53
aI73
aI75
aI74
aI3
aI49
aI67
aI91
aI4
aI85
aI93
aI5
aI47
aI95
asS'17'
p385
(lp386
I73
aI75
aI75
aI73
aI72
aI9
aI9
aI9
aI75
aI72
aI72
aI72
aI72
aI74
aI73
aI73
aI53
aI73
aI75
aI74
aI3
aI49
aI67
aI91
aI93
aI464
aI4
aI85
aI5
aI47
asS'16'
p387
(lp388
I73
aI75
aI75
aI73
aI72
aI9
aI9
aI9
aI75
aI72
aI72
aI72
aI72
aI74
aI73
aI73
aI53
aI73
aI75
aI74
aI3
aI4
aI49
aI85
aI67
aI91
aI93
aI5
aI47
aI5
asS'19'
p389
(lp390
I73
aI75
aI75
aI73
aI72
aI9
aI9
aI9
aI75
aI72
aI72
aI72
aI72
aI74
aI73
aI73
aI53
aI73
aI75
aI74
aI3
aI4
aI49
aI5
aI85
aI47
aI67
aI91
aI93
aI95
asS'18'
p391
(lp392
I73
aI75
aI75
aI73
aI72
aI9
aI9
aI9
aI75
aI72
aI72
aI72
aI72
aI74
aI73
aI73
aI53
aI73
aI75
aI74
aI67
aI3
aI4
aI49
aI85
aI91
aI93
aI5
aI47
aI5
asg27
(lp393
I73
aI75
aI75
aI73
aI72
aI9
aI9
aI9
aI75
aI72
aI72
aI72
aI72
aI74
aI73
aI73
aI53
aI73
aI75
aI74
aI3
aI49
aI67
aI91
aI4
aI85
aI93
aI5
aI47
aI95
asg29
(lp394
I73
aI75
aI75
aI73
aI72
aI9
aI9
aI9
aI75
aI72
aI72
aI72
aI72
aI74
aI73
aI73
aI53
aI73
aI75
aI74
aI3
aI49
aI67
aI4
aI85
aI5
aI47
aI91
aI93
aI5
asg31
(lp395
I73
aI75
aI75
aI73
aI72
aI9
aI9
aI9
aI75
aI72
aI72
aI72
aI72
aI74
aI73
aI73
aI53
aI73
aI75
aI74
aI67
aI91
aI464
aI3
aI49
aI93
aI4
aI85
aI5
aI47
asg33
(lp396
I73
aI75
aI75
aI73
aI72
aI9
aI9
aI9
aI75
aI72
aI72
aI72
aI72
aI74
aI73
aI73
aI53
aI73
aI75
aI74
aI3
aI4
aI5
aI49
aI5
aI85
aI5
aI6
aI6
aI7
asg35
(lp397
I73
aI75
aI75
aI73
aI72
aI9
aI9
aI9
aI75
aI72
aI72
aI72
aI72
aI74
aI73
aI73
aI53
aI73
aI75
aI74
aI67
aI91
aI464
aI3
aI49
aI4
aI85
aI93
aI5
aI47
asg37
(lp398
I73
aI75
aI75
aI73
aI72
aI9
aI9
aI9
aI75
aI72
aI72
aI72
aI72
aI74
aI73
aI73
aI53
aI73
aI75
aI74
aI3
aI4
aI5
aI49
aI5
aI85
aI5
aI6
aI6
aI7
asg39
(lp399
I73
aI75
aI75
aI73
aI72
aI9
aI9
aI9
aI75
aI72
aI72
aI72
aI72
aI74
aI73
aI73
aI53
aI73
aI75
aI74
aI67
aI3
aI4
aI5
aI49
aI85
aI47
aI91
aI5
aI48
asg41
(lp400
I73
aI75
aI75
aI73
aI72
aI9
aI9
aI9
aI75
aI72
aI72
aI72
aI72
aI74
aI73
aI73
aI53
aI73
aI75
aI74
aI3
aI4
aI5
aI49
aI85
aI5
aI5
aI6
aI6
aI7
asg43
(lp401
I73
aI75
aI75
aI73
aI72
aI9
aI9
aI9
aI75
aI72
aI72
aI72
aI72
aI74
aI73
aI73
aI53
aI73
aI75
aI74
aI3
aI49
aI67
aI91
aI4
aI85
aI93
aI5
aI47
aI5
asg45
(lp402
I73
aI75
aI75
aI73
aI72
aI9
aI9
aI9
aI75
aI72
aI72
aI72
aI72
aI74
aI73
aI73
aI53
aI73
aI75
aI74
aI67
aI3
aI4
aI49
aI85
aI91
aI93
aI5
aI47
aI95
asssS'./BWLocker/sac/sac_9'
p403
(dp404
S'60'
p405
(dp406
S'11'
p407
(lp408
I160
aI163
aI164
aI159
aI154
aI7
aI7
aI7
aI166
aI152
aI152
aI153
aI154
aI163
aI160
aI160
aI113
aI159
aI163
aI163
aI0
aI15
aI0
aI1
aI2
aI10
aI20
aI3
aI3
aI3
asS'10'
p409
(lp410
I160
aI163
aI164
aI159
aI154
aI7
aI7
aI7
aI166
aI152
aI152
aI153
aI154
aI163
aI160
aI160
aI113
aI159
aI163
aI163
aI0
aI0
aI1
aI2
aI10
aI15
aI20
aI3
aI3
aI3
asS'13'
p411
(lp412
I160
aI163
aI164
aI159
aI154
aI7
aI7
aI7
aI166
aI152
aI152
aI153
aI154
aI163
aI160
aI160
aI113
aI159
aI163
aI163
aI0
aI15
aI20
aI0
aI10
aI1
aI518
aI39
aI2
aI3
asS'12'
p413
(lp414
I160
aI163
aI164
aI159
aI154
aI7
aI7
aI7
aI166
aI152
aI152
aI153
aI154
aI163
aI160
aI160
aI113
aI159
aI163
aI163
aI0
aI15
aI0
aI1
aI2
aI10
aI20
aI3
aI3
aI3
asS'15'
p415
(lp416
I160
aI163
aI164
aI159
aI154
aI7
aI7
aI7
aI166
aI152
aI152
aI153
aI154
aI163
aI160
aI160
aI113
aI159
aI163
aI163
aI0
aI0
aI1
aI2
aI10
aI15
aI20
aI3
aI3
aI3
asS'14'
p417
(lp418
I160
aI163
aI164
aI159
aI154
aI7
aI7
aI7
aI166
aI152
aI152
aI153
aI154
aI163
aI160
aI160
aI113
aI159
aI163
aI163
aI0
aI15
aI20
aI0
aI10
aI1
aI518
aI2
aI3
aI3
asS'17'
p419
(lp420
I160
aI163
aI164
aI159
aI154
aI7
aI7
aI7
aI166
aI152
aI152
aI153
aI154
aI163
aI160
aI160
aI113
aI159
aI163
aI163
aI0
aI0
aI1
aI2
aI10
aI15
aI20
aI3
aI3
aI3
asS'16'
p421
(lp422
I160
aI163
aI164
aI159
aI154
aI7
aI7
aI7
aI166
aI152
aI152
aI153
aI154
aI163
aI160
aI160
aI113
aI159
aI163
aI163
aI0
aI15
aI20
aI22
aI28
aI47
aI0
aI10
aI39
aI58
asS'19'
p423
(lp424
I160
aI163
aI164
aI159
aI154
aI7
aI7
aI7
aI166
aI152
aI152
aI153
aI154
aI163
aI160
aI160
aI113
aI159
aI163
aI163
aI0
aI15
aI0
aI1
aI2
aI10
aI20
aI3
aI3
aI3
asS'18'
p425
(lp426
I160
aI163
aI164
aI159
aI154
aI7
aI7
aI7
aI166
aI152
aI152
aI153
aI154
aI163
aI160
aI160
aI113
aI159
aI163
aI163
aI0
aI0
aI1
aI2
aI10
aI15
aI20
aI3
aI3
aI3
asg27
(lp427
I160
aI163
aI164
aI159
aI154
aI7
aI7
aI7
aI166
aI152
aI152
aI153
aI154
aI163
aI160
aI160
aI113
aI159
aI163
aI163
aI0
aI0
aI1
aI2
aI10
aI15
aI20
aI3
aI3
aI3
asg29
(lp428
I160
aI163
aI164
aI159
aI154
aI7
aI7
aI7
aI166
aI152
aI152
aI153
aI154
aI163
aI160
aI160
aI113
aI159
aI163
aI163
aI0
aI0
aI1
aI2
aI10
aI15
aI20
aI3
aI3
aI3
asg31
(lp429
I160
aI163
aI164
aI159
aI154
aI7
aI7
aI7
aI166
aI152
aI152
aI153
aI154
aI163
aI160
aI160
aI113
aI159
aI163
aI163
aI0
aI0
aI1
aI2
aI10
aI15
aI20
aI3
aI3
aI3
asg33
(lp430
I160
aI163
aI164
aI159
aI154
aI7
aI7
aI7
aI166
aI152
aI152
aI153
aI154
aI163
aI160
aI160
aI113
aI159
aI163
aI163
aI0
aI15
aI20
aI22
aI28
aI0
aI10
aI39
aI1
aI518
asg35
(lp431
I160
aI163
aI164
aI159
aI154
aI7
aI7
aI7
aI166
aI152
aI152
aI153
aI154
aI163
aI160
aI160
aI113
aI159
aI163
aI163
aI0
aI15
aI0
aI1
aI2
aI10
aI20
aI3
aI3
aI3
asg37
(lp432
I160
aI163
aI164
aI159
aI154
aI7
aI7
aI7
aI166
aI152
aI152
aI153
aI154
aI163
aI160
aI160
aI113
aI159
aI163
aI163
aI0
aI0
aI1
aI2
aI10
aI15
aI20
aI3
aI3
aI3
asg39
(lp433
I160
aI163
aI164
aI159
aI154
aI7
aI7
aI7
aI166
aI152
aI152
aI153
aI154
aI163
aI160
aI160
aI113
aI159
aI163
aI163
aI0
aI0
aI1
aI2
aI10
aI15
aI20
aI3
aI3
aI3
asg41
(lp434
I160
aI163
aI164
aI159
aI154
aI7
aI7
aI7
aI166
aI152
aI152
aI153
aI154
aI163
aI160
aI160
aI113
aI159
aI163
aI163
aI0
aI0
aI1
aI2
aI10
aI15
aI20
aI3
aI3
aI3
asg43
(lp435
I160
aI163
aI164
aI159
aI154
aI7
aI7
aI7
aI166
aI152
aI152
aI153
aI154
aI163
aI160
aI160
aI113
aI159
aI163
aI163
aI0
aI15
aI0
aI1
aI2
aI10
aI20
aI3
aI3
aI3
asg45
(lp436
I160
aI163
aI164
aI159
aI154
aI7
aI7
aI7
aI166
aI152
aI152
aI153
aI154
aI163
aI160
aI160
aI113
aI159
aI163
aI163
aI0
aI15
aI0
aI1
aI2
aI10
aI20
aI3
aI3
aI3
assS'30'
p437
(dp438
S'11'
p439
(lp440
I160
aI163
aI164
aI159
aI154
aI7
aI7
aI7
aI166
aI152
aI152
aI153
aI154
aI163
aI160
aI160
aI113
aI159
aI163
aI163
aI0
aI0
aI1
aI2
aI10
aI15
aI20
aI3
aI3
aI3
asS'10'
p441
(lp442
I160
aI163
aI164
aI159
aI154
aI7
aI7
aI7
aI166
aI152
aI152
aI153
aI154
aI163
aI160
aI160
aI113
aI159
aI163
aI163
aI0
aI0
aI1
aI2
aI10
aI15
aI20
aI3
aI3
aI3
asS'13'
p443
(lp444
I160
aI163
aI164
aI159
aI154
aI7
aI7
aI7
aI166
aI152
aI152
aI153
aI154
aI163
aI160
aI160
aI113
aI159
aI163
aI163
aI0
aI0
aI1
aI2
aI10
aI15
aI20
aI3
aI3
aI3
asS'12'
p445
(lp446
I160
aI163
aI164
aI159
aI154
aI7
aI7
aI7
aI166
aI152
aI152
aI153
aI154
aI163
aI160
aI160
aI113
aI159
aI163
aI163
aI0
aI0
aI1
aI2
aI10
aI15
aI20
aI3
aI3
aI3
asS'15'
p447
(lp448
I160
aI163
aI164
aI159
aI154
aI7
aI7
aI7
aI166
aI152
aI152
aI153
aI154
aI163
aI160
aI160
aI113
aI159
aI163
aI163
aI0
aI0
aI1
aI2
aI10
aI15
aI20
aI3
aI3
aI3
asS'14'
p449
(lp450
I160
aI163
aI164
aI159
aI154
aI7
aI7
aI7
aI166
aI152
aI152
aI153
aI154
aI163
aI160
aI160
aI113
aI159
aI163
aI163
aI0
aI0
aI1
aI2
aI10
aI15
aI20
aI3
aI3
aI3
asS'17'
p451
(lp452
I160
aI163
aI164
aI159
aI154
aI7
aI7
aI7
aI166
aI152
aI152
aI153
aI154
aI163
aI160
aI160
aI113
aI159
aI163
aI163
aI0
aI0
aI1
aI2
aI10
aI15
aI20
aI3
aI3
aI3
asS'16'
p453
(lp454
I160
aI163
aI164
aI159
aI154
aI7
aI7
aI7
aI166
aI152
aI152
aI153
aI154
aI163
aI160
aI160
aI113
aI159
aI163
aI163
aI0
aI15
aI0
aI1
aI2
aI10
aI20
aI3
aI3
aI3
asS'19'
p455
(lp456
I160
aI163
aI164
aI159
aI154
aI7
aI7
aI7
aI166
aI152
aI152
aI153
aI154
aI163
aI160
aI160
aI113
aI159
aI163
aI163
aI0
aI0
aI1
aI2
aI10
aI15
aI20
aI3
aI3
aI3
asS'18'
p457
(lp458
I160
aI163
aI164
aI159
aI154
aI7
aI7
aI7
aI166
aI152
aI152
aI153
aI154
aI163
aI160
aI160
aI113
aI159
aI163
aI163
aI0
aI15
aI20
aI0
aI10
aI1
aI518
aI2
aI3
aI3
asg27
(lp459
I160
aI163
aI164
aI159
aI154
aI7
aI7
aI7
aI166
aI152
aI152
aI153
aI154
aI163
aI160
aI160
aI113
aI159
aI163
aI163
aI0
aI0
aI1
aI2
aI10
aI15
aI20
aI3
aI3
aI3
asg29
(lp460
I160
aI163
aI164
aI159
aI154
aI7
aI7
aI7
aI166
aI152
aI152
aI153
aI154
aI163
aI160
aI160
aI113
aI159
aI163
aI163
aI0
aI0
aI1
aI2
aI10
aI15
aI20
aI3
aI3
aI3
asg31
(lp461
I160
aI163
aI164
aI159
aI154
aI7
aI7
aI7
aI166
aI152
aI152
aI153
aI154
aI163
aI160
aI160
aI113
aI159
aI163
aI163
aI0
aI0
aI1
aI2
aI10
aI15
aI20
aI3
aI3
aI3
asg33
(lp462
I160
aI163
aI164
aI159
aI154
aI7
aI7
aI7
aI166
aI152
aI152
aI153
aI154
aI163
aI160
aI160
aI113
aI159
aI163
aI163
aI0
aI0
aI1
aI2
aI10
aI15
aI20
aI3
aI3
aI3
asg35
(lp463
I160
aI163
aI164
aI159
aI154
aI7
aI7
aI7
aI166
aI152
aI152
aI153
aI154
aI163
aI160
aI160
aI113
aI159
aI163
aI163
aI0
aI15
aI0
aI1
aI2
aI10
aI20
aI3
aI3
aI3
asg37
(lp464
I160
aI163
aI164
aI159
aI154
aI7
aI7
aI7
aI166
aI152
aI152
aI153
aI154
aI163
aI160
aI160
aI113
aI159
aI163
aI163
aI0
aI15
aI20
aI0
aI10
aI1
aI518
aI39
aI22
aI28
asg39
(lp465
I160
aI163
aI164
aI159
aI154
aI7
aI7
aI7
aI166
aI152
aI152
aI153
aI154
aI163
aI160
aI160
aI113
aI159
aI163
aI163
aI0
aI15
aI20
aI22
aI28
aI0
aI10
aI39
aI1
aI518
asg41
(lp466
I160
aI163
aI164
aI159
aI154
aI7
aI7
aI7
aI166
aI152
aI152
aI153
aI154
aI163
aI160
aI160
aI113
aI159
aI163
aI163
aI0
aI15
aI20
aI22
aI0
aI10
aI39
aI1
aI518
aI2
asg43
(lp467
I160
aI163
aI164
aI159
aI154
aI7
aI7
aI7
aI166
aI152
aI152
aI153
aI154
aI163
aI160
aI160
aI113
aI159
aI163
aI163
aI0
aI15
aI0
aI1
aI2
aI10
aI20
aI3
aI3
aI3
asg45
(lp468
I160
aI163
aI164
aI159
aI154
aI7
aI7
aI7
aI166
aI152
aI152
aI153
aI154
aI163
aI160
aI160
aI113
aI159
aI163
aI163
aI0
aI15
aI0
aI1
aI2
aI10
aI20
aI3
aI3
aI3
assS'50'
p469
(dp470
S'11'
p471
(lp472
I160
aI163
aI164
aI159
aI154
aI7
aI7
aI7
aI166
aI152
aI152
aI153
aI154
aI163
aI160
aI160
aI113
aI159
aI163
aI163
aI0
aI0
aI1
aI2
aI10
aI15
aI20
aI3
aI3
aI3
asS'10'
p473
(lp474
I160
aI163
aI164
aI159
aI154
aI7
aI7
aI7
aI166
aI152
aI152
aI153
aI154
aI163
aI160
aI160
aI113
aI159
aI163
aI163
aI0
aI0
aI1
aI2
aI10
aI15
aI20
aI3
aI3
aI3
asS'13'
p475
(lp476
I160
aI163
aI164
aI159
aI154
aI7
aI7
aI7
aI166
aI152
aI152
aI153
aI154
aI163
aI160
aI160
aI113
aI159
aI163
aI163
aI0
aI15
aI0
aI1
aI2
aI10
aI20
aI3
aI3
aI3
asS'12'
p477
(lp478
I160
aI163
aI164
aI159
aI154
aI7
aI7
aI7
aI166
aI152
aI152
aI153
aI154
aI163
aI160
aI160
aI113
aI159
aI163
aI163
aI0
aI15
aI20
aI22
aI0
aI10
aI39
aI1
aI518
aI28
asS'15'
p479
(lp480
I160
aI163
aI164
aI159
aI154
aI7
aI7
aI7
aI166
aI152
aI152
aI153
aI154
aI163
aI160
aI160
aI113
aI159
aI163
aI163
aI0
aI0
aI1
aI2
aI10
aI15
aI20
aI3
aI3
aI3
asS'14'
p481
(lp482
I160
aI163
aI164
aI159
aI154
aI7
aI7
aI7
aI166
aI152
aI152
aI153
aI154
aI163
aI160
aI160
aI113
aI159
aI163
aI163
aI0
aI0
aI1
aI2
aI10
aI15
aI20
aI3
aI3
aI3
asS'17'
p483
(lp484
I160
aI163
aI164
aI159
aI154
aI7
aI7
aI7
aI166
aI152
aI152
aI153
aI154
aI163
aI160
aI160
aI113
aI159
aI163
aI163
aI0
aI15
aI0
aI1
aI2
aI10
aI20
aI3
aI3
aI3
asS'16'
p485
(lp486
I160
aI163
aI164
aI159
aI154
aI7
aI7
aI7
aI166
aI152
aI152
aI153
aI154
aI163
aI160
aI160
aI113
aI159
aI163
aI163
aI0
aI15
aI20
aI0
aI10
aI1
aI518
aI2
aI3
aI3
asS'19'
p487
(lp488
I160
aI163
aI164
aI159
aI154
aI7
aI7
aI7
aI166
aI152
aI152
aI153
aI154
aI163
aI160
aI160
aI113
aI159
aI163
aI163
aI0
aI0
aI1
aI2
aI10
aI15
aI20
aI3
aI3
aI3
asS'18'
p489
(lp490
I160
aI163
aI164
aI159
aI154
aI7
aI7
aI7
aI166
aI152
aI152
aI153
aI154
aI163
aI160
aI160
aI113
aI159
aI163
aI163
aI0
aI0
aI1
aI2
aI10
aI15
aI20
aI3
aI3
aI3
asg27
(lp491
I160
aI163
aI164
aI159
aI154
aI7
aI7
aI7
aI166
aI152
aI152
aI153
aI154
aI163
aI160
aI160
aI113
aI159
aI163
aI163
aI0
aI0
aI1
aI2
aI10
aI15
aI20
aI3
aI3
aI3
asg29
(lp492
I160
aI163
aI164
aI159
aI154
aI7
aI7
aI7
aI166
aI152
aI152
aI153
aI154
aI163
aI160
aI160
aI113
aI159
aI163
aI163
aI0
aI15
aI20
aI22
aI0
aI10
aI39
aI1
aI518
aI2
asg31
(lp493
I160
aI163
aI164
aI159
aI154
aI7
aI7
aI7
aI166
aI152
aI152
aI153
aI154
aI163
aI160
aI160
aI113
aI159
aI163
aI163
aI0
aI15
aI0
aI1
aI2
aI10
aI20
aI3
aI3
aI3
asg33
(lp494
I160
aI163
aI164
aI159
aI154
aI7
aI7
aI7
aI166
aI152
aI152
aI153
aI154
aI163
aI160
aI160
aI113
aI159
aI163
aI163
aI0
aI15
aI20
aI0
aI10
aI39
aI1
aI518
aI2
aI3
asg35
(lp495
I160
aI163
aI164
aI159
aI154
aI7
aI7
aI7
aI166
aI152
aI152
aI153
aI154
aI163
aI160
aI160
aI113
aI159
aI163
aI163
aI0
aI15
aI0
aI1
aI2
aI10
aI20
aI3
aI3
aI3
asg37
(lp496
I160
aI163
aI164
aI159
aI154
aI7
aI7
aI7
aI166
aI152
aI152
aI153
aI154
aI163
aI160
aI160
aI113
aI159
aI163
aI163
aI0
aI0
aI1
aI2
aI10
aI15
aI20
aI3
aI3
aI3
asg39
(lp497
I160
aI163
aI164
aI159
aI154
aI7
aI7
aI7
aI166
aI152
aI152
aI153
aI154
aI163
aI160
aI160
aI113
aI159
aI163
aI163
aI0
aI15
aI20
aI22
aI28
aI47
aI0
aI10
aI39
aI58
asg41
(lp498
I160
aI163
aI164
aI159
aI154
aI7
aI7
aI7
aI166
aI152
aI152
aI153
aI154
aI163
aI160
aI160
aI113
aI159
aI163
aI163
aI0
aI0
aI1
aI2
aI10
aI15
aI20
aI3
aI3
aI3
asg43
(lp499
I160
aI163
aI164
aI159
aI154
aI7
aI7
aI7
aI166
aI152
aI152
aI153
aI154
aI163
aI160
aI160
aI113
aI159
aI163
aI163
aI0
aI0
aI1
aI2
aI10
aI15
aI20
aI3
aI3
aI3
asg45
(lp500
I160
aI163
aI164
aI159
aI154
aI7
aI7
aI7
aI166
aI152
aI152
aI153
aI154
aI163
aI160
aI160
aI113
aI159
aI163
aI163
aI0
aI15
aI0
aI1
aI2
aI10
aI20
aI3
aI3
aI3
assS'40'
p501
(dp502
S'11'
p503
(lp504
I160
aI163
aI164
aI159
aI154
aI7
aI7
aI7
aI166
aI152
aI152
aI153
aI154
aI163
aI160
aI160
aI113
aI159
aI163
aI163
aI0
aI0
aI1
aI2
aI10
aI15
aI20
aI3
aI3
aI3
asS'10'
p505
(lp506
I160
aI163
aI164
aI159
aI154
aI7
aI7
aI7
aI166
aI152
aI152
aI153
aI154
aI163
aI160
aI160
aI113
aI159
aI163
aI163
aI0
aI0
aI1
aI2
aI10
aI15
aI20
aI3
aI3
aI3
asS'13'
p507
(lp508
I160
aI163
aI164
aI159
aI154
aI7
aI7
aI7
aI166
aI152
aI152
aI153
aI154
aI163
aI160
aI160
aI113
aI159
aI163
aI163
aI0
aI15
aI20
aI0
aI10
aI1
aI518
aI2
aI3
aI3
asS'12'
p509
(lp510
I160
aI163
aI164
aI159
aI154
aI7
aI7
aI7
aI166
aI152
aI152
aI153
aI154
aI163
aI160
aI160
aI113
aI159
aI163
aI163
aI0
aI0
aI1
aI2
aI10
aI15
aI20
aI3
aI3
aI3
asS'15'
p511
(lp512
I160
aI163
aI164
aI159
aI154
aI7
aI7
aI7
aI166
aI152
aI152
aI153
aI154
aI163
aI160
aI160
aI113
aI159
aI163
aI163
aI0
aI15
aI20
aI22
aI0
aI10
aI39
aI28
aI58
aI47
asS'14'
p513
(lp514
I160
aI163
aI164
aI159
aI154
aI7
aI7
aI7
aI166
aI152
aI152
aI153
aI154
aI163
aI160
aI160
aI113
aI159
aI163
aI163
aI0
aI15
aI0
aI1
aI2
aI10
aI20
aI3
aI3
aI3
asS'17'
p515
(lp516
I160
aI163
aI164
aI159
aI154
aI7
aI7
aI7
aI166
aI152
aI152
aI153
aI154
aI163
aI160
aI160
aI113
aI159
aI163
aI163
aI0
aI15
aI0
aI1
aI2
aI10
aI20
aI3
aI3
aI3
asS'16'
p517
(lp518
I160
aI163
aI164
aI159
aI154
aI7
aI7
aI7
aI166
aI152
aI152
aI153
aI154
aI163
aI160
aI160
aI113
aI159
aI163
aI163
aI0
aI15
aI0
aI1
aI2
aI10
aI20
aI3
aI3
aI3
asS'19'
p519
(lp520
I160
aI163
aI164
aI159
aI154
aI7
aI7
aI7
aI166
aI152
aI152
aI153
aI154
aI163
aI160
aI160
aI113
aI159
aI163
aI163
aI0
aI15
aI20
aI22
aI0
aI10
aI39
aI28
aI58
aI47
asS'18'
p521
(lp522
I160
aI163
aI164
aI159
aI154
aI7
aI7
aI7
aI166
aI152
aI152
aI153
aI154
aI163
aI160
aI160
aI113
aI159
aI163
aI163
aI0
aI0
aI1
aI2
aI10
aI15
aI20
aI3
aI3
aI3
asg27
(lp523
I160
aI163
aI164
aI159
aI154
aI7
aI7
aI7
aI166
aI152
aI152
aI153
aI154
aI163
aI160
aI160
aI113
aI159
aI163
aI163
aI0
aI15
aI20
aI0
aI10
aI1
aI518
aI39
aI2
aI3
asg29
(lp524
I160
aI163
aI164
aI159
aI154
aI7
aI7
aI7
aI166
aI152
aI152
aI153
aI154
aI163
aI160
aI160
aI113
aI159
aI163
aI163
aI0
aI15
aI20
aI22
aI28
aI0
aI10
aI39
aI58
aI47
asg31
(lp525
I160
aI163
aI164
aI159
aI154
aI7
aI7
aI7
aI166
aI152
aI152
aI153
aI154
aI163
aI160
aI160
aI113
aI159
aI163
aI163
aI0
aI0
aI1
aI2
aI10
aI15
aI20
aI3
aI3
aI3
asg33
(lp526
I160
aI163
aI164
aI159
aI154
aI7
aI7
aI7
aI166
aI152
aI152
aI153
aI154
aI163
aI160
aI160
aI113
aI159
aI163
aI163
aI0
aI15
aI0
aI1
aI2
aI10
aI20
aI3
aI3
aI3
asg35
(lp527
I160
aI163
aI164
aI159
aI154
aI7
aI7
aI7
aI166
aI152
aI152
aI153
aI154
aI163
aI160
aI160
aI113
aI159
aI163
aI163
aI0
aI15
aI20
aI0
aI10
aI39
aI22
aI1
aI518
aI2
asg37
(lp528
I160
aI163
aI164
aI159
aI154
aI7
aI7
aI7
aI166
aI152
aI152
aI153
aI154
aI163
aI160
aI160
aI113
aI159
aI163
aI163
aI0
aI15
aI20
aI0
aI10
aI39
aI1
aI518
aI2
aI3
asg39
(lp529
I160
aI163
aI164
aI159
aI154
aI7
aI7
aI7
aI166
aI152
aI152
aI153
aI154
aI163
aI160
aI160
aI113
aI159
aI163
aI163
aI0
aI0
aI1
aI2
aI10
aI15
aI20
aI3
aI3
aI3
asg41
(lp530
I160
aI163
aI164
aI159
aI154
aI7
aI7
aI7
aI166
aI152
aI152
aI153
aI154
aI163
aI160
aI160
aI113
aI159
aI163
aI163
aI0
aI0
aI1
aI2
aI10
aI15
aI20
aI3
aI3
aI3
asg43
(lp531
I160
aI163
aI164
aI159
aI154
aI7
aI7
aI7
aI166
aI152
aI152
aI153
aI154
aI163
aI160
aI160
aI113
aI159
aI163
aI163
aI0
aI0
aI1
aI2
aI10
aI15
aI20
aI3
aI3
aI3
asg45
(lp532
I160
aI163
aI164
aI159
aI154
aI7
aI7
aI7
aI166
aI152
aI152
aI153
aI154
aI163
aI160
aI160
aI113
aI159
aI163
aI163
aI0
aI0
aI1
aI2
aI10
aI15
aI20
aI3
aI3
aI3
asssS'./BWLocker/sac/sac_8'
p533
(dp534
S'60'
p535
(dp536
S'11'
p537
(lp538
I89
aI97
aI100
aI87
aI83
aI8
aI8
aI8
aI103
aI81
aI81
aI82
aI83
aI94
aI89
aI89
aI68
aI87
aI97
aI94
aI5
aI59
aI11
aI11
aI65
aI12
aI13
aI13
aI63
aI118
asS'10'
p539
(lp540
I89
aI97
aI100
aI87
aI83
aI8
aI8
aI8
aI103
aI81
aI81
aI82
aI83
aI94
aI89
aI89
aI68
aI87
aI97
aI94
aI5
aI11
aI59
aI11
aI65
aI12
aI13
aI13
aI63
aI118
asS'13'
p541
(lp542
I89
aI97
aI100
aI87
aI83
aI8
aI8
aI8
aI103
aI81
aI81
aI82
aI83
aI94
aI89
aI89
aI68
aI87
aI97
aI94
aI5
aI11
aI18
aI59
aI11
aI65
aI12
aI13
aI13
aI63
asS'12'
p543
(lp544
I89
aI97
aI100
aI87
aI83
aI8
aI8
aI8
aI103
aI81
aI81
aI82
aI83
aI94
aI89
aI89
aI68
aI87
aI97
aI94
aI5
aI11
aI18
aI59
aI65
aI11
aI12
aI13
aI13
aI63
asS'15'
p545
(lp546
I89
aI97
aI100
aI87
aI83
aI8
aI8
aI8
aI103
aI81
aI81
aI82
aI83
aI94
aI89
aI89
aI68
aI87
aI97
aI94
aI5
aI18
aI59
aI11
aI11
aI65
aI12
aI13
aI13
aI63
asS'14'
p547
(lp548
I89
aI97
aI100
aI87
aI83
aI8
aI8
aI8
aI103
aI81
aI81
aI82
aI83
aI94
aI89
aI89
aI68
aI87
aI97
aI94
aI5
aI18
aI59
aI11
aI11
aI65
aI12
aI13
aI13
aI16
asS'17'
p549
(lp550
I89
aI97
aI100
aI87
aI83
aI8
aI8
aI8
aI103
aI81
aI81
aI82
aI83
aI94
aI89
aI89
aI68
aI87
aI97
aI94
aI5
aI18
aI59
aI11
aI65
aI118
aI63
aI159
aI7
aI0
asS'16'
p551
(lp552
I89
aI97
aI100
aI87
aI83
aI8
aI8
aI8
aI103
aI81
aI81
aI82
aI83
aI94
aI89
aI89
aI68
aI87
aI97
aI94
aI5
aI59
aI65
aI11
aI118
aI11
aI63
aI159
aI7
aI0
asS'19'
p553
(lp554
I89
aI97
aI100
aI87
aI83
aI8
aI8
aI8
aI103
aI81
aI81
aI82
aI83
aI94
aI89
aI89
aI68
aI87
aI97
aI94
aI5
aI59
aI11
aI11
aI65
aI12
aI13
aI13
aI16
aI39
asS'18'
p555
(lp556
I89
aI97
aI100
aI87
aI83
aI8
aI8
aI8
aI103
aI81
aI81
aI82
aI83
aI94
aI89
aI89
aI68
aI87
aI97
aI94
aI5
aI59
aI11
aI65
aI118
aI159
aI166
aI7
aI73
aI157
asg27
(lp557
I89
aI97
aI100
aI87
aI83
aI8
aI8
aI8
aI103
aI81
aI81
aI82
aI83
aI94
aI89
aI89
aI68
aI87
aI97
aI94
aI5
aI18
aI59
aI11
aI11
aI65
aI12
aI13
aI13
aI16
asg29
(lp558
I89
aI97
aI100
aI87
aI83
aI8
aI8
aI8
aI103
aI81
aI81
aI82
aI83
aI94
aI89
aI89
aI68
aI87
aI97
aI94
aI5
aI18
aI59
aI65
aI63
aI159
aI7
aI0
aI2
aI78
asg31
(lp559
I89
aI97
aI100
aI87
aI83
aI8
aI8
aI8
aI103
aI81
aI81
aI82
aI83
aI94
aI89
aI89
aI68
aI87
aI97
aI94
aI5
aI11
aI59
aI65
aI118
aI11
aI12
aI63
aI63
aI159
asg33
(lp560
I89
aI97
aI100
aI87
aI83
aI8
aI8
aI8
aI103
aI81
aI81
aI82
aI83
aI94
aI89
aI89
aI68
aI87
aI97
aI94
aI5
aI59
aI65
aI159
aI18
aI0
aI2
aI13
aI78
aI57
asg35
(lp561
I89
aI97
aI100
aI87
aI83
aI8
aI8
aI8
aI103
aI81
aI81
aI82
aI83
aI94
aI89
aI89
aI68
aI87
aI97
aI94
aI5
aI59
aI65
aI11
aI118
aI11
aI12
aI13
aI13
aI63
asg37
(lp562
I89
aI97
aI100
aI87
aI83
aI8
aI8
aI8
aI103
aI81
aI81
aI82
aI83
aI94
aI89
aI89
aI68
aI87
aI97
aI94
aI5
aI11
aI59
aI65
aI11
aI12
aI13
aI13
aI63
aI118
asg39
(lp563
I89
aI97
aI100
aI87
aI83
aI8
aI8
aI8
aI103
aI81
aI81
aI82
aI83
aI94
aI89
aI89
aI68
aI87
aI97
aI94
aI5
aI59
aI11
aI65
aI118
aI11
aI12
aI63
aI63
aI159
asg41
(lp564
I89
aI97
aI100
aI87
aI83
aI8
aI8
aI8
aI103
aI81
aI81
aI82
aI83
aI94
aI89
aI89
aI68
aI87
aI97
aI94
aI5
aI11
aI59
aI11
aI65
aI12
aI13
aI13
aI63
aI118
asg43
(lp565
I89
aI97
aI100
aI87
aI83
aI8
aI8
aI8
aI103
aI81
aI81
aI82
aI83
aI94
aI89
aI89
aI68
aI87
aI97
aI94
aI5
aI59
aI11
aI11
aI65
aI12
aI13
aI13
aI16
aI18
asg45
(lp566
I89
aI97
aI100
aI87
aI83
aI8
aI8
aI8
aI103
aI81
aI81
aI82
aI83
aI94
aI89
aI89
aI68
aI87
aI97
aI94
aI5
aI18
aI11
aI59
aI65
aI11
aI12
aI13
aI13
aI63
assS'30'
p567
(dp568
S'11'
p569
(lp570
I89
aI97
aI100
aI87
aI83
aI8
aI8
aI8
aI103
aI81
aI81
aI82
aI83
aI94
aI89
aI89
aI68
aI87
aI97
aI94
aI5
aI59
aI11
aI65
aI118
aI11
aI63
aI159
aI7
aI0
asS'10'
p571
(lp572
I89
aI97
aI100
aI87
aI83
aI8
aI8
aI8
aI103
aI81
aI81
aI82
aI83
aI94
aI89
aI89
aI68
aI87
aI97
aI94
aI5
aI18
aI59
aI11
aI11
aI65
aI12
aI13
aI13
aI63
asS'13'
p573
(lp574
I89
aI97
aI100
aI87
aI83
aI8
aI8
aI8
aI103
aI81
aI81
aI82
aI83
aI94
aI89
aI89
aI68
aI87
aI97
aI94
aI5
aI18
aI59
aI11
aI11
aI65
aI12
aI13
aI13
aI16
asS'12'
p575
(lp576
I89
aI97
aI100
aI87
aI83
aI8
aI8
aI8
aI103
aI81
aI81
aI82
aI83
aI94
aI89
aI89
aI68
aI87
aI97
aI94
aI5
aI11
aI18
aI59
aI65
aI11
aI12
aI13
aI13
aI63
asS'15'
p577
(lp578
I89
aI97
aI100
aI87
aI83
aI8
aI8
aI8
aI103
aI81
aI81
aI82
aI83
aI94
aI89
aI89
aI68
aI87
aI97
aI94
aI5
aI18
aI11
aI59
aI11
aI65
aI12
aI13
aI13
aI16
asS'14'
p579
(lp580
I89
aI97
aI100
aI87
aI83
aI8
aI8
aI8
aI103
aI81
aI81
aI82
aI83
aI94
aI89
aI89
aI68
aI87
aI97
aI94
aI5
aI11
aI18
aI59
aI65
aI11
aI12
aI13
aI13
aI63
asS'17'
p581
(lp582
I89
aI97
aI100
aI87
aI83
aI8
aI8
aI8
aI103
aI81
aI81
aI82
aI83
aI94
aI89
aI89
aI68
aI87
aI97
aI94
aI5
aI59
aI11
aI65
aI118
aI159
aI166
aI7
aI73
aI157
asS'16'
p583
(lp584
I89
aI97
aI100
aI87
aI83
aI8
aI8
aI8
aI103
aI81
aI81
aI82
aI83
aI94
aI89
aI89
aI68
aI87
aI97
aI94
aI5
aI18
aI59
aI11
aI11
aI65
aI12
aI13
aI13
aI63
asS'19'
p585
(lp586
I89
aI97
aI100
aI87
aI83
aI8
aI8
aI8
aI103
aI81
aI81
aI82
aI83
aI94
aI89
aI89
aI68
aI87
aI97
aI94
aI5
aI59
aI11
aI11
aI65
aI12
aI13
aI13
aI63
aI118
asS'18'
p587
(lp588
I89
aI97
aI100
aI87
aI83
aI8
aI8
aI8
aI103
aI81
aI81
aI82
aI83
aI94
aI89
aI89
aI68
aI87
aI97
aI94
aI5
aI18
aI59
aI11
aI11
aI65
aI12
aI13
aI13
aI63
asg27
(lp589
I89
aI97
aI100
aI87
aI83
aI8
aI8
aI8
aI103
aI81
aI81
aI82
aI83
aI94
aI89
aI89
aI68
aI87
aI97
aI94
aI5
aI18
aI59
aI11
aI65
aI118
aI11
aI63
aI63
aI159
asg29
(lp590
I89
aI97
aI100
aI87
aI83
aI8
aI8
aI8
aI103
aI81
aI81
aI82
aI83
aI94
aI89
aI89
aI68
aI87
aI97
aI94
aI5
aI18
aI11
aI59
aI11
aI65
aI12
aI13
aI13
aI63
asg31
(lp591
I89
aI97
aI100
aI87
aI83
aI8
aI8
aI8
aI103
aI81
aI81
aI82
aI83
aI94
aI89
aI89
aI68
aI87
aI97
aI94
aI5
aI59
aI11
aI65
aI118
aI11
aI63
aI159
aI7
aI0
asg33
(lp592
I89
aI97
aI100
aI87
aI83
aI8
aI8
aI8
aI103
aI81
aI81
aI82
aI83
aI94
aI89
aI89
aI68
aI87
aI97
aI94
aI5
aI11
aI18
aI59
aI65
aI118
aI63
aI159
aI7
aI0
asg35
(lp593
I89
aI97
aI100
aI87
aI83
aI8
aI8
aI8
aI103
aI81
aI81
aI82
aI83
aI94
aI89
aI89
aI68
aI87
aI97
aI94
aI5
aI18
aI59
aI11
aI11
aI65
aI12
aI13
aI13
aI63
asg37
(lp594
I89
aI97
aI100
aI87
aI83
aI8
aI8
aI8
aI103
aI81
aI81
aI82
aI83
aI94
aI89
aI89
aI68
aI87
aI97
aI94
aI5
aI18
aI59
aI11
aI11
aI65
aI12
aI13
aI13
aI63
asg39
(lp595
I89
aI97
aI100
aI87
aI83
aI8
aI8
aI8
aI103
aI81
aI81
aI82
aI83
aI94
aI89
aI89
aI68
aI87
aI97
aI94
aI5
aI11
aI59
aI65
aI11
aI12
aI13
aI13
aI63
aI118
asg41
(lp596
I89
aI97
aI100
aI87
aI83
aI8
aI8
aI8
aI103
aI81
aI81
aI82
aI83
aI94
aI89
aI89
aI68
aI87
aI97
aI94
aI5
aI59
aI11
aI65
aI11
aI12
aI13
aI13
aI63
aI118
asg43
(lp597
I89
aI97
aI100
aI87
aI83
aI8
aI8
aI8
aI103
aI81
aI81
aI82
aI83
aI94
aI89
aI89
aI68
aI87
aI97
aI94
aI5
aI11
aI18
aI59
aI65
aI11
aI12
aI13
aI13
aI63
asg45
(lp598
I89
aI97
aI100
aI87
aI83
aI8
aI8
aI8
aI103
aI81
aI81
aI82
aI83
aI94
aI89
aI89
aI68
aI87
aI97
aI94
aI5
aI18
aI59
aI11
aI11
aI65
aI12
aI13
aI13
aI63
assS'50'
p599
(dp600
S'11'
p601
(lp602
I89
aI97
aI100
aI87
aI83
aI8
aI8
aI8
aI103
aI81
aI81
aI82
aI83
aI94
aI89
aI89
aI68
aI87
aI97
aI94
aI5
aI59
aI65
aI11
aI118
aI11
aI63
aI159
aI166
aI10
asS'10'
p603
(lp604
I89
aI97
aI100
aI87
aI83
aI8
aI8
aI8
aI103
aI81
aI81
aI82
aI83
aI94
aI89
aI89
aI68
aI87
aI97
aI94
aI5
aI59
aI11
aI11
aI65
aI12
aI13
aI13
aI63
aI118
asS'13'
p605
(lp606
I89
aI97
aI100
aI87
aI83
aI8
aI8
aI8
aI103
aI81
aI81
aI82
aI83
aI94
aI89
aI89
aI68
aI87
aI97
aI94
aI5
aI59
aI11
aI65
aI11
aI12
aI13
aI13
aI63
aI118
asS'12'
p607
(lp608
I89
aI97
aI100
aI87
aI83
aI8
aI8
aI8
aI103
aI81
aI81
aI82
aI83
aI94
aI89
aI89
aI68
aI87
aI97
aI94
aI5
aI59
aI11
aI65
aI118
aI159
aI18
aI0
aI78
aI2
asS'15'
p609
(lp610
I89
aI97
aI100
aI87
aI83
aI8
aI8
aI8
aI103
aI81
aI81
aI82
aI83
aI94
aI89
aI89
aI68
aI87
aI97
aI94
aI5
aI59
aI11
aI65
aI118
aI11
aI63
aI159
aI166
aI10
asS'14'
p611
(lp612
I89
aI97
aI100
aI87
aI83
aI8
aI8
aI8
aI103
aI81
aI81
aI82
aI83
aI94
aI89
aI89
aI68
aI87
aI97
aI94
aI5
aI18
aI11
aI59
aI65
aI118
aI63
aI159
aI7
aI0
asS'17'
p613
(lp614
I89
aI97
aI100
aI87
aI83
aI8
aI8
aI8
aI103
aI81
aI81
aI82
aI83
aI94
aI89
aI89
aI68
aI87
aI97
aI94
aI5
aI59
aI11
aI65
aI118
aI159
aI0
aI2
aI13
aI78
asS'16'
p615
(lp616
I89
aI97
aI100
aI87
aI83
aI8
aI8
aI8
aI103
aI81
aI81
aI82
aI83
aI94
aI89
aI89
aI68
aI87
aI97
aI94
aI5
aI11
aI18
aI59
aI11
aI65
aI12
aI13
aI13
aI63
asS'19'
p617
(lp618
I89
aI97
aI100
aI87
aI83
aI8
aI8
aI8
aI103
aI81
aI81
aI82
aI83
aI94
aI89
aI89
aI68
aI87
aI97
aI94
aI5
aI18
aI59
aI65
aI11
aI11
aI12
aI13
aI13
aI63
asS'18'
p619
(lp620
I89
aI97
aI100
aI87
aI83
aI8
aI8
aI8
aI103
aI81
aI81
aI82
aI83
aI94
aI89
aI89
aI68
aI87
aI97
aI94
aI5
aI59
aI65
aI11
aI118
aI11
aI12
aI13
aI13
aI63
asg27
(lp621
I89
aI97
aI100
aI87
aI83
aI8
aI8
aI8
aI103
aI81
aI81
aI82
aI83
aI94
aI89
aI89
aI68
aI87
aI97
aI94
aI5
aI18
aI59
aI65
aI63
aI159
aI7
aI0
aI15
aI2
asg29
(lp622
I89
aI97
aI100
aI87
aI83
aI8
aI8
aI8
aI103
aI81
aI81
aI82
aI83
aI94
aI89
aI89
aI68
aI87
aI97
aI94
aI5
aI18
aI59
aI11
aI11
aI65
aI12
aI13
aI13
aI63
asg31
(lp623
I89
aI97
aI100
aI87
aI83
aI8
aI8
aI8
aI103
aI81
aI81
aI82
aI83
aI94
aI89
aI89
aI68
aI87
aI97
aI94
aI5
aI11
aI18
aI59
aI65
aI11
aI12
aI13
aI13
aI63
asg33
(lp624
I89
aI97
aI100
aI87
aI83
aI8
aI8
aI8
aI103
aI81
aI81
aI82
aI83
aI94
aI89
aI89
aI68
aI87
aI97
aI94
aI5
aI18
aI59
aI65
aI63
aI159
aI7
aI0
aI2
aI13
asg35
(lp625
I89
aI97
aI100
aI87
aI83
aI8
aI8
aI8
aI103
aI81
aI81
aI82
aI83
aI94
aI89
aI89
aI68
aI87
aI97
aI94
aI5
aI59
aI65
aI11
aI118
aI11
aI63
aI159
aI7
aI15
asg37
(lp626
I89
aI97
aI100
aI87
aI83
aI8
aI8
aI8
aI103
aI81
aI81
aI82
aI83
aI94
aI89
aI89
aI68
aI87
aI97
aI94
aI5
aI11
aI18
aI59
aI11
aI65
aI12
aI13
aI13
aI63
asg39
(lp627
I89
aI97
aI100
aI87
aI83
aI8
aI8
aI8
aI103
aI81
aI81
aI82
aI83
aI94
aI89
aI89
aI68
aI87
aI97
aI94
aI5
aI11
aI59
aI11
aI65
aI12
aI13
aI13
aI63
aI118
asg41
(lp628
I89
aI97
aI100
aI87
aI83
aI8
aI8
aI8
aI103
aI81
aI81
aI82
aI83
aI94
aI89
aI89
aI68
aI87
aI97
aI94
aI5
aI11
aI59
aI11
aI65
aI12
aI13
aI13
aI16
aI63
asg43
(lp629
I89
aI97
aI100
aI87
aI83
aI8
aI8
aI8
aI103
aI81
aI81
aI82
aI83
aI94
aI89
aI89
aI68
aI87
aI97
aI94
aI5
aI18
aI59
aI11
aI65
aI118
aI63
aI159
aI7
aI0
asg45
(lp630
I89
aI97
aI100
aI87
aI83
aI8
aI8
aI8
aI103
aI81
aI81
aI82
aI83
aI94
aI89
aI89
aI68
aI87
aI97
aI94
aI5
aI18
aI59
aI65
aI11
aI11
aI12
aI13
aI13
aI16
assS'40'
p631
(dp632
S'11'
p633
(lp634
I89
aI97
aI100
aI87
aI83
aI8
aI8
aI8
aI103
aI81
aI81
aI82
aI83
aI94
aI89
aI89
aI68
aI87
aI97
aI94
aI5
aI59
aI11
aI11
aI65
aI12
aI13
aI13
aI63
aI118
asS'10'
p635
(lp636
I89
aI97
aI100
aI87
aI83
aI8
aI8
aI8
aI103
aI81
aI81
aI82
aI83
aI94
aI89
aI89
aI68
aI87
aI97
aI94
aI5
aI11
aI18
aI59
aI65
aI11
aI12
aI13
aI13
aI63
asS'13'
p637
(lp638
I89
aI97
aI100
aI87
aI83
aI8
aI8
aI8
aI103
aI81
aI81
aI82
aI83
aI94
aI89
aI89
aI68
aI87
aI97
aI94
aI5
aI18
aI59
aI11
aI11
aI65
aI12
aI13
aI13
aI63
asS'12'
p639
(lp640
I89
aI97
aI100
aI87
aI83
aI8
aI8
aI8
aI103
aI81
aI81
aI82
aI83
aI94
aI89
aI89
aI68
aI87
aI97
aI94
aI5
aI11
aI59
aI11
aI65
aI12
aI13
aI13
aI63
aI118
asS'15'
p641
(lp642
I89
aI97
aI100
aI87
aI83
aI8
aI8
aI8
aI103
aI81
aI81
aI82
aI83
aI94
aI89
aI89
aI68
aI87
aI97
aI94
aI5
aI18
aI59
aI11
aI65
aI118
aI63
aI159
aI7
aI0
asS'14'
p643
(lp644
I89
aI97
aI100
aI87
aI83
aI8
aI8
aI8
aI103
aI81
aI81
aI82
aI83
aI94
aI89
aI89
aI68
aI87
aI97
aI94
aI5
aI11
aI59
aI11
aI65
aI12
aI13
aI13
aI63
aI118
asS'17'
p645
(lp646
I89
aI97
aI100
aI87
aI83
aI8
aI8
aI8
aI103
aI81
aI81
aI82
aI83
aI94
aI89
aI89
aI68
aI87
aI97
aI94
aI5
aI18
aI59
aI11
aI65
aI11
aI12
aI13
aI13
aI63
asS'16'
p647
(lp648
I89
aI97
aI100
aI87
aI83
aI8
aI8
aI8
aI103
aI81
aI81
aI82
aI83
aI94
aI89
aI89
aI68
aI87
aI97
aI94
aI5
aI59
aI11
aI11
aI65
aI12
aI13
aI13
aI63
aI118
asS'19'
p649
(lp650
I89
aI97
aI100
aI87
aI83
aI8
aI8
aI8
aI103
aI81
aI81
aI82
aI83
aI94
aI89
aI89
aI68
aI87
aI97
aI94
aI5
aI11
aI18
aI59
aI11
aI65
aI12
aI13
aI13
aI63
asS'18'
p651
(lp652
I89
aI97
aI100
aI87
aI83
aI8
aI8
aI8
aI103
aI81
aI81
aI82
aI83
aI94
aI89
aI89
aI68
aI87
aI97
aI94
aI5
aI11
aI59
aI65
aI11
aI12
aI13
aI13
aI63
aI118
asg27
(lp653
I89
aI97
aI100
aI87
aI83
aI8
aI8
aI8
aI103
aI81
aI81
aI82
aI83
aI94
aI89
aI89
aI68
aI87
aI97
aI94
aI5
aI11
aI18
aI59
aI65
aI118
aI63
aI11
aI63
aI159
asg29
(lp654
I89
aI97
aI100
aI87
aI83
aI8
aI8
aI8
aI103
aI81
aI81
aI82
aI83
aI94
aI89
aI89
aI68
aI87
aI97
aI94
aI5
aI11
aI18
aI59
aI65
aI11
aI12
aI13
aI13
aI16
asg31
(lp655
I89
aI97
aI100
aI87
aI83
aI8
aI8
aI8
aI103
aI81
aI81
aI82
aI83
aI94
aI89
aI89
aI68
aI87
aI97
aI94
aI5
aI59
aI11
aI65
aI11
aI12
aI13
aI13
aI16
aI63
asg33
(lp656
I89
aI97
aI100
aI87
aI83
aI8
aI8
aI8
aI103
aI81
aI81
aI82
aI83
aI94
aI89
aI89
aI68
aI87
aI97
aI94
aI5
aI18
aI59
aI11
aI65
aI118
aI11
aI12
aI13
aI13
asg35
(lp657
I89
aI97
aI100
aI87
aI83
aI8
aI8
aI8
aI103
aI81
aI81
aI82
aI83
aI94
aI89
aI89
aI68
aI87
aI97
aI94
aI5
aI11
aI59
aI11
aI65
aI12
aI13
aI13
aI63
aI118
asg37
(lp658
I89
aI97
aI100
aI87
aI83
aI8
aI8
aI8
aI103
aI81
aI81
aI82
aI83
aI94
aI89
aI89
aI68
aI87
aI97
aI94
aI5
aI18
aI59
aI65
aI63
aI159
aI7
aI0
aI2
aI13
asg39
(lp659
I89
aI97
aI100
aI87
aI83
aI8
aI8
aI8
aI103
aI81
aI81
aI82
aI83
aI94
aI89
aI89
aI68
aI87
aI97
aI94
aI5
aI11
aI59
aI11
aI65
aI12
aI13
aI13
aI16
aI63
asg41
(lp660
I89
aI97
aI100
aI87
aI83
aI8
aI8
aI8
aI103
aI81
aI81
aI82
aI83
aI94
aI89
aI89
aI68
aI87
aI97
aI94
aI5
aI11
aI18
aI59
aI11
aI65
aI12
aI13
aI13
aI63
asg43
(lp661
I89
aI97
aI100
aI87
aI83
aI8
aI8
aI8
aI103
aI81
aI81
aI82
aI83
aI94
aI89
aI89
aI68
aI87
aI97
aI94
aI5
aI11
aI59
aI11
aI65
aI12
aI13
aI13
aI16
aI63
asg45
(lp662
I89
aI97
aI100
aI87
aI83
aI8
aI8
aI8
aI103
aI81
aI81
aI82
aI83
aI94
aI89
aI89
aI68
aI87
aI97
aI94
aI5
aI59
aI65
aI11
aI11
aI12
aI13
aI13
aI63
aI118
assss.