(dp0
S'spear'
p1
(dp2
S'./BWLocker/spear/spear_1'
p3
(dp4
S'60'
p5
(dp6
S'11'
p7
(lp8
I0
aI4
aI4
aI127
aI0
aI129
aI0
aI127
aI0
aI127
aI4
aI129
aI4
aI4
aI129
aI129
aI4
aI127
aI4
aI127
aI2
aI5
aI4
aI4
aI3
aI4
aI2
aI2
aI14
aI2
asS'10'
p9
(lp10
I0
aI4
aI4
aI127
aI0
aI129
aI0
aI127
aI0
aI127
aI4
aI129
aI4
aI4
aI129
aI129
aI4
aI127
aI4
aI127
aI1
aI4
aI0
aI6
aI4
aI3
aI0
aI4
aI0
aI0
asS'13'
p11
(lp12
I0
aI4
aI4
aI127
aI0
aI129
aI0
aI127
aI0
aI127
aI4
aI129
aI4
aI4
aI129
aI129
aI4
aI127
aI4
aI127
aI9
aI4
aI10
aI2
aI14
aI0
aI6
aI2
aI0
aI0
asS'12'
p13
(lp14
I0
aI4
aI4
aI127
aI0
aI129
aI0
aI127
aI0
aI127
aI4
aI129
aI4
aI4
aI129
aI129
aI4
aI127
aI4
aI127
aI0
aI14
aI6
aI5
aI3
aI8
aI3
aI7
aI0
aI5
asS'15'
p15
(lp16
I0
aI4
aI4
aI127
aI0
aI129
aI0
aI127
aI0
aI127
aI4
aI129
aI4
aI4
aI129
aI129
aI4
aI127
aI4
aI127
aI4
aI3
aI4
aI14
aI7
aI4
aI0
aI4
aI2
aI3
asS'14'
p17
(lp18
I0
aI4
aI4
aI127
aI0
aI129
aI0
aI127
aI0
aI127
aI4
aI129
aI4
aI4
aI129
aI129
aI4
aI127
aI4
aI127
aI6
aI2
aI3
aI3
aI0
aI1
aI6
aI0
aI2
aI4
asS'17'
p19
(lp20
I0
aI4
aI4
aI127
aI0
aI129
aI0
aI127
aI0
aI127
aI4
aI129
aI4
aI4
aI129
aI129
aI4
aI127
aI4
aI127
aI14
aI4
aI10
aI4
aI13
aI1
aI4
aI3
aI3
aI2
asS'16'
p21
(lp22
I0
aI4
aI4
aI127
aI0
aI129
aI0
aI127
aI0
aI127
aI4
aI129
aI4
aI4
aI129
aI129
aI4
aI127
aI4
aI127
aI2
aI4
aI1
aI2
aI4
aI2
aI8
aI13
aI0
aI0
asS'19'
p23
(lp24
I0
aI4
aI4
aI127
aI0
aI129
aI0
aI127
aI0
aI127
aI4
aI129
aI4
aI4
aI129
aI129
aI4
aI127
aI4
aI127
aI2
aI2
aI0
aI4
aI3
aI6
aI2
aI5
aI4
aI0
asS'18'
p25
(lp26
I0
aI4
aI4
aI127
aI0
aI129
aI0
aI127
aI0
aI127
aI4
aI129
aI4
aI4
aI129
aI129
aI4
aI127
aI4
aI127
aI8
aI0
aI12
aI4
aI8
aI8
aI4
aI2
aI2
aI8
asS'1'
p27
(lp28
I0
aI4
aI4
aI127
aI0
aI129
aI0
aI127
aI0
aI127
aI4
aI129
aI4
aI4
aI129
aI129
aI4
aI127
aI4
aI127
aI12
aI4
aI4
aI6
aI2
aI8
aI0
aI3
aI0
aI4
asS'0'
p29
(lp30
I0
aI4
aI4
aI127
aI0
aI129
aI0
aI127
aI0
aI127
aI4
aI129
aI4
aI4
aI129
aI129
aI4
aI127
aI4
aI127
aI4
aI8
aI0
aI2
aI2
aI10
aI4
aI2
aI2
aI1
asS'3'
p31
(lp32
I0
aI4
aI4
aI127
aI0
aI129
aI0
aI127
aI0
aI127
aI4
aI129
aI4
aI4
aI129
aI129
aI4
aI127
aI4
aI127
aI0
aI2
aI0
aI9
aI0
aI10
aI5
aI2
aI1
aI8
asS'2'
p33
(lp34
I0
aI4
aI4
aI127
aI0
aI129
aI0
aI127
aI0
aI127
aI4
aI129
aI4
aI4
aI129
aI129
aI4
aI127
aI4
aI127
aI2
aI14
aI0
aI6
aI4
aI8
aI4
aI4
aI3
aI4
asS'5'
p35
(lp36
I0
aI4
aI4
aI127
aI0
aI129
aI0
aI127
aI0
aI127
aI4
aI129
aI4
aI4
aI129
aI129
aI4
aI127
aI4
aI127
aI1
aI2
aI4
aI3
aI11
aI4
aI4
aI0
aI1
aI10
asS'4'
p37
(lp38
I0
aI4
aI4
aI127
aI0
aI129
aI0
aI127
aI0
aI127
aI4
aI129
aI4
aI4
aI129
aI129
aI4
aI127
aI4
aI127
aI1
aI4
aI5
aI2
aI3
aI0
aI6
aI8
aI6
aI2
asS'7'
p39
(lp40
I0
aI4
aI4
aI127
aI0
aI129
aI0
aI127
aI0
aI127
aI4
aI129
aI4
aI4
aI129
aI129
aI4
aI127
aI4
aI127
aI2
aI0
aI2
aI0
aI0
aI2
aI12
aI7
aI13
aI10
asS'6'
p41
(lp42
I0
aI4
aI4
aI127
aI0
aI129
aI0
aI127
aI0
aI127
aI4
aI129
aI4
aI4
aI129
aI129
aI4
aI127
aI4
aI127
aI13
aI5
aI0
aI8
aI2
aI0
aI2
aI2
aI2
aI1
asS'9'
p43
(lp44
I0
aI4
aI4
aI127
aI0
aI129
aI0
aI127
aI0
aI127
aI4
aI129
aI4
aI4
aI129
aI129
aI4
aI127
aI4
aI127
aI1
aI1
aI8
aI2
aI8
aI14
aI4
aI8
aI14
aI2
asS'8'
p45
(lp46
I0
aI4
aI4
aI127
aI0
aI129
aI0
aI127
aI0
aI127
aI4
aI129
aI4
aI4
aI129
aI129
aI4
aI127
aI4
aI127
aI14
aI5
aI7
aI2
aI2
aI5
aI0
aI9
aI4
aI1
assS'30'
p47
(dp48
S'11'
p49
(lp50
I0
aI4
aI4
aI127
aI0
aI129
aI0
aI127
aI0
aI127
aI4
aI129
aI4
aI4
aI129
aI129
aI4
aI127
aI4
aI127
aI4
aI6
aI8
aI6
aI14
aI3
aI3
aI13
aI4
aI4
asS'10'
p51
(lp52
I0
aI4
aI4
aI127
aI0
aI129
aI0
aI127
aI0
aI127
aI4
aI129
aI4
aI4
aI129
aI129
aI4
aI127
aI4
aI127
aI0
aI4
aI14
aI0
aI9
aI3
aI8
aI2
aI13
aI6
asS'13'
p53
(lp54
I0
aI4
aI4
aI127
aI0
aI129
aI0
aI127
aI0
aI127
aI4
aI129
aI4
aI4
aI129
aI129
aI4
aI127
aI4
aI127
aI10
aI6
aI9
aI8
aI0
aI0
aI2
aI3
aI2
aI4
asS'12'
p55
(lp56
I0
aI4
aI4
aI127
aI0
aI129
aI0
aI127
aI0
aI127
aI4
aI129
aI4
aI4
aI129
aI129
aI4
aI127
aI4
aI127
aI0
aI2
aI0
aI14
aI3
aI1
aI0
aI0
aI3
aI3
asS'15'
p57
(lp58
I0
aI4
aI4
aI127
aI0
aI129
aI0
aI127
aI0
aI127
aI4
aI129
aI4
aI4
aI129
aI129
aI4
aI127
aI4
aI127
aI14
aI3
aI6
aI9
aI4
aI14
aI12
aI5
aI8
aI3
asS'14'
p59
(lp60
I0
aI4
aI4
aI127
aI0
aI129
aI0
aI127
aI0
aI127
aI4
aI129
aI4
aI4
aI129
aI129
aI4
aI127
aI4
aI127
aI0
aI1
aI13
aI12
aI9
aI2
aI4
aI12
aI13
aI0
asS'17'
p61
(lp62
I0
aI4
aI4
aI127
aI0
aI129
aI0
aI127
aI0
aI127
aI4
aI129
aI4
aI4
aI129
aI129
aI4
aI127
aI4
aI127
aI0
aI0
aI0
aI1
aI0
aI4
aI2
aI0
aI9
aI0
asS'16'
p63
(lp64
I0
aI4
aI4
aI127
aI0
aI129
aI0
aI127
aI0
aI127
aI4
aI129
aI4
aI4
aI129
aI129
aI4
aI127
aI4
aI127
aI0
aI8
aI0
aI4
aI4
aI8
aI6
aI13
aI3
aI5
asS'19'
p65
(lp66
I0
aI4
aI4
aI127
aI0
aI129
aI0
aI127
aI0
aI127
aI4
aI129
aI4
aI4
aI129
aI129
aI4
aI127
aI4
aI127
aI13
aI0
aI6
aI4
aI4
aI3
aI10
aI6
aI2
aI13
asS'18'
p67
(lp68
I0
aI4
aI4
aI127
aI0
aI129
aI0
aI127
aI0
aI127
aI4
aI129
aI4
aI4
aI129
aI129
aI4
aI127
aI4
aI127
aI9
aI8
aI2
aI6
aI14
aI8
aI14
aI3
aI6
aI6
asg27
(lp69
I0
aI4
aI4
aI127
aI0
aI129
aI0
aI127
aI0
aI127
aI4
aI129
aI4
aI4
aI129
aI129
aI4
aI127
aI4
aI127
aI14
aI4
aI6
aI4
aI2
aI14
aI4
aI8
aI4
aI4
asg29
(lp70
I0
aI4
aI4
aI127
aI0
aI129
aI0
aI127
aI0
aI127
aI4
aI129
aI4
aI4
aI129
aI129
aI4
aI127
aI4
aI127
aI6
aI1
aI5
aI6
aI0
aI4
aI4
aI14
aI4
aI4
asg31
(lp71
I0
aI4
aI4
aI127
aI0
aI129
aI0
aI127
aI0
aI127
aI4
aI129
aI4
aI4
aI129
aI129
aI4
aI127
aI4
aI127
aI13
aI2
aI6
aI8
aI6
aI10
aI14
aI5
aI3
aI4
asg33
(lp72
I0
aI4
aI4
aI127
aI0
aI129
aI0
aI127
aI0
aI127
aI4
aI129
aI4
aI4
aI129
aI129
aI4
aI127
aI4
aI127
aI0
aI1
aI4
aI1
aI0
aI0
aI11
aI2
aI0
aI10
asg35
(lp73
I0
aI4
aI4
aI127
aI0
aI129
aI0
aI127
aI0
aI127
aI4
aI129
aI4
aI4
aI129
aI129
aI4
aI127
aI4
aI127
aI4
aI8
aI9
aI14
aI7
aI2
aI10
aI4
aI0
aI4
asg37
(lp74
I0
aI4
aI4
aI127
aI0
aI129
aI0
aI127
aI0
aI127
aI4
aI129
aI4
aI4
aI129
aI129
aI4
aI127
aI4
aI127
aI10
aI14
aI8
aI1
aI2
aI1
aI4
aI0
aI0
aI14
asg39
(lp75
I0
aI4
aI4
aI127
aI0
aI129
aI0
aI127
aI0
aI127
aI4
aI129
aI4
aI4
aI129
aI129
aI4
aI127
aI4
aI127
aI4
aI0
aI9
aI0
aI14
aI4
aI6
aI1
aI8
aI3
asg41
(lp76
I0
aI4
aI4
aI127
aI0
aI129
aI0
aI127
aI0
aI127
aI4
aI129
aI4
aI4
aI129
aI129
aI4
aI127
aI4
aI127
aI4
aI4
aI2
aI2
aI4
aI0
aI6
aI14
aI1
aI4
asg43
(lp77
I0
aI4
aI4
aI127
aI0
aI129
aI0
aI127
aI0
aI127
aI4
aI129
aI4
aI4
aI129
aI129
aI4
aI127
aI4
aI127
aI1
aI3
aI9
aI4
aI14
aI2
aI4
aI0
aI8
aI0
asg45
(lp78
I0
aI4
aI4
aI127
aI0
aI129
aI0
aI127
aI0
aI127
aI4
aI129
aI4
aI4
aI129
aI129
aI4
aI127
aI4
aI127
aI4
aI7
aI2
aI13
aI4
aI8
aI9
aI14
aI3
aI14
assS'50'
p79
(dp80
S'11'
p81
(lp82
I0
aI4
aI4
aI127
aI0
aI129
aI0
aI127
aI0
aI127
aI4
aI129
aI4
aI4
aI129
aI129
aI4
aI127
aI4
aI127
aI2
aI8
aI14
aI9
aI5
aI0
aI14
aI14
aI2
aI2
asS'10'
p83
(lp84
I0
aI4
aI4
aI127
aI0
aI129
aI0
aI127
aI0
aI127
aI4
aI129
aI4
aI4
aI129
aI129
aI4
aI127
aI4
aI127
aI3
aI9
aI0
aI5
aI4
aI0
aI1
aI14
aI0
aI2
asS'13'
p85
(lp86
I0
aI4
aI4
aI127
aI0
aI129
aI0
aI127
aI0
aI127
aI4
aI129
aI4
aI4
aI129
aI129
aI4
aI127
aI4
aI127
aI2
aI3
aI4
aI4
aI4
aI4
aI14
aI7
aI6
aI2
asS'12'
p87
(lp88
I0
aI4
aI4
aI127
aI0
aI129
aI0
aI127
aI0
aI127
aI4
aI129
aI4
aI4
aI129
aI129
aI4
aI127
aI4
aI127
aI2
aI1
aI4
aI4
aI15
aI8
aI0
aI3
aI2
aI15
asS'15'
p89
(lp90
I0
aI4
aI4
aI127
aI0
aI129
aI0
aI127
aI0
aI127
aI4
aI129
aI4
aI4
aI129
aI129
aI4
aI127
aI4
aI127
aI10
aI1
aI7
aI4
aI0
aI2
aI0
aI4
aI0
aI8
asS'14'
p91
(lp92
I0
aI4
aI4
aI127
aI0
aI129
aI0
aI127
aI0
aI127
aI4
aI129
aI4
aI4
aI129
aI129
aI4
aI127
aI4
aI127
aI13
aI2
aI4
aI8
aI4
aI1
aI0
aI12
aI0
aI6
asS'17'
p93
(lp94
I0
aI4
aI4
aI127
aI0
aI129
aI0
aI127
aI0
aI127
aI4
aI129
aI4
aI4
aI129
aI129
aI4
aI127
aI4
aI127
aI4
aI3
aI0
aI12
aI5
aI2
aI8
aI0
aI4
aI1
asS'16'
p95
(lp96
I0
aI4
aI4
aI127
aI0
aI129
aI0
aI127
aI0
aI127
aI4
aI129
aI4
aI4
aI129
aI129
aI4
aI127
aI4
aI127
aI2
aI8
aI4
aI3
aI0
aI0
aI10
aI0
aI2
aI1
asS'19'
p97
(lp98
I0
aI4
aI4
aI127
aI0
aI129
aI0
aI127
aI0
aI127
aI4
aI129
aI4
aI4
aI129
aI129
aI4
aI127
aI4
aI127
aI14
aI3
aI5
aI9
aI4
aI4
aI4
aI4
aI1
aI8
asS'18'
p99
(lp100
I0
aI4
aI4
aI127
aI0
aI129
aI0
aI127
aI0
aI127
aI4
aI129
aI4
aI4
aI129
aI129
aI4
aI127
aI4
aI127
aI4
aI4
aI2
aI4
aI13
aI10
aI6
aI2
aI4
aI3
asg27
(lp101
I0
aI4
aI4
aI127
aI0
aI129
aI0
aI127
aI0
aI127
aI4
aI129
aI4
aI4
aI129
aI129
aI4
aI127
aI4
aI127
aI1
aI8
aI4
aI2
aI3
aI13
aI8
aI9
aI3
aI3
asg29
(lp102
I0
aI4
aI4
aI127
aI0
aI129
aI0
aI127
aI0
aI127
aI4
aI129
aI4
aI4
aI129
aI129
aI4
aI127
aI4
aI127
aI0
aI6
aI2
aI0
aI4
aI4
aI13
aI7
aI3
aI10
asg31
(lp103
I0
aI4
aI4
aI127
aI0
aI129
aI0
aI127
aI0
aI127
aI4
aI129
aI4
aI4
aI129
aI129
aI4
aI127
aI4
aI127
aI2
aI2
aI3
aI0
aI0
aI8
aI4
aI0
aI2
aI2
asg33
(lp104
I0
aI4
aI4
aI127
aI0
aI129
aI0
aI127
aI0
aI127
aI4
aI129
aI4
aI4
aI129
aI129
aI4
aI127
aI4
aI127
aI2
aI1
aI0
aI0
aI3
aI5
aI1
aI0
aI0
aI2
asg35
(lp105
I0
aI4
aI4
aI127
aI0
aI129
aI0
aI127
aI0
aI127
aI4
aI129
aI4
aI4
aI129
aI129
aI4
aI127
aI4
aI127
aI10
aI9
aI6
aI0
aI9
aI1
aI14
aI0
aI2
aI10
asg37
(lp106
I0
aI4
aI4
aI127
aI0
aI129
aI0
aI127
aI0
aI127
aI4
aI129
aI4
aI4
aI129
aI129
aI4
aI127
aI4
aI127
aI2
aI4
aI2
aI4
aI8
aI3
aI8
aI4
aI0
aI4
asg39
(lp107
I0
aI4
aI4
aI127
aI0
aI129
aI0
aI127
aI0
aI127
aI4
aI129
aI4
aI4
aI129
aI129
aI4
aI127
aI4
aI127
aI5
aI4
aI0
aI6
aI2
aI2
aI4
aI14
aI1
aI2
asg41
(lp108
I0
aI4
aI4
aI127
aI0
aI129
aI0
aI127
aI0
aI127
aI4
aI129
aI4
aI4
aI129
aI129
aI4
aI127
aI4
aI127
aI0
aI2
aI2
aI13
aI5
aI4
aI4
aI3
aI4
aI5
asg43
(lp109
I0
aI4
aI4
aI127
aI0
aI129
aI0
aI127
aI0
aI127
aI4
aI129
aI4
aI4
aI129
aI129
aI4
aI127
aI4
aI127
aI4
aI8
aI0
aI4
aI14
aI9
aI4
aI0
aI2
aI7
asg45
(lp110
I0
aI4
aI4
aI127
aI0
aI129
aI0
aI127
aI0
aI127
aI4
aI129
aI4
aI4
aI129
aI129
aI4
aI127
aI4
aI127
aI2
aI14
aI1
aI7
aI3
aI4
aI6
aI4
aI7
aI4
assS'40'
p111
(dp112
S'11'
p113
(lp114
I0
aI4
aI4
aI127
aI0
aI129
aI0
aI127
aI0
aI127
aI4
aI129
aI4
aI4
aI129
aI129
aI4
aI127
aI4
aI127
aI2
aI6
aI4
aI8
aI2
aI2
aI0
aI3
aI0
aI14
asS'10'
p115
(lp116
I0
aI4
aI4
aI127
aI0
aI129
aI0
aI127
aI0
aI127
aI4
aI129
aI4
aI4
aI129
aI129
aI4
aI127
aI4
aI127
aI4
aI4
aI2
aI0
aI0
aI0
aI6
aI8
aI0
aI2
asS'13'
p117
(lp118
I0
aI4
aI4
aI127
aI0
aI129
aI0
aI127
aI0
aI127
aI4
aI129
aI4
aI4
aI129
aI129
aI4
aI127
aI4
aI127
aI0
aI4
aI2
aI8
aI14
aI5
aI5
aI8
aI9
aI6
asS'12'
p119
(lp120
I0
aI4
aI4
aI127
aI0
aI129
aI0
aI127
aI0
aI127
aI4
aI129
aI4
aI4
aI129
aI129
aI4
aI127
aI4
aI127
aI10
aI4
aI3
aI8
aI2
aI0
aI14
aI0
aI10
aI2
asS'15'
p121
(lp122
I0
aI4
aI4
aI127
aI0
aI129
aI0
aI127
aI0
aI127
aI4
aI129
aI4
aI4
aI129
aI129
aI4
aI127
aI4
aI127
aI0
aI2
aI5
aI10
aI6
aI6
aI1
aI9
aI8
aI4
asS'14'
p123
(lp124
I0
aI4
aI4
aI127
aI0
aI129
aI0
aI127
aI0
aI127
aI4
aI129
aI4
aI4
aI129
aI129
aI4
aI127
aI4
aI127
aI9
aI13
aI2
aI3
aI10
aI4
aI4
aI6
aI4
aI2
asS'17'
p125
(lp126
I0
aI4
aI4
aI127
aI0
aI129
aI0
aI127
aI0
aI127
aI4
aI129
aI4
aI4
aI129
aI129
aI4
aI127
aI4
aI127
aI0
aI0
aI9
aI2
aI2
aI3
aI6
aI4
aI2
aI1
asS'16'
p127
(lp128
I0
aI4
aI4
aI127
aI0
aI129
aI0
aI127
aI0
aI127
aI4
aI129
aI4
aI4
aI129
aI129
aI4
aI127
aI4
aI127
aI1
aI4
aI8
aI2
aI4
aI0
aI2
aI2
aI4
aI12
asS'19'
p129
(lp130
I0
aI4
aI4
aI127
aI0
aI129
aI0
aI127
aI0
aI127
aI4
aI129
aI4
aI4
aI129
aI129
aI4
aI127
aI4
aI127
aI1
aI8
aI14
aI2
aI0
aI14
aI2
aI4
aI5
aI3
asS'18'
p131
(lp132
I0
aI4
aI4
aI127
aI0
aI129
aI0
aI127
aI0
aI127
aI4
aI129
aI4
aI4
aI129
aI129
aI4
aI127
aI4
aI127
aI0
aI9
aI2
aI4
aI4
aI0
aI6
aI4
aI9
aI2
asg27
(lp133
I0
aI4
aI4
aI127
aI0
aI129
aI0
aI127
aI0
aI127
aI4
aI129
aI4
aI4
aI129
aI129
aI4
aI127
aI4
aI127
aI13
aI11
aI4
aI4
aI8
aI3
aI3
aI14
aI8
aI4
asg29
(lp134
I0
aI4
aI4
aI127
aI0
aI129
aI0
aI127
aI0
aI127
aI4
aI129
aI4
aI4
aI129
aI129
aI4
aI127
aI4
aI127
aI2
aI3
aI4
aI14
aI0
aI5
aI2
aI2
aI14
aI0
asg31
(lp135
I0
aI4
aI4
aI127
aI0
aI129
aI0
aI127
aI0
aI127
aI4
aI129
aI4
aI4
aI129
aI129
aI4
aI127
aI4
aI127
aI0
aI9
aI6
aI5
aI4
aI4
aI2
aI5
aI4
aI3
asg33
(lp136
I0
aI4
aI4
aI127
aI0
aI129
aI0
aI127
aI0
aI127
aI4
aI129
aI4
aI4
aI129
aI129
aI4
aI127
aI4
aI127
aI8
aI14
aI4
aI7
aI6
aI2
aI3
aI4
aI3
aI4
asg35
(lp137
I0
aI4
aI4
aI127
aI0
aI129
aI0
aI127
aI0
aI127
aI4
aI129
aI4
aI4
aI129
aI129
aI4
aI127
aI4
aI127
aI8
aI14
aI0
aI4
aI4
aI4
aI2
aI2
aI8
aI13
asg37
(lp138
I0
aI4
aI4
aI127
aI0
aI129
aI0
aI127
aI0
aI127
aI4
aI129
aI4
aI4
aI129
aI129
aI4
aI127
aI4
aI127
aI12
aI8
aI9
aI8
aI4
aI4
aI0
aI2
aI11
aI7
asg39
(lp139
I0
aI4
aI4
aI127
aI0
aI129
aI0
aI127
aI0
aI127
aI4
aI129
aI4
aI4
aI129
aI129
aI4
aI127
aI4
aI127
aI8
aI5
aI10
aI4
aI15
aI2
aI4
aI6
aI3
aI5
asg41
(lp140
I0
aI4
aI4
aI127
aI0
aI129
aI0
aI127
aI0
aI127
aI4
aI129
aI4
aI4
aI129
aI129
aI4
aI127
aI4
aI127
aI2
aI14
aI2
aI4
aI1
aI8
aI13
aI6
aI8
aI0
asg43
(lp141
I0
aI4
aI4
aI127
aI0
aI129
aI0
aI127
aI0
aI127
aI4
aI129
aI4
aI4
aI129
aI129
aI4
aI127
aI4
aI127
aI3
aI4
aI4
aI5
aI0
aI6
aI14
aI7
aI4
aI13
asg45
(lp142
I0
aI4
aI4
aI127
aI0
aI129
aI0
aI127
aI0
aI127
aI4
aI129
aI4
aI4
aI129
aI129
aI4
aI127
aI4
aI127
aI4
aI6
aI2
aI2
aI4
aI13
aI2
aI2
aI2
aI0
asssS'./BWLocker/spear/spear_0'
p143
(dp144
S'60'
p145
(dp146
S'11'
p147
(lp148
I0
aI7
aI7
aI96
aI3
aI98
aI3
aI96
aI3
aI96
aI7
aI99
aI7
aI7
aI99
aI98
aI7
aI96
aI7
aI96
aI21
aI7
aI1
aI6
aI3
aI9
aI4
aI29
aI3
aI1
asS'10'
p149
(lp150
I0
aI7
aI7
aI96
aI3
aI98
aI3
aI96
aI3
aI96
aI7
aI99
aI7
aI7
aI99
aI98
aI7
aI96
aI7
aI96
aI18
aI30
aI30
aI6
aI18
aI5
aI7
aI29
aI3
aI1
asS'13'
p151
(lp152
I0
aI7
aI7
aI96
aI3
aI98
aI3
aI96
aI3
aI96
aI7
aI99
aI7
aI7
aI99
aI98
aI7
aI96
aI7
aI96
aI2
aI24
aI29
aI7
aI1
aI10
aI7
aI3
aI11
aI1
asS'12'
p153
(lp154
I0
aI7
aI7
aI96
aI3
aI98
aI3
aI96
aI3
aI96
aI7
aI99
aI7
aI7
aI99
aI98
aI7
aI96
aI7
aI96
aI28
aI3
aI5
aI11
aI7
aI7
aI13
aI3
aI3
aI1
asS'15'
p155
(lp156
I0
aI7
aI7
aI96
aI3
aI98
aI3
aI96
aI3
aI96
aI7
aI99
aI7
aI7
aI99
aI98
aI7
aI96
aI7
aI96
aI24
aI28
aI15
aI7
aI1
aI5
aI3
aI3
aI1
aI1
asS'14'
p157
(lp158
I0
aI7
aI7
aI96
aI3
aI98
aI3
aI96
aI3
aI96
aI7
aI99
aI7
aI7
aI99
aI98
aI7
aI96
aI7
aI96
aI7
aI19
aI1
aI2
aI7
aI8
aI22
aI1
aI1
aI1
asS'17'
p159
(lp160
I0
aI7
aI7
aI96
aI3
aI98
aI3
aI96
aI3
aI96
aI7
aI99
aI7
aI7
aI99
aI98
aI7
aI96
aI7
aI96
aI21
aI6
aI23
aI1
aI29
aI13
aI1
aI2
aI21
aI3
asS'16'
p161
(lp162
I0
aI7
aI7
aI96
aI3
aI98
aI3
aI96
aI3
aI96
aI7
aI99
aI7
aI7
aI99
aI98
aI7
aI96
aI7
aI96
aI30
aI6
aI4
aI1
aI2
aI1
aI3
aI1
aI4
aI1
asS'19'
p163
(lp164
I0
aI7
aI7
aI96
aI3
aI98
aI3
aI96
aI3
aI96
aI7
aI99
aI7
aI7
aI99
aI98
aI7
aI96
aI7
aI96
aI5
aI29
aI19
aI14
aI1
aI5
aI29
aI1
aI10
aI13
asS'18'
p165
(lp166
I0
aI7
aI7
aI96
aI3
aI98
aI3
aI96
aI3
aI96
aI7
aI99
aI7
aI7
aI99
aI98
aI7
aI96
aI7
aI96
aI26
aI15
aI5
aI28
aI5
aI3
aI1
aI1
aI1
aI1
asg27
(lp167
I0
aI7
aI7
aI96
aI3
aI98
aI3
aI96
aI3
aI96
aI7
aI99
aI7
aI7
aI99
aI98
aI7
aI96
aI7
aI96
aI7
aI29
aI13
aI1
aI4
aI3
aI11
aI2
aI5
aI7
asg29
(lp168
I0
aI7
aI7
aI96
aI3
aI98
aI3
aI96
aI3
aI96
aI7
aI99
aI7
aI7
aI99
aI98
aI7
aI96
aI7
aI96
aI11
aI11
aI3
aI20
aI28
aI19
aI1
aI7
aI1
aI1
asg31
(lp169
I0
aI7
aI7
aI96
aI3
aI98
aI3
aI96
aI3
aI96
aI7
aI99
aI7
aI7
aI99
aI98
aI7
aI96
aI7
aI96
aI10
aI9
aI7
aI21
aI31
aI6
aI4
aI11
aI11
aI1
asg33
(lp170
I0
aI7
aI7
aI96
aI3
aI98
aI3
aI96
aI3
aI96
aI7
aI99
aI7
aI7
aI99
aI98
aI7
aI96
aI7
aI96
aI21
aI7
aI21
aI12
aI11
aI13
aI1
aI7
aI1
aI1
asg35
(lp171
I0
aI7
aI7
aI96
aI3
aI98
aI3
aI96
aI3
aI96
aI7
aI99
aI7
aI7
aI99
aI98
aI7
aI96
aI7
aI96
aI21
aI3
aI0
aI30
aI2
aI1
aI1
aI10
aI1
aI1
asg37
(lp172
I0
aI7
aI7
aI96
aI3
aI98
aI3
aI96
aI3
aI96
aI7
aI99
aI7
aI7
aI99
aI98
aI7
aI96
aI7
aI96
aI18
aI7
aI4
aI10
aI29
aI1
aI2
aI1
aI1
aI4
asg39
(lp173
I0
aI7
aI7
aI96
aI3
aI98
aI3
aI96
aI3
aI96
aI7
aI99
aI7
aI7
aI99
aI98
aI7
aI96
aI7
aI96
aI3
aI3
aI11
aI1
aI2
aI1
aI29
aI1
aI1
aI1
asg41
(lp174
I0
aI7
aI7
aI96
aI3
aI98
aI3
aI96
aI3
aI96
aI7
aI99
aI7
aI7
aI99
aI98
aI7
aI96
aI7
aI96
aI30
aI1
aI10
aI12
aI7
aI1
aI1
aI0
aI11
aI7
asg43
(lp175
I0
aI7
aI7
aI96
aI3
aI98
aI3
aI96
aI3
aI96
aI7
aI99
aI7
aI7
aI99
aI98
aI7
aI96
aI7
aI96
aI1
aI10
aI13
aI13
aI5
aI1
aI1
aI28
aI1
aI30
asg45
(lp176
I0
aI7
aI7
aI96
aI3
aI98
aI3
aI96
aI3
aI96
aI7
aI99
aI7
aI7
aI99
aI98
aI7
aI96
aI7
aI96
aI20
aI28
aI7
aI7
aI13
aI1
aI11
aI0
aI1
aI11
assS'30'
p177
(dp178
S'11'
p179
(lp180
I0
aI7
aI7
aI96
aI3
aI98
aI3
aI96
aI3
aI96
aI7
aI99
aI7
aI7
aI99
aI98
aI7
aI96
aI7
aI96
aI6
aI29
aI20
aI1
aI10
aI1
aI1
aI1
aI1
aI1
asS'10'
p181
(lp182
I0
aI7
aI7
aI96
aI3
aI98
aI3
aI96
aI3
aI96
aI7
aI99
aI7
aI7
aI99
aI98
aI7
aI96
aI7
aI96
aI9
aI11
aI23
aI5
aI3
aI29
aI3
aI1
aI13
aI1
asS'13'
p183
(lp184
I0
aI7
aI7
aI96
aI3
aI98
aI3
aI96
aI3
aI96
aI7
aI99
aI7
aI7
aI99
aI98
aI7
aI96
aI7
aI96
aI19
aI8
aI6
aI3
aI24
aI19
aI7
aI5
aI5
aI3
asS'12'
p185
(lp186
I0
aI7
aI7
aI96
aI3
aI98
aI3
aI96
aI3
aI96
aI7
aI99
aI7
aI7
aI99
aI98
aI7
aI96
aI7
aI96
aI1
aI21
aI29
aI7
aI1
aI11
aI1
aI1
aI1
aI1
asS'15'
p187
(lp188
I0
aI7
aI7
aI96
aI3
aI98
aI3
aI96
aI3
aI96
aI7
aI99
aI7
aI7
aI99
aI98
aI7
aI96
aI7
aI96
aI3
aI1
aI29
aI4
aI12
aI0
aI30
aI1
aI3
aI11
asS'14'
p189
(lp190
I0
aI7
aI7
aI96
aI3
aI98
aI3
aI96
aI3
aI96
aI7
aI99
aI7
aI7
aI99
aI98
aI7
aI96
aI7
aI96
aI6
aI9
aI3
aI19
aI19
aI2
aI13
aI3
aI1
aI1
asS'17'
p191
(lp192
I0
aI7
aI7
aI96
aI3
aI98
aI3
aI96
aI3
aI96
aI7
aI99
aI7
aI7
aI99
aI98
aI7
aI96
aI7
aI96
aI9
aI24
aI3
aI1
aI7
aI29
aI7
aI4
aI2
aI3
asS'16'
p193
(lp194
I0
aI7
aI7
aI96
aI3
aI98
aI3
aI96
aI3
aI96
aI7
aI99
aI7
aI7
aI99
aI98
aI7
aI96
aI7
aI96
aI7
aI9
aI10
aI29
aI20
aI16
aI7
aI1
aI7
aI1
asS'19'
p195
(lp196
I0
aI7
aI7
aI96
aI3
aI98
aI3
aI96
aI3
aI96
aI7
aI99
aI7
aI7
aI99
aI98
aI7
aI96
aI7
aI96
aI19
aI5
aI1
aI29
aI7
aI7
aI7
aI4
aI25
aI7
asS'18'
p197
(lp198
I0
aI7
aI7
aI96
aI3
aI98
aI3
aI96
aI3
aI96
aI7
aI99
aI7
aI7
aI99
aI98
aI7
aI96
aI7
aI96
aI21
aI7
aI5
aI3
aI10
aI5
aI7
aI4
aI3
aI7
asg27
(lp199
I0
aI7
aI7
aI96
aI3
aI98
aI3
aI96
aI3
aI96
aI7
aI99
aI7
aI7
aI99
aI98
aI7
aI96
aI7
aI96
aI5
aI28
aI3
aI29
aI3
aI11
aI0
aI1
aI1
aI1
asg29
(lp200
I0
aI7
aI7
aI96
aI3
aI98
aI3
aI96
aI3
aI96
aI7
aI99
aI7
aI7
aI99
aI98
aI7
aI96
aI7
aI96
aI7
aI10
aI9
aI17
aI31
aI7
aI14
aI10
aI7
aI20
asg31
(lp201
I0
aI7
aI7
aI96
aI3
aI98
aI3
aI96
aI3
aI96
aI7
aI99
aI7
aI7
aI99
aI98
aI7
aI96
aI7
aI96
aI27
aI12
aI7
aI19
aI7
aI9
aI19
aI15
aI29
aI1
asg33
(lp202
I0
aI7
aI7
aI96
aI3
aI98
aI3
aI96
aI3
aI96
aI7
aI99
aI7
aI7
aI99
aI98
aI7
aI96
aI7
aI96
aI19
aI2
aI1
aI7
aI7
aI16
aI29
aI7
aI15
aI27
asg35
(lp203
I0
aI7
aI7
aI96
aI3
aI98
aI3
aI96
aI3
aI96
aI7
aI99
aI7
aI7
aI99
aI98
aI7
aI96
aI7
aI96
aI9
aI30
aI7
aI5
aI1
aI1
aI1
aI1
aI2
aI1
asg37
(lp204
I0
aI7
aI7
aI96
aI3
aI98
aI3
aI96
aI3
aI96
aI7
aI99
aI7
aI7
aI99
aI98
aI7
aI96
aI7
aI96
aI29
aI17
aI7
aI3
aI7
aI1
aI20
aI1
aI7
aI1
asg39
(lp205
I0
aI7
aI7
aI96
aI3
aI98
aI3
aI96
aI3
aI96
aI7
aI99
aI7
aI7
aI99
aI98
aI7
aI96
aI7
aI96
aI20
aI5
aI29
aI1
aI11
aI5
aI1
aI5
aI11
aI1
asg41
(lp206
I0
aI7
aI7
aI96
aI3
aI98
aI3
aI96
aI3
aI96
aI7
aI99
aI7
aI7
aI99
aI98
aI7
aI96
aI7
aI96
aI19
aI12
aI28
aI19
aI1
aI7
aI5
aI30
aI5
aI5
asg43
(lp207
I0
aI7
aI7
aI96
aI3
aI98
aI3
aI96
aI3
aI96
aI7
aI99
aI7
aI7
aI99
aI98
aI7
aI96
aI7
aI96
aI21
aI13
aI12
aI13
aI24
aI5
aI3
aI3
aI1
aI3
asg45
(lp208
I0
aI7
aI7
aI96
aI3
aI98
aI3
aI96
aI3
aI96
aI7
aI99
aI7
aI7
aI99
aI98
aI7
aI96
aI7
aI96
aI7
aI1
aI3
aI11
aI2
aI19
aI20
aI3
aI13
aI7
assS'50'
p209
(dp210
S'11'
p211
(lp212
I0
aI7
aI7
aI96
aI3
aI98
aI3
aI96
aI3
aI96
aI7
aI99
aI7
aI7
aI99
aI98
aI7
aI96
aI7
aI96
aI23
aI7
aI3
aI27
aI3
aI7
aI4
aI1
aI1
aI1
asS'10'
p213
(lp214
I0
aI7
aI7
aI96
aI3
aI98
aI3
aI96
aI3
aI96
aI7
aI99
aI7
aI7
aI99
aI98
aI7
aI96
aI7
aI96
aI7
aI3
aI10
aI20
aI3
aI29
aI2
aI3
aI1
aI1
asS'13'
p215
(lp216
I0
aI7
aI7
aI96
aI3
aI98
aI3
aI96
aI3
aI96
aI7
aI99
aI7
aI7
aI99
aI98
aI7
aI96
aI7
aI96
aI23
aI6
aI22
aI3
aI28
aI10
aI7
aI13
aI21
aI1
asS'12'
p217
(lp218
I0
aI7
aI7
aI96
aI3
aI98
aI3
aI96
aI3
aI96
aI7
aI99
aI7
aI7
aI99
aI98
aI7
aI96
aI7
aI96
aI23
aI7
aI29
aI13
aI1
aI7
aI2
aI5
aI3
aI2
asS'15'
p219
(lp220
I0
aI7
aI7
aI96
aI3
aI98
aI3
aI96
aI3
aI96
aI7
aI99
aI7
aI7
aI99
aI98
aI7
aI96
aI7
aI96
aI10
aI20
aI29
aI15
aI7
aI3
aI3
aI1
aI1
aI1
asS'14'
p221
(lp222
I0
aI7
aI7
aI96
aI3
aI98
aI3
aI96
aI3
aI96
aI7
aI99
aI7
aI7
aI99
aI98
aI7
aI96
aI7
aI96
aI1
aI20
aI9
aI21
aI18
aI9
aI29
aI5
aI1
aI1
asS'17'
p223
(lp224
I0
aI7
aI7
aI96
aI3
aI98
aI3
aI96
aI3
aI96
aI7
aI99
aI7
aI7
aI99
aI98
aI7
aI96
aI7
aI96
aI19
aI10
aI7
aI21
aI20
aI4
aI2
aI4
aI10
aI1
asS'16'
p225
(lp226
I0
aI7
aI7
aI96
aI3
aI98
aI3
aI96
aI3
aI96
aI7
aI99
aI7
aI7
aI99
aI98
aI7
aI96
aI7
aI96
aI20
aI9
aI3
aI18
aI16
aI30
aI7
aI1
aI12
aI3
asS'19'
p227
(lp228
I0
aI7
aI7
aI96
aI3
aI98
aI3
aI96
aI3
aI96
aI7
aI99
aI7
aI7
aI99
aI98
aI7
aI96
aI7
aI96
aI7
aI1
aI1
aI29
aI2
aI0
aI2
aI1
aI1
aI2
asS'18'
p229
(lp230
I0
aI7
aI7
aI96
aI3
aI98
aI3
aI96
aI3
aI96
aI7
aI99
aI7
aI7
aI99
aI98
aI7
aI96
aI7
aI96
aI6
aI1
aI4
aI10
aI7
aI30
aI1
aI3
aI1
aI1
asg27
(lp231
I0
aI7
aI7
aI96
aI3
aI98
aI3
aI96
aI3
aI96
aI7
aI99
aI7
aI7
aI99
aI98
aI7
aI96
aI7
aI96
aI5
aI5
aI3
aI3
aI19
aI3
aI3
aI4
aI1
aI28
asg29
(lp232
I0
aI7
aI7
aI96
aI3
aI98
aI3
aI96
aI3
aI96
aI7
aI99
aI7
aI7
aI99
aI98
aI7
aI96
aI7
aI96
aI9
aI5
aI10
aI3
aI30
aI5
aI1
aI3
aI1
aI1
asg31
(lp233
I0
aI7
aI7
aI96
aI3
aI98
aI3
aI96
aI3
aI96
aI7
aI99
aI7
aI7
aI99
aI98
aI7
aI96
aI7
aI96
aI29
aI10
aI1
aI3
aI3
aI27
aI1
aI1
aI1
aI1
asg33
(lp234
I0
aI7
aI7
aI96
aI3
aI98
aI3
aI96
aI3
aI96
aI7
aI99
aI7
aI7
aI99
aI98
aI7
aI96
aI7
aI96
aI3
aI10
aI29
aI1
aI7
aI3
aI1
aI3
aI3
aI1
asg35
(lp235
I0
aI7
aI7
aI96
aI3
aI98
aI3
aI96
aI3
aI96
aI7
aI99
aI7
aI7
aI99
aI98
aI7
aI96
aI7
aI96
aI20
aI11
aI19
aI7
aI3
aI2
aI7
aI3
aI1
aI5
asg37
(lp236
I0
aI7
aI7
aI96
aI3
aI98
aI3
aI96
aI3
aI96
aI7
aI99
aI7
aI7
aI99
aI98
aI7
aI96
aI7
aI96
aI30
aI12
aI24
aI19
aI7
aI7
aI7
aI7
aI29
aI3
asg39
(lp237
I0
aI7
aI7
aI96
aI3
aI98
aI3
aI96
aI3
aI96
aI7
aI99
aI7
aI7
aI99
aI98
aI7
aI96
aI7
aI96
aI1
aI1
aI29
aI12
aI2
aI2
aI1
aI3
aI1
aI1
asg41
(lp238
I0
aI7
aI7
aI96
aI3
aI98
aI3
aI96
aI3
aI96
aI7
aI99
aI7
aI7
aI99
aI98
aI7
aI96
aI7
aI96
aI30
aI1
aI3
aI7
aI1
aI7
aI3
aI3
aI2
aI1
asg43
(lp239
I0
aI7
aI7
aI96
aI3
aI98
aI3
aI96
aI3
aI96
aI7
aI99
aI7
aI7
aI99
aI98
aI7
aI96
aI7
aI96
aI19
aI29
aI19
aI7
aI5
aI3
aI1
aI3
aI1
aI1
asg45
(lp240
I0
aI7
aI7
aI96
aI3
aI98
aI3
aI96
aI3
aI96
aI7
aI99
aI7
aI7
aI99
aI98
aI7
aI96
aI7
aI96
aI1
aI7
aI10
aI7
aI10
aI13
aI7
aI29
aI10
aI6
assS'40'
p241
(dp242
S'11'
p243
(lp244
I0
aI7
aI7
aI96
aI3
aI98
aI3
aI96
aI3
aI96
aI7
aI99
aI7
aI7
aI99
aI98
aI7
aI96
aI7
aI96
aI7
aI2
aI4
aI11
aI20
aI5
aI1
aI1
aI1
aI1
asS'10'
p245
(lp246
I0
aI7
aI7
aI96
aI3
aI98
aI3
aI96
aI3
aI96
aI7
aI99
aI7
aI7
aI99
aI98
aI7
aI96
aI7
aI96
aI10
aI2
aI5
aI4
aI1
aI3
aI1
aI1
aI7
aI1
asS'13'
p247
(lp248
I0
aI7
aI7
aI96
aI3
aI98
aI3
aI96
aI3
aI96
aI7
aI99
aI7
aI7
aI99
aI98
aI7
aI96
aI7
aI96
aI10
aI7
aI29
aI11
aI7
aI11
aI18
aI7
aI3
aI28
asS'12'
p249
(lp250
I0
aI7
aI7
aI96
aI3
aI98
aI3
aI96
aI3
aI96
aI7
aI99
aI7
aI7
aI99
aI98
aI7
aI96
aI7
aI96
aI21
aI3
aI29
aI11
aI7
aI1
aI11
aI1
aI3
aI10
asS'15'
p251
(lp252
I0
aI7
aI7
aI96
aI3
aI98
aI3
aI96
aI3
aI96
aI7
aI99
aI7
aI7
aI99
aI98
aI7
aI96
aI7
aI96
aI20
aI13
aI7
aI7
aI24
aI4
aI3
aI1
aI1
aI10
asS'14'
p253
(lp254
I0
aI7
aI7
aI96
aI3
aI98
aI3
aI96
aI3
aI96
aI7
aI99
aI7
aI7
aI99
aI98
aI7
aI96
aI7
aI96
aI17
aI13
aI28
aI5
aI20
aI20
aI7
aI5
aI3
aI3
asS'17'
p255
(lp256
I0
aI7
aI7
aI96
aI3
aI98
aI3
aI96
aI3
aI96
aI7
aI99
aI7
aI7
aI99
aI98
aI7
aI96
aI7
aI96
aI3
aI29
aI3
aI1
aI1
aI3
aI1
aI1
aI1
aI1
asS'16'
p257
(lp258
I0
aI7
aI7
aI96
aI3
aI98
aI3
aI96
aI3
aI96
aI7
aI99
aI7
aI7
aI99
aI98
aI7
aI96
aI7
aI96
aI7
aI1
aI10
aI5
aI14
aI1
aI9
aI1
aI28
aI3
asS'19'
p259
(lp260
I0
aI7
aI7
aI96
aI3
aI98
aI3
aI96
aI3
aI96
aI7
aI99
aI7
aI7
aI99
aI98
aI7
aI96
aI7
aI96
aI9
aI29
aI5
aI5
aI1
aI13
aI3
aI5
aI1
aI2
asS'18'
p261
(lp262
I0
aI7
aI7
aI96
aI3
aI98
aI3
aI96
aI3
aI96
aI7
aI99
aI7
aI7
aI99
aI98
aI7
aI96
aI7
aI96
aI24
aI30
aI4
aI19
aI18
aI1
aI1
aI0
aI12
aI7
asg27
(lp263
I0
aI7
aI7
aI96
aI3
aI98
aI3
aI96
aI3
aI96
aI7
aI99
aI7
aI7
aI99
aI98
aI7
aI96
aI7
aI96
aI17
aI26
aI31
aI7
aI1
aI1
aI1
aI1
aI1
aI1
asg29
(lp264
I0
aI7
aI7
aI96
aI3
aI98
aI3
aI96
aI3
aI96
aI7
aI99
aI7
aI7
aI99
aI98
aI7
aI96
aI7
aI96
aI7
aI10
aI6
aI7
aI7
aI27
aI7
aI7
aI1
aI3
asg31
(lp265
I0
aI7
aI7
aI96
aI3
aI98
aI3
aI96
aI3
aI96
aI7
aI99
aI7
aI7
aI99
aI98
aI7
aI96
aI7
aI96
aI11
aI3
aI7
aI7
aI29
aI4
aI3
aI1
aI1
aI1
asg33
(lp266
I0
aI7
aI7
aI96
aI3
aI98
aI3
aI96
aI3
aI96
aI7
aI99
aI7
aI7
aI99
aI98
aI7
aI96
aI7
aI96
aI9
aI8
aI3
aI1
aI3
aI1
aI1
aI1
aI1
aI1
asg35
(lp267
I0
aI7
aI7
aI96
aI3
aI98
aI3
aI96
aI3
aI96
aI7
aI99
aI7
aI7
aI99
aI98
aI7
aI96
aI7
aI96
aI29
aI6
aI9
aI4
aI5
aI9
aI3
aI1
aI1
aI3
asg37
(lp268
I0
aI7
aI7
aI96
aI3
aI98
aI3
aI96
aI3
aI96
aI7
aI99
aI7
aI7
aI99
aI98
aI7
aI96
aI7
aI96
aI1
aI7
aI3
aI1
aI1
aI30
aI2
aI1
aI1
aI1
asg39
(lp269
I0
aI7
aI7
aI96
aI3
aI98
aI3
aI96
aI3
aI96
aI7
aI99
aI7
aI7
aI99
aI98
aI7
aI96
aI7
aI96
aI1
aI1
aI11
aI29
aI1
aI1
aI1
aI1
aI0
aI1
asg41
(lp270
I0
aI7
aI7
aI96
aI3
aI98
aI3
aI96
aI3
aI96
aI7
aI99
aI7
aI7
aI99
aI98
aI7
aI96
aI7
aI96
aI7
aI10
aI7
aI3
aI20
aI1
aI4
aI11
aI1
aI13
asg43
(lp271
I0
aI7
aI7
aI96
aI3
aI98
aI3
aI96
aI3
aI96
aI7
aI99
aI7
aI7
aI99
aI98
aI7
aI96
aI7
aI96
aI17
aI3
aI3
aI5
aI1
aI6
aI20
aI9
aI10
aI2
asg45
(lp272
I0
aI7
aI7
aI96
aI3
aI98
aI3
aI96
aI3
aI96
aI7
aI99
aI7
aI7
aI99
aI98
aI7
aI96
aI7
aI96
aI2
aI29
aI6
aI5
aI18
aI9
aI3
aI11
aI7
aI5
asssS'./BWLocker/spear/spear_3'
p273
(dp274
S'60'
p275
(dp276
S'11'
p277
(lp278
I0
aI13
aI13
aI59
aI3
aI59
aI3
aI59
aI3
aI59
aI12
aI59
aI12
aI12
aI59
aI59
aI12
aI59
aI12
aI59
aI30
aI3
aI9
aI2
aI2
aI2
aI2
aI2
aI4
aI2
asS'10'
p279
(lp280
I0
aI13
aI13
aI59
aI3
aI59
aI3
aI59
aI3
aI59
aI12
aI59
aI12
aI12
aI59
aI59
aI12
aI59
aI12
aI59
aI45
aI7
aI2
aI2
aI2
aI2
aI3
aI3
aI2
aI3
asS'13'
p281
(lp282
I0
aI13
aI13
aI59
aI3
aI59
aI3
aI59
aI3
aI59
aI12
aI59
aI12
aI12
aI59
aI59
aI12
aI59
aI12
aI59
aI46
aI2
aI3
aI8
aI2
aI2
aI2
aI3
aI3
aI3
asS'12'
p283
(lp284
I0
aI13
aI13
aI59
aI3
aI59
aI3
aI59
aI3
aI59
aI12
aI59
aI12
aI12
aI59
aI59
aI12
aI59
aI12
aI59
aI9
aI30
aI4
aI2
aI2
aI2
aI4
aI2
aI2
aI2
asS'15'
p285
(lp286
I0
aI13
aI13
aI59
aI3
aI59
aI3
aI59
aI3
aI59
aI12
aI59
aI12
aI12
aI59
aI59
aI12
aI59
aI12
aI59
aI30
aI8
aI2
aI2
aI3
aI2
aI4
aI4
aI2
aI3
asS'14'
p287
(lp288
I0
aI13
aI13
aI59
aI3
aI59
aI3
aI59
aI3
aI59
aI12
aI59
aI12
aI12
aI59
aI59
aI12
aI59
aI12
aI59
aI30
aI2
aI9
aI2
aI1
aI3
aI4
aI4
aI4
aI3
asS'17'
p289
(lp290
I0
aI13
aI13
aI59
aI3
aI59
aI3
aI59
aI3
aI59
aI12
aI59
aI12
aI12
aI59
aI59
aI12
aI59
aI12
aI59
aI45
aI8
aI3
aI4
aI2
aI2
aI3
aI2
aI2
aI3
asS'16'
p291
(lp292
I0
aI13
aI13
aI59
aI3
aI59
aI3
aI59
aI3
aI59
aI12
aI59
aI12
aI12
aI59
aI59
aI12
aI59
aI12
aI59
aI45
aI11
aI10
aI2
aI2
aI2
aI3
aI2
aI2
aI2
asS'19'
p293
(lp294
I0
aI13
aI13
aI59
aI3
aI59
aI3
aI59
aI3
aI59
aI12
aI59
aI12
aI12
aI59
aI59
aI12
aI59
aI12
aI59
aI45
aI3
aI8
aI3
aI2
aI4
aI2
aI3
aI2
aI3
asS'18'
p295
(lp296
I0
aI13
aI13
aI59
aI3
aI59
aI3
aI59
aI3
aI59
aI12
aI59
aI12
aI12
aI59
aI59
aI12
aI59
aI12
aI59
aI45
aI4
aI3
aI8
aI2
aI2
aI3
aI2
aI3
aI3
asg27
(lp297
I0
aI13
aI13
aI59
aI3
aI59
aI3
aI59
aI3
aI59
aI12
aI59
aI12
aI12
aI59
aI59
aI12
aI59
aI12
aI59
aI2
aI9
aI30
aI2
aI3
aI3
aI3
aI2
aI3
aI2
asg29
(lp298
I0
aI13
aI13
aI59
aI3
aI59
aI3
aI59
aI3
aI59
aI12
aI59
aI12
aI12
aI59
aI59
aI12
aI59
aI12
aI59
aI9
aI29
aI8
aI2
aI2
aI2
aI2
aI2
aI3
aI3
asg31
(lp299
I0
aI13
aI13
aI59
aI3
aI59
aI3
aI59
aI3
aI59
aI12
aI59
aI12
aI12
aI59
aI59
aI12
aI59
aI12
aI59
aI8
aI30
aI2
aI2
aI2
aI2
aI2
aI2
aI4
aI2
asg33
(lp300
I0
aI13
aI13
aI59
aI3
aI59
aI3
aI59
aI3
aI59
aI12
aI59
aI12
aI12
aI59
aI59
aI12
aI59
aI12
aI59
aI9
aI31
aI2
aI2
aI3
aI2
aI3
aI2
aI1
aI2
asg35
(lp301
I0
aI13
aI13
aI59
aI3
aI59
aI3
aI59
aI3
aI59
aI12
aI59
aI12
aI12
aI59
aI59
aI12
aI59
aI12
aI59
aI30
aI8
aI2
aI2
aI2
aI3
aI1
aI2
aI2
aI3
asg37
(lp302
I0
aI13
aI13
aI59
aI3
aI59
aI3
aI59
aI3
aI59
aI12
aI59
aI12
aI12
aI59
aI59
aI12
aI59
aI12
aI59
aI46
aI9
aI2
aI2
aI2
aI3
aI1
aI2
aI4
aI4
asg39
(lp303
I0
aI13
aI13
aI59
aI3
aI59
aI3
aI59
aI3
aI59
aI12
aI59
aI12
aI12
aI59
aI59
aI12
aI59
aI12
aI59
aI9
aI4
aI33
aI4
aI3
aI3
aI3
aI2
aI2
aI2
asg41
(lp304
I0
aI13
aI13
aI59
aI3
aI59
aI3
aI59
aI3
aI59
aI12
aI59
aI12
aI12
aI59
aI59
aI12
aI59
aI12
aI59
aI30
aI10
aI1
aI2
aI3
aI3
aI3
aI2
aI2
aI2
asg43
(lp305
I0
aI13
aI13
aI59
aI3
aI59
aI3
aI59
aI3
aI59
aI12
aI59
aI12
aI12
aI59
aI59
aI12
aI59
aI12
aI59
aI9
aI3
aI31
aI3
aI2
aI2
aI2
aI3
aI2
aI2
asg45
(lp306
I0
aI13
aI13
aI59
aI3
aI59
aI3
aI59
aI3
aI59
aI12
aI59
aI12
aI12
aI59
aI59
aI12
aI59
aI12
aI59
aI9
aI36
aI2
aI3
aI3
aI3
aI2
aI3
aI4
aI3
assS'30'
p307
(dp308
S'11'
p309
(lp310
I0
aI13
aI13
aI59
aI3
aI59
aI3
aI59
aI3
aI59
aI12
aI59
aI12
aI12
aI59
aI59
aI12
aI59
aI12
aI59
aI9
aI29
aI3
aI4
aI2
aI3
aI2
aI3
aI2
aI4
asS'10'
p311
(lp312
I0
aI13
aI13
aI59
aI3
aI59
aI3
aI59
aI3
aI59
aI12
aI59
aI12
aI12
aI59
aI59
aI12
aI59
aI12
aI59
aI3
aI30
aI9
aI3
aI3
aI3
aI2
aI2
aI3
aI3
asS'13'
p313
(lp314
I0
aI13
aI13
aI59
aI3
aI59
aI3
aI59
aI3
aI59
aI12
aI59
aI12
aI12
aI59
aI59
aI12
aI59
aI12
aI59
aI28
aI2
aI3
aI8
aI3
aI2
aI3
aI3
aI3
aI3
asS'12'
p315
(lp316
I0
aI13
aI13
aI59
aI3
aI59
aI3
aI59
aI3
aI59
aI12
aI59
aI12
aI12
aI59
aI59
aI12
aI59
aI12
aI59
aI44
aI8
aI3
aI3
aI3
aI2
aI3
aI3
aI4
aI1
asS'15'
p317
(lp318
I0
aI13
aI13
aI59
aI3
aI59
aI3
aI59
aI3
aI59
aI12
aI59
aI12
aI12
aI59
aI59
aI12
aI59
aI12
aI59
aI3
aI8
aI28
aI4
aI2
aI3
aI2
aI2
aI2
aI4
asS'14'
p319
(lp320
I0
aI13
aI13
aI59
aI3
aI59
aI3
aI59
aI3
aI59
aI12
aI59
aI12
aI12
aI59
aI59
aI12
aI59
aI12
aI59
aI10
aI28
aI4
aI3
aI2
aI2
aI2
aI2
aI2
aI2
asS'17'
p321
(lp322
I0
aI13
aI13
aI59
aI3
aI59
aI3
aI59
aI3
aI59
aI12
aI59
aI12
aI12
aI59
aI59
aI12
aI59
aI12
aI59
aI44
aI4
aI2
aI4
aI3
aI10
aI3
aI2
aI2
aI3
asS'16'
p323
(lp324
I0
aI13
aI13
aI59
aI3
aI59
aI3
aI59
aI3
aI59
aI12
aI59
aI12
aI12
aI59
aI59
aI12
aI59
aI12
aI59
aI45
aI10
aI3
aI2
aI8
aI2
aI2
aI2
aI2
aI3
asS'19'
p325
(lp326
I0
aI13
aI13
aI59
aI3
aI59
aI3
aI59
aI3
aI59
aI12
aI59
aI12
aI12
aI59
aI59
aI12
aI59
aI12
aI59
aI44
aI8
aI3
aI3
aI2
aI3
aI2
aI3
aI2
aI3
asS'18'
p327
(lp328
I0
aI13
aI13
aI59
aI3
aI59
aI3
aI59
aI3
aI59
aI12
aI59
aI12
aI12
aI59
aI59
aI12
aI59
aI12
aI59
aI2
aI9
aI2
aI3
aI2
aI29
aI2
aI3
aI2
aI2
asg27
(lp329
I0
aI13
aI13
aI59
aI3
aI59
aI3
aI59
aI3
aI59
aI12
aI59
aI12
aI12
aI59
aI59
aI12
aI59
aI12
aI59
aI30
aI3
aI4
aI9
aI2
aI2
aI2
aI4
aI2
aI3
asg29
(lp330
I0
aI13
aI13
aI59
aI3
aI59
aI3
aI59
aI3
aI59
aI12
aI59
aI12
aI12
aI59
aI59
aI12
aI59
aI12
aI59
aI42
aI4
aI8
aI4
aI3
aI3
aI3
aI3
aI2
aI3
asg31
(lp331
I0
aI13
aI13
aI59
aI3
aI59
aI3
aI59
aI3
aI59
aI12
aI59
aI12
aI12
aI59
aI59
aI12
aI59
aI12
aI59
aI8
aI2
aI30
aI3
aI3
aI3
aI2
aI2
aI3
aI2
asg33
(lp332
I0
aI13
aI13
aI59
aI3
aI59
aI3
aI59
aI3
aI59
aI12
aI59
aI12
aI12
aI59
aI59
aI12
aI59
aI12
aI59
aI44
aI9
aI4
aI3
aI2
aI2
aI3
aI2
aI3
aI2
asg35
(lp333
I0
aI13
aI13
aI59
aI3
aI59
aI3
aI59
aI3
aI59
aI12
aI59
aI12
aI12
aI59
aI59
aI12
aI59
aI12
aI59
aI31
aI9
aI3
aI2
aI2
aI2
aI2
aI2
aI2
aI2
asg37
(lp334
I0
aI13
aI13
aI59
aI3
aI59
aI3
aI59
aI3
aI59
aI12
aI59
aI12
aI12
aI59
aI59
aI12
aI59
aI12
aI59
aI31
aI2
aI2
aI3
aI9
aI3
aI3
aI2
aI4
aI3
asg39
(lp335
I0
aI13
aI13
aI59
aI3
aI59
aI3
aI59
aI3
aI59
aI12
aI59
aI12
aI12
aI59
aI59
aI12
aI59
aI12
aI59
aI44
aI3
aI3
aI2
aI9
aI2
aI2
aI3
aI4
aI3
asg41
(lp336
I0
aI13
aI13
aI59
aI3
aI59
aI3
aI59
aI3
aI59
aI12
aI59
aI12
aI12
aI59
aI59
aI12
aI59
aI12
aI59
aI30
aI8
aI2
aI4
aI2
aI2
aI1
aI2
aI2
aI2
asg43
(lp337
I0
aI13
aI13
aI59
aI3
aI59
aI3
aI59
aI3
aI59
aI12
aI59
aI12
aI12
aI59
aI59
aI12
aI59
aI12
aI59
aI51
aI8
aI4
aI3
aI3
aI2
aI2
aI2
aI3
aI2
asg45
(lp338
I0
aI13
aI13
aI59
aI3
aI59
aI3
aI59
aI3
aI59
aI12
aI59
aI12
aI12
aI59
aI59
aI12
aI59
aI12
aI59
aI8
aI3
aI30
aI2
aI2
aI2
aI4
aI2
aI2
aI3
assS'50'
p339
(dp340
S'11'
p341
(lp342
I0
aI13
aI13
aI59
aI3
aI59
aI3
aI59
aI3
aI59
aI12
aI59
aI12
aI12
aI59
aI59
aI12
aI59
aI12
aI59
aI29
aI2
aI10
aI2
aI3
aI3
aI2
aI3
aI2
aI2
asS'10'
p343
(lp344
I0
aI13
aI13
aI59
aI3
aI59
aI3
aI59
aI3
aI59
aI12
aI59
aI12
aI12
aI59
aI59
aI12
aI59
aI12
aI59
aI3
aI45
aI1
aI3
aI2
aI2
aI8
aI3
aI4
aI3
asS'13'
p345
(lp346
I0
aI13
aI13
aI59
aI3
aI59
aI3
aI59
aI3
aI59
aI12
aI59
aI12
aI12
aI59
aI59
aI12
aI59
aI12
aI59
aI30
aI9
aI2
aI3
aI2
aI2
aI3
aI3
aI3
aI4
asS'12'
p347
(lp348
I0
aI13
aI13
aI59
aI3
aI59
aI3
aI59
aI3
aI59
aI12
aI59
aI12
aI12
aI59
aI59
aI12
aI59
aI12
aI59
aI30
aI2
aI2
aI8
aI3
aI2
aI3
aI3
aI2
aI3
asS'15'
p349
(lp350
I0
aI13
aI13
aI59
aI3
aI59
aI3
aI59
aI3
aI59
aI12
aI59
aI12
aI12
aI59
aI59
aI12
aI59
aI12
aI59
aI9
aI46
aI9
aI2
aI2
aI3
aI3
aI3
aI2
aI3
asS'14'
p351
(lp352
I0
aI13
aI13
aI59
aI3
aI59
aI3
aI59
aI3
aI59
aI12
aI59
aI12
aI12
aI59
aI59
aI12
aI59
aI12
aI59
aI30
aI4
aI2
aI2
aI3
aI10
aI3
aI4
aI3
aI4
asS'17'
p353
(lp354
I0
aI13
aI13
aI59
aI3
aI59
aI3
aI59
aI3
aI59
aI12
aI59
aI12
aI12
aI59
aI59
aI12
aI59
aI12
aI59
aI2
aI29
aI9
aI2
aI2
aI3
aI2
aI4
aI3
aI2
asS'16'
p355
(lp356
I0
aI13
aI13
aI59
aI3
aI59
aI3
aI59
aI3
aI59
aI12
aI59
aI12
aI12
aI59
aI59
aI12
aI59
aI12
aI59
aI3
aI31
aI2
aI9
aI2
aI3
aI2
aI2
aI3
aI2
asS'19'
p357
(lp358
I0
aI13
aI13
aI59
aI3
aI59
aI3
aI59
aI3
aI59
aI12
aI59
aI12
aI12
aI59
aI59
aI12
aI59
aI12
aI59
aI31
aI1
aI8
aI3
aI3
aI3
aI2
aI2
aI2
aI2
asS'18'
p359
(lp360
I0
aI13
aI13
aI59
aI3
aI59
aI3
aI59
aI3
aI59
aI12
aI59
aI12
aI12
aI59
aI59
aI12
aI59
aI12
aI59
aI9
aI3
aI28
aI2
aI3
aI3
aI2
aI2
aI2
aI3
asg27
(lp361
I0
aI13
aI13
aI59
aI3
aI59
aI3
aI59
aI3
aI59
aI12
aI59
aI12
aI12
aI59
aI59
aI12
aI59
aI12
aI59
aI46
aI8
aI9
aI2
aI2
aI3
aI3
aI2
aI2
aI2
asg29
(lp362
I0
aI13
aI13
aI59
aI3
aI59
aI3
aI59
aI3
aI59
aI12
aI59
aI12
aI12
aI59
aI59
aI12
aI59
aI12
aI59
aI45
aI8
aI2
aI2
aI2
aI2
aI2
aI3
aI2
aI3
asg31
(lp363
I0
aI13
aI13
aI59
aI3
aI59
aI3
aI59
aI3
aI59
aI12
aI59
aI12
aI12
aI59
aI59
aI12
aI59
aI12
aI59
aI30
aI9
aI2
aI9
aI2
aI4
aI3
aI2
aI3
aI2
asg33
(lp364
I0
aI13
aI13
aI59
aI3
aI59
aI3
aI59
aI3
aI59
aI12
aI59
aI12
aI12
aI59
aI59
aI12
aI59
aI12
aI59
aI31
aI8
aI2
aI2
aI2
aI4
aI2
aI3
aI2
aI3
asg35
(lp365
I0
aI13
aI13
aI59
aI3
aI59
aI3
aI59
aI3
aI59
aI12
aI59
aI12
aI12
aI59
aI59
aI12
aI59
aI12
aI59
aI46
aI3
aI9
aI3
aI3
aI3
aI2
aI3
aI2
aI3
asg37
(lp366
I0
aI13
aI13
aI59
aI3
aI59
aI3
aI59
aI3
aI59
aI12
aI59
aI12
aI12
aI59
aI59
aI12
aI59
aI12
aI59
aI46
aI8
aI2
aI2
aI3
aI3
aI2
aI2
aI3
aI2
asg39
(lp367
I0
aI13
aI13
aI59
aI3
aI59
aI3
aI59
aI3
aI59
aI12
aI59
aI12
aI12
aI59
aI59
aI12
aI59
aI12
aI59
aI2
aI29
aI10
aI2
aI2
aI2
aI2
aI3
aI3
aI2
asg41
(lp368
I0
aI13
aI13
aI59
aI3
aI59
aI3
aI59
aI3
aI59
aI12
aI59
aI12
aI12
aI59
aI59
aI12
aI59
aI12
aI59
aI9
aI30
aI2
aI2
aI3
aI3
aI3
aI2
aI4
aI2
asg43
(lp369
I0
aI13
aI13
aI59
aI3
aI59
aI3
aI59
aI3
aI59
aI12
aI59
aI12
aI12
aI59
aI59
aI12
aI59
aI12
aI59
aI31
aI8
aI3
aI2
aI2
aI4
aI2
aI2
aI2
aI2
asg45
(lp370
I0
aI13
aI13
aI59
aI3
aI59
aI3
aI59
aI3
aI59
aI12
aI59
aI12
aI12
aI59
aI59
aI12
aI59
aI12
aI59
aI44
aI9
aI3
aI3
aI9
aI3
aI3
aI2
aI2
aI2
assS'40'
p371
(dp372
S'11'
p373
(lp374
I0
aI13
aI13
aI59
aI3
aI59
aI3
aI59
aI3
aI59
aI12
aI59
aI12
aI12
aI59
aI59
aI12
aI59
aI12
aI59
aI4
aI2
aI31
aI10
aI2
aI2
aI3
aI3
aI2
aI2
asS'10'
p375
(lp376
I0
aI13
aI13
aI59
aI3
aI59
aI3
aI59
aI3
aI59
aI12
aI59
aI12
aI12
aI59
aI59
aI12
aI59
aI12
aI59
aI3
aI31
aI8
aI2
aI3
aI2
aI2
aI8
aI2
aI2
asS'13'
p377
(lp378
I0
aI13
aI13
aI59
aI3
aI59
aI3
aI59
aI3
aI59
aI12
aI59
aI12
aI12
aI59
aI59
aI12
aI59
aI12
aI59
aI3
aI9
aI31
aI3
aI2
aI2
aI4
aI2
aI2
aI2
asS'12'
p379
(lp380
I0
aI13
aI13
aI59
aI3
aI59
aI3
aI59
aI3
aI59
aI12
aI59
aI12
aI12
aI59
aI59
aI12
aI59
aI12
aI59
aI44
aI9
aI9
aI2
aI3
aI2
aI3
aI2
aI2
aI2
asS'15'
p381
(lp382
I0
aI13
aI13
aI59
aI3
aI59
aI3
aI59
aI3
aI59
aI12
aI59
aI12
aI12
aI59
aI59
aI12
aI59
aI12
aI59
aI42
aI9
aI4
aI3
aI3
aI3
aI4
aI3
aI2
aI2
asS'14'
p383
(lp384
I0
aI13
aI13
aI59
aI3
aI59
aI3
aI59
aI3
aI59
aI12
aI59
aI12
aI12
aI59
aI59
aI12
aI59
aI12
aI59
aI48
aI3
aI4
aI2
aI2
aI3
aI2
aI9
aI3
aI4
asS'17'
p385
(lp386
I0
aI13
aI13
aI59
aI3
aI59
aI3
aI59
aI3
aI59
aI12
aI59
aI12
aI12
aI59
aI59
aI12
aI59
aI12
aI59
aI8
aI2
aI30
aI2
aI2
aI3
aI4
aI3
aI2
aI2
asS'16'
p387
(lp388
I0
aI13
aI13
aI59
aI3
aI59
aI3
aI59
aI3
aI59
aI12
aI59
aI12
aI12
aI59
aI59
aI12
aI59
aI12
aI59
aI2
aI44
aI10
aI2
aI2
aI3
aI3
aI2
aI2
aI2
asS'19'
p389
(lp390
I0
aI13
aI13
aI59
aI3
aI59
aI3
aI59
aI3
aI59
aI12
aI59
aI12
aI12
aI59
aI59
aI12
aI59
aI12
aI59
aI9
aI3
aI30
aI4
aI3
aI2
aI2
aI2
aI2
aI2
asS'18'
p391
(lp392
I0
aI13
aI13
aI59
aI3
aI59
aI3
aI59
aI3
aI59
aI12
aI59
aI12
aI12
aI59
aI59
aI12
aI59
aI12
aI59
aI8
aI29
aI2
aI8
aI4
aI3
aI2
aI2
aI3
aI3
asg27
(lp393
I0
aI13
aI13
aI59
aI3
aI59
aI3
aI59
aI3
aI59
aI12
aI59
aI12
aI12
aI59
aI59
aI12
aI59
aI12
aI59
aI9
aI3
aI30
aI3
aI3
aI2
aI1
aI3
aI3
aI2
asg29
(lp394
I0
aI13
aI13
aI59
aI3
aI59
aI3
aI59
aI3
aI59
aI12
aI59
aI12
aI12
aI59
aI59
aI12
aI59
aI12
aI59
aI3
aI8
aI2
aI29
aI2
aI2
aI2
aI2
aI3
aI3
asg31
(lp395
I0
aI13
aI13
aI59
aI3
aI59
aI3
aI59
aI3
aI59
aI12
aI59
aI12
aI12
aI59
aI59
aI12
aI59
aI12
aI59
aI43
aI10
aI2
aI2
aI2
aI2
aI3
aI3
aI3
aI3
asg33
(lp396
I0
aI13
aI13
aI59
aI3
aI59
aI3
aI59
aI3
aI59
aI12
aI59
aI12
aI12
aI59
aI59
aI12
aI59
aI12
aI59
aI4
aI45
aI3
aI2
aI9
aI2
aI2
aI2
aI2
aI2
asg35
(lp397
I0
aI13
aI13
aI59
aI3
aI59
aI3
aI59
aI3
aI59
aI12
aI59
aI12
aI12
aI59
aI59
aI12
aI59
aI12
aI59
aI10
aI30
aI2
aI2
aI2
aI4
aI3
aI2
aI3
aI3
asg37
(lp398
I0
aI13
aI13
aI59
aI3
aI59
aI3
aI59
aI3
aI59
aI12
aI59
aI12
aI12
aI59
aI59
aI12
aI59
aI12
aI59
aI29
aI2
aI3
aI4
aI2
aI3
aI8
aI3
aI2
aI3
asg39
(lp399
I0
aI13
aI13
aI59
aI3
aI59
aI3
aI59
aI3
aI59
aI12
aI59
aI12
aI12
aI59
aI59
aI12
aI59
aI12
aI59
aI46
aI10
aI3
aI2
aI3
aI4
aI3
aI2
aI2
aI2
asg41
(lp400
I0
aI13
aI13
aI59
aI3
aI59
aI3
aI59
aI3
aI59
aI12
aI59
aI12
aI12
aI59
aI59
aI12
aI59
aI12
aI59
aI4
aI2
aI30
aI9
aI4
aI2
aI2
aI3
aI4
aI2
asg43
(lp401
I0
aI13
aI13
aI59
aI3
aI59
aI3
aI59
aI3
aI59
aI12
aI59
aI12
aI12
aI59
aI59
aI12
aI59
aI12
aI59
aI30
aI9
aI2
aI2
aI3
aI2
aI3
aI2
aI2
aI3
asg45
(lp402
I0
aI13
aI13
aI59
aI3
aI59
aI3
aI59
aI3
aI59
aI12
aI59
aI12
aI12
aI59
aI59
aI12
aI59
aI12
aI59
aI3
aI45
aI3
aI3
aI9
aI2
aI2
aI4
aI2
aI3
asssS'./BWLocker/spear/spear_2'
p403
(dp404
S'60'
p405
(dp406
S'11'
p407
(lp408
I0
aI6
aI6
aI15
aI3
aI15
aI3
aI15
aI3
aI15
aI6
aI15
aI6
aI6
aI15
aI15
aI6
aI15
aI6
aI15
aI12
aI12
aI3
aI3
aI3
aI3
aI12
aI11
aI3
aI13
asS'10'
p409
(lp410
I0
aI6
aI6
aI15
aI3
aI15
aI3
aI15
aI3
aI15
aI6
aI15
aI6
aI6
aI15
aI15
aI6
aI15
aI6
aI15
aI12
aI3
aI11
aI2
aI11
aI3
aI7
aI11
aI3
aI3
asS'13'
p411
(lp412
I0
aI6
aI6
aI15
aI3
aI15
aI3
aI15
aI3
aI15
aI6
aI15
aI6
aI6
aI15
aI15
aI6
aI15
aI6
aI15
aI12
aI3
aI12
aI13
aI3
aI11
aI12
aI3
aI12
aI5
asS'12'
p413
(lp414
I0
aI6
aI6
aI15
aI3
aI15
aI3
aI15
aI3
aI15
aI6
aI15
aI6
aI6
aI15
aI15
aI6
aI15
aI6
aI15
aI10
aI10
aI2
aI2
aI3
aI2
aI12
aI2
aI3
aI12
asS'15'
p415
(lp416
I0
aI6
aI6
aI15
aI3
aI15
aI3
aI15
aI3
aI15
aI6
aI15
aI6
aI6
aI15
aI15
aI6
aI15
aI6
aI15
aI2
aI12
aI12
aI3
aI3
aI10
aI3
aI3
aI13
aI2
asS'14'
p417
(lp418
I0
aI6
aI6
aI15
aI3
aI15
aI3
aI15
aI3
aI15
aI6
aI15
aI6
aI6
aI15
aI15
aI6
aI15
aI6
aI15
aI3
aI11
aI12
aI2
aI13
aI12
aI3
aI3
aI3
aI3
asS'17'
p419
(lp420
I0
aI6
aI6
aI15
aI3
aI15
aI3
aI15
aI3
aI15
aI6
aI15
aI6
aI6
aI15
aI15
aI6
aI15
aI6
aI15
aI12
aI7
aI1
aI3
aI12
aI11
aI2
aI3
aI3
aI3
asS'16'
p421
(lp422
I0
aI6
aI6
aI15
aI3
aI15
aI3
aI15
aI3
aI15
aI6
aI15
aI6
aI6
aI15
aI15
aI6
aI15
aI6
aI15
aI3
aI3
aI12
aI12
aI2
aI3
aI2
aI12
aI2
aI10
asS'19'
p423
(lp424
I0
aI6
aI6
aI15
aI3
aI15
aI3
aI15
aI3
aI15
aI6
aI15
aI6
aI6
aI15
aI15
aI6
aI15
aI6
aI15
aI11
aI11
aI2
aI3
aI12
aI11
aI12
aI12
aI11
aI2
asS'18'
p425
(lp426
I0
aI6
aI6
aI15
aI3
aI15
aI3
aI15
aI3
aI15
aI6
aI15
aI6
aI6
aI15
aI15
aI6
aI15
aI6
aI15
aI12
aI2
aI2
aI1
aI12
aI12
aI6
aI12
aI3
aI3
asg27
(lp427
I0
aI6
aI6
aI15
aI3
aI15
aI3
aI15
aI3
aI15
aI6
aI15
aI6
aI6
aI15
aI15
aI6
aI15
aI6
aI15
aI3
aI3
aI3
aI3
aI2
aI12
aI1
aI3
aI12
aI3
asg29
(lp428
I0
aI6
aI6
aI15
aI3
aI15
aI3
aI15
aI3
aI15
aI6
aI15
aI6
aI6
aI15
aI15
aI6
aI15
aI6
aI15
aI11
aI12
aI2
aI13
aI12
aI10
aI5
aI2
aI12
aI3
asg31
(lp429
I0
aI6
aI6
aI15
aI3
aI15
aI3
aI15
aI3
aI15
aI6
aI15
aI6
aI6
aI15
aI15
aI6
aI15
aI6
aI15
aI3
aI3
aI12
aI12
aI3
aI3
aI8
aI11
aI2
aI3
asg33
(lp430
I0
aI6
aI6
aI15
aI3
aI15
aI3
aI15
aI3
aI15
aI6
aI15
aI6
aI6
aI15
aI15
aI6
aI15
aI6
aI15
aI3
aI2
aI2
aI11
aI2
aI2
aI3
aI2
aI2
aI12
asg35
(lp431
I0
aI6
aI6
aI15
aI3
aI15
aI3
aI15
aI3
aI15
aI6
aI15
aI6
aI6
aI15
aI15
aI6
aI15
aI6
aI15
aI12
aI2
aI2
aI12
aI3
aI2
aI12
aI7
aI12
aI2
asg37
(lp432
I0
aI6
aI6
aI15
aI3
aI15
aI3
aI15
aI3
aI15
aI6
aI15
aI6
aI6
aI15
aI15
aI6
aI15
aI6
aI15
aI12
aI3
aI11
aI11
aI7
aI3
aI2
aI12
aI3
aI3
asg39
(lp433
I0
aI6
aI6
aI15
aI3
aI15
aI3
aI15
aI3
aI15
aI6
aI15
aI6
aI6
aI15
aI15
aI6
aI15
aI6
aI15
aI3
aI12
aI3
aI10
aI2
aI3
aI12
aI3
aI1
aI2
asg41
(lp434
I0
aI6
aI6
aI15
aI3
aI15
aI3
aI15
aI3
aI15
aI6
aI15
aI6
aI6
aI15
aI15
aI6
aI15
aI6
aI15
aI12
aI6
aI12
aI11
aI3
aI3
aI12
aI6
aI12
aI11
asg43
(lp435
I0
aI6
aI6
aI15
aI3
aI15
aI3
aI15
aI3
aI15
aI6
aI15
aI6
aI6
aI15
aI15
aI6
aI15
aI6
aI15
aI3
aI2
aI12
aI3
aI13
aI7
aI4
aI3
aI5
aI3
asg45
(lp436
I0
aI6
aI6
aI15
aI3
aI15
aI3
aI15
aI3
aI15
aI6
aI15
aI6
aI6
aI15
aI15
aI6
aI15
aI6
aI15
aI3
aI3
aI3
aI3
aI12
aI2
aI3
aI3
aI3
aI2
assS'30'
p437
(dp438
S'11'
p439
(lp440
I0
aI6
aI6
aI15
aI3
aI15
aI3
aI15
aI3
aI15
aI6
aI15
aI6
aI6
aI15
aI15
aI6
aI15
aI6
aI15
aI2
aI3
aI2
aI11
aI3
aI10
aI3
aI12
aI3
aI3
asS'10'
p441
(lp442
I0
aI6
aI6
aI15
aI3
aI15
aI3
aI15
aI3
aI15
aI6
aI15
aI6
aI6
aI15
aI15
aI6
aI15
aI6
aI15
aI3
aI3
aI3
aI11
aI2
aI3
aI3
aI2
aI12
aI12
asS'13'
p443
(lp444
I0
aI6
aI6
aI15
aI3
aI15
aI3
aI15
aI3
aI15
aI6
aI15
aI6
aI6
aI15
aI15
aI6
aI15
aI6
aI15
aI3
aI11
aI11
aI7
aI2
aI12
aI12
aI3
aI3
aI11
asS'12'
p445
(lp446
I0
aI6
aI6
aI15
aI3
aI15
aI3
aI15
aI3
aI15
aI6
aI15
aI6
aI6
aI15
aI15
aI6
aI15
aI6
aI15
aI12
aI3
aI12
aI3
aI2
aI3
aI11
aI2
aI11
aI3
asS'15'
p447
(lp448
I0
aI6
aI6
aI15
aI3
aI15
aI3
aI15
aI3
aI15
aI6
aI15
aI6
aI6
aI15
aI15
aI6
aI15
aI6
aI15
aI2
aI3
aI12
aI3
aI12
aI2
aI3
aI3
aI10
aI12
asS'14'
p449
(lp450
I0
aI6
aI6
aI15
aI3
aI15
aI3
aI15
aI3
aI15
aI6
aI15
aI6
aI6
aI15
aI15
aI6
aI15
aI6
aI15
aI3
aI2
aI11
aI3
aI6
aI12
aI3
aI1
aI12
aI12
asS'17'
p451
(lp452
I0
aI6
aI6
aI15
aI3
aI15
aI3
aI15
aI3
aI15
aI6
aI15
aI6
aI6
aI15
aI15
aI6
aI15
aI6
aI15
aI12
aI2
aI6
aI2
aI3
aI2
aI12
aI11
aI3
aI2
asS'16'
p453
(lp454
I0
aI6
aI6
aI15
aI3
aI15
aI3
aI15
aI3
aI15
aI6
aI15
aI6
aI6
aI15
aI15
aI6
aI15
aI6
aI15
aI12
aI2
aI2
aI12
aI2
aI11
aI5
aI6
aI3
aI3
asS'19'
p455
(lp456
I0
aI6
aI6
aI15
aI3
aI15
aI3
aI15
aI3
aI15
aI6
aI15
aI6
aI6
aI15
aI15
aI6
aI15
aI6
aI15
aI12
aI3
aI11
aI11
aI2
aI12
aI11
aI3
aI12
aI1
asS'18'
p457
(lp458
I0
aI6
aI6
aI15
aI3
aI15
aI3
aI15
aI3
aI15
aI6
aI15
aI6
aI6
aI15
aI15
aI6
aI15
aI6
aI15
aI12
aI3
aI2
aI12
aI3
aI2
aI2
aI10
aI3
aI10
asg27
(lp459
I0
aI6
aI6
aI15
aI3
aI15
aI3
aI15
aI3
aI15
aI6
aI15
aI6
aI6
aI15
aI15
aI6
aI15
aI6
aI15
aI12
aI11
aI11
aI5
aI3
aI5
aI2
aI12
aI3
aI11
asg29
(lp460
I0
aI6
aI6
aI15
aI3
aI15
aI3
aI15
aI3
aI15
aI6
aI15
aI6
aI6
aI15
aI15
aI6
aI15
aI6
aI15
aI12
aI3
aI7
aI2
aI12
aI3
aI12
aI3
aI3
aI3
asg31
(lp461
I0
aI6
aI6
aI15
aI3
aI15
aI3
aI15
aI3
aI15
aI6
aI15
aI6
aI6
aI15
aI15
aI6
aI15
aI6
aI15
aI3
aI3
aI12
aI3
aI12
aI12
aI2
aI11
aI3
aI2
asg33
(lp462
I0
aI6
aI6
aI15
aI3
aI15
aI3
aI15
aI3
aI15
aI6
aI15
aI6
aI6
aI15
aI15
aI6
aI15
aI6
aI15
aI12
aI11
aI11
aI11
aI12
aI10
aI13
aI12
aI13
aI11
asg35
(lp463
I0
aI6
aI6
aI15
aI3
aI15
aI3
aI15
aI3
aI15
aI6
aI15
aI6
aI6
aI15
aI15
aI6
aI15
aI6
aI15
aI12
aI2
aI3
aI12
aI2
aI3
aI3
aI7
aI12
aI2
asg37
(lp464
I0
aI6
aI6
aI15
aI3
aI15
aI3
aI15
aI3
aI15
aI6
aI15
aI6
aI6
aI15
aI15
aI6
aI15
aI6
aI15
aI12
aI3
aI3
aI3
aI2
aI12
aI11
aI2
aI2
aI11
asg39
(lp465
I0
aI6
aI6
aI15
aI3
aI15
aI3
aI15
aI3
aI15
aI6
aI15
aI6
aI6
aI15
aI15
aI6
aI15
aI6
aI15
aI12
aI2
aI3
aI3
aI3
aI2
aI2
aI12
aI2
aI1
asg41
(lp466
I0
aI6
aI6
aI15
aI3
aI15
aI3
aI15
aI3
aI15
aI6
aI15
aI6
aI6
aI15
aI15
aI6
aI15
aI6
aI15
aI2
aI12
aI3
aI11
aI2
aI3
aI12
aI3
aI12
aI3
asg43
(lp467
I0
aI6
aI6
aI15
aI3
aI15
aI3
aI15
aI3
aI15
aI6
aI15
aI6
aI6
aI15
aI15
aI6
aI15
aI6
aI15
aI2
aI11
aI2
aI10
aI3
aI11
aI7
aI10
aI3
aI12
asg45
(lp468
I0
aI6
aI6
aI15
aI3
aI15
aI3
aI15
aI3
aI15
aI6
aI15
aI6
aI6
aI15
aI15
aI6
aI15
aI6
aI15
aI3
aI2
aI12
aI12
aI3
aI11
aI13
aI3
aI12
aI2
assS'50'
p469
(dp470
S'11'
p471
(lp472
I0
aI6
aI6
aI15
aI3
aI15
aI3
aI15
aI3
aI15
aI6
aI15
aI6
aI6
aI15
aI15
aI6
aI15
aI6
aI15
aI10
aI2
aI12
aI7
aI7
aI1
aI12
aI2
aI3
aI3
asS'10'
p473
(lp474
I0
aI6
aI6
aI15
aI3
aI15
aI3
aI15
aI3
aI15
aI6
aI15
aI6
aI6
aI15
aI15
aI6
aI15
aI6
aI15
aI11
aI2
aI11
aI3
aI3
aI3
aI3
aI3
aI11
aI2
asS'13'
p475
(lp476
I0
aI6
aI6
aI15
aI3
aI15
aI3
aI15
aI3
aI15
aI6
aI15
aI6
aI6
aI15
aI15
aI6
aI15
aI6
aI15
aI12
aI11
aI2
aI2
aI3
aI2
aI10
aI13
aI2
aI3
asS'12'
p477
(lp478
I0
aI6
aI6
aI15
aI3
aI15
aI3
aI15
aI3
aI15
aI6
aI15
aI6
aI6
aI15
aI15
aI6
aI15
aI6
aI15
aI12
aI3
aI3
aI12
aI11
aI2
aI12
aI12
aI7
aI3
asS'15'
p479
(lp480
I0
aI6
aI6
aI15
aI3
aI15
aI3
aI15
aI3
aI15
aI6
aI15
aI6
aI6
aI15
aI15
aI6
aI15
aI6
aI15
aI11
aI3
aI3
aI3
aI3
aI2
aI3
aI11
aI1
aI3
asS'14'
p481
(lp482
I0
aI6
aI6
aI15
aI3
aI15
aI3
aI15
aI3
aI15
aI6
aI15
aI6
aI6
aI15
aI15
aI6
aI15
aI6
aI15
aI11
aI3
aI2
aI12
aI2
aI12
aI11
aI2
aI12
aI3
asS'17'
p483
(lp484
I0
aI6
aI6
aI15
aI3
aI15
aI3
aI15
aI3
aI15
aI6
aI15
aI6
aI6
aI15
aI15
aI6
aI15
aI6
aI15
aI12
aI3
aI12
aI12
aI1
aI11
aI11
aI2
aI2
aI3
asS'16'
p485
(lp486
I0
aI6
aI6
aI15
aI3
aI15
aI3
aI15
aI3
aI15
aI6
aI15
aI6
aI6
aI15
aI15
aI6
aI15
aI6
aI15
aI3
aI2
aI13
aI12
aI11
aI11
aI3
aI12
aI11
aI5
asS'19'
p487
(lp488
I0
aI6
aI6
aI15
aI3
aI15
aI3
aI15
aI3
aI15
aI6
aI15
aI6
aI6
aI15
aI15
aI6
aI15
aI6
aI15
aI11
aI12
aI11
aI12
aI12
aI1
aI12
aI11
aI3
aI11
asS'18'
p489
(lp490
I0
aI6
aI6
aI15
aI3
aI15
aI3
aI15
aI3
aI15
aI6
aI15
aI6
aI6
aI15
aI15
aI6
aI15
aI6
aI15
aI11
aI2
aI11
aI10
aI12
aI2
aI12
aI3
aI3
aI2
asg27
(lp491
I0
aI6
aI6
aI15
aI3
aI15
aI3
aI15
aI3
aI15
aI6
aI15
aI6
aI6
aI15
aI15
aI6
aI15
aI6
aI15
aI12
aI3
aI3
aI3
aI12
aI12
aI3
aI11
aI12
aI3
asg29
(lp492
I0
aI6
aI6
aI15
aI3
aI15
aI3
aI15
aI3
aI15
aI6
aI15
aI6
aI6
aI15
aI15
aI6
aI15
aI6
aI15
aI12
aI5
aI3
aI3
aI2
aI11
aI11
aI3
aI5
aI3
asg31
(lp493
I0
aI6
aI6
aI15
aI3
aI15
aI3
aI15
aI3
aI15
aI6
aI15
aI6
aI6
aI15
aI15
aI6
aI15
aI6
aI15
aI10
aI3
aI2
aI6
aI3
aI10
aI1
aI2
aI13
aI12
asg33
(lp494
I0
aI6
aI6
aI15
aI3
aI15
aI3
aI15
aI3
aI15
aI6
aI15
aI6
aI6
aI15
aI15
aI6
aI15
aI6
aI15
aI10
aI11
aI11
aI10
aI2
aI3
aI12
aI7
aI12
aI3
asg35
(lp495
I0
aI6
aI6
aI15
aI3
aI15
aI3
aI15
aI3
aI15
aI6
aI15
aI6
aI6
aI15
aI15
aI6
aI15
aI6
aI15
aI12
aI10
aI12
aI3
aI12
aI12
aI3
aI1
aI3
aI2
asg37
(lp496
I0
aI6
aI6
aI15
aI3
aI15
aI3
aI15
aI3
aI15
aI6
aI15
aI6
aI6
aI15
aI15
aI6
aI15
aI6
aI15
aI12
aI3
aI12
aI12
aI11
aI3
aI3
aI3
aI11
aI11
asg39
(lp497
I0
aI6
aI6
aI15
aI3
aI15
aI3
aI15
aI3
aI15
aI6
aI15
aI6
aI6
aI15
aI15
aI6
aI15
aI6
aI15
aI12
aI3
aI12
aI3
aI3
aI6
aI3
aI2
aI7
aI11
asg41
(lp498
I0
aI6
aI6
aI15
aI3
aI15
aI3
aI15
aI3
aI15
aI6
aI15
aI6
aI6
aI15
aI15
aI6
aI15
aI6
aI15
aI12
aI11
aI12
aI1
aI3
aI3
aI12
aI12
aI11
aI3
asg43
(lp499
I0
aI6
aI6
aI15
aI3
aI15
aI3
aI15
aI3
aI15
aI6
aI15
aI6
aI6
aI15
aI15
aI6
aI15
aI6
aI15
aI12
aI2
aI2
aI3
aI11
aI2
aI12
aI7
aI3
aI13
asg45
(lp500
I0
aI6
aI6
aI15
aI3
aI15
aI3
aI15
aI3
aI15
aI6
aI15
aI6
aI6
aI15
aI15
aI6
aI15
aI6
aI15
aI3
aI3
aI12
aI2
aI3
aI3
aI10
aI2
aI3
aI12
assS'40'
p501
(dp502
S'11'
p503
(lp504
I0
aI6
aI6
aI15
aI3
aI15
aI3
aI15
aI3
aI15
aI6
aI15
aI6
aI6
aI15
aI15
aI6
aI15
aI6
aI15
aI12
aI3
aI11
aI8
aI3
aI3
aI3
aI3
aI3
aI12
asS'10'
p505
(lp506
I0
aI6
aI6
aI15
aI3
aI15
aI3
aI15
aI3
aI15
aI6
aI15
aI6
aI6
aI15
aI15
aI6
aI15
aI6
aI15
aI12
aI3
aI10
aI3
aI12
aI6
aI12
aI11
aI2
aI2
asS'13'
p507
(lp508
I0
aI6
aI6
aI15
aI3
aI15
aI3
aI15
aI3
aI15
aI6
aI15
aI6
aI6
aI15
aI15
aI6
aI15
aI6
aI15
aI3
aI12
aI2
aI3
aI10
aI2
aI12
aI12
aI12
aI3
asS'12'
p509
(lp510
I0
aI6
aI6
aI15
aI3
aI15
aI3
aI15
aI3
aI15
aI6
aI15
aI6
aI6
aI15
aI15
aI6
aI15
aI6
aI15
aI11
aI3
aI11
aI3
aI12
aI13
aI12
aI3
aI5
aI12
asS'15'
p511
(lp512
I0
aI6
aI6
aI15
aI3
aI15
aI3
aI15
aI3
aI15
aI6
aI15
aI6
aI6
aI15
aI15
aI6
aI15
aI6
aI15
aI3
aI2
aI2
aI12
aI3
aI3
aI12
aI11
aI1
aI12
asS'14'
p513
(lp514
I0
aI6
aI6
aI15
aI3
aI15
aI3
aI15
aI3
aI15
aI6
aI15
aI6
aI6
aI15
aI15
aI6
aI15
aI6
aI15
aI12
aI3
aI3
aI3
aI3
aI2
aI12
aI1
aI2
aI2
asS'17'
p515
(lp516
I0
aI6
aI6
aI15
aI3
aI15
aI3
aI15
aI3
aI15
aI6
aI15
aI6
aI6
aI15
aI15
aI6
aI15
aI6
aI15
aI3
aI12
aI11
aI4
aI3
aI11
aI12
aI12
aI12
aI2
asS'16'
p517
(lp518
I0
aI6
aI6
aI15
aI3
aI15
aI3
aI15
aI3
aI15
aI6
aI15
aI6
aI6
aI15
aI15
aI6
aI15
aI6
aI15
aI12
aI3
aI2
aI3
aI1
aI2
aI13
aI2
aI2
aI3
asS'19'
p519
(lp520
I0
aI6
aI6
aI15
aI3
aI15
aI3
aI15
aI3
aI15
aI6
aI15
aI6
aI6
aI15
aI15
aI6
aI15
aI6
aI15
aI12
aI2
aI7
aI12
aI12
aI3
aI1
aI3
aI3
aI12
asS'18'
p521
(lp522
I0
aI6
aI6
aI15
aI3
aI15
aI3
aI15
aI3
aI15
aI6
aI15
aI6
aI6
aI15
aI15
aI6
aI15
aI6
aI15
aI10
aI11
aI12
aI12
aI2
aI3
aI3
aI6
aI3
aI11
asg27
(lp523
I0
aI6
aI6
aI15
aI3
aI15
aI3
aI15
aI3
aI15
aI6
aI15
aI6
aI6
aI15
aI15
aI6
aI15
aI6
aI15
aI12
aI12
aI2
aI12
aI11
aI12
aI3
aI12
aI3
aI11
asg29
(lp524
I0
aI6
aI6
aI15
aI3
aI15
aI3
aI15
aI3
aI15
aI6
aI15
aI6
aI6
aI15
aI15
aI6
aI15
aI6
aI15
aI2
aI11
aI3
aI11
aI3
aI2
aI3
aI11
aI3
aI3
asg31
(lp525
I0
aI6
aI6
aI15
aI3
aI15
aI3
aI15
aI3
aI15
aI6
aI15
aI6
aI6
aI15
aI15
aI6
aI15
aI6
aI15
aI12
aI2
aI1
aI3
aI11
aI7
aI12
aI2
aI3
aI6
asg33
(lp526
I0
aI6
aI6
aI15
aI3
aI15
aI3
aI15
aI3
aI15
aI6
aI15
aI6
aI6
aI15
aI15
aI6
aI15
aI6
aI15
aI12
aI2
aI3
aI3
aI11
aI11
aI6
aI5
aI5
aI12
asg35
(lp527
I0
aI6
aI6
aI15
aI3
aI15
aI3
aI15
aI3
aI15
aI6
aI15
aI6
aI6
aI15
aI15
aI6
aI15
aI6
aI15
aI12
aI6
aI2
aI3
aI12
aI3
aI12
aI2
aI10
aI2
asg37
(lp528
I0
aI6
aI6
aI15
aI3
aI15
aI3
aI15
aI3
aI15
aI6
aI15
aI6
aI6
aI15
aI15
aI6
aI15
aI6
aI15
aI11
aI12
aI10
aI3
aI2
aI11
aI7
aI3
aI3
aI12
asg39
(lp529
I0
aI6
aI6
aI15
aI3
aI15
aI3
aI15
aI3
aI15
aI6
aI15
aI6
aI6
aI15
aI15
aI6
aI15
aI6
aI15
aI11
aI11
aI2
aI2
aI6
aI10
aI12
aI12
aI7
aI7
asg41
(lp530
I0
aI6
aI6
aI15
aI3
aI15
aI3
aI15
aI3
aI15
aI6
aI15
aI6
aI6
aI15
aI15
aI6
aI15
aI6
aI15
aI3
aI12
aI12
aI3
aI3
aI5
aI10
aI8
aI12
aI3
asg43
(lp531
I0
aI6
aI6
aI15
aI3
aI15
aI3
aI15
aI3
aI15
aI6
aI15
aI6
aI6
aI15
aI15
aI6
aI15
aI6
aI15
aI3
aI11
aI2
aI11
aI12
aI3
aI2
aI3
aI3
aI2
asg45
(lp532
I0
aI6
aI6
aI15
aI3
aI15
aI3
aI15
aI3
aI15
aI6
aI15
aI6
aI6
aI15
aI15
aI6
aI15
aI6
aI15
aI3
aI12
aI3
aI5
aI12
aI2
aI2
aI2
aI2
aI12
asssS'./BWLocker/spear/spear_5'
p533
(dp534
S'60'
p535
(dp536
S'11'
p537
(lp538
I0
aI14
aI14
aI82
aI6
aI84
aI6
aI82
aI6
aI82
aI14
aI86
aI14
aI14
aI86
aI84
aI14
aI82
aI14
aI82
aI27
aI1
aI6
aI1
aI41
aI1
aI21
aI14
aI5
aI17
asS'10'
p539
(lp540
I0
aI14
aI14
aI82
aI6
aI84
aI6
aI82
aI6
aI82
aI14
aI86
aI14
aI14
aI86
aI84
aI14
aI82
aI14
aI82
aI20
aI15
aI43
aI15
aI14
aI5
aI6
aI14
aI27
aI33
asS'13'
p541
(lp542
I0
aI14
aI14
aI82
aI6
aI84
aI6
aI82
aI6
aI82
aI14
aI86
aI14
aI14
aI86
aI84
aI14
aI82
aI14
aI82
aI6
aI10
aI12
aI14
aI12
aI21
aI21
aI34
aI11
aI8
asS'12'
p543
(lp544
I0
aI14
aI14
aI82
aI6
aI84
aI6
aI82
aI6
aI82
aI14
aI86
aI14
aI14
aI86
aI84
aI14
aI82
aI14
aI82
aI11
aI6
aI15
aI44
aI17
aI1
aI38
aI12
aI35
aI19
asS'15'
p545
(lp546
I0
aI14
aI14
aI82
aI6
aI84
aI6
aI82
aI6
aI82
aI14
aI86
aI14
aI14
aI86
aI84
aI14
aI82
aI14
aI82
aI14
aI11
aI14
aI22
aI14
aI6
aI12
aI14
aI15
aI13
asS'14'
p547
(lp548
I0
aI14
aI14
aI82
aI6
aI84
aI6
aI82
aI6
aI82
aI14
aI86
aI14
aI14
aI86
aI84
aI14
aI82
aI14
aI82
aI45
aI6
aI43
aI44
aI10
aI27
aI7
aI12
aI6
aI6
asS'17'
p549
(lp550
I0
aI14
aI14
aI82
aI6
aI84
aI6
aI82
aI6
aI82
aI14
aI86
aI14
aI14
aI86
aI84
aI14
aI82
aI14
aI82
aI14
aI14
aI12
aI12
aI7
aI42
aI21
aI4
aI13
aI41
asS'16'
p551
(lp552
I0
aI14
aI14
aI82
aI6
aI84
aI6
aI82
aI6
aI82
aI14
aI86
aI14
aI14
aI86
aI84
aI14
aI82
aI14
aI82
aI28
aI20
aI1
aI6
aI0
aI33
aI16
aI14
aI6
aI1
asS'19'
p553
(lp554
I0
aI14
aI14
aI82
aI6
aI84
aI6
aI82
aI6
aI82
aI14
aI86
aI14
aI14
aI86
aI84
aI14
aI82
aI14
aI82
aI12
aI0
aI6
aI14
aI6
aI27
aI41
aI14
aI26
aI10
asS'18'
p555
(lp556
I0
aI14
aI14
aI82
aI6
aI84
aI6
aI82
aI6
aI82
aI14
aI86
aI14
aI14
aI86
aI84
aI14
aI82
aI14
aI82
aI18
aI6
aI42
aI28
aI6
aI20
aI17
aI1
aI12
aI6
asg27
(lp557
I0
aI14
aI14
aI82
aI6
aI84
aI6
aI82
aI6
aI82
aI14
aI86
aI14
aI14
aI86
aI84
aI14
aI82
aI14
aI82
aI10
aI43
aI22
aI14
aI40
aI28
aI14
aI42
aI13
aI14
asg29
(lp558
I0
aI14
aI14
aI82
aI6
aI84
aI6
aI82
aI6
aI82
aI14
aI86
aI14
aI14
aI86
aI84
aI14
aI82
aI14
aI82
aI1
aI19
aI5
aI14
aI14
aI44
aI6
aI5
aI9
aI34
asg31
(lp559
I0
aI14
aI14
aI82
aI6
aI84
aI6
aI82
aI6
aI82
aI14
aI86
aI14
aI14
aI86
aI84
aI14
aI82
aI14
aI82
aI17
aI10
aI16
aI35
aI6
aI5
aI34
aI41
aI18
aI43
asg33
(lp560
I0
aI14
aI14
aI82
aI6
aI84
aI6
aI82
aI6
aI82
aI14
aI86
aI14
aI14
aI86
aI84
aI14
aI82
aI14
aI82
aI26
aI6
aI6
aI19
aI7
aI12
aI11
aI18
aI1
aI42
asg35
(lp561
I0
aI14
aI14
aI82
aI6
aI84
aI6
aI82
aI6
aI82
aI14
aI86
aI14
aI14
aI86
aI84
aI14
aI82
aI14
aI82
aI6
aI9
aI45
aI18
aI6
aI12
aI14
aI6
aI40
aI41
asg37
(lp562
I0
aI14
aI14
aI82
aI6
aI84
aI6
aI82
aI6
aI82
aI14
aI86
aI14
aI14
aI86
aI84
aI14
aI82
aI14
aI82
aI17
aI42
aI19
aI12
aI13
aI6
aI45
aI6
aI6
aI4
asg39
(lp563
I0
aI14
aI14
aI82
aI6
aI84
aI6
aI82
aI6
aI82
aI14
aI86
aI14
aI14
aI86
aI84
aI14
aI82
aI14
aI82
aI43
aI26
aI10
aI1
aI45
aI14
aI14
aI46
aI20
aI20
asg41
(lp564
I0
aI14
aI14
aI82
aI6
aI84
aI6
aI82
aI6
aI82
aI14
aI86
aI14
aI14
aI86
aI84
aI14
aI82
aI14
aI82
aI5
aI29
aI14
aI14
aI20
aI10
aI1
aI10
aI11
aI44
asg43
(lp565
I0
aI14
aI14
aI82
aI6
aI84
aI6
aI82
aI6
aI82
aI14
aI86
aI14
aI14
aI86
aI84
aI14
aI82
aI14
aI82
aI9
aI46
aI21
aI14
aI46
aI21
aI34
aI5
aI6
aI14
asg45
(lp566
I0
aI14
aI14
aI82
aI6
aI84
aI6
aI82
aI6
aI82
aI14
aI86
aI14
aI14
aI86
aI84
aI14
aI82
aI14
aI82
aI26
aI6
aI22
aI13
aI42
aI14
aI14
aI43
aI44
aI17
assS'30'
p567
(dp568
S'11'
p569
(lp570
I0
aI14
aI14
aI82
aI6
aI84
aI6
aI82
aI6
aI82
aI14
aI86
aI14
aI14
aI86
aI84
aI14
aI82
aI14
aI82
aI12
aI6
aI16
aI46
aI16
aI14
aI36
aI18
aI11
aI43
asS'10'
p571
(lp572
I0
aI14
aI14
aI82
aI6
aI84
aI6
aI82
aI6
aI82
aI14
aI86
aI14
aI14
aI86
aI84
aI14
aI82
aI14
aI82
aI44
aI10
aI44
aI21
aI1
aI14
aI10
aI14
aI20
aI14
asS'13'
p573
(lp574
I0
aI14
aI14
aI82
aI6
aI84
aI6
aI82
aI6
aI82
aI14
aI86
aI14
aI14
aI86
aI84
aI14
aI82
aI14
aI82
aI20
aI21
aI44
aI45
aI14
aI26
aI21
aI24
aI18
aI21
asS'12'
p575
(lp576
I0
aI14
aI14
aI82
aI6
aI84
aI6
aI82
aI6
aI82
aI14
aI86
aI14
aI14
aI86
aI84
aI14
aI82
aI14
aI82
aI10
aI43
aI16
aI17
aI0
aI25
aI5
aI12
aI14
aI26
asS'15'
p577
(lp578
I0
aI14
aI14
aI82
aI6
aI84
aI6
aI82
aI6
aI82
aI14
aI86
aI14
aI14
aI86
aI84
aI14
aI82
aI14
aI82
aI26
aI6
aI43
aI21
aI39
aI44
aI20
aI10
aI1
aI6
asS'14'
p579
(lp580
I0
aI14
aI14
aI82
aI6
aI84
aI6
aI82
aI6
aI82
aI14
aI86
aI14
aI14
aI86
aI84
aI14
aI82
aI14
aI82
aI21
aI17
aI14
aI11
aI20
aI1
aI1
aI41
aI1
aI33
asS'17'
p581
(lp582
I0
aI14
aI14
aI82
aI6
aI84
aI6
aI82
aI6
aI82
aI14
aI86
aI14
aI14
aI86
aI84
aI14
aI82
aI14
aI82
aI22
aI12
aI26
aI34
aI17
aI6
aI12
aI17
aI12
aI45
asS'16'
p583
(lp584
I0
aI14
aI14
aI82
aI6
aI84
aI6
aI82
aI6
aI82
aI14
aI86
aI14
aI14
aI86
aI84
aI14
aI82
aI14
aI82
aI6
aI22
aI17
aI17
aI14
aI12
aI44
aI10
aI12
aI10
asS'19'
p585
(lp586
I0
aI14
aI14
aI82
aI6
aI84
aI6
aI82
aI6
aI82
aI14
aI86
aI14
aI14
aI86
aI84
aI14
aI82
aI14
aI82
aI14
aI6
aI41
aI10
aI40
aI14
aI20
aI44
aI10
aI12
asS'18'
p587
(lp588
I0
aI14
aI14
aI82
aI6
aI84
aI6
aI82
aI6
aI82
aI14
aI86
aI14
aI14
aI86
aI84
aI14
aI82
aI14
aI82
aI6
aI14
aI27
aI26
aI13
aI34
aI14
aI21
aI35
aI28
asg27
(lp589
I0
aI14
aI14
aI82
aI6
aI84
aI6
aI82
aI6
aI82
aI14
aI86
aI14
aI14
aI86
aI84
aI14
aI82
aI14
aI82
aI9
aI12
aI14
aI20
aI19
aI14
aI17
aI6
aI10
aI19
asg29
(lp590
I0
aI14
aI14
aI82
aI6
aI84
aI6
aI82
aI6
aI82
aI14
aI86
aI14
aI14
aI86
aI84
aI14
aI82
aI14
aI82
aI18
aI12
aI19
aI1
aI10
aI12
aI1
aI6
aI13
aI14
asg31
(lp591
I0
aI14
aI14
aI82
aI6
aI84
aI6
aI82
aI6
aI82
aI14
aI86
aI14
aI14
aI86
aI84
aI14
aI82
aI14
aI82
aI11
aI18
aI17
aI8
aI14
aI1
aI12
aI39
aI42
aI52
asg33
(lp592
I0
aI14
aI14
aI82
aI6
aI84
aI6
aI82
aI6
aI82
aI14
aI86
aI14
aI14
aI86
aI84
aI14
aI82
aI14
aI82
aI12
aI21
aI27
aI42
aI17
aI46
aI6
aI8
aI1
aI42
asg35
(lp593
I0
aI14
aI14
aI82
aI6
aI84
aI6
aI82
aI6
aI82
aI14
aI86
aI14
aI14
aI86
aI84
aI14
aI82
aI14
aI82
aI18
aI8
aI1
aI43
aI43
aI21
aI21
aI9
aI44
aI15
asg37
(lp594
I0
aI14
aI14
aI82
aI6
aI84
aI6
aI82
aI6
aI82
aI14
aI86
aI14
aI14
aI86
aI84
aI14
aI82
aI14
aI82
aI12
aI1
aI42
aI10
aI42
aI7
aI14
aI20
aI14
aI6
asg39
(lp595
I0
aI14
aI14
aI82
aI6
aI84
aI6
aI82
aI6
aI82
aI14
aI86
aI14
aI14
aI86
aI84
aI14
aI82
aI14
aI82
aI26
aI13
aI1
aI42
aI33
aI9
aI10
aI13
aI10
aI13
asg41
(lp596
I0
aI14
aI14
aI82
aI6
aI84
aI6
aI82
aI6
aI82
aI14
aI86
aI14
aI14
aI86
aI84
aI14
aI82
aI14
aI82
aI44
aI41
aI12
aI35
aI17
aI6
aI44
aI14
aI10
aI13
asg43
(lp597
I0
aI14
aI14
aI82
aI6
aI84
aI6
aI82
aI6
aI82
aI14
aI86
aI14
aI14
aI86
aI84
aI14
aI82
aI14
aI82
aI6
aI6
aI12
aI5
aI1
aI13
aI1
aI20
aI11
aI15
asg45
(lp598
I0
aI14
aI14
aI82
aI6
aI84
aI6
aI82
aI6
aI82
aI14
aI86
aI14
aI14
aI86
aI84
aI14
aI82
aI14
aI82
aI44
aI26
aI10
aI43
aI11
aI1
aI26
aI20
aI14
aI15
assS'50'
p599
(dp600
S'11'
p601
(lp602
I0
aI14
aI14
aI82
aI6
aI84
aI6
aI82
aI6
aI82
aI14
aI86
aI14
aI14
aI86
aI84
aI14
aI82
aI14
aI82
aI20
aI20
aI14
aI27
aI20
aI33
aI35
aI10
aI17
aI20
asS'10'
p603
(lp604
I0
aI14
aI14
aI82
aI6
aI84
aI6
aI82
aI6
aI82
aI14
aI86
aI14
aI14
aI86
aI84
aI14
aI82
aI14
aI82
aI44
aI12
aI18
aI27
aI10
aI20
aI1
aI13
aI1
aI12
asS'13'
p605
(lp606
I0
aI14
aI14
aI82
aI6
aI84
aI6
aI82
aI6
aI82
aI14
aI86
aI14
aI14
aI86
aI84
aI14
aI82
aI14
aI82
aI26
aI9
aI15
aI6
aI17
aI43
aI1
aI42
aI21
aI5
asS'12'
p607
(lp608
I0
aI14
aI14
aI82
aI6
aI84
aI6
aI82
aI6
aI82
aI14
aI86
aI14
aI14
aI86
aI84
aI14
aI82
aI14
aI82
aI12
aI5
aI21
aI35
aI13
aI10
aI34
aI28
aI15
aI14
asS'15'
p609
(lp610
I0
aI14
aI14
aI82
aI6
aI84
aI6
aI82
aI6
aI82
aI14
aI86
aI14
aI14
aI86
aI84
aI14
aI82
aI14
aI82
aI12
aI26
aI6
aI1
aI1
aI10
aI1
aI1
aI34
aI11
asS'14'
p611
(lp612
I0
aI14
aI14
aI82
aI6
aI84
aI6
aI82
aI6
aI82
aI14
aI86
aI14
aI14
aI86
aI84
aI14
aI82
aI14
aI82
aI15
aI10
aI35
aI43
aI21
aI14
aI19
aI8
aI15
aI10
asS'17'
p613
(lp614
I0
aI14
aI14
aI82
aI6
aI84
aI6
aI82
aI6
aI82
aI14
aI86
aI14
aI14
aI86
aI84
aI14
aI82
aI14
aI82
aI24
aI28
aI35
aI20
aI6
aI14
aI20
aI46
aI12
aI13
asS'16'
p615
(lp616
I0
aI14
aI14
aI82
aI6
aI84
aI6
aI82
aI6
aI82
aI14
aI86
aI14
aI14
aI86
aI84
aI14
aI82
aI14
aI82
aI11
aI20
aI14
aI21
aI27
aI34
aI12
aI10
aI21
aI34
asS'19'
p617
(lp618
I0
aI14
aI14
aI82
aI6
aI84
aI6
aI82
aI6
aI82
aI14
aI86
aI14
aI14
aI86
aI84
aI14
aI82
aI14
aI82
aI7
aI10
aI8
aI13
aI43
aI9
aI14
aI26
aI14
aI42
asS'18'
p619
(lp620
I0
aI14
aI14
aI82
aI6
aI84
aI6
aI82
aI6
aI82
aI14
aI86
aI14
aI14
aI86
aI84
aI14
aI82
aI14
aI82
aI14
aI17
aI13
aI12
aI19
aI5
aI20
aI13
aI4
aI35
asg27
(lp621
I0
aI14
aI14
aI82
aI6
aI84
aI6
aI82
aI6
aI82
aI14
aI86
aI14
aI14
aI86
aI84
aI14
aI82
aI14
aI82
aI45
aI22
aI45
aI8
aI38
aI6
aI44
aI18
aI14
aI41
asg29
(lp622
I0
aI14
aI14
aI82
aI6
aI84
aI6
aI82
aI6
aI82
aI14
aI86
aI14
aI14
aI86
aI84
aI14
aI82
aI14
aI82
aI14
aI45
aI13
aI10
aI39
aI19
aI11
aI15
aI46
aI8
asg31
(lp623
I0
aI14
aI14
aI82
aI6
aI84
aI6
aI82
aI6
aI82
aI14
aI86
aI14
aI14
aI86
aI84
aI14
aI82
aI14
aI82
aI11
aI39
aI14
aI14
aI9
aI20
aI1
aI28
aI16
aI1
asg33
(lp624
I0
aI14
aI14
aI82
aI6
aI84
aI6
aI82
aI6
aI82
aI14
aI86
aI14
aI14
aI86
aI84
aI14
aI82
aI14
aI82
aI42
aI44
aI43
aI53
aI23
aI35
aI44
aI42
aI7
aI1
asg35
(lp625
I0
aI14
aI14
aI82
aI6
aI84
aI6
aI82
aI6
aI82
aI14
aI86
aI14
aI14
aI86
aI84
aI14
aI82
aI14
aI82
aI12
aI12
aI9
aI14
aI20
aI14
aI16
aI12
aI1
aI1
asg37
(lp626
I0
aI14
aI14
aI82
aI6
aI84
aI6
aI82
aI6
aI82
aI14
aI86
aI14
aI14
aI86
aI84
aI14
aI82
aI14
aI82
aI6
aI11
aI41
aI21
aI12
aI18
aI9
aI45
aI14
aI12
asg39
(lp627
I0
aI14
aI14
aI82
aI6
aI84
aI6
aI82
aI6
aI82
aI14
aI86
aI14
aI14
aI86
aI84
aI14
aI82
aI14
aI82
aI11
aI41
aI12
aI12
aI6
aI14
aI10
aI21
aI45
aI10
asg41
(lp628
I0
aI14
aI14
aI82
aI6
aI84
aI6
aI82
aI6
aI82
aI14
aI86
aI14
aI14
aI86
aI84
aI14
aI82
aI14
aI82
aI1
aI15
aI22
aI1
aI1
aI43
aI13
aI13
aI13
aI35
asg43
(lp629
I0
aI14
aI14
aI82
aI6
aI84
aI6
aI82
aI6
aI82
aI14
aI86
aI14
aI14
aI86
aI84
aI14
aI82
aI14
aI82
aI42
aI42
aI14
aI1
aI13
aI1
aI6
aI6
aI17
aI5
asg45
(lp630
I0
aI14
aI14
aI82
aI6
aI84
aI6
aI82
aI6
aI82
aI14
aI86
aI14
aI14
aI86
aI84
aI14
aI82
aI14
aI82
aI42
aI10
aI35
aI11
aI12
aI12
aI22
aI18
aI20
aI1
assS'40'
p631
(dp632
S'11'
p633
(lp634
I0
aI14
aI14
aI82
aI6
aI84
aI6
aI82
aI6
aI82
aI14
aI86
aI14
aI14
aI86
aI84
aI14
aI82
aI14
aI82
aI6
aI12
aI6
aI33
aI1
aI14
aI13
aI6
aI6
aI13
asS'10'
p635
(lp636
I0
aI14
aI14
aI82
aI6
aI84
aI6
aI82
aI6
aI82
aI14
aI86
aI14
aI14
aI86
aI84
aI14
aI82
aI14
aI82
aI44
aI17
aI6
aI12
aI11
aI26
aI20
aI16
aI19
aI14
asS'13'
p637
(lp638
I0
aI14
aI14
aI82
aI6
aI84
aI6
aI82
aI6
aI82
aI14
aI86
aI14
aI14
aI86
aI84
aI14
aI82
aI14
aI82
aI11
aI22
aI34
aI14
aI11
aI21
aI21
aI7
aI6
aI18
asS'12'
p639
(lp640
I0
aI14
aI14
aI82
aI6
aI84
aI6
aI82
aI6
aI82
aI14
aI86
aI14
aI14
aI86
aI84
aI14
aI82
aI14
aI82
aI25
aI27
aI10
aI42
aI23
aI6
aI20
aI10
aI1
aI4
asS'15'
p641
(lp642
I0
aI14
aI14
aI82
aI6
aI84
aI6
aI82
aI6
aI82
aI14
aI86
aI14
aI14
aI86
aI84
aI14
aI82
aI14
aI82
aI27
aI9
aI12
aI9
aI6
aI11
aI1
aI1
aI12
aI1
asS'14'
p643
(lp644
I0
aI14
aI14
aI82
aI6
aI84
aI6
aI82
aI6
aI82
aI14
aI86
aI14
aI14
aI86
aI84
aI14
aI82
aI14
aI82
aI9
aI10
aI44
aI41
aI6
aI10
aI12
aI14
aI25
aI1
asS'17'
p645
(lp646
I0
aI14
aI14
aI82
aI6
aI84
aI6
aI82
aI6
aI82
aI14
aI86
aI14
aI14
aI86
aI84
aI14
aI82
aI14
aI82
aI28
aI20
aI1
aI6
aI14
aI34
aI12
aI43
aI17
aI9
asS'16'
p647
(lp648
I0
aI14
aI14
aI82
aI6
aI84
aI6
aI82
aI6
aI82
aI14
aI86
aI14
aI14
aI86
aI84
aI14
aI82
aI14
aI82
aI18
aI14
aI5
aI6
aI11
aI6
aI35
aI44
aI19
aI17
asS'19'
p649
(lp650
I0
aI14
aI14
aI82
aI6
aI84
aI6
aI82
aI6
aI82
aI14
aI86
aI14
aI14
aI86
aI84
aI14
aI82
aI14
aI82
aI41
aI10
aI6
aI25
aI6
aI1
aI6
aI26
aI12
aI1
asS'18'
p651
(lp652
I0
aI14
aI14
aI82
aI6
aI84
aI6
aI82
aI6
aI82
aI14
aI86
aI14
aI14
aI86
aI84
aI14
aI82
aI14
aI82
aI12
aI17
aI15
aI7
aI27
aI21
aI16
aI14
aI6
aI1
asg27
(lp653
I0
aI14
aI14
aI82
aI6
aI84
aI6
aI82
aI6
aI82
aI14
aI86
aI14
aI14
aI86
aI84
aI14
aI82
aI14
aI82
aI22
aI15
aI8
aI14
aI1
aI21
aI40
aI10
aI11
aI14
asg29
(lp654
I0
aI14
aI14
aI82
aI6
aI84
aI6
aI82
aI6
aI82
aI14
aI86
aI14
aI14
aI86
aI84
aI14
aI82
aI14
aI82
aI12
aI6
aI25
aI11
aI6
aI28
aI1
aI14
aI17
aI6
asg31
(lp655
I0
aI14
aI14
aI82
aI6
aI84
aI6
aI82
aI6
aI82
aI14
aI86
aI14
aI14
aI86
aI84
aI14
aI82
aI14
aI82
aI41
aI12
aI9
aI18
aI1
aI44
aI6
aI20
aI9
aI44
asg33
(lp656
I0
aI14
aI14
aI82
aI6
aI84
aI6
aI82
aI6
aI82
aI14
aI86
aI14
aI14
aI86
aI84
aI14
aI82
aI14
aI82
aI43
aI16
aI40
aI14
aI10
aI45
aI14
aI10
aI9
aI14
asg35
(lp657
I0
aI14
aI14
aI82
aI6
aI84
aI6
aI82
aI6
aI82
aI14
aI86
aI14
aI14
aI86
aI84
aI14
aI82
aI14
aI82
aI12
aI21
aI1
aI43
aI19
aI6
aI5
aI17
aI17
aI10
asg37
(lp658
I0
aI14
aI14
aI82
aI6
aI84
aI6
aI82
aI6
aI82
aI14
aI86
aI14
aI14
aI86
aI84
aI14
aI82
aI14
aI82
aI43
aI10
aI12
aI12
aI6
aI14
aI6
aI6
aI28
aI14
asg39
(lp659
I0
aI14
aI14
aI82
aI6
aI84
aI6
aI82
aI6
aI82
aI14
aI86
aI14
aI14
aI86
aI84
aI14
aI82
aI14
aI82
aI15
aI22
aI40
aI10
aI6
aI21
aI13
aI10
aI20
aI1
asg41
(lp660
I0
aI14
aI14
aI82
aI6
aI84
aI6
aI82
aI6
aI82
aI14
aI86
aI14
aI14
aI86
aI84
aI14
aI82
aI14
aI82
aI42
aI10
aI39
aI26
aI44
aI14
aI14
aI16
aI39
aI1
asg43
(lp661
I0
aI14
aI14
aI82
aI6
aI84
aI6
aI82
aI6
aI82
aI14
aI86
aI14
aI14
aI86
aI84
aI14
aI82
aI14
aI82
aI14
aI9
aI10
aI1
aI1
aI6
aI1
aI19
aI14
aI10
asg45
(lp662
I0
aI14
aI14
aI82
aI6
aI84
aI6
aI82
aI6
aI82
aI14
aI86
aI14
aI14
aI86
aI84
aI14
aI82
aI14
aI82
aI11
aI6
aI7
aI13
aI23
aI27
aI35
aI42
aI21
aI45
asssS'./BWLocker/spear/spear_4'
p663
(dp664
S'60'
p665
(dp666
S'11'
p667
(lp668
I0
aI20
aI20
aI189
aI6
aI191
aI6
aI189
aI6
aI189
aI20
aI193
aI20
aI20
aI193
aI191
aI19
aI189
aI19
aI189
aI1
aI59
aI60
aI2
aI63
aI1
aI1
aI4
aI89
aI28
asS'10'
p669
(lp670
I0
aI20
aI20
aI189
aI6
aI191
aI6
aI189
aI6
aI189
aI20
aI193
aI20
aI20
aI193
aI191
aI19
aI189
aI19
aI189
aI88
aI69
aI58
aI18
aI26
aI7
aI2
aI89
aI67
aI41
asS'13'
p671
(lp672
I0
aI20
aI20
aI189
aI6
aI191
aI6
aI189
aI6
aI189
aI20
aI193
aI20
aI20
aI193
aI191
aI19
aI189
aI19
aI189
aI58
aI30
aI32
aI8
aI6
aI8
aI22
aI88
aI68
aI10
asS'12'
p673
(lp674
I0
aI20
aI20
aI189
aI6
aI191
aI6
aI189
aI6
aI189
aI20
aI193
aI20
aI20
aI193
aI191
aI19
aI189
aI19
aI189
aI97
aI29
aI67
aI12
aI67
aI60
aI33
aI2
aI1
aI8
asS'15'
p675
(lp676
I0
aI20
aI20
aI189
aI6
aI191
aI6
aI189
aI6
aI189
aI20
aI193
aI20
aI20
aI193
aI191
aI19
aI189
aI19
aI189
aI22
aI59
aI4
aI68
aI8
aI70
aI14
aI9
aI10
aI1
asS'14'
p677
(lp678
I0
aI20
aI20
aI189
aI6
aI191
aI6
aI189
aI6
aI189
aI20
aI193
aI20
aI20
aI193
aI191
aI19
aI189
aI19
aI189
aI61
aI9
aI14
aI10
aI32
aI2
aI14
aI24
aI88
aI8
asS'17'
p679
(lp680
I0
aI20
aI20
aI189
aI6
aI191
aI6
aI189
aI6
aI189
aI20
aI193
aI20
aI20
aI193
aI191
aI19
aI189
aI19
aI189
aI2
aI61
aI8
aI60
aI6
aI5
aI66
aI2
aI10
aI99
asS'16'
p681
(lp682
I0
aI20
aI20
aI189
aI6
aI191
aI6
aI189
aI6
aI189
aI20
aI193
aI20
aI20
aI193
aI191
aI19
aI189
aI19
aI189
aI2
aI4
aI22
aI37
aI22
aI1
aI71
aI14
aI87
aI6
asS'19'
p683
(lp684
I0
aI20
aI20
aI189
aI6
aI191
aI6
aI189
aI6
aI189
aI20
aI193
aI20
aI20
aI193
aI191
aI19
aI189
aI19
aI189
aI67
aI59
aI10
aI63
aI12
aI12
aI10
aI28
aI68
aI105
asS'18'
p685
(lp686
I0
aI20
aI20
aI189
aI6
aI191
aI6
aI189
aI6
aI189
aI20
aI193
aI20
aI20
aI193
aI191
aI19
aI189
aI19
aI189
aI2
aI28
aI31
aI59
aI89
aI32
aI98
aI12
aI61
aI2
asg27
(lp687
I0
aI20
aI20
aI189
aI6
aI191
aI6
aI189
aI6
aI189
aI20
aI193
aI20
aI20
aI193
aI191
aI19
aI189
aI19
aI189
aI21
aI4
aI32
aI12
aI10
aI29
aI6
aI10
aI1
aI87
asg29
(lp688
I0
aI20
aI20
aI189
aI6
aI191
aI6
aI189
aI6
aI189
aI20
aI193
aI20
aI20
aI193
aI191
aI19
aI189
aI19
aI189
aI31
aI40
aI67
aI79
aI88
aI2
aI31
aI42
aI69
aI25
asg31
(lp689
I0
aI20
aI20
aI189
aI6
aI191
aI6
aI189
aI6
aI189
aI20
aI193
aI20
aI20
aI193
aI191
aI19
aI189
aI19
aI189
aI27
aI32
aI12
aI8
aI5
aI40
aI103
aI29
aI89
aI14
asg33
(lp690
I0
aI20
aI20
aI189
aI6
aI191
aI6
aI189
aI6
aI189
aI20
aI193
aI20
aI20
aI193
aI191
aI19
aI189
aI19
aI189
aI12
aI60
aI69
aI62
aI8
aI58
aI87
aI10
aI15
aI6
asg35
(lp691
I0
aI20
aI20
aI189
aI6
aI191
aI6
aI189
aI6
aI189
aI20
aI193
aI20
aI20
aI193
aI191
aI19
aI189
aI19
aI189
aI23
aI32
aI28
aI12
aI1
aI67
aI8
aI2
aI87
aI27
asg37
(lp692
I0
aI20
aI20
aI189
aI6
aI191
aI6
aI189
aI6
aI189
aI20
aI193
aI20
aI20
aI193
aI191
aI19
aI189
aI19
aI189
aI22
aI31
aI12
aI2
aI22
aI28
aI40
aI90
aI1
aI1
asg39
(lp693
I0
aI20
aI20
aI189
aI6
aI191
aI6
aI189
aI6
aI189
aI20
aI193
aI20
aI20
aI193
aI191
aI19
aI189
aI19
aI189
aI59
aI12
aI28
aI4
aI4
aI67
aI13
aI14
aI1
aI88
asg41
(lp694
I0
aI20
aI20
aI189
aI6
aI191
aI6
aI189
aI6
aI189
aI20
aI193
aI20
aI20
aI193
aI191
aI19
aI189
aI19
aI189
aI102
aI68
aI66
aI28
aI97
aI31
aI69
aI19
aI86
aI1
asg43
(lp695
I0
aI20
aI20
aI189
aI6
aI191
aI6
aI189
aI6
aI189
aI20
aI193
aI20
aI20
aI193
aI191
aI19
aI189
aI19
aI189
aI31
aI12
aI68
aI0
aI29
aI79
aI59
aI2
aI88
aI1
asg45
(lp696
I0
aI20
aI20
aI189
aI6
aI191
aI6
aI189
aI6
aI189
aI20
aI193
aI20
aI20
aI193
aI191
aI19
aI189
aI19
aI189
aI4
aI8
aI4
aI2
aI1
aI9
aI102
aI6
aI14
aI67
assS'30'
p697
(dp698
S'11'
p699
(lp700
I0
aI20
aI20
aI189
aI6
aI191
aI6
aI189
aI6
aI189
aI20
aI193
aI20
aI20
aI193
aI191
aI19
aI189
aI19
aI189
aI57
aI2
aI66
aI22
aI22
aI9
aI15
aI14
aI27
aI2
asS'10'
p701
(lp702
I0
aI20
aI20
aI189
aI6
aI191
aI6
aI189
aI6
aI189
aI20
aI193
aI20
aI20
aI193
aI191
aI19
aI189
aI19
aI189
aI2
aI10
aI6
aI12
aI69
aI59
aI13
aI61
aI9
aI2
asS'13'
p703
(lp704
I0
aI20
aI20
aI189
aI6
aI191
aI6
aI189
aI6
aI189
aI20
aI193
aI20
aI20
aI193
aI191
aI19
aI189
aI19
aI189
aI36
aI40
aI10
aI27
aI10
aI8
aI88
aI14
aI6
aI68
asS'12'
p705
(lp706
I0
aI20
aI20
aI189
aI6
aI191
aI6
aI189
aI6
aI189
aI20
aI193
aI20
aI20
aI193
aI191
aI19
aI189
aI19
aI189
aI40
aI36
aI12
aI2
aI4
aI88
aI6
aI2
aI68
aI60
asS'15'
p707
(lp708
I0
aI20
aI20
aI189
aI6
aI191
aI6
aI189
aI6
aI189
aI20
aI193
aI20
aI20
aI193
aI191
aI19
aI189
aI19
aI189
aI2
aI2
aI10
aI24
aI1
aI32
aI12
aI28
aI22
aI2
asS'14'
p709
(lp710
I0
aI20
aI20
aI189
aI6
aI191
aI6
aI189
aI6
aI189
aI20
aI193
aI20
aI20
aI193
aI191
aI19
aI189
aI19
aI189
aI60
aI30
aI79
aI28
aI12
aI10
aI1
aI69
aI87
aI6
asS'17'
p711
(lp712
I0
aI20
aI20
aI189
aI6
aI191
aI6
aI189
aI6
aI189
aI20
aI193
aI20
aI20
aI193
aI191
aI19
aI189
aI19
aI189
aI10
aI67
aI11
aI10
aI0
aI68
aI95
aI89
aI2
aI40
asS'16'
p713
(lp714
I0
aI20
aI20
aI189
aI6
aI191
aI6
aI189
aI6
aI189
aI20
aI193
aI20
aI20
aI193
aI191
aI19
aI189
aI19
aI189
aI32
aI68
aI31
aI22
aI28
aI2
aI10
aI15
aI9
aI2
asS'19'
p715
(lp716
I0
aI20
aI20
aI189
aI6
aI191
aI6
aI189
aI6
aI189
aI20
aI193
aI20
aI20
aI193
aI191
aI19
aI189
aI19
aI189
aI8
aI31
aI66
aI9
aI5
aI97
aI1
aI88
aI27
aI68
asS'18'
p717
(lp718
I0
aI20
aI20
aI189
aI6
aI191
aI6
aI189
aI6
aI189
aI20
aI193
aI20
aI20
aI193
aI191
aI19
aI189
aI19
aI189
aI8
aI15
aI70
aI101
aI28
aI69
aI50
aI15
aI68
aI1
asg27
(lp719
I0
aI20
aI20
aI189
aI6
aI191
aI6
aI189
aI6
aI189
aI20
aI193
aI20
aI20
aI193
aI191
aI19
aI189
aI19
aI189
aI7
aI20
aI9
aI3
aI68
aI14
aI10
aI22
aI1
aI2
asg29
(lp720
I0
aI20
aI20
aI189
aI6
aI191
aI6
aI189
aI6
aI189
aI20
aI193
aI20
aI20
aI193
aI191
aI19
aI189
aI19
aI189
aI69
aI2
aI4
aI6
aI1
aI10
aI98
aI69
aI2
aI1
asg31
(lp721
I0
aI20
aI20
aI189
aI6
aI191
aI6
aI189
aI6
aI189
aI20
aI193
aI20
aI20
aI193
aI191
aI19
aI189
aI19
aI189
aI2
aI59
aI27
aI89
aI2
aI37
aI61
aI10
aI22
aI16
asg33
(lp722
I0
aI20
aI20
aI189
aI6
aI191
aI6
aI189
aI6
aI189
aI20
aI193
aI20
aI20
aI193
aI191
aI19
aI189
aI19
aI189
aI11
aI22
aI9
aI12
aI28
aI69
aI2
aI1
aI1
aI69
asg35
(lp723
I0
aI20
aI20
aI189
aI6
aI191
aI6
aI189
aI6
aI189
aI20
aI193
aI20
aI20
aI193
aI191
aI19
aI189
aI19
aI189
aI8
aI8
aI8
aI2
aI2
aI10
aI10
aI69
aI24
aI6
asg37
(lp724
I0
aI20
aI20
aI189
aI6
aI191
aI6
aI189
aI6
aI189
aI20
aI193
aI20
aI20
aI193
aI191
aI19
aI189
aI19
aI189
aI98
aI68
aI22
aI31
aI28
aI32
aI68
aI61
aI22
aI1
asg39
(lp725
I0
aI20
aI20
aI189
aI6
aI191
aI6
aI189
aI6
aI189
aI20
aI193
aI20
aI20
aI193
aI191
aI19
aI189
aI19
aI189
aI23
aI28
aI36
aI68
aI101
aI36
aI41
aI6
aI32
aI16
asg41
(lp726
I0
aI20
aI20
aI189
aI6
aI191
aI6
aI189
aI6
aI189
aI20
aI193
aI20
aI20
aI193
aI191
aI19
aI189
aI19
aI189
aI59
aI31
aI81
aI12
aI10
aI28
aI69
aI30
aI8
aI2
asg43
(lp727
I0
aI20
aI20
aI189
aI6
aI191
aI6
aI189
aI6
aI189
aI20
aI193
aI20
aI20
aI193
aI191
aI19
aI189
aI19
aI189
aI12
aI61
aI12
aI10
aI9
aI12
aI68
aI39
aI80
aI6
asg45
(lp728
I0
aI20
aI20
aI189
aI6
aI191
aI6
aI189
aI6
aI189
aI20
aI193
aI20
aI20
aI193
aI191
aI19
aI189
aI19
aI189
aI2
aI59
aI87
aI2
aI28
aI69
aI88
aI63
aI8
aI12
assS'50'
p729
(dp730
S'11'
p731
(lp732
I0
aI20
aI20
aI189
aI6
aI191
aI6
aI189
aI6
aI189
aI20
aI193
aI20
aI20
aI193
aI191
aI19
aI189
aI19
aI189
aI67
aI10
aI78
aI60
aI8
aI9
aI88
aI41
aI21
aI15
asS'10'
p733
(lp734
I0
aI20
aI20
aI189
aI6
aI191
aI6
aI189
aI6
aI189
aI20
aI193
aI20
aI20
aI193
aI191
aI19
aI189
aI19
aI189
aI37
aI2
aI12
aI9
aI40
aI68
aI87
aI70
aI23
aI15
asS'13'
p735
(lp736
I0
aI20
aI20
aI189
aI6
aI191
aI6
aI189
aI6
aI189
aI20
aI193
aI20
aI20
aI193
aI191
aI19
aI189
aI19
aI189
aI4
aI2
aI87
aI95
aI41
aI28
aI13
aI67
aI2
aI6
asS'12'
p737
(lp738
I0
aI20
aI20
aI189
aI6
aI191
aI6
aI189
aI6
aI189
aI20
aI193
aI20
aI20
aI193
aI191
aI19
aI189
aI19
aI189
aI40
aI98
aI10
aI87
aI12
aI31
aI79
aI40
aI16
aI11
asS'15'
p739
(lp740
I0
aI20
aI20
aI189
aI6
aI191
aI6
aI189
aI6
aI189
aI20
aI193
aI20
aI20
aI193
aI191
aI19
aI189
aI19
aI189
aI88
aI37
aI11
aI70
aI27
aI6
aI2
aI23
aI22
aI90
asS'14'
p741
(lp742
I0
aI20
aI20
aI189
aI6
aI191
aI6
aI189
aI6
aI189
aI20
aI193
aI20
aI20
aI193
aI191
aI19
aI189
aI19
aI189
aI2
aI1
aI2
aI79
aI70
aI97
aI89
aI28
aI64
aI23
asS'17'
p743
(lp744
I0
aI20
aI20
aI189
aI6
aI191
aI6
aI189
aI6
aI189
aI20
aI193
aI20
aI20
aI193
aI191
aI19
aI189
aI19
aI189
aI70
aI2
aI40
aI31
aI23
aI22
aI8
aI15
aI2
aI10
asS'16'
p745
(lp746
I0
aI20
aI20
aI189
aI6
aI191
aI6
aI189
aI6
aI189
aI20
aI193
aI20
aI20
aI193
aI191
aI19
aI189
aI19
aI189
aI61
aI30
aI67
aI2
aI32
aI40
aI8
aI87
aI6
aI22
asS'19'
p747
(lp748
I0
aI20
aI20
aI189
aI6
aI191
aI6
aI189
aI6
aI189
aI20
aI193
aI20
aI20
aI193
aI191
aI19
aI189
aI19
aI189
aI24
aI96
aI8
aI1
aI69
aI2
aI68
aI8
aI1
aI90
asS'18'
p749
(lp750
I0
aI20
aI20
aI189
aI6
aI191
aI6
aI189
aI6
aI189
aI20
aI193
aI20
aI20
aI193
aI191
aI19
aI189
aI19
aI189
aI28
aI10
aI69
aI22
aI93
aI8
aI69
aI66
aI6
aI10
asg27
(lp751
I0
aI20
aI20
aI189
aI6
aI191
aI6
aI189
aI6
aI189
aI20
aI193
aI20
aI20
aI193
aI191
aI19
aI189
aI19
aI189
aI2
aI10
aI22
aI14
aI2
aI33
aI14
aI15
aI57
aI27
asg29
(lp752
I0
aI20
aI20
aI189
aI6
aI191
aI6
aI189
aI6
aI189
aI20
aI193
aI20
aI20
aI193
aI191
aI19
aI189
aI19
aI189
aI0
aI68
aI80
aI58
aI10
aI6
aI88
aI26
aI31
aI6
asg31
(lp753
I0
aI20
aI20
aI189
aI6
aI191
aI6
aI189
aI6
aI189
aI20
aI193
aI20
aI20
aI193
aI191
aI19
aI189
aI19
aI189
aI12
aI32
aI37
aI12
aI28
aI1
aI97
aI8
aI87
aI23
asg33
(lp754
I0
aI20
aI20
aI189
aI6
aI191
aI6
aI189
aI6
aI189
aI20
aI193
aI20
aI20
aI193
aI191
aI19
aI189
aI19
aI189
aI60
aI87
aI68
aI28
aI8
aI15
aI10
aI68
aI23
aI88
asg35
(lp755
I0
aI20
aI20
aI189
aI6
aI191
aI6
aI189
aI6
aI189
aI20
aI193
aI20
aI20
aI193
aI191
aI19
aI189
aI19
aI189
aI2
aI28
aI2
aI2
aI6
aI58
aI80
aI65
aI79
aI88
asg37
(lp756
I0
aI20
aI20
aI189
aI6
aI191
aI6
aI189
aI6
aI189
aI20
aI193
aI20
aI20
aI193
aI191
aI19
aI189
aI19
aI189
aI69
aI29
aI69
aI97
aI7
aI0
aI1
aI86
aI31
aI69
asg39
(lp757
I0
aI20
aI20
aI189
aI6
aI191
aI6
aI189
aI6
aI189
aI20
aI193
aI20
aI20
aI193
aI191
aI19
aI189
aI19
aI189
aI71
aI62
aI87
aI1
aI30
aI37
aI87
aI97
aI31
aI2
asg41
(lp758
I0
aI20
aI20
aI189
aI6
aI191
aI6
aI189
aI6
aI189
aI20
aI193
aI20
aI20
aI193
aI191
aI19
aI189
aI19
aI189
aI24
aI37
aI60
aI31
aI10
aI23
aI28
aI1
aI2
aI2
asg43
(lp759
I0
aI20
aI20
aI189
aI6
aI191
aI6
aI189
aI6
aI189
aI20
aI193
aI20
aI20
aI193
aI191
aI19
aI189
aI19
aI189
aI7
aI10
aI96
aI14
aI37
aI2
aI28
aI9
aI10
aI60
asg45
(lp760
I0
aI20
aI20
aI189
aI6
aI191
aI6
aI189
aI6
aI189
aI20
aI193
aI20
aI20
aI193
aI191
aI19
aI189
aI19
aI189
aI97
aI2
aI27
aI1
aI32
aI68
aI88
aI36
aI22
aI2
assS'40'
p761
(dp762
S'11'
p763
(lp764
I0
aI20
aI20
aI189
aI6
aI191
aI6
aI189
aI6
aI189
aI20
aI193
aI20
aI20
aI193
aI191
aI19
aI189
aI19
aI189
aI101
aI4
aI9
aI14
aI63
aI67
aI40
aI7
aI90
aI58
asS'10'
p765
(lp766
I0
aI20
aI20
aI189
aI6
aI191
aI6
aI189
aI6
aI189
aI20
aI193
aI20
aI20
aI193
aI191
aI19
aI189
aI19
aI189
aI36
aI40
aI9
aI14
aI6
aI68
aI14
aI8
aI97
aI14
asS'13'
p767
(lp768
I0
aI20
aI20
aI189
aI6
aI191
aI6
aI189
aI6
aI189
aI20
aI193
aI20
aI20
aI193
aI191
aI19
aI189
aI19
aI189
aI8
aI5
aI96
aI87
aI31
aI22
aI22
aI61
aI69
aI2
asS'12'
p769
(lp770
I0
aI20
aI20
aI189
aI6
aI191
aI6
aI189
aI6
aI189
aI20
aI193
aI20
aI20
aI193
aI191
aI19
aI189
aI19
aI189
aI81
aI2
aI67
aI28
aI4
aI8
aI70
aI13
aI2
aI1
asS'15'
p771
(lp772
I0
aI20
aI20
aI189
aI6
aI191
aI6
aI189
aI6
aI189
aI20
aI193
aI20
aI20
aI193
aI191
aI19
aI189
aI19
aI189
aI2
aI12
aI1
aI37
aI59
aI82
aI69
aI88
aI28
aI18
asS'14'
p773
(lp774
I0
aI20
aI20
aI189
aI6
aI191
aI6
aI189
aI6
aI189
aI20
aI193
aI20
aI20
aI193
aI191
aI19
aI189
aI19
aI189
aI4
aI37
aI64
aI88
aI57
aI10
aI14
aI31
aI6
aI12
asS'17'
p775
(lp776
I0
aI20
aI20
aI189
aI6
aI191
aI6
aI189
aI6
aI189
aI20
aI193
aI20
aI20
aI193
aI191
aI19
aI189
aI19
aI189
aI60
aI10
aI10
aI32
aI40
aI12
aI69
aI97
aI88
aI12
asS'16'
p777
(lp778
I0
aI20
aI20
aI189
aI6
aI191
aI6
aI189
aI6
aI189
aI20
aI193
aI20
aI20
aI193
aI191
aI19
aI189
aI19
aI189
aI6
aI16
aI2
aI10
aI87
aI27
aI68
aI32
aI60
aI10
asS'19'
p779
(lp780
I0
aI20
aI20
aI189
aI6
aI191
aI6
aI189
aI6
aI189
aI20
aI193
aI20
aI20
aI193
aI191
aI19
aI189
aI19
aI189
aI32
aI4
aI22
aI2
aI2
aI96
aI10
aI4
aI1
aI9
asS'18'
p781
(lp782
I0
aI20
aI20
aI189
aI6
aI191
aI6
aI189
aI6
aI189
aI20
aI193
aI20
aI20
aI193
aI191
aI19
aI189
aI19
aI189
aI7
aI2
aI13
aI69
aI1
aI69
aI62
aI40
aI8
aI14
asg27
(lp783
I0
aI20
aI20
aI189
aI6
aI191
aI6
aI189
aI6
aI189
aI20
aI193
aI20
aI20
aI193
aI191
aI19
aI189
aI19
aI189
aI56
aI28
aI8
aI6
aI68
aI14
aI2
aI9
aI8
aI88
asg29
(lp784
I0
aI20
aI20
aI189
aI6
aI191
aI6
aI189
aI6
aI189
aI20
aI193
aI20
aI20
aI193
aI191
aI19
aI189
aI19
aI189
aI2
aI80
aI2
aI12
aI69
aI3
aI30
aI68
aI41
aI8
asg31
(lp785
I0
aI20
aI20
aI189
aI6
aI191
aI6
aI189
aI6
aI189
aI20
aI193
aI20
aI20
aI193
aI191
aI19
aI189
aI19
aI189
aI85
aI67
aI28
aI2
aI2
aI2
aI4
aI98
aI57
aI28
asg33
(lp786
I0
aI20
aI20
aI189
aI6
aI191
aI6
aI189
aI6
aI189
aI20
aI193
aI20
aI20
aI193
aI191
aI19
aI189
aI19
aI189
aI38
aI2
aI41
aI67
aI30
aI31
aI89
aI8
aI63
aI1
asg35
(lp787
I0
aI20
aI20
aI189
aI6
aI191
aI6
aI189
aI6
aI189
aI20
aI193
aI20
aI20
aI193
aI191
aI19
aI189
aI19
aI189
aI10
aI69
aI2
aI40
aI1
aI2
aI10
aI88
aI10
aI98
asg37
(lp788
I0
aI20
aI20
aI189
aI6
aI191
aI6
aI189
aI6
aI189
aI20
aI193
aI20
aI20
aI193
aI191
aI19
aI189
aI19
aI189
aI58
aI10
aI68
aI79
aI10
aI13
aI1
aI2
aI2
aI32
asg39
(lp789
I0
aI20
aI20
aI189
aI6
aI191
aI6
aI189
aI6
aI189
aI20
aI193
aI20
aI20
aI193
aI191
aI19
aI189
aI19
aI189
aI31
aI28
aI67
aI1
aI88
aI10
aI12
aI64
aI28
aI68
asg41
(lp790
I0
aI20
aI20
aI189
aI6
aI191
aI6
aI189
aI6
aI189
aI20
aI193
aI20
aI20
aI193
aI191
aI19
aI189
aI19
aI189
aI31
aI28
aI10
aI40
aI37
aI68
aI21
aI1
aI2
aI90
asg43
(lp791
I0
aI20
aI20
aI189
aI6
aI191
aI6
aI189
aI6
aI189
aI20
aI193
aI20
aI20
aI193
aI191
aI19
aI189
aI19
aI189
aI10
aI37
aI61
aI67
aI1
aI23
aI32
aI8
aI22
aI14
asg45
(lp792
I0
aI20
aI20
aI189
aI6
aI191
aI6
aI189
aI6
aI189
aI20
aI193
aI20
aI20
aI193
aI191
aI19
aI189
aI19
aI189
aI28
aI61
aI87
aI12
aI78
aI59
aI59
aI88
aI23
aI9
asssS'./BWLocker/spear/spear_6'
p793
(dp794
S'60'
p795
(dp796
S'11'
p797
(lp798
I0
aI40
aI40
aI296
aI16
aI297
aI16
aI296
aI16
aI296
aI40
aI300
aI40
aI40
aI300
aI298
aI40
aI296
aI40
aI296
aI143
aI11
aI27
aI125
aI147
aI82
aI58
aI104
aI44
aI56
asS'10'
p799
(lp800
I0
aI40
aI40
aI296
aI16
aI297
aI16
aI296
aI16
aI296
aI40
aI300
aI40
aI40
aI300
aI298
aI40
aI296
aI40
aI296
aI49
aI54
aI23
aI10
aI151
aI81
aI49
aI29
aI28
aI34
asS'13'
p801
(lp802
I0
aI40
aI40
aI296
aI16
aI297
aI16
aI296
aI16
aI296
aI40
aI300
aI40
aI40
aI300
aI298
aI40
aI296
aI40
aI296
aI42
aI63
aI78
aI16
aI62
aI21
aI152
aI122
aI19
aI150
asS'12'
p803
(lp804
I0
aI40
aI40
aI296
aI16
aI297
aI16
aI296
aI16
aI296
aI40
aI300
aI40
aI40
aI300
aI298
aI40
aI296
aI40
aI296
aI32
aI7
aI26
aI147
aI24
aI50
aI12
aI22
aI10
aI12
asS'15'
p805
(lp806
I0
aI40
aI40
aI296
aI16
aI297
aI16
aI296
aI16
aI296
aI40
aI300
aI40
aI40
aI300
aI298
aI40
aI296
aI40
aI296
aI12
aI54
aI53
aI28
aI24
aI3
aI2
aI68
aI8
aI22
asS'14'
p807
(lp808
I0
aI40
aI40
aI296
aI16
aI297
aI16
aI296
aI16
aI296
aI40
aI300
aI40
aI40
aI300
aI298
aI40
aI296
aI40
aI296
aI112
aI46
aI15
aI148
aI7
aI145
aI71
aI30
aI16
aI16
asS'17'
p809
(lp810
I0
aI40
aI40
aI296
aI16
aI297
aI16
aI296
aI16
aI296
aI40
aI300
aI40
aI40
aI300
aI298
aI40
aI296
aI40
aI296
aI16
aI34
aI2
aI27
aI2
aI2
aI78
aI50
aI16
aI58
asS'16'
p811
(lp812
I0
aI40
aI40
aI296
aI16
aI297
aI16
aI296
aI16
aI296
aI40
aI300
aI40
aI40
aI300
aI298
aI40
aI296
aI40
aI296
aI14
aI51
aI30
aI30
aI19
aI60
aI25
aI15
aI26
aI42
asS'19'
p813
(lp814
I0
aI40
aI40
aI296
aI16
aI297
aI16
aI296
aI16
aI296
aI40
aI300
aI40
aI40
aI300
aI298
aI40
aI296
aI40
aI296
aI13
aI16
aI35
aI22
aI10
aI0
aI4
aI6
aI19
aI10
asS'18'
p815
(lp816
I0
aI40
aI40
aI296
aI16
aI297
aI16
aI296
aI16
aI296
aI40
aI300
aI40
aI40
aI300
aI298
aI40
aI296
aI40
aI296
aI58
aI28
aI25
aI30
aI56
aI147
aI36
aI13
aI36
aI38
asg27
(lp817
I0
aI40
aI40
aI296
aI16
aI297
aI16
aI296
aI16
aI296
aI40
aI300
aI40
aI40
aI300
aI298
aI40
aI296
aI40
aI296
aI53
aI88
aI59
aI18
aI58
aI20
aI57
aI33
aI74
aI10
asg29
(lp818
I0
aI40
aI40
aI296
aI16
aI297
aI16
aI296
aI16
aI296
aI40
aI300
aI40
aI40
aI300
aI298
aI40
aI296
aI40
aI296
aI4
aI30
aI150
aI105
aI37
aI30
aI69
aI9
aI30
aI32
asg31
(lp819
I0
aI40
aI40
aI296
aI16
aI297
aI16
aI296
aI16
aI296
aI40
aI300
aI40
aI40
aI300
aI298
aI40
aI296
aI40
aI296
aI60
aI28
aI16
aI98
aI142
aI65
aI26
aI60
aI4
aI8
asg33
(lp820
I0
aI40
aI40
aI296
aI16
aI297
aI16
aI296
aI16
aI296
aI40
aI300
aI40
aI40
aI300
aI298
aI40
aI296
aI40
aI296
aI10
aI24
aI26
aI73
aI5
aI9
aI31
aI44
aI32
aI152
asg35
(lp821
I0
aI40
aI40
aI296
aI16
aI297
aI16
aI296
aI16
aI296
aI40
aI300
aI40
aI40
aI300
aI298
aI40
aI296
aI40
aI296
aI52
aI40
aI24
aI22
aI56
aI45
aI2
aI40
aI16
aI123
asg37
(lp822
I0
aI40
aI40
aI296
aI16
aI297
aI16
aI296
aI16
aI296
aI40
aI300
aI40
aI40
aI300
aI298
aI40
aI296
aI40
aI296
aI152
aI14
aI27
aI86
aI42
aI66
aI21
aI149
aI24
aI4
asg39
(lp823
I0
aI40
aI40
aI296
aI16
aI297
aI16
aI296
aI16
aI296
aI40
aI300
aI40
aI40
aI300
aI298
aI40
aI296
aI40
aI296
aI41
aI56
aI68
aI72
aI28
aI30
aI150
aI8
aI54
aI35
asg41
(lp824
I0
aI40
aI40
aI296
aI16
aI297
aI16
aI296
aI16
aI296
aI40
aI300
aI40
aI40
aI300
aI298
aI40
aI296
aI40
aI296
aI149
aI143
aI14
aI32
aI39
aI18
aI26
aI14
aI16
aI10
asg43
(lp825
I0
aI40
aI40
aI296
aI16
aI297
aI16
aI296
aI16
aI296
aI40
aI300
aI40
aI40
aI300
aI298
aI40
aI296
aI40
aI296
aI147
aI33
aI68
aI146
aI13
aI12
aI68
aI27
aI2
aI28
asg45
(lp826
I0
aI40
aI40
aI296
aI16
aI297
aI16
aI296
aI16
aI296
aI40
aI300
aI40
aI40
aI300
aI298
aI40
aI296
aI40
aI296
aI43
aI78
aI30
aI140
aI38
aI32
aI12
aI0
aI6
aI146
assS'30'
p827
(dp828
S'11'
p829
(lp830
I0
aI40
aI40
aI296
aI16
aI297
aI16
aI296
aI16
aI296
aI40
aI300
aI40
aI40
aI300
aI298
aI40
aI296
aI40
aI296
aI152
aI56
aI30
aI9
aI70
aI2
aI12
aI64
aI45
aI29
asS'10'
p831
(lp832
I0
aI40
aI40
aI296
aI16
aI297
aI16
aI296
aI16
aI296
aI40
aI300
aI40
aI40
aI300
aI298
aI40
aI296
aI40
aI296
aI58
aI28
aI58
aI0
aI64
aI30
aI12
aI109
aI38
aI30
asS'13'
p833
(lp834
I0
aI40
aI40
aI296
aI16
aI297
aI16
aI296
aI16
aI296
aI40
aI300
aI40
aI40
aI300
aI298
aI40
aI296
aI40
aI296
aI29
aI143
aI64
aI121
aI30
aI42
aI0
aI29
aI32
aI26
asS'12'
p835
(lp836
I0
aI40
aI40
aI296
aI16
aI297
aI16
aI296
aI16
aI296
aI40
aI300
aI40
aI40
aI300
aI298
aI40
aI296
aI40
aI296
aI58
aI53
aI2
aI38
aI24
aI148
aI26
aI26
aI0
aI24
asS'15'
p837
(lp838
I0
aI40
aI40
aI296
aI16
aI297
aI16
aI296
aI16
aI296
aI40
aI300
aI40
aI40
aI300
aI298
aI40
aI296
aI40
aI296
aI27
aI20
aI24
aI144
aI49
aI46
aI34
aI10
aI5
aI28
asS'14'
p839
(lp840
I0
aI40
aI40
aI296
aI16
aI297
aI16
aI296
aI16
aI296
aI40
aI300
aI40
aI40
aI300
aI298
aI40
aI296
aI40
aI296
aI52
aI19
aI96
aI35
aI18
aI150
aI52
aI144
aI111
aI2
asS'17'
p841
(lp842
I0
aI40
aI40
aI296
aI16
aI297
aI16
aI296
aI16
aI296
aI40
aI300
aI40
aI40
aI300
aI298
aI40
aI296
aI40
aI296
aI62
aI119
aI37
aI146
aI14
aI38
aI32
aI66
aI12
aI69
asS'16'
p843
(lp844
I0
aI40
aI40
aI296
aI16
aI297
aI16
aI296
aI16
aI296
aI40
aI300
aI40
aI40
aI300
aI298
aI40
aI296
aI40
aI296
aI52
aI16
aI12
aI36
aI14
aI26
aI45
aI16
aI4
aI147
asS'19'
p845
(lp846
I0
aI40
aI40
aI296
aI16
aI297
aI16
aI296
aI16
aI296
aI40
aI300
aI40
aI40
aI300
aI298
aI40
aI296
aI40
aI296
aI19
aI29
aI110
aI30
aI0
aI66
aI15
aI9
aI12
aI12
asS'18'
p847
(lp848
I0
aI40
aI40
aI296
aI16
aI297
aI16
aI296
aI16
aI296
aI40
aI300
aI40
aI40
aI300
aI298
aI40
aI296
aI40
aI296
aI45
aI6
aI54
aI17
aI24
aI15
aI26
aI32
aI28
aI143
asg27
(lp849
I0
aI40
aI40
aI296
aI16
aI297
aI16
aI296
aI16
aI296
aI40
aI300
aI40
aI40
aI300
aI298
aI40
aI296
aI40
aI296
aI25
aI20
aI29
aI60
aI98
aI156
aI41
aI39
aI150
aI70
asg29
(lp850
I0
aI40
aI40
aI296
aI16
aI297
aI16
aI296
aI16
aI296
aI40
aI300
aI40
aI40
aI300
aI298
aI40
aI296
aI40
aI296
aI150
aI39
aI144
aI21
aI15
aI5
aI11
aI30
aI4
aI5
asg31
(lp851
I0
aI40
aI40
aI296
aI16
aI297
aI16
aI296
aI16
aI296
aI40
aI300
aI40
aI40
aI300
aI298
aI40
aI296
aI40
aI296
aI139
aI40
aI69
aI0
aI14
aI13
aI18
aI9
aI26
aI1
asg33
(lp852
I0
aI40
aI40
aI296
aI16
aI297
aI16
aI296
aI16
aI296
aI40
aI300
aI40
aI40
aI300
aI298
aI40
aI296
aI40
aI296
aI42
aI34
aI148
aI28
aI6
aI65
aI32
aI38
aI26
aI6
asg35
(lp853
I0
aI40
aI40
aI296
aI16
aI297
aI16
aI296
aI16
aI296
aI40
aI300
aI40
aI40
aI300
aI298
aI40
aI296
aI40
aI296
aI0
aI16
aI36
aI21
aI16
aI54
aI44
aI17
aI19
aI28
asg37
(lp854
I0
aI40
aI40
aI296
aI16
aI297
aI16
aI296
aI16
aI296
aI40
aI300
aI40
aI40
aI300
aI298
aI40
aI296
aI40
aI296
aI16
aI13
aI58
aI39
aI26
aI13
aI52
aI106
aI84
aI31
asg39
(lp855
I0
aI40
aI40
aI296
aI16
aI297
aI16
aI296
aI16
aI296
aI40
aI300
aI40
aI40
aI300
aI298
aI40
aI296
aI40
aI296
aI70
aI37
aI52
aI65
aI35
aI140
aI55
aI22
aI14
aI60
asg41
(lp856
I0
aI40
aI40
aI296
aI16
aI297
aI16
aI296
aI16
aI296
aI40
aI300
aI40
aI40
aI300
aI298
aI40
aI296
aI40
aI296
aI32
aI30
aI10
aI53
aI30
aI24
aI25
aI52
aI68
aI135
asg43
(lp857
I0
aI40
aI40
aI296
aI16
aI297
aI16
aI296
aI16
aI296
aI40
aI300
aI40
aI40
aI300
aI298
aI40
aI296
aI40
aI296
aI10
aI58
aI15
aI30
aI30
aI14
aI58
aI17
aI40
aI86
asg45
(lp858
I0
aI40
aI40
aI296
aI16
aI297
aI16
aI296
aI16
aI296
aI40
aI300
aI40
aI40
aI300
aI298
aI40
aI296
aI40
aI296
aI12
aI36
aI22
aI29
aI44
aI62
aI30
aI98
aI37
aI4
assS'50'
p859
(dp860
S'11'
p861
(lp862
I0
aI40
aI40
aI296
aI16
aI297
aI16
aI296
aI16
aI296
aI40
aI300
aI40
aI40
aI300
aI298
aI40
aI296
aI40
aI296
aI23
aI30
aI49
aI32
aI147
aI33
aI40
aI2
aI12
aI122
asS'10'
p863
(lp864
I0
aI40
aI40
aI296
aI16
aI297
aI16
aI296
aI16
aI296
aI40
aI300
aI40
aI40
aI300
aI298
aI40
aI296
aI40
aI296
aI16
aI139
aI13
aI30
aI60
aI36
aI39
aI25
aI12
aI13
asS'13'
p865
(lp866
I0
aI40
aI40
aI296
aI16
aI297
aI16
aI296
aI16
aI296
aI40
aI300
aI40
aI40
aI300
aI298
aI40
aI296
aI40
aI296
aI24
aI12
aI18
aI50
aI15
aI119
aI146
aI43
aI34
aI30
asS'12'
p867
(lp868
I0
aI40
aI40
aI296
aI16
aI297
aI16
aI296
aI16
aI296
aI40
aI300
aI40
aI40
aI300
aI298
aI40
aI296
aI40
aI296
aI115
aI19
aI28
aI35
aI150
aI33
aI70
aI14
aI26
aI24
asS'15'
p869
(lp870
I0
aI40
aI40
aI296
aI16
aI297
aI16
aI296
aI16
aI296
aI40
aI300
aI40
aI40
aI300
aI298
aI40
aI296
aI40
aI296
aI61
aI74
aI20
aI32
aI16
aI145
aI32
aI9
aI60
aI62
asS'14'
p871
(lp872
I0
aI40
aI40
aI296
aI16
aI297
aI16
aI296
aI16
aI296
aI40
aI300
aI40
aI40
aI300
aI298
aI40
aI296
aI40
aI296
aI29
aI12
aI20
aI32
aI0
aI62
aI21
aI0
aI14
aI24
asS'17'
p873
(lp874
I0
aI40
aI40
aI296
aI16
aI297
aI16
aI296
aI16
aI296
aI40
aI300
aI40
aI40
aI300
aI298
aI40
aI296
aI40
aI296
aI14
aI31
aI10
aI31
aI3
aI29
aI21
aI4
aI3
aI40
asS'16'
p875
(lp876
I0
aI40
aI40
aI296
aI16
aI297
aI16
aI296
aI16
aI296
aI40
aI300
aI40
aI40
aI300
aI298
aI40
aI296
aI40
aI296
aI145
aI60
aI38
aI9
aI25
aI20
aI152
aI76
aI28
aI14
asS'19'
p877
(lp878
I0
aI40
aI40
aI296
aI16
aI297
aI16
aI296
aI16
aI296
aI40
aI300
aI40
aI40
aI300
aI298
aI40
aI296
aI40
aI296
aI106
aI32
aI146
aI10
aI20
aI0
aI12
aI27
aI98
aI9
asS'18'
p879
(lp880
I0
aI40
aI40
aI296
aI16
aI297
aI16
aI296
aI16
aI296
aI40
aI300
aI40
aI40
aI300
aI298
aI40
aI296
aI40
aI296
aI16
aI122
aI38
aI40
aI36
aI21
aI149
aI6
aI11
aI14
asg27
(lp881
I0
aI40
aI40
aI296
aI16
aI297
aI16
aI296
aI16
aI296
aI40
aI300
aI40
aI40
aI300
aI298
aI40
aI296
aI40
aI296
aI30
aI58
aI10
aI33
aI139
aI36
aI18
aI19
aI14
aI0
asg29
(lp882
I0
aI40
aI40
aI296
aI16
aI297
aI16
aI296
aI16
aI296
aI40
aI300
aI40
aI40
aI300
aI298
aI40
aI296
aI40
aI296
aI30
aI61
aI54
aI64
aI44
aI24
aI112
aI13
aI31
aI69
asg31
(lp883
I0
aI40
aI40
aI296
aI16
aI297
aI16
aI296
aI16
aI296
aI40
aI300
aI40
aI40
aI300
aI298
aI40
aI296
aI40
aI296
aI22
aI22
aI12
aI120
aI109
aI60
aI98
aI77
aI39
aI0
asg33
(lp884
I0
aI40
aI40
aI296
aI16
aI297
aI16
aI296
aI16
aI296
aI40
aI300
aI40
aI40
aI300
aI298
aI40
aI296
aI40
aI296
aI55
aI20
aI147
aI37
aI1
aI26
aI10
aI64
aI16
aI70
asg35
(lp885
I0
aI40
aI40
aI296
aI16
aI297
aI16
aI296
aI16
aI296
aI40
aI300
aI40
aI40
aI300
aI298
aI40
aI296
aI40
aI296
aI14
aI64
aI147
aI62
aI32
aI17
aI12
aI92
aI36
aI32
asg37
(lp886
I0
aI40
aI40
aI296
aI16
aI297
aI16
aI296
aI16
aI296
aI40
aI300
aI40
aI40
aI300
aI298
aI40
aI296
aI40
aI296
aI147
aI39
aI15
aI12
aI152
aI20
aI19
aI16
aI17
aI68
asg39
(lp887
I0
aI40
aI40
aI296
aI16
aI297
aI16
aI296
aI16
aI296
aI40
aI300
aI40
aI40
aI300
aI298
aI40
aI296
aI40
aI296
aI25
aI139
aI58
aI39
aI15
aI14
aI122
aI110
aI13
aI6
asg41
(lp888
I0
aI40
aI40
aI296
aI16
aI297
aI16
aI296
aI16
aI296
aI40
aI300
aI40
aI40
aI300
aI298
aI40
aI296
aI40
aI296
aI21
aI23
aI16
aI146
aI13
aI139
aI29
aI15
aI12
aI58
asg43
(lp889
I0
aI40
aI40
aI296
aI16
aI297
aI16
aI296
aI16
aI296
aI40
aI300
aI40
aI40
aI300
aI298
aI40
aI296
aI40
aI296
aI33
aI60
aI31
aI62
aI144
aI33
aI5
aI38
aI38
aI64
asg45
(lp890
I0
aI40
aI40
aI296
aI16
aI297
aI16
aI296
aI16
aI296
aI40
aI300
aI40
aI40
aI300
aI298
aI40
aI296
aI40
aI296
aI110
aI35
aI16
aI34
aI30
aI12
aI40
aI13
aI12
aI112
assS'40'
p891
(dp892
S'11'
p893
(lp894
I0
aI40
aI40
aI296
aI16
aI297
aI16
aI296
aI16
aI296
aI40
aI300
aI40
aI40
aI300
aI298
aI40
aI296
aI40
aI296
aI26
aI62
aI82
aI16
aI100
aI42
aI144
aI69
aI113
aI1
asS'10'
p895
(lp896
I0
aI40
aI40
aI296
aI16
aI297
aI16
aI296
aI16
aI296
aI40
aI300
aI40
aI40
aI300
aI298
aI40
aI296
aI40
aI296
aI125
aI146
aI32
aI47
aI60
aI68
aI122
aI24
aI16
aI15
asS'13'
p897
(lp898
I0
aI40
aI40
aI296
aI16
aI297
aI16
aI296
aI16
aI296
aI40
aI300
aI40
aI40
aI300
aI298
aI40
aI296
aI40
aI296
aI23
aI62
aI38
aI64
aI14
aI28
aI86
aI38
aI36
aI32
asS'12'
p899
(lp900
I0
aI40
aI40
aI296
aI16
aI297
aI16
aI296
aI16
aI296
aI40
aI300
aI40
aI40
aI300
aI298
aI40
aI296
aI40
aI296
aI22
aI32
aI12
aI26
aI120
aI12
aI68
aI40
aI44
aI152
asS'15'
p901
(lp902
I0
aI40
aI40
aI296
aI16
aI297
aI16
aI296
aI16
aI296
aI40
aI300
aI40
aI40
aI300
aI298
aI40
aI296
aI40
aI296
aI60
aI62
aI19
aI58
aI32
aI112
aI38
aI14
aI74
aI80
asS'14'
p903
(lp904
I0
aI40
aI40
aI296
aI16
aI297
aI16
aI296
aI16
aI296
aI40
aI300
aI40
aI40
aI300
aI298
aI40
aI296
aI40
aI296
aI29
aI60
aI120
aI40
aI72
aI31
aI8
aI39
aI12
aI14
asS'17'
p905
(lp906
I0
aI40
aI40
aI296
aI16
aI297
aI16
aI296
aI16
aI296
aI40
aI300
aI40
aI40
aI300
aI298
aI40
aI296
aI40
aI296
aI31
aI145
aI4
aI40
aI18
aI37
aI76
aI118
aI32
aI16
asS'16'
p907
(lp908
I0
aI40
aI40
aI296
aI16
aI297
aI16
aI296
aI16
aI296
aI40
aI300
aI40
aI40
aI300
aI298
aI40
aI296
aI40
aI296
aI139
aI146
aI41
aI32
aI6
aI40
aI38
aI32
aI17
aI3
asS'19'
p909
(lp910
I0
aI40
aI40
aI296
aI16
aI297
aI16
aI296
aI16
aI296
aI40
aI300
aI40
aI40
aI300
aI298
aI40
aI296
aI40
aI296
aI148
aI33
aI36
aI10
aI81
aI58
aI39
aI12
aI10
aI16
asS'18'
p911
(lp912
I0
aI40
aI40
aI296
aI16
aI297
aI16
aI296
aI16
aI296
aI40
aI300
aI40
aI40
aI300
aI298
aI40
aI296
aI40
aI296
aI31
aI25
aI151
aI3
aI37
aI35
aI40
aI16
aI16
aI11
asg27
(lp913
I0
aI40
aI40
aI296
aI16
aI297
aI16
aI296
aI16
aI296
aI40
aI300
aI40
aI40
aI300
aI298
aI40
aI296
aI40
aI296
aI29
aI47
aI40
aI14
aI37
aI32
aI16
aI0
aI62
aI72
asg29
(lp914
I0
aI40
aI40
aI296
aI16
aI297
aI16
aI296
aI16
aI296
aI40
aI300
aI40
aI40
aI300
aI298
aI40
aI296
aI40
aI296
aI25
aI23
aI58
aI34
aI39
aI40
aI13
aI12
aI5
aI12
asg31
(lp915
I0
aI40
aI40
aI296
aI16
aI297
aI16
aI296
aI16
aI296
aI40
aI300
aI40
aI40
aI300
aI298
aI40
aI296
aI40
aI296
aI12
aI58
aI4
aI13
aI26
aI146
aI16
aI68
aI143
aI11
asg33
(lp916
I0
aI40
aI40
aI296
aI16
aI297
aI16
aI296
aI16
aI296
aI40
aI300
aI40
aI40
aI300
aI298
aI40
aI296
aI40
aI296
aI62
aI61
aI38
aI122
aI32
aI37
aI12
aI13
aI10
aI0
asg35
(lp917
I0
aI40
aI40
aI296
aI16
aI297
aI16
aI296
aI16
aI296
aI40
aI300
aI40
aI40
aI300
aI298
aI40
aI296
aI40
aI296
aI60
aI38
aI24
aI15
aI14
aI30
aI58
aI41
aI33
aI20
asg37
(lp918
I0
aI40
aI40
aI296
aI16
aI297
aI16
aI296
aI16
aI296
aI40
aI300
aI40
aI40
aI300
aI298
aI40
aI296
aI40
aI296
aI94
aI51
aI14
aI56
aI40
aI21
aI24
aI50
aI22
aI84
asg39
(lp919
I0
aI40
aI40
aI296
aI16
aI297
aI16
aI296
aI16
aI296
aI40
aI300
aI40
aI40
aI300
aI298
aI40
aI296
aI40
aI296
aI122
aI24
aI1
aI28
aI17
aI113
aI25
aI57
aI52
aI2
asg41
(lp920
I0
aI40
aI40
aI296
aI16
aI297
aI16
aI296
aI16
aI296
aI40
aI300
aI40
aI40
aI300
aI298
aI40
aI296
aI40
aI296
aI20
aI32
aI152
aI17
aI60
aI21
aI59
aI33
aI31
aI10
asg43
(lp921
I0
aI40
aI40
aI296
aI16
aI297
aI16
aI296
aI16
aI296
aI40
aI300
aI40
aI40
aI300
aI298
aI40
aI296
aI40
aI296
aI42
aI144
aI39
aI86
aI72
aI8
aI26
aI13
aI60
aI25
asg45
(lp922
I0
aI40
aI40
aI296
aI16
aI297
aI16
aI296
aI16
aI296
aI40
aI300
aI40
aI40
aI300
aI298
aI40
aI296
aI40
aI296
aI104
aI43
aI27
aI42
aI58
aI33
aI31
aI19
aI154
aI13
asssS'./BWLocker/spear/spear_9'
p923
(dp924
S'60'
p925
(dp926
S'11'
p927
(lp928
I0
aI8
aI8
aI156
aI0
aI158
aI0
aI156
aI0
aI156
aI8
aI160
aI8
aI8
aI160
aI159
aI8
aI156
aI8
aI156
aI4
aI0
aI4
aI14
aI0
aI10
aI11
aI16
aI4
aI6
asS'10'
p929
(lp930
I0
aI8
aI8
aI156
aI0
aI158
aI0
aI156
aI0
aI156
aI8
aI160
aI8
aI8
aI160
aI159
aI8
aI156
aI8
aI156
aI8
aI26
aI20
aI1
aI0
aI13
aI10
aI0
aI0
aI0
asS'13'
p931
(lp932
I0
aI8
aI8
aI156
aI0
aI158
aI0
aI156
aI0
aI156
aI8
aI160
aI8
aI8
aI160
aI159
aI8
aI156
aI8
aI156
aI1
aI0
aI6
aI3
aI0
aI2
aI19
aI20
aI14
aI0
asS'12'
p933
(lp934
I0
aI8
aI8
aI156
aI0
aI158
aI0
aI156
aI0
aI156
aI8
aI160
aI8
aI8
aI160
aI159
aI8
aI156
aI8
aI156
aI0
aI12
aI26
aI16
aI13
aI10
aI19
aI20
aI0
aI20
asS'15'
p935
(lp936
I0
aI8
aI8
aI156
aI0
aI158
aI0
aI156
aI0
aI156
aI8
aI160
aI8
aI8
aI160
aI159
aI8
aI156
aI8
aI156
aI8
aI0
aI13
aI10
aI21
aI8
aI19
aI3
aI6
aI21
asS'14'
p937
(lp938
I0
aI8
aI8
aI156
aI0
aI158
aI0
aI156
aI0
aI156
aI8
aI160
aI8
aI8
aI160
aI159
aI8
aI156
aI8
aI156
aI20
aI19
aI1
aI14
aI10
aI22
aI0
aI0
aI1
aI0
asS'17'
p939
(lp940
I0
aI8
aI8
aI156
aI0
aI158
aI0
aI156
aI0
aI156
aI8
aI160
aI8
aI8
aI160
aI159
aI8
aI156
aI8
aI156
aI24
aI13
aI8
aI20
aI1
aI13
aI21
aI9
aI4
aI0
asS'16'
p941
(lp942
I0
aI8
aI8
aI156
aI0
aI158
aI0
aI156
aI0
aI156
aI8
aI160
aI8
aI8
aI160
aI159
aI8
aI156
aI8
aI156
aI1
aI0
aI21
aI8
aI0
aI20
aI5
aI13
aI25
aI2
asS'19'
p943
(lp944
I0
aI8
aI8
aI156
aI0
aI158
aI0
aI156
aI0
aI156
aI8
aI160
aI8
aI8
aI160
aI159
aI8
aI156
aI8
aI156
aI0
aI1
aI7
aI4
aI0
aI7
aI15
aI4
aI14
aI0
asS'18'
p945
(lp946
I0
aI8
aI8
aI156
aI0
aI158
aI0
aI156
aI0
aI156
aI8
aI160
aI8
aI8
aI160
aI159
aI8
aI156
aI8
aI156
aI1
aI1
aI3
aI0
aI2
aI19
aI0
aI11
aI19
aI21
asg27
(lp947
I0
aI8
aI8
aI156
aI0
aI158
aI0
aI156
aI0
aI156
aI8
aI160
aI8
aI8
aI160
aI159
aI8
aI156
aI8
aI156
aI9
aI9
aI1
aI21
aI20
aI10
aI11
aI3
aI0
aI0
asg29
(lp948
I0
aI8
aI8
aI156
aI0
aI158
aI0
aI156
aI0
aI156
aI8
aI160
aI8
aI8
aI160
aI159
aI8
aI156
aI8
aI156
aI8
aI20
aI1
aI28
aI26
aI20
aI0
aI4
aI3
aI0
asg31
(lp949
I0
aI8
aI8
aI156
aI0
aI158
aI0
aI156
aI0
aI156
aI8
aI160
aI8
aI8
aI160
aI159
aI8
aI156
aI8
aI156
aI17
aI10
aI0
aI0
aI2
aI9
aI0
aI1
aI1
aI10
asg33
(lp950
I0
aI8
aI8
aI156
aI0
aI158
aI0
aI156
aI0
aI156
aI8
aI160
aI8
aI8
aI160
aI159
aI8
aI156
aI8
aI156
aI17
aI0
aI2
aI0
aI4
aI9
aI0
aI13
aI2
aI15
asg35
(lp951
I0
aI8
aI8
aI156
aI0
aI158
aI0
aI156
aI0
aI156
aI8
aI160
aI8
aI8
aI160
aI159
aI8
aI156
aI8
aI156
aI26
aI21
aI21
aI8
aI4
aI15
aI12
aI26
aI6
aI3
asg37
(lp952
I0
aI8
aI8
aI156
aI0
aI158
aI0
aI156
aI0
aI156
aI8
aI160
aI8
aI8
aI160
aI159
aI8
aI156
aI8
aI156
aI1
aI21
aI1
aI26
aI11
aI20
aI0
aI10
aI3
aI2
asg39
(lp953
I0
aI8
aI8
aI156
aI0
aI158
aI0
aI156
aI0
aI156
aI8
aI160
aI8
aI8
aI160
aI159
aI8
aI156
aI8
aI156
aI3
aI21
aI8
aI4
aI9
aI11
aI14
aI5
aI14
aI4
asg41
(lp954
I0
aI8
aI8
aI156
aI0
aI158
aI0
aI156
aI0
aI156
aI8
aI160
aI8
aI8
aI160
aI159
aI8
aI156
aI8
aI156
aI2
aI16
aI19
aI0
aI3
aI20
aI0
aI0
aI20
aI1
asg43
(lp955
I0
aI8
aI8
aI156
aI0
aI158
aI0
aI156
aI0
aI156
aI8
aI160
aI8
aI8
aI160
aI159
aI8
aI156
aI8
aI156
aI4
aI22
aI1
aI0
aI2
aI20
aI23
aI1
aI0
aI4
asg45
(lp956
I0
aI8
aI8
aI156
aI0
aI158
aI0
aI156
aI0
aI156
aI8
aI160
aI8
aI8
aI160
aI159
aI8
aI156
aI8
aI156
aI2
aI8
aI4
aI25
aI9
aI0
aI13
aI20
aI1
aI3
assS'30'
p957
(dp958
S'11'
p959
(lp960
I0
aI8
aI8
aI156
aI0
aI158
aI0
aI156
aI0
aI156
aI8
aI160
aI8
aI8
aI160
aI159
aI8
aI156
aI8
aI156
aI9
aI4
aI25
aI8
aI0
aI10
aI0
aI4
aI20
aI6
asS'10'
p961
(lp962
I0
aI8
aI8
aI156
aI0
aI158
aI0
aI156
aI0
aI156
aI8
aI160
aI8
aI8
aI160
aI159
aI8
aI156
aI8
aI156
aI26
aI8
aI2
aI12
aI0
aI18
aI0
aI15
aI3
aI9
asS'13'
p963
(lp964
I0
aI8
aI8
aI156
aI0
aI158
aI0
aI156
aI0
aI156
aI8
aI160
aI8
aI8
aI160
aI159
aI8
aI156
aI8
aI156
aI21
aI4
aI0
aI8
aI13
aI1
aI4
aI11
aI8
aI0
asS'12'
p965
(lp966
I0
aI8
aI8
aI156
aI0
aI158
aI0
aI156
aI0
aI156
aI8
aI160
aI8
aI8
aI160
aI159
aI8
aI156
aI8
aI156
aI1
aI0
aI4
aI3
aI11
aI0
aI13
aI15
aI19
aI13
asS'15'
p967
(lp968
I0
aI8
aI8
aI156
aI0
aI158
aI0
aI156
aI0
aI156
aI8
aI160
aI8
aI8
aI160
aI159
aI8
aI156
aI8
aI156
aI27
aI8
aI21
aI0
aI0
aI20
aI1
aI12
aI19
aI14
asS'14'
p969
(lp970
I0
aI8
aI8
aI156
aI0
aI158
aI0
aI156
aI0
aI156
aI8
aI160
aI8
aI8
aI160
aI159
aI8
aI156
aI8
aI156
aI13
aI0
aI6
aI16
aI1
aI6
aI25
aI13
aI0
aI3
asS'17'
p971
(lp972
I0
aI8
aI8
aI156
aI0
aI158
aI0
aI156
aI0
aI156
aI8
aI160
aI8
aI8
aI160
aI159
aI8
aI156
aI8
aI156
aI4
aI16
aI19
aI0
aI10
aI21
aI6
aI19
aI0
aI1
asS'16'
p973
(lp974
I0
aI8
aI8
aI156
aI0
aI158
aI0
aI156
aI0
aI156
aI8
aI160
aI8
aI8
aI160
aI159
aI8
aI156
aI8
aI156
aI8
aI13
aI1
aI3
aI14
aI4
aI6
aI12
aI19
aI15
asS'19'
p975
(lp976
I0
aI8
aI8
aI156
aI0
aI158
aI0
aI156
aI0
aI156
aI8
aI160
aI8
aI8
aI160
aI159
aI8
aI156
aI8
aI156
aI7
aI0
aI20
aI19
aI13
aI4
aI0
aI15
aI11
aI3
asS'18'
p977
(lp978
I0
aI8
aI8
aI156
aI0
aI158
aI0
aI156
aI0
aI156
aI8
aI160
aI8
aI8
aI160
aI159
aI8
aI156
aI8
aI156
aI10
aI1
aI9
aI3
aI20
aI2
aI19
aI20
aI14
aI12
asg27
(lp979
I0
aI8
aI8
aI156
aI0
aI158
aI0
aI156
aI0
aI156
aI8
aI160
aI8
aI8
aI160
aI159
aI8
aI156
aI8
aI156
aI0
aI8
aI26
aI10
aI0
aI1
aI0
aI0
aI0
aI14
asg29
(lp980
I0
aI8
aI8
aI156
aI0
aI158
aI0
aI156
aI0
aI156
aI8
aI160
aI8
aI8
aI160
aI159
aI8
aI156
aI8
aI156
aI0
aI0
aI9
aI8
aI0
aI1
aI3
aI19
aI1
aI0
asg31
(lp981
I0
aI8
aI8
aI156
aI0
aI158
aI0
aI156
aI0
aI156
aI8
aI160
aI8
aI8
aI160
aI159
aI8
aI156
aI8
aI156
aI20
aI2
aI0
aI13
aI15
aI1
aI22
aI15
aI1
aI1
asg33
(lp982
I0
aI8
aI8
aI156
aI0
aI158
aI0
aI156
aI0
aI156
aI8
aI160
aI8
aI8
aI160
aI159
aI8
aI156
aI8
aI156
aI1
aI1
aI2
aI20
aI20
aI4
aI13
aI10
aI0
aI1
asg35
(lp983
I0
aI8
aI8
aI156
aI0
aI158
aI0
aI156
aI0
aI156
aI8
aI160
aI8
aI8
aI160
aI159
aI8
aI156
aI8
aI156
aI19
aI0
aI14
aI0
aI0
aI0
aI1
aI26
aI3
aI1
asg37
(lp984
I0
aI8
aI8
aI156
aI0
aI158
aI0
aI156
aI0
aI156
aI8
aI160
aI8
aI8
aI160
aI159
aI8
aI156
aI8
aI156
aI0
aI13
aI0
aI13
aI2
aI8
aI14
aI2
aI3
aI18
asg39
(lp985
I0
aI8
aI8
aI156
aI0
aI158
aI0
aI156
aI0
aI156
aI8
aI160
aI8
aI8
aI160
aI159
aI8
aI156
aI8
aI156
aI13
aI13
aI1
aI20
aI15
aI23
aI6
aI1
aI10
aI7
asg41
(lp986
I0
aI8
aI8
aI156
aI0
aI158
aI0
aI156
aI0
aI156
aI8
aI160
aI8
aI8
aI160
aI159
aI8
aI156
aI8
aI156
aI1
aI0
aI25
aI0
aI20
aI14
aI9
aI0
aI3
aI0
asg43
(lp987
I0
aI8
aI8
aI156
aI0
aI158
aI0
aI156
aI0
aI156
aI8
aI160
aI8
aI8
aI160
aI159
aI8
aI156
aI8
aI156
aI18
aI13
aI4
aI10
aI1
aI26
aI13
aI5
aI7
aI14
asg45
(lp988
I0
aI8
aI8
aI156
aI0
aI158
aI0
aI156
aI0
aI156
aI8
aI160
aI8
aI8
aI160
aI159
aI8
aI156
aI8
aI156
aI11
aI0
aI0
aI10
aI4
aI25
aI3
aI1
aI0
aI17
assS'50'
p989
(dp990
S'11'
p991
(lp992
I0
aI8
aI8
aI156
aI0
aI158
aI0
aI156
aI0
aI156
aI8
aI160
aI8
aI8
aI160
aI159
aI8
aI156
aI8
aI156
aI1
aI9
aI0
aI14
aI26
aI22
aI2
aI0
aI20
aI8
asS'10'
p993
(lp994
I0
aI8
aI8
aI156
aI0
aI158
aI0
aI156
aI0
aI156
aI8
aI160
aI8
aI8
aI160
aI159
aI8
aI156
aI8
aI156
aI21
aI0
aI0
aI12
aI14
aI20
aI14
aI0
aI6
aI0
asS'13'
p995
(lp996
I0
aI8
aI8
aI156
aI0
aI158
aI0
aI156
aI0
aI156
aI8
aI160
aI8
aI8
aI160
aI159
aI8
aI156
aI8
aI156
aI0
aI3
aI11
aI8
aI12
aI12
aI7
aI0
aI20
aI4
asS'12'
p997
(lp998
I0
aI8
aI8
aI156
aI0
aI158
aI0
aI156
aI0
aI156
aI8
aI160
aI8
aI8
aI160
aI159
aI8
aI156
aI8
aI156
aI9
aI3
aI1
aI4
aI0
aI21
aI0
aI0
aI19
aI1
asS'15'
p999
(lp1000
I0
aI8
aI8
aI156
aI0
aI158
aI0
aI156
aI0
aI156
aI8
aI160
aI8
aI8
aI160
aI159
aI8
aI156
aI8
aI156
aI19
aI14
aI0
aI18
aI13
aI8
aI8
aI15
aI20
aI17
asS'14'
p1001
(lp1002
I0
aI8
aI8
aI156
aI0
aI158
aI0
aI156
aI0
aI156
aI8
aI160
aI8
aI8
aI160
aI159
aI8
aI156
aI8
aI156
aI9
aI1
aI0
aI13
aI3
aI20
aI1
aI26
aI0
aI0
asS'17'
p1003
(lp1004
I0
aI8
aI8
aI156
aI0
aI158
aI0
aI156
aI0
aI156
aI8
aI160
aI8
aI8
aI160
aI159
aI8
aI156
aI8
aI156
aI14
aI25
aI6
aI1
aI9
aI4
aI15
aI1
aI0
aI13
asS'16'
p1005
(lp1006
I0
aI8
aI8
aI156
aI0
aI158
aI0
aI156
aI0
aI156
aI8
aI160
aI8
aI8
aI160
aI159
aI8
aI156
aI8
aI156
aI14
aI6
aI13
aI8
aI0
aI20
aI2
aI0
aI21
aI0
asS'19'
p1007
(lp1008
I0
aI8
aI8
aI156
aI0
aI158
aI0
aI156
aI0
aI156
aI8
aI160
aI8
aI8
aI160
aI159
aI8
aI156
aI8
aI156
aI26
aI1
aI11
aI2
aI0
aI0
aI13
aI0
aI4
aI1
asS'18'
p1009
(lp1010
I0
aI8
aI8
aI156
aI0
aI158
aI0
aI156
aI0
aI156
aI8
aI160
aI8
aI8
aI160
aI159
aI8
aI156
aI8
aI156
aI9
aI0
aI0
aI11
aI1
aI18
aI20
aI16
aI13
aI3
asg27
(lp1011
I0
aI8
aI8
aI156
aI0
aI158
aI0
aI156
aI0
aI156
aI8
aI160
aI8
aI8
aI160
aI159
aI8
aI156
aI8
aI156
aI13
aI6
aI12
aI10
aI0
aI1
aI20
aI21
aI0
aI11
asg29
(lp1012
I0
aI8
aI8
aI156
aI0
aI158
aI0
aI156
aI0
aI156
aI8
aI160
aI8
aI8
aI160
aI159
aI8
aI156
aI8
aI156
aI26
aI26
aI19
aI1
aI7
aI14
aI0
aI0
aI13
aI4
asg31
(lp1013
I0
aI8
aI8
aI156
aI0
aI158
aI0
aI156
aI0
aI156
aI8
aI160
aI8
aI8
aI160
aI159
aI8
aI156
aI8
aI156
aI0
aI0
aI0
aI20
aI0
aI1
aI2
aI11
aI1
aI13
asg33
(lp1014
I0
aI8
aI8
aI156
aI0
aI158
aI0
aI156
aI0
aI156
aI8
aI160
aI8
aI8
aI160
aI159
aI8
aI156
aI8
aI156
aI0
aI4
aI6
aI4
aI0
aI20
aI20
aI1
aI0
aI0
asg35
(lp1015
I0
aI8
aI8
aI156
aI0
aI158
aI0
aI156
aI0
aI156
aI8
aI160
aI8
aI8
aI160
aI159
aI8
aI156
aI8
aI156
aI9
aI2
aI25
aI10
aI12
aI0
aI5
aI0
aI20
aI13
asg37
(lp1016
I0
aI8
aI8
aI156
aI0
aI158
aI0
aI156
aI0
aI156
aI8
aI160
aI8
aI8
aI160
aI159
aI8
aI156
aI8
aI156
aI1
aI1
aI8
aI3
aI4
aI25
aI13
aI4
aI2
aI4
asg39
(lp1017
I0
aI8
aI8
aI156
aI0
aI158
aI0
aI156
aI0
aI156
aI8
aI160
aI8
aI8
aI160
aI159
aI8
aI156
aI8
aI156
aI20
aI4
aI1
aI12
aI0
aI4
aI13
aI12
aI27
aI0
asg41
(lp1018
I0
aI8
aI8
aI156
aI0
aI158
aI0
aI156
aI0
aI156
aI8
aI160
aI8
aI8
aI160
aI159
aI8
aI156
aI8
aI156
aI0
aI2
aI0
aI21
aI3
aI1
aI11
aI6
aI7
aI13
asg43
(lp1019
I0
aI8
aI8
aI156
aI0
aI158
aI0
aI156
aI0
aI156
aI8
aI160
aI8
aI8
aI160
aI159
aI8
aI156
aI8
aI156
aI0
aI0
aI15
aI0
aI25
aI10
aI2
aI0
aI4
aI0
asg45
(lp1020
I0
aI8
aI8
aI156
aI0
aI158
aI0
aI156
aI0
aI156
aI8
aI160
aI8
aI8
aI160
aI159
aI8
aI156
aI8
aI156
aI18
aI21
aI2
aI4
aI19
aI0
aI1
aI1
aI24
aI2
assS'40'
p1021
(dp1022
S'11'
p1023
(lp1024
I0
aI8
aI8
aI156
aI0
aI158
aI0
aI156
aI0
aI156
aI8
aI160
aI8
aI8
aI160
aI159
aI8
aI156
aI8
aI156
aI13
aI18
aI18
aI20
aI0
aI9
aI8
aI14
aI1
aI15
asS'10'
p1025
(lp1026
I0
aI8
aI8
aI156
aI0
aI158
aI0
aI156
aI0
aI156
aI8
aI160
aI8
aI8
aI160
aI159
aI8
aI156
aI8
aI156
aI0
aI0
aI26
aI13
aI6
aI0
aI3
aI4
aI0
aI4
asS'13'
p1027
(lp1028
I0
aI8
aI8
aI156
aI0
aI158
aI0
aI156
aI0
aI156
aI8
aI160
aI8
aI8
aI160
aI159
aI8
aI156
aI8
aI156
aI0
aI0
aI13
aI12
aI0
aI0
aI20
aI0
aI3
aI1
asS'12'
p1029
(lp1030
I0
aI8
aI8
aI156
aI0
aI158
aI0
aI156
aI0
aI156
aI8
aI160
aI8
aI8
aI160
aI159
aI8
aI156
aI8
aI156
aI1
aI27
aI1
aI15
aI26
aI0
aI9
aI3
aI6
aI1
asS'15'
p1031
(lp1032
I0
aI8
aI8
aI156
aI0
aI158
aI0
aI156
aI0
aI156
aI8
aI160
aI8
aI8
aI160
aI159
aI8
aI156
aI8
aI156
aI1
aI8
aI11
aI26
aI1
aI19
aI3
aI10
aI2
aI15
asS'14'
p1033
(lp1034
I0
aI8
aI8
aI156
aI0
aI158
aI0
aI156
aI0
aI156
aI8
aI160
aI8
aI8
aI160
aI159
aI8
aI156
aI8
aI156
aI0
aI3
aI0
aI12
aI18
aI11
aI7
aI19
aI7
aI2
asS'17'
p1035
(lp1036
I0
aI8
aI8
aI156
aI0
aI158
aI0
aI156
aI0
aI156
aI8
aI160
aI8
aI8
aI160
aI159
aI8
aI156
aI8
aI156
aI21
aI14
aI0
aI0
aI13
aI20
aI3
aI0
aI4
aI3
asS'16'
p1037
(lp1038
I0
aI8
aI8
aI156
aI0
aI158
aI0
aI156
aI0
aI156
aI8
aI160
aI8
aI8
aI160
aI159
aI8
aI156
aI8
aI156
aI0
aI0
aI8
aI3
aI0
aI0
aI14
aI13
aI8
aI10
asS'19'
p1039
(lp1040
I0
aI8
aI8
aI156
aI0
aI158
aI0
aI156
aI0
aI156
aI8
aI160
aI8
aI8
aI160
aI159
aI8
aI156
aI8
aI156
aI0
aI15
aI20
aI8
aI20
aI25
aI8
aI4
aI11
aI14
asS'18'
p1041
(lp1042
I0
aI8
aI8
aI156
aI0
aI158
aI0
aI156
aI0
aI156
aI8
aI160
aI8
aI8
aI160
aI159
aI8
aI156
aI8
aI156
aI0
aI0
aI20
aI7
aI0
aI4
aI4
aI1
aI1
aI21
asg27
(lp1043
I0
aI8
aI8
aI156
aI0
aI158
aI0
aI156
aI0
aI156
aI8
aI160
aI8
aI8
aI160
aI159
aI8
aI156
aI8
aI156
aI20
aI14
aI7
aI26
aI25
aI20
aI0
aI6
aI25
aI2
asg29
(lp1044
I0
aI8
aI8
aI156
aI0
aI158
aI0
aI156
aI0
aI156
aI8
aI160
aI8
aI8
aI160
aI159
aI8
aI156
aI8
aI156
aI0
aI17
aI2
aI0
aI20
aI19
aI13
aI11
aI3
aI2
asg31
(lp1045
I0
aI8
aI8
aI156
aI0
aI158
aI0
aI156
aI0
aI156
aI8
aI160
aI8
aI8
aI160
aI159
aI8
aI156
aI8
aI156
aI4
aI20
aI26
aI0
aI0
aI4
aI1
aI2
aI5
aI0
asg33
(lp1046
I0
aI8
aI8
aI156
aI0
aI158
aI0
aI156
aI0
aI156
aI8
aI160
aI8
aI8
aI160
aI159
aI8
aI156
aI8
aI156
aI1
aI0
aI0
aI21
aI1
aI0
aI6
aI1
aI0
aI0
asg35
(lp1047
I0
aI8
aI8
aI156
aI0
aI158
aI0
aI156
aI0
aI156
aI8
aI160
aI8
aI8
aI160
aI159
aI8
aI156
aI8
aI156
aI0
aI21
aI12
aI9
aI27
aI18
aI0
aI0
aI1
aI0
asg37
(lp1048
I0
aI8
aI8
aI156
aI0
aI158
aI0
aI156
aI0
aI156
aI8
aI160
aI8
aI8
aI160
aI159
aI8
aI156
aI8
aI156
aI20
aI1
aI0
aI20
aI10
aI3
aI0
aI0
aI12
aI0
asg39
(lp1049
I0
aI8
aI8
aI156
aI0
aI158
aI0
aI156
aI0
aI156
aI8
aI160
aI8
aI8
aI160
aI159
aI8
aI156
aI8
aI156
aI7
aI4
aI0
aI0
aI13
aI20
aI17
aI0
aI2
aI0
asg41
(lp1050
I0
aI8
aI8
aI156
aI0
aI158
aI0
aI156
aI0
aI156
aI8
aI160
aI8
aI8
aI160
aI159
aI8
aI156
aI8
aI156
aI0
aI2
aI19
aI4
aI1
aI25
aI12
aI4
aI20
aI13
asg43
(lp1051
I0
aI8
aI8
aI156
aI0
aI158
aI0
aI156
aI0
aI156
aI8
aI160
aI8
aI8
aI160
aI159
aI8
aI156
aI8
aI156
aI19
aI0
aI0
aI6
aI15
aI2
aI13
aI17
aI7
aI4
asg45
(lp1052
I0
aI8
aI8
aI156
aI0
aI158
aI0
aI156
aI0
aI156
aI8
aI160
aI8
aI8
aI160
aI159
aI8
aI156
aI8
aI156
aI0
aI25
aI26
aI14
aI0
aI8
aI8
aI0
aI0
aI8
asssS'./BWLocker/spear/spear_8'
p1053
(dp1054
S'60'
p1055
(dp1056
S'11'
p1057
(lp1058
I0
aI84
aI84
aI415
aI34
aI417
aI34
aI415
aI34
aI415
aI83
aI422
aI83
aI83
aI422
aI418
aI83
aI415
aI83
aI415
aI50
aI36
aI292
aI123
aI64
aI54
aI127
aI131
aI72
aI127
asS'10'
p1059
(lp1060
I0
aI84
aI84
aI415
aI34
aI417
aI34
aI415
aI34
aI415
aI83
aI422
aI83
aI83
aI422
aI418
aI83
aI415
aI83
aI415
aI114
aI110
aI140
aI298
aI138
aI201
aI11
aI125
aI36
aI131
asS'13'
p1061
(lp1062
I0
aI84
aI84
aI415
aI34
aI417
aI34
aI415
aI34
aI415
aI83
aI422
aI83
aI83
aI422
aI418
aI83
aI415
aI83
aI415
aI301
aI86
aI57
aI122
aI49
aI31
aI18
aI18
aI33
aI30
asS'12'
p1063
(lp1064
I0
aI84
aI84
aI415
aI34
aI417
aI34
aI415
aI34
aI415
aI83
aI422
aI83
aI83
aI422
aI418
aI83
aI415
aI83
aI415
aI302
aI60
aI78
aI63
aI30
aI136
aI125
aI129
aI3
aI86
asS'15'
p1065
(lp1066
I0
aI84
aI84
aI415
aI34
aI417
aI34
aI415
aI34
aI415
aI83
aI422
aI83
aI83
aI422
aI418
aI83
aI415
aI83
aI415
aI297
aI174
aI125
aI68
aI72
aI76
aI33
aI26
aI48
aI144
asS'14'
p1067
(lp1068
I0
aI84
aI84
aI415
aI34
aI417
aI34
aI415
aI34
aI415
aI83
aI422
aI83
aI83
aI422
aI418
aI83
aI415
aI83
aI415
aI285
aI159
aI59
aI134
aI134
aI14
aI129
aI124
aI32
aI43
asS'17'
p1069
(lp1070
I0
aI84
aI84
aI415
aI34
aI417
aI34
aI415
aI34
aI415
aI83
aI422
aI83
aI83
aI422
aI418
aI83
aI415
aI83
aI415
aI59
aI287
aI33
aI142
aI22
aI125
aI37
aI23
aI123
aI56
asS'16'
p1071
(lp1072
I0
aI84
aI84
aI415
aI34
aI417
aI34
aI415
aI34
aI415
aI83
aI422
aI83
aI83
aI422
aI418
aI83
aI415
aI83
aI415
aI49
aI296
aI140
aI89
aI54
aI144
aI31
aI61
aI54
aI28
asS'19'
p1073
(lp1074
I0
aI84
aI84
aI415
aI34
aI417
aI34
aI415
aI34
aI415
aI83
aI422
aI83
aI83
aI422
aI418
aI83
aI415
aI83
aI415
aI126
aI32
aI307
aI80
aI25
aI302
aI63
aI36
aI24
aI31
asS'18'
p1075
(lp1076
I0
aI84
aI84
aI415
aI34
aI417
aI34
aI415
aI34
aI415
aI83
aI422
aI83
aI83
aI422
aI418
aI83
aI415
aI83
aI415
aI52
aI123
aI80
aI123
aI133
aI167
aI74
aI230
aI1
aI33
asg27
(lp1077
I0
aI84
aI84
aI415
aI34
aI417
aI34
aI415
aI34
aI415
aI83
aI422
aI83
aI83
aI422
aI418
aI83
aI415
aI83
aI415
aI25
aI46
aI298
aI49
aI29
aI22
aI37
aI28
aI131
aI34
asg29
(lp1078
I0
aI84
aI84
aI415
aI34
aI417
aI34
aI415
aI34
aI415
aI83
aI422
aI83
aI83
aI422
aI418
aI83
aI415
aI83
aI415
aI61
aI298
aI76
aI55
aI129
aI122
aI141
aI31
aI35
aI17
asg31
(lp1079
I0
aI84
aI84
aI415
aI34
aI417
aI34
aI415
aI34
aI415
aI83
aI422
aI83
aI83
aI422
aI418
aI83
aI415
aI83
aI415
aI27
aI123
aI51
aI142
aI32
aI33
aI32
aI25
aI28
aI128
asg33
(lp1080
I0
aI84
aI84
aI415
aI34
aI417
aI34
aI415
aI34
aI415
aI83
aI422
aI83
aI83
aI422
aI418
aI83
aI415
aI83
aI415
aI120
aI28
aI3
aI26
aI28
aI71
aI64
aI32
aI24
aI30
asg35
(lp1081
I0
aI84
aI84
aI415
aI34
aI417
aI34
aI415
aI34
aI415
aI83
aI422
aI83
aI83
aI422
aI418
aI83
aI415
aI83
aI415
aI71
aI94
aI67
aI98
aI30
aI131
aI128
aI12
aI4
aI1
asg37
(lp1082
I0
aI84
aI84
aI415
aI34
aI417
aI34
aI415
aI34
aI415
aI83
aI422
aI83
aI83
aI422
aI418
aI83
aI415
aI83
aI415
aI213
aI211
aI44
aI57
aI80
aI40
aI57
aI24
aI5
aI31
asg39
(lp1083
I0
aI84
aI84
aI415
aI34
aI417
aI34
aI415
aI34
aI415
aI83
aI422
aI83
aI83
aI422
aI418
aI83
aI415
aI83
aI415
aI128
aI72
aI204
aI74
aI169
aI301
aI43
aI36
aI147
aI46
asg41
(lp1084
I0
aI84
aI84
aI415
aI34
aI417
aI34
aI415
aI34
aI415
aI83
aI422
aI83
aI83
aI422
aI418
aI83
aI415
aI83
aI415
aI122
aI136
aI207
aI49
aI61
aI133
aI81
aI234
aI54
aI45
asg43
(lp1085
I0
aI84
aI84
aI415
aI34
aI417
aI34
aI415
aI34
aI415
aI83
aI422
aI83
aI83
aI422
aI418
aI83
aI415
aI83
aI415
aI123
aI130
aI72
aI137
aI170
aI59
aI85
aI24
aI4
aI53
asg45
(lp1086
I0
aI84
aI84
aI415
aI34
aI417
aI34
aI415
aI34
aI415
aI83
aI422
aI83
aI83
aI422
aI418
aI83
aI415
aI83
aI415
aI29
aI117
aI38
aI122
aI144
aI49
aI52
aI85
aI129
aI76
assS'30'
p1087
(dp1088
S'11'
p1089
(lp1090
I0
aI84
aI84
aI415
aI34
aI417
aI34
aI415
aI34
aI415
aI83
aI422
aI83
aI83
aI422
aI418
aI83
aI415
aI83
aI415
aI50
aI107
aI77
aI31
aI115
aI41
aI25
aI38
aI36
aI128
asS'10'
p1091
(lp1092
I0
aI84
aI84
aI415
aI34
aI417
aI34
aI415
aI34
aI415
aI83
aI422
aI83
aI83
aI422
aI418
aI83
aI415
aI83
aI415
aI2
aI75
aI76
aI311
aI129
aI92
aI116
aI20
aI25
aI27
asS'13'
p1093
(lp1094
I0
aI84
aI84
aI415
aI34
aI417
aI34
aI415
aI34
aI415
aI83
aI422
aI83
aI83
aI422
aI418
aI83
aI415
aI83
aI415
aI54
aI127
aI83
aI72
aI17
aI20
aI30
aI25
aI24
aI25
asS'12'
p1095
(lp1096
I0
aI84
aI84
aI415
aI34
aI417
aI34
aI415
aI34
aI415
aI83
aI422
aI83
aI83
aI422
aI418
aI83
aI415
aI83
aI415
aI50
aI104
aI62
aI72
aI33
aI33
aI36
aI28
aI123
aI309
asS'15'
p1097
(lp1098
I0
aI84
aI84
aI415
aI34
aI417
aI34
aI415
aI34
aI415
aI83
aI422
aI83
aI83
aI422
aI418
aI83
aI415
aI83
aI415
aI295
aI56
aI134
aI18
aI25
aI48
aI24
aI33
aI31
aI32
asS'14'
p1099
(lp1100
I0
aI84
aI84
aI415
aI34
aI417
aI34
aI415
aI34
aI415
aI83
aI422
aI83
aI83
aI422
aI418
aI83
aI415
aI83
aI415
aI37
aI306
aI161
aI78
aI291
aI58
aI129
aI38
aI27
aI140
asS'17'
p1101
(lp1102
I0
aI84
aI84
aI415
aI34
aI417
aI34
aI415
aI34
aI415
aI83
aI422
aI83
aI83
aI422
aI418
aI83
aI415
aI83
aI415
aI60
aI27
aI131
aI195
aI120
aI86
aI79
aI58
aI41
aI50
asS'16'
p1103
(lp1104
I0
aI84
aI84
aI415
aI34
aI417
aI34
aI415
aI34
aI415
aI83
aI422
aI83
aI83
aI422
aI418
aI83
aI415
aI83
aI415
aI27
aI28
aI126
aI52
aI76
aI55
aI30
aI24
aI25
aI129
asS'19'
p1105
(lp1106
I0
aI84
aI84
aI415
aI34
aI417
aI34
aI415
aI34
aI415
aI83
aI422
aI83
aI83
aI422
aI418
aI83
aI415
aI83
aI415
aI305
aI84
aI61
aI20
aI28
aI28
aI36
aI17
aI22
aI32
asS'18'
p1107
(lp1108
I0
aI84
aI84
aI415
aI34
aI417
aI34
aI415
aI34
aI415
aI83
aI422
aI83
aI83
aI422
aI418
aI83
aI415
aI83
aI415
aI6
aI17
aI56
aI24
aI306
aI75
aI17
aI63
aI271
aI59
asg27
(lp1109
I0
aI84
aI84
aI415
aI34
aI417
aI34
aI415
aI34
aI415
aI83
aI422
aI83
aI83
aI422
aI418
aI83
aI415
aI83
aI415
aI0
aI32
aI56
aI33
aI2
aI111
aI90
aI188
aI68
aI299
asg29
(lp1110
I0
aI84
aI84
aI415
aI34
aI417
aI34
aI415
aI34
aI415
aI83
aI422
aI83
aI83
aI422
aI418
aI83
aI415
aI83
aI415
aI36
aI72
aI118
aI215
aI216
aI196
aI72
aI312
aI84
aI149
asg31
(lp1111
I0
aI84
aI84
aI415
aI34
aI417
aI34
aI415
aI34
aI415
aI83
aI422
aI83
aI83
aI422
aI418
aI83
aI415
aI83
aI415
aI140
aI203
aI152
aI210
aI26
aI192
aI0
aI82
aI129
aI92
asg33
(lp1112
I0
aI84
aI84
aI415
aI34
aI417
aI34
aI415
aI34
aI415
aI83
aI422
aI83
aI83
aI422
aI418
aI83
aI415
aI83
aI415
aI125
aI118
aI29
aI241
aI51
aI118
aI162
aI62
aI41
aI24
asg35
(lp1113
I0
aI84
aI84
aI415
aI34
aI417
aI34
aI415
aI34
aI415
aI83
aI422
aI83
aI83
aI422
aI418
aI83
aI415
aI83
aI415
aI32
aI293
aI125
aI102
aI124
aI68
aI4
aI165
aI69
aI12
asg37
(lp1114
I0
aI84
aI84
aI415
aI34
aI417
aI34
aI415
aI34
aI415
aI83
aI422
aI83
aI83
aI422
aI418
aI83
aI415
aI83
aI415
aI295
aI57
aI65
aI54
aI31
aI18
aI31
aI24
aI18
aI34
asg39
(lp1115
I0
aI84
aI84
aI415
aI34
aI417
aI34
aI415
aI34
aI415
aI83
aI422
aI83
aI83
aI422
aI418
aI83
aI415
aI83
aI415
aI297
aI32
aI134
aI38
aI22
aI36
aI125
aI51
aI34
aI37
asg41
(lp1116
I0
aI84
aI84
aI415
aI34
aI417
aI34
aI415
aI34
aI415
aI83
aI422
aI83
aI83
aI422
aI418
aI83
aI415
aI83
aI415
aI294
aI36
aI26
aI7
aI60
aI26
aI112
aI302
aI128
aI83
asg43
(lp1117
I0
aI84
aI84
aI415
aI34
aI417
aI34
aI415
aI34
aI415
aI83
aI422
aI83
aI83
aI422
aI418
aI83
aI415
aI83
aI415
aI122
aI106
aI61
aI30
aI18
aI71
aI53
aI37
aI24
aI137
asg45
(lp1118
I0
aI84
aI84
aI415
aI34
aI417
aI34
aI415
aI34
aI415
aI83
aI422
aI83
aI83
aI422
aI418
aI83
aI415
aI83
aI415
aI109
aI77
aI74
aI32
aI20
aI17
aI284
aI86
aI2
aI28
assS'50'
p1119
(dp1120
S'11'
p1121
(lp1122
I0
aI84
aI84
aI415
aI34
aI417
aI34
aI415
aI34
aI415
aI83
aI422
aI83
aI83
aI422
aI418
aI83
aI415
aI83
aI415
aI120
aI287
aI63
aI77
aI56
aI38
aI31
aI32
aI25
aI31
asS'10'
p1123
(lp1124
I0
aI84
aI84
aI415
aI34
aI417
aI34
aI415
aI34
aI415
aI83
aI422
aI83
aI83
aI422
aI418
aI83
aI415
aI83
aI415
aI63
aI31
aI69
aI24
aI297
aI94
aI17
aI29
aI29
aI139
asS'13'
p1125
(lp1126
I0
aI84
aI84
aI415
aI34
aI417
aI34
aI415
aI34
aI415
aI83
aI422
aI83
aI83
aI422
aI418
aI83
aI415
aI83
aI415
aI299
aI131
aI55
aI34
aI70
aI52
aI21
aI18
aI38
aI28
asS'12'
p1127
(lp1128
I0
aI84
aI84
aI415
aI34
aI417
aI34
aI415
aI34
aI415
aI83
aI422
aI83
aI83
aI422
aI418
aI83
aI415
aI83
aI415
aI33
aI53
aI1
aI37
aI131
aI30
aI118
aI287
aI83
aI25
asS'15'
p1129
(lp1130
I0
aI84
aI84
aI415
aI34
aI417
aI34
aI415
aI34
aI415
aI83
aI422
aI83
aI83
aI422
aI418
aI83
aI415
aI83
aI415
aI122
aI54
aI118
aI297
aI65
aI82
aI131
aI39
aI88
aI125
asS'14'
p1131
(lp1132
I0
aI84
aI84
aI415
aI34
aI417
aI34
aI415
aI34
aI415
aI83
aI422
aI83
aI83
aI422
aI418
aI83
aI415
aI83
aI415
aI29
aI57
aI302
aI133
aI33
aI1
aI81
aI37
aI233
aI21
asS'17'
p1133
(lp1134
I0
aI84
aI84
aI415
aI34
aI417
aI34
aI415
aI34
aI415
aI83
aI422
aI83
aI83
aI422
aI418
aI83
aI415
aI83
aI415
aI49
aI301
aI48
aI31
aI133
aI58
aI2
aI120
aI78
aI1
asS'16'
p1135
(lp1136
I0
aI84
aI84
aI415
aI34
aI417
aI34
aI415
aI34
aI415
aI83
aI422
aI83
aI83
aI422
aI418
aI83
aI415
aI83
aI415
aI33
aI121
aI200
aI29
aI134
aI28
aI56
aI0
aI52
aI25
asS'19'
p1137
(lp1138
I0
aI84
aI84
aI415
aI34
aI417
aI34
aI415
aI34
aI415
aI83
aI422
aI83
aI83
aI422
aI418
aI83
aI415
aI83
aI415
aI291
aI23
aI51
aI138
aI146
aI78
aI2
aI1
aI4
aI120
asS'18'
p1139
(lp1140
I0
aI84
aI84
aI415
aI34
aI417
aI34
aI415
aI34
aI415
aI83
aI422
aI83
aI83
aI422
aI418
aI83
aI415
aI83
aI415
aI313
aI68
aI83
aI116
aI81
aI28
aI72
aI84
aI135
aI51
asg27
(lp1141
I0
aI84
aI84
aI415
aI34
aI417
aI34
aI415
aI34
aI415
aI83
aI422
aI83
aI83
aI422
aI418
aI83
aI415
aI83
aI415
aI113
aI65
aI135
aI52
aI30
aI141
aI54
aI49
aI31
aI23
asg29
(lp1142
I0
aI84
aI84
aI415
aI34
aI417
aI34
aI415
aI34
aI415
aI83
aI422
aI83
aI83
aI422
aI418
aI83
aI415
aI83
aI415
aI278
aI171
aI118
aI76
aI71
aI64
aI137
aI58
aI74
aI29
asg31
(lp1143
I0
aI84
aI84
aI415
aI34
aI417
aI34
aI415
aI34
aI415
aI83
aI422
aI83
aI83
aI422
aI418
aI83
aI415
aI83
aI415
aI40
aI35
aI0
aI250
aI133
aI83
aI193
aI114
aI56
aI72
asg33
(lp1144
I0
aI84
aI84
aI415
aI34
aI417
aI34
aI415
aI34
aI415
aI83
aI422
aI83
aI83
aI422
aI418
aI83
aI415
aI83
aI415
aI60
aI109
aI80
aI78
aI124
aI18
aI23
aI131
aI168
aI53
asg35
(lp1145
I0
aI84
aI84
aI415
aI34
aI417
aI34
aI415
aI34
aI415
aI83
aI422
aI83
aI83
aI422
aI418
aI83
aI415
aI83
aI415
aI206
aI52
aI24
aI28
aI37
aI83
aI0
aI144
aI26
aI3
asg37
(lp1146
I0
aI84
aI84
aI415
aI34
aI417
aI34
aI415
aI34
aI415
aI83
aI422
aI83
aI83
aI422
aI418
aI83
aI415
aI83
aI415
aI322
aI82
aI37
aI28
aI0
aI74
aI241
aI52
aI57
aI62
asg39
(lp1147
I0
aI84
aI84
aI415
aI34
aI417
aI34
aI415
aI34
aI415
aI83
aI422
aI83
aI83
aI422
aI418
aI83
aI415
aI83
aI415
aI56
aI282
aI138
aI310
aI32
aI32
aI63
aI22
aI27
aI27
asg41
(lp1148
I0
aI84
aI84
aI415
aI34
aI417
aI34
aI415
aI34
aI415
aI83
aI422
aI83
aI83
aI422
aI418
aI83
aI415
aI83
aI415
aI303
aI89
aI32
aI304
aI56
aI85
aI57
aI15
aI31
aI0
asg43
(lp1149
I0
aI84
aI84
aI415
aI34
aI417
aI34
aI415
aI34
aI415
aI83
aI422
aI83
aI83
aI422
aI418
aI83
aI415
aI83
aI415
aI314
aI80
aI304
aI92
aI46
aI26
aI37
aI59
aI34
aI30
asg45
(lp1150
I0
aI84
aI84
aI415
aI34
aI417
aI34
aI415
aI34
aI415
aI83
aI422
aI83
aI83
aI422
aI418
aI83
aI415
aI83
aI415
aI113
aI48
aI133
aI296
aI58
aI96
aI37
aI132
aI51
aI6
assS'40'
p1151
(dp1152
S'11'
p1153
(lp1154
I0
aI84
aI84
aI415
aI34
aI417
aI34
aI415
aI34
aI415
aI83
aI422
aI83
aI83
aI422
aI418
aI83
aI415
aI83
aI415
aI213
aI128
aI83
aI86
aI56
aI81
aI84
aI29
aI60
aI24
asS'10'
p1155
(lp1156
I0
aI84
aI84
aI415
aI34
aI417
aI34
aI415
aI34
aI415
aI83
aI422
aI83
aI83
aI422
aI418
aI83
aI415
aI83
aI415
aI301
aI59
aI117
aI38
aI4
aI24
aI20
aI91
aI68
aI80
asS'13'
p1157
(lp1158
I0
aI84
aI84
aI415
aI34
aI417
aI34
aI415
aI34
aI415
aI83
aI422
aI83
aI83
aI422
aI418
aI83
aI415
aI83
aI415
aI120
aI58
aI74
aI29
aI82
aI36
aI47
aI111
aI131
aI79
asS'12'
p1159
(lp1160
I0
aI84
aI84
aI415
aI34
aI417
aI34
aI415
aI34
aI415
aI83
aI422
aI83
aI83
aI422
aI418
aI83
aI415
aI83
aI415
aI23
aI37
aI316
aI24
aI32
aI26
aI54
aI90
aI23
aI31
asS'15'
p1161
(lp1162
I0
aI84
aI84
aI415
aI34
aI417
aI34
aI415
aI34
aI415
aI83
aI422
aI83
aI83
aI422
aI418
aI83
aI415
aI83
aI415
aI300
aI180
aI116
aI2
aI140
aI46
aI140
aI58
aI38
aI48
asS'14'
p1163
(lp1164
I0
aI84
aI84
aI415
aI34
aI417
aI34
aI415
aI34
aI415
aI83
aI422
aI83
aI83
aI422
aI418
aI83
aI415
aI83
aI415
aI27
aI38
aI59
aI24
aI301
aI51
aI141
aI61
aI15
aI36
asS'17'
p1165
(lp1166
I0
aI84
aI84
aI415
aI34
aI417
aI34
aI415
aI34
aI415
aI83
aI422
aI83
aI83
aI422
aI418
aI83
aI415
aI83
aI415
aI310
aI8
aI98
aI28
aI79
aI19
aI250
aI54
aI129
aI54
asS'16'
p1167
(lp1168
I0
aI84
aI84
aI415
aI34
aI417
aI34
aI415
aI34
aI415
aI83
aI422
aI83
aI83
aI422
aI418
aI83
aI415
aI83
aI415
aI109
aI4
aI54
aI55
aI87
aI26
aI53
aI134
aI5
aI298
asS'19'
p1169
(lp1170
I0
aI84
aI84
aI415
aI34
aI417
aI34
aI415
aI34
aI415
aI83
aI422
aI83
aI83
aI422
aI418
aI83
aI415
aI83
aI415
aI51
aI123
aI82
aI62
aI36
aI28
aI28
aI32
aI1
aI23
asS'18'
p1171
(lp1172
I0
aI84
aI84
aI415
aI34
aI417
aI34
aI415
aI34
aI415
aI83
aI422
aI83
aI83
aI422
aI418
aI83
aI415
aI83
aI415
aI307
aI218
aI59
aI32
aI133
aI78
aI1
aI47
aI68
aI31
asg27
(lp1173
I0
aI84
aI84
aI415
aI34
aI417
aI34
aI415
aI34
aI415
aI83
aI422
aI83
aI83
aI422
aI418
aI83
aI415
aI83
aI415
aI41
aI283
aI51
aI21
aI56
aI57
aI30
aI38
aI130
aI22
asg29
(lp1174
I0
aI84
aI84
aI415
aI34
aI417
aI34
aI415
aI34
aI415
aI83
aI422
aI83
aI83
aI422
aI418
aI83
aI415
aI83
aI415
aI323
aI2
aI24
aI71
aI6
aI81
aI25
aI144
aI87
aI4
asg31
(lp1175
I0
aI84
aI84
aI415
aI34
aI417
aI34
aI415
aI34
aI415
aI83
aI422
aI83
aI83
aI422
aI418
aI83
aI415
aI83
aI415
aI290
aI119
aI87
aI89
aI209
aI38
aI54
aI52
aI54
aI1
asg33
(lp1176
I0
aI84
aI84
aI415
aI34
aI417
aI34
aI415
aI34
aI415
aI83
aI422
aI83
aI83
aI422
aI418
aI83
aI415
aI83
aI415
aI106
aI190
aI27
aI49
aI63
aI84
aI32
aI5
aI54
aI32
asg35
(lp1177
I0
aI84
aI84
aI415
aI34
aI417
aI34
aI415
aI34
aI415
aI83
aI422
aI83
aI83
aI422
aI418
aI83
aI415
aI83
aI415
aI303
aI33
aI126
aI135
aI291
aI1
aI75
aI32
aI38
aI54
asg37
(lp1178
I0
aI84
aI84
aI415
aI34
aI417
aI34
aI415
aI34
aI415
aI83
aI422
aI83
aI83
aI422
aI418
aI83
aI415
aI83
aI415
aI310
aI22
aI131
aI56
aI55
aI139
aI59
aI92
aI20
aI6
asg39
(lp1179
I0
aI84
aI84
aI415
aI34
aI417
aI34
aI415
aI34
aI415
aI83
aI422
aI83
aI83
aI422
aI418
aI83
aI415
aI83
aI415
aI307
aI69
aI301
aI296
aI59
aI134
aI27
aI86
aI126
aI31
asg41
(lp1180
I0
aI84
aI84
aI415
aI34
aI417
aI34
aI415
aI34
aI415
aI83
aI422
aI83
aI83
aI422
aI418
aI83
aI415
aI83
aI415
aI27
aI302
aI81
aI122
aI71
aI38
aI34
aI18
aI0
aI24
asg43
(lp1181
I0
aI84
aI84
aI415
aI34
aI417
aI34
aI415
aI34
aI415
aI83
aI422
aI83
aI83
aI422
aI418
aI83
aI415
aI83
aI415
aI60
aI25
aI38
aI4
aI15
aI55
aI34
aI17
aI34
aI24
asg45
(lp1182
I0
aI84
aI84
aI415
aI34
aI417
aI34
aI415
aI34
aI415
aI83
aI422
aI83
aI83
aI422
aI418
aI83
aI415
aI83
aI415
aI53
aI4
aI129
aI34
aI110
aI14
aI204
aI36
aI299
aI29
assss.