(dp0
S'sac'
p1
(dp2
S'sac_9'
p3
(dp4
S'60'
p5
(dp6
S'11'
p7
(lp8
I518
aI165
aI293
aI195
aI283
aI183
aI222
aI89
aI274
aI153
aI190
aI488
aI114
aI233
aI29
aI340
aI379
aI374
aI143
aI155
aI27
aI56
aI28
aI15
aI57
aI46
aI3
aI44
aI6
aI3
asS'10'
p9
(lp10
I488
aI518
aI63
aI518
aI255
aI192
aI132
aI323
aI469
aI277
aI349
aI268
aI518
aI518
aI294
aI75
aI39
aI327
aI340
aI518
aI12
aI55
aI30
aI57
aI40
aI16
aI32
aI51
aI30
aI3
asS'13'
p11
(lp12
I458
aI386
aI267
aI15
aI174
aI229
aI117
aI439
aI169
aI518
aI3
aI300
aI321
aI221
aI518
aI335
aI240
aI368
aI142
aI518
aI56
aI48
aI34
aI43
aI18
aI3
aI57
aI15
aI27
aI54
asS'12'
p13
(lp14
I309
aI518
aI99
aI78
aI107
aI322
aI518
aI3
aI133
aI508
aI147
aI181
aI278
aI204
aI279
aI518
aI160
aI518
aI69
aI91
aI29
aI57
aI27
aI15
aI48
aI49
aI37
aI58
aI3
aI11
asS'15'
p15
(lp16
I518
aI132
aI139
aI333
aI518
aI385
aI321
aI90
aI214
aI101
aI189
aI255
aI33
aI483
aI518
aI198
aI162
aI500
aI518
aI275
aI41
aI42
aI17
aI15
aI28
aI13
aI0
aI28
aI47
aI20
asS'14'
p17
(lp18
I316
aI372
aI36
aI3
aI120
aI196
aI59
aI385
aI65
aI150
aI163
aI250
aI261
aI160
aI518
aI315
aI435
aI170
aI327
aI518
aI36
aI11
aI23
aI37
aI55
aI3
aI50
aI48
aI9
aI51
asS'17'
p19
(lp20
I518
aI36
aI385
aI460
aI162
aI325
aI518
aI410
aI201
aI518
aI509
aI144
aI87
aI227
aI415
aI518
aI230
aI127
aI152
aI518
aI3
aI15
aI18
aI27
aI57
aI47
aI56
aI21
aI3
aI48
asS'16'
p21
(lp22
I79
aI256
aI179
aI518
aI518
aI518
aI486
aI172
aI444
aI335
aI507
aI204
aI309
aI68
aI326
aI80
aI430
aI148
aI175
aI518
aI214
aI179
aI409
aI193
aI75
aI161
aI147
aI379
aI198
aI291
asS'19'
p23
(lp24
I116
aI144
aI200
aI62
aI276
aI518
aI75
aI425
aI21
aI518
aI510
aI110
aI82
aI426
aI518
aI269
aI332
aI258
aI496
aI350
aI36
aI28
aI48
aI42
aI17
aI33
aI15
aI20
aI6
aI29
asS'18'
p25
(lp26
I172
aI184
aI149
aI336
aI244
aI281
aI518
aI172
aI216
aI363
aI132
aI69
aI518
aI117
aI518
aI143
aI518
aI80
aI189
aI153
aI214
aI148
aI212
aI282
aI174
aI386
aI217
aI1
aI42
aI48
asS'1'
p27
(lp28
I376
aI475
aI393
aI518
aI458
aI167
aI518
aI270
aI236
aI202
aI101
aI49
aI284
aI267
aI487
aI452
aI28
aI518
aI294
aI153
aI22
aI26
aI42
aI53
aI15
aI33
aI17
aI0
aI20
aI47
asS'0'
p29
(lp30
I518
aI359
aI305
aI301
aI118
aI29
aI209
aI84
aI258
aI295
aI286
aI148
aI298
aI248
aI197
aI518
aI349
aI497
aI473
aI89
aI11
aI45
aI25
aI56
aI15
aI3
aI57
aI27
aI32
aI8
asS'3'
p31
(lp32
I53
aI198
aI117
aI308
aI443
aI222
aI173
aI195
aI208
aI518
aI39
aI518
aI298
aI249
aI181
aI518
aI387
aI494
aI461
aI156
aI10
aI23
aI0
aI58
aI47
aI37
aI11
aI3
aI3
aI34
asS'2'
p33
(lp34
I472
aI112
aI518
aI285
aI518
aI411
aI518
aI206
aI366
aI518
aI440
aI59
aI518
aI36
aI513
aI275
aI518
aI518
aI49
aI145
aI3
aI21
aI48
aI1
aI5
aI20
aI12
aI29
aI52
aI8
asS'5'
p35
(lp36
I518
aI175
aI518
aI51
aI490
aI518
aI315
aI399
aI112
aI28
aI518
aI212
aI61
aI175
aI3
aI216
aI176
aI133
aI455
aI344
aI44
aI6
aI29
aI7
aI31
aI41
aI36
aI4
aI40
aI14
asS'4'
p37
(lp38
I214
aI52
aI7
aI61
aI158
aI518
aI506
aI217
aI518
aI518
aI99
aI417
aI116
aI337
aI416
aI512
aI85
aI76
aI173
aI336
aI29
aI36
aI28
aI28
aI13
aI46
aI34
aI27
aI57
aI32
asS'7'
p39
(lp40
I518
aI28
aI156
aI518
aI518
aI435
aI518
aI1
aI387
aI116
aI3
aI60
aI175
aI488
aI80
aI340
aI349
aI455
aI212
aI45
aI9
aI15
aI27
aI57
aI14
aI34
aI518
aI24
aI29
aI40
asS'6'
p41
(lp42
I518
aI256
aI160
aI378
aI279
aI24
aI148
aI328
aI376
aI209
aI427
aI49
aI114
aI191
aI16
aI518
aI262
aI304
aI362
aI187
aI44
aI32
aI51
aI43
aI23
aI11
aI3
aI37
aI4
aI31
asS'9'
p43
(lp44
I181
aI276
aI202
aI296
aI120
aI430
aI26
aI518
aI432
aI373
aI483
aI231
aI257
aI399
aI3
aI518
aI385
aI518
aI172
aI400
aI3
aI48
aI29
aI59
aI17
aI8
aI6
aI36
aI44
aI7
asS'8'
p45
(lp46
I99
aI443
aI375
aI168
aI32
aI5
aI518
aI518
aI360
aI518
aI518
aI329
aI255
aI271
aI518
aI518
aI331
aI143
aI45
aI110
aI34
aI1
aI38
aI7
aI17
aI30
aI52
aI58
aI3
aI36
assS'30'
p47
(dp48
S'11'
p49
(lp50
I274
aI283
aI208
aI473
aI518
aI518
aI14
aI252
aI74
aI19
aI31
aI415
aI518
aI179
aI83
aI72
aI170
aI200
aI81
aI318
aI45
aI52
aI4
aI40
aI35
aI15
aI57
aI39
aI26
aI42
asS'10'
p51
(lp52
I283
aI116
aI377
aI388
aI518
aI187
aI93
aI269
aI101
aI229
aI266
aI518
aI518
aI518
aI175
aI518
aI518
aI179
aI270
aI471
aI369
aI67
aI211
aI452
aI234
aI176
aI102
aI208
aI294
aI141
asS'13'
p53
(lp54
I112
aI181
aI417
aI3
aI258
aI274
aI363
aI144
aI518
aI216
aI112
aI436
aI518
aI454
aI37
aI59
aI227
aI228
aI28
aI518
aI12
aI29
aI49
aI53
aI9
aI3
aI21
aI36
aI48
aI46
asS'12'
p55
(lp56
I447
aI36
aI374
aI518
aI518
aI177
aI442
aI136
aI518
aI116
aI518
aI483
aI155
aI134
aI203
aI22
aI350
aI518
aI183
aI274
aI28
aI26
aI42
aI17
aI33
aI15
aI47
aI7
aI36
aI28
asS'15'
p57
(lp58
I189
aI188
aI231
aI302
aI12
aI67
aI268
aI218
aI182
aI75
aI78
aI94
aI444
aI518
aI518
aI199
aI366
aI134
aI11
aI348
aI21
aI518
aI40
aI7
aI36
aI45
aI30
aI3
aI57
aI27
asS'14'
p59
(lp60
I113
aI92
aI248
aI326
aI424
aI97
aI518
aI190
aI60
aI364
aI383
aI68
aI7
aI149
aI3
aI518
aI518
aI76
aI95
aI0
aI33
aI45
aI42
aI28
aI21
aI48
aI47
aI43
aI36
aI20
asS'17'
p61
(lp62
I177
aI136
aI10
aI166
aI310
aI57
aI198
aI518
aI3
aI320
aI498
aI71
aI97
aI446
aI518
aI518
aI153
aI518
aI189
aI200
aI21
aI45
aI48
aI36
aI29
aI57
aI0
aI39
aI58
aI34
asS'16'
p63
(lp64
I424
aI315
aI182
aI518
aI314
aI518
aI390
aI267
aI259
aI156
aI368
aI118
aI405
aI25
aI66
aI375
aI68
aI219
aI154
aI179
aI3
aI518
aI51
aI37
aI11
aI23
aI8
aI26
aI57
aI57
asS'19'
p65
(lp66
I32
aI515
aI329
aI423
aI97
aI173
aI212
aI518
aI437
aI518
aI294
aI486
aI458
aI240
aI422
aI263
aI132
aI483
aI28
aI518
aI17
aI15
aI33
aI19
aI35
aI52
aI11
aI45
aI42
aI0
asS'18'
p67
(lp68
I315
aI416
aI518
aI318
aI477
aI448
aI230
aI78
aI518
aI143
aI160
aI518
aI310
aI223
aI515
aI518
aI376
aI497
aI352
aI403
aI110
aI148
aI305
aI3
aI3
aI48
aI8
aI14
aI28
aI9
asg27
(lp69
I305
aI184
aI255
aI279
aI116
aI378
aI518
aI170
aI364
aI518
aI60
aI138
aI221
aI518
aI144
aI310
aI471
aI112
aI271
aI320
aI167
aI138
aI225
aI71
aI36
aI4
aI9
aI31
aI14
aI40
asg29
(lp70
I311
aI189
aI480
aI168
aI518
aI496
aI393
aI156
aI518
aI100
aI347
aI36
aI296
aI407
aI518
aI190
aI27
aI163
aI518
aI91
aI15
aI16
aI51
aI57
aI32
aI14
aI4
aI31
aI40
aI3
asg31
(lp71
I426
aI111
aI461
aI182
aI379
aI192
aI115
aI483
aI252
aI259
aI479
aI515
aI360
aI43
aI3
aI460
aI49
aI391
aI518
aI111
aI46
aI29
aI9
aI15
aI57
aI56
aI50
aI28
aI36
aI7
asg33
(lp72
I278
aI247
aI513
aI127
aI518
aI148
aI285
aI518
aI518
aI329
aI103
aI412
aI206
aI508
aI279
aI79
aI363
aI361
aI144
aI25
aI36
aI57
aI54
aI10
aI18
aI56
aI29
aI3
aI44
aI6
asg35
(lp73
I378
aI518
aI415
aI413
aI466
aI518
aI334
aI127
aI459
aI150
aI177
aI3
aI322
aI227
aI215
aI518
aI116
aI496
aI203
aI518
aI296
aI38
aI6
aI28
aI29
aI44
aI46
aI59
aI34
aI43
asg37
(lp74
I518
aI518
aI144
aI518
aI518
aI250
aI411
aI292
aI181
aI518
aI227
aI360
aI111
aI518
aI112
aI518
aI110
aI349
aI437
aI270
aI169
aI86
aI78
aI255
aI226
aI305
aI218
aI296
aI163
aI263
asg39
(lp75
I457
aI269
aI517
aI163
aI67
aI116
aI107
aI181
aI405
aI44
aI248
aI46
aI95
aI323
aI335
aI143
aI518
aI24
aI271
aI23
aI518
aI518
aI3
aI37
aI11
aI43
aI20
aI22
aI47
aI42
asg41
(lp76
I166
aI518
aI95
aI152
aI156
aI183
aI339
aI211
aI294
aI509
aI192
aI90
aI80
aI158
aI255
aI46
aI439
aI180
aI175
aI50
aI39
aI58
aI13
aI28
aI15
aI17
aI33
aI22
aI0
aI47
asg43
(lp77
I510
aI518
aI501
aI518
aI251
aI258
aI225
aI227
aI437
aI276
aI518
aI465
aI240
aI518
aI3
aI518
aI167
aI518
aI518
aI410
aI3
aI46
aI57
aI50
aI18
aI6
aI29
aI34
aI43
aI44
asg45
(lp78
I26
aI379
aI138
aI138
aI518
aI305
aI10
aI329
aI350
aI258
aI328
aI82
aI82
aI172
aI518
aI378
aI518
aI8
aI518
aI169
aI28
aI57
aI36
aI54
aI42
aI46
aI58
aI40
aI22
aI17
assS'50'
p79
(dp80
S'11'
p81
(lp82
I518
aI302
aI7
aI518
aI106
aI168
aI518
aI518
aI27
aI438
aI0
aI394
aI170
aI67
aI79
aI518
aI173
aI182
aI215
aI316
aI22
aI15
aI20
aI40
aI28
aI47
aI5
aI24
aI41
aI50
asS'10'
p83
(lp84
I295
aI129
aI518
aI127
aI104
aI468
aI518
aI3
aI37
aI70
aI280
aI518
aI440
aI518
aI3
aI518
aI60
aI518
aI168
aI86
aI35
aI28
aI2
aI6
aI20
aI45
aI39
aI12
aI25
aI40
asS'13'
p85
(lp86
I207
aI82
aI518
aI299
aI518
aI456
aI215
aI518
aI53
aI372
aI447
aI75
aI285
aI517
aI32
aI157
aI3
aI67
aI465
aI518
aI34
aI18
aI56
aI51
aI16
aI30
aI31
aI41
aI40
aI14
asS'12'
p87
(lp88
I518
aI271
aI181
aI321
aI61
aI272
aI341
aI192
aI139
aI317
aI218
aI518
aI472
aI518
aI518
aI256
aI395
aI518
aI454
aI295
aI131
aI228
aI73
aI212
aI228
aI220
aI63
aI127
aI74
aI68
asS'15'
p89
(lp90
I234
aI82
aI232
aI178
aI227
aI305
aI162
aI0
aI225
aI518
aI167
aI17
aI518
aI518
aI310
aI518
aI518
aI327
aI152
aI400
aI12
aI22
aI3
aI47
aI48
aI28
aI21
aI32
aI36
aI20
asS'14'
p91
(lp92
I518
aI215
aI518
aI504
aI518
aI518
aI336
aI288
aI518
aI468
aI189
aI240
aI518
aI128
aI518
aI153
aI20
aI76
aI114
aI518
aI28
aI51
aI17
aI33
aI26
aI2
aI57
aI49
aI45
aI31
asS'17'
p93
(lp94
I290
aI115
aI73
aI328
aI55
aI327
aI245
aI155
aI156
aI399
aI472
aI71
aI318
aI94
aI214
aI29
aI518
aI490
aI449
aI12
aI6
aI35
aI3
aI44
aI7
aI53
aI50
aI8
aI25
aI57
asS'16'
p95
(lp96
I186
aI457
aI29
aI518
aI518
aI440
aI186
aI296
aI272
aI91
aI388
aI101
aI462
aI157
aI181
aI393
aI518
aI518
aI518
aI136
aI3
aI9
aI51
aI49
aI44
aI6
aI3
aI29
aI5
aI7
asS'19'
p97
(lp98
I296
aI466
aI339
aI242
aI401
aI407
aI89
aI201
aI293
aI0
aI123
aI222
aI518
aI518
aI322
aI118
aI516
aI478
aI39
aI518
aI32
aI42
aI47
aI17
aI28
aI20
aI15
aI33
aI43
aI16
asS'18'
p99
(lp100
I518
aI302
aI123
aI384
aI518
aI518
aI28
aI134
aI518
aI518
aI492
aI518
aI40
aI173
aI198
aI518
aI129
aI143
aI92
aI399
aI36
aI7
aI19
aI52
aI35
aI30
aI12
aI26
aI16
aI32
asg27
(lp101
I199
aI509
aI182
aI5
aI515
aI518
aI518
aI47
aI170
aI518
aI152
aI126
aI165
aI263
aI107
aI215
aI518
aI51
aI7
aI488
aI14
aI3
aI36
aI48
aI21
aI58
aI3
aI34
aI18
aI56
asg29
(lp102
I99
aI518
aI232
aI506
aI518
aI87
aI451
aI152
aI86
aI277
aI335
aI189
aI214
aI162
aI167
aI292
aI257
aI111
aI171
aI143
aI263
aI72
aI274
aI144
aI445
aI182
aI109
aI149
aI135
aI271
asg31
(lp103
I485
aI80
aI168
aI76
aI413
aI55
aI386
aI168
aI158
aI326
aI114
aI192
aI518
aI268
aI127
aI514
aI421
aI518
aI425
aI160
aI11
aI45
aI25
aI0
aI10
aI39
aI58
aI0
aI42
aI28
asg33
(lp104
I426
aI275
aI122
aI269
aI86
aI172
aI518
aI246
aI388
aI25
aI68
aI304
aI196
aI518
aI60
aI136
aI128
aI296
aI288
aI316
aI28
aI1
aI8
aI57
aI46
aI55
aI22
aI0
aI17
aI20
asg35
(lp105
I228
aI234
aI169
aI490
aI274
aI294
aI170
aI153
aI248
aI518
aI476
aI518
aI518
aI394
aI60
aI350
aI362
aI518
aI259
aI195
aI138
aI225
aI162
aI143
aI389
aI135
aI219
aI220
aI311
aI207
asg37
(lp106
I144
aI316
aI19
aI518
aI202
aI327
aI518
aI315
aI479
aI7
aI85
aI12
aI309
aI143
aI262
aI382
aI91
aI518
aI431
aI498
aI30
aI50
aI30
aI35
aI55
aI52
aI53
aI34
aI11
aI3
asg39
(lp107
I255
aI479
aI447
aI126
aI518
aI505
aI369
aI326
aI176
aI518
aI318
aI230
aI518
aI270
aI273
aI76
aI387
aI318
aI132
aI11
aI9
aI15
aI4
aI31
aI14
aI40
aI20
aI25
aI29
aI23
asg41
(lp108
I113
aI512
aI518
aI17
aI518
aI134
aI157
aI10
aI181
aI243
aI71
aI396
aI7
aI518
aI80
aI288
aI436
aI196
aI256
aI518
aI36
aI39
aI36
aI15
aI42
aI28
aI33
aI28
aI11
aI3
asg43
(lp109
I392
aI34
aI518
aI9
aI518
aI25
aI462
aI337
aI269
aI154
aI518
aI134
aI367
aI502
aI518
aI518
aI410
aI129
aI112
aI506
aI3
aI29
aI49
aI13
aI46
aI57
aI22
aI15
aI33
aI17
asg45
(lp110
I191
aI78
aI153
aI238
aI61
aI481
aI201
aI380
aI394
aI210
aI471
aI518
aI322
aI518
aI267
aI146
aI333
aI16
aI236
aI52
aI32
aI3
aI34
aI18
aI56
aI57
aI51
aI35
aI17
aI42
assS'40'
p111
(dp112
S'11'
p113
(lp114
I10
aI22
aI518
aI518
aI203
aI76
aI134
aI518
aI122
aI274
aI172
aI136
aI258
aI181
aI209
aI518
aI258
aI159
aI472
aI44
aI54
aI42
aI26
aI11
aI45
aI20
aI33
aI47
aI17
aI15
asS'10'
p115
(lp116
I28
aI196
aI518
aI518
aI358
aI456
aI518
aI16
aI296
aI135
aI156
aI316
aI126
aI311
aI518
aI73
aI8
aI189
aI3
aI36
aI27
aI15
aI57
aI10
aI45
aI14
aI42
aI49
aI25
aI58
asS'13'
p117
(lp118
I138
aI518
aI253
aI213
aI7
aI498
aI105
aI274
aI403
aI518
aI518
aI156
aI245
aI388
aI154
aI518
aI233
aI377
aI286
aI180
aI158
aI43
aI50
aI46
aI53
aI54
aI3
aI36
aI48
aI21
asS'12'
p119
(lp120
I77
aI226
aI71
aI103
aI104
aI31
aI181
aI35
aI296
aI13
aI446
aI127
aI129
aI75
aI180
aI518
aI125
aI518
aI195
aI163
aI28
aI46
aI8
aI25
aI57
aI40
aI19
aI52
aI14
aI4
asS'15'
p121
(lp122
I192
aI509
aI1
aI104
aI274
aI245
aI57
aI79
aI46
aI269
aI92
aI3
aI357
aI26
aI484
aI312
aI518
aI454
aI426
aI48
aI34
aI56
aI18
aI22
aI42
aI0
aI33
aI36
aI20
aI518
asS'14'
p123
(lp124
I461
aI258
aI31
aI338
aI328
aI366
aI177
aI518
aI279
aI293
aI518
aI269
aI157
aI317
aI46
aI202
aI518
aI200
aI110
aI79
aI52
aI40
aI4
aI14
aI43
aI24
aI32
aI28
aI1
aI53
asS'17'
p125
(lp126
I518
aI156
aI172
aI126
aI33
aI518
aI237
aI518
aI14
aI48
aI518
aI144
aI385
aI136
aI258
aI58
aI241
aI518
aI518
aI218
aI40
aI4
aI31
aI15
aI0
aI20
aI29
aI28
aI26
aI46
asS'16'
p127
(lp128
I518
aI266
aI322
aI446
aI160
aI353
aI0
aI330
aI229
aI517
aI370
aI336
aI514
aI33
aI134
aI147
aI518
aI518
aI167
aI434
aI52
aI31
aI28
aI20
aI47
aI22
aI42
aI3
aI56
aI18
asS'19'
p129
(lp130
I245
aI145
aI44
aI54
aI160
aI0
aI518
aI205
aI7
aI60
aI50
aI32
aI413
aI132
aI449
aI161
aI436
aI399
aI117
aI111
aI10
aI58
aI39
aI28
aI36
aI24
aI43
aI3
aI6
aI29
asS'18'
p131
(lp132
I518
aI221
aI104
aI94
aI258
aI272
aI503
aI391
aI91
aI437
aI3
aI175
aI518
aI507
aI305
aI136
aI156
aI518
aI141
aI325
aI30
aI49
aI9
aI29
aI3
aI57
aI27
aI15
aI28
aI7
asg27
(lp133
I139
aI286
aI518
aI357
aI138
aI518
aI518
aI518
aI58
aI3
aI366
aI206
aI518
aI489
aI136
aI175
aI425
aI492
aI511
aI0
aI59
aI11
aI37
aI23
aI51
aI10
aI35
aI14
aI46
aI20
asg29
(lp134
I126
aI289
aI48
aI112
aI151
aI37
aI56
aI462
aI518
aI108
aI318
aI117
aI469
aI468
aI264
aI99
aI490
aI413
aI325
aI183
aI3
aI23
aI11
aI3
aI55
aI54
aI4
aI31
aI46
aI40
asg31
(lp135
I518
aI244
aI228
aI518
aI230
aI466
aI392
aI518
aI75
aI178
aI518
aI422
aI82
aI307
aI518
aI370
aI131
aI62
aI82
aI518
aI45
aI3
aI21
aI36
aI12
aI49
aI48
aI30
aI55
aI36
asg33
(lp136
I164
aI71
aI379
aI518
aI164
aI129
aI111
aI160
aI518
aI518
aI239
aI233
aI274
aI201
aI316
aI269
aI68
aI518
aI117
aI426
aI259
aI261
aI196
aI98
aI257
aI92
aI288
aI252
aI509
aI424
asg35
(lp137
I518
aI314
aI518
aI265
aI66
aI406
aI233
aI517
aI3
aI29
aI516
aI518
aI169
aI244
aI518
aI167
aI137
aI186
aI263
aI130
aI59
aI40
aI57
aI15
aI27
aI3
aI6
aI44
aI34
aI47
asg37
(lp138
I143
aI172
aI214
aI518
aI310
aI257
aI163
aI202
aI382
aI150
aI134
aI110
aI115
aI221
aI518
aI112
aI222
aI518
aI200
aI518
aI137
aI164
aI103
aI195
aI305
aI297
aI92
aI192
aI121
aI180
asg39
(lp139
I303
aI65
aI518
aI518
aI518
aI180
aI457
aI119
aI329
aI166
aI300
aI429
aI475
aI297
aI518
aI301
aI35
aI518
aI77
aI419
aI236
aI5
aI28
aI56
aI54
aI6
aI15
aI20
aI16
aI7
asg41
(lp140
I132
aI332
aI518
aI235
aI518
aI326
aI102
aI184
aI473
aI403
aI228
aI472
aI499
aI260
aI518
aI29
aI471
aI239
aI440
aI72
aI477
aI518
aI51
aI6
aI3
aI44
aI21
aI36
aI36
aI3
asg43
(lp141
I245
aI210
aI134
aI448
aI372
aI491
aI2
aI455
aI84
aI34
aI10
aI0
aI281
aI290
aI126
aI145
aI154
aI373
aI3
aI173
aI28
aI37
aI38
aI3
aI13
aI15
aI36
aI518
aI16
aI53
asg45
(lp142
I251
aI377
aI1
aI3
aI298
aI75
aI518
aI114
aI396
aI9
aI173
aI133
aI518
aI518
aI518
aI413
aI474
aI404
aI518
aI145
aI29
aI58
aI7
aI56
aI34
aI18
aI28
aI32
aI49
aI36
asssS'sac_8'
p143
(dp144
S'60'
p145
(dp146
S'11'
p147
(lp148
I81
aI231
aI14
aI330
aI520
aI6
aI520
aI520
aI419
aI205
aI336
aI228
aI492
aI520
aI341
aI313
aI277
aI375
aI445
aI357
aI203
aI94
aI438
aI204
aI70
aI19
aI99
aI103
aI95
aI378
asS'10'
p149
(lp150
I284
aI60
aI520
aI74
aI505
aI274
aI416
aI290
aI175
aI506
aI404
aI2
aI520
aI520
aI278
aI520
aI303
aI341
aI17
aI169
aI78
aI17
aI57
aI93
aI186
aI219
aI6
aI203
aI352
aI78
asS'13'
p151
(lp152
I202
aI62
aI469
aI201
aI24
aI18
aI165
aI292
aI520
aI270
aI379
aI77
aI135
aI515
aI520
aI169
aI77
aI65
aI70
aI195
aI225
aI66
aI366
aI154
aI88
aI102
aI392
aI187
aI353
aI45
asS'12'
p153
(lp154
I209
aI227
aI518
aI425
aI432
aI520
aI249
aI140
aI93
aI520
aI361
aI308
aI242
aI335
aI8
aI454
aI381
aI73
aI360
aI448
aI66
aI59
aI8
aI134
aI35
aI208
aI520
aI74
aI196
aI96
asS'15'
p155
(lp156
I205
aI475
aI72
aI154
aI520
aI192
aI31
aI415
aI85
aI498
aI69
aI407
aI285
aI265
aI309
aI87
aI387
aI520
aI223
aI428
aI62
aI83
aI74
aI28
aI248
aI199
aI16
aI75
aI87
aI193
asS'14'
p157
(lp158
I487
aI76
aI135
aI207
aI15
aI78
aI171
aI53
aI469
aI23
aI60
aI520
aI34
aI393
aI207
aI40
aI520
aI31
aI113
aI233
aI423
aI355
aI422
aI115
aI27
aI77
aI301
aI229
aI186
aI101
asS'17'
p159
(lp160
I59
aI41
aI517
aI335
aI520
aI333
aI186
aI114
aI203
aI520
aI269
aI520
aI520
aI1
aI5
aI77
aI422
aI376
aI294
aI496
aI107
aI87
aI174
aI388
aI185
aI81
aI36
aI179
aI166
aI206
asS'16'
p161
(lp162
I209
aI520
aI141
aI424
aI233
aI18
aI448
aI20
aI197
aI454
aI484
aI472
aI297
aI76
aI134
aI206
aI94
aI49
aI82
aI520
aI138
aI245
aI77
aI53
aI234
aI57
aI357
aI229
aI166
aI220
asS'19'
p163
(lp164
I29
aI201
aI21
aI199
aI11
aI206
aI40
aI77
aI200
aI435
aI159
aI183
aI17
aI268
aI520
aI333
aI13
aI520
aI94
aI409
aI98
aI80
aI9
aI520
aI19
aI180
aI26
aI509
aI256
aI202
asS'18'
p165
(lp166
I77
aI422
aI392
aI520
aI81
aI520
aI359
aI40
aI17
aI370
aI203
aI267
aI241
aI498
aI351
aI21
aI520
aI19
aI24
aI57
aI90
aI69
aI7
aI19
aI175
aI74
aI75
aI266
aI194
aI199
asg27
(lp167
I13
aI6
aI180
aI89
aI87
aI520
aI99
aI74
aI355
aI10
aI18
aI520
aI361
aI325
aI74
aI361
aI520
aI80
aI520
aI75
aI48
aI212
aI62
aI173
aI226
aI34
aI25
aI520
aI69
aI285
asg29
(lp168
I520
aI369
aI172
aI477
aI87
aI88
aI16
aI242
aI508
aI206
aI422
aI406
aI72
aI520
aI132
aI73
aI15
aI47
aI385
aI83
aI14
aI209
aI78
aI448
aI193
aI10
aI236
aI33
aI63
aI251
asg31
(lp169
I520
aI494
aI267
aI520
aI520
aI234
aI520
aI520
aI201
aI177
aI81
aI75
aI136
aI207
aI120
aI81
aI352
aI393
aI131
aI373
aI25
aI378
aI84
aI203
aI182
aI62
aI18
aI63
aI12
aI268
asg33
(lp170
I91
aI159
aI423
aI520
aI194
aI40
aI147
aI25
aI20
aI435
aI520
aI60
aI520
aI311
aI68
aI77
aI121
aI298
aI232
aI175
aI151
aI179
aI203
aI155
aI520
aI220
aI18
aI420
aI80
aI448
asg35
(lp171
I167
aI191
aI234
aI279
aI467
aI91
aI158
aI337
aI55
aI206
aI107
aI7
aI326
aI87
aI314
aI17
aI157
aI202
aI143
aI87
aI76
aI59
aI24
aI27
aI234
aI241
aI366
aI187
aI401
aI77
asg37
(lp172
I382
aI249
aI127
aI282
aI248
aI246
aI214
aI268
aI386
aI63
aI265
aI81
aI78
aI103
aI74
aI42
aI93
aI102
aI18
aI243
aI13
aI113
aI326
aI166
aI209
aI74
aI203
aI196
aI175
aI469
asg39
(lp173
I520
aI454
aI416
aI397
aI246
aI449
aI291
aI91
aI482
aI78
aI74
aI81
aI244
aI30
aI520
aI10
aI446
aI220
aI20
aI74
aI180
aI273
aI191
aI74
aI216
aI263
aI228
aI520
aI210
aI520
asg41
(lp174
I237
aI179
aI209
aI505
aI89
aI220
aI515
aI167
aI390
aI209
aI113
aI69
aI16
aI192
aI78
aI343
aI152
aI397
aI377
aI520
aI11
aI220
aI9
aI202
aI31
aI239
aI251
aI98
aI236
aI229
asg43
(lp175
I360
aI247
aI287
aI487
aI22
aI0
aI83
aI520
aI74
aI485
aI233
aI32
aI14
aI370
aI203
aI409
aI50
aI520
aI220
aI29
aI336
aI78
aI185
aI82
aI77
aI206
aI23
aI17
aI180
aI328
asg45
(lp176
I235
aI520
aI8
aI260
aI401
aI520
aI367
aI277
aI483
aI45
aI176
aI75
aI34
aI271
aI179
aI520
aI520
aI83
aI346
aI254
aI7
aI93
aI153
aI23
aI164
aI98
aI380
aI168
aI184
aI30
assS'30'
p177
(dp178
S'11'
p179
(lp180
I56
aI265
aI220
aI435
aI421
aI169
aI471
aI452
aI50
aI520
aI344
aI213
aI520
aI13
aI520
aI77
aI74
aI40
aI77
aI389
aI193
aI29
aI271
aI226
aI235
aI233
aI216
aI196
aI147
aI173
asS'10'
p181
(lp182
I288
aI87
aI21
aI77
aI520
aI281
aI104
aI273
aI87
aI30
aI520
aI25
aI8
aI520
aI454
aI417
aI447
aI180
aI520
aI520
aI86
aI93
aI393
aI223
aI178
aI72
aI239
aI65
aI204
aI8
asS'13'
p183
(lp184
I515
aI520
aI164
aI84
aI519
aI200
aI510
aI59
aI131
aI391
aI520
aI520
aI57
aI77
aI506
aI520
aI6
aI34
aI70
aI13
aI77
aI139
aI126
aI319
aI78
aI82
aI59
aI104
aI41
aI67
asS'12'
p185
(lp186
I90
aI17
aI281
aI227
aI25
aI13
aI258
aI520
aI157
aI194
aI248
aI269
aI10
aI520
aI36
aI124
aI387
aI520
aI169
aI240
aI82
aI352
aI172
aI86
aI291
aI203
aI191
aI82
aI77
aI78
asS'15'
p187
(lp188
I20
aI63
aI13
aI520
aI416
aI90
aI412
aI520
aI367
aI359
aI344
aI29
aI198
aI77
aI143
aI25
aI386
aI15
aI184
aI385
aI67
aI54
aI195
aI87
aI26
aI4
aI206
aI167
aI76
aI185
asS'14'
p189
(lp190
I391
aI445
aI520
aI16
aI206
aI458
aI31
aI77
aI353
aI227
aI165
aI65
aI95
aI230
aI31
aI30
aI386
aI192
aI127
aI27
aI304
aI159
aI169
aI283
aI203
aI94
aI165
aI273
aI101
aI228
asS'17'
p191
(lp192
I431
aI9
aI72
aI197
aI276
aI94
aI209
aI211
aI2
aI520
aI514
aI520
aI449
aI329
aI308
aI245
aI440
aI144
aI180
aI520
aI203
aI77
aI271
aI24
aI224
aI232
aI168
aI421
aI72
aI379
asS'16'
p193
(lp194
I67
aI57
aI520
aI263
aI185
aI520
aI13
aI483
aI118
aI126
aI13
aI216
aI201
aI325
aI74
aI361
aI80
aI283
aI520
aI516
aI435
aI15
aI8
aI111
aI233
aI8
aI153
aI134
aI226
aI246
asS'19'
p195
(lp196
I264
aI152
aI185
aI520
aI90
aI74
aI169
aI520
aI91
aI235
aI477
aI7
aI520
aI19
aI386
aI520
aI312
aI337
aI520
aI305
aI216
aI8
aI75
aI420
aI200
aI156
aI96
aI153
aI180
aI29
asS'18'
p197
(lp198
I520
aI162
aI430
aI27
aI406
aI520
aI184
aI64
aI18
aI25
aI228
aI419
aI58
aI241
aI356
aI227
aI489
aI75
aI34
aI15
aI188
aI24
aI520
aI54
aI77
aI182
aI187
aI84
aI216
aI366
asg27
(lp199
I229
aI520
aI232
aI369
aI6
aI203
aI489
aI498
aI520
aI77
aI520
aI19
aI218
aI70
aI393
aI198
aI59
aI221
aI520
aI263
aI73
aI171
aI175
aI190
aI80
aI8
aI226
aI201
aI185
aI206
asg29
(lp200
I87
aI5
aI95
aI143
aI193
aI74
aI75
aI17
aI17
aI88
aI148
aI520
aI63
aI478
aI520
aI40
aI520
aI89
aI127
aI118
aI401
aI241
aI15
aI445
aI166
aI18
aI76
aI105
aI443
aI28
asg31
(lp201
I114
aI27
aI107
aI294
aI386
aI311
aI15
aI233
aI305
aI520
aI431
aI179
aI52
aI22
aI228
aI240
aI77
aI170
aI314
aI219
aI75
aI5
aI206
aI66
aI172
aI17
aI42
aI70
aI87
aI7
asg33
(lp202
I520
aI77
aI503
aI69
aI29
aI38
aI510
aI15
aI461
aI172
aI228
aI15
aI479
aI33
aI520
aI405
aI391
aI55
aI145
aI459
aI410
aI209
aI520
aI19
aI288
aI88
aI170
aI46
aI3
aI260
asg35
(lp203
I133
aI31
aI381
aI520
aI8
aI417
aI130
aI520
aI50
aI287
aI49
aI520
aI289
aI15
aI268
aI153
aI99
aI165
aI74
aI520
aI320
aI159
aI68
aI225
aI42
aI66
aI162
aI73
aI78
aI21
asg37
(lp204
I131
aI85
aI202
aI77
aI520
aI184
aI113
aI76
aI408
aI72
aI14
aI67
aI135
aI7
aI520
aI520
aI72
aI234
aI201
aI367
aI49
aI81
aI47
aI154
aI59
aI158
aI216
aI15
aI77
aI115
asg39
(lp205
I478
aI59
aI520
aI503
aI284
aI8
aI273
aI520
aI520
aI470
aI297
aI520
aI260
aI205
aI112
aI139
aI520
aI367
aI231
aI94
aI185
aI208
aI14
aI266
aI197
aI18
aI201
aI163
aI81
aI88
asg41
(lp206
I515
aI302
aI314
aI134
aI480
aI143
aI476
aI31
aI165
aI3
aI233
aI448
aI11
aI8
aI8
aI92
aI520
aI437
aI316
aI365
aI56
aI407
aI163
aI5
aI273
aI11
aI168
aI265
aI272
aI176
asg43
(lp207
I150
aI342
aI238
aI275
aI70
aI12
aI220
aI435
aI104
aI520
aI243
aI516
aI138
aI520
aI225
aI520
aI211
aI248
aI520
aI218
aI60
aI62
aI185
aI283
aI353
aI13
aI192
aI118
aI178
aI48
asg45
(lp208
I444
aI13
aI214
aI520
aI172
aI120
aI179
aI106
aI520
aI352
aI39
aI17
aI40
aI450
aI520
aI395
aI265
aI520
aI31
aI19
aI220
aI163
aI223
aI28
aI67
aI14
aI77
aI209
aI190
aI299
assS'50'
p209
(dp210
S'11'
p211
(lp212
I321
aI90
aI490
aI75
aI0
aI520
aI284
aI126
aI21
aI29
aI452
aI60
aI83
aI85
aI108
aI101
aI120
aI340
aI361
aI215
aI229
aI78
aI178
aI74
aI78
aI25
aI169
aI240
aI206
aI227
asS'10'
p213
(lp214
I327
aI24
aI180
aI24
aI342
aI356
aI10
aI520
aI193
aI74
aI271
aI170
aI520
aI462
aI59
aI86
aI520
aI183
aI206
aI292
aI33
aI30
aI80
aI31
aI77
aI7
aI200
aI54
aI89
aI158
asS'13'
p215
(lp216
I18
aI325
aI109
aI278
aI31
aI233
aI344
aI104
aI74
aI13
aI69
aI336
aI12
aI29
aI173
aI24
aI291
aI520
aI327
aI520
aI60
aI483
aI82
aI181
aI264
aI63
aI425
aI74
aI78
aI244
asS'12'
p217
(lp218
I102
aI34
aI55
aI76
aI398
aI313
aI308
aI451
aI520
aI520
aI196
aI70
aI246
aI410
aI203
aI425
aI77
aI463
aI294
aI520
aI211
aI82
aI40
aI69
aI67
aI119
aI520
aI81
aI191
aI194
asS'15'
p219
(lp220
I520
aI520
aI185
aI203
aI16
aI240
aI320
aI273
aI83
aI352
aI69
aI520
aI16
aI519
aI484
aI190
aI356
aI520
aI172
aI135
aI453
aI7
aI220
aI358
aI34
aI186
aI11
aI83
aI220
aI25
asS'14'
p221
(lp222
I77
aI520
aI393
aI123
aI319
aI218
aI42
aI352
aI3
aI213
aI520
aI81
aI323
aI74
aI18
aI230
aI436
aI520
aI51
aI75
aI187
aI80
aI220
aI141
aI220
aI170
aI19
aI88
aI73
aI520
asS'17'
p223
(lp224
I78
aI171
aI187
aI152
aI83
aI520
aI184
aI229
aI16
aI520
aI454
aI290
aI406
aI14
aI425
aI59
aI271
aI74
aI196
aI13
aI167
aI25
aI88
aI34
aI67
aI81
aI315
aI119
aI195
aI15
asS'16'
p225
(lp226
I184
aI22
aI122
aI456
aI7
aI310
aI280
aI285
aI320
aI214
aI169
aI153
aI182
aI520
aI385
aI14
aI48
aI277
aI341
aI520
aI200
aI180
aI167
aI72
aI136
aI520
aI41
aI87
aI230
aI170
asS'19'
p227
(lp228
I367
aI266
aI154
aI151
aI74
aI405
aI492
aI431
aI520
aI512
aI233
aI175
aI209
aI357
aI263
aI161
aI14
aI229
aI232
aI520
aI23
aI207
aI81
aI227
aI387
aI364
aI80
aI414
aI164
aI209
asS'18'
p229
(lp230
I386
aI7
aI80
aI520
aI405
aI72
aI520
aI72
aI271
aI78
aI200
aI123
aI180
aI29
aI510
aI493
aI33
aI11
aI423
aI520
aI520
aI73
aI15
aI197
aI191
aI232
aI61
aI206
aI11
aI265
asg27
(lp231
I520
aI106
aI163
aI8
aI71
aI329
aI37
aI210
aI70
aI520
aI447
aI103
aI6
aI427
aI410
aI445
aI135
aI211
aI207
aI2
aI520
aI203
aI41
aI418
aI17
aI191
aI78
aI46
aI55
aI228
asg29
(lp232
I520
aI337
aI72
aI109
aI395
aI51
aI478
aI485
aI437
aI75
aI513
aI266
aI36
aI201
aI350
aI333
aI271
aI200
aI404
aI74
aI84
aI75
aI81
aI179
aI220
aI165
aI244
aI163
aI62
aI128
asg31
(lp233
I75
aI74
aI113
aI63
aI292
aI13
aI318
aI343
aI72
aI233
aI508
aI283
aI143
aI387
aI442
aI36
aI483
aI252
aI132
aI95
aI72
aI75
aI0
aI34
aI376
aI227
aI228
aI74
aI24
aI415
asg33
(lp234
I291
aI520
aI520
aI253
aI283
aI520
aI34
aI409
aI411
aI49
aI308
aI342
aI14
aI520
aI520
aI263
aI77
aI8
aI211
aI140
aI186
aI261
aI80
aI250
aI269
aI220
aI207
aI75
aI209
aI75
asg35
(lp235
I206
aI477
aI390
aI300
aI25
aI417
aI510
aI520
aI11
aI394
aI74
aI72
aI8
aI32
aI344
aI40
aI353
aI211
aI19
aI69
aI159
aI279
aI91
aI180
aI191
aI56
aI177
aI520
aI268
aI125
asg37
(lp236
I450
aI501
aI88
aI520
aI277
aI201
aI502
aI29
aI77
aI92
aI76
aI133
aI257
aI216
aI143
aI520
aI253
aI107
aI426
aI80
aI206
aI77
aI54
aI56
aI68
aI59
aI10
aI176
aI23
aI170
asg39
(lp237
I520
aI83
aI408
aI520
aI430
aI51
aI424
aI203
aI420
aI520
aI227
aI520
aI145
aI461
aI65
aI32
aI370
aI351
aI66
aI520
aI194
aI185
aI63
aI220
aI34
aI336
aI75
aI426
aI205
aI72
asg41
(lp238
I520
aI216
aI78
aI21
aI36
aI169
aI194
aI40
aI82
aI303
aI356
aI18
aI380
aI248
aI65
aI321
aI203
aI79
aI188
aI10
aI77
aI70
aI78
aI13
aI258
aI520
aI162
aI520
aI181
aI401
asg43
(lp239
I31
aI350
aI326
aI37
aI34
aI394
aI206
aI33
aI234
aI520
aI165
aI390
aI473
aI437
aI361
aI356
aI6
aI16
aI520
aI520
aI202
aI54
aI121
aI59
aI219
aI192
aI59
aI66
aI240
aI62
asg45
(lp240
I143
aI365
aI520
aI13
aI211
aI450
aI520
aI78
aI273
aI458
aI278
aI7
aI70
aI20
aI286
aI45
aI253
aI257
aI135
aI520
aI113
aI65
aI18
aI307
aI413
aI228
aI63
aI376
aI435
aI75
assS'40'
p241
(dp242
S'11'
p243
(lp244
I520
aI388
aI288
aI63
aI257
aI520
aI101
aI320
aI357
aI520
aI77
aI375
aI520
aI56
aI520
aI95
aI289
aI203
aI111
aI150
aI17
aI239
aI232
aI157
aI74
aI495
aI41
aI74
aI34
aI67
asS'10'
p245
(lp246
I337
aI429
aI74
aI520
aI179
aI469
aI240
aI94
aI66
aI104
aI21
aI493
aI27
aI80
aI359
aI520
aI223
aI17
aI176
aI271
aI219
aI268
aI72
aI53
aI228
aI217
aI77
aI216
aI242
aI178
asS'13'
p247
(lp248
I470
aI112
aI314
aI25
aI520
aI101
aI520
aI402
aI237
aI19
aI74
aI425
aI490
aI78
aI35
aI312
aI19
aI352
aI356
aI438
aI206
aI155
aI111
aI171
aI77
aI162
aI172
aI96
aI82
aI78
asS'12'
p249
(lp250
I82
aI91
aI235
aI520
aI88
aI69
aI520
aI175
aI168
aI520
aI218
aI174
aI483
aI473
aI178
aI238
aI160
aI316
aI96
aI226
aI232
aI407
aI370
aI78
aI292
aI520
aI16
aI237
aI273
aI48
asS'15'
p251
(lp252
I438
aI199
aI451
aI175
aI520
aI322
aI414
aI80
aI520
aI341
aI77
aI148
aI97
aI96
aI246
aI75
aI415
aI81
aI178
aI283
aI45
aI17
aI223
aI242
aI66
aI184
aI32
aI228
aI229
aI83
asS'14'
p253
(lp254
I77
aI89
aI177
aI183
aI334
aI76
aI123
aI74
aI450
aI104
aI366
aI302
aI203
aI520
aI246
aI462
aI520
aI465
aI460
aI11
aI39
aI63
aI424
aI60
aI435
aI192
aI118
aI196
aI66
aI204
asS'17'
p255
(lp256
I85
aI364
aI111
aI90
aI514
aI32
aI349
aI354
aI103
aI58
aI155
aI520
aI91
aI185
aI8
aI240
aI383
aI74
aI183
aI327
aI208
aI223
aI8
aI393
aI83
aI520
aI11
aI7
aI200
aI222
asS'16'
p257
(lp258
I462
aI233
aI32
aI375
aI18
aI515
aI77
aI207
aI195
aI180
aI346
aI286
aI78
aI204
aI520
aI323
aI127
aI397
aI273
aI82
aI228
aI47
aI370
aI93
aI18
aI15
aI76
aI77
aI83
aI185
asS'19'
p259
(lp260
I487
aI391
aI480
aI290
aI520
aI265
aI95
aI96
aI195
aI303
aI348
aI307
aI520
aI520
aI520
aI45
aI520
aI374
aI464
aI399
aI221
aI269
aI520
aI248
aI23
aI160
aI40
aI64
aI60
aI62
asS'18'
p261
(lp262
I307
aI70
aI180
aI97
aI410
aI520
aI504
aI176
aI143
aI74
aI512
aI36
aI31
aI24
aI190
aI249
aI83
aI520
aI357
aI246
aI187
aI88
aI72
aI74
aI84
aI103
aI221
aI179
aI155
aI242
asg27
(lp263
I74
aI95
aI137
aI6
aI23
aI415
aI74
aI424
aI77
aI31
aI520
aI67
aI520
aI410
aI78
aI108
aI194
aI399
aI445
aI520
aI171
aI74
aI9
aI58
aI265
aI68
aI201
aI83
aI193
aI31
asg29
(lp264
I473
aI220
aI106
aI226
aI385
aI415
aI17
aI520
aI66
aI209
aI320
aI520
aI520
aI408
aI19
aI261
aI520
aI25
aI199
aI384
aI321
aI219
aI273
aI191
aI55
aI286
aI6
aI87
aI171
aI177
asg31
(lp265
I31
aI201
aI372
aI520
aI57
aI520
aI23
aI483
aI465
aI115
aI458
aI192
aI200
aI194
aI260
aI76
aI14
aI19
aI229
aI78
aI408
aI265
aI197
aI144
aI88
aI227
aI175
aI207
aI437
aI5
asg33
(lp266
I226
aI396
aI413
aI520
aI265
aI411
aI168
aI15
aI416
aI233
aI158
aI520
aI29
aI520
aI24
aI14
aI417
aI207
aI194
aI345
aI7
aI200
aI76
aI480
aI182
aI5
aI166
aI154
aI195
aI72
asg35
(lp267
I403
aI13
aI182
aI197
aI306
aI520
aI2
aI203
aI520
aI479
aI452
aI31
aI49
aI61
aI501
aI84
aI93
aI478
aI164
aI421
aI203
aI279
aI184
aI15
aI265
aI67
aI78
aI201
aI155
aI31
asg37
(lp268
I442
aI520
aI72
aI136
aI266
aI140
aI168
aI520
aI78
aI520
aI257
aI329
aI34
aI208
aI77
aI92
aI123
aI18
aI390
aI227
aI169
aI13
aI74
aI51
aI63
aI370
aI38
aI138
aI225
aI421
asg39
(lp269
I520
aI520
aI90
aI284
aI406
aI280
aI0
aI366
aI232
aI520
aI208
aI120
aI226
aI296
aI227
aI64
aI519
aI80
aI520
aI504
aI18
aI452
aI227
aI113
aI63
aI203
aI209
aI191
aI25
aI450
asg41
(lp270
I475
aI520
aI206
aI196
aI252
aI444
aI8
aI127
aI514
aI411
aI405
aI77
aI236
aI363
aI67
aI456
aI178
aI265
aI484
aI104
aI175
aI111
aI294
aI66
aI200
aI440
aI191
aI233
aI71
aI185
asg43
(lp271
I15
aI336
aI118
aI520
aI201
aI17
aI348
aI520
aI306
aI76
aI58
aI264
aI23
aI335
aI170
aI442
aI10
aI153
aI13
aI68
aI433
aI520
aI80
aI520
aI127
aI251
aI34
aI74
aI365
aI70
asg45
(lp272
I230
aI520
aI205
aI499
aI99
aI330
aI121
aI409
aI240
aI347
aI138
aI274
aI343
aI232
aI184
aI79
aI193
aI520
aI140
aI206
aI70
aI64
aI40
aI191
aI180
aI259
aI286
aI105
aI75
aI228
asssS'sac_7'
p273
(dp274
S'60'
p275
(dp276
S'11'
p277
(lp278
I271
aI25
aI449
aI556
aI612
aI328
aI323
aI166
aI616
aI648
aI214
aI518
aI329
aI650
aI420
aI29
aI122
aI88
aI650
aI196
aI108
aI0
aI234
aI66
aI350
aI557
aI319
aI334
aI227
aI35
asS'10'
p279
(lp280
I300
aI650
aI188
aI365
aI650
aI650
aI352
aI339
aI38
aI40
aI106
aI650
aI256
aI66
aI326
aI427
aI483
aI644
aI126
aI578
aI263
aI103
aI95
aI290
aI602
aI67
aI254
aI387
aI160
aI208
asS'13'
p281
(lp282
I650
aI125
aI379
aI536
aI221
aI145
aI635
aI457
aI593
aI204
aI613
aI301
aI283
aI392
aI452
aI517
aI36
aI25
aI620
aI252
aI95
aI81
aI136
aI290
aI207
aI126
aI177
aI267
aI16
aI44
asS'12'
p283
(lp284
I562
aI270
aI617
aI633
aI0
aI472
aI8
aI166
aI528
aI378
aI327
aI650
aI557
aI74
aI143
aI58
aI518
aI347
aI20
aI115
aI240
aI618
aI25
aI41
aI451
aI630
aI21
aI92
aI135
aI28
asS'15'
p285
(lp286
I89
aI75
aI44
aI449
aI28
aI390
aI7
aI27
aI210
aI60
aI86
aI416
aI520
aI470
aI441
aI167
aI391
aI92
aI495
aI650
aI125
aI30
aI39
aI92
aI302
aI360
aI15
aI33
aI69
aI196
asS'14'
p287
(lp288
I269
aI31
aI623
aI152
aI197
aI280
aI618
aI467
aI281
aI293
aI335
aI537
aI556
aI566
aI11
aI399
aI353
aI450
aI60
aI359
aI178
aI192
aI21
aI268
aI650
aI306
aI37
aI303
aI480
aI124
asS'17'
p289
(lp290
I544
aI431
aI393
aI519
aI125
aI300
aI248
aI229
aI54
aI98
aI224
aI650
aI520
aI650
aI509
aI103
aI290
aI422
aI449
aI554
aI91
aI51
aI318
aI50
aI47
aI330
aI132
aI60
aI111
aI225
asS'16'
p291
(lp292
I639
aI200
aI449
aI374
aI356
aI19
aI137
aI289
aI650
aI258
aI194
aI460
aI194
aI216
aI21
aI116
aI650
aI573
aI218
aI278
aI275
aI376
aI2
aI471
aI191
aI71
aI413
aI277
aI183
aI283
asS'19'
p293
(lp294
I234
aI313
aI208
aI494
aI139
aI637
aI604
aI650
aI650
aI130
aI9
aI195
aI46
aI274
aI440
aI634
aI501
aI474
aI586
aI557
aI74
aI71
aI54
aI462
aI182
aI62
aI108
aI132
aI371
aI426
asS'18'
p295
(lp296
I470
aI241
aI564
aI55
aI146
aI40
aI350
aI650
aI15
aI117
aI100
aI324
aI549
aI368
aI29
aI373
aI101
aI149
aI146
aI650
aI376
aI310
aI569
aI250
aI248
aI36
aI196
aI401
aI280
aI6
asg27
(lp297
I423
aI87
aI34
aI641
aI62
aI650
aI650
aI292
aI356
aI553
aI607
aI75
aI65
aI650
aI414
aI82
aI265
aI472
aI23
aI5
aI417
aI290
aI86
aI225
aI201
aI451
aI219
aI289
aI186
aI26
asg29
(lp298
I390
aI89
aI298
aI148
aI418
aI186
aI48
aI47
aI273
aI579
aI649
aI446
aI623
aI219
aI437
aI76
aI102
aI650
aI59
aI614
aI195
aI75
aI280
aI102
aI389
aI63
aI379
aI347
aI475
aI63
asg31
(lp299
I534
aI650
aI171
aI650
aI55
aI560
aI650
aI438
aI405
aI98
aI381
aI131
aI30
aI186
aI650
aI243
aI530
aI555
aI146
aI582
aI24
aI145
aI638
aI133
aI176
aI235
aI303
aI349
aI26
aI312
asg33
(lp300
I155
aI207
aI95
aI650
aI474
aI640
aI414
aI325
aI462
aI102
aI637
aI30
aI192
aI237
aI238
aI208
aI93
aI19
aI650
aI122
aI137
aI7
aI92
aI50
aI123
aI217
aI364
aI178
aI204
aI250
asg35
(lp301
I396
aI475
aI493
aI68
aI146
aI401
aI504
aI8
aI422
aI171
aI650
aI87
aI81
aI355
aI390
aI650
aI224
aI174
aI281
aI303
aI262
aI591
aI65
aI269
aI408
aI188
aI100
aI294
aI216
aI222
asg37
(lp302
I110
aI229
aI185
aI396
aI334
aI301
aI188
aI209
aI593
aI245
aI233
aI650
aI542
aI558
aI114
aI176
aI650
aI45
aI130
aI337
aI227
aI189
aI87
aI30
aI275
aI270
aI102
aI48
aI125
aI326
asg39
(lp303
I24
aI570
aI455
aI533
aI164
aI376
aI22
aI491
aI437
aI122
aI123
aI618
aI609
aI555
aI103
aI495
aI335
aI650
aI424
aI650
aI52
aI482
aI146
aI27
aI244
aI47
aI198
aI330
aI516
aI30
asg41
(lp304
I650
aI19
aI490
aI294
aI26
aI337
aI321
aI379
aI602
aI320
aI624
aI371
aI467
aI344
aI416
aI43
aI518
aI88
aI179
aI10
aI135
aI55
aI125
aI160
aI450
aI180
aI199
aI272
aI45
aI142
asg43
(lp305
I17
aI319
aI21
aI416
aI471
aI650
aI50
aI606
aI36
aI206
aI335
aI527
aI191
aI247
aI279
aI22
aI16
aI629
aI122
aI224
aI184
aI121
aI609
aI398
aI265
aI183
aI330
aI557
aI18
aI71
asg45
(lp306
I415
aI86
aI278
aI233
aI6
aI111
aI431
aI303
aI359
aI82
aI571
aI306
aI363
aI40
aI27
aI184
aI202
aI342
aI186
aI392
aI75
aI616
aI235
aI71
aI112
aI650
aI274
aI448
aI110
aI223
assS'30'
p307
(dp308
S'11'
p309
(lp310
I628
aI545
aI24
aI148
aI650
aI176
aI30
aI553
aI116
aI41
aI497
aI650
aI650
aI472
aI650
aI340
aI119
aI650
aI458
aI650
aI277
aI61
aI204
aI360
aI141
aI205
aI234
aI244
aI68
aI100
asS'10'
p311
(lp312
I172
aI621
aI650
aI283
aI644
aI175
aI192
aI242
aI148
aI308
aI24
aI260
aI456
aI322
aI149
aI506
aI95
aI338
aI365
aI476
aI8
aI216
aI44
aI145
aI111
aI26
aI238
aI232
aI218
aI294
asS'13'
p313
(lp314
I554
aI166
aI25
aI490
aI43
aI281
aI83
aI650
aI480
aI412
aI299
aI650
aI195
aI378
aI595
aI626
aI128
aI602
aI369
aI311
aI352
aI95
aI122
aI29
aI278
aI475
aI64
aI23
aI77
aI87
asS'12'
p315
(lp316
I83
aI62
aI29
aI44
aI109
aI464
aI145
aI379
aI584
aI85
aI220
aI42
aI60
aI377
aI192
aI88
aI606
aI26
aI29
aI637
aI238
aI593
aI430
aI254
aI21
aI41
aI291
aI123
aI213
aI101
asS'15'
p317
(lp318
I650
aI295
aI28
aI534
aI386
aI595
aI195
aI277
aI421
aI357
aI419
aI329
aI303
aI650
aI301
aI146
aI491
aI323
aI362
aI88
aI466
aI187
aI25
aI248
aI174
aI122
aI507
aI246
aI27
aI198
asS'14'
p319
(lp320
I70
aI359
aI372
aI157
aI521
aI314
aI167
aI406
aI409
aI63
aI188
aI650
aI650
aI75
aI590
aI22
aI650
aI211
aI208
aI68
aI427
aI24
aI11
aI297
aI22
aI44
aI317
aI68
aI169
aI237
asS'17'
p321
(lp322
I268
aI233
aI18
aI639
aI281
aI66
aI171
aI195
aI107
aI291
aI127
aI126
aI263
aI505
aI75
aI557
aI562
aI588
aI347
aI341
aI650
aI458
aI19
aI215
aI137
aI436
aI44
aI218
aI208
aI225
asS'16'
p323
(lp324
I24
aI650
aI188
aI105
aI102
aI43
aI367
aI494
aI422
aI147
aI650
aI362
aI186
aI315
aI644
aI386
aI301
aI228
aI445
aI650
aI125
aI153
aI244
aI122
aI475
aI220
aI349
aI56
aI41
aI235
asS'19'
p325
(lp326
I650
aI347
aI242
aI122
aI384
aI104
aI428
aI540
aI565
aI482
aI424
aI480
aI650
aI539
aI583
aI304
aI605
aI293
aI301
aI309
aI38
aI290
aI227
aI177
aI29
aI226
aI43
aI166
aI220
aI254
asS'18'
p327
(lp328
I268
aI484
aI158
aI35
aI115
aI275
aI251
aI407
aI180
aI404
aI611
aI136
aI650
aI161
aI334
aI316
aI650
aI216
aI328
aI244
aI288
aI189
aI254
aI17
aI307
aI173
aI514
aI227
aI6
aI75
asg27
(lp329
I329
aI648
aI418
aI61
aI563
aI463
aI292
aI530
aI483
aI650
aI173
aI381
aI279
aI446
aI650
aI547
aI576
aI384
aI290
aI636
aI310
aI47
aI377
aI330
aI413
aI610
aI229
aI38
aI290
aI12
asg29
(lp330
I222
aI40
aI650
aI265
aI233
aI297
aI339
aI82
aI125
aI634
aI66
aI599
aI226
aI13
aI94
aI347
aI357
aI384
aI411
aI582
aI596
aI139
aI185
aI323
aI114
aI253
aI87
aI30
aI100
aI218
asg31
(lp331
I19
aI620
aI7
aI203
aI23
aI52
aI417
aI639
aI441
aI650
aI569
aI26
aI264
aI272
aI534
aI511
aI551
aI303
aI132
aI409
aI265
aI453
aI78
aI126
aI130
aI292
aI303
aI167
aI101
aI486
asg33
(lp332
I365
aI22
aI204
aI122
aI92
aI591
aI650
aI499
aI211
aI271
aI215
aI323
aI498
aI541
aI250
aI422
aI148
aI568
aI364
aI650
aI298
aI29
aI121
aI226
aI4
aI410
aI265
aI167
aI46
aI132
asg35
(lp333
I22
aI139
aI221
aI329
aI650
aI268
aI235
aI193
aI187
aI488
aI249
aI452
aI594
aI635
aI374
aI316
aI333
aI650
aI357
aI239
aI108
aI196
aI15
aI277
aI240
aI401
aI4
aI265
aI62
aI180
asg37
(lp334
I154
aI650
aI650
aI211
aI182
aI12
aI13
aI99
aI587
aI156
aI79
aI506
aI585
aI551
aI225
aI338
aI402
aI576
aI123
aI238
aI61
aI122
aI146
aI320
aI229
aI148
aI126
aI122
aI378
aI485
asg39
(lp335
I187
aI567
aI650
aI125
aI428
aI2
aI275
aI119
aI119
aI299
aI305
aI23
aI650
aI317
aI328
aI465
aI338
aI505
aI399
aI437
aI184
aI107
aI18
aI1
aI265
aI402
aI191
aI227
aI248
aI77
asg41
(lp336
I260
aI290
aI650
aI355
aI259
aI331
aI139
aI321
aI598
aI603
aI68
aI519
aI646
aI346
aI628
aI188
aI133
aI257
aI437
aI347
aI251
aI253
aI330
aI238
aI74
aI143
aI267
aI221
aI368
aI268
asg43
(lp337
I122
aI50
aI629
aI39
aI423
aI366
aI340
aI466
aI149
aI623
aI577
aI582
aI148
aI194
aI135
aI400
aI595
aI21
aI413
aI194
aI75
aI303
aI198
aI240
aI24
aI290
aI278
aI244
aI36
aI286
asg45
(lp338
I24
aI569
aI242
aI88
aI342
aI403
aI47
aI476
aI650
aI319
aI362
aI599
aI546
aI250
aI344
aI516
aI274
aI192
aI289
aI367
aI240
aI266
aI182
aI146
aI42
aI99
aI614
aI330
aI27
aI131
assS'50'
p339
(dp340
S'11'
p341
(lp342
I158
aI455
aI106
aI530
aI264
aI59
aI463
aI640
aI294
aI69
aI210
aI650
aI224
aI126
aI233
aI255
aI87
aI650
aI521
aI44
aI224
aI56
aI291
aI57
aI235
aI10
aI188
aI88
aI228
aI32
asS'10'
p343
(lp344
I82
aI205
aI296
aI164
aI83
aI650
aI557
aI102
aI650
aI593
aI262
aI530
aI362
aI480
aI366
aI107
aI157
aI646
aI650
aI95
aI27
aI172
aI411
aI153
aI22
aI240
aI89
aI229
aI583
aI104
asS'13'
p345
(lp346
I437
aI627
aI650
aI384
aI335
aI563
aI223
aI186
aI130
aI75
aI363
aI472
aI262
aI92
aI260
aI319
aI317
aI190
aI444
aI254
aI22
aI554
aI146
aI19
aI504
aI32
aI137
aI72
aI200
aI12
asS'12'
p347
(lp348
I158
aI129
aI256
aI576
aI574
aI30
aI88
aI215
aI506
aI344
aI59
aI636
aI266
aI13
aI389
aI279
aI148
aI332
aI180
aI227
aI472
aI185
aI650
aI559
aI436
aI124
aI69
aI238
aI230
aI10
asS'15'
p349
(lp350
I412
aI6
aI75
aI398
aI608
aI223
aI92
aI133
aI80
aI650
aI445
aI410
aI516
aI186
aI2
aI233
aI522
aI200
aI25
aI273
aI52
aI162
aI336
aI40
aI62
aI402
aI191
aI196
aI271
aI261
asS'14'
p351
(lp352
I52
aI49
aI455
aI143
aI451
aI233
aI564
aI570
aI442
aI135
aI263
aI217
aI162
aI630
aI19
aI19
aI134
aI316
aI27
aI635
aI76
aI167
aI270
aI103
aI72
aI297
aI169
aI228
aI224
aI137
asS'17'
p353
(lp354
I370
aI340
aI435
aI455
aI350
aI66
aI260
aI614
aI289
aI496
aI468
aI650
aI92
aI2
aI521
aI240
aI301
aI227
aI650
aI650
aI48
aI30
aI430
aI191
aI555
aI275
aI315
aI326
aI303
aI582
asS'16'
p355
(lp356
I429
aI418
aI54
aI117
aI56
aI303
aI573
aI121
aI27
aI650
aI615
aI202
aI203
aI134
aI18
aI596
aI537
aI137
aI107
aI265
aI215
aI187
aI51
aI116
aI220
aI177
aI231
aI329
aI396
aI365
asS'19'
p357
(lp358
I600
aI507
aI36
aI650
aI269
aI233
aI470
aI346
aI148
aI132
aI17
aI508
aI125
aI238
aI606
aI650
aI365
aI357
aI156
aI301
aI76
aI464
aI220
aI307
aI74
aI290
aI298
aI277
aI422
aI70
asS'18'
p359
(lp360
I618
aI650
aI211
aI327
aI290
aI127
aI118
aI587
aI229
aI92
aI472
aI230
aI505
aI274
aI650
aI224
aI213
aI377
aI205
aI374
aI121
aI7
aI506
aI87
aI372
aI461
aI270
aI329
aI206
aI143
asg27
(lp361
I6
aI142
aI301
aI68
aI285
aI114
aI246
aI650
aI483
aI44
aI650
aI89
aI640
aI268
aI589
aI399
aI375
aI326
aI316
aI650
aI299
aI75
aI20
aI231
aI377
aI211
aI274
aI111
aI188
aI57
asg29
(lp362
I323
aI24
aI356
aI282
aI262
aI60
aI568
aI343
aI58
aI499
aI120
aI184
aI484
aI37
aI129
aI137
aI258
aI245
aI650
aI559
aI318
aI278
aI18
aI17
aI307
aI460
aI256
aI83
aI272
aI131
asg31
(lp363
I9
aI540
aI294
aI370
aI230
aI180
aI399
aI39
aI440
aI218
aI396
aI596
aI145
aI580
aI532
aI350
aI553
aI414
aI289
aI650
aI315
aI511
aI25
aI261
aI141
aI24
aI131
aI277
aI507
aI455
asg33
(lp364
I519
aI91
aI518
aI304
aI461
aI129
aI75
aI327
aI650
aI632
aI650
aI51
aI161
aI291
aI650
aI290
aI1
aI397
aI396
aI592
aI217
aI181
aI597
aI265
aI177
aI6
aI46
aI308
aI40
aI201
asg35
(lp365
I151
aI511
aI465
aI427
aI321
aI524
aI650
aI92
aI650
aI350
aI45
aI613
aI295
aI461
aI171
aI343
aI382
aI621
aI209
aI504
aI437
aI19
aI375
aI33
aI101
aI28
aI466
aI9
aI158
aI315
asg37
(lp366
I650
aI58
aI268
aI16
aI37
aI547
aI244
aI200
aI650
aI435
aI7
aI215
aI650
aI584
aI400
aI263
aI238
aI580
aI119
aI242
aI92
aI398
aI184
aI19
aI270
aI452
aI33
aI45
aI101
aI311
asg39
(lp367
I464
aI285
aI460
aI428
aI264
aI204
aI14
aI167
aI92
aI176
aI220
aI650
aI186
aI183
aI110
aI8
aI540
aI310
aI365
aI420
aI68
aI303
aI216
aI414
aI106
aI303
aI279
aI436
aI26
aI330
asg41
(lp368
I432
aI210
aI364
aI363
aI269
aI650
aI421
aI174
aI181
aI622
aI155
aI37
aI650
aI634
aI650
aI342
aI31
aI143
aI390
aI458
aI258
aI188
aI25
aI233
aI95
aI222
aI290
aI166
aI73
aI117
asg43
(lp369
I228
aI174
aI200
aI508
aI160
aI401
aI461
aI603
aI83
aI265
aI311
aI553
aI472
aI400
aI448
aI123
aI158
aI650
aI272
aI22
aI28
aI82
aI137
aI224
aI276
aI15
aI159
aI317
aI62
aI225
asg45
(lp370
I415
aI519
aI650
aI179
aI643
aI15
aI225
aI532
aI153
aI358
aI636
aI301
aI650
aI550
aI203
aI133
aI45
aI187
aI650
aI471
aI274
aI328
aI615
aI286
aI72
aI69
aI148
aI227
aI194
aI277
assS'40'
p371
(dp372
S'11'
p373
(lp374
I103
aI571
aI440
aI24
aI650
aI600
aI489
aI311
aI218
aI587
aI641
aI233
aI119
aI650
aI524
aI442
aI650
aI41
aI200
aI277
aI232
aI229
aI145
aI441
aI235
aI294
aI26
aI411
aI238
aI112
asS'10'
p375
(lp376
I650
aI131
aI561
aI254
aI47
aI298
aI193
aI331
aI281
aI252
aI650
aI114
aI520
aI650
aI489
aI26
aI68
aI493
aI12
aI117
aI223
aI277
aI229
aI103
aI474
aI40
aI274
aI22
aI240
aI318
asS'13'
p377
(lp378
I389
aI228
aI576
aI345
aI619
aI13
aI306
aI192
aI206
aI154
aI139
aI589
aI227
aI16
aI650
aI563
aI28
aI509
aI530
aI107
aI320
aI311
aI89
aI184
aI415
aI163
aI3
aI21
aI194
aI183
asS'12'
p379
(lp380
I650
aI390
aI500
aI156
aI414
aI473
aI63
aI515
aI574
aI262
aI587
aI371
aI650
aI52
aI640
aI520
aI650
aI302
aI158
aI260
aI208
aI298
aI202
aI213
aI24
aI114
aI182
aI431
aI266
aI389
asS'15'
p381
(lp382
I233
aI43
aI548
aI650
aI263
aI432
aI285
aI650
aI496
aI552
aI650
aI650
aI87
aI319
aI40
aI532
aI103
aI8
aI19
aI259
aI216
aI184
aI372
aI343
aI30
aI277
aI87
aI237
aI275
aI102
asS'14'
p383
(lp384
I601
aI504
aI143
aI478
aI192
aI47
aI55
aI455
aI375
aI265
aI650
aI66
aI94
aI357
aI29
aI608
aI650
aI609
aI361
aI310
aI105
aI193
aI226
aI102
aI41
aI188
aI26
aI50
aI252
aI24
asS'17'
p385
(lp386
I554
aI377
aI564
aI628
aI338
aI650
aI543
aI585
aI59
aI562
aI489
aI185
aI650
aI289
aI291
aI645
aI125
aI25
aI336
aI86
aI299
aI261
aI194
aI148
aI233
aI124
aI267
aI215
aI90
aI33
asS'16'
p387
(lp388
I555
aI403
aI227
aI475
aI59
aI209
aI94
aI328
aI443
aI198
aI650
aI494
aI510
aI298
aI516
aI250
aI81
aI104
aI288
aI471
aI319
aI251
aI208
aI68
aI368
aI73
aI650
aI281
aI160
aI579
asS'19'
p389
(lp390
I82
aI436
aI650
aI615
aI27
aI117
aI287
aI279
aI97
aI108
aI525
aI290
aI431
aI280
aI85
aI522
aI203
aI362
aI60
aI344
aI198
aI50
aI213
aI328
aI272
aI503
aI61
aI229
aI220
aI368
asS'18'
p391
(lp392
I86
aI638
aI650
aI16
aI311
aI284
aI295
aI387
aI153
aI47
aI393
aI253
aI124
aI370
aI194
aI321
aI226
aI54
aI650
aI650
aI222
aI330
aI630
aI544
aI584
aI365
aI85
aI111
aI556
aI83
asg27
(lp393
I225
aI184
aI64
aI44
aI114
aI216
aI650
aI22
aI281
aI194
aI52
aI520
aI644
aI315
aI354
aI149
aI43
aI284
aI241
aI146
aI146
aI1
aI319
aI265
aI35
aI145
aI229
aI410
aI13
aI40
asg29
(lp394
I566
aI642
aI12
aI68
aI508
aI361
aI25
aI393
aI609
aI650
aI5
aI211
aI491
aI631
aI135
aI36
aI650
aI40
aI83
aI283
aI7
aI290
aI369
aI272
aI296
aI293
aI132
aI61
aI95
aI290
asg31
(lp395
I342
aI399
aI605
aI417
aI82
aI16
aI146
aI642
aI475
aI122
aI193
aI328
aI195
aI591
aI584
aI67
aI20
aI615
aI366
aI520
aI1
aI265
aI222
aI231
aI274
aI61
aI12
aI330
aI229
aI37
asg33
(lp396
I188
aI133
aI101
aI465
aI48
aI421
aI429
aI633
aI125
aI233
aI591
aI610
aI568
aI500
aI561
aI650
aI361
aI243
aI208
aI42
aI131
aI272
aI180
aI173
aI274
aI329
aI312
aI134
aI25
aI285
asg35
(lp397
I142
aI221
aI486
aI546
aI160
aI473
aI67
aI46
aI500
aI362
aI101
aI231
aI412
aI68
aI363
aI650
aI167
aI119
aI442
aI120
aI614
aI211
aI145
aI308
aI287
aI388
aI253
aI226
aI258
aI33
asg37
(lp398
I47
aI262
aI44
aI604
aI10
aI465
aI394
aI481
aI100
aI381
aI9
aI347
aI7
aI130
aI388
aI628
aI650
aI320
aI92
aI168
aI359
aI207
aI451
aI108
aI199
aI111
aI115
aI330
aI315
aI218
asg39
(lp399
I545
aI158
aI109
aI624
aI564
aI601
aI19
aI137
aI421
aI650
aI251
aI40
aI120
aI50
aI253
aI325
aI494
aI281
aI87
aI541
aI262
aI470
aI119
aI203
aI178
aI450
aI36
aI290
aI29
aI274
asg41
(lp400
I387
aI68
aI191
aI8
aI594
aI51
aI68
aI603
aI514
aI615
aI627
aI47
aI86
aI650
aI62
aI468
aI277
aI36
aI366
aI573
aI477
aI181
aI100
aI341
aI196
aI102
aI516
aI50
aI327
aI446
asg43
(lp401
I570
aI156
aI650
aI146
aI485
aI512
aI227
aI464
aI246
aI25
aI650
aI256
aI324
aI520
aI338
aI547
aI420
aI467
aI526
aI477
aI16
aI248
aI279
aI285
aI359
aI168
aI353
aI390
aI305
aI84
asg45
(lp402
I650
aI65
aI530
aI634
aI117
aI139
aI306
aI500
aI170
aI267
aI452
aI650
aI379
aI33
aI53
aI387
aI520
aI498
aI26
aI290
aI137
aI71
aI82
aI268
aI252
aI313
aI435
aI8
aI224
aI100
asssS'sac_6'
p403
(dp404
S'60'
p405
(dp406
S'11'
p407
(lp408
I41
aI72
aI12
aI36
aI387
aI74
aI464
aI74
aI149
aI228
aI464
aI464
aI113
aI393
aI293
aI74
aI464
aI278
aI149
aI335
aI70
aI3
aI86
aI94
aI138
aI326
aI66
aI93
aI53
aI73
asS'10'
p409
(lp410
I343
aI464
aI61
aI259
aI72
aI348
aI193
aI177
aI69
aI464
aI464
aI9
aI92
aI464
aI72
aI76
aI29
aI18
aI94
aI138
aI183
aI75
aI95
aI174
aI51
aI198
aI14
aI305
aI70
aI239
asS'13'
p411
(lp412
I464
aI63
aI4
aI276
aI464
aI119
aI193
aI179
aI346
aI28
aI242
aI72
aI17
aI361
aI46
aI77
aI185
aI247
aI75
aI75
aI85
aI92
aI35
aI109
aI75
aI186
aI124
aI238
aI81
aI136
asS'12'
p413
(lp414
I70
aI310
aI26
aI100
aI154
aI451
aI56
aI144
aI107
aI411
aI73
aI128
aI214
aI28
aI5
aI36
aI108
aI369
aI37
aI81
aI161
aI91
aI48
aI22
aI147
aI99
aI80
aI174
aI30
aI118
asS'15'
p415
(lp416
I425
aI432
aI464
aI29
aI464
aI63
aI8
aI30
aI328
aI71
aI464
aI349
aI464
aI236
aI464
aI295
aI41
aI179
aI362
aI75
aI87
aI129
aI15
aI275
aI53
aI108
aI133
aI73
aI212
aI104
asS'14'
p417
(lp418
I80
aI311
aI70
aI238
aI309
aI190
aI29
aI19
aI29
aI147
aI175
aI82
aI187
aI464
aI289
aI108
aI45
aI252
aI72
aI344
aI150
aI29
aI79
aI131
aI77
aI77
aI179
aI9
aI5
aI77
asS'17'
p419
(lp420
I96
aI70
aI277
aI112
aI18
aI118
aI152
aI419
aI328
aI77
aI215
aI206
aI464
aI123
aI131
aI33
aI134
aI255
aI0
aI212
aI69
aI1
aI2
aI33
aI169
aI73
aI73
aI137
aI23
aI54
asS'16'
p421
(lp422
I191
aI464
aI212
aI20
aI251
aI354
aI23
aI305
aI464
aI464
aI73
aI392
aI49
aI166
aI431
aI20
aI344
aI406
aI5
aI259
aI47
aI21
aI9
aI67
aI95
aI91
aI72
aI254
aI149
aI123
asS'19'
p423
(lp424
I72
aI91
aI360
aI73
aI190
aI436
aI18
aI164
aI31
aI464
aI82
aI80
aI32
aI90
aI23
aI18
aI263
aI86
aI74
aI71
aI18
aI197
aI227
aI85
aI24
aI168
aI374
aI400
aI28
aI19
asS'18'
p425
(lp426
I71
aI264
aI306
aI94
aI187
aI464
aI20
aI24
aI319
aI408
aI215
aI8
aI173
aI248
aI75
aI464
aI121
aI216
aI164
aI352
aI15
aI87
aI64
aI6
aI94
aI12
aI91
aI238
aI53
aI86
asg27
(lp427
I24
aI85
aI173
aI70
aI91
aI73
aI29
aI74
aI241
aI18
aI29
aI75
aI41
aI23
aI352
aI323
aI385
aI187
aI216
aI199
aI252
aI176
aI464
aI81
aI172
aI70
aI144
aI74
aI114
aI84
asg29
(lp428
I69
aI428
aI73
aI286
aI360
aI49
aI172
aI75
aI464
aI159
aI70
aI10
aI368
aI203
aI126
aI70
aI111
aI438
aI464
aI217
aI86
aI91
aI45
aI77
aI13
aI113
aI342
aI67
aI5
aI47
asg31
(lp429
I424
aI448
aI32
aI417
aI29
aI31
aI116
aI323
aI71
aI211
aI350
aI27
aI236
aI168
aI353
aI314
aI31
aI307
aI76
aI302
aI19
aI77
aI68
aI86
aI25
aI29
aI464
aI72
aI188
aI171
asg33
(lp430
I144
aI430
aI170
aI433
aI456
aI464
aI69
aI347
aI443
aI464
aI128
aI216
aI81
aI77
aI173
aI71
aI409
aI450
aI117
aI67
aI29
aI131
aI9
aI91
aI92
aI62
aI110
aI70
aI16
aI211
asg35
(lp431
I220
aI286
aI104
aI35
aI187
aI446
aI118
aI464
aI279
aI464
aI143
aI368
aI91
aI29
aI75
aI300
aI251
aI415
aI59
aI117
aI71
aI74
aI225
aI142
aI41
aI75
aI77
aI179
aI190
aI25
asg37
(lp432
I53
aI11
aI15
aI464
aI245
aI193
aI77
aI183
aI133
aI94
aI464
aI447
aI282
aI69
aI72
aI17
aI464
aI19
aI21
aI37
aI41
aI69
aI95
aI159
aI258
aI129
aI243
aI116
aI70
aI430
asg39
(lp433
I76
aI422
aI401
aI69
aI91
aI464
aI464
aI35
aI8
aI134
aI142
aI10
aI75
aI100
aI123
aI464
aI99
aI267
aI272
aI312
aI87
aI271
aI93
aI163
aI77
aI9
aI51
aI63
aI95
aI91
asg41
(lp434
I138
aI331
aI71
aI213
aI19
aI91
aI18
aI27
aI320
aI73
aI103
aI307
aI77
aI282
aI201
aI19
aI72
aI25
aI110
aI438
aI18
aI12
aI285
aI52
aI91
aI96
aI72
aI70
aI42
aI70
asg43
(lp435
I69
aI23
aI340
aI22
aI20
aI78
aI233
aI33
aI212
aI320
aI432
aI133
aI266
aI410
aI67
aI262
aI424
aI41
aI7
aI9
aI152
aI62
aI92
aI135
aI95
aI242
aI95
aI77
aI113
aI47
asg45
(lp436
I163
aI464
aI61
aI464
aI29
aI268
aI161
aI72
aI464
aI316
aI31
aI158
aI124
aI139
aI257
aI117
aI228
aI17
aI380
aI96
aI75
aI20
aI109
aI105
aI179
aI116
aI199
aI138
aI21
aI149
assS'30'
p437
(dp438
S'11'
p439
(lp440
I99
aI246
aI464
aI464
aI423
aI14
aI464
aI464
aI97
aI464
aI74
aI20
aI88
aI146
aI22
aI386
aI77
aI366
aI118
aI420
aI128
aI23
aI73
aI90
aI215
aI19
aI69
aI177
aI19
aI175
asS'10'
p441
(lp442
I464
aI70
aI37
aI464
aI71
aI144
aI70
aI356
aI138
aI312
aI18
aI188
aI165
aI49
aI144
aI208
aI62
aI191
aI464
aI464
aI428
aI20
aI169
aI33
aI73
aI275
aI92
aI145
aI209
aI77
asS'13'
p443
(lp444
I161
aI143
aI29
aI29
aI464
aI388
aI200
aI174
aI25
aI464
aI16
aI421
aI25
aI173
aI417
aI19
aI274
aI18
aI257
aI74
aI101
aI69
aI138
aI248
aI165
aI69
aI139
aI70
aI5
aI94
asS'12'
p445
(lp446
I17
aI77
aI423
aI96
aI310
aI72
aI182
aI356
aI363
aI73
aI74
aI20
aI455
aI221
aI70
aI2
aI393
aI449
aI143
aI80
aI116
aI0
aI1
aI19
aI25
aI82
aI70
aI92
aI121
aI69
asS'15'
p447
(lp448
I386
aI124
aI73
aI464
aI433
aI337
aI311
aI73
aI284
aI363
aI77
aI118
aI29
aI232
aI234
aI247
aI147
aI72
aI21
aI290
aI382
aI153
aI72
aI16
aI464
aI123
aI82
aI141
aI195
aI218
asS'14'
p449
(lp450
I118
aI283
aI285
aI139
aI154
aI288
aI43
aI18
aI74
aI40
aI70
aI323
aI74
aI77
aI146
aI73
aI211
aI310
aI168
aI280
aI176
aI33
aI135
aI464
aI29
aI82
aI411
aI464
aI131
aI138
asS'17'
p451
(lp452
I99
aI81
aI464
aI272
aI20
aI201
aI464
aI23
aI345
aI220
aI30
aI199
aI464
aI402
aI68
aI124
aI18
aI237
aI437
aI309
aI464
aI411
aI120
aI41
aI70
aI76
aI77
aI74
aI91
aI138
asS'16'
p453
(lp454
I303
aI34
aI464
aI156
aI71
aI188
aI10
aI147
aI131
aI174
aI95
aI144
aI464
aI79
aI23
aI91
aI74
aI27
aI168
aI98
aI50
aI91
aI77
aI134
aI73
aI464
aI237
aI218
aI69
aI68
asS'19'
p455
(lp456
I161
aI18
aI190
aI464
aI464
aI84
aI233
aI408
aI406
aI183
aI19
aI107
aI145
aI217
aI47
aI464
aI62
aI74
aI167
aI377
aI196
aI246
aI115
aI94
aI68
aI95
aI18
aI60
aI91
aI18
asS'18'
p457
(lp458
I53
aI19
aI58
aI464
aI170
aI211
aI149
aI74
aI339
aI73
aI238
aI218
aI80
aI455
aI147
aI39
aI19
aI278
aI174
aI91
aI82
aI16
aI229
aI165
aI71
aI69
aI69
aI106
aI117
aI179
asg27
(lp459
I69
aI464
aI1
aI464
aI198
aI191
aI149
aI395
aI101
aI171
aI71
aI127
aI190
aI416
aI206
aI464
aI464
aI464
aI464
aI247
aI382
aI54
aI231
aI0
aI2
aI41
aI161
aI91
aI108
aI115
asg29
(lp460
I25
aI354
aI145
aI289
aI35
aI464
aI27
aI131
aI445
aI409
aI18
aI265
aI211
aI327
aI299
aI62
aI76
aI58
aI4
aI24
aI77
aI49
aI92
aI94
aI363
aI76
aI88
aI82
aI85
aI72
asg31
(lp461
I220
aI438
aI190
aI76
aI228
aI171
aI221
aI464
aI69
aI464
aI152
aI6
aI74
aI5
aI188
aI210
aI322
aI315
aI16
aI464
aI92
aI94
aI25
aI94
aI56
aI52
aI47
aI8
aI87
aI53
asg33
(lp462
I48
aI464
aI219
aI247
aI464
aI438
aI4
aI464
aI463
aI25
aI28
aI364
aI201
aI224
aI289
aI29
aI114
aI51
aI215
aI61
aI92
aI85
aI69
aI70
aI404
aI273
aI18
aI74
aI73
aI71
asg35
(lp463
I146
aI464
aI194
aI211
aI24
aI120
aI432
aI92
aI228
aI170
aI324
aI297
aI70
aI178
aI122
aI311
aI313
aI101
aI464
aI0
aI238
aI143
aI25
aI1
aI2
aI18
aI192
aI23
aI28
aI19
asg37
(lp464
I74
aI47
aI212
aI388
aI72
aI351
aI33
aI372
aI261
aI357
aI12
aI138
aI318
aI80
aI107
aI255
aI406
aI223
aI151
aI146
aI464
aI77
aI81
aI91
aI7
aI92
aI94
aI95
aI63
aI48
asg39
(lp465
I197
aI210
aI306
aI172
aI158
aI408
aI98
aI292
aI149
aI19
aI230
aI432
aI293
aI464
aI350
aI70
aI464
aI156
aI464
aI233
aI117
aI150
aI37
aI101
aI146
aI76
aI138
aI188
aI72
aI203
asg41
(lp466
I420
aI19
aI209
aI18
aI147
aI464
aI388
aI50
aI427
aI172
aI251
aI432
aI5
aI70
aI26
aI76
aI179
aI228
aI127
aI457
aI94
aI212
aI56
aI138
aI124
aI138
aI70
aI194
aI174
aI67
asg43
(lp467
I266
aI76
aI169
aI315
aI126
aI464
aI74
aI144
aI22
aI60
aI131
aI70
aI310
aI262
aI62
aI106
aI458
aI147
aI347
aI311
aI101
aI72
aI80
aI177
aI464
aI344
aI227
aI207
aI221
aI150
asg45
(lp468
I134
aI17
aI464
aI95
aI433
aI384
aI176
aI72
aI127
aI72
aI63
aI356
aI438
aI72
aI73
aI19
aI74
aI267
aI464
aI353
aI69
aI5
aI95
aI91
aI47
aI72
aI173
aI152
aI80
aI50
assS'50'
p469
(dp470
S'11'
p471
(lp472
I72
aI79
aI33
aI186
aI37
aI63
aI70
aI71
aI167
aI324
aI131
aI190
aI72
aI381
aI216
aI190
aI418
aI129
aI336
aI21
aI115
aI18
aI91
aI70
aI22
aI73
aI286
aI24
aI89
aI19
asS'10'
p473
(lp474
I70
aI32
aI81
aI81
aI19
aI46
aI438
aI275
aI464
aI276
aI259
aI36
aI446
aI433
aI1
aI134
aI151
aI21
aI17
aI464
aI153
aI213
aI133
aI2
aI196
aI0
aI70
aI121
aI334
aI71
asS'13'
p475
(lp476
I417
aI129
aI38
aI69
aI5
aI168
aI36
aI11
aI70
aI367
aI348
aI143
aI142
aI72
aI200
aI464
aI204
aI147
aI206
aI23
aI48
aI53
aI95
aI49
aI94
aI47
aI76
aI51
aI86
aI91
asS'12'
p477
(lp478
I296
aI63
aI464
aI63
aI170
aI23
aI461
aI13
aI432
aI116
aI388
aI28
aI71
aI27
aI168
aI315
aI45
aI372
aI21
aI91
aI47
aI148
aI376
aI219
aI147
aI126
aI69
aI133
aI18
aI138
asS'15'
p479
(lp480
I244
aI150
aI74
aI76
aI139
aI72
aI19
aI35
aI237
aI81
aI23
aI81
aI464
aI162
aI12
aI453
aI441
aI371
aI29
aI70
aI49
aI77
aI85
aI63
aI342
aI56
aI91
aI47
aI52
aI87
asS'14'
p481
(lp482
I365
aI464
aI464
aI280
aI97
aI213
aI464
aI316
aI464
aI228
aI41
aI250
aI75
aI0
aI18
aI346
aI464
aI352
aI194
aI464
aI69
aI236
aI1
aI2
aI73
aI33
aI169
aI73
aI136
aI70
asS'17'
p483
(lp484
I437
aI129
aI333
aI197
aI457
aI158
aI6
aI285
aI126
aI75
aI28
aI56
aI70
aI464
aI387
aI48
aI178
aI149
aI453
aI73
aI95
aI86
aI63
aI94
aI124
aI77
aI12
aI93
aI93
aI50
asS'16'
p485
(lp486
I184
aI144
aI36
aI19
aI438
aI30
aI432
aI121
aI64
aI191
aI458
aI31
aI464
aI63
aI243
aI16
aI464
aI76
aI464
aI11
aI47
aI94
aI29
aI49
aI74
aI210
aI254
aI143
aI235
aI218
asS'19'
p487
(lp488
I378
aI71
aI38
aI134
aI121
aI421
aI73
aI464
aI138
aI464
aI70
aI266
aI464
aI380
aI14
aI24
aI177
aI389
aI164
aI49
aI70
aI248
aI28
aI239
aI136
aI70
aI143
aI32
aI76
aI75
asS'18'
p489
(lp490
I31
aI63
aI402
aI187
aI183
aI126
aI200
aI83
aI77
aI464
aI450
aI73
aI189
aI76
aI165
aI306
aI54
aI94
aI433
aI464
aI131
aI82
aI76
aI215
aI91
aI311
aI30
aI129
aI33
aI272
asg27
(lp491
I464
aI414
aI29
aI220
aI464
aI70
aI69
aI74
aI152
aI18
aI77
aI464
aI464
aI94
aI140
aI27
aI84
aI29
aI263
aI309
aI188
aI76
aI170
aI218
aI144
aI115
aI410
aI128
aI193
aI19
asg29
(lp492
I73
aI451
aI254
aI426
aI277
aI433
aI20
aI131
aI92
aI464
aI71
aI216
aI70
aI91
aI70
aI418
aI139
aI368
aI21
aI325
aI312
aI145
aI73
aI126
aI69
aI0
aI2
aI1
aI402
aI229
asg31
(lp493
I193
aI334
aI464
aI144
aI73
aI293
aI315
aI69
aI70
aI448
aI275
aI278
aI124
aI95
aI302
aI347
aI213
aI305
aI73
aI75
aI72
aI140
aI206
aI119
aI29
aI212
aI74
aI218
aI178
aI89
asg33
(lp494
I252
aI309
aI69
aI464
aI348
aI464
aI319
aI70
aI75
aI63
aI349
aI0
aI73
aI18
aI439
aI80
aI464
aI216
aI104
aI91
aI42
aI1
aI2
aI395
aI18
aI41
aI28
aI311
aI23
aI29
asg35
(lp495
I73
aI144
aI28
aI23
aI26
aI77
aI427
aI20
aI133
aI464
aI33
aI25
aI458
aI52
aI326
aI411
aI463
aI37
aI12
aI435
aI342
aI132
aI71
aI11
aI45
aI69
aI95
aI91
aI95
aI73
asg37
(lp496
I346
aI438
aI117
aI29
aI414
aI241
aI70
aI192
aI5
aI2
aI82
aI388
aI131
aI202
aI313
aI92
aI72
aI404
aI20
aI116
aI1
aI0
aI22
aI48
aI91
aI94
aI236
aI101
aI71
aI128
asg39
(lp497
I288
aI464
aI464
aI19
aI207
aI99
aI239
aI80
aI464
aI41
aI232
aI252
aI397
aI19
aI464
aI16
aI420
aI464
aI214
aI271
aI127
aI31
aI187
aI210
aI52
aI262
aI376
aI70
aI68
aI29
asg41
(lp498
I464
aI21
aI31
aI127
aI70
aI108
aI254
aI270
aI103
aI362
aI18
aI17
aI136
aI464
aI464
aI280
aI134
aI268
aI249
aI19
aI62
aI25
aI152
aI69
aI73
aI84
aI70
aI101
aI19
aI173
asg43
(lp499
I332
aI386
aI226
aI464
aI103
aI417
aI360
aI105
aI271
aI31
aI216
aI376
aI5
aI152
aI37
aI38
aI347
aI307
aI228
aI179
aI4
aI9
aI77
aI92
aI6
aI94
aI86
aI95
aI94
aI85
asg45
(lp500
I19
aI88
aI311
aI464
aI464
aI187
aI42
aI221
aI215
aI412
aI214
aI256
aI386
aI87
aI15
aI108
aI24
aI198
aI257
aI29
aI69
aI69
aI157
aI295
aI281
aI64
aI106
aI123
aI33
aI90
assS'40'
p501
(dp502
S'11'
p503
(lp504
I69
aI189
aI170
aI171
aI69
aI459
aI188
aI464
aI18
aI464
aI298
aI225
aI64
aI20
aI318
aI73
aI127
aI464
aI43
aI464
aI29
aI260
aI91
aI70
aI116
aI70
aI70
aI36
aI183
aI51
asS'10'
p505
(lp506
I112
aI174
aI129
aI339
aI331
aI33
aI72
aI464
aI55
aI320
aI464
aI75
aI464
aI460
aI179
aI464
aI70
aI464
aI32
aI102
aI74
aI76
aI71
aI212
aI456
aI249
aI92
aI121
aI148
aI70
asS'13'
p507
(lp508
I112
aI70
aI303
aI287
aI18
aI398
aI283
aI380
aI83
aI57
aI82
aI332
aI76
aI399
aI464
aI29
aI213
aI407
aI158
aI376
aI464
aI20
aI29
aI138
aI73
aI41
aI429
aI92
aI144
aI111
asS'12'
p509
(lp510
I185
aI142
aI342
aI404
aI53
aI186
aI67
aI328
aI212
aI73
aI319
aI401
aI309
aI129
aI60
aI225
aI60
aI134
aI27
aI74
aI199
aI281
aI5
aI94
aI4
aI85
aI92
aI5
aI47
aI95
asS'15'
p511
(lp512
I56
aI73
aI33
aI98
aI61
aI17
aI368
aI241
aI350
aI136
aI63
aI5
aI72
aI201
aI461
aI345
aI202
aI464
aI214
aI29
aI238
aI51
aI86
aI47
aI20
aI95
aI25
aI75
aI70
aI152
asS'14'
p513
(lp514
I108
aI280
aI464
aI77
aI222
aI464
aI1
aI138
aI356
aI335
aI127
aI146
aI427
aI149
aI69
aI374
aI60
aI135
aI77
aI75
aI128
aI8
aI0
aI236
aI2
aI87
aI15
aI53
aI133
aI114
asS'17'
p515
(lp516
I278
aI454
aI416
aI266
aI464
aI430
aI216
aI70
aI125
aI207
aI12
aI174
aI464
aI70
aI28
aI237
aI204
aI72
aI404
aI325
aI238
aI52
aI91
aI157
aI28
aI68
aI181
aI193
aI166
aI72
asS'16'
p517
(lp518
I285
aI36
aI105
aI71
aI134
aI203
aI77
aI121
aI82
aI94
aI464
aI464
aI69
aI266
aI464
aI69
aI28
aI369
aI42
aI328
aI18
aI168
aI153
aI139
aI32
aI195
aI176
aI21
aI193
aI198
asS'19'
p519
(lp520
I105
aI25
aI76
aI138
aI308
aI34
aI180
aI100
aI302
aI425
aI142
aI367
aI31
aI22
aI168
aI464
aI390
aI214
aI31
aI208
aI126
aI149
aI316
aI73
aI84
aI185
aI71
aI95
aI161
aI48
asS'18'
p521
(lp522
I366
aI72
aI74
aI127
aI464
aI74
aI205
aI213
aI356
aI143
aI244
aI370
aI333
aI72
aI213
aI91
aI179
aI41
aI18
aI230
aI169
aI61
aI70
aI141
aI172
aI308
aI133
aI285
aI373
aI78
asg27
(lp523
I370
aI270
aI464
aI37
aI340
aI20
aI80
aI216
aI63
aI194
aI350
aI188
aI464
aI289
aI76
aI103
aI193
aI295
aI464
aI136
aI257
aI91
aI256
aI149
aI65
aI315
aI75
aI174
aI129
aI19
asg29
(lp524
I457
aI435
aI115
aI104
aI464
aI147
aI172
aI111
aI16
aI213
aI368
aI464
aI231
aI29
aI42
aI28
aI138
aI298
aI380
aI227
aI135
aI73
aI80
aI255
aI464
aI216
aI31
aI74
aI131
aI81
asg31
(lp525
I70
aI105
aI77
aI436
aI33
aI69
aI259
aI464
aI370
aI464
aI73
aI398
aI137
aI18
aI464
aI293
aI186
aI298
aI107
aI9
aI51
aI29
aI95
aI138
aI199
aI5
aI91
aI81
aI48
aI457
asg33
(lp526
I158
aI149
aI373
aI75
aI379
aI242
aI337
aI167
aI83
aI464
aI299
aI29
aI23
aI300
aI91
aI205
aI464
aI281
aI58
aI464
aI172
aI82
aI21
aI117
aI70
aI392
aI63
aI125
aI144
aI22
asg35
(lp527
I82
aI37
aI77
aI464
aI56
aI75
aI118
aI460
aI423
aI447
aI449
aI41
aI20
aI352
aI155
aI145
aI81
aI146
aI464
aI66
aI72
aI32
aI183
aI201
aI90
aI28
aI109
aI315
aI29
aI216
asg37
(lp528
I190
aI457
aI324
aI217
aI464
aI355
aI213
aI289
aI167
aI29
aI376
aI19
aI464
aI118
aI374
aI464
aI124
aI95
aI138
aI73
aI294
aI91
aI70
aI77
aI143
aI28
aI118
aI404
aI77
aI109
asg39
(lp529
I464
aI378
aI92
aI97
aI205
aI464
aI84
aI381
aI9
aI75
aI77
aI76
aI392
aI161
aI255
aI211
aI202
aI70
aI29
aI193
aI25
aI67
aI19
aI91
aI346
aI69
aI72
aI77
aI214
aI68
asg41
(lp530
I12
aI18
aI126
aI386
aI212
aI464
aI464
aI333
aI26
aI416
aI298
aI194
aI123
aI159
aI203
aI6
aI464
aI464
aI255
aI151
aI45
aI52
aI94
aI91
aI84
aI21
aI143
aI96
aI31
aI141
asg43
(lp531
I464
aI464
aI70
aI464
aI210
aI21
aI156
aI401
aI23
aI44
aI69
aI396
aI29
aI127
aI28
aI274
aI214
aI107
aI218
aI282
aI22
aI24
aI45
aI91
aI24
aI72
aI126
aI271
aI28
aI142
asg45
(lp532
I464
aI118
aI24
aI12
aI464
aI464
aI422
aI18
aI248
aI361
aI18
aI189
aI93
aI464
aI147
aI265
aI464
aI173
aI202
aI124
aI52
aI8
aI87
aI91
aI53
aI432
aI382
aI305
aI19
aI23
asssS'sac_5'
p533
(dp534
S'60'
p535
(dp536
S'11'
p537
(lp538
I1
aI134
aI85
aI520
aI527
aI161
aI218
aI527
aI308
aI201
aI475
aI527
aI102
aI226
aI55
aI392
aI192
aI131
aI242
aI490
aI5
aI2
aI3
aI3
aI1
aI1
aI3
aI1
aI2
aI2
asS'10'
p539
(lp540
I80
aI119
aI105
aI527
aI420
aI79
aI243
aI44
aI93
aI458
aI95
aI26
aI3
aI254
aI527
aI527
aI3
aI422
aI517
aI17
aI2
aI446
aI1
aI3
aI1
aI2
aI3
aI2
aI1
aI2
asS'13'
p541
(lp542
I80
aI408
aI351
aI527
aI527
aI429
aI22
aI339
aI2
aI67
aI527
aI229
aI359
aI330
aI527
aI87
aI527
aI256
aI389
aI137
aI2
aI2
aI527
aI3
aI1
aI3
aI0
aI2
aI2
aI503
asS'12'
p543
(lp544
I452
aI67
aI527
aI153
aI527
aI82
aI83
aI320
aI426
aI466
aI220
aI246
aI527
aI253
aI527
aI363
aI527
aI527
aI63
aI220
aI15
aI395
aI218
aI105
aI74
aI101
aI24
aI27
aI17
aI191
asS'15'
p545
(lp546
I229
aI108
aI289
aI2
aI245
aI300
aI179
aI527
aI232
aI229
aI291
aI2
aI199
aI527
aI478
aI378
aI143
aI389
aI510
aI202
aI4
aI0
aI4
aI2
aI3
aI1
aI3
aI3
aI2
aI1
asS'14'
p547
(lp548
I245
aI2
aI223
aI198
aI282
aI77
aI90
aI328
aI73
aI55
aI527
aI415
aI339
aI202
aI301
aI225
aI54
aI203
aI479
aI255
aI3
aI1
aI3
aI2
aI9
aI1
aI2
aI3
aI527
aI1
asS'17'
p549
(lp550
I427
aI103
aI434
aI90
aI102
aI268
aI527
aI204
aI229
aI527
aI488
aI527
aI193
aI87
aI516
aI124
aI509
aI527
aI525
aI478
aI130
aI224
aI151
aI228
aI107
aI45
aI221
aI100
aI89
aI226
asS'16'
p551
(lp552
I339
aI176
aI491
aI105
aI109
aI509
aI499
aI380
aI143
aI467
aI121
aI247
aI178
aI273
aI76
aI173
aI54
aI272
aI219
aI12
aI24
aI33
aI16
aI190
aI118
aI196
aI14
aI190
aI74
aI195
asS'19'
p553
(lp554
I1
aI128
aI85
aI511
aI1
aI471
aI98
aI91
aI526
aI3
aI17
aI133
aI70
aI102
aI158
aI527
aI381
aI212
aI88
aI126
aI2
aI1
aI3
aI447
aI527
aI2
aI2
aI1
aI2
aI4
asS'18'
p555
(lp556
I358
aI303
aI527
aI479
aI93
aI428
aI266
aI505
aI76
aI422
aI201
aI1
aI527
aI127
aI98
aI360
aI322
aI213
aI202
aI230
aI1
aI2
aI3
aI527
aI3
aI2
aI3
aI446
aI1
aI2
asg27
(lp557
I109
aI284
aI264
aI85
aI273
aI62
aI527
aI419
aI521
aI91
aI439
aI458
aI8
aI463
aI224
aI34
aI193
aI59
aI440
aI72
aI527
aI7
aI9
aI94
aI444
aI85
aI208
aI103
aI219
aI99
asg29
(lp558
I125
aI390
aI3
aI209
aI285
aI486
aI295
aI304
aI378
aI527
aI64
aI67
aI73
aI215
aI227
aI527
aI56
aI274
aI248
aI386
aI4
aI1
aI2
aI1
aI2
aI1
aI3
aI6
aI2
aI3
asg31
(lp559
I527
aI276
aI315
aI100
aI462
aI474
aI513
aI141
aI102
aI247
aI136
aI502
aI192
aI527
aI500
aI480
aI83
aI29
aI49
aI296
aI80
aI213
aI99
aI25
aI235
aI47
aI218
aI228
aI238
aI98
asg33
(lp560
I330
aI80
aI259
aI55
aI108
aI527
aI460
aI264
aI223
aI439
aI505
aI257
aI489
aI484
aI527
aI218
aI1
aI446
aI331
aI527
aI3
aI2
aI3
aI5
aI2
aI4
aI527
aI1
aI3
aI1
asg35
(lp561
I473
aI130
aI236
aI76
aI51
aI527
aI447
aI404
aI85
aI345
aI442
aI113
aI123
aI527
aI527
aI365
aI368
aI354
aI101
aI56
aI53
aI83
aI64
aI219
aI49
aI84
aI84
aI54
aI209
aI178
asg37
(lp562
I1
aI85
aI527
aI493
aI111
aI249
aI527
aI188
aI527
aI303
aI527
aI1
aI247
aI527
aI527
aI305
aI212
aI499
aI91
aI1
aI5
aI3
aI1
aI1
aI2
aI3
aI527
aI3
aI3
aI4
asg39
(lp563
I208
aI527
aI80
aI238
aI53
aI527
aI419
aI527
aI454
aI237
aI199
aI203
aI422
aI13
aI276
aI268
aI82
aI80
aI255
aI1
aI1
aI3
aI3
aI2
aI2
aI1
aI6
aI2
aI1
aI3
asg41
(lp564
I431
aI2
aI3
aI527
aI256
aI255
aI526
aI175
aI102
aI30
aI246
aI394
aI527
aI57
aI332
aI203
aI388
aI241
aI73
aI426
aI3
aI527
aI3
aI1
aI2
aI2
aI3
aI1
aI2
aI3
asg43
(lp565
I527
aI211
aI334
aI197
aI149
aI399
aI404
aI202
aI131
aI400
aI440
aI87
aI299
aI297
aI25
aI63
aI261
aI287
aI527
aI229
aI87
aI1
aI3
aI2
aI2
aI447
aI1
aI4
aI2
aI0
asg45
(lp566
I114
aI42
aI169
aI63
aI464
aI279
aI258
aI466
aI101
aI527
aI437
aI127
aI178
aI37
aI224
aI423
aI447
aI418
aI2
aI527
aI3
aI3
aI5
aI2
aI3
aI3
aI1
aI4
aI2
aI4
assS'30'
p567
(dp568
S'11'
p569
(lp570
I527
aI527
aI105
aI251
aI361
aI223
aI229
aI3
aI262
aI20
aI147
aI203
aI292
aI71
aI98
aI68
aI79
aI456
aI213
aI174
aI1
aI3
aI4
aI2
aI3
aI1
aI3
aI6
aI1
aI2
asS'10'
p571
(lp572
I96
aI449
aI37
aI527
aI527
aI527
aI29
aI303
aI466
aI144
aI527
aI35
aI358
aI298
aI447
aI54
aI70
aI527
aI2
aI318
aI2
aI1
aI6
aI2
aI5
aI1
aI4
aI527
aI1
aI3
asS'13'
p573
(lp574
I485
aI101
aI3
aI246
aI432
aI212
aI220
aI64
aI293
aI527
aI527
aI2
aI1
aI91
aI100
aI100
aI527
aI1
aI129
aI413
aI4
aI2
aI447
aI2
aI1
aI2
aI0
aI2
aI2
aI2
asS'12'
p575
(lp576
I371
aI413
aI66
aI197
aI527
aI111
aI100
aI190
aI527
aI217
aI181
aI90
aI30
aI527
aI95
aI2
aI104
aI232
aI479
aI3
aI3
aI3
aI5
aI1
aI3
aI527
aI1
aI503
aI3
aI1
asS'15'
p577
(lp578
I203
aI527
aI166
aI100
aI527
aI231
aI264
aI317
aI53
aI267
aI2
aI216
aI450
aI345
aI494
aI129
aI288
aI310
aI515
aI393
aI1
aI2
aI2
aI3
aI1
aI3
aI527
aI3
aI3
aI2
asS'14'
p579
(lp580
I336
aI357
aI527
aI432
aI35
aI436
aI85
aI280
aI330
aI196
aI2
aI80
aI343
aI350
aI354
aI200
aI263
aI141
aI292
aI443
aI3
aI2
aI1
aI446
aI1
aI3
aI1
aI527
aI2
aI2
asS'17'
p581
(lp582
I126
aI96
aI360
aI527
aI464
aI395
aI363
aI527
aI229
aI2
aI223
aI19
aI517
aI95
aI212
aI252
aI527
aI527
aI90
aI51
aI1
aI3
aI4
aI4
aI3
aI527
aI1
aI1
aI6
aI2
asS'16'
p583
(lp584
I527
aI256
aI527
aI218
aI527
aI527
aI240
aI279
aI96
aI203
aI245
aI384
aI470
aI527
aI223
aI385
aI138
aI305
aI527
aI34
aI98
aI81
aI213
aI252
aI5
aI1
aI2
aI2
aI1
aI527
asS'19'
p585
(lp586
I294
aI191
aI19
aI159
aI354
aI152
aI244
aI157
aI523
aI128
aI448
aI398
aI272
aI209
aI489
aI107
aI79
aI350
aI527
aI216
aI192
aI238
aI63
aI99
aI79
aI175
aI132
aI364
aI346
aI212
asS'18'
p587
(lp588
I412
aI527
aI257
aI230
aI292
aI202
aI527
aI2
aI9
aI391
aI118
aI120
aI27
aI382
aI456
aI34
aI368
aI85
aI59
aI156
aI527
aI4
aI287
aI3
aI447
aI2
aI3
aI1
aI1
aI2
asg27
(lp589
I75
aI26
aI232
aI127
aI370
aI124
aI299
aI527
aI2
aI2
aI444
aI218
aI175
aI34
aI433
aI453
aI109
aI373
aI259
aI95
aI2
aI1
aI3
aI5
aI447
aI1
aI3
aI3
aI527
aI3
asg29
(lp590
I223
aI80
aI527
aI146
aI1
aI273
aI96
aI109
aI233
aI298
aI527
aI70
aI237
aI87
aI492
aI478
aI213
aI214
aI516
aI289
aI6
aI527
aI3
aI1
aI1
aI4
aI3
aI448
aI2
aI1
asg31
(lp591
I229
aI367
aI4
aI247
aI119
aI90
aI197
aI45
aI527
aI33
aI203
aI223
aI235
aI242
aI120
aI218
aI21
aI354
aI183
aI522
aI2
aI5
aI2
aI3
aI4
aI2
aI3
aI3
aI2
aI2
asg33
(lp592
I388
aI333
aI298
aI85
aI277
aI94
aI2
aI273
aI175
aI508
aI527
aI81
aI66
aI467
aI189
aI231
aI65
aI418
aI76
aI142
aI1
aI3
aI6
aI1
aI4
aI1
aI527
aI446
aI1
aI3
asg35
(lp593
I287
aI293
aI153
aI212
aI16
aI93
aI527
aI76
aI203
aI139
aI210
aI503
aI241
aI382
aI399
aI337
aI242
aI357
aI81
aI527
aI83
aI190
aI227
aI76
aI132
aI95
aI303
aI40
aI80
aI230
asg37
(lp594
I285
aI246
aI336
aI85
aI230
aI248
aI2
aI3
aI0
aI201
aI211
aI527
aI152
aI3
aI195
aI30
aI425
aI223
aI144
aI527
aI2
aI2
aI3
aI3
aI1
aI4
aI2
aI1
aI2
aI3
asg39
(lp595
I414
aI187
aI87
aI431
aI188
aI135
aI430
aI527
aI512
aI475
aI145
aI31
aI159
aI320
aI190
aI470
aI337
aI266
aI507
aI199
aI276
aI395
aI193
aI313
aI101
aI228
aI153
aI229
aI243
aI284
asg41
(lp596
I527
aI527
aI87
aI501
aI93
aI527
aI423
aI125
aI527
aI368
aI384
aI527
aI241
aI465
aI59
aI187
aI160
aI92
aI514
aI54
aI85
aI80
aI178
aI208
aI16
aI19
aI21
aI87
aI193
aI24
asg43
(lp597
I87
aI130
aI47
aI62
aI126
aI178
aI295
aI134
aI104
aI527
aI419
aI519
aI470
aI95
aI85
aI467
aI213
aI527
aI229
aI485
aI203
aI385
aI3
aI19
aI503
aI6
aI1
aI3
aI527
aI1
asg45
(lp598
I499
aI170
aI527
aI309
aI93
aI423
aI442
aI527
aI87
aI61
aI56
aI3
aI365
aI527
aI224
aI108
aI456
aI205
aI503
aI258
aI1
aI2
aI3
aI527
aI1
aI1
aI1
aI2
aI3
aI2
assS'50'
p599
(dp600
S'11'
p601
(lp602
I85
aI79
aI91
aI39
aI23
aI345
aI165
aI144
aI163
aI459
aI527
aI272
aI350
aI215
aI41
aI146
aI358
aI63
aI522
aI53
aI84
aI66
aI202
aI220
aI209
aI527
aI331
aI92
aI223
aI131
asS'10'
p603
(lp604
I527
aI178
aI527
aI223
aI91
aI248
aI24
aI219
aI46
aI175
aI527
aI272
aI340
aI527
aI339
aI527
aI127
aI35
aI110
aI504
aI83
aI22
aI31
aI30
aI189
aI137
aI19
aI192
aI16
aI190
asS'13'
p605
(lp606
I527
aI296
aI168
aI467
aI261
aI527
aI47
aI230
aI1
aI504
aI527
aI85
aI39
aI230
aI376
aI527
aI2
aI527
aI527
aI495
aI1
aI447
aI527
aI0
aI2
aI3
aI2
aI2
aI3
aI4
asS'12'
p607
(lp608
I412
aI489
aI214
aI235
aI340
aI34
aI152
aI230
aI527
aI478
aI432
aI470
aI242
aI166
aI105
aI309
aI89
aI97
aI527
aI105
aI90
aI3
aI3
aI2
aI4
aI448
aI3
aI4
aI2
aI527
asS'15'
p609
(lp610
I80
aI203
aI84
aI229
aI51
aI472
aI231
aI426
aI251
aI320
aI183
aI505
aI401
aI137
aI333
aI187
aI87
aI153
aI527
aI503
aI53
aI527
aI314
aI41
aI165
aI131
aI220
aI247
aI168
aI25
asS'14'
p611
(lp612
I527
aI527
aI485
aI203
aI85
aI300
aI93
aI214
aI25
aI235
aI2
aI38
aI158
aI424
aI298
aI189
aI475
aI527
aI75
aI527
aI145
aI1
aI1
aI2
aI2
aI2
aI2
aI3
aI2
aI0
asS'17'
p613
(lp614
I258
aI162
aI146
aI467
aI77
aI329
aI113
aI258
aI527
aI174
aI513
aI44
aI124
aI527
aI527
aI527
aI137
aI425
aI175
aI1
aI3
aI503
aI4
aI3
aI6
aI1
aI2
aI3
aI5
aI3
asS'16'
p615
(lp616
I196
aI271
aI176
aI203
aI330
aI2
aI361
aI296
aI114
aI31
aI84
aI314
aI211
aI423
aI527
aI211
aI511
aI134
aI70
aI220
aI3
aI1
aI2
aI0
aI2
aI2
aI3
aI2
aI1
aI3
asS'19'
p617
(lp618
I260
aI129
aI189
aI89
aI103
aI425
aI349
aI214
aI431
aI441
aI89
aI342
aI483
aI282
aI152
aI186
aI252
aI45
aI527
aI73
aI259
aI56
aI59
aI221
aI93
aI93
aI103
aI53
aI104
aI220
asS'18'
p619
(lp620
I432
aI423
aI158
aI315
aI74
aI403
aI522
aI258
aI120
aI5
aI31
aI25
aI2
aI331
aI15
aI465
aI394
aI52
aI527
aI359
aI1
aI446
aI2
aI2
aI3
aI1
aI1
aI6
aI2
aI4
asg27
(lp621
I90
aI34
aI275
aI527
aI122
aI136
aI449
aI308
aI209
aI405
aI79
aI2
aI2
aI527
aI3
aI151
aI132
aI527
aI231
aI70
aI2
aI6
aI447
aI3
aI1
aI1
aI1
aI3
aI1
aI2
asg29
(lp622
I527
aI110
aI322
aI293
aI527
aI240
aI208
aI214
aI1
aI175
aI285
aI381
aI48
aI71
aI331
aI250
aI90
aI228
aI81
aI64
aI1
aI527
aI3
aI1
aI2
aI527
aI1
aI2
aI2
aI3
asg31
(lp623
I169
aI483
aI291
aI432
aI24
aI449
aI2
aI41
aI229
aI345
aI1
aI95
aI323
aI420
aI101
aI378
aI177
aI214
aI527
aI59
aI3
aI3
aI7
aI527
aI1
aI1
aI3
aI6
aI1
aI2
asg33
(lp624
I3
aI220
aI299
aI527
aI321
aI436
aI83
aI306
aI1
aI323
aI241
aI161
aI251
aI357
aI352
aI31
aI138
aI99
aI527
aI91
aI2
aI2
aI448
aI2
aI1
aI2
aI1
aI4
aI1
aI3
asg35
(lp625
I273
aI527
aI291
aI313
aI527
aI1
aI426
aI192
aI409
aI483
aI3
aI440
aI428
aI215
aI234
aI410
aI212
aI101
aI395
aI361
aI3
aI3
aI4
aI2
aI1
aI2
aI3
aI5
aI1
aI3
asg37
(lp626
I527
aI410
aI109
aI495
aI99
aI446
aI85
aI527
aI527
aI30
aI228
aI417
aI107
aI56
aI110
aI461
aI243
aI31
aI473
aI198
aI345
aI320
aI118
aI19
aI192
aI21
aI196
aI20
aI192
aI24
asg39
(lp627
I2
aI434
aI219
aI21
aI388
aI527
aI462
aI57
aI107
aI527
aI489
aI527
aI91
aI88
aI456
aI112
aI84
aI504
aI85
aI30
aI3
aI1
aI2
aI5
aI1
aI446
aI3
aI3
aI1
aI2
asg41
(lp628
I105
aI527
aI229
aI242
aI527
aI21
aI226
aI527
aI155
aI78
aI141
aI318
aI527
aI69
aI467
aI3
aI42
aI276
aI219
aI310
aI1
aI527
aI2
aI0
aI2
aI2
aI3
aI5
aI2
aI503
asg43
(lp629
I353
aI451
aI142
aI186
aI143
aI232
aI331
aI267
aI1
aI227
aI427
aI483
aI24
aI307
aI527
aI527
aI411
aI235
aI527
aI246
aI211
aI2
aI2
aI4
aI1
aI2
aI3
aI1
aI527
aI448
asg45
(lp630
I53
aI385
aI24
aI231
aI477
aI51
aI309
aI355
aI527
aI464
aI486
aI475
aI281
aI193
aI3
aI527
aI346
aI90
aI327
aI209
aI167
aI5
aI4
aI6
aI3
aI1
aI2
aI1
aI2
aI4
assS'40'
p631
(dp632
S'11'
p633
(lp634
I481
aI517
aI190
aI200
aI2
aI161
aI331
aI63
aI4
aI479
aI375
aI367
aI527
aI102
aI77
aI357
aI214
aI498
aI203
aI63
aI1
aI3
aI6
aI2
aI3
aI1
aI2
aI3
aI2
aI447
asS'10'
p635
(lp636
I314
aI490
aI18
aI283
aI230
aI527
aI477
aI71
aI212
aI527
aI73
aI513
aI371
aI10
aI167
aI223
aI527
aI176
aI527
aI230
aI27
aI410
aI189
aI193
aI1
aI104
aI1
aI3
aI527
aI1
asS'13'
p637
(lp638
I63
aI207
aI333
aI194
aI527
aI420
aI229
aI246
aI313
aI84
aI527
aI311
aI100
aI202
aI84
aI527
aI527
aI249
aI104
aI188
aI97
aI60
aI315
aI241
aI66
aI222
aI177
aI203
aI212
aI28
asS'12'
p639
(lp640
I267
aI527
aI502
aI257
aI277
aI168
aI92
aI306
aI134
aI95
aI80
aI503
aI3
aI141
aI190
aI204
aI458
aI233
aI172
aI27
aI3
aI3
aI5
aI2
aI1
aI3
aI6
aI527
aI3
aI2
asS'15'
p641
(lp642
I93
aI79
aI527
aI442
aI491
aI527
aI471
aI29
aI452
aI527
aI53
aI440
aI45
aI388
aI81
aI68
aI248
aI527
aI190
aI527
aI248
aI2
aI527
aI446
aI352
aI3
aI2
aI3
aI3
aI5
asS'14'
p643
(lp644
I78
aI363
aI18
aI191
aI140
aI426
aI87
aI197
aI221
aI46
aI216
aI107
aI54
aI136
aI184
aI24
aI49
aI320
aI23
aI527
aI26
aI193
aI76
aI98
aI16
aI190
aI95
aI80
aI3
aI2
asS'17'
p645
(lp646
I527
aI201
aI232
aI102
aI322
aI290
aI527
aI74
aI527
aI27
aI216
aI354
aI527
aI389
aI472
aI385
aI394
aI202
aI178
aI332
aI17
aI191
aI10
aI20
aI182
aI189
aI21
aI192
aI93
aI427
asS'16'
p647
(lp648
I221
aI527
aI395
aI193
aI209
aI355
aI1
aI130
aI527
aI527
aI80
aI527
aI114
aI2
aI331
aI102
aI237
aI107
aI504
aI107
aI2
aI3
aI447
aI1
aI2
aI2
aI3
aI3
aI5
aI3
asS'19'
p649
(lp650
I308
aI315
aI430
aI382
aI189
aI192
aI268
aI143
aI2
aI411
aI374
aI527
aI303
aI158
aI527
aI417
aI378
aI527
aI527
aI291
aI3
aI6
aI2
aI527
aI3
aI2
aI0
aI2
aI3
aI1
asS'18'
p651
(lp652
I63
aI476
aI527
aI255
aI85
aI3
aI298
aI224
aI329
aI124
aI203
aI477
aI288
aI448
aI213
aI527
aI33
aI390
aI526
aI73
aI1
aI6
aI2
aI3
aI527
aI1
aI1
aI2
aI1
aI1
asg27
(lp653
I114
aI450
aI16
aI338
aI82
aI51
aI108
aI527
aI346
aI2
aI71
aI167
aI85
aI527
aI241
aI173
aI7
aI398
aI85
aI527
aI2
aI448
aI3
aI1
aI527
aI2
aI3
aI4
aI2
aI2
asg29
(lp654
I350
aI527
aI527
aI2
aI71
aI213
aI84
aI195
aI388
aI88
aI19
aI266
aI95
aI437
aI527
aI232
aI239
aI246
aI87
aI93
aI527
aI488
aI1
aI2
aI3
aI3
aI3
aI1
aI3
aI1
asg31
(lp655
I280
aI210
aI221
aI42
aI527
aI286
aI439
aI207
aI220
aI346
aI84
aI88
aI68
aI377
aI47
aI85
aI527
aI123
aI78
aI527
aI161
aI446
aI87
aI291
aI213
aI342
aI203
aI203
aI352
aI234
asg33
(lp656
I91
aI178
aI345
aI215
aI232
aI109
aI173
aI68
aI229
aI216
aI221
aI18
aI388
aI203
aI527
aI165
aI261
aI527
aI46
aI232
aI203
aI26
aI182
aI342
aI195
aI193
aI212
aI233
aI138
aI90
asg35
(lp657
I527
aI527
aI217
aI134
aI16
aI509
aI211
aI364
aI74
aI276
aI155
aI527
aI527
aI214
aI203
aI347
aI216
aI4
aI57
aI482
aI1
aI3
aI2
aI3
aI4
aI1
aI2
aI3
aI1
aI527
asg37
(lp658
I80
aI284
aI449
aI21
aI521
aI357
aI527
aI527
aI127
aI363
aI258
aI527
aI303
aI87
aI86
aI81
aI2
aI527
aI526
aI209
aI2
aI1
aI2
aI527
aI2
aI6
aI3
aI1
aI3
aI527
asg39
(lp659
I190
aI267
aI417
aI503
aI192
aI2
aI222
aI527
aI71
aI343
aI101
aI463
aI305
aI142
aI453
aI480
aI527
aI211
aI202
aI2
aI5
aI2
aI3
aI527
aI1
aI3
aI1
aI2
aI3
aI1
asg41
(lp660
I117
aI157
aI151
aI446
aI79
aI103
aI110
aI525
aI228
aI9
aI242
aI527
aI124
aI299
aI218
aI75
aI527
aI211
aI147
aI415
aI4
aI2
aI2
aI3
aI2
aI3
aI2
aI1
aI527
aI1
asg43
(lp661
I30
aI1
aI107
aI79
aI137
aI79
aI307
aI448
aI403
aI90
aI350
aI170
aI499
aI527
aI527
aI493
aI113
aI163
aI199
aI232
aI2
aI1
aI527
aI2
aI3
aI4
aI1
aI2
aI1
aI2
asg45
(lp662
I489
aI527
aI247
aI42
aI495
aI107
aI527
aI255
aI421
aI320
aI527
aI466
aI142
aI349
aI224
aI16
aI173
aI476
aI395
aI282
aI85
aI26
aI24
aI19
aI27
aI22
aI30
aI351
aI196
aI195
asssS'sac_4'
p663
(dp664
S'60'
p665
(dp666
S'11'
p667
(lp668
I11
aI30
aI6
aI12
aI16
aI56
aI23
aI120
aI26
aI20
aI17
aI22
aI21
aI27
aI75
aI22
aI7
aI6
aI17
aI12
aI28
aI14
aI7
aI20
aI9
aI8
aI4
aI13
aI16
aI3
asS'10'
p669
(lp670
I16
aI14
aI325
aI13
aI13
aI16
aI34
aI95
aI11
aI22
aI22
aI51
aI31
aI43
aI8
aI12
aI45
aI26
aI11
aI31
aI19
aI14
aI94
aI17
aI32
aI11
aI12
aI15
aI8
aI6
asS'13'
p671
(lp672
I12
aI18
aI20
aI50
aI11
aI14
aI7
aI14
aI17
aI79
aI52
aI52
aI13
aI52
aI18
aI18
aI16
aI33
aI10
aI14
aI12
aI6
aI5
aI6
aI12
aI15
aI7
aI6
aI13
aI11
asS'12'
p673
(lp674
I12
aI16
aI7
aI11
aI16
aI28
aI15
aI19
aI11
aI40
aI48
aI26
aI18
aI16
aI313
aI31
aI15
aI29
aI15
aI13
aI5
aI27
aI10
aI5
aI18
aI8
aI10
aI13
aI4
aI4
asS'15'
p675
(lp676
I320
aI16
aI7
aI279
aI26
aI377
aI12
aI17
aI16
aI9
aI16
aI16
aI14
aI9
aI64
aI7
aI13
aI14
aI53
aI17
aI11
aI8
aI18
aI10
aI17
aI11
aI17
aI3
aI16
aI14
asS'14'
p677
(lp678
I16
aI18
aI17
aI74
aI197
aI11
aI58
aI73
aI207
aI17
aI24
aI20
aI12
aI17
aI5
aI9
aI31
aI4
aI12
aI18
aI2
aI15
aI1
aI3
aI4
aI19
aI7
aI5
aI31
aI13
asS'17'
p679
(lp680
I13
aI14
aI20
aI16
aI26
aI52
aI22
aI12
aI12
aI5
aI4
aI14
aI74
aI18
aI14
aI12
aI9
aI12
aI17
aI15
aI7
aI7
aI13
aI1
aI6
aI10
aI6
aI204
aI2
aI10
asS'16'
p681
(lp682
I14
aI17
aI16
aI23
aI35
aI14
aI19
aI80
aI13
aI5
aI1
aI11
aI52
aI36
aI22
aI22
aI49
aI29
aI14
aI27
aI7
aI12
aI18
aI6
aI5
aI19
aI8
aI13
aI18
aI8
asS'19'
p683
(lp684
I236
aI11
aI23
aI125
aI23
aI11
aI38
aI184
aI12
aI22
aI14
aI208
aI8
aI124
aI17
aI18
aI240
aI24
aI10
aI20
aI14
aI22
aI13
aI15
aI15
aI11
aI8
aI21
aI10
aI14
asS'18'
p685
(lp686
I66
aI126
aI9
aI12
aI217
aI18
aI63
aI14
aI16
aI19
aI12
aI8
aI10
aI21
aI88
aI294
aI19
aI19
aI23
aI16
aI15
aI10
aI13
aI15
aI9
aI30
aI6
aI9
aI13
aI7
asg27
(lp687
I14
aI13
aI29
aI20
aI11
aI2
aI202
aI46
aI19
aI18
aI35
aI14
aI52
aI15
aI17
aI12
aI2
aI170
aI18
aI18
aI6
aI5
aI17
aI3
aI3
aI4
aI2
aI13
aI3
aI13
asg29
(lp688
I14
aI15
aI56
aI48
aI40
aI18
aI15
aI15
aI280
aI23
aI46
aI15
aI14
aI21
aI18
aI8
aI110
aI3
aI19
aI12
aI5
aI23
aI4
aI10
aI1
aI12
aI10
aI7
aI5
aI7
asg31
(lp689
I12
aI22
aI14
aI95
aI32
aI14
aI9
aI8
aI15
aI10
aI18
aI5
aI27
aI17
aI126
aI14
aI19
aI11
aI15
aI4
aI18
aI17
aI3
aI11
aI4
aI2
aI3
aI4
aI4
aI10
asg33
(lp690
I251
aI39
aI3
aI15
aI13
aI18
aI24
aI16
aI17
aI12
aI92
aI14
aI22
aI10
aI13
aI6
aI20
aI14
aI9
aI21
aI5
aI5
aI3
aI4
aI3
aI13
aI11
aI5
aI40
aI1
asg35
(lp691
I9
aI14
aI35
aI327
aI14
aI13
aI14
aI13
aI19
aI48
aI14
aI43
aI15
aI17
aI13
aI17
aI13
aI26
aI17
aI14
aI2
aI93
aI4
aI2
aI8
aI12
aI1
aI2
aI3
aI4
asg37
(lp692
I15
aI6
aI12
aI7
aI300
aI14
aI7
aI26
aI52
aI4
aI23
aI12
aI13
aI31
aI15
aI52
aI60
aI25
aI10
aI22
aI1
aI5
aI5
aI4
aI2
aI1
aI10
aI2
aI3
aI18
asg39
(lp693
I12
aI11
aI14
aI16
aI318
aI15
aI124
aI13
aI14
aI21
aI14
aI61
aI16
aI13
aI29
aI38
aI17
aI288
aI14
aI13
aI14
aI22
aI21
aI16
aI5
aI5
aI5
aI5
aI14
aI5
asg41
(lp694
I12
aI44
aI139
aI15
aI10
aI302
aI23
aI27
aI17
aI23
aI235
aI20
aI17
aI8
aI16
aI30
aI23
aI20
aI1
aI36
aI5
aI5
aI14
aI9
aI12
aI6
aI13
aI2
aI4
aI5
asg43
(lp695
I13
aI36
aI16
aI61
aI23
aI14
aI12
aI12
aI15
aI9
aI50
aI13
aI340
aI16
aI23
aI22
aI14
aI16
aI11
aI9
aI13
aI19
aI19
aI13
aI11
aI8
aI16
aI20
aI10
aI12
asg45
(lp696
I363
aI17
aI14
aI115
aI17
aI145
aI155
aI15
aI233
aI22
aI98
aI15
aI22
aI21
aI8
aI46
aI8
aI19
aI4
aI10
aI41
aI22
aI6
aI10
aI0
aI2
aI3
aI4
aI5
aI3
assS'30'
p697
(dp698
S'11'
p699
(lp700
I50
aI113
aI9
aI9
aI118
aI320
aI49
aI10
aI129
aI14
aI13
aI13
aI64
aI18
aI15
aI16
aI18
aI49
aI5
aI21
aI19
aI20
aI32
aI7
aI8
aI15
aI16
aI13
aI12
aI14
asS'10'
p701
(lp702
I14
aI14
aI30
aI24
aI10
aI18
aI25
aI20
aI17
aI13
aI12
aI25
aI15
aI31
aI50
aI8
aI8
aI25
aI218
aI8
aI8
aI18
aI48
aI12
aI9
aI5
aI8
aI7
aI3
aI4
asS'13'
p703
(lp704
I15
aI3
aI15
aI11
aI24
aI15
aI11
aI13
aI15
aI46
aI20
aI14
aI41
aI13
aI11
aI101
aI17
aI17
aI16
aI6
aI3
aI5
aI7
aI7
aI2
aI7
aI4
aI0
aI4
aI3
asS'12'
p705
(lp706
I14
aI11
aI18
aI19
aI28
aI12
aI101
aI21
aI13
aI18
aI18
aI18
aI50
aI25
aI22
aI22
aI48
aI29
aI13
aI23
aI12
aI14
aI16
aI21
aI78
aI19
aI13
aI8
aI7
aI7
asS'15'
p707
(lp708
I29
aI336
aI18
aI16
aI15
aI14
aI15
aI6
aI14
aI16
aI14
aI329
aI6
aI25
aI369
aI15
aI31
aI14
aI7
aI8
aI37
aI23
aI11
aI6
aI28
aI15
aI10
aI17
aI12
aI16
asS'14'
p709
(lp710
I50
aI4
aI52
aI22
aI6
aI16
aI171
aI10
aI25
aI29
aI20
aI215
aI15
aI16
aI27
aI77
aI11
aI57
aI7
aI12
aI2
aI3
aI17
aI14
aI3
aI4
aI4
aI3
aI0
aI1
asS'17'
p711
(lp712
I142
aI19
aI23
aI16
aI297
aI19
aI21
aI18
aI12
aI17
aI22
aI4
aI9
aI13
aI28
aI7
aI13
aI12
aI24
aI13
aI10
aI3
aI11
aI9
aI3
aI4
aI2
aI4
aI6
aI4
asS'16'
p713
(lp714
I22
aI15
aI14
aI17
aI8
aI18
aI63
aI12
aI18
aI111
aI17
aI357
aI11
aI15
aI13
aI13
aI11
aI191
aI14
aI18
aI11
aI12
aI14
aI9
aI12
aI15
aI9
aI7
aI12
aI7
asS'19'
p715
(lp716
I18
aI29
aI13
aI19
aI18
aI54
aI18
aI13
aI20
aI16
aI14
aI17
aI15
aI31
aI21
aI30
aI16
aI9
aI14
aI52
aI14
aI8
aI14
aI9
aI16
aI4
aI15
aI2
aI4
aI7
asS'18'
p717
(lp718
I22
aI14
aI20
aI13
aI12
aI3
aI12
aI23
aI191
aI8
aI12
aI29
aI16
aI18
aI19
aI17
aI15
aI92
aI12
aI6
aI7
aI0
aI3
aI1
aI7
aI3
aI2
aI3
aI10
aI5
asg27
(lp719
I17
aI372
aI13
aI13
aI16
aI211
aI22
aI7
aI23
aI20
aI48
aI17
aI15
aI8
aI15
aI17
aI14
aI24
aI10
aI29
aI18
aI7
aI12
aI13
aI10
aI9
aI7
aI15
aI10
aI8
asg29
(lp720
I14
aI32
aI15
aI23
aI11
aI310
aI31
aI23
aI18
aI17
aI16
aI30
aI11
aI28
aI11
aI13
aI15
aI19
aI336
aI31
aI61
aI25
aI8
aI16
aI4
aI17
aI24
aI7
aI15
aI14
asg31
(lp721
I20
aI29
aI14
aI16
aI11
aI13
aI13
aI24
aI50
aI31
aI13
aI35
aI31
aI16
aI15
aI11
aI4
aI30
aI31
aI17
aI21
aI13
aI3
aI4
aI3
aI8
aI41
aI0
aI2
aI4
asg33
(lp722
I29
aI17
aI9
aI14
aI16
aI13
aI12
aI31
aI12
aI11
aI24
aI10
aI14
aI23
aI305
aI20
aI30
aI82
aI26
aI124
aI9
aI7
aI20
aI18
aI5
aI10
aI5
aI5
aI21
aI17
asg35
(lp723
I18
aI169
aI10
aI18
aI60
aI13
aI6
aI22
aI28
aI20
aI31
aI28
aI34
aI25
aI16
aI29
aI20
aI15
aI14
aI16
aI15
aI18
aI17
aI16
aI15
aI51
aI16
aI35
aI8
aI18
asg37
(lp724
I18
aI27
aI14
aI22
aI13
aI16
aI12
aI16
aI14
aI26
aI17
aI17
aI16
aI10
aI6
aI14
aI15
aI15
aI12
aI16
aI44
aI6
aI357
aI9
aI46
aI12
aI5
aI12
aI25
aI14
asg39
(lp725
I324
aI19
aI13
aI330
aI19
aI22
aI15
aI25
aI202
aI61
aI16
aI23
aI13
aI16
aI18
aI14
aI16
aI18
aI14
aI10
aI29
aI13
aI12
aI16
aI8
aI12
aI9
aI7
aI8
aI13
asg41
(lp726
I22
aI28
aI20
aI15
aI14
aI13
aI9
aI16
aI24
aI298
aI14
aI18
aI24
aI12
aI217
aI19
aI28
aI12
aI12
aI14
aI15
aI18
aI7
aI7
aI10
aI46
aI13
aI11
aI11
aI12
asg43
(lp727
I16
aI13
aI4
aI29
aI12
aI17
aI21
aI3
aI150
aI29
aI13
aI13
aI11
aI20
aI61
aI19
aI13
aI72
aI13
aI124
aI20
aI22
aI52
aI17
aI14
aI13
aI4
aI8
aI9
aI7
asg45
(lp728
I50
aI48
aI15
aI10
aI26
aI50
aI64
aI189
aI12
aI27
aI14
aI19
aI22
aI7
aI67
aI14
aI15
aI86
aI371
aI7
aI37
aI27
aI18
aI8
aI12
aI14
aI7
aI37
aI13
aI22
assS'50'
p729
(dp730
S'11'
p731
(lp732
I1
aI13
aI13
aI13
aI14
aI12
aI13
aI15
aI13
aI18
aI25
aI28
aI14
aI11
aI11
aI50
aI16
aI28
aI24
aI14
aI13
aI5
aI2
aI4
aI14
aI2
aI0
aI3
aI3
aI2
asS'10'
p733
(lp734
I17
aI15
aI12
aI3
aI17
aI6
aI19
aI12
aI27
aI12
aI12
aI178
aI4
aI376
aI35
aI14
aI14
aI24
aI20
aI28
aI4
aI7
aI4
aI1
aI2
aI2
aI3
aI4
aI0
aI3
asS'13'
p735
(lp736
I15
aI14
aI36
aI28
aI11
aI20
aI267
aI31
aI14
aI14
aI37
aI17
aI25
aI10
aI22
aI136
aI51
aI106
aI16
aI12
aI10
aI10
aI15
aI15
aI11
aI12
aI10
aI14
aI22
aI11
asS'12'
p737
(lp738
I36
aI12
aI17
aI19
aI22
aI16
aI12
aI20
aI122
aI13
aI213
aI27
aI13
aI18
aI13
aI15
aI48
aI282
aI13
aI351
aI8
aI31
aI9
aI14
aI8
aI9
aI8
aI24
aI11
aI8
asS'15'
p739
(lp740
I27
aI52
aI12
aI16
aI13
aI18
aI52
aI17
aI28
aI18
aI15
aI17
aI14
aI250
aI28
aI15
aI19
aI35
aI13
aI5
aI23
aI14
aI17
aI14
aI11
aI10
aI7
aI7
aI14
aI11
asS'14'
p741
(lp742
I20
aI161
aI16
aI8
aI14
aI307
aI16
aI234
aI22
aI19
aI21
aI12
aI12
aI20
aI8
aI25
aI13
aI6
aI19
aI27
aI22
aI11
aI24
aI16
aI16
aI5
aI16
aI4
aI2
aI5
asS'17'
p743
(lp744
I50
aI20
aI22
aI71
aI17
aI18
aI14
aI19
aI237
aI12
aI16
aI21
aI17
aI35
aI13
aI13
aI12
aI17
aI13
aI24
aI92
aI12
aI17
aI18
aI15
aI20
aI16
aI9
aI9
aI12
asS'16'
p745
(lp746
I15
aI19
aI8
aI9
aI15
aI55
aI76
aI11
aI19
aI14
aI16
aI17
aI163
aI14
aI15
aI124
aI3
aI11
aI9
aI14
aI14
aI6
aI10
aI3
aI1
aI4
aI3
aI43
aI4
aI15
asS'19'
p747
(lp748
I18
aI15
aI18
aI59
aI18
aI14
aI12
aI15
aI18
aI24
aI16
aI15
aI14
aI20
aI186
aI3
aI9
aI13
aI8
aI9
aI4
aI1
aI14
aI5
aI10
aI3
aI9
aI5
aI7
aI4
asS'18'
p749
(lp750
I355
aI12
aI15
aI14
aI17
aI12
aI22
aI21
aI250
aI14
aI14
aI51
aI16
aI17
aI11
aI15
aI50
aI12
aI18
aI16
aI21
aI13
aI19
aI15
aI12
aI11
aI19
aI31
aI8
aI112
asg27
(lp751
I20
aI56
aI14
aI22
aI27
aI45
aI60
aI31
aI124
aI18
aI13
aI5
aI5
aI14
aI3
aI7
aI11
aI14
aI15
aI15
aI2
aI1
aI24
aI10
aI4
aI4
aI3
aI3
aI10
aI3
asg29
(lp752
I16
aI27
aI14
aI15
aI18
aI24
aI0
aI100
aI18
aI29
aI13
aI20
aI13
aI23
aI12
aI8
aI34
aI14
aI55
aI30
aI15
aI8
aI4
aI3
aI5
aI10
aI12
aI4
aI1
aI4
asg31
(lp753
I302
aI26
aI49
aI96
aI86
aI16
aI21
aI15
aI27
aI14
aI17
aI10
aI9
aI12
aI42
aI56
aI14
aI13
aI18
aI24
aI5
aI22
aI4
aI6
aI11
aI10
aI3
aI6
aI10
aI0
asg33
(lp754
I16
aI8
aI51
aI14
aI14
aI15
aI7
aI12
aI17
aI79
aI28
aI139
aI16
aI21
aI12
aI17
aI12
aI31
aI15
aI11
aI14
aI15
aI10
aI13
aI15
aI12
aI7
aI17
aI15
aI14
asg35
(lp755
I17
aI18
aI46
aI61
aI9
aI16
aI31
aI23
aI23
aI26
aI23
aI22
aI17
aI25
aI29
aI24
aI17
aI23
aI5
aI13
aI19
aI111
aI11
aI16
aI8
aI19
aI8
aI15
aI273
aI13
asg37
(lp756
I14
aI47
aI31
aI32
aI7
aI161
aI29
aI14
aI185
aI22
aI10
aI9
aI9
aI15
aI21
aI13
aI17
aI5
aI13
aI22
aI2
aI18
aI5
aI0
aI4
aI14
aI2
aI1
aI1
aI12
asg39
(lp757
I15
aI49
aI10
aI13
aI33
aI17
aI17
aI11
aI51
aI17
aI79
aI16
aI13
aI14
aI122
aI17
aI19
aI23
aI367
aI49
aI22
aI11
aI6
aI15
aI14
aI86
aI12
aI19
aI5
aI15
asg41
(lp758
I8
aI4
aI13
aI25
aI12
aI83
aI18
aI4
aI27
aI18
aI17
aI33
aI8
aI16
aI17
aI19
aI9
aI22
aI31
aI13
aI4
aI4
aI0
aI3
aI15
aI16
aI2
aI12
aI4
aI0
asg43
(lp759
I15
aI14
aI12
aI12
aI12
aI18
aI86
aI23
aI10
aI28
aI14
aI63
aI20
aI364
aI48
aI13
aI10
aI13
aI13
aI14
aI18
aI11
aI19
aI19
aI14
aI12
aI14
aI14
aI9
aI23
asg45
(lp760
I22
aI22
aI12
aI17
aI14
aI8
aI30
aI125
aI55
aI12
aI17
aI19
aI63
aI4
aI12
aI15
aI16
aI18
aI18
aI17
aI5
aI3
aI5
aI5
aI16
aI3
aI4
aI40
aI4
aI0
assS'40'
p761
(dp762
S'11'
p763
(lp764
I17
aI27
aI14
aI16
aI16
aI8
aI12
aI14
aI27
aI11
aI15
aI20
aI10
aI15
aI14
aI74
aI57
aI14
aI17
aI31
aI88
aI6
aI12
aI8
aI9
aI250
aI5
aI6
aI10
aI8
asS'10'
p765
(lp766
I11
aI14
aI21
aI380
aI134
aI24
aI13
aI36
aI13
aI17
aI20
aI17
aI7
aI20
aI23
aI16
aI13
aI12
aI11
aI20
aI13
aI8
aI4
aI41
aI1
aI5
aI13
aI3
aI13
aI7
asS'13'
p767
(lp768
I12
aI23
aI250
aI21
aI31
aI20
aI342
aI16
aI32
aI57
aI15
aI14
aI135
aI12
aI8
aI22
aI77
aI13
aI97
aI19
aI14
aI7
aI9
aI15
aI8
aI8
aI8
aI9
aI13
aI10
asS'12'
p769
(lp770
I7
aI8
aI13
aI169
aI11
aI99
aI23
aI14
aI19
aI13
aI6
aI14
aI13
aI30
aI18
aI20
aI284
aI52
aI24
aI10
aI16
aI8
aI8
aI8
aI8
aI7
aI7
aI7
aI8
aI6
asS'15'
p771
(lp772
I19
aI22
aI15
aI20
aI20
aI48
aI52
aI18
aI14
aI6
aI50
aI306
aI17
aI14
aI13
aI27
aI43
aI19
aI302
aI16
aI14
aI7
aI3
aI10
aI15
aI13
aI4
aI4
aI13
aI10
asS'14'
p773
(lp774
I24
aI20
aI36
aI13
aI15
aI19
aI29
aI18
aI9
aI47
aI18
aI14
aI48
aI109
aI54
aI16
aI13
aI17
aI17
aI15
aI17
aI16
aI19
aI8
aI13
aI16
aI22
aI12
aI12
aI6
asS'17'
p775
(lp776
I14
aI28
aI285
aI18
aI219
aI8
aI14
aI19
aI27
aI83
aI273
aI15
aI15
aI10
aI271
aI31
aI27
aI141
aI33
aI13
aI16
aI5
aI41
aI4
aI15
aI14
aI11
aI7
aI24
aI2
asS'16'
p777
(lp778
I17
aI21
aI13
aI24
aI31
aI16
aI36
aI13
aI112
aI16
aI15
aI17
aI53
aI17
aI28
aI39
aI15
aI52
aI7
aI20
aI12
aI7
aI17
aI212
aI3
aI18
aI5
aI15
aI10
aI6
asS'19'
p779
(lp780
I54
aI26
aI28
aI16
aI39
aI12
aI16
aI15
aI29
aI130
aI10
aI212
aI6
aI17
aI123
aI76
aI17
aI132
aI24
aI58
aI5
aI2
aI5
aI3
aI4
aI13
aI14
aI7
aI13
aI6
asS'18'
p781
(lp782
I13
aI5
aI13
aI14
aI264
aI13
aI17
aI23
aI23
aI12
aI6
aI16
aI19
aI15
aI11
aI9
aI5
aI19
aI173
aI18
aI4
aI6
aI3
aI4
aI6
aI12
aI7
aI3
aI7
aI4
asg27
(lp783
I29
aI29
aI31
aI14
aI17
aI24
aI20
aI17
aI318
aI13
aI17
aI112
aI18
aI12
aI180
aI173
aI27
aI50
aI16
aI169
aI358
aI18
aI12
aI13
aI14
aI12
aI21
aI13
aI17
aI14
asg29
(lp784
I25
aI79
aI11
aI16
aI101
aI27
aI10
aI219
aI17
aI12
aI8
aI1
aI22
aI20
aI15
aI10
aI14
aI10
aI14
aI34
aI11
aI2
aI3
aI14
aI2
aI3
aI7
aI4
aI5
aI10
asg31
(lp785
I27
aI4
aI49
aI18
aI10
aI17
aI11
aI19
aI14
aI20
aI19
aI22
aI88
aI12
aI63
aI7
aI5
aI13
aI13
aI0
aI15
aI19
aI204
aI7
aI3
aI2
aI2
aI3
aI3
aI1
asg33
(lp786
I18
aI17
aI15
aI9
aI9
aI8
aI12
aI302
aI15
aI249
aI15
aI134
aI14
aI19
aI148
aI48
aI12
aI13
aI15
aI186
aI8
aI6
aI16
aI13
aI7
aI6
aI12
aI8
aI11
aI10
asg35
(lp787
I22
aI10
aI15
aI3
aI19
aI3
aI15
aI9
aI35
aI23
aI79
aI15
aI54
aI14
aI265
aI57
aI24
aI22
aI12
aI16
aI3
aI7
aI4
aI3
aI5
aI93
aI6
aI1
aI6
aI7
asg37
(lp788
I13
aI27
aI11
aI32
aI4
aI38
aI13
aI21
aI10
aI47
aI20
aI253
aI35
aI15
aI79
aI44
aI12
aI10
aI8
aI344
aI6
aI13
aI3
aI5
aI10
aI4
aI4
aI3
aI3
aI13
asg39
(lp789
I24
aI20
aI15
aI14
aI19
aI18
aI14
aI24
aI16
aI357
aI22
aI95
aI26
aI7
aI5
aI14
aI15
aI24
aI21
aI15
aI14
aI19
aI14
aI12
aI49
aI4
aI1
aI4
aI5
aI12
asg41
(lp790
I16
aI13
aI20
aI12
aI311
aI20
aI22
aI6
aI17
aI15
aI15
aI23
aI52
aI14
aI47
aI333
aI13
aI15
aI58
aI21
aI5
aI12
aI10
aI11
aI14
aI19
aI14
aI7
aI7
aI6
asg43
(lp791
I26
aI184
aI226
aI13
aI20
aI13
aI14
aI12
aI12
aI18
aI11
aI174
aI2
aI13
aI17
aI131
aI13
aI28
aI32
aI15
aI10
aI19
aI23
aI8
aI5
aI1
aI4
aI7
aI4
aI6
asg45
(lp792
I17
aI31
aI26
aI52
aI12
aI13
aI17
aI9
aI13
aI14
aI146
aI26
aI10
aI18
aI144
aI9
aI13
aI115
aI6
aI18
aI5
aI9
aI4
aI12
aI16
aI14
aI7
aI1
aI17
aI7
assss.