(dp0
S'../Data/spear_5.csv'
p1
(dp2
S'../Data/spear_8.csv'
p3
(dp4
F0.05
(dp5
S'mmre'
p6
(dp7
S'bellwether'
p8
(lp9
cnumpy.core.multiarray
scalar
p10
(cnumpy
dtype
p11
(S'f8'
p12
I0
I1
tp13
Rp14
(I3
S'<'
p15
NNNI-1
I-1
I0
tp16
bS'\xf2S\x0f\x8du&F@'
p17
tp18
Rp19
ag10
(g14
S'`D\xcc\xa1{%F@'
p20
tp21
Rp22
ag10
(g14
S'\xf4\xb4\x07f\x88*F@'
p23
tp24
Rp25
ag10
(g14
S'\xf9\xa1\xc8\x0e\x1e3F@'
p26
tp27
Rp28
ag10
(g14
S'E*\xbbvP\x04F@'
p29
tp30
Rp31
ag10
(g14
S'\xf7\xdb\xfbon;F@'
p32
tp33
Rp34
ag10
(g14
S'\xf7\xab4\xfe\xfdHF@'
p35
tp36
Rp37
ag10
(g14
S'\xed\x9e\x83\xdf\xd65F@'
p38
tp39
Rp40
ag10
(g14
S'\x99(\x7f-W(F@'
p41
tp42
Rp43
ag10
(g14
S'\xf6\x01@ k$F@'
p44
tp45
Rp46
ag10
(g14
S'St9\xf6\xf9:F@'
p47
tp48
Rp49
ag10
(g14
S'\xec\xcb\x9e\xb3\x964F@'
p50
tp51
Rp52
ag10
(g14
S'\xb8\xc6p\xa4\xd2\xf9E@'
p53
tp54
Rp55
ag10
(g14
S'\x9ak\xd0\xa4\xfcDF@'
p56
tp57
Rp58
ag10
(g14
S'k\xa1\xd2\x14\xd8!F@'
p59
tp60
Rp61
ag10
(g14
S'J]^\x8e\x0f#F@'
p62
tp63
Rp64
ag10
(g14
S'\xbe>\xe27K>F@'
p65
tp66
Rp67
ag10
(g14
S'9R\x88(\x93:F@'
p68
tp69
Rp70
ag10
(g14
S'F\x146\x8f\xb1\xffE@'
p71
tp72
Rp73
ag10
(g14
S'\xa0mC_3CF@'
p74
tp75
Rp76
asS'target'
p77
(lp78
g10
(g14
S'\xcb\x1f\xcd @\xf8A@'
p79
tp80
Rp81
ag10
(g14
S'=\xc9\xd8:\xc0\xda@@'
p82
tp83
Rp84
ag10
(g14
S'\xe3\xdb\xf9a\xb4c?@'
p85
tp86
Rp87
ag10
(g14
S'\x99;\xbb\x8d}V?@'
p88
tp89
Rp90
ag10
(g14
S'\xf5\x99c\x1d\x1c\xdb?@'
p91
tp92
Rp93
ag10
(g14
S'v/a\x9e\x08\xf0@@'
p94
tp95
Rp96
ag10
(g14
S'K\xa3\t\x13;\x02B@'
p97
tp98
Rp99
ag10
(g14
S'\xb5EJ\xf3\xd7:A@'
p100
tp101
Rp102
ag10
(g14
S'NA\xe7$\xe6\nA@'
p103
tp104
Rp105
ag10
(g14
S'\t71\x83pu<@'
p106
tp107
Rp108
ag10
(g14
S'\x82\xdd\x0c\xd3\xac\xa0@@'
p109
tp110
Rp111
ag10
(g14
S']G\x16\x97}5?@'
p112
tp113
Rp114
ag10
(g14
S'DRp`u\xc0?@'
p115
tp116
Rp117
ag10
(g14
S'\x9c\xc8z)\xf3mC@'
p118
tp119
Rp120
ag10
(g14
S'C\x1bLFp\xcc@@'
p121
tp122
Rp123
ag10
(g14
S'8\xdcO\x96\x8elB@'
p124
tp125
Rp126
ag10
(g14
S'\x95^\xa9\x80L\xc5A@'
p127
tp128
Rp129
ag10
(g14
S'\xfc_]\xe8\x10"A@'
p130
tp131
Rp132
ag10
(g14
S'\xb6\x91/\x13\x15B:@'
p133
tp134
Rp135
ag10
(g14
S'\xe2r\x0e<\x1e\xcbA@'
p136
tp137
Rp138
asssss.