(dp0
S'../Data/spear_2.csv'
p1
(dp2
S'../Data/spear_6.csv'
p3
(dp4
F0.35
(dp5
S'mmre'
p6
(dp7
S'bellwether'
p8
(lp9
cnumpy.core.multiarray
scalar
p10
(cnumpy
dtype
p11
(S'f8'
p12
I0
I1
tp13
Rp14
(I3
S'<'
p15
NNNI-1
I-1
I0
tp16
bS'x\xf1z\x81\xf2LE@'
p17
tp18
Rp19
ag10
(g14
S'\xdc\x9e@8!AE@'
p20
tp21
Rp22
ag10
(g14
S'\x119\x81!\x93AE@'
p23
tp24
Rp25
ag10
(g14
S'\xadM\xe6\x9a\xaf_E@'
p26
tp27
Rp28
ag10
(g14
S'\x96\x81\xaeF\t\xfbD@'
p29
tp30
Rp31
ag10
(g14
S'\xc1X\x07P\xb0\x9eE@'
p32
tp33
Rp34
ag10
(g14
S'\x82\xf2\xccr.\x90E@'
p35
tp36
Rp37
ag10
(g14
S'=e\x02\x82iQE@'
p38
tp39
Rp40
ag10
(g14
S'\xe3a\xbeLm\x0bE@'
p41
tp42
Rp43
ag10
(g14
S'6\xda\r\x18\xdbhE@'
p44
tp45
Rp46
ag10
(g14
S'k\r\xf08\xb6aE@'
p47
tp48
Rp49
ag10
(g14
S'\xc6S\x01n\x15xE@'
p50
tp51
Rp52
ag10
(g14
S'\x16\t\xbc<uDE@'
p53
tp54
Rp55
ag10
(g14
S'\xce\xc5\xb6\x12\\fE@'
p56
tp57
Rp58
ag10
(g14
S'C\xa07I$CE@'
p59
tp60
Rp61
ag10
(g14
S'\xd2\x99!\xb5\x1c3E@'
p62
tp63
Rp64
ag10
(g14
S'\x1e\xd9q\x97\xc9cE@'
p65
tp66
Rp67
ag10
(g14
S'z\xa7\xdd@\nAE@'
p68
tp69
Rp70
ag10
(g14
S'\x18\xf6_\x8f\x95UE@'
p71
tp72
Rp73
ag10
(g14
S'^\x9a\x0e\x82^gE@'
p74
tp75
Rp76
asS'target'
p77
(lp78
g10
(g14
S'V\x9a\xd5\x9a8@%@'
p79
tp80
Rp81
ag10
(g14
S'\x8e?\xf6\x08z\x9b*@'
p82
tp83
Rp84
ag10
(g14
S'5\xab6|rY(@'
p85
tp86
Rp87
ag10
(g14
S'\xdd~\xffPA\xd6"@'
p88
tp89
Rp90
ag10
(g14
S'\x8c\xdf\x98 \xc65(@'
p91
tp92
Rp93
ag10
(g14
S'5\x1d\xf8~\x9fg*@'
p94
tp95
Rp96
ag10
(g14
S'\xfc\xa5T\xe8J\x86(@'
p97
tp98
Rp99
ag10
(g14
S'\x9e9?:S\x8b$@'
p100
tp101
Rp102
ag10
(g14
S'\'\xf7"\xc8\xf7>$@'
p103
tp104
Rp105
ag10
(g14
S'\xbe\xc1\xf2o\xec\t%@'
p106
tp107
Rp108
ag10
(g14
S"\xb0`c\x82[\x87'@"
p109
tp110
Rp111
ag10
(g14
S'\xa2LN\x89\x92\x99%@'
p112
tp113
Rp114
ag10
(g14
S't\xa7\\8\x11\xe6%@'
p115
tp116
Rp117
ag10
(g14
S'\xf9\xaf\xb6\x95\xdd\xc3&@'
p118
tp119
Rp120
ag10
(g14
S'\xcb\xb6<\x87[\xf1)@'
p121
tp122
Rp123
ag10
(g14
S'\x11\x12t\xadz\xeb(@'
p124
tp125
Rp126
ag10
(g14
S'\x98\x1e\xcf\x8b\x0c\x86%@'
p127
tp128
Rp129
ag10
(g14
S"\x92\xf5Nj\xc6\xdf'@"
p130
tp131
Rp132
ag10
(g14
S'm\xb4Fy\x0e\x97%@'
p133
tp134
Rp135
ag10
(g14
S';h\xbc\xd1\x8f\xd4*@'
p136
tp137
Rp138
asssss.