(dp0
S'../Data/spear_7.csv'
p1
(dp2
S'../Data/spear_6.csv'
p3
(dp4
F0.3
(dp5
S'mmre'
p6
(dp7
S'bellwether'
p8
(lp9
cnumpy.core.multiarray
scalar
p10
(cnumpy
dtype
p11
(S'f8'
p12
I0
I1
tp13
Rp14
(I3
S'<'
p15
NNNI-1
I-1
I0
tp16
bS'\x01\xd5G\xf0<.H@'
p17
tp18
Rp19
ag10
(g14
S'xI\xfc$kCH@'
p20
tp21
Rp22
ag10
(g14
S'\xcd.\xcc\x04o+H@'
p23
tp24
Rp25
ag10
(g14
S'}\x93ccj.H@'
p26
tp27
Rp28
ag10
(g14
S'B\x15a_\xc5HH@'
p29
tp30
Rp31
ag10
(g14
S'*\xdd\xd1L\x02DH@'
p32
tp33
Rp34
ag10
(g14
S'7\x88\xc7_\xe3GH@'
p35
tp36
Rp37
ag10
(g14
S'X\xc3K\xd5\xbf,H@'
p38
tp39
Rp40
ag10
(g14
S'q9\x85\x0f\xb2iH@'
p41
tp42
Rp43
ag10
(g14
S'sp\x98\x90\xe3:H@'
p44
tp45
Rp46
ag10
(g14
S'\xe4\xd1\xce|S"H@'
p47
tp48
Rp49
ag10
(g14
S'\xde\x9bU\x96KkH@'
p50
tp51
Rp52
ag10
(g14
S'\x8b\x07\xa35\xa7\x84H@'
p53
tp54
Rp55
ag10
(g14
S'\x08e\x12eM!H@'
p56
tp57
Rp58
ag10
(g14
S'k\x04\xc9s\x08AH@'
p59
tp60
Rp61
ag10
(g14
S'\x9eu\xcf\xc2;GH@'
p62
tp63
Rp64
ag10
(g14
S'\x94J(\x19[DH@'
p65
tp66
Rp67
ag10
(g14
S'\x8d\xfa\x9eS\x0c3H@'
p68
tp69
Rp70
ag10
(g14
S'\xa9W\x0f\xf7\x18@H@'
p71
tp72
Rp73
ag10
(g14
S'\xe9\x8e\xa4\xda)\x13H@'
p74
tp75
Rp76
asS'target'
p77
(lp78
g10
(g14
S'\x94"4\x8b,\xaf\'@'
p79
tp80
Rp81
ag10
(g14
S'\x84\x96\xde\xe5b\xb8+@'
p82
tp83
Rp84
ag10
(g14
S'\xb9\xf5\xa0zI?*@'
p85
tp86
Rp87
ag10
(g14
S'\x9d\xe0V\xf4?\xe0&@'
p88
tp89
Rp90
ag10
(g14
S'\x82\x0e\x14\xbdH4*@'
p91
tp92
Rp93
ag10
(g14
S'R<\xd2\x17\xfe\xa5%@'
p94
tp95
Rp96
ag10
(g14
S'\xa0\xea\xe9\xfcLv,@'
p97
tp98
Rp99
ag10
(g14
S"[\xab\x13q\r.'@"
p100
tp101
Rp102
ag10
(g14
S'\x89s#=\xe8\xbf(@'
p103
tp104
Rp105
ag10
(g14
S'\x9f\x1b\x0f\xd8\xfa5)@'
p106
tp107
Rp108
ag10
(g14
S"G\xd2s\xcf\xc2['@"
p109
tp110
Rp111
ag10
(g14
S'\xa7\x8dJ\xd5\xda\xcb%@'
p112
tp113
Rp114
ag10
(g14
S'`~\xe7\x9c\xb0\x1a)@'
p115
tp116
Rp117
ag10
(g14
S'\xc4\x1c\x16a\x80#(@'
p118
tp119
Rp120
ag10
(g14
S'\x98y\xe3\xb5@\xc6(@'
p121
tp122
Rp123
ag10
(g14
S'D\xd8N\xfbr\xee)@'
p124
tp125
Rp126
ag10
(g14
S"g\xc1|\xe3Gv'@"
p127
tp128
Rp129
ag10
(g14
S'}{%\x9c\x1a\xe4(@'
p130
tp131
Rp132
ag10
(g14
S"\xbf\xcd\x18\x9d\x88Q'@"
p133
tp134
Rp135
ag10
(g14
S'\x9f\x96}9\xa5\x97(@'
p136
tp137
Rp138
asssss.