(dp0
S'../Data/spear_4.csv'
p1
(dp2
S'../Data/spear_8.csv'
p3
(dp4
F0.05
(dp5
S'mmre'
p6
(dp7
S'bellwether'
p8
(lp9
cnumpy.core.multiarray
scalar
p10
(cnumpy
dtype
p11
(S'f8'
p12
I0
I1
tp13
Rp14
(I3
S'<'
p15
NNNI-1
I-1
I0
tp16
bS'=\xb9\x98e\x0f<G@'
p17
tp18
Rp19
ag10
(g14
S'Id\x8d\xe8D\x0fG@'
p20
tp21
Rp22
ag10
(g14
S'FF\xd3\x13\xd83G@'
p23
tp24
Rp25
ag10
(g14
S'U\x12\xb2\xaf8\x05G@'
p26
tp27
Rp28
ag10
(g14
S'\x12zN\x96L\x11G@'
p29
tp30
Rp31
ag10
(g14
S'@h\xba+\xcd0G@'
p32
tp33
Rp34
ag10
(g14
S'\xed\x01 \x12AAG@'
p35
tp36
Rp37
ag10
(g14
S'Uu\x97hGMG@'
p38
tp39
Rp40
ag10
(g14
S'N\xc98nc\xf1F@'
p41
tp42
Rp43
ag10
(g14
S'wdi\x98\x15\nG@'
p44
tp45
Rp46
ag10
(g14
S'Po\xe6s\xb9;G@'
p47
tp48
Rp49
ag10
(g14
S'\x8d\xeft\xce<\xc6F@'
p50
tp51
Rp52
ag10
(g14
S'\xbaSr#\xbcUG@'
p53
tp54
Rp55
ag10
(g14
S'b\xa3\xaf\x1c\x15UG@'
p56
tp57
Rp58
ag10
(g14
S'\xff\x9d\x80\xae\xf8PG@'
p59
tp60
Rp61
ag10
(g14
S'V\xe6\x95\x91z8G@'
p62
tp63
Rp64
ag10
(g14
S'\ru\xc43\xc2.G@'
p65
tp66
Rp67
ag10
(g14
S'\xa2,\xc0|\xf6PG@'
p68
tp69
Rp70
ag10
(g14
S'\x86\xd90\x07|:G@'
p71
tp72
Rp73
ag10
(g14
S'\x12q\x10i\xc6\x17G@'
p74
tp75
Rp76
asS'target'
p77
(lp78
g10
(g14
S'B\xe7\xdc\t}\xbe@@'
p79
tp80
Rp81
ag10
(g14
S"\xcf\xd5\xe7V\n'@@"
p82
tp83
Rp84
ag10
(g14
S'\xc4\xbc+L3\xf0@@'
p85
tp86
Rp87
ag10
(g14
S"\xd0\xa6\xa1V'\xd3@@"
p88
tp89
Rp90
ag10
(g14
S'\x9d|\xfa5?\xb3@@'
p91
tp92
Rp93
ag10
(g14
S'\x03\xa8\xc9l\x00bA@'
p94
tp95
Rp96
ag10
(g14
S'0A\xc6\x90\x9a\xbf@@'
p97
tp98
Rp99
ag10
(g14
S'\xc2(7\xac\xdeq?@'
p100
tp101
Rp102
ag10
(g14
S'\xba\x02=YB\x91A@'
p103
tp104
Rp105
ag10
(g14
S'\xda\xce\x8dF\xc2x@@'
p106
tp107
Rp108
ag10
(g14
S'\xc2+\x18\x93\xe1h?@'
p109
tp110
Rp111
ag10
(g14
S'\xcf\xf1\xb7yz\xa1?@'
p112
tp113
Rp114
ag10
(g14
S'$\xc9u[u4?@'
p115
tp116
Rp117
ag10
(g14
S'\x80\x1b\xb2tTQA@'
p118
tp119
Rp120
ag10
(g14
S'(yg\xba\xe0\xa1B@'
p121
tp122
Rp123
ag10
(g14
S'\xa9\xaf5\xe3\x87\xbb@@'
p124
tp125
Rp126
ag10
(g14
S'5r3\x7f\x1bv<@'
p127
tp128
Rp129
ag10
(g14
S'\xf4Z+\xbe\x87\x1bB@'
p130
tp131
Rp132
ag10
(g14
S'x\xb9N\x85\x1c\xf9=@'
p133
tp134
Rp135
ag10
(g14
S'\t\xdeI\xf8\xd9&A@'
p136
tp137
Rp138
asssss.