(dp0
S'../Data/spear_5.csv'
p1
(dp2
S'../Data/spear_6.csv'
p3
(dp4
F0.1
(dp5
S'mmre'
p6
(dp7
S'bellwether'
p8
(lp9
cnumpy.core.multiarray
scalar
p10
(cnumpy
dtype
p11
(S'f8'
p12
I0
I1
tp13
Rp14
(I3
S'<'
p15
NNNI-1
I-1
I0
tp16
bS'h\xb4\x04{ZHC@'
p17
tp18
Rp19
ag10
(g14
S'\xb2I\xc3\x9dP(C@'
p20
tp21
Rp22
ag10
(g14
S')eO\xad\xa45C@'
p23
tp24
Rp25
ag10
(g14
S"\xa2Z.>'\x02C@"
p26
tp27
Rp28
ag10
(g14
S'\xe4!\xb6\xb9\xbc C@'
p29
tp30
Rp31
ag10
(g14
S'\xfd\xe0O\xae<(C@'
p32
tp33
Rp34
ag10
(g14
S'c\xe1@\x89k\x17C@'
p35
tp36
Rp37
ag10
(g14
S'\x1cH\xbc\xc3\x90\x0cC@'
p38
tp39
Rp40
ag10
(g14
S'Ga\x03~\x16GC@'
p41
tp42
Rp43
ag10
(g14
S'r\xa0\x8aN\xad3C@'
p44
tp45
Rp46
ag10
(g14
S'\xfe(\xc6\xfc\xc2GC@'
p47
tp48
Rp49
ag10
(g14
S'\x0e\xf3\x06[\x86&C@'
p50
tp51
Rp52
ag10
(g14
S'F\xaf\xbco\xb8qC@'
p53
tp54
Rp55
ag10
(g14
S'\xf6\xca\xcd\x84\x97TC@'
p56
tp57
Rp58
ag10
(g14
S'\x9e>\x872\xc4.C@'
p59
tp60
Rp61
ag10
(g14
S'\x01l\x85bB\xefB@'
p62
tp63
Rp64
ag10
(g14
S'V\x81\x9c\xff\x9eAC@'
p65
tp66
Rp67
ag10
(g14
S'9\xae\xabr\xf8EC@'
p68
tp69
Rp70
ag10
(g14
S'\xfb\xf7\x90\x9eJ;C@'
p71
tp72
Rp73
ag10
(g14
S'\xd6\xc7\xb6\xccq\xfaB@'
p74
tp75
Rp76
asS'target'
p77
(lp78
g10
(g14
S'\xf2\xf0\x0e\xbf\x11\xd8-@'
p79
tp80
Rp81
ag10
(g14
S'z5=\xd3\x94\x001@'
p82
tp83
Rp84
ag10
(g14
S'|t\xfa\xf9\xb6\t1@'
p85
tp86
Rp87
ag10
(g14
S'=\\ *\xb68-@'
p88
tp89
Rp90
ag10
(g14
S'\x8a"(\xc7RH1@'
p91
tp92
Rp93
ag10
(g14
S'\xc4\x889\xfc\xf4Q/@'
p94
tp95
Rp96
ag10
(g14
S"d\xc1 '`3.@"
p97
tp98
Rp99
ag10
(g14
S'\xf5\xca,#7\xea.@'
p100
tp101
Rp102
ag10
(g14
S'\x8cU\x9c\xaf\x8f\x130@'
p103
tp104
Rp105
ag10
(g14
S'\\\x152\x8bS"/@'
p106
tp107
Rp108
ag10
(g14
S'\xfa\x9b\xb2\xba\xca\xd01@'
p109
tp110
Rp111
ag10
(g14
S'\xa7C3\x11Gs/@'
p112
tp113
Rp114
ag10
(g14
S'\xb7IA;\x9f\x101@'
p115
tp116
Rp117
ag10
(g14
S'\xd0aq\xb9\x12\xe92@'
p118
tp119
Rp120
ag10
(g14
S'0\xd8".\xa1B2@'
p121
tp122
Rp123
ag10
(g14
S'\xfd\x97f\x8d\x7f\xbd0@'
p124
tp125
Rp126
ag10
(g14
S'\nf\x8f\x0e\xaf\x940@'
p127
tp128
Rp129
ag10
(g14
S'\x80\x1fN6\xcct1@'
p130
tp131
Rp132
ag10
(g14
S'\\W\x82v5\xca1@'
p133
tp134
Rp135
ag10
(g14
S'\xe4@7G\xd4\xb6-@'
p136
tp137
Rp138
asssss.