(dp0
S'../Data/spear_7.csv'
p1
(dp2
S'../Data/spear_2.csv'
p3
(dp4
F0.4
(dp5
S'rank'
p6
(dp7
S'bellwether'
p8
(lp9
I3
aI9
aI8
aI3
aI2
aI1
aI4
aI4
aI3
aI2
aI7
aI3
aI2
aI3
aI4
aI5
aI1
aI3
aI3
aI1
asS'target'
p10
(lp11
I171
aI78
aI2
aI194
aI543
aI8
aI2
aI310
aI1
aI6
aI223
aI39
aI14
aI370
aI3
aI184
aI3
aI224
aI1
aI6
asssss.