(dp0
S'../Data/spear_1.csv'
p1
(dp2
S'../Data/spear_0.csv'
p3
(dp4
F0.2
(dp5
S'rank'
p6
(dp7
S'bellwether'
p8
(lp9
I14
aI29
aI46
aI18
aI19
aI41
aI22
aI29
aI13
aI9
aI11
aI21
aI11
aI29
aI12
aI14
aI51
aI20
aI13
aI27
asS'target'
p10
(lp11
I3
aI0
aI14
aI7
aI22
aI69
aI4
aI1
aI2
aI10
aI31
aI40
aI10
aI11
aI7
aI10
aI3
aI16
aI18
aI4
asssss.