(dp0
S'../Data/spear_7.csv'
p1
(dp2
S'../Data/spear_8.csv'
p3
(dp4
F0.15
(dp5
S'mmre'
p6
(dp7
S'bellwether'
p8
(lp9
cnumpy.core.multiarray
scalar
p10
(cnumpy
dtype
p11
(S'f8'
p12
I0
I1
tp13
Rp14
(I3
S'<'
p15
NNNI-1
I-1
I0
tp16
bS'\x1f#%\x8c\x05UI@'
p17
tp18
Rp19
ag10
(g14
S'\x81|w|\xf19I@'
p20
tp21
Rp22
ag10
(g14
S'\\V{\xea\xf3-I@'
p23
tp24
Rp25
ag10
(g14
S'1\n\t\xe8)\x1bI@'
p26
tp27
Rp28
ag10
(g14
S'A\xf25\xb6\xb9WI@'
p29
tp30
Rp31
ag10
(g14
S'u\xbakT\xed[I@'
p32
tp33
Rp34
ag10
(g14
S'R\xde\x0fo\xcfoI@'
p35
tp36
Rp37
ag10
(g14
S'Q\x80g\x84\xdeaI@'
p38
tp39
Rp40
ag10
(g14
S'\x87H\x8c\xac\xa33I@'
p41
tp42
Rp43
ag10
(g14
S'br\xc3\xa4\xf8HI@'
p44
tp45
Rp46
ag10
(g14
S'b2\x19~\xe7BI@'
p47
tp48
Rp49
ag10
(g14
S'\x95?\xfe\xf8HPI@'
p50
tp51
Rp52
ag10
(g14
S'\x94~\x1d\x1c\xf2TI@'
p53
tp54
Rp55
ag10
(g14
S'\x15\xfe\xc0\x12\xe8KI@'
p56
tp57
Rp58
ag10
(g14
S'\x19\xd0\xdcs\x02\\I@'
p59
tp60
Rp61
ag10
(g14
S'D\xbcq\xf9\x07/I@'
p62
tp63
Rp64
ag10
(g14
S'\xd1T5q\xe9TI@'
p65
tp66
Rp67
ag10
(g14
S'~\x04\xc1\x1e\xdfBI@'
p68
tp69
Rp70
ag10
(g14
S'?@L\xe9\xffKI@'
p71
tp72
Rp73
ag10
(g14
S'\xb0\x15zI\x8afI@'
p74
tp75
Rp76
asS'target'
p77
(lp78
g10
(g14
S'\xd1\xb4l\x1c\xc228@'
p79
tp80
Rp81
ag10
(g14
S'T\xd4>\xcc==8@'
p82
tp83
Rp84
ag10
(g14
S'V@\xf4\xe8\xd8\xc3:@'
p85
tp86
Rp87
ag10
(g14
S'f"\xb3\x86\xb3\xc6<@'
p88
tp89
Rp90
ag10
(g14
S"\x10+'\xabG\xdb<@"
p91
tp92
Rp93
ag10
(g14
S'\xc8E\xb3\xe8h>7@'
p94
tp95
Rp96
ag10
(g14
S'\x95\x1aR\x1a\xd5N8@'
p97
tp98
Rp99
ag10
(g14
S'g\xf5\xaaW\xf0\x15:@'
p100
tp101
Rp102
ag10
(g14
S'\xacJ&\x81\xc2\x9a;@'
p103
tp104
Rp105
ag10
(g14
S'\x8a\x16/x\x18\x97=@'
p106
tp107
Rp108
ag10
(g14
S'~\t\x88\x8a\xa7U8@'
p109
tp110
Rp111
ag10
(g14
S'c\xf4>\xce\xcbI<@'
p112
tp113
Rp114
ag10
(g14
S'h\x87\x89~\r\x92:@'
p115
tp116
Rp117
ag10
(g14
S'\x89\x8e\xf5\x13\x1c\xb75@'
p118
tp119
Rp120
ag10
(g14
S'\xaf\xc7\xf0\\J\x189@'
p121
tp122
Rp123
ag10
(g14
S'\x88Vl\xcer\xb8>@'
p124
tp125
Rp126
ag10
(g14
S'\xd1\xf0\xff\xa0\xd0\xfa<@'
p127
tp128
Rp129
ag10
(g14
S'\n%\x86&\xe0\xa29@'
p130
tp131
Rp132
ag10
(g14
S'\xf4\xabXN!+9@'
p133
tp134
Rp135
ag10
(g14
S'p<\xcbo\xe9M<@'
p136
tp137
Rp138
asssss.