(dp0
S'../Data/spear_2.csv'
p1
(dp2
S'../Data/spear_6.csv'
p3
(dp4
F0.4
(dp5
S'mmre'
p6
(dp7
S'bellwether'
p8
(lp9
cnumpy.core.multiarray
scalar
p10
(cnumpy
dtype
p11
(S'f8'
p12
I0
I1
tp13
Rp14
(I3
S'<'
p15
NNNI-1
I-1
I0
tp16
bS'\xb6\xed#\xdf\x7f7E@'
p17
tp18
Rp19
ag10
(g14
S'\\\x13\x83\xca\xd5fE@'
p20
tp21
Rp22
ag10
(g14
S'>Y\xa8\xab\xc5:E@'
p23
tp24
Rp25
ag10
(g14
S'\x9c\x85\xb7\xcb\xa21E@'
p26
tp27
Rp28
ag10
(g14
S'\x84l\xecO\xe7RE@'
p29
tp30
Rp31
ag10
(g14
S'\x81\xd3\x06P\t\x8eE@'
p32
tp33
Rp34
ag10
(g14
S'{\xd1j\xd0\x08%E@'
p35
tp36
Rp37
ag10
(g14
S'0yz\xed\xea:E@'
p38
tp39
Rp40
ag10
(g14
S'!la\x03\xdf]E@'
p41
tp42
Rp43
ag10
(g14
S'.R\x15+\x08\x0fE@'
p44
tp45
Rp46
ag10
(g14
S'\x94\xd7\xd2@\x9dgE@'
p47
tp48
Rp49
ag10
(g14
S't\x17\x8cHl3E@'
p50
tp51
Rp52
ag10
(g14
S'}\xe8\x1e\xed\xec\x1eE@'
p53
tp54
Rp55
ag10
(g14
S'\xaa\xed\x80\xfe\x99\x7fE@'
p56
tp57
Rp58
ag10
(g14
S'\xd4\xfaL`)|E@'
p59
tp60
Rp61
ag10
(g14
S'.kb\x99\x7fXE@'
p62
tp63
Rp64
ag10
(g14
S'\x16\x13\xac\xf6\xec~E@'
p65
tp66
Rp67
ag10
(g14
S'{{A\xc3\xd0\x04E@'
p68
tp69
Rp70
ag10
(g14
S'\tR9\xbe\xd9YE@'
p71
tp72
Rp73
ag10
(g14
S'%\xaf\xf6lw|E@'
p74
tp75
Rp76
asS'target'
p77
(lp78
g10
(g14
S':\xb9\x87k\xf0<#@'
p79
tp80
Rp81
ag10
(g14
S'a\xb0]\xeaN\x15&@'
p82
tp83
Rp84
ag10
(g14
S'\x88\x0eS\x8b3\xb2(@'
p85
tp86
Rp87
ag10
(g14
S'\xc4\x9f\xa5\xe4\xc6\xcf$@'
p88
tp89
Rp90
ag10
(g14
S"K\xfc\x04\xe9'\xba'@"
p91
tp92
Rp93
ag10
(g14
S"g\xa0\x9c\t?o'@"
p94
tp95
Rp96
ag10
(g14
S'x\t]\x918$&@'
p97
tp98
Rp99
ag10
(g14
S'\xf8 <kN\x7f#@'
p100
tp101
Rp102
ag10
(g14
S'\xa4\xabY\xcen\x03*@'
p103
tp104
Rp105
ag10
(g14
S'\xbb\xa2^sw,%@'
p106
tp107
Rp108
ag10
(g14
S'\xa2\x80#\x9cB_*@'
p109
tp110
Rp111
ag10
(g14
S'\xc0\x88\x1f\xc3d\x9f*@'
p112
tp113
Rp114
ag10
(g14
S'\xde\x84X\xb8\x8bN%@'
p115
tp116
Rp117
ag10
(g14
S'\xcc\t\xa8Q% (@'
p118
tp119
Rp120
ag10
(g14
S'y\xb8~\xfa+o$@'
p121
tp122
Rp123
ag10
(g14
S'k\xa4r\xd2\xf8\x1a$@'
p124
tp125
Rp126
ag10
(g14
S"H\x8c\xcc\xf44\xd4'@"
p127
tp128
Rp129
ag10
(g14
S"\xb6\x7f\xe9\x08\xf8\x87'@"
p130
tp131
Rp132
ag10
(g14
S'\xe1\xb8.;(\xe6&@'
p133
tp134
Rp135
ag10
(g14
S"\xfehZ\x19~3'@"
p136
tp137
Rp138
asssss.