(dp0
S'../Data/spear_7.csv'
p1
(dp2
S'../Data/spear_4.csv'
p3
(dp4
F0.2
(dp5
S'rank'
p6
(dp7
S'bellwether'
p8
(lp9
I11
aI30
aI17
aI11
aI44
aI12
aI11
aI35
aI28
aI27
aI16
aI30
aI29
aI20
aI43
aI41
aI18
aI19
aI12
aI20
asS'target'
p10
(lp11
I4
aI3
aI2
aI3
aI16
aI17
aI1
aI2
aI0
aI21
aI5
aI3
aI2
aI4
aI107
aI49
aI3
aI2
aI2
aI50
asssss.