(dp0
S'../Data/spear_2.csv'
p1
(dp2
S'../Data/spear_6.csv'
p3
(dp4
F0.15
(dp5
S'mmre'
p6
(dp7
S'bellwether'
p8
(lp9
cnumpy.core.multiarray
scalar
p10
(cnumpy
dtype
p11
(S'f8'
p12
I0
I1
tp13
Rp14
(I3
S'<'
p15
NNNI-1
I-1
I0
tp16
bS'~\xbdB\x89\x1buE@'
p17
tp18
Rp19
ag10
(g14
S'\xbbA3\x02\x9bhE@'
p20
tp21
Rp22
ag10
(g14
S'E\xbb\xe4\xa5=BE@'
p23
tp24
Rp25
ag10
(g14
S'\xae\xccSC\xffFE@'
p26
tp27
Rp28
ag10
(g14
S'xaE\x83\xb2TE@'
p29
tp30
Rp31
ag10
(g14
S'\x17T\x1b}pTE@'
p32
tp33
Rp34
ag10
(g14
S'\xe0\xee\x91B\xb6SE@'
p35
tp36
Rp37
ag10
(g14
S'b\x17\x9c\xcf\xe5<E@'
p38
tp39
Rp40
ag10
(g14
S'\x89_\x90\xb8\x8a^E@'
p41
tp42
Rp43
ag10
(g14
S'\x14\xca\xb9\xccJ+E@'
p44
tp45
Rp46
ag10
(g14
S'\xc2x\xd7;\xf5TE@'
p47
tp48
Rp49
ag10
(g14
S'\xb0\xb8\xff\xe5\\{E@'
p50
tp51
Rp52
ag10
(g14
S'\x83\xe1\xdfm\xec<E@'
p53
tp54
Rp55
ag10
(g14
S'gT\xf4\xdd\x0bHE@'
p56
tp57
Rp58
ag10
(g14
S'l\xc2tu\xb6@E@'
p59
tp60
Rp61
ag10
(g14
S'k\x9a\xa4<\tGE@'
p62
tp63
Rp64
ag10
(g14
S"'s\x870f}E@"
p65
tp66
Rp67
ag10
(g14
S'\xce\x19\x05\x00EME@'
p68
tp69
Rp70
ag10
(g14
S'.\x97Rt\x96eE@'
p71
tp72
Rp73
ag10
(g14
S'*!n\xcd39E@'
p74
tp75
Rp76
asS'target'
p77
(lp78
g10
(g14
S'\x95|xi2\x180@'
p79
tp80
Rp81
ag10
(g14
S'\xd1\x80]\xd3zL0@'
p82
tp83
Rp84
ag10
(g14
S'\x92\x8d\x03\xdb[?/@'
p85
tp86
Rp87
ag10
(g14
S'#(\x0bh&\xc3.@'
p88
tp89
Rp90
ag10
(g14
S'4OGY\xae\xf6/@'
p91
tp92
Rp93
ag10
(g14
S'\xf4-u\xb9\xbb\xda/@'
p94
tp95
Rp96
ag10
(g14
S'\x13\x97\x0fF\xa9\x030@'
p97
tp98
Rp99
ag10
(g14
S't\x1c\x87\xf7\x1c\xe9-@'
p100
tp101
Rp102
ag10
(g14
S'M\xb6)\xdd\xa4\t.@'
p103
tp104
Rp105
ag10
(g14
S'cO\x01\xc8o\x15.@'
p106
tp107
Rp108
ag10
(g14
S'=6\x00\xad.\xd6/@'
p109
tp110
Rp111
ag10
(g14
S'#?\x93\x82\xd750@'
p112
tp113
Rp114
ag10
(g14
S'\xc66\x88\xb73d/@'
p115
tp116
Rp117
ag10
(g14
S'\xbf\xd9\xb0\xe3\xcc\x06.@'
p118
tp119
Rp120
ag10
(g14
S'\x1e&\xc7\x89\x12\xb2.@'
p121
tp122
Rp123
ag10
(g14
S'g\x1e\x03\xdd\x00\x80+@'
p124
tp125
Rp126
ag10
(g14
S'\x17\xa4#\xc7\xaf\x9e0@'
p127
tp128
Rp129
ag10
(g14
S'\xa1\xa2\xae\xc7\xafa*@'
p130
tp131
Rp132
ag10
(g14
S'\xd1\x03eZG\xbb/@'
p133
tp134
Rp135
ag10
(g14
S'\xdfD\xb6\xfe\xefZ/@'
p136
tp137
Rp138
asssss.