(dp0
S'../Data/spear_4.csv'
p1
(dp2
S'../Data/spear_7.csv'
p3
(dp4
F0.35
(dp5
S'mmre'
p6
(dp7
S'bellwether'
p8
(lp9
cnumpy.core.multiarray
scalar
p10
(cnumpy
dtype
p11
(S'f8'
p12
I0
I1
tp13
Rp14
(I3
S'<'
p15
NNNI-1
I-1
I0
tp16
bS'\x0c.gR7\xbc}@'
p17
tp18
Rp19
ag10
(g14
S'\x7f\x01\x16~\xa4\x16}@'
p20
tp21
Rp22
ag10
(g14
S'\x03@\xd1Y\xee\x17}@'
p23
tp24
Rp25
ag10
(g14
S'\xd2\xd4WQ\xd1c}@'
p26
tp27
Rp28
ag10
(g14
S'X\x1bQ\xf2f+~@'
p29
tp30
Rp31
ag10
(g14
S'*9(\xf8u\xa6}@'
p32
tp33
Rp34
ag10
(g14
S'\xcf\xb6j\xcc\x1f0}@'
p35
tp36
Rp37
ag10
(g14
S'w%VC\x03\t}@'
p38
tp39
Rp40
ag10
(g14
S'\x0c\xc5\xaez\xddg}@'
p41
tp42
Rp43
ag10
(g14
S'X\xe3%\x90\n\xa3}@'
p44
tp45
Rp46
ag10
(g14
S'\xbe6\xd9\x7f\xb6\x9d}@'
p47
tp48
Rp49
ag10
(g14
S'l\xe6\x9f\xc5\xc0\xaf}@'
p50
tp51
Rp52
ag10
(g14
S'\xdc\xd7\xbd\xe0\n\xbf}@'
p53
tp54
Rp55
ag10
(g14
S'\xe8\xa5\x91\xa9Pd}@'
p56
tp57
Rp58
ag10
(g14
S'Wa\x82XYM}@'
p59
tp60
Rp61
ag10
(g14
S'\x03f\x80R\xf0\x89}@'
p62
tp63
Rp64
ag10
(g14
S'+Tt\xdfp[}@'
p65
tp66
Rp67
ag10
(g14
S'\xa3\x0e\n\x11\xc89~@'
p68
tp69
Rp70
ag10
(g14
S'd:\xf82\xb8\x91}@'
p71
tp72
Rp73
ag10
(g14
S'\x170V:{X}@'
p74
tp75
Rp76
asS'target'
p77
(lp78
g10
(g14
S'\x13<\xa9\xa8\xc0\t$@'
p79
tp80
Rp81
ag10
(g14
S'Y\xc2\xfd\x8eb\x97&@'
p82
tp83
Rp84
ag10
(g14
S"\xd9R\x82'\x85\xa9$@"
p85
tp86
Rp87
ag10
(g14
S"'\xb2{\xb2\xfb\t$@"
p88
tp89
Rp90
ag10
(g14
S'\tI.\x07\xa9N$@'
p91
tp92
Rp93
ag10
(g14
S'\xb8\x0c\x92/S\x8a,@'
p94
tp95
Rp96
ag10
(g14
S'\x1c\x03\xf1D\x00w,@'
p97
tp98
Rp99
ag10
(g14
S'\x07/\x0b\x8f\xb1~2@'
p100
tp101
Rp102
ag10
(g14
S'\xfa\xc2t.\xb2t0@'
p103
tp104
Rp105
ag10
(g14
S'\xc9\xf3=\x9bV()@'
p106
tp107
Rp108
ag10
(g14
S'f\xf5B\xc6{\x1d$@'
p109
tp110
Rp111
ag10
(g14
S'\x12)XP\xa6\xe8#@'
p112
tp113
Rp114
ag10
(g14
S'\xa6@\xd2\x7f\xbdT(@'
p115
tp116
Rp117
ag10
(g14
S'\x96\xed\xb501\x850@'
p118
tp119
Rp120
ag10
(g14
S'&\xe2\x9d\xdf_\xe3$@'
p121
tp122
Rp123
ag10
(g14
S'\xad|\xd5\x96um2@'
p124
tp125
Rp126
ag10
(g14
S'\xbcX3Nn\x8f-@'
p127
tp128
Rp129
ag10
(g14
S'\xb95:\xad\xa6i$@'
p130
tp131
Rp132
ag10
(g14
S'\x11]vj\xc1\xb9+@'
p133
tp134
Rp135
ag10
(g14
S'\x9b\x810\x9c\r)/@'
p136
tp137
Rp138
asssss.