(dp0
S'../Data/spear_7.csv'
p1
(dp2
S'../Data/spear_9.csv'
p3
(dp4
F0.25
(dp5
S'rank'
p6
(dp7
S'bellwether'
p8
(lp9
I6
aI2
aI27
aI10
aI0
aI31
aI18
aI1
aI36
aI7
aI8
aI27
aI6
aI7
aI19
aI0
aI79
aI0
aI30
aI58
asS'target'
p10
(lp11
I0
aI0
aI0
aI0
aI0
aI0
aI0
aI0
aI0
aI1
aI1
aI0
aI1
aI0
aI0
aI0
aI2
aI0
aI1
aI0
asssss.