(dp0
S'../Data/spear_8.csv'
p1
(dp2
S'../Data/spear_6.csv'
p3
(dp4
F0.05
(dp5
S'mmre'
p6
(dp7
S'bellwether'
p8
(lp9
cnumpy.core.multiarray
scalar
p10
(cnumpy
dtype
p11
(S'f8'
p12
I0
I1
tp13
Rp14
(I3
S'<'
p15
NNNI-1
I-1
I0
tp16
bS'^Yv\xc8@@L@'
p17
tp18
Rp19
ag10
(g14
S'Ng\xc2\xe3kRL@'
p20
tp21
Rp22
ag10
(g14
S'8\xaa\xd8\xc2\xd3FL@'
p23
tp24
Rp25
ag10
(g14
S'.?o\xb2\xa3=L@'
p26
tp27
Rp28
ag10
(g14
S'S\x96\x99!+XL@'
p29
tp30
Rp31
ag10
(g14
S'\xe3c\x1a\xf9\xebAL@'
p32
tp33
Rp34
ag10
(g14
S'"\xd0\xa6VuBL@'
p35
tp36
Rp37
ag10
(g14
S'(&D\xcb\xc0NL@'
p38
tp39
Rp40
ag10
(g14
S'\x8a\x92\xd4\xff\xccPL@'
p41
tp42
Rp43
ag10
(g14
S'\x08\xe4``\xd4eL@'
p44
tp45
Rp46
ag10
(g14
S'\xda\x07G\x00\xa3IL@'
p47
tp48
Rp49
ag10
(g14
S')\xc2\x1b\x8a\xc3DL@'
p50
tp51
Rp52
ag10
(g14
S'\x0b\xa3\x83bX^L@'
p53
tp54
Rp55
ag10
(g14
S'Ar\x85\xc1\xd3RL@'
p56
tp57
Rp58
ag10
(g14
S'\xdc}\xa0\x990WL@'
p59
tp60
Rp61
ag10
(g14
S'\x9e\x80\xf3\x08)cL@'
p62
tp63
Rp64
ag10
(g14
S'8\xf4\xe6\xf9\xb1TL@'
p65
tp66
Rp67
ag10
(g14
S'%\x06\\\x97\xd3@L@'
p68
tp69
Rp70
ag10
(g14
S't@[\xec\xc8RL@'
p71
tp72
Rp73
ag10
(g14
S'\xba\xc4\xb4\x94\xe9mL@'
p74
tp75
Rp76
asS'target'
p77
(lp78
g10
(g14
S'\xc4\x97\xa0J/h2@'
p79
tp80
Rp81
ag10
(g14
S'(\x81\x9f<\xf2\xe90@'
p82
tp83
Rp84
ag10
(g14
S'\xcd\xe8\xae\xf8\xf4i0@'
p85
tp86
Rp87
ag10
(g14
S'\xe7\xd2,\r\x1c\xe51@'
p88
tp89
Rp90
ag10
(g14
S'\xac/\\i\x83\x133@'
p91
tp92
Rp93
ag10
(g14
S'\xe8b3F\xca\xa85@'
p94
tp95
Rp96
ag10
(g14
S'^\xde\xfap\x9b\xdf1@'
p97
tp98
Rp99
ag10
(g14
S'\x18`A\xf7)\x941@'
p100
tp101
Rp102
ag10
(g14
S'\xd1\xeb \x11\xf5\x941@'
p103
tp104
Rp105
ag10
(g14
S'@((t\xcd\xb32@'
p106
tp107
Rp108
ag10
(g14
S'\x10\x84}/\x81\x053@'
p109
tp110
Rp111
ag10
(g14
S'\x83\xdcB\x8aU\xe42@'
p112
tp113
Rp114
ag10
(g14
S'\x89\xf5^\xaa\x18)3@'
p115
tp116
Rp117
ag10
(g14
S'OFYY`N0@'
p118
tp119
Rp120
ag10
(g14
S'\xb5_\xa5<\xb3\x143@'
p121
tp122
Rp123
ag10
(g14
S'\xad\xdcu\xf6=g1@'
p124
tp125
Rp126
ag10
(g14
S'\x9d\xe2\xcd\xbd\x1c\xde1@'
p127
tp128
Rp129
ag10
(g14
S'z\r\x8eE\xf214@'
p130
tp131
Rp132
ag10
(g14
S'.\xa3\x85`\xe9&2@'
p133
tp134
Rp135
ag10
(g14
S'\xfd0f\xf9\xc1\xff1@'
p136
tp137
Rp138
asssss.