(dp0
S'../Data/sac_5.csv'
p1
(dp2
S'../Data/sac_7.csv'
p3
(dp4
F0.35
(dp5
S'rank'
p6
(dp7
S'bellwether'
p8
(lp9
I409
aI404
aI385
aI422
aI415
aI396
aI406
aI404
aI399
aI393
aI411
aI425
aI415
aI390
aI394
aI396
aI396
aI406
aI433
aI403
asS'target'
p10
(lp11
I90
aI122
aI77
aI124
aI91
aI101
aI89
aI89
aI42
aI114
aI111
aI93
aI96
aI110
aI174
aI173
aI169
aI91
aI82
aI115
asssss.