(dp0
S'../Data/sac_9.csv'
p1
(dp2
S'../Data/sac_6.csv'
p3
(dp4
F0.1
(dp5
S'mmre'
p6
(dp7
S'bellwether'
p8
(lp9
cnumpy.core.multiarray
scalar
p10
(cnumpy
dtype
p11
(S'f8'
p12
I0
I1
tp13
Rp14
(I3
S'<'
p15
NNNI-1
I-1
I0
tp16
bS'g\xf1\xfcX\xa6/}@'
p17
tp18
Rp19
ag10
(g14
S'\xf7\xb2\x8a\x98\xd7\x1d}@'
p20
tp21
Rp22
ag10
(g14
S'\xf8i\xe5@\x88\xa3}@'
p23
tp24
Rp25
ag10
(g14
S'\x95ZlEr\xbf|@'
p26
tp27
Rp28
ag10
(g14
S'}\xea\x87MWm}@'
p29
tp30
Rp31
ag10
(g14
S'\xa4=\x97|\xc4e}@'
p32
tp33
Rp34
ag10
(g14
S'\xc6\xb8$\x8e\x98L}@'
p35
tp36
Rp37
ag10
(g14
S'\x88\x80\xeaz3\x18~@'
p38
tp39
Rp40
ag10
(g14
S' \x8aT\xcd]L}@'
p41
tp42
Rp43
ag10
(g14
S'\xf9\xd8^5*\xdf}@'
p44
tp45
Rp46
ag10
(g14
S'\xd8INc\x1b\xb1}@'
p47
tp48
Rp49
ag10
(g14
S'\x01&\xa6\xd9\xb4\xeb}@'
p50
tp51
Rp52
ag10
(g14
S'\xc0\x13]1.\xd7|@'
p53
tp54
Rp55
ag10
(g14
S'i4a~I"}@'
p56
tp57
Rp58
ag10
(g14
S'\x1c\xdeJ\x95\x95m}@'
p59
tp60
Rp61
ag10
(g14
S'\x80\xcd&A\xc9V}@'
p62
tp63
Rp64
ag10
(g14
S'\x10\xf6p\x94X\xc8}@'
p65
tp66
Rp67
ag10
(g14
S'\xe2\xdcU\x7fz\xaa|@'
p68
tp69
Rp70
ag10
(g14
S'T\xacO\x14B)}@'
p71
tp72
Rp73
ag10
(g14
S'E#\xed\rJ\xaa}@'
p74
tp75
Rp76
asS'target'
p77
(lp78
g10
(g14
S'\x8e}\x82\xea\xf68A@'
p79
tp80
Rp81
ag10
(g14
S'\r\x17<\x15\xda\x8d3@'
p82
tp83
Rp84
ag10
(g14
S'\xb4\\N\tZ\x0eF@'
p85
tp86
Rp87
ag10
(g14
S'\x9e\x82\x9bzb\xff;@'
p88
tp89
Rp90
ag10
(g14
S'\xac\xae|I\xee\\2@'
p91
tp92
Rp93
ag10
(g14
S'y\xb5@\xd8\x0b\x060@'
p94
tp95
Rp96
ag10
(g14
S'i\xc3\xc08^d@@'
p97
tp98
Rp99
ag10
(g14
S'0\x7f\xf8\xaa\xa5G2@'
p100
tp101
Rp102
ag10
(g14
S'{\xcb}2\xff\x892@'
p103
tp104
Rp105
ag10
(g14
S'\xf9\x02j~\x88\xf1L@'
p106
tp107
Rp108
ag10
(g14
S'\t\xea\x02J\xf0\x830@'
p109
tp110
Rp111
ag10
(g14
S'K1\xa8g\x0fe3@'
p112
tp113
Rp114
ag10
(g14
S'\x11$\xf35/\x95A@'
p115
tp116
Rp117
ag10
(g14
S'\x9e;\x92(w)0@'
p118
tp119
Rp120
ag10
(g14
S'\xeeZYP\xeejF@'
p121
tp122
Rp123
ag10
(g14
S'L\xa0\xb6\xd0E\xb7?@'
p124
tp125
Rp126
ag10
(g14
S'\xa97+\x0fm<4@'
p127
tp128
Rp129
ag10
(g14
S'\xa9\xdcT\x88\xda\xa65@'
p130
tp131
Rp132
ag10
(g14
S'\x90Gg\xa0g\xe31@'
p133
tp134
Rp135
ag10
(g14
S'\x8d&s\x1f\xa0)2@'
p136
tp137
Rp138
asssss.