(dp0
S'../Data/sac_0.csv'
p1
(dp2
S'../Data/sac_2.csv'
p3
(dp4
F0.1
(dp5
S'rank'
p6
(dp7
S'bellwether'
p8
(lp9
I2757
aI2771
aI2772
aI2760
aI2770
aI2764
aI2755
aI2776
aI2749
aI2753
aI2318
aI2765
aI2767
aI2749
aI2750
aI2763
aI2770
aI2759
aI2739
aI2763
asS'target'
p10
(lp11
I0
aI37
aI0
aI0
aI0
aI11
aI101
aI0
aI215
aI21
aI0
aI0
aI32
aI26
aI9
aI0
aI962
aI0
aI28
aI0
asssss.