(dp0
S'../Data/sac_9.csv'
p1
(dp2
S'../Data/sac_7.csv'
p3
(dp4
F0.35
(dp5
S'mmre'
p6
(dp7
S'bellwether'
p8
(lp9
cnumpy.core.multiarray
scalar
p10
(cnumpy
dtype
p11
(S'f8'
p12
I0
I1
tp13
Rp14
(I3
S'<'
p15
NNNI-1
I-1
I0
tp16
bS'`\x88\xd5R\x8b\xa9w@'
p17
tp18
Rp19
ag10
(g14
S'6\xa4\xc0q.\xacw@'
p20
tp21
Rp22
ag10
(g14
S'i\x88\xedU\xce\xedw@'
p23
tp24
Rp25
ag10
(g14
S'8z\x81\x18\xff\xb8v@'
p26
tp27
Rp28
ag10
(g14
S'\xc4k\xfe\x9d#2x@'
p29
tp30
Rp31
ag10
(g14
S'\x80\xaby\r\xeeaw@'
p32
tp33
Rp34
ag10
(g14
S'\xea\\\xefV\x87dx@'
p35
tp36
Rp37
ag10
(g14
S'R^B7p\nx@'
p38
tp39
Rp40
ag10
(g14
S'\\\x808I\xb1~w@'
p41
tp42
Rp43
ag10
(g14
S'e\x90\xa8\x039\xe2v@'
p44
tp45
Rp46
ag10
(g14
S'` N}\xabaw@'
p47
tp48
Rp49
ag10
(g14
S'ovC\x8c\xd7\\x@'
p50
tp51
Rp52
ag10
(g14
S'gc\x90\x9bEHw@'
p53
tp54
Rp55
ag10
(g14
S'r#\x17n\x1f9w@'
p56
tp57
Rp58
ag10
(g14
S'M\xccTLg\x1bx@'
p59
tp60
Rp61
ag10
(g14
S'I\xd7\x81[j\xa0w@'
p62
tp63
Rp64
ag10
(g14
S'\x0ej.\xb8\x0b\xedw@'
p65
tp66
Rp67
ag10
(g14
S'\x0b\x88\xf9\xa7\xcaXw@'
p68
tp69
Rp70
ag10
(g14
S'smN\xec\xf1%w@'
p71
tp72
Rp73
ag10
(g14
S'\t\xbf\xe5\x7f\xa1Zx@'
p74
tp75
Rp76
asS'target'
p77
(lp78
g10
(g14
S'V\x99\x08\x1fL\x0c3@'
p79
tp80
Rp81
ag10
(g14
S'gn\x85\xb7b\xae@@'
p82
tp83
Rp84
ag10
(g14
S'a\x19\x15:\xc1\xbd8@'
p85
tp86
Rp87
ag10
(g14
S"\x8d]\x8b'\xa9=2@"
p88
tp89
Rp90
ag10
(g14
S'\x10\x03\x06\x9a\x19e<@'
p91
tp92
Rp93
ag10
(g14
S'6i)HN^0@'
p94
tp95
Rp96
ag10
(g14
S'\xc3k2@\x8c41@'
p97
tp98
Rp99
ag10
(g14
S'Z\xe8t~\xbf\xee<@'
p100
tp101
Rp102
ag10
(g14
S')\xd5\x8f\xdaH\x18<@'
p103
tp104
Rp105
ag10
(g14
S'\x0f\x10^\xf0\x9b\xf5<@'
p106
tp107
Rp108
ag10
(g14
S'\xbd-\x00\xae\x8a\x152@'
p109
tp110
Rp111
ag10
(g14
S'\x1e\x08\xe8\t\xa2\xd91@'
p112
tp113
Rp114
ag10
(g14
S'\xcc\xd9<g 3=@'
p115
tp116
Rp117
ag10
(g14
S'\x80\x97\xc2\xdegu0@'
p118
tp119
Rp120
ag10
(g14
S'\xa5\xaf\x0b\xfea`2@'
p121
tp122
Rp123
ag10
(g14
S'7Q\xf8^\xe1V4@'
p124
tp125
Rp126
ag10
(g14
S'8\xd5G\xb6\x0e\x08A@'
p127
tp128
Rp129
ag10
(g14
S'\xde\x9b\xcc\xe8\x90\xd31@'
p130
tp131
Rp132
ag10
(g14
S'\xdf\xb9\xedk\xcdg8@'
p133
tp134
Rp135
ag10
(g14
S'S5\x1c\xb0\x1f\xd75@'
p136
tp137
Rp138
asssss.