(dp0
S'../Data/sac_6.csv'
p1
(dp2
S'../Data/sac_2.csv'
p3
(dp4
F0.4
(dp5
S'rank'
p6
(dp7
S'bellwether'
p8
(lp9
I417
aI375
aI82
aI78
aI113
aI193
aI378
aI365
aI339
aI91
aI67
aI411
aI355
aI404
aI388
aI459
aI395
aI365
aI403
aI45
asS'target'
p10
(lp11
I1
aI0
aI0
aI1
aI2
aI1
aI2537
aI0
aI1
aI0
aI1
aI1
aI3
aI0
aI0
aI0
aI1
aI1
aI2
aI8
asssss.