(dp0
S'../Data/sac_4.csv'
p1
(dp2
S'../Data/sac_7.csv'
p3
(dp4
F0.2
(dp5
S'mmre'
p6
(dp7
S'bellwether'
p8
(lp9
cnumpy.core.multiarray
scalar
p10
(cnumpy
dtype
p11
(S'f8'
p12
I0
I1
tp13
Rp14
(I3
S'<'
p15
NNNI-1
I-1
I0
tp16
bS'\xe8\x14x\xe1\xb7IX@'
p17
tp18
Rp19
ag10
(g14
S'\xe3]g\xe7\xfcHX@'
p20
tp21
Rp22
ag10
(g14
S'\x01e\x87\x89\x1aIX@'
p23
tp24
Rp25
ag10
(g14
S' \xeaD3\xd5JX@'
p26
tp27
Rp28
ag10
(g14
S'&Q\xc3-uIX@'
p29
tp30
Rp31
ag10
(g14
S'\xdf\xdf\xfb\t\x9bHX@'
p32
tp33
Rp34
ag10
(g14
S'\x9bx\xaeyoIX@'
p35
tp36
Rp37
ag10
(g14
S'oe78\x15HX@'
p38
tp39
Rp40
ag10
(g14
S'$f\r\x18XKX@'
p41
tp42
Rp43
ag10
(g14
S'\x83la\xf6\xa7MX@'
p44
tp45
Rp46
ag10
(g14
S'#\x9dT\x16\xacGX@'
p47
tp48
Rp49
ag10
(g14
S"/\x89'?DHX@"
p50
tp51
Rp52
ag10
(g14
S'\xfc\xd9:\x94\x07LX@'
p53
tp54
Rp55
ag10
(g14
S'\x93\xb0\xad\xfb\xceIX@'
p56
tp57
Rp58
ag10
(g14
S'e\x1b\xdaE\xf3IX@'
p59
tp60
Rp61
ag10
(g14
S'\xaf\x16\xa5(\xeeJX@'
p62
tp63
Rp64
ag10
(g14
S'\x18\xe1!\x8bZIX@'
p65
tp66
Rp67
ag10
(g14
S'\xa1\x83:\x94\xc9IX@'
p68
tp69
Rp70
ag10
(g14
S'\x08\xcfq}\x98JX@'
p71
tp72
Rp73
ag10
(g14
S'\xd1\x17\xcc\xe1\xa4GX@'
p74
tp75
Rp76
asS'target'
p77
(lp78
g10
(g14
S'\xf0*@R\xd2\x804@'
p79
tp80
Rp81
ag10
(g14
S'Jd%\x82\x8d0D@'
p82
tp83
Rp84
ag10
(g14
S'KWEY\xf1%5@'
p85
tp86
Rp87
ag10
(g14
S'\xa4\x1b\xc5j\xb8\xb94@'
p88
tp89
Rp90
ag10
(g14
S'\xb0\xc1bF\x1dm>@'
p91
tp92
Rp93
ag10
(g14
S'\xe8\xd8\xe5\xde2,6@'
p94
tp95
Rp96
ag10
(g14
S'\xff\xe6{\x13\xb3\xa5:@'
p97
tp98
Rp99
ag10
(g14
S'\x85r@\xd8\xc212@'
p100
tp101
Rp102
ag10
(g14
S'\xd6y%m\xad\xda1@'
p103
tp104
Rp105
ag10
(g14
S'y\x9b\xb5\xd7\x90\xeeI@'
p106
tp107
Rp108
ag10
(g14
S'b\x85\xcd\x8e\x8a^6@'
p109
tp110
Rp111
ag10
(g14
S'0\x04n\xf2\x02\xd93@'
p112
tp113
Rp114
ag10
(g14
S'\x10dQ\x13P\x1f2@'
p115
tp116
Rp117
ag10
(g14
S'\xdac\xe0a\x18\xa73@'
p118
tp119
Rp120
ag10
(g14
S'(\x0c@A\xc5G4@'
p121
tp122
Rp123
ag10
(g14
S'\xbe\xef\x87\x18\x98\xeb@@'
p124
tp125
Rp126
ag10
(g14
S'x\xd5\x93oF)1@'
p127
tp128
Rp129
ag10
(g14
S'*\xa7\x1a\xb0\x1c\xb40@'
p130
tp131
Rp132
ag10
(g14
S'\xbd!\xa4\xe4%\x9bC@'
p133
tp134
Rp135
ag10
(g14
S'8\x9d\xb30\xca\x1f?@'
p136
tp137
Rp138
asssss.