(dp0
S'../Data/sac_4.csv'
p1
(dp2
S'../Data/sac_8.csv'
p3
(dp4
F0.4
(dp5
S'mmre'
p6
(dp7
S'bellwether'
p8
(lp9
cnumpy.core.multiarray
scalar
p10
(cnumpy
dtype
p11
(S'f8'
p12
I0
I1
tp13
Rp14
(I3
S'<'
p15
NNNI-1
I-1
I0
tp16
bS'\xa5\x93@:\xedmX@'
p17
tp18
Rp19
ag10
(g14
S'6\xa17\x8d\xb8mX@'
p20
tp21
Rp22
ag10
(g14
S'\xbe\r"\x17\x92pX@'
p23
tp24
Rp25
ag10
(g14
S'oF\x8d\x07noX@'
p26
tp27
Rp28
ag10
(g14
S"'\xcah\r\xa6rX@"
p29
tp30
Rp31
ag10
(g14
S'\xecrEz4qX@'
p32
tp33
Rp34
ag10
(g14
S':\x97\x18J\x07rX@'
p35
tp36
Rp37
ag10
(g14
S'\xa4gQ]\x9esX@'
p38
tp39
Rp40
ag10
(g14
S'u\x84=\xcftqX@'
p41
tp42
Rp43
ag10
(g14
S'\x15\x98\x92\x10\x8fwX@'
p44
tp45
Rp46
ag10
(g14
S'\x92\xb1h\xfdWmX@'
p47
tp48
Rp49
ag10
(g14
S'\xee\xa4\x8f\x04JpX@'
p50
tp51
Rp52
ag10
(g14
S'\xa3\x01\xb5\x9a\xeesX@'
p53
tp54
Rp55
ag10
(g14
S'\x8c\xcc\xa3r\x9cpX@'
p56
tp57
Rp58
ag10
(g14
S's\xceBv\x1cnX@'
p59
tp60
Rp61
ag10
(g14
S'\x88\x9b\xa8qfpX@'
p62
tp63
Rp64
ag10
(g14
S'\x11\xfb\xd2}\rmX@'
p65
tp66
Rp67
ag10
(g14
S'\xfe\x13\xa1\xf5\x02nX@'
p68
tp69
Rp70
ag10
(g14
S'\xa9\xa6Y\xd4^qX@'
p71
tp72
Rp73
ag10
(g14
S'\xc1\x1d\x90\xa5\x00lX@'
p74
tp75
Rp76
asS'target'
p77
(lp78
g10
(g14
S'\xe4*\x86#\xf8\x8e8@'
p79
tp80
Rp81
ag10
(g14
S'\xe5\x00\xa1\xb0\xda\xef8@'
p82
tp83
Rp84
ag10
(g14
S'90\xd2F\xb5O3@'
p85
tp86
Rp87
ag10
(g14
S'x\xec\xbd"\xe6\x04E@'
p88
tp89
Rp90
ag10
(g14
S'\x99ww\xf9\xeeW1@'
p91
tp92
Rp93
ag10
(g14
S'\xa7y\xb8\xca\xd7\xcd2@'
p94
tp95
Rp96
ag10
(g14
S'\x9d\x89\xccFy\xecP@'
p97
tp98
Rp99
ag10
(g14
S'`\xe3^\xeda:4@'
p100
tp101
Rp102
ag10
(g14
S'\xe6\xf5F^\xcbp4@'
p103
tp104
Rp105
ag10
(g14
S'\x94>\xb0\xa5\xd2g3@'
p106
tp107
Rp108
ag10
(g14
S'h)\xbbb\x14T2@'
p109
tp110
Rp111
ag10
(g14
S'\xca\x9f\x9d)z\xc32@'
p112
tp113
Rp114
ag10
(g14
S'\xed6\xed\xc0\x8cJ1@'
p115
tp116
Rp117
ag10
(g14
S'd\\\x18A\\\x841@'
p118
tp119
Rp120
ag10
(g14
S'\xc6\xed{SNn3@'
p121
tp122
Rp123
ag10
(g14
S'i7L\x82\x8a\x979@'
p124
tp125
Rp126
ag10
(g14
S'\x88\x9b-\x9a\x02\x194@'
p127
tp128
Rp129
ag10
(g14
S'\\\xf1\x18\x83?\x15:@'
p130
tp131
Rp132
ag10
(g14
S'\xe3\xcf@\x8bptE@'
p133
tp134
Rp135
ag10
(g14
S'\x06f~\xf3\x0c\xe13@'
p136
tp137
Rp138
asssss.