(dp0
S'../Data/sac_2.csv'
p1
(dp2
S'../Data/sac_8.csv'
p3
(dp4
F0.05
(dp5
S'mmre'
p6
(dp7
S'bellwether'
p8
(lp9
cnumpy.core.multiarray
scalar
p10
(cnumpy
dtype
p11
(S'f8'
p12
I0
I1
tp13
Rp14
(I3
S'<'
p15
NNNI-1
I-1
I0
tp16
bS'bp\xe9\x1b\xacsW@'
p17
tp18
Rp19
ag10
(g14
S'T\xb8\xfe\x13\xa7uW@'
p20
tp21
Rp22
ag10
(g14
S'\xa7kSTKwW@'
p23
tp24
Rp25
ag10
(g14
S'~/0:\x16xW@'
p26
tp27
Rp28
ag10
(g14
S'\xbdD\xb8\xdb{zW@'
p29
tp30
Rp31
ag10
(g14
S'\x99=\x89\xfc\xa8xW@'
p32
tp33
Rp34
ag10
(g14
S'>GO\xfeXtW@'
p35
tp36
Rp37
ag10
(g14
S'vK*q${W@'
p38
tp39
Rp40
ag10
(g14
S'\x12\r\xe1x\xa4{W@'
p41
tp42
Rp43
ag10
(g14
S'\x90\xb9\xf9\xe5FzW@'
p44
tp45
Rp46
ag10
(g14
S'g\xd0>\xbc\x7fxW@'
p47
tp48
Rp49
ag10
(g14
S'\x9f\x8d\xb06\xc4vW@'
p50
tp51
Rp52
ag10
(g14
S'S\x9aG\xce\xb2vW@'
p53
tp54
Rp55
ag10
(g14
S'\x80\x91\x7f\xce\x18|W@'
p56
tp57
Rp58
ag10
(g14
S'p\xee\xdd\xe9\x13|W@'
p59
tp60
Rp61
ag10
(g14
S'\xe1\xc3\xfc\xae\x88yW@'
p62
tp63
Rp64
ag10
(g14
S'\xcb\xff\x18\xb2\xfbvW@'
p65
tp66
Rp67
ag10
(g14
S'%-\xf4\xd6\xcbvW@'
p68
tp69
Rp70
ag10
(g14
S'\xa7\xcck\xf6TrW@'
p71
tp72
Rp73
ag10
(g14
S"\xc1\x1f\xed'u\x7fW@"
p74
tp75
Rp76
asS'target'
p77
(lp78
g10
(g14
S'\x81\xab\x0b?otC@'
p79
tp80
Rp81
ag10
(g14
S'F\x9a\x9cG\xa7\xffn@'
p82
tp83
Rp84
ag10
(g14
S"\xb8!'wd\\a@"
p85
tp86
Rp87
ag10
(g14
S'I\xce\xb4\xfa\xe6\x97d@'
p88
tp89
Rp90
ag10
(g14
S'RZ[\xb33\xe3B@'
p91
tp92
Rp93
ag10
(g14
S'\x07\xc7\xdc\xcb(5a@'
p94
tp95
Rp96
ag10
(g14
S'\xaa\xb3\xf3C\xb8Y9@'
p97
tp98
Rp99
ag10
(g14
S'\x02O-\x7f\xdc\xe1N@'
p100
tp101
Rp102
ag10
(g14
S'a\xc5\x1a\xb3\\\xe0G@'
p103
tp104
Rp105
ag10
(g14
S'\xdf\xdf_:T\x9bp@'
p106
tp107
Rp108
ag10
(g14
S'sZ\xfeK\x07ZN@'
p109
tp110
Rp111
ag10
(g14
S'\x9a=\x19\x94\x88;9@'
p112
tp113
Rp114
ag10
(g14
S'\xcd\x80\x0bG\x84\x10c@'
p115
tp116
Rp117
ag10
(g14
S'\x901y\x80$/P@'
p118
tp119
Rp120
ag10
(g14
S"\xa4\x99X'\xcd-S@"
p121
tp122
Rp123
ag10
(g14
S'\xb7`Y\x1f\xf3\xdaP@'
p124
tp125
Rp126
ag10
(g14
S'~\x89\x19\xb7\x8b\x8bS@'
p127
tp128
Rp129
ag10
(g14
S'\xcb_\xce<,\xc67@'
p130
tp131
Rp132
ag10
(g14
S' "\xb5\x98\xdeUR@'
p133
tp134
Rp135
ag10
(g14
S'sE\xfb\x02\xbe6v@'
p136
tp137
Rp138
asssss.