(dp0
S'../Data/sac_4.csv'
p1
(dp2
S'../Data/sac_7.csv'
p3
(dp4
F0.3
(dp5
S'mmre'
p6
(dp7
S'bellwether'
p8
(lp9
cnumpy.core.multiarray
scalar
p10
(cnumpy
dtype
p11
(S'f8'
p12
I0
I1
tp13
Rp14
(I3
S'<'
p15
NNNI-1
I-1
I0
tp16
bS'\xfa\x84&EdHX@'
p17
tp18
Rp19
ag10
(g14
S'\xce\xa0oflFX@'
p20
tp21
Rp22
ag10
(g14
S'?\x1d~!\xd9DX@'
p23
tp24
Rp25
ag10
(g14
S'\xc0\xcc\xe2\xbdtGX@'
p26
tp27
Rp28
ag10
(g14
S'\xaaA)\xc8\xedGX@'
p29
tp30
Rp31
ag10
(g14
S'l$\xb6 \xd0GX@'
p32
tp33
Rp34
ag10
(g14
S'\x06Kp\xb3\xfaJX@'
p35
tp36
Rp37
ag10
(g14
S'\xc5\x83i+mGX@'
p38
tp39
Rp40
ag10
(g14
S'\xef"q\x1a\x9eGX@'
p41
tp42
Rp43
ag10
(g14
S"'o\x88d\xdcFX@"
p44
tp45
Rp46
ag10
(g14
S'\xc3~\x14\xa7#HX@'
p47
tp48
Rp49
ag10
(g14
S'\x1f5(\xb7CGX@'
p50
tp51
Rp52
ag10
(g14
S'\xb4\x90\xcb\xec\xf5GX@'
p53
tp54
Rp55
ag10
(g14
S'\xad\xd7\xe8-\xb3KX@'
p56
tp57
Rp58
ag10
(g14
S'\x86c\xd1\xd3\x05EX@'
p59
tp60
Rp61
ag10
(g14
S'\x06/^])HX@'
p62
tp63
Rp64
ag10
(g14
S'M\xd0\xde\xa1&NX@'
p65
tp66
Rp67
ag10
(g14
S'a\x85*e\xe8HX@'
p68
tp69
Rp70
ag10
(g14
S"\xfbH\xa6\xba'EX@"
p71
tp72
Rp73
ag10
(g14
S'\r9\xc6U5IX@'
p74
tp75
Rp76
asS'target'
p77
(lp78
g10
(g14
S'\x87\xf2^\xe4\xd0\xd86@'
p79
tp80
Rp81
ag10
(g14
S'\xcf\x9a\xa8`\xb7R2@'
p82
tp83
Rp84
ag10
(g14
S'\x92\x1d|\x124\xb5E@'
p85
tp86
Rp87
ag10
(g14
S'\x0fmi\xb8\xc5TG@'
p88
tp89
Rp90
ag10
(g14
S'A\x83\x1b\x1b\xa1\xe71@'
p91
tp92
Rp93
ag10
(g14
S'2\x1e\xe89\xc5\xdbA@'
p94
tp95
Rp96
ag10
(g14
S'\xe8v\xa0\xbcR\xbf1@'
p97
tp98
Rp99
ag10
(g14
S'\x9a0O\xff\xdc\x944@'
p100
tp101
Rp102
ag10
(g14
S'\x9f=\x96(q\x18@@'
p103
tp104
Rp105
ag10
(g14
S'\xa8iq\x99\xce43@'
p106
tp107
Rp108
ag10
(g14
S'Hr\xd2\x8b\xef\xd81@'
p109
tp110
Rp111
ag10
(g14
S"\x1f'h\xf5\xa2\x052@"
p112
tp113
Rp114
ag10
(g14
S'\xee\xa1\x1bf\x1fM9@'
p115
tp116
Rp117
ag10
(g14
S'\x02\xe2)\xeb\x8a\x181@'
p118
tp119
Rp120
ag10
(g14
S'\xbc\xcb\x89\xde\x19D5@'
p121
tp122
Rp123
ag10
(g14
S"q\xd9\x0b]\x0f'2@"
p124
tp125
Rp126
ag10
(g14
S'\x8d:K\x90\x98,=@'
p127
tp128
Rp129
ag10
(g14
S'\x19\xbe"z\xfe\xa1?@'
p130
tp131
Rp132
ag10
(g14
S'zy\x1c|\x9a\x10>@'
p133
tp134
Rp135
ag10
(g14
S'\r\x00}\xeb\xcc\xca5@'
p136
tp137
Rp138
asssss.