(dp0
S'../Data/sac_5.csv'
p1
(dp2
S'../Data/sac_4.csv'
p3
(dp4
F0.2
(dp5
S'abs_res'
p6
(dp7
S'bellwether'
p8
(lp9
cnumpy.core.multiarray
scalar
p10
(cnumpy
dtype
p11
(S'f8'
p12
I0
I1
tp13
Rp14
(I3
S'<'
p15
NNNI-1
I-1
I0
tp16
bS'\xbcX\xf2\xeb^\xed,A'
p17
tp18
Rp19
ag10
(g14
S'\xe8z\x14\xae\xb7\xcf,A'
p20
tp21
Rp22
ag10
(g14
S'i\xc9/v\xbaU,A'
p23
tp24
Rp25
ag10
(g14
S'\xf3\x8b%?:g,A'
p26
tp27
Rp28
ag10
(g14
S'\xe0@\xa7mA\xe0,A'
p29
tp30
Rp31
ag10
(g14
S'\x10\xd7\xa3p:\x87-A'
p32
tp33
Rp34
ag10
(g14
S'\t:m\xa0\xb4\xae,A'
p35
tp36
Rp37
ag10
(g14
S'\x1e"""\x1c\x05,A'
p38
tp39
Rp40
ag10
(g14
S'!\xe8\xb4aP\r-A'
p41
tp42
Rp43
ag10
(g14
S'P\n\xd7\x03\x076,A'
p44
tp45
Rp46
ag10
(g14
S'R\x1b\xe8\x94\rZ-A'
p47
tp48
Rp49
ag10
(g14
S'\x14\xaeG\x01vK,A'
p50
tp51
Rp52
ag10
(g14
S'h,\xf9%;\x93,A'
p53
tp54
Rp55
ag10
(g14
S'C\xe1zt\xe4\xa7,A'
p56
tp57
Rp58
ag10
(g14
S'\x8a\xc2\xf5(\xf8},A'
p59
tp60
Rp61
ag10
(g14
S'\xc5\x1e\x85K\xe2\x90,A'
p62
tp63
Rp64
ag10
(g14
S':\xd0iC|2,A'
p65
tp66
Rp67
ag10
(g14
S'\xdf\xdd\xdd\xddI\x99,A'
p68
tp69
Rp70
ag10
(g14
S'\xda\xb4\x81nKW,A'
p71
tp72
Rp73
ag10
(g14
S'sffFn\xaf,A'
p74
tp75
Rp76
asS'target'
p77
(lp78
g10
(g14
S'E\xf5(\\\x8f\xces@'
p79
tp80
Rp81
ag10
(g14
S'%\x85\xebQ\xb8Nn@'
p82
tp83
Rp84
ag10
(g14
S'@\xebQ\xb8\x1e\xadr@'
p85
tp86
Rp87
ag10
(g14
S'\xd8[\x8f\xc2\xf5\x98s@'
p88
tp89
Rp90
ag10
(g14
S'\xf4\xadG\xe1z\x06q@'
p91
tp92
Rp93
ag10
(g14
S'\x91G\xe1z\x14fq@'
p94
tp95
Rp96
ag10
(g14
S'\t=\n\xd7\xa3\xe4r@'
p97
tp98
Rp99
ag10
(g14
S'\xa2efff\xeeu@'
p100
tp101
Rp102
ag10
(g14
S'\x1f3333\xc7p@'
p103
tp104
Rp105
ag10
(g14
S'\x1cffffVs@'
p106
tp107
Rp108
ag10
(g14
S'\xe6\xb7\x1e\x85\xeb)w@'
p109
tp110
Rp111
ag10
(g14
S'`\xebQ\xb8\x1eAq@'
p112
tp113
Rp114
ag10
(g14
S'x\x8e\xc2\xf5(\xbc~@'
p115
tp116
Rp117
ag10
(g14
S'\x8e\xa3p=\n\xadt@'
p118
tp119
Rp120
ag10
(g14
S'K\x14\xaeG\xe1\xeaq@'
p121
tp122
Rp123
ag10
(g14
S'\x86Q\xb8\x1e\x85+t@'
p124
tp125
Rp126
ag10
(g14
S'1\xcc\xcc\xcc\xcc w@'
p127
tp128
Rp129
ag10
(g14
S'*p=\n\xd7St@'
p130
tp131
Rp132
ag10
(g14
S'S\xebQ\xb8\x1ecq@'
p133
tp134
Rp135
ag10
(g14
S'J\xcc\xcc\xcc\xcc\xe4t@'
p136
tp137
Rp138
asssss.