(dp0
S'../Data/sac_9.csv'
p1
(dp2
S'../Data/sac_4.csv'
p3
(dp4
F0.3
(dp5
S'abs_res'
p6
(dp7
S'bellwether'
p8
(lp9
cnumpy.core.multiarray
scalar
p10
(cnumpy
dtype
p11
(S'f8'
p12
I0
I1
tp13
Rp14
(I3
S'<'
p15
NNNI-1
I-1
I0
tp16
bS'x,\xf9\xe5\x05A/A'
p17
tp18
Rp19
ag10
(g14
S"'\x85\xeb1Ko.A"
p20
tp21
Rp22
ag10
(g14
S'\x85,\xf9E\xab\x92.A'
p23
tp24
Rp25
ag10
(g14
S'\xbe\xfcbI\x90\x1c/A'
p26
tp27
Rp28
ag10
(g14
S'=\xaeG\xe1{\xae.A'
p29
tp30
Rp31
ag10
(g14
S'\xe7\xe4\x17+\xf2\x16.A'
p32
tp33
Rp34
ag10
(g14
S'bDD\xe4\xe7\xe2-A'
p35
tp36
Rp37
ag10
(g14
S'v~\xb1\xc4\xa5\x1f/A'
p38
tp39
Rp40
ag10
(g14
S'$R\xb8\xde\x06\xaa.A'
p41
tp42
Rp43
ag10
(g14
S'3\x9d6\xd0R\xb5.A'
p44
tp45
Rp46
ag10
(g14
S'\x98_,\x99k\x8e/A'
p47
tp48
Rp49
ag10
(g14
S'\x9c\x14\xae\x07\x88N.A'
p50
tp51
Rp52
ag10
(g14
S'\xba\x88\x88\xc8d\x9b.A'
p53
tp54
Rp55
ag10
(g14
S'\xa1\xebQx\x89\xaa.A'
p56
tp57
Rp58
ag10
(g14
S'\x88\x03\x9dV\x84\x85.A'
p59
tp60
Rp61
ag10
(g14
S']\xbfX2\x08\xea.A'
p62
tp63
Rp64
ag10
(g14
S'mDD\x049\xc5.A'
p65
tp66
Rp67
ag10
(g14
S'iDDd\xaf$/A'
p68
tp69
Rp70
ag10
(g14
S'T\xa7\r\x14WF.A'
p71
tp72
Rp73
ag10
(g14
S'\x1c)\\o\xbdu/A'
p74
tp75
Rp76
asS'target'
p77
(lp78
g10
(g14
S'x\x99\x99\x99\x99\xd5p@'
p79
tp80
Rp81
ag10
(g14
S'a\x99\x99\x99\x99\xc1q@'
p82
tp83
Rp84
ag10
(g14
S's\xb8\x1e\x85\xeb)n@'
p85
tp86
Rp87
ag10
(g14
S'\\\xebQ\xb8\x1e\x83r@'
p88
tp89
Rp90
ag10
(g14
S'M\n\xd7\xa3p=j@'
p91
tp92
Rp93
ag10
(g14
S'\xcaG\xe1z\x14\x06j@'
p94
tp95
Rp96
ag10
(g14
S'\xeb\xd6\xa3p=:m@'
p97
tp98
Rp99
ag10
(g14
S'R\xb8\x1e\x85\xeb#p@'
p100
tp101
Rp102
ag10
(g14
S'f\xc2\xf5(\\\x07q@'
p103
tp104
Rp105
ag10
(g14
S'\x98p=\n\xd7\xfbn@'
p106
tp107
Rp108
ag10
(g14
S'o\xf5(\\\x8fFs@'
p109
tp110
Rp111
ag10
(g14
S'lffffvi@'
p112
tp113
Rp114
ag10
(g14
S'YG\xe1z\x14\xf2r@'
p115
tp116
Rp117
ag10
(g14
S'\xf6\xd6\xa3p=~p@'
p118
tp119
Rp120
ag10
(g14
S'pp=\n\xd7\x97p@'
p121
tp122
Rp123
ag10
(g14
S'>\x85\xebQ\xb8\xfej@'
p124
tp125
Rp126
ag10
(g14
S'\x1e\xd7\xa3p=\x8am@'
p127
tp128
Rp129
ag10
(g14
S'\xb42333cs@'
p130
tp131
Rp132
ag10
(g14
S'\xd6\xa3p=\n\xb7g@'
p133
tp134
Rp135
ag10
(g14
S'\xf9\xd6\xa3p=Vm@'
p136
tp137
Rp138
asssss.