(dp0
S'sac_9'
p1
(dp2
S'sac_8'
p3
(dp4
S'abs_res'
p5
(lp6
cnumpy.core.multiarray
scalar
p7
(cnumpy
dtype
p8
(S'f8'
p9
I0
I1
tp10
Rp11
(I3
S'<'
p12
NNNI-1
I-1
I0
tp13
bS'X\x8f\xc2\xf5d\xbb\xf7@'
p14
tp15
Rp16
ag7
(g11
S'Y\x8f\xc2\xf5d\xbb\xf7@'
p17
tp18
Rp19
ag7
(g11
S'X\x8f\xc2\xf5d\xbb\xf7@'
p20
tp21
Rp22
asS'mmre'
p23
(lp24
g7
(g11
S'\xbdg\xd9\xa5s\xd0d@'
p25
tp26
Rp27
ag7
(g11
S'\xbbg\xd9\xa5s\xd0d@'
p28
tp29
Rp30
ag7
(g11
S'\xbdg\xd9\xa5s\xd0d@'
p31
tp32
Rp33
asS'rank'
p34
(lp35
I507
aI507
aI507
assS'sac_7'
p36
(dp37
S'abs_res'
p38
(lp39
g7
(g11
S'\xc7\xf5(\\S\xc9\x11A'
p40
tp41
Rp42
ag7
(g11
S'\xc7\xf5(\\S\xc9\x11A'
p43
tp44
Rp45
ag7
(g11
S'\xc7\xf5(\\S\xc9\x11A'
p46
tp47
Rp48
asS'mmre'
p49
(lp50
g7
(g11
S'\xb8\xe2( \xd2\xbdw@'
p51
tp52
Rp53
ag7
(g11
S'\xb9\xe2( \xd2\xbdw@'
p54
tp55
Rp56
ag7
(g11
S'\xb8\xe2( \xd2\xbdw@'
p57
tp58
Rp59
asS'rank'
p60
(lp61
I514
aI514
aI514
assS'sac_6'
p62
(dp63
S'abs_res'
p64
(lp65
g7
(g11
S'\x8d\xc2\xf5(\xfe\xa6\x10A'
p66
tp67
Rp68
ag7
(g11
S'\x8d\xc2\xf5(\xfe\xa6\x10A'
p69
tp70
Rp71
ag7
(g11
S'\x8d\xc2\xf5(\xfe\xa6\x10A'
p72
tp73
Rp74
asS'mmre'
p75
(lp76
g7
(g11
S'\x0c#q\x93\x92j}@'
p77
tp78
Rp79
ag7
(g11
S'\x0c#q\x93\x92j}@'
p80
tp81
Rp82
ag7
(g11
S'\x0c#q\x93\x92j}@'
p83
tp84
Rp85
asS'rank'
p86
(lp87
I491
aI491
aI491
assS'sac_5'
p88
(dp89
S'abs_res'
p90
(lp91
g7
(g11
S'\xd6\xa3p=\x99]\x08A'
p92
tp93
Rp94
ag7
(g11
S'\xd6\xa3p=\x99]\x08A'
p95
tp96
Rp97
ag7
(g11
S'\xd6\xa3p=\x99]\x08A'
p98
tp99
Rp100
asS'mmre'
p101
(lp102
g7
(g11
S'bx\x00x\xe1\xac\xe1@'
p103
tp104
Rp105
ag7
(g11
S'bx\x00x\xe1\xac\xe1@'
p106
tp107
Rp108
ag7
(g11
S'bx\x00x\xe1\xac\xe1@'
p109
tp110
Rp111
asS'rank'
p112
(lp113
I491
aI491
aI491
assS'sac_4'
p114
(dp115
S'abs_res'
p116
(lp117
g7
(g11
S'\xddG\xe1\xfaZ\xf05A'
p118
tp119
Rp120
ag7
(g11
S'\xfe/\x96\xbc\t\xff5A'
p121
tp122
Rp123
ag7
(g11
S'\xcc\xd3\x06\xfa\x82\xde5A'
p124
tp125
Rp126
asS'mmre'
p127
(lp128
g7
(g11
S'\x1a\x9f{a\x90\xa5\xd2@'
p129
tp130
Rp131
ag7
(g11
S'\xda\xba^\x8d%\xc8\xd2@'
p132
tp133
Rp134
ag7
(g11
S'\x8c\x92\xb2\xcf\xf9\xa8\xd2@'
p135
tp136
Rp137
asS'rank'
p138
(lp139
I4757
aI4757
aI4757
assS'sac_3'
p140
(dp141
S'abs_res'
p142
(lp143
g7
(g11
S'\x8e_,\xa9H#5A'
p144
tp145
Rp146
ag7
(g11
S'\xf3\xc5\x92\x1fw\x165A'
p147
tp148
Rp149
ag7
(g11
S'\xa5\rt\x8a\xc1\x195A'
p150
tp151
Rp152
asS'mmre'
p153
(lp154
g7
(g11
S'|\xd5\x06\x97~T\xa4@'
p155
tp156
Rp157
ag7
(g11
S'\xa9[$\xb6\x8dP\xa4@'
p158
tp159
Rp160
ag7
(g11
S'@x\x98\x91\xbdS\xa4@'
p161
tp162
Rp163
asS'rank'
p164
(lp165
I4718
aI4718
aI4784
assS'sac_2'
p166
(dp167
S'abs_res'
p168
(lp169
g7
(g11
S'8\xa7\r\x14\xfaU5A'
p170
tp171
Rp172
ag7
(g11
S'\x12\xe8\xb4\xa1\x98V5A'
p173
tp174
Rp175
ag7
(g11
S'|N\x1b\x88wh5A'
p176
tp177
Rp178
asS'mmre'
p179
(lp180
g7
(g11
S'\xe95qB\xff\xc6\xba@'
p181
tp182
Rp183
ag7
(g11
S'\t\x0c\xbe?e\xfa\xba@'
p184
tp185
Rp186
ag7
(g11
S'\xdd\x95N@\x98\x08\xbb@'
p187
tp188
Rp189
asS'rank'
p190
(lp191
I4960
aI4960
aI4741
assS'sac_1'
p192
(dp193
S'abs_res'
p194
(lp195
g7
(g11
S'\xba\xe4\x17:?\x12qA'
p196
tp197
Rp198
ag7
(g11
S'\x0c:m0\xf9 qA'
p199
tp200
Rp201
ag7
(g11
S'\x08t\xdaF\xc0\x0cqA'
p202
tp203
Rp204
asS'mmre'
p205
(lp206
g7
(g11
S'\xd8{\xc0\x80Ep\xba@'
p207
tp208
Rp209
ag7
(g11
S'\xe8\xcf\x19\xcb\x04c\xba@'
p210
tp211
Rp212
ag7
(g11
S'3\xd9\xd3&\xf2H\xba@'
p213
tp214
Rp215
asS'rank'
p216
(lp217
I62788
aI62788
aI62788
assS'sac_0'
p218
(dp219
S'abs_res'
p220
(lp221
g7
(g11
S'f!"!\xdfkqA'
p222
tp223
Rp224
ag7
(g11
S'\xe9\xd2\x06\xa1/}qA'
p225
tp226
Rp227
ag7
(g11
S'V\xd6\xa3\x07\xa6^qA'
p228
tp229
Rp230
asS'mmre'
p231
(lp232
g7
(g11
S'8up\xbd\xfb\xfd\xd2@'
p233
tp234
Rp235
ag7
(g11
S'\xec\xb1\xbf\x800\xf6\xd2@'
p236
tp237
Rp238
ag7
(g11
S'\xd9\x8cO+\xb6\x04\xd3@'
p239
tp240
Rp241
asS'rank'
p242
(lp243
I56029
aI56029
aI56029
asssS'sac_8'
p244
(dp245
S'sac_9'
p246
(dp247
S'abs_res'
p248
(lp249
g7
(g11
S'\xdd\xdd\xdd\xdd\xa3\xcf\xf7@'
p250
tp251
Rp252
ag7
(g11
S'\xdd\xdd\xdd\xdd\xa3\xcf\xf7@'
p253
tp254
Rp255
ag7
(g11
S'\xdd\xdd\xdd\xdd\xa3\xcf\xf7@'
p256
tp257
Rp258
asS'mmre'
p259
(lp260
g7
(g11
S'\x15\x08Pe\xdd\x9e\xa9@'
p261
tp262
Rp263
ag7
(g11
S'\x15\x08Pe\xdd\x9e\xa9@'
p264
tp265
Rp266
ag7
(g11
S'\x15\x08Pe\xdd\x9e\xa9@'
p267
tp268
Rp269
asS'rank'
p270
(lp271
I142
aI142
aI142
assS'sac_7'
p272
(dp273
S'abs_res'
p274
(lp275
g7
(g11
S'\xa6\rt\xda\xdaO\x0cA'
p276
tp277
Rp278
ag7
(g11
S'\xa8\rt\xda\xdaO\x0cA'
p279
tp280
Rp281
ag7
(g11
S'\xa7\rt\xda\xdaO\x0cA'
p282
tp283
Rp284
asS'mmre'
p285
(lp286
g7
(g11
S'\xd0\xcb.\nq\x88e@'
p287
tp288
Rp289
ag7
(g11
S'\xd0\xcb.\nq\x88e@'
p290
tp291
Rp292
ag7
(g11
S'\xd0\xcb.\nq\x88e@'
p293
tp294
Rp295
asS'rank'
p296
(lp297
I448
aI448
aI448
assS'sac_6'
p298
(dp299
S'abs_res'
p300
(lp301
g7
(g11
S'offf\xc2\xcb\nA'
p302
tp303
Rp304
ag7
(g11
S'offf\xc2\xcb\nA'
p305
tp306
Rp307
ag7
(g11
S'offf\xc2\xcb\nA'
p308
tp309
Rp310
asS'mmre'
p311
(lp312
g7
(g11
S'\x92D~\x1a\xefVi@'
p313
tp314
Rp315
ag7
(g11
S'\x92D~\x1a\xefVi@'
p316
tp317
Rp318
ag7
(g11
S'\x90D~\x1a\xefVi@'
p319
tp320
Rp321
asS'rank'
p322
(lp323
I200
aI200
aI200
assS'sac_5'
p324
(dp325
S'abs_res'
p326
(lp327
g7
(g11
S'\x80\x14\xaeG\x01\x0f\x05A'
p328
tp329
Rp330
ag7
(g11
S'\x80\x14\xaeG\x01\x0f\x05A'
p331
tp332
Rp333
ag7
(g11
S'\x80\x14\xaeG\x01\x0f\x05A'
p334
tp335
Rp336
asS'mmre'
p337
(lp338
g7
(g11
S'J\xbb\r\xeb\x08\x8c\xe3@'
p339
tp340
Rp341
ag7
(g11
S'J\xbb\r\xeb\x08\x8c\xe3@'
p342
tp343
Rp344
ag7
(g11
S'J\xbb\r\xeb\x08\x8c\xe3@'
p345
tp346
Rp347
asS'rank'
p348
(lp349
I110
aI110
aI110
assS'sac_4'
p350
(dp351
S'abs_res'
p352
(lp353
g7
(g11
S'\x91\xfcby\xb8F1A'
p354
tp355
Rp356
ag7
(g11
S'\xaf\xe4\x17;1A1A'
p357
tp358
Rp359
ag7
(g11
S'L\xb8\x1e\xd5HE1A'
p360
tp361
Rp362
asS'mmre'
p363
(lp364
g7
(g11
S'\xa4\xc6\x8fji\xb5\xca@'
p365
tp366
Rp367
ag7
(g11
S'1\xc3\xf4\xb2;\xa0\xca@'
p368
tp369
Rp370
ag7
(g11
S'\xb3f\xc7S\x81\xa0\xca@'
p371
tp372
Rp373
asS'rank'
p374
(lp375
I1040
aI1040
aI1040
assS'sac_3'
p376
(dp377
S'abs_res'
p378
(lp379
g7
(g11
S'\x00)\\?\xa7B0A'
p380
tp381
Rp382
ag7
(g11
S'\xbf\x81N\xdb\xe3:0A'
p383
tp384
Rp385
ag7
(g11
S'NDD$[70A'
p386
tp387
Rp388
asS'mmre'
p389
(lp390
g7
(g11
S':\x9d\x11\xf3\x0c=\x9a@'
p391
tp392
Rp393
ag7
(g11
S'\xf5\xd7\x86\xbf\x95E\x9a@'
p394
tp395
Rp396
ag7
(g11
S'}6\x04TK<\x9a@'
p397
tp398
Rp399
asS'rank'
p400
(lp401
I1988
aI1988
aI1988
assS'sac_2'
p402
(dp403
S'abs_res'
p404
(lp405
g7
(g11
S'1""\x02g\x820A'
p406
tp407
Rp408
ag7
(g11
S':\\\x8f\xc2\xb8\x910A'
p409
tp410
Rp411
ag7
(g11
S'\xfc\x8b%_\x9e\x8b0A'
p412
tp413
Rp414
asS'mmre'
p415
(lp416
g7
(g11
S'\x9e\xfe7\xd6U\xac\xac@'
p417
tp418
Rp419
ag7
(g11
S'\x84\x86\x9c\xf2\xe5\xb9\xac@'
p420
tp421
Rp422
ag7
(g11
S'z\x82W<\\\xd3\xac@'
p423
tp424
Rp425
asS'rank'
p426
(lp427
I2189
aI2189
aI2189
assS'sac_1'
p428
(dp429
S'abs_res'
p430
(lp431
g7
(g11
S'1\xf6(Je>kA'
p432
tp433
Rp434
ag7
(g11
S'\xb2\xebQ\x8c\x80\x17kA'
p435
tp436
Rp437
ag7
(g11
S'\x11{\x14Fb\x1akA'
p438
tp439
Rp440
asS'mmre'
p441
(lp442
g7
(g11
S'.PY\x12\xc3\xef\xb6@'
p443
tp444
Rp445
ag7
(g11
S'\x98\n\x01X\xe6\xc6\xb6@'
p446
tp447
Rp448
ag7
(g11
S'\xd0\xda\xc9\x9f\x08\xd8\xb6@'
p449
tp450
Rp451
asS'rank'
p452
(lp453
I7191
aI7191
aI7191
assS'sac_0'
p454
(dp455
S'abs_res'
p456
(lp457
g7
(g11
S'n\x80N\x7f\xc6\xdbkA'
p458
tp459
Rp460
ag7
(g11
S'\xcc\xbdX"\x1e\xdfkA'
p461
tp462
Rp463
ag7
(g11
S'\x1b\x9f\xd34Q\xd1kA'
p464
tp465
Rp466
asS'mmre'
p467
(lp468
g7
(g11
S'\xf2.\xe2\xdc\x91\xd0\xcf@'
p469
tp470
Rp471
ag7
(g11
S'\x95\x96\x8c5U\xd9\xcf@'
p472
tp473
Rp474
ag7
(g11
S'\xec\xadu\xabh\xe7\xcf@'
p475
tp476
Rp477
asS'rank'
p478
(lp479
I21826
aI21826
aI21826
asssS'sac_7'
p480
(dp481
S'sac_9'
p482
(dp483
S'abs_res'
p484
(lp485
g7
(g11
S'\xc3\xf5(\\S\xc9\x11A'
p486
tp487
Rp488
ag7
(g11
S'\xc3\xf5(\\S\xc9\x11A'
p489
tp490
Rp491
ag7
(g11
S'\xc3\xf5(\\S\xc9\x11A'
p492
tp493
Rp494
asS'mmre'
p495
(lp496
g7
(g11
S'-\xd1\x16\x97\xbe\x95\xa4@'
p497
tp498
Rp499
ag7
(g11
S'-\xd1\x16\x97\xbe\x95\xa4@'
p500
tp501
Rp502
ag7
(g11
S'-\xd1\x16\x97\xbe\x95\xa4@'
p503
tp504
Rp505
asS'rank'
p506
(lp507
I491
aI491
aI491
assS'sac_8'
p508
(dp509
S'abs_res'
p510
(lp511
g7
(g11
S'y\xa0\xd3\x06\x12N\x0cA'
p512
tp513
Rp514
ag7
(g11
S'y\xa0\xd3\x06\x12N\x0cA'
p515
tp516
Rp517
ag7
(g11
S'y\xa0\xd3\x06\x12N\x0cA'
p518
tp519
Rp520
asS'mmre'
p521
(lp522
g7
(g11
S'I"f\x0e\xbb\x08r@'
p523
tp524
Rp525
ag7
(g11
S'I"f\x0e\xbb\x08r@'
p526
tp527
Rp528
ag7
(g11
S'I"f\x0e\xbb\x08r@'
p529
tp530
Rp531
asS'rank'
p532
(lp533
I293
aI293
aI293
assS'sac_6'
p534
(dp535
S'abs_res'
p536
(lp537
g7
(g11
S'.333\xdb\x9b\xe0@'
p538
tp539
Rp540
ag7
(g11
S'.333\xdb\x9b\xe0@'
p541
tp542
Rp543
ag7
(g11
S'-333\xdb\x9b\xe0@'
p544
tp545
Rp546
asS'mmre'
p547
(lp548
g7
(g11
S'3V;\xfe-uH@'
p549
tp550
Rp551
ag7
(g11
S'3V;\xfe-uH@'
p552
tp553
Rp554
ag7
(g11
S'3V;\xfe-uH@'
p555
tp556
Rp557
asS'rank'
p558
(lp559
I115
aI115
aI115
assS'sac_5'
p560
(dp561
S'abs_res'
p562
(lp563
g7
(g11
S'\xfd\xff\xff\xff\x9f\x92\x00A'
p564
tp565
Rp566
ag7
(g11
S'\xfd\xff\xff\xff\x9f\x92\x00A'
p567
tp568
Rp569
ag7
(g11
S'\xfd\xff\xff\xff\x9f\x92\x00A'
p570
tp571
Rp572
asS'mmre'
p573
(lp574
g7
(g11
S'\x9fRZ1\xb0\x9f\xc1@'
p575
tp576
Rp577
ag7
(g11
S'\x9fRZ1\xb0\x9f\xc1@'
p578
tp579
Rp580
ag7
(g11
S'\x9fRZ1\xb0\x9f\xc1@'
p581
tp582
Rp583
asS'rank'
p584
(lp585
I313
aI313
aI313
assS'sac_4'
p586
(dp587
S'abs_res'
p588
(lp589
g7
(g11
S"\x9e\x99\x999\xfbz'A"
p590
tp591
Rp592
ag7
(g11
S"\x0b\x9d6\x10\x0fo'A"
p593
tp594
Rp595
ag7
(g11
S"\xd9i\x03\x1d\x1eY'A"
p596
tp597
Rp598
asS'mmre'
p599
(lp600
g7
(g11
S'\x91\xa90\x9c\xcf\xbe\xc9@'
p601
tp602
Rp603
ag7
(g11
S'\xf7a \xee\xd7\xbb\xc9@'
p604
tp605
Rp606
ag7
(g11
S'3dH\t\xb4\xb5\xc9@'
p607
tp608
Rp609
asS'rank'
p610
(lp611
I3740
aI3740
aI3740
assS'sac_3'
p612
(dp613
S'abs_res'
p614
(lp615
g7
(g11
S'9m\xa0\xb3\x04T%A'
p616
tp617
Rp618
ag7
(g11
S'\xa0\xd3\x06\xfa@H%A'
p619
tp620
Rp621
ag7
(g11
S'\xef\x8b%?\xeaT%A'
p622
tp623
Rp624
asS'mmre'
p625
(lp626
g7
(g11
S"R7'\xe8\x0cQ\xa1@"
p627
tp628
Rp629
ag7
(g11
S':\x83&7EG\xa1@'
p630
tp631
Rp632
ag7
(g11
S'\x1f\xecESEG\xa1@'
p633
tp634
Rp635
asS'rank'
p636
(lp637
I3916
aI3916
aI3916
assS'sac_2'
p638
(dp639
S'abs_res'
p640
(lp641
g7
(g11
S'm,\xf9E\xcf\x13&A'
p642
tp643
Rp644
ag7
(g11
S'\xc0\xe4\x17\xab\xe2\x0b&A'
p645
tp646
Rp647
ag7
(g11
S'\xf8\xb4\x81.n\x12&A'
p648
tp649
Rp650
asS'mmre'
p651
(lp652
g7
(g11
S'\x04\x82\x14\xe6\t\xc4\xba@'
p653
tp654
Rp655
ag7
(g11
S'e\xd2\xe1\xdf\xab\xc5\xba@'
p656
tp657
Rp658
ag7
(g11
S'\xd1\xaf\x82#\xb5\xcb\xba@'
p659
tp660
Rp661
asS'rank'
p662
(lp663
I3848
aI3848
aI3848
assS'sac_1'
p664
(dp665
S'abs_res'
p666
(lp667
g7
(g11
S'\xd4\\\x8f\xe6qNdA'
p668
tp669
Rp670
ag7
(g11
S'\x93\x18KH\xd7@dA'
p671
tp672
Rp673
ag7
(g11
S'R0\x96\xb02GdA'
p674
tp675
Rp676
asS'mmre'
p677
(lp678
g7
(g11
S'3\xab|C\x14\xdd\xb4@'
p679
tp680
Rp681
ag7
(g11
S'\x0c\x8af\xd9[\xdb\xb4@'
p682
tp683
Rp684
ag7
(g11
S'\xd0t\x8c\x07\x0b\xdf\xb4@'
p685
tp686
Rp687
asS'rank'
p688
(lp689
I30154
aI30154
aI30154
assS'sac_0'
p690
(dp691
S'abs_res'
p692
(lp693
g7
(g11
S'TN\x1bBl\xf1dA'
p694
tp695
Rp696
ag7
(g11
S'\x86\rt\xca\x9e\xd8dA'
p697
tp698
Rp699
ag7
(g11
S'\x8e\x92_zO\xecdA'
p700
tp701
Rp702
asS'mmre'
p703
(lp704
g7
(g11
S'Av\x98\xbbD\x15\xcf@'
p705
tp706
Rp707
ag7
(g11
S'\x16\xb5\xc9\xab\xa1\x1c\xcf@'
p708
tp709
Rp710
ag7
(g11
S'r\xb0\xb7\xc5|C\xcf@'
p711
tp712
Rp713
asS'rank'
p714
(lp715
I44875
aI44875
aI44875
asssS'sac_6'
p716
(dp717
S'sac_9'
p718
(dp719
S'abs_res'
p720
(lp721
g7
(g11
S'\x8a\xc2\xf5(\xfe\xa6\x10A'
p722
tp723
Rp724
ag7
(g11
S'\x8a\xc2\xf5(\xfe\xa6\x10A'
p725
tp726
Rp727
ag7
(g11
S'\x8a\xc2\xf5(\xfe\xa6\x10A'
p728
tp729
Rp730
asS'mmre'
p731
(lp732
g7
(g11
S'p\xfb\xda\xa9|d\xa1@'
p733
tp734
Rp735
ag7
(g11
S'p\xfb\xda\xa9|d\xa1@'
p736
tp737
Rp738
ag7
(g11
S'q\xfb\xda\xa9|d\xa1@'
p739
tp740
Rp741
asS'rank'
p742
(lp743
I32
aI32
aI32
assS'sac_8'
p744
(dp745
S'abs_res'
p746
(lp747
g7
(g11
S'mfff\xc2\xcb\nA'
p748
tp749
Rp750
ag7
(g11
S'mfff\xc2\xcb\nA'
p751
tp752
Rp753
ag7
(g11
S'mfff\xc2\xcb\nA'
p754
tp755
Rp756
asS'mmre'
p757
(lp758
g7
(g11
S'9U\x95/\xb3@s@'
p759
tp760
Rp761
ag7
(g11
S'9U\x95/\xb3@s@'
p762
tp763
Rp764
ag7
(g11
S'9U\x95/\xb3@s@'
p765
tp766
Rp767
asS'rank'
p768
(lp769
I135
aI135
aI135
assS'sac_7'
p770
(dp771
S'abs_res'
p772
(lp773
g7
(g11
S'\x02\x00\x00\x000\xf2\xe0@'
p774
tp775
Rp776
ag7
(g11
S'\x03\x00\x00\x000\xf2\xe0@'
p777
tp778
Rp779
ag7
(g11
S'\x02\x00\x00\x000\xf2\xe0@'
p780
tp781
Rp782
asS'mmre'
p783
(lp784
g7
(g11
S'\xb7^LO?~A@'
p785
tp786
Rp787
ag7
(g11
S'\xb7^LO?~A@'
p788
tp789
Rp790
ag7
(g11
S'\xb7^LO?~A@'
p791
tp792
Rp793
asS'rank'
p794
(lp795
I233
aI233
aI233
assS'sac_5'
p796
(dp797
S'abs_res'
p798
(lp799
g7
(g11
S'\xce\xcc\xcc\xcc\xc8\xf5\x00A'
p800
tp801
Rp802
ag7
(g11
S'\xce\xcc\xcc\xcc\xc8\xf5\x00A'
p803
tp804
Rp805
ag7
(g11
S'\xce\xcc\xcc\xcc\xc8\xf5\x00A'
p806
tp807
Rp808
asS'mmre'
p809
(lp810
g7
(g11
S'x\xbc\xe2\xa8\xc6p\xcd@'
p811
tp812
Rp813
ag7
(g11
S'x\xbc\xe2\xa8\xc6p\xcd@'
p814
tp815
Rp816
ag7
(g11
S'x\xbc\xe2\xa8\xc6p\xcd@'
p817
tp818
Rp819
asS'rank'
p820
(lp821
I107
aI107
aI107
assS'sac_4'
p822
(dp823
S'abs_res'
p824
(lp825
g7
(g11
S'qDDd\xabZ,A'
p826
tp827
Rp828
ag7
(g11
S'\xbc%\xbfx\xa2Z,A'
p829
tp830
Rp831
ag7
(g11
S'\x9c\xa0\xd3\xa6\xf9a,A'
p832
tp833
Rp834
asS'mmre'
p835
(lp836
g7
(g11
S'n%\xf3\xb3z~\xce@'
p837
tp838
Rp839
ag7
(g11
S'E\xb0\xa8`\x9e~\xce@'
p840
tp841
Rp842
ag7
(g11
S'k \t\xb4\x10~\xce@'
p843
tp844
Rp845
asS'rank'
p846
(lp847
I178
aI178
aI178
assS'sac_3'
p848
(dp849
S'abs_res'
p850
(lp851
g7
(g11
S'\xab\xe4\x17\x0b\xdc_*A'
p852
tp853
Rp854
ag7
(g11
S'F\xe1z\xd4\xc3`*A'
p855
tp856
Rp857
ag7
(g11
S'T\x8f\xc2\xf5TX*A'
p858
tp859
Rp860
asS'mmre'
p861
(lp862
g7
(g11
S'd\x00\xb6-\xdf\x87\xa3@'
p863
tp864
Rp865
ag7
(g11
S'\x98\xf9P\xff\xc5\x8b\xa3@'
p866
tp867
Rp868
ag7
(g11
S'\xf3d\xa0\xe9=\x8a\xa3@'
p869
tp870
Rp871
asS'rank'
p872
(lp873
I194
aI194
aI194
assS'sac_2'
p874
(dp875
S'abs_res'
p876
(lp877
g7
(g11
S'\xda\xa3p}r\xea*A'
p878
tp879
Rp880
ag7
(g11
S'\x06:m\x80\xc1\xf8*A'
p881
tp882
Rp883
ag7
(g11
S'\xd4\x06:\x8d\x1f\xf2*A'
p884
tp885
Rp886
asS'mmre'
p887
(lp888
g7
(g11
S'\xda\t\xb8\x07\x87\x10\xbf@'
p889
tp890
Rp891
ag7
(g11
S'\x96\xf8x\xf1\xe5\r\xbf@'
p892
tp893
Rp894
ag7
(g11
S'\xa4\xf8\xd1\xe3_\x0e\xbf@'
p895
tp896
Rp897
asS'rank'
p898
(lp899
I692
aI176
aI176
assS'sac_1'
p900
(dp901
S'abs_res'
p902
(lp903
g7
(g11
S'up= &QgA'
p904
tp905
Rp906
ag7
(g11
S'i\x81No\x8cggA'
p907
tp908
Rp909
ag7
(g11
S'\x8b\x92_L\xe4TgA'
p910
tp911
Rp912
asS'mmre'
p913
(lp914
g7
(g11
S'Ky_$+J\xb6@'
p915
tp916
Rp917
ag7
(g11
S'G\x1f\xec\xaf>X\xb6@'
p918
tp919
Rp920
ag7
(g11
S'!\x04J\x98\xf0Q\xb6@'
p921
tp922
Rp923
asS'rank'
p924
(lp925
I5876
aI5876
aI5876
assS'sac_0'
p926
(dp927
S'abs_res'
p928
(lp929
g7
(g11
S'e\x17K\x0e)\xe2gA'
p930
tp931
Rp932
ag7
(g11
S'\xdcef\xda\xb0\xe3gA'
p933
tp934
Rp935
ag7
(g11
S'\x9a\xf8\xc5T\xd2\xcdgA'
p936
tp937
Rp938
asS'mmre'
p939
(lp940
g7
(g11
S'\x12\x82\xec\xb7\x94\x9c\xd0@'
p941
tp942
Rp943
ag7
(g11
S'I\xf7\xdb\x84\xa5\xa1\xd0@'
p944
tp945
Rp946
ag7
(g11
S'\x9d\x1c\x08\x05\x81\xa3\xd0@'
p947
tp948
Rp949
asS'rank'
p950
(lp951
I7736
aI7736
aI7736
asssS'sac_5'
p952
(dp953
S'sac_9'
p954
(dp955
S'abs_res'
p956
(lp957
g7
(g11
S'-\\\x8f\xc2\x97Y\x08A'
p958
tp959
Rp960
ag7
(g11
S'-\\\x8f\xc2\x97Y\x08A'
p961
tp962
Rp963
ag7
(g11
S'-\\\x8f\xc2\x97Y\x08A'
p964
tp965
Rp966
asS'mmre'
p967
(lp968
g7
(g11
S'\x10%\xf0\xf0\x12\xae\xad@'
p969
tp970
Rp971
ag7
(g11
S'\x10%\xf0\xf0\x12\xae\xad@'
p972
tp973
Rp974
ag7
(g11
S'\x10%\xf0\xf0\x12\xae\xad@'
p975
tp976
Rp977
asS'rank'
p978
(lp979
I696
aI696
aI696
assS'sac_8'
p980
(dp981
S'abs_res'
p982
(lp983
g7
(g11
S'\xd8@\xa7\r\x91\xe4\x04A'
p984
tp985
Rp986
ag7
(g11
S'\xd8@\xa7\r\x91\xe4\x04A'
p987
tp988
Rp989
ag7
(g11
S'\xd8@\xa7\r\x91\xe4\x04A'
p990
tp991
Rp992
asS'mmre'
p993
(lp994
g7
(g11
S'\\k\xac\xbc*+t@'
p995
tp996
Rp997
ag7
(g11
S'\\k\xac\xbc*+t@'
p998
tp999
Rp1000
ag7
(g11
S'\\k\xac\xbc*+t@'
p1001
tp1002
Rp1003
asS'rank'
p1004
(lp1005
I743
aI743
aI743
assS'sac_7'
p1006
(dp1007
S'abs_res'
p1008
(lp1009
g7
(g11
S'\xfb\xff\xff\xff\x9f\x92\x00A'
p1010
tp1011
Rp1012
ag7
(g11
S'\xfb\xff\xff\xff\x9f\x92\x00A'
p1013
tp1014
Rp1015
ag7
(g11
S'\xfb\xff\xff\xff\x9f\x92\x00A'
p1016
tp1017
Rp1018
asS'mmre'
p1019
(lp1020
g7
(g11
S'V\x1d&\xbd\xd4\x8ci@'
p1021
tp1022
Rp1023
ag7
(g11
S'V\x1d&\xbd\xd4\x8ci@'
p1024
tp1025
Rp1026
ag7
(g11
S'V\x1d&\xbd\xd4\x8ci@'
p1027
tp1028
Rp1029
asS'rank'
p1030
(lp1031
I612
aI612
aI612
assS'sac_6'
p1032
(dp1033
S'abs_res'
p1034
(lp1035
g7
(g11
S',\\\x8f\xc2\x0f\xfa\x00A'
p1036
tp1037
Rp1038
ag7
(g11
S',\\\x8f\xc2\x0f\xfa\x00A'
p1039
tp1040
Rp1041
ag7
(g11
S',\\\x8f\xc2\x0f\xfa\x00A'
p1042
tp1043
Rp1044
asS'mmre'
p1045
(lp1046
g7
(g11
S'k\xab%+\xb0\x94r@'
p1047
tp1048
Rp1049
ag7
(g11
S'k\xab%+\xb0\x94r@'
p1050
tp1051
Rp1052
ag7
(g11
S'k\xab%+\xb0\x94r@'
p1053
tp1054
Rp1055
asS'rank'
p1056
(lp1057
I596
aI596
aI596
assS'sac_4'
p1058
(dp1059
S'abs_res'
p1060
(lp1061
g7
(g11
S'\xac\rt\xba\xb9\xf91A'
p1062
tp1063
Rp1064
ag7
(g11
S'GDDT\x91\xea1A'
p1065
tp1066
Rp1067
ag7
(g11
S'\x99\xfcb\xd9\x91\xe91A'
p1068
tp1069
Rp1070
asS'mmre'
p1071
(lp1072
g7
(g11
S'\x1b(\tM\x96\xa0\xd2@'
p1073
tp1074
Rp1075
ag7
(g11
S')/Kd\x8b\xa4\xd2@'
p1076
tp1077
Rp1078
ag7
(g11
S'Q\x1d\xc3&\x16\xaa\xd2@'
p1079
tp1080
Rp1081
asS'rank'
p1082
(lp1083
I4742
aI4742
aI4742
assS'sac_3'
p1084
(dp1085
S'abs_res'
p1086
(lp1087
g7
(g11
S'\xcfi\x03-bC1A'
p1088
tp1089
Rp1090
ag7
(g11
S'/\x96\xfc\x82\xba=1A'
p1091
tp1092
Rp1093
ag7
(g11
S':\n\xd7\xd3\xb1F1A'
p1094
tp1095
Rp1096
asS'mmre'
p1097
(lp1098
g7
(g11
S'\xd0\xddz\x15\xe1v\xa4@'
p1099
tp1100
Rp1101
ag7
(g11
S'\xa2-\x1c\xb0\xcd|\xa4@'
p1102
tp1103
Rp1104
ag7
(g11
S'\x8b\x19\x06B)\x95\xa4@'
p1105
tp1106
Rp1107
asS'rank'
p1108
(lp1109
I4457
aI4457
aI4457
assS'sac_2'
p1110
(dp1111
S'abs_res'
p1112
(lp1113
g7
(g11
S'.DDT9\xd11A'
p1114
tp1115
Rp1116
ag7
(g11
S'\xbd\xcc\xcc\xcc6\xce1A'
p1117
tp1118
Rp1119
ag7
(g11
S'h\xb1\xe4\xd7\xde\xcd1A'
p1120
tp1121
Rp1122
asS'mmre'
p1123
(lp1124
g7
(g11
S'H\x7f\xb2BU-\xbe@'
p1125
tp1126
Rp1127
ag7
(g11
S'ukB\xd2\xc9\x1b\xbe@'
p1128
tp1129
Rp1130
ag7
(g11
S'c\xb0L\x8fe6\xbe@'
p1131
tp1132
Rp1133
asS'rank'
p1134
(lp1135
I4545
aI4545
aI4545
assS'sac_1'
p1136
(dp1137
S'abs_res'
p1138
(lp1139
g7
(g11
S'\x89-\xf9\xbf\x98nlA'
p1140
tp1141
Rp1142
ag7
(g11
S'I;m$\xd6\xadlA'
p1143
tp1144
Rp1145
ag7
(g11
S'\x85\xa8\r\xa2\x83flA'
p1146
tp1147
Rp1148
asS'mmre'
p1149
(lp1150
g7
(g11
S'\x9d\xa2\xf3\x90\xba4\xb9@'
p1151
tp1152
Rp1153
ag7
(g11
S'\x98h\xb9\x8c\xdf=\xb9@'
p1154
tp1155
Rp1156
ag7
(g11
S'\x86/}\x7f\xbe\x93\xb8@'
p1157
tp1158
Rp1159
asS'rank'
p1160
(lp1161
I160
aI160
aI160
assS'sac_0'
p1162
(dp1163
S'abs_res'
p1164
(lp1165
g7
(g11
S'/p=\xde\x93NmA'
p1166
tp1167
Rp1168
ag7
(g11
S'\xf9\xcfi\xef\xbbEmA'
p1169
tp1170
Rp1171
ag7
(g11
S'\xc0\xbeXR\x1fGmA'
p1172
tp1173
Rp1174
asS'mmre'
p1175
(lp1176
g7
(g11
S'\xf1\xe0\xc9\r"\\\xd2@'
p1177
tp1178
Rp1179
ag7
(g11
S'\xc12\x9bH\xe7K\xd2@'
p1180
tp1181
Rp1182
ag7
(g11
S':\x9cck\x17K\xd2@'
p1183
tp1184
Rp1185
asS'rank'
p1186
(lp1187
I3034
aI3034
aI3034
asssS'sac_4'
p1188
(dp1189
S'sac_9'
p1190
(dp1191
S'abs_res'
p1192
(lp1193
g7
(g11
S'w\x14\xaeG\xd0\xe1\x11A'
p1194
tp1195
Rp1196
ag7
(g11
S'\xc9\xcc\xcc\xcc\xd0\xe1\x11A'
p1197
tp1198
Rp1199
ag7
(g11
S'\xaaG\xe1z\xd0\xe1\x11A'
p1200
tp1201
Rp1202
asS'mmre'
p1203
(lp1204
g7
(g11
S',]\xaa\xdel\x1dZ@'
p1205
tp1206
Rp1207
ag7
(g11
S'(\xb3\xc1\xffl\x1dZ@'
p1208
tp1209
Rp1210
ag7
(g11
S'\x92\xbb\xa6\x08l\x1dZ@'
p1211
tp1212
Rp1213
asS'rank'
p1214
(lp1215
I2
aI2
aI2
assS'sac_8'
p1216
(dp1217
S'abs_res'
p1218
(lp1219
g7
(g11
S'\xaf\x1e\x85\xeb\xb5\x98\rA'
p1220
tp1221
Rp1222
ag7
(g11
S'\xaf\x1e\x85\xeb\xb5\x98\rA'
p1223
tp1224
Rp1225
ag7
(g11
S'\xeb(\\\x8f\xb6\x98\rA'
p1226
tp1227
Rp1228
asS'mmre'
p1229
(lp1230
g7
(g11
S'\xbc\x8d\xc0EVpX@'
p1231
tp1232
Rp1233
ag7
(g11
S'\x18%\x8elSpX@'
p1234
tp1235
Rp1236
ag7
(g11
S'\xcb\x83$pVpX@'
p1237
tp1238
Rp1239
asS'rank'
p1240
(lp1241
I39
aI39
aI39
assS'sac_7'
p1242
(dp1243
S'abs_res'
p1244
(lp1245
g7
(g11
S'\xc5\xf5(\\\x07\xe5\x02A'
p1246
tp1247
Rp1248
ag7
(g11
S'"\x85\xebQ\x06\xe5\x02A'
p1249
tp1250
Rp1251
ag7
(g11
S'"\x85\xebQ\x06\xe5\x02A'
p1252
tp1253
Rp1254
asS'mmre'
p1255
(lp1256
g7
(g11
S'T\xa8\x9c\x97\x04IX@'
p1257
tp1258
Rp1259
ag7
(g11
S'(\x83L4\x01IX@'
p1260
tp1261
Rp1262
ag7
(g11
S'T\xa8\x9c\x97\x04IX@'
p1263
tp1264
Rp1265
asS'rank'
p1266
(lp1267
I90
aI90
aI90
assS'sac_6'
p1268
(dp1269
S'abs_res'
p1270
(lp1271
g7
(g11
S'R\xb8\x1e\x85\x1f\xcc\x04A'
p1272
tp1273
Rp1274
ag7
(g11
S'\x14\xaeG\xe1\x1e\xcc\x04A'
p1275
tp1276
Rp1277
ag7
(g11
S'\x14\xaeG\xe1\x1e\xcc\x04A'
p1278
tp1279
Rp1280
asS'mmre'
p1281
(lp1282
g7
(g11
S'\xb4)Ze\xce\x05X@'
p1283
tp1284
Rp1285
ag7
(g11
S'\xb4)Ze\xce\x05X@'
p1286
tp1287
Rp1288
ag7
(g11
S'\x94\xf4\xb9d\xd3\x05X@'
p1289
tp1290
Rp1291
asS'rank'
p1292
(lp1293
I48
aI48
aI48
assS'sac_5'
p1294
(dp1295
S'abs_res'
p1296
(lp1297
g7
(g11
S'\xb2\xf5(\\c\x8d\x0fA'
p1298
tp1299
Rp1300
ag7
(g11
S'\xb2\xf5(\\c\x8d\x0fA'
p1301
tp1302
Rp1303
ag7
(g11
S'K\x8f\xc2\xf5b\x8d\x0fA'
p1304
tp1305
Rp1306
asS'mmre'
p1307
(lp1308
g7
(g11
S'\xd6\x06\x0fi\xf3Kp@'
p1309
tp1310
Rp1311
ag7
(g11
S'\xd6\x06\x0fi\xf3Kp@'
p1312
tp1313
Rp1314
ag7
(g11
S'\x85q\x08\xfe\xf2Kp@'
p1315
tp1316
Rp1317
asS'rank'
p1318
(lp1319
I52
aI52
aI52
assS'sac_3'
p1320
(dp1321
S'abs_res'
p1322
(lp1323
g7
(g11
S'\xd3\xcc\xcc\xcc\xb0\xc7\xf0@'
p1324
tp1325
Rp1326
ag7
(g11
S'\xd3\xcc\xcc\xcc\xb0\xc7\xf0@'
p1327
tp1328
Rp1329
ag7
(g11
S'\xd3\xcc\xcc\xcc\xb0\xc7\xf0@'
p1330
tp1331
Rp1332
asS'mmre'
p1333
(lp1334
g7
(g11
S'z\xd8\xa8\x1b\x89\x8aV@'
p1335
tp1336
Rp1337
ag7
(g11
S'z\xd8\xa8\x1b\x89\x8aV@'
p1338
tp1339
Rp1340
ag7
(g11
S'z\xd8\xa8\x1b\x89\x8aV@'
p1341
tp1342
Rp1343
asS'rank'
p1344
(lp1345
I1241
aI1241
aI1241
assS'sac_2'
p1346
(dp1347
S'abs_res'
p1348
(lp1349
g7
(g11
S'\x00\xaeG\xe1Z\x96\xe6@'
p1350
tp1351
Rp1352
ag7
(g11
S'\x00\xaeG\xe1Z\x96\xe6@'
p1353
tp1354
Rp1355
ag7
(g11
S'\x00\xaeG\xe1Z\x96\xe6@'
p1356
tp1357
Rp1358
asS'mmre'
p1359
(lp1360
g7
(g11
S'i\xee[pX\xb9N@'
p1361
tp1362
Rp1363
ag7
(g11
S'i\xee[pX\xb9N@'
p1364
tp1365
Rp1366
ag7
(g11
S'i\xee[pX\xb9N@'
p1367
tp1368
Rp1369
asS'rank'
p1370
(lp1371
I1385
aI1385
aI1385
assS'sac_1'
p1372
(dp1373
S'abs_res'
p1374
(lp1375
g7
(g11
S'\xe0\xd6\xa3\xb0\xa2\x08 A'
p1376
tp1377
Rp1378
ag7
(g11
S'\xa8z\x14\xee\x9d\x03 A'
p1379
tp1380
Rp1381
ag7
(g11
S'i\n\xd7\xe3\x1a\x08 A'
p1382
tp1383
Rp1384
asS'mmre'
p1385
(lp1386
g7
(g11
S'O\xc1\xc2\xd9\xb2Y`@'
p1387
tp1388
Rp1389
ag7
(g11
S'\xc2\x11;\xbd\x84J`@'
p1390
tp1391
Rp1392
ag7
(g11
S'O@\xe8\x15vM`@'
p1393
tp1394
Rp1395
asS'rank'
p1396
(lp1397
I4862
aI4850
aI4862
assS'sac_0'
p1398
(dp1399
S'abs_res'
p1400
(lp1401
g7
(g11
S'7fff\x8f\x04\x0eA'
p1402
tp1403
Rp1404
ag7
(g11
S'\xa4\xb7\x1e\x85\xbc\x07\x0eA'
p1405
tp1406
Rp1407
ag7
(g11
S'e\x99\x99\x99{\n\x0eA'
p1408
tp1409
Rp1410
asS'mmre'
p1411
(lp1412
g7
(g11
S'E\x92\x84\xd4r!j@'
p1413
tp1414
Rp1415
ag7
(g11
S'\xae\xca\xb7\xee\xa8\x1dj@'
p1416
tp1417
Rp1418
ag7
(g11
S'\xf7$c\x89\xf6\xe8i@'
p1419
tp1420
Rp1421
asS'rank'
p1422
(lp1423
I2126
aI2454
aI2162
asssS'sac_3'
p1424
(dp1425
S'sac_9'
p1426
(dp1427
S'abs_res'
p1428
(lp1429
g7
(g11
S'H\xe1z\x14\x0b9\x11A'
p1430
tp1431
Rp1432
ag7
(g11
S'\xc3\xf5(\\\x0b9\x11A'
p1433
tp1434
Rp1435
ag7
(g11
S'H\xe1z\x14\x0b9\x11A'
p1436
tp1437
Rp1438
asS'mmre'
p1439
(lp1440
g7
(g11
S'\xecMu_\xdaL\x81@'
p1441
tp1442
Rp1443
ag7
(g11
S'\xb5\xa5\x99T\xdaL\x81@'
p1444
tp1445
Rp1446
ag7
(g11
S'\xd3A\x12\x17\xdaL\x81@'
p1447
tp1448
Rp1449
asS'rank'
p1450
(lp1451
I727
aI727
aI727
assS'sac_8'
p1452
(dp1453
S'abs_res'
p1454
(lp1455
g7
(g11
S'\xacp=\n[\x9f\x0bA'
p1456
tp1457
Rp1458
ag7
(g11
S'\x08\x00\x00\x00d\x9f\x0bA'
p1459
tp1460
Rp1461
ag7
(g11
S'\xacp=\n[\x9f\x0bA'
p1462
tp1463
Rp1464
asS'mmre'
p1465
(lp1466
g7
(g11
S'$\x87\xe2\xc7\xa8\xa8R@'
p1467
tp1468
Rp1469
ag7
(g11
S'$\x87\xe2\xc7\xa8\xa8R@'
p1470
tp1471
Rp1472
ag7
(g11
S'$\x87\xe2\xc7\xa8\xa8R@'
p1473
tp1474
Rp1475
asS'rank'
p1476
(lp1477
I682
aI682
aI682
assS'sac_7'
p1478
(dp1479
S'abs_res'
p1480
(lp1481
g7
(g11
S'\xcc\xcc\xcc\xcc\xb4\xeb\x00A'
p1482
tp1483
Rp1484
ag7
(g11
S'y\x14\xaeG\xab\xeb\x00A'
p1485
tp1486
Rp1487
ag7
(g11
S'\xadG\xe1z\xb6\xeb\x00A'
p1488
tp1489
Rp1490
asS'mmre'
p1491
(lp1492
g7
(g11
S'\xca\xe8l\xf3\x0c\xcdP@'
p1493
tp1494
Rp1495
ag7
(g11
S'\xbe\xd4]o\x19\xcdP@'
p1496
tp1497
Rp1498
ag7
(g11
S'\xb9\x05l\xaf\r\xcdP@'
p1499
tp1500
Rp1501
asS'rank'
p1502
(lp1503
I786
aI786
aI786
assS'sac_6'
p1504
(dp1505
S'abs_res'
p1506
(lp1507
g7
(g11
S'b\x8f\xc2\xf5:\xd9\x02A'
p1508
tp1509
Rp1510
ag7
(g11
S'\x81\x14\xaeG9\xd9\x02A'
p1511
tp1512
Rp1513
ag7
(g11
S'\x81\x14\xaeG9\xd9\x02A'
p1514
tp1515
Rp1516
asS'mmre'
p1517
(lp1518
g7
(g11
S'\x11\x03ETb}L@'
p1519
tp1520
Rp1521
ag7
(g11
S'\x9f\x9a\xdd(v}L@'
p1522
tp1523
Rp1524
ag7
(g11
S'\x9f\x9a\xdd(v}L@'
p1525
tp1526
Rp1527
asS'rank'
p1528
(lp1529
I773
aI773
aI773
assS'sac_5'
p1530
(dp1531
S'abs_res'
p1532
(lp1533
g7
(g11
S'\x1e\x85\xebQ\x90\x97\x0eA'
p1534
tp1535
Rp1536
ag7
(g11
S'\\\x8f\xc2\xf5\x9a\x97\x0eA'
p1537
tp1538
Rp1539
ag7
(g11
S'\x1e\x85\xebQ\x90\x97\x0eA'
p1540
tp1541
Rp1542
asS'mmre'
p1543
(lp1544
g7
(g11
S'v/\xab\xba\x97q\xab@'
p1545
tp1546
Rp1547
ag7
(g11
S'v/\xab\xba\x97q\xab@'
p1548
tp1549
Rp1550
ag7
(g11
S'r\xa6\xfe\xcf\x97q\xab@'
p1551
tp1552
Rp1553
asS'rank'
p1554
(lp1555
I787
aI787
aI787
assS'sac_4'
p1556
(dp1557
S'abs_res'
p1558
(lp1559
g7
(g11
S'\xd4\xcc\xcc\xcc\xb0\xc7\xf0@'
p1560
tp1561
Rp1562
ag7
(g11
S'\xd4\xcc\xcc\xcc\xb0\xc7\xf0@'
p1563
tp1564
Rp1565
ag7
(g11
S'\xd4\xcc\xcc\xcc\xb0\xc7\xf0@'
p1566
tp1567
Rp1568
asS'mmre'
p1569
(lp1570
g7
(g11
S"'\xfa\xfb\x01\\\xc3\x8e@"
p1571
tp1572
Rp1573
ag7
(g11
S"'\xfa\xfb\x01\\\xc3\x8e@"
p1574
tp1575
Rp1576
ag7
(g11
S"'\xfa\xfb\x01\\\xc3\x8e@"
p1577
tp1578
Rp1579
asS'rank'
p1580
(lp1581
I4562
aI4562
aI4562
assS'sac_2'
p1582
(dp1583
S'abs_res'
p1584
(lp1585
g7
(g11
S'\xfc(\\\x8f\xaa\x95\xe5@'
p1586
tp1587
Rp1588
ag7
(g11
S'\xfc(\\\x8f\xaa\x95\xe5@'
p1589
tp1590
Rp1591
ag7
(g11
S'\xfc(\\\x8f\xaa\x95\xe5@'
p1592
tp1593
Rp1594
asS'mmre'
p1595
(lp1596
g7
(g11
S'_\xe5\xa4\xc5\xf19p@'
p1597
tp1598
Rp1599
ag7
(g11
S'_\xe5\xa4\xc5\xf19p@'
p1600
tp1601
Rp1602
ag7
(g11
S'_\xe5\xa4\xc5\xf19p@'
p1603
tp1604
Rp1605
asS'rank'
p1606
(lp1607
I3
aI3
aI3
assS'sac_1'
p1608
(dp1609
S'abs_res'
p1610
(lp1611
g7
(g11
S"\xe8\x14\xae'=|6A"
p1612
tp1613
Rp1614
ag7
(g11
S'\xa2\x14\xaeGUl6A'
p1615
tp1616
Rp1617
ag7
(g11
S'\xc0=\n\xb7\xaei6A'
p1618
tp1619
Rp1620
asS'mmre'
p1621
(lp1622
g7
(g11
S'~\x1d\xdd\xf2P4\x91@'
p1623
tp1624
Rp1625
ag7
(g11
S'\xe7\x16\x13/Q.\x91@'
p1626
tp1627
Rp1628
ag7
(g11
S',\xc8P\x17\x97"\x91@'
p1629
tp1630
Rp1631
asS'rank'
p1632
(lp1633
I57268
aI57268
aI57268
assS'sac_0'
p1634
(dp1635
S'abs_res'
p1636
(lp1637
g7
(g11
S'(\xb8\x1ee\x97\n9A'
p1638
tp1639
Rp1640
ag7
(g11
S'\xaep=J\xb7C9A'
p1641
tp1642
Rp1643
ag7
(g11
S'\x83\xf5(\x9c\x92\x009A'
p1644
tp1645
Rp1646
asS'mmre'
p1647
(lp1648
g7
(g11
S'Vx\xb3\xb4u\xa2\xaa@'
p1649
tp1650
Rp1651
ag7
(g11
S'*&bJ\xfb\xc7\xaa@'
p1652
tp1653
Rp1654
ag7
(g11
S'z\x1b:f\xd0\xba\xaa@'
p1655
tp1656
Rp1657
asS'rank'
p1658
(lp1659
I55876
aI55876
aI55876
asssS'sac_2'
p1660
(dp1661
S'sac_9'
p1662
(dp1663
S'abs_res'
p1664
(lp1665
g7
(g11
S'\xf9(\\\x8f\x1cG\x11A'
p1666
tp1667
Rp1668
ag7
(g11
S',\\\x8f\xc2\x1cG\x11A'
p1669
tp1670
Rp1671
ag7
(g11
S'\xf9(\\\x8f\x1cG\x11A'
p1672
tp1673
Rp1674
asS'mmre'
p1675
(lp1676
g7
(g11
S'\ro&\xd9\x87}v@'
p1677
tp1678
Rp1679
ag7
(g11
S'\ro&\xd9\x87}v@'
p1680
tp1681
Rp1682
ag7
(g11
S'\x01\xe9\xf4\xb4\x87}v@'
p1683
tp1684
Rp1685
asS'rank'
p1686
(lp1687
I727
aI727
aI727
assS'sac_8'
p1688
(dp1689
S'abs_res'
p1690
(lp1691
g7
(g11
S'N\xb8\x1e\x85\x89\n\x0cA'
p1692
tp1693
Rp1694
ag7
(g11
S'\x1b\x85\xebQ\x8c\n\x0cA'
p1695
tp1696
Rp1697
ag7
(g11
S'\xb5\x1e\x85\xeb\x89\n\x0cA'
p1698
tp1699
Rp1700
asS'mmre'
p1701
(lp1702
g7
(g11
S'\x07aZPqwW@'
p1703
tp1704
Rp1705
ag7
(g11
S'\xab\xc9\x8c)twW@'
p1706
tp1707
Rp1708
ag7
(g11
S'\xab\xc9\x8c)twW@'
p1709
tp1710
Rp1711
asS'rank'
p1712
(lp1713
I682
aI682
aI682
assS'sac_7'
p1714
(dp1715
S'abs_res'
p1716
(lp1717
g7
(g11
S'L\xe1z\x14Rw\x01A'
p1718
tp1719
Rp1720
ag7
(g11
S'\xb2G\xe1zTw\x01A'
p1721
tp1722
Rp1723
ag7
(g11
S'\xe5z\x14\xaeQw\x01A'
p1724
tp1725
Rp1726
asS'mmre'
p1727
(lp1728
g7
(g11
S'/\xcbK\x0e\xf3<V@'
p1729
tp1730
Rp1731
ag7
(g11
S'|:Pb\xef<V@'
p1732
tp1733
Rp1734
ag7
(g11
S'/\xcbK\x0e\xf3<V@'
p1735
tp1736
Rp1737
asS'rank'
p1738
(lp1739
I786
aI786
aI786
assS'sac_6'
p1740
(dp1741
S'abs_res'
p1742
(lp1743
g7
(g11
S'x\x14\xaeG\xf5=\x03A'
p1744
tp1745
Rp1746
ag7
(g11
S'\xabG\xe1z\xf2=\x03A'
p1747
tp1748
Rp1749
ag7
(g11
S'\xabG\xe1z\xf2=\x03A'
p1750
tp1751
Rp1752
asS'mmre'
p1753
(lp1754
g7
(g11
S'\x85\xc2\x99\xc0\x1e\xe5U@'
p1755
tp1756
Rp1757
ag7
(g11
S'f\x8d\xf9\xbf#\xe5U@'
p1758
tp1759
Rp1760
ag7
(g11
S'f\x8d\xf9\xbf#\xe5U@'
p1761
tp1762
Rp1763
asS'rank'
p1764
(lp1765
I773
aI773
aI773
assS'sac_5'
p1766
(dp1767
S'abs_res'
p1768
(lp1769
g7
(g11
S'93339\xbb\x0fA'
p1770
tp1771
Rp1772
ag7
(g11
S'\x9f\x99\x99\x999\xbb\x0fA'
p1773
tp1774
Rp1775
ag7
(g11
S'93339\xbb\x0fA'
p1776
tp1777
Rp1778
asS'mmre'
p1779
(lp1780
g7
(g11
S'Q\x80\x88N\xb0\x9e\xb6@'
p1781
tp1782
Rp1783
ag7
(g11
S'_>\x93H\xb0\x9e\xb6@'
p1784
tp1785
Rp1786
ag7
(g11
S'\xbau3K\xb0\x9e\xb6@'
p1787
tp1788
Rp1789
asS'rank'
p1790
(lp1791
I787
aI787
aI787
assS'sac_4'
p1792
(dp1793
S'abs_res'
p1794
(lp1795
g7
(g11
S'\xff\xadG\xe1Z\x96\xe6@'
p1796
tp1797
Rp1798
ag7
(g11
S'\xff\xadG\xe1Z\x96\xe6@'
p1799
tp1800
Rp1801
ag7
(g11
S'\xff\xadG\xe1Z\x96\xe6@'
p1802
tp1803
Rp1804
asS'mmre'
p1805
(lp1806
g7
(g11
S'\xb3Y(]\x8c\xf6y@'
p1807
tp1808
Rp1809
ag7
(g11
S'\xb3Y(]\x8c\xf6y@'
p1810
tp1811
Rp1812
ag7
(g11
S'\xb3Y(]\x8c\xf6y@'
p1813
tp1814
Rp1815
asS'rank'
p1816
(lp1817
I4656
aI4656
aI4656
assS'sac_3'
p1818
(dp1819
S'abs_res'
p1820
(lp1821
g7
(g11
S'$\x85\xebQ\x08\x94\xe5@'
p1822
tp1823
Rp1824
ag7
(g11
S'$\x85\xebQ\x08\x94\xe5@'
p1825
tp1826
Rp1827
ag7
(g11
S'$\x85\xebQ\x08\x94\xe5@'
p1828
tp1829
Rp1830
asS'mmre'
p1831
(lp1832
g7
(g11
S'*\xda\xcc\xefmAP@'
p1833
tp1834
Rp1835
ag7
(g11
S'*\xda\xcc\xefmAP@'
p1836
tp1837
Rp1838
ag7
(g11
S'*\xda\xcc\xefmAP@'
p1839
tp1840
Rp1841
asS'rank'
p1842
(lp1843
I2
aI2
aI2
assS'sac_1'
p1844
(dp1845
S'abs_res'
p1846
(lp1847
g7
(g11
S'\x01\xe1z\xb4Q\x827A'
p1848
tp1849
Rp1850
ag7
(g11
S'M\x99\x99\xd9\xb0\x827A'
p1851
tp1852
Rp1853
ag7
(g11
S'C33\xd31\x8d7A'
p1854
tp1855
Rp1856
asS'mmre'
p1857
(lp1858
g7
(g11
S'\xa0\n\xd7\x9f#a\x91@'
p1859
tp1860
Rp1861
ag7
(g11
S'\x861}\xc7<_\x91@'
p1862
tp1863
Rp1864
ag7
(g11
S'\x8cb`_\x1bg\x91@'
p1865
tp1866
Rp1867
asS'rank'
p1868
(lp1869
I57282
aI58211
aI57282
assS'sac_0'
p1870
(dp1871
S'abs_res'
p1872
(lp1873
g7
(g11
S'c\xaeG\x01c\x8e5A'
p1874
tp1875
Rp1876
ag7
(g11
S'\xc7\xd6\xa3P\xc4\x895A'
p1877
tp1878
Rp1879
ag7
(g11
S'\x7f=\n\xf7c\x8d5A'
p1880
tp1881
Rp1882
asS'mmre'
p1883
(lp1884
g7
(g11
S'\x83C\xe9@#\xb2\xa8@'
p1885
tp1886
Rp1887
ag7
(g11
S'\xebO\x81\xba\x81\xb2\xa8@'
p1888
tp1889
Rp1890
ag7
(g11
S'\x11\xeb\xeb<t\xbd\xa8@'
p1891
tp1892
Rp1893
asS'rank'
p1894
(lp1895
I56819
aI56819
aI56819
asssS'sac_1'
p1896
(dp1897
S'sac_9'
p1898
(dp1899
S'abs_res'
p1900
(lp1901
g7
(g11
S'\xf1(\\\x8f\xf2\xa4\x11A'
p1902
tp1903
Rp1904
ag7
(g11
S'\xf1(\\\x8f\xf2\xa4\x11A'
p1905
tp1906
Rp1907
ag7
(g11
S'\xf1(\\\x8f\xf2\xa4\x11A'
p1908
tp1909
Rp1910
asS'mmre'
p1911
(lp1912
g7
(g11
S'j\xc5\x0f\xf1;\xdea@'
p1913
tp1914
Rp1915
ag7
(g11
S'j\xc5\x0f\xf1;\xdea@'
p1916
tp1917
Rp1918
ag7
(g11
S'j\xc5\x0f\xf1;\xdea@'
p1919
tp1920
Rp1921
asS'rank'
p1922
(lp1923
I775
aI775
aI775
assS'sac_8'
p1924
(dp1925
S'abs_res'
p1926
(lp1927
g7
(g11
S'\r\xd7\xa3p!\x1a\rA'
p1928
tp1929
Rp1930
ag7
(g11
S'\r\xd7\xa3p!\x1a\rA'
p1931
tp1932
Rp1933
ag7
(g11
S'\r\xd7\xa3p!\x1a\rA'
p1934
tp1935
Rp1936
asS'mmre'
p1937
(lp1938
g7
(g11
S'\xda\x9c\xe0\x8aw\x15V@'
p1939
tp1940
Rp1941
ag7
(g11
S'\xda\x9c\xe0\x8aw\x15V@'
p1942
tp1943
Rp1944
ag7
(g11
S'\xda\x9c\xe0\x8aw\x15V@'
p1945
tp1946
Rp1947
asS'rank'
p1948
(lp1949
I757
aI757
aI757
assS'sac_7'
p1950
(dp1951
S'abs_res'
p1952
(lp1953
g7
(g11
S'\x12\xaeG\xe1\xd2f\x02A'
p1954
tp1955
Rp1956
ag7
(g11
S'\x12\xaeG\xe1\xd2f\x02A'
p1957
tp1958
Rp1959
ag7
(g11
S'\x12\xaeG\xe1\xd2f\x02A'
p1960
tp1961
Rp1962
asS'mmre'
p1963
(lp1964
g7
(g11
S'\x1a\x9a\xb3\xd2]hU@'
p1965
tp1966
Rp1967
ag7
(g11
S'\x1a\x9a\xb3\xd2]hU@'
p1968
tp1969
Rp1970
ag7
(g11
S'\x1a\x9a\xb3\xd2]hU@'
p1971
tp1972
Rp1973
asS'rank'
p1974
(lp1975
I717
aI717
aI717
assS'sac_6'
p1976
(dp1977
S'abs_res'
p1978
(lp1979
g7
(g11
S'S\x8f\xc2\xf5\xacN\x04A'
p1980
tp1981
Rp1982
ag7
(g11
S'S\x8f\xc2\xf5\xacN\x04A'
p1983
tp1984
Rp1985
ag7
(g11
S'S\x8f\xc2\xf5\xacN\x04A'
p1986
tp1987
Rp1988
asS'mmre'
p1989
(lp1990
g7
(g11
S'\xbc\xd2\xed\xecL\x03T@'
p1991
tp1992
Rp1993
ag7
(g11
S'\xbc\xd2\xed\xecL\x03T@'
p1994
tp1995
Rp1996
ag7
(g11
S'\xbc\xd2\xed\xecL\x03T@'
p1997
tp1998
Rp1999
asS'rank'
p2000
(lp2001
I717
aI717
aI717
assS'sac_5'
p2002
(dp2003
S'abs_res'
p2004
(lp2005
g7
(g11
S'^fff\xfe\x1f\x0fA'
p2006
tp2007
Rp2008
ag7
(g11
S'^fff\xfe\x1f\x0fA'
p2009
tp2010
Rp2011
ag7
(g11
S'^fff\xfe\x1f\x0fA'
p2012
tp2013
Rp2014
asS'mmre'
p2015
(lp2016
g7
(g11
S'\xebK\xdb\xa8@\x8d\x7f@'
p2017
tp2018
Rp2019
ag7
(g11
S'\xebK\xdb\xa8@\x8d\x7f@'
p2020
tp2021
Rp2022
ag7
(g11
S'\xebK\xdb\xa8@\x8d\x7f@'
p2023
tp2024
Rp2025
asS'rank'
p2026
(lp2027
I719
aI719
aI719
assS'sac_4'
p2028
(dp2029
S'abs_res'
p2030
(lp2031
g7
(g11
S'2333\xfbq\xd8@'
p2032
tp2033
Rp2034
ag7
(g11
S'2333\xfbq\xd8@'
p2035
tp2036
Rp2037
ag7
(g11
S'2333\xfbq\xd8@'
p2038
tp2039
Rp2040
asS'mmre'
p2041
(lp2042
g7
(g11
S'\xbb\xb9\x8e\xa9.\x83z@'
p2043
tp2044
Rp2045
ag7
(g11
S'\xbb\xb9\x8e\xa9.\x83z@'
p2046
tp2047
Rp2048
ag7
(g11
S'\xbb\xb9\x8e\xa9.\x83z@'
p2049
tp2050
Rp2051
asS'rank'
p2052
(lp2053
I4830
aI4830
aI4830
assS'sac_3'
p2054
(dp2055
S'abs_res'
p2056
(lp2057
g7
(g11
S'\xffz\x14\xae\x0b\x1e\xe6@'
p2058
tp2059
Rp2060
ag7
(g11
S'\xffz\x14\xae\x0b\x1e\xe6@'
p2061
tp2062
Rp2063
ag7
(g11
S'\xffz\x14\xae\x0b\x1e\xe6@'
p2064
tp2065
Rp2066
asS'mmre'
p2067
(lp2068
g7
(g11
S'\x08\xb1\xde\xa0\xa5\x04I@'
p2069
tp2070
Rp2071
ag7
(g11
S'\x08\xb1\xde\xa0\xa5\x04I@'
p2072
tp2073
Rp2074
ag7
(g11
S'\x08\xb1\xde\xa0\xa5\x04I@'
p2075
tp2076
Rp2077
asS'rank'
p2078
(lp2079
I4804
aI4804
aI4804
assS'sac_2'
p2080
(dp2081
S'abs_res'
p2082
(lp2083
g7
(g11
S'\xe9z\x14\xae#\x94\xe7@'
p2084
tp2085
Rp2086
ag7
(g11
S'\xe9z\x14\xae#\x94\xe7@'
p2087
tp2088
Rp2089
ag7
(g11
S'\xe9z\x14\xae#\x94\xe7@'
p2090
tp2091
Rp2092
asS'mmre'
p2093
(lp2094
g7
(g11
S'\xc4\xa6\xa7K\xd2\x93e@'
p2095
tp2096
Rp2097
ag7
(g11
S'\xc4\xa6\xa7K\xd2\x93e@'
p2098
tp2099
Rp2100
ag7
(g11
S'\xc4\xa6\xa7K\xd2\x93e@'
p2101
tp2102
Rp2103
asS'rank'
p2104
(lp2105
I4877
aI4877
aI4877
assS'sac_0'
p2106
(dp2107
S'abs_res'
p2108
(lp2109
g7
(g11
S'\x92)\\\x8f\xb4\xdf\x1cA'
p2110
tp2111
Rp2112
ag7
(g11
S'\x92)\\\x8f\xb4\xdf\x1cA'
p2113
tp2114
Rp2115
ag7
(g11
S'\x92)\\\x8f\xb4\xdf\x1cA'
p2116
tp2117
Rp2118
asS'mmre'
p2119
(lp2120
g7
(g11
S'\xfeq@h\xee(m@'
p2121
tp2122
Rp2123
ag7
(g11
S'\xfeq@h\xee(m@'
p2124
tp2125
Rp2126
ag7
(g11
S'\xfeq@h\xee(m@'
p2127
tp2128
Rp2129
asS'rank'
p2130
(lp2131
I87
aI87
aI87
asssS'sac_0'
p2132
(dp2133
S'sac_9'
p2134
(dp2135
S'abs_res'
p2136
(lp2137
g7
(g11
S'\xfe(\\\x0f\xc9\xd1\x11A'
p2138
tp2139
Rp2140
ag7
(g11
S'\xfe(\\\x0f\xc9\xd1\x11A'
p2141
tp2142
Rp2143
ag7
(g11
S'\xfe(\\\x0f\xc9\xd1\x11A'
p2144
tp2145
Rp2146
asS'mmre'
p2147
(lp2148
g7
(g11
S'{\x15\x90\x17M\x86[@'
p2149
tp2150
Rp2151
ag7
(g11
S'{\x15\x90\x17M\x86[@'
p2152
tp2153
Rp2154
ag7
(g11
S'{\x15\x90\x17M\x86[@'
p2155
tp2156
Rp2157
asS'rank'
p2158
(lp2159
I747
aI747
aI747
assS'sac_8'
p2160
(dp2161
S'abs_res'
p2162
(lp2163
g7
(g11
S'\xe5z\x14\xae\xe0w\rA'
p2164
tp2165
Rp2166
ag7
(g11
S'\xe5z\x14\xae\xe0w\rA'
p2167
tp2168
Rp2169
ag7
(g11
S'\xe5z\x14\xae\xe0w\rA'
p2170
tp2171
Rp2172
asS'mmre'
p2173
(lp2174
g7
(g11
S'\xef~\xef\xe2\xb1\xd6W@'
p2175
tp2176
Rp2177
ag7
(g11
S'\xef~\xef\xe2\xb1\xd6W@'
p2178
tp2179
Rp2180
ag7
(g11
S'\xef~\xef\xe2\xb1\xd6W@'
p2181
tp2182
Rp2183
asS'rank'
p2184
(lp2185
I774
aI774
aI774
assS'sac_7'
p2186
(dp2187
S'abs_res'
p2188
(lp2189
g7
(g11
S'\xb7G\xe1z1\xc4\x02A'
p2190
tp2191
Rp2192
ag7
(g11
S'\xb7G\xe1z1\xc4\x02A'
p2193
tp2194
Rp2195
ag7
(g11
S'\xb7G\xe1z1\xc4\x02A'
p2196
tp2197
Rp2198
asS'mmre'
p2199
(lp2200
g7
(g11
S'\xeb&\xbd}O\x8aW@'
p2201
tp2202
Rp2203
ag7
(g11
S'\xeb&\xbd}O\x8aW@'
p2204
tp2205
Rp2206
ag7
(g11
S'\xeb&\xbd}O\x8aW@'
p2207
tp2208
Rp2209
asS'rank'
p2210
(lp2211
I741
aI741
aI741
assS'sac_6'
p2212
(dp2213
S'abs_res'
p2214
(lp2215
g7
(g11
S'B\n\xd7\xa3I\xab\x04A'
p2216
tp2217
Rp2218
ag7
(g11
S'B\n\xd7\xa3I\xab\x04A'
p2219
tp2220
Rp2221
ag7
(g11
S'B\n\xd7\xa3I\xab\x04A'
p2222
tp2223
Rp2224
asS'mmre'
p2225
(lp2226
g7
(g11
S'\xfd\xeb\xec \xe3\xfdV@'
p2227
tp2228
Rp2229
ag7
(g11
S'\xfd\xeb\xec \xe3\xfdV@'
p2230
tp2231
Rp2232
ag7
(g11
S'\xfd\xeb\xec \xe3\xfdV@'
p2233
tp2234
Rp2235
asS'rank'
p2236
(lp2237
I733
aI733
aI733
assS'sac_5'
p2238
(dp2239
S'abs_res'
p2240
(lp2241
g7
(g11
S'~\x14\xaeG*r\x0fA'
p2242
tp2243
Rp2244
ag7
(g11
S'~\x14\xaeG*r\x0fA'
p2245
tp2246
Rp2247
ag7
(g11
S'~\x14\xaeG*r\x0fA'
p2248
tp2249
Rp2250
asS'mmre'
p2251
(lp2252
g7
(g11
S'\xfc\xdf\xad\xc56\xe2t@'
p2253
tp2254
Rp2255
ag7
(g11
S'\xfc\xdf\xad\xc56\xe2t@'
p2256
tp2257
Rp2258
ag7
(g11
S'\xfc\xdf\xad\xc56\xe2t@'
p2259
tp2260
Rp2261
asS'rank'
p2262
(lp2263
I724
aI724
aI724
assS'sac_4'
p2264
(dp2265
S'abs_res'
p2266
(lp2267
g7
(g11
S'\x9b\xc2\xf5(\x04\n\xd3@'
p2268
tp2269
Rp2270
ag7
(g11
S'\x9b\xc2\xf5(\x04\n\xd3@'
p2271
tp2272
Rp2273
ag7
(g11
S'\x9b\xc2\xf5(\x04\n\xd3@'
p2274
tp2275
Rp2276
asS'mmre'
p2277
(lp2278
g7
(g11
S'\xfcA\xfb\xca^\xcbo@'
p2279
tp2280
Rp2281
ag7
(g11
S'\xfcA\xfb\xca^\xcbo@'
p2282
tp2283
Rp2284
ag7
(g11
S'\xfcA\xfb\xca^\xcbo@'
p2285
tp2286
Rp2287
asS'rank'
p2288
(lp2289
I156
aI156
aI156
assS'sac_3'
p2290
(dp2291
S'abs_res'
p2292
(lp2293
g7
(g11
S'\xf0(\\\x8f\xccB\xf2@'
p2294
tp2295
Rp2296
ag7
(g11
S'\xf0(\\\x8f\xccB\xf2@'
p2297
tp2298
Rp2299
ag7
(g11
S'\xf0(\\\x8f\xccB\xf2@'
p2300
tp2301
Rp2302
asS'mmre'
p2303
(lp2304
g7
(g11
S'\x1c|\xa1\xa6\xc9\xa0\\@'
p2305
tp2306
Rp2307
ag7
(g11
S'\x1c|\xa1\xa6\xc9\xa0\\@'
p2308
tp2309
Rp2310
ag7
(g11
S'\x1c|\xa1\xa6\xc9\xa0\\@'
p2311
tp2312
Rp2313
asS'rank'
p2314
(lp2315
I3415
aI3415
aI3415
assS'sac_2'
p2316
(dp2317
S'abs_res'
p2318
(lp2319
g7
(g11
S'\xd3\xcc\xcc\xcc\x18P\xeb@'
p2320
tp2321
Rp2322
ag7
(g11
S'\xd3\xcc\xcc\xcc\x18P\xeb@'
p2323
tp2324
Rp2325
ag7
(g11
S'\xd3\xcc\xcc\xcc\x18P\xeb@'
p2326
tp2327
Rp2328
asS'mmre'
p2329
(lp2330
g7
(g11
S'\xadT)\xa1}ii@'
p2331
tp2332
Rp2333
ag7
(g11
S'\xadT)\xa1}ii@'
p2334
tp2335
Rp2336
ag7
(g11
S'\xadT)\xa1}ii@'
p2337
tp2338
Rp2339
asS'rank'
p2340
(lp2341
I3053
aI3053
aI3053
assS'sac_1'
p2342
(dp2343
S'abs_res'
p2344
(lp2345
g7
(g11
S'\x9a)\\\x8f\xb4\xdf\x1cA'
p2346
tp2347
Rp2348
ag7
(g11
S'\x9a)\\\x8f\xb4\xdf\x1cA'
p2349
tp2350
Rp2351
ag7
(g11
S'\x9a)\\\x8f\xb4\xdf\x1cA'
p2352
tp2353
Rp2354
asS'mmre'
p2355
(lp2356
g7
(g11
S'\xbb\xbbS\xc2\x88\x17S@'
p2357
tp2358
Rp2359
ag7
(g11
S'\xbb\xbbS\xc2\x88\x17S@'
p2360
tp2361
Rp2362
ag7
(g11
S'\xbb\xbbS\xc2\x88\x17S@'
p2363
tp2364
Rp2365
asS'rank'
p2366
(lp2367
I146
aI146
aI146
asss.