(dp0
S'sac_9'
p1
(dp2
S'sac_7'
p3
(dp4
S'abs_res'
p5
(lp6
cnumpy.core.multiarray
scalar
p7
(cnumpy
dtype
p8
(S'f8'
p9
I0
I1
tp10
Rp11
(I3
S'<'
p12
NNNI-1
I-1
I0
tp13
bS'\xc7\xf5(\\S\xc9\x11A'
p14
tp15
Rp16
ag7
(g11
S'\xc7\xf5(\\S\xc9\x11A'
p17
tp18
Rp19
ag7
(g11
S'\xc7\xf5(\\S\xc9\x11A'
p20
tp21
Rp22
asS'mmre'
p23
(lp24
g7
(g11
S'\xb8\xe2( \xd2\xbdw@'
p25
tp26
Rp27
ag7
(g11
S'\xb8\xe2( \xd2\xbdw@'
p28
tp29
Rp30
ag7
(g11
S'\xb8\xe2( \xd2\xbdw@'
p31
tp32
Rp33
asS'rank'
p34
(lp35
I514
aI514
aI514
assS'sac_6'
p36
(dp37
S'abs_res'
p38
(lp39
g7
(g11
S'\x8d\xc2\xf5(\xfe\xa6\x10A'
p40
tp41
Rp42
ag7
(g11
S'\x8d\xc2\xf5(\xfe\xa6\x10A'
p43
tp44
Rp45
ag7
(g11
S'\x8d\xc2\xf5(\xfe\xa6\x10A'
p46
tp47
Rp48
asS'mmre'
p49
(lp50
g7
(g11
S'\x0c#q\x93\x92j}@'
p51
tp52
Rp53
ag7
(g11
S'\x0c#q\x93\x92j}@'
p54
tp55
Rp56
ag7
(g11
S'\x0c#q\x93\x92j}@'
p57
tp58
Rp59
asS'rank'
p60
(lp61
I491
aI491
aI491
assS'sac_5'
p62
(dp63
S'abs_res'
p64
(lp65
g7
(g11
S'\xd6\xa3p=\x99]\x08A'
p66
tp67
Rp68
ag7
(g11
S'\xd6\xa3p=\x99]\x08A'
p69
tp70
Rp71
ag7
(g11
S'\xd6\xa3p=\x99]\x08A'
p72
tp73
Rp74
asS'mmre'
p75
(lp76
g7
(g11
S'bx\x00x\xe1\xac\xe1@'
p77
tp78
Rp79
ag7
(g11
S'bx\x00x\xe1\xac\xe1@'
p80
tp81
Rp82
ag7
(g11
S'bx\x00x\xe1\xac\xe1@'
p83
tp84
Rp85
asS'rank'
p86
(lp87
I491
aI491
aI491
assS'sac_4'
p88
(dp89
S'abs_res'
p90
(lp91
g7
(g11
S'\xa0=\nw\xc7\xed5A'
p92
tp93
Rp94
ag7
(g11
S'\xc0_,\xd9\x1b\xe15A'
p95
tp96
Rp97
ag7
(g11
S'\xbd\x88\x88HM\x076A'
p98
tp99
Rp100
asS'mmre'
p101
(lp102
g7
(g11
S'\x1f*\xe9\xf2w\xa0\xd2@'
p103
tp104
Rp105
ag7
(g11
S'\xab\x85\xc4k\x07\x99\xd2@'
p106
tp107
Rp108
ag7
(g11
S'\x08T\x03\xc4\xa0\xca\xd2@'
p109
tp110
Rp111
asS'rank'
p112
(lp113
I4757
aI4757
aI4757
assS'sac_8'
p114
(dp115
S'abs_res'
p116
(lp117
g7
(g11
S'Y\x8f\xc2\xf5d\xbb\xf7@'
p118
tp119
Rp120
ag7
(g11
S'Y\x8f\xc2\xf5d\xbb\xf7@'
p121
tp122
Rp123
ag7
(g11
S'Y\x8f\xc2\xf5d\xbb\xf7@'
p124
tp125
Rp126
asS'mmre'
p127
(lp128
g7
(g11
S'\xbdg\xd9\xa5s\xd0d@'
p129
tp130
Rp131
ag7
(g11
S'\xbdg\xd9\xa5s\xd0d@'
p132
tp133
Rp134
ag7
(g11
S'\xbdg\xd9\xa5s\xd0d@'
p135
tp136
Rp137
asS'rank'
p138
(lp139
I507
aI507
aI507
asssS'sac_8'
p140
(dp141
S'sac_7'
p142
(dp143
S'abs_res'
p144
(lp145
g7
(g11
S'\xa6\rt\xda\xdaO\x0cA'
p146
tp147
Rp148
ag7
(g11
S'\xa6\rt\xda\xdaO\x0cA'
p149
tp150
Rp151
ag7
(g11
S'\xa7\rt\xda\xdaO\x0cA'
p152
tp153
Rp154
asS'mmre'
p155
(lp156
g7
(g11
S'\xd0\xcb.\nq\x88e@'
p157
tp158
Rp159
ag7
(g11
S'\xd0\xcb.\nq\x88e@'
p160
tp161
Rp162
ag7
(g11
S'\xd0\xcb.\nq\x88e@'
p163
tp164
Rp165
asS'rank'
p166
(lp167
I448
aI448
aI448
assS'sac_6'
p168
(dp169
S'abs_res'
p170
(lp171
g7
(g11
S'offf\xc2\xcb\nA'
p172
tp173
Rp174
ag7
(g11
S'offf\xc2\xcb\nA'
p175
tp176
Rp177
ag7
(g11
S'offf\xc2\xcb\nA'
p178
tp179
Rp180
asS'mmre'
p181
(lp182
g7
(g11
S'\x92D~\x1a\xefVi@'
p183
tp184
Rp185
ag7
(g11
S'\x92D~\x1a\xefVi@'
p186
tp187
Rp188
ag7
(g11
S'\x92D~\x1a\xefVi@'
p189
tp190
Rp191
asS'rank'
p192
(lp193
I200
aI200
aI200
assS'sac_5'
p194
(dp195
S'abs_res'
p196
(lp197
g7
(g11
S'\x80\x14\xaeG\x01\x0f\x05A'
p198
tp199
Rp200
ag7
(g11
S'\x80\x14\xaeG\x01\x0f\x05A'
p201
tp202
Rp203
ag7
(g11
S'\x80\x14\xaeG\x01\x0f\x05A'
p204
tp205
Rp206
asS'mmre'
p207
(lp208
g7
(g11
S'J\xbb\r\xeb\x08\x8c\xe3@'
p209
tp210
Rp211
ag7
(g11
S'J\xbb\r\xeb\x08\x8c\xe3@'
p212
tp213
Rp214
ag7
(g11
S'J\xbb\r\xeb\x08\x8c\xe3@'
p215
tp216
Rp217
asS'rank'
p218
(lp219
I110
aI110
aI110
assS'sac_4'
p220
(dp221
S'abs_res'
p222
(lp223
g7
(g11
S'\x976\xd0\xb9%81A'
p224
tp225
Rp226
ag7
(g11
S'\xc1\x92_L\x17@1A'
p227
tp228
Rp229
ag7
(g11
S'\xf2(\\\xff\xbe?1A'
p230
tp231
Rp232
asS'mmre'
p233
(lp234
g7
(g11
S'\xfa1(aA\xa8\xca@'
p235
tp236
Rp237
ag7
(g11
S'\xc3\xb6\x05\x87\xc9\xad\xca@'
p238
tp239
Rp240
ag7
(g11
S']jAYc\xa4\xca@'
p241
tp242
Rp243
asS'rank'
p244
(lp245
I1040
aI1040
aI1040
assS'sac_9'
p246
(dp247
S'abs_res'
p248
(lp249
g7
(g11
S'\xdd\xdd\xdd\xdd\xa3\xcf\xf7@'
p250
tp251
Rp252
ag7
(g11
S'\xdd\xdd\xdd\xdd\xa3\xcf\xf7@'
p253
tp254
Rp255
ag7
(g11
S'\xdd\xdd\xdd\xdd\xa3\xcf\xf7@'
p256
tp257
Rp258
asS'mmre'
p259
(lp260
g7
(g11
S'\x15\x08Pe\xdd\x9e\xa9@'
p261
tp262
Rp263
ag7
(g11
S'\x15\x08Pe\xdd\x9e\xa9@'
p264
tp265
Rp266
ag7
(g11
S'\x15\x08Pe\xdd\x9e\xa9@'
p267
tp268
Rp269
asS'rank'
p270
(lp271
I142
aI142
aI142
asssS'sac_7'
p272
(dp273
S'sac_6'
p274
(dp275
S'abs_res'
p276
(lp277
g7
(g11
S'.333\xdb\x9b\xe0@'
p278
tp279
Rp280
ag7
(g11
S'.333\xdb\x9b\xe0@'
p281
tp282
Rp283
ag7
(g11
S'-333\xdb\x9b\xe0@'
p284
tp285
Rp286
asS'mmre'
p287
(lp288
g7
(g11
S'3V;\xfe-uH@'
p289
tp290
Rp291
ag7
(g11
S'3V;\xfe-uH@'
p292
tp293
Rp294
ag7
(g11
S'3V;\xfe-uH@'
p295
tp296
Rp297
asS'rank'
p298
(lp299
I115
aI115
aI115
assS'sac_5'
p300
(dp301
S'abs_res'
p302
(lp303
g7
(g11
S'\xfd\xff\xff\xff\x9f\x92\x00A'
p304
tp305
Rp306
ag7
(g11
S'\xfd\xff\xff\xff\x9f\x92\x00A'
p307
tp308
Rp309
ag7
(g11
S'\xfd\xff\xff\xff\x9f\x92\x00A'
p310
tp311
Rp312
asS'mmre'
p313
(lp314
g7
(g11
S'\x9fRZ1\xb0\x9f\xc1@'
p315
tp316
Rp317
ag7
(g11
S'\x9fRZ1\xb0\x9f\xc1@'
p318
tp319
Rp320
ag7
(g11
S'\x9fRZ1\xb0\x9f\xc1@'
p321
tp322
Rp323
asS'rank'
p324
(lp325
I313
aI313
aI313
assS'sac_4'
p326
(dp327
S'abs_res'
p328
(lp329
g7
(g11
S"~wwWzX'A"
p330
tp331
Rp332
ag7
(g11
S"c\x8f\xc2\x95\x88i'A"
p333
tp334
Rp335
ag7
(g11
S"\x02\xc6\x92\x9f\xf3n'A"
p336
tp337
Rp338
asS'mmre'
p339
(lp340
g7
(g11
S'\xe0s\xb8\xf6\xc2\xc1\xc9@'
p341
tp342
Rp343
ag7
(g11
S'p\x91}j-\xbd\xc9@'
p344
tp345
Rp346
ag7
(g11
S'\x9e\x06t\xb3\xdf\xaf\xc9@'
p347
tp348
Rp349
asS'rank'
p350
(lp351
I3740
aI3740
aI3740
assS'sac_9'
p352
(dp353
S'abs_res'
p354
(lp355
g7
(g11
S'\xc3\xf5(\\S\xc9\x11A'
p356
tp357
Rp358
ag7
(g11
S'\xc3\xf5(\\S\xc9\x11A'
p359
tp360
Rp361
ag7
(g11
S'\xc3\xf5(\\S\xc9\x11A'
p362
tp363
Rp364
asS'mmre'
p365
(lp366
g7
(g11
S'-\xd1\x16\x97\xbe\x95\xa4@'
p367
tp368
Rp369
ag7
(g11
S'-\xd1\x16\x97\xbe\x95\xa4@'
p370
tp371
Rp372
ag7
(g11
S'-\xd1\x16\x97\xbe\x95\xa4@'
p373
tp374
Rp375
asS'rank'
p376
(lp377
I491
aI491
aI491
assS'sac_8'
p378
(dp379
S'abs_res'
p380
(lp381
g7
(g11
S'y\xa0\xd3\x06\x12N\x0cA'
p382
tp383
Rp384
ag7
(g11
S'y\xa0\xd3\x06\x12N\x0cA'
p385
tp386
Rp387
ag7
(g11
S'y\xa0\xd3\x06\x12N\x0cA'
p388
tp389
Rp390
asS'mmre'
p391
(lp392
g7
(g11
S'I"f\x0e\xbb\x08r@'
p393
tp394
Rp395
ag7
(g11
S'I"f\x0e\xbb\x08r@'
p396
tp397
Rp398
ag7
(g11
S'I"f\x0e\xbb\x08r@'
p399
tp400
Rp401
asS'rank'
p402
(lp403
I293
aI293
aI293
asssS'sac_6'
p404
(dp405
S'sac_7'
p406
(dp407
S'abs_res'
p408
(lp409
g7
(g11
S'\x03\x00\x00\x000\xf2\xe0@'
p410
tp411
Rp412
ag7
(g11
S'\x02\x00\x00\x000\xf2\xe0@'
p413
tp414
Rp415
ag7
(g11
S'\x02\x00\x00\x000\xf2\xe0@'
p416
tp417
Rp418
asS'mmre'
p419
(lp420
g7
(g11
S'\xb7^LO?~A@'
p421
tp422
Rp423
ag7
(g11
S'\xb7^LO?~A@'
p424
tp425
Rp426
ag7
(g11
S'\xb7^LO?~A@'
p427
tp428
Rp429
asS'rank'
p430
(lp431
I233
aI233
aI233
assS'sac_5'
p432
(dp433
S'abs_res'
p434
(lp435
g7
(g11
S'\xce\xcc\xcc\xcc\xc8\xf5\x00A'
p436
tp437
Rp438
ag7
(g11
S'\xce\xcc\xcc\xcc\xc8\xf5\x00A'
p439
tp440
Rp441
ag7
(g11
S'\xce\xcc\xcc\xcc\xc8\xf5\x00A'
p442
tp443
Rp444
asS'mmre'
p445
(lp446
g7
(g11
S'x\xbc\xe2\xa8\xc6p\xcd@'
p447
tp448
Rp449
ag7
(g11
S'x\xbc\xe2\xa8\xc6p\xcd@'
p450
tp451
Rp452
ag7
(g11
S'x\xbc\xe2\xa8\xc6p\xcd@'
p453
tp454
Rp455
asS'rank'
p456
(lp457
I107
aI107
aI107
assS'sac_4'
p458
(dp459
S'abs_res'
p460
(lp461
g7
(g11
S'\xb3\xebQ\x98\x83I,A'
p462
tp463
Rp464
ag7
(g11
S'\xffi\x03\x9d\xf2H,A'
p465
tp466
Rp467
ag7
(g11
S'Z\xf9\xc52"x,A'
p468
tp469
Rp470
asS'mmre'
p471
(lp472
g7
(g11
S',W\x1b \rq\xce@'
p473
tp474
Rp475
ag7
(g11
S'X\xa1\x98\x85@m\xce@'
p476
tp477
Rp478
ag7
(g11
S'j\xde\x05\xe5as\xce@'
p479
tp480
Rp481
asS'rank'
p482
(lp483
I178
aI178
aI178
assS'sac_9'
p484
(dp485
S'abs_res'
p486
(lp487
g7
(g11
S'\x8a\xc2\xf5(\xfe\xa6\x10A'
p488
tp489
Rp490
ag7
(g11
S'\x8a\xc2\xf5(\xfe\xa6\x10A'
p491
tp492
Rp493
ag7
(g11
S'\x8a\xc2\xf5(\xfe\xa6\x10A'
p494
tp495
Rp496
asS'mmre'
p497
(lp498
g7
(g11
S'p\xfb\xda\xa9|d\xa1@'
p499
tp500
Rp501
ag7
(g11
S'q\xfb\xda\xa9|d\xa1@'
p502
tp503
Rp504
ag7
(g11
S'q\xfb\xda\xa9|d\xa1@'
p505
tp506
Rp507
asS'rank'
p508
(lp509
I32
aI32
aI32
assS'sac_8'
p510
(dp511
S'abs_res'
p512
(lp513
g7
(g11
S'mfff\xc2\xcb\nA'
p514
tp515
Rp516
ag7
(g11
S'mfff\xc2\xcb\nA'
p517
tp518
Rp519
ag7
(g11
S'mfff\xc2\xcb\nA'
p520
tp521
Rp522
asS'mmre'
p523
(lp524
g7
(g11
S'9U\x95/\xb3@s@'
p525
tp526
Rp527
ag7
(g11
S'9U\x95/\xb3@s@'
p528
tp529
Rp530
ag7
(g11
S'9U\x95/\xb3@s@'
p531
tp532
Rp533
asS'rank'
p534
(lp535
I135
aI135
aI135
asssS'sac_5'
p536
(dp537
S'sac_7'
p538
(dp539
S'abs_res'
p540
(lp541
g7
(g11
S'\xfb\xff\xff\xff\x9f\x92\x00A'
p542
tp543
Rp544
ag7
(g11
S'\xfb\xff\xff\xff\x9f\x92\x00A'
p545
tp546
Rp547
ag7
(g11
S'\xfb\xff\xff\xff\x9f\x92\x00A'
p548
tp549
Rp550
asS'mmre'
p551
(lp552
g7
(g11
S'V\x1d&\xbd\xd4\x8ci@'
p553
tp554
Rp555
ag7
(g11
S'V\x1d&\xbd\xd4\x8ci@'
p556
tp557
Rp558
ag7
(g11
S'V\x1d&\xbd\xd4\x8ci@'
p559
tp560
Rp561
asS'rank'
p562
(lp563
I612
aI612
aI612
assS'sac_6'
p564
(dp565
S'abs_res'
p566
(lp567
g7
(g11
S',\\\x8f\xc2\x0f\xfa\x00A'
p568
tp569
Rp570
ag7
(g11
S',\\\x8f\xc2\x0f\xfa\x00A'
p571
tp572
Rp573
ag7
(g11
S',\\\x8f\xc2\x0f\xfa\x00A'
p574
tp575
Rp576
asS'mmre'
p577
(lp578
g7
(g11
S'k\xab%+\xb0\x94r@'
p579
tp580
Rp581
ag7
(g11
S'k\xab%+\xb0\x94r@'
p582
tp583
Rp584
ag7
(g11
S'k\xab%+\xb0\x94r@'
p585
tp586
Rp587
asS'rank'
p588
(lp589
I596
aI596
aI596
assS'sac_4'
p590
(dp591
S'abs_res'
p592
(lp593
g7
(g11
S'N~\xb1tP\xe61A'
p594
tp595
Rp596
ag7
(g11
S'O~\xb1\xa4\r\xed1A'
p597
tp598
Rp599
ag7
(g11
S'\xb5\xe4\x17k\x85\xef1A'
p600
tp601
Rp602
asS'mmre'
p603
(lp604
g7
(g11
S'\x04(\xe6\x1b_\xa0\xd2@'
p605
tp606
Rp607
ag7
(g11
S'\xcb\x13\xec_\x8a\xa7\xd2@'
p608
tp609
Rp610
ag7
(g11
S'\xee\xff\xc4\x8c\x91\x9b\xd2@'
p611
tp612
Rp613
asS'rank'
p614
(lp615
I4742
aI4742
aI4742
assS'sac_9'
p616
(dp617
S'abs_res'
p618
(lp619
g7
(g11
S'-\\\x8f\xc2\x97Y\x08A'
p620
tp621
Rp622
ag7
(g11
S'-\\\x8f\xc2\x97Y\x08A'
p623
tp624
Rp625
ag7
(g11
S'-\\\x8f\xc2\x97Y\x08A'
p626
tp627
Rp628
asS'mmre'
p629
(lp630
g7
(g11
S'\x10%\xf0\xf0\x12\xae\xad@'
p631
tp632
Rp633
ag7
(g11
S'\x10%\xf0\xf0\x12\xae\xad@'
p634
tp635
Rp636
ag7
(g11
S'\x10%\xf0\xf0\x12\xae\xad@'
p637
tp638
Rp639
asS'rank'
p640
(lp641
I696
aI696
aI696
assS'sac_8'
p642
(dp643
S'abs_res'
p644
(lp645
g7
(g11
S'\xd8@\xa7\r\x91\xe4\x04A'
p646
tp647
Rp648
ag7
(g11
S'\xd8@\xa7\r\x91\xe4\x04A'
p649
tp650
Rp651
ag7
(g11
S'\xd8@\xa7\r\x91\xe4\x04A'
p652
tp653
Rp654
asS'mmre'
p655
(lp656
g7
(g11
S'\\k\xac\xbc*+t@'
p657
tp658
Rp659
ag7
(g11
S'\\k\xac\xbc*+t@'
p660
tp661
Rp662
ag7
(g11
S'\\k\xac\xbc*+t@'
p663
tp664
Rp665
asS'rank'
p666
(lp667
I743
aI743
aI743
asssS'sac_4'
p668
(dp669
S'sac_7'
p670
(dp671
S'abs_res'
p672
(lp673
g7
(g11
S'\xc5\xf5(\\\x07\xe5\x02A'
p674
tp675
Rp676
ag7
(g11
S'\xc5\xf5(\\\x07\xe5\x02A'
p677
tp678
Rp679
ag7
(g11
S'\xc5\xf5(\\\x07\xe5\x02A'
p680
tp681
Rp682
asS'mmre'
p683
(lp684
g7
(g11
S'\xf5R\xb1\xd3\x03IX@'
p685
tp686
Rp687
ag7
(g11
S'\xf5R\xb1\xd3\x03IX@'
p688
tp689
Rp690
ag7
(g11
S'\xf5R\xb1\xd3\x03IX@'
p691
tp692
Rp693
asS'rank'
p694
(lp695
I90
aI90
aI90
assS'sac_6'
p696
(dp697
S'abs_res'
p698
(lp699
g7
(g11
S'\xebQ\xb8\x1e\x1f\xcc\x04A'
p700
tp701
Rp702
ag7
(g11
S'\xebQ\xb8\x1e\x1f\xcc\x04A'
p703
tp704
Rp705
ag7
(g11
S'\x14\xaeG\xe1\x1e\xcc\x04A'
p706
tp707
Rp708
asS'mmre'
p709
(lp710
g7
(g11
S'\x94\xf4\xb9d\xd3\x05X@'
p711
tp712
Rp713
ag7
(g11
S'\x94\xf4\xb9d\xd3\x05X@'
p714
tp715
Rp716
ag7
(g11
S'P\x16\xc7\xe7\xd3\x05X@'
p717
tp718
Rp719
asS'rank'
p720
(lp721
I48
aI48
aI48
assS'sac_5'
p722
(dp723
S'abs_res'
p724
(lp725
g7
(g11
S't\xebQ\xb8b\x8d\x0fA'
p726
tp727
Rp728
ag7
(g11
S'K\x8f\xc2\xf5b\x8d\x0fA'
p729
tp730
Rp731
ag7
(g11
S't\xebQ\xb8b\x8d\x0fA'
p732
tp733
Rp734
asS'mmre'
p735
(lp736
g7
(g11
S'\xa9\x90\\]\xf3Kp@'
p737
tp738
Rp739
ag7
(g11
S'\xa9\x90\\]\xf3Kp@'
p740
tp741
Rp742
ag7
(g11
S'\xa9\x90\\]\xf3Kp@'
p743
tp744
Rp745
asS'rank'
p746
(lp747
I52
aI52
aI52
assS'sac_9'
p748
(dp749
S'abs_res'
p750
(lp751
g7
(g11
S'\xaaG\xe1z\xd0\xe1\x11A'
p752
tp753
Rp754
ag7
(g11
S'\xc9\xcc\xcc\xcc\xd0\xe1\x11A'
p755
tp756
Rp757
ag7
(g11
S'w\x14\xaeG\xd0\xe1\x11A'
p758
tp759
Rp760
asS'mmre'
p761
(lp762
g7
(g11
S',]\xaa\xdel\x1dZ@'
p763
tp764
Rp765
ag7
(g11
S'\x95e\x8f\xe7k\x1dZ@'
p766
tp767
Rp768
ag7
(g11
S',]\xaa\xdel\x1dZ@'
p769
tp770
Rp771
asS'rank'
p772
(lp773
I2
aI2
aI2
assS'sac_8'
p774
(dp775
S'abs_res'
p776
(lp777
g7
(g11
S'\xaf\x1e\x85\xeb\xb5\x98\rA'
p778
tp779
Rp780
ag7
(g11
S'\xaf\x1e\x85\xeb\xb5\x98\rA'
p781
tp782
Rp783
ag7
(g11
S'\xeb(\\\x8f\xb6\x98\rA'
p784
tp785
Rp786
asS'mmre'
p787
(lp788
g7
(g11
S'\xcb\x83$pVpX@'
p789
tp790
Rp791
ag7
(g11
S"'\x1b\xf2\x96SpX@"
p792
tp793
Rp794
ag7
(g11
S'\xbc\x8d\xc0EVpX@'
p795
tp796
Rp797
asS'rank'
p798
(lp799
I39
aI39
aI39
asss.