(dp0
S'spear_5'
p1
(dp2
S'spear_4'
p3
(dp4
S'abs_res'
p5
(lp6
cnumpy.core.multiarray
scalar
p7
(cnumpy
dtype
p8
(S'f8'
p9
I0
I1
tp10
Rp11
(I3
S'<'
p12
NNNI-1
I-1
I0
tp13
bS'+533sa\xa9@'
p14
tp15
Rp16
ag7
(g11
S'0533sa\xa9@'
p17
tp18
Rp19
ag7
(g11
S'/533sa\xa9@'
p20
tp21
Rp22
asS'mmre'
p23
(lp24
g7
(g11
S'\xa5\xb6R\xfe\xa2\x83S@'
p25
tp26
Rp27
ag7
(g11
S'\xa5\xb6R\xfe\xa2\x83S@'
p28
tp29
Rp30
ag7
(g11
S'\xa5\xb6R\xfe\xa2\x83S@'
p31
tp32
Rp33
asS'rank'
p34
(lp35
I2534
aI2534
aI2534
assS'spear_7'
p36
(dp37
S'abs_res'
p38
(lp39
g7
(g11
S'/iff&\xe7\xa8@'
p40
tp41
Rp42
ag7
(g11
S'1iff&\xe7\xa8@'
p43
tp44
Rp45
ag7
(g11
S'+iff&\xe7\xa8@'
p46
tp47
Rp48
asS'mmre'
p49
(lp50
g7
(g11
S'K\x0f\xd1o\xa3\xdet@'
p51
tp52
Rp53
ag7
(g11
S'K\x0f\xd1o\xa3\xdet@'
p54
tp55
Rp56
ag7
(g11
S'K\x0f\xd1o\xa3\xdet@'
p57
tp58
Rp59
asS'rank'
p60
(lp61
I60
aI60
aI60
assS'spear_6'
p62
(dp63
S'abs_res'
p64
(lp65
g7
(g11
S'\xf1433\xd9\xf8\xa4@'
p66
tp67
Rp68
ag7
(g11
S'\xf7433\xd9\xf8\xa4@'
p69
tp70
Rp71
ag7
(g11
S'\xf8433\xd9\xf8\xa4@'
p72
tp73
Rp74
asS'mmre'
p75
(lp76
g7
(g11
S'\xdf \xf2\xca=$C@'
p77
tp78
Rp79
ag7
(g11
S'\xdf \xf2\xca=$C@'
p80
tp81
Rp82
ag7
(g11
S'\xdf \xf2\xca=$C@'
p83
tp84
Rp85
asS'rank'
p86
(lp87
I692
aI692
aI692
assS'spear_1'
p88
(dp89
S'abs_res'
p90
(lp91
g7
(g11
S'\x0c\xd0\xcc\xcc\xcc\x90\xa8@'
p92
tp93
Rp94
ag7
(g11
S'\x0e\xd0\xcc\xcc\xcc\x90\xa8@'
p95
tp96
Rp97
ag7
(g11
S'\xf4\xcf\xcc\xcc\xcc\x90\xa8@'
p98
tp99
Rp100
asS'mmre'
p101
(lp102
g7
(g11
S"\x07m'\x13\x07\xecp@"
p103
tp104
Rp105
ag7
(g11
S"\x07m'\x13\x07\xecp@"
p106
tp107
Rp108
ag7
(g11
S"\x07m'\x13\x07\xecp@"
p109
tp110
Rp111
asS'rank'
p112
(lp113
I868
aI868
aI868
assS'spear_0'
p114
(dp115
S'abs_res'
p116
(lp117
g7
(g11
S'\xf9S\xb8\x1e\x97)\xa3@'
p118
tp119
Rp120
ag7
(g11
S'\x1dT\xb8\x1e\x97)\xa3@'
p121
tp122
Rp123
ag7
(g11
S'\x01T\xb8\x1e\x97)\xa3@'
p124
tp125
Rp126
asS'mmre'
p127
(lp128
g7
(g11
S'0\xc9@\xf9\x13\x12]@'
p129
tp130
Rp131
ag7
(g11
S'0\xc9@\xf9\x13\x12]@'
p132
tp133
Rp134
ag7
(g11
S'0\xc9@\xf9\x13\x12]@'
p135
tp136
Rp137
asS'rank'
p138
(lp139
I625
aI625
aI625
assS'spear_3'
p140
(dp141
S'abs_res'
p142
(lp143
g7
(g11
S'y\xf6(\\\x0f\xef\xa2@'
p144
tp145
Rp146
ag7
(g11
S'w\xf6(\\\x0f\xef\xa2@'
p147
tp148
Rp149
ag7
(g11
S'w\xf6(\\\x0f\xef\xa2@'
p150
tp151
Rp152
asS'mmre'
p153
(lp154
g7
(g11
S'\x93\x1f\x07UJ\x1d>@'
p155
tp156
Rp157
ag7
(g11
S'\x93\x1f\x07UJ\x1d>@'
p158
tp159
Rp160
ag7
(g11
S'\x93\x1f\x07UJ\x1d>@'
p161
tp162
Rp163
asS'rank'
p164
(lp165
I22
aI22
aI22
assS'spear_2'
p166
(dp167
S'abs_res'
p168
(lp169
g7
(g11
S'\xc4\x12\xaeGa\xb8\x92@'
p170
tp171
Rp172
ag7
(g11
S'\xc4\x12\xaeGa\xb8\x92@'
p173
tp174
Rp175
ag7
(g11
S'\xc4\x12\xaeGa\xb8\x92@'
p176
tp177
Rp178
asS'mmre'
p179
(lp180
g7
(g11
S'U\xa2<g\xa3\xa6a@'
p181
tp182
Rp183
ag7
(g11
S'U\xa2<g\xa3\xa6a@'
p184
tp185
Rp186
ag7
(g11
S'U\xa2<g\xa3\xa6a@'
p187
tp188
Rp189
asS'rank'
p190
(lp191
I20
aI20
aI20
assS'spear_9'
p192
(dp193
S'abs_res'
p194
(lp195
g7
(g11
S'\xc1\xb0G\xe1b\x80\xb5@'
p196
tp197
Rp198
ag7
(g11
S'\xc2\xb0G\xe1b\x80\xb5@'
p199
tp200
Rp201
ag7
(g11
S'\xc1\xb0G\xe1b\x80\xb5@'
p202
tp203
Rp204
asS'mmre'
p205
(lp206
g7
(g11
S'\x00\xd5\xbc\x95\xef\x95}@'
p207
tp208
Rp209
ag7
(g11
S'\x00\xd5\xbc\x95\xef\x95}@'
p210
tp211
Rp212
ag7
(g11
S'\x00\xd5\xbc\x95\xef\x95}@'
p213
tp214
Rp215
asS'rank'
p216
(lp217
I4418
aI4418
aI4418
assS'spear_8'
p218
(dp219
S'abs_res'
p220
(lp221
g7
(g11
S'n\x90\xc25=\x7f\xb2@'
p222
tp223
Rp224
ag7
(g11
S'm\x90\xc25=\x7f\xb2@'
p225
tp226
Rp227
ag7
(g11
S'n\x90\xc25=\x7f\xb2@'
p228
tp229
Rp230
asS'mmre'
p231
(lp232
g7
(g11
S'\x15\xbe\xd6\x17\t.F@'
p233
tp234
Rp235
ag7
(g11
S'\x15\xbe\xd6\x17\t.F@'
p236
tp237
Rp238
ag7
(g11
S'\x15\xbe\xd6\x17\t.F@'
p239
tp240
Rp241
asS'rank'
p242
(lp243
I218
aI218
aI218
asssS'spear_4'
p244
(dp245
S'spear_5'
p246
(dp247
S'abs_res'
p248
(lp249
g7
(g11
S'\xc3]\x8f\x02sa\xa9@'
p250
tp251
Rp252
ag7
(g11
S'\xc2]\x8f\x02sa\xa9@'
p253
tp254
Rp255
ag7
(g11
S'\xc3]\x8f\x02sa\xa9@'
p256
tp257
Rp258
asS'mmre'
p259
(lp260
g7
(g11
S'\xf7\x13\xea\xaa\x86\xb7S@'
p261
tp262
Rp263
ag7
(g11
S'\xf7\x13\xea\xaa\x86\xb7S@'
p264
tp265
Rp266
ag7
(g11
S'\xf7\x13\xea\xaa\x86\xb7S@'
p267
tp268
Rp269
asS'rank'
p270
(lp271
I256
aI256
aI256
assS'spear_7'
p272
(dp273
S'abs_res'
p274
(lp275
g7
(g11
S'l\xf8(\xdcf>\xaf@'
p276
tp277
Rp278
ag7
(g11
S'p\xf8(\xdcf>\xaf@'
p279
tp280
Rp281
ag7
(g11
S'm\xf8(\xdcf>\xaf@'
p282
tp283
Rp284
asS'mmre'
p285
(lp286
g7
(g11
S'\x1c\xc0\x18\x89\x85\xa0}@'
p287
tp288
Rp289
ag7
(g11
S'\x1c\xc0\x18\x89\x85\xa0}@'
p290
tp291
Rp292
ag7
(g11
S'\x1c\xc0\x18\x89\x85\xa0}@'
p293
tp294
Rp295
asS'rank'
p296
(lp297
I3841
aI3841
aI3841
assS'spear_6'
p298
(dp299
S'abs_res'
p300
(lp301
g7
(g11
S'\xf8\x86\xebQ(\x93\xaa@'
p302
tp303
Rp304
ag7
(g11
S'\xf7\x86\xebQ(\x93\xaa@'
p305
tp306
Rp307
ag7
(g11
S'\xf8\x86\xebQ(\x93\xaa@'
p308
tp309
Rp310
asS'mmre'
p311
(lp312
g7
(g11
S'\x8e<{\x05\xf6\xe9D@'
p313
tp314
Rp315
ag7
(g11
S'\x8e<{\x05\xf6\xe9D@'
p316
tp317
Rp318
ag7
(g11
S'\x8e<{\x05\xf6\xe9D@'
p319
tp320
Rp321
asS'rank'
p322
(lp323
I566
aI566
aI566
assS'spear_1'
p324
(dp325
S'abs_res'
p326
(lp327
g7
(g11
S'\xa9\xd9\xa3\xb0\x13\xf0\xae@'
p328
tp329
Rp330
ag7
(g11
S'\xa9\xd9\xa3\xb0\x13\xf0\xae@'
p331
tp332
Rp333
ag7
(g11
S'\xaa\xd9\xa3\xb0\x13\xf0\xae@'
p334
tp335
Rp336
asS'mmre'
p337
(lp338
g7
(g11
S'u\xe0\x809\xcf,x@'
p339
tp340
Rp341
ag7
(g11
S'u\xe0\x809\xcf,x@'
p342
tp343
Rp344
ag7
(g11
S'u\xe0\x809\xcf,x@'
p345
tp346
Rp347
asS'rank'
p348
(lp349
I4978
aI4978
aI4978
assS'spear_0'
p350
(dp351
S'abs_res'
p352
(lp353
g7
(g11
S'\xef\xb0G\xa1\xea\xa9\xa7@'
p354
tp355
Rp356
ag7
(g11
S'\xee\xb0G\xa1\xea\xa9\xa7@'
p357
tp358
Rp359
ag7
(g11
S'\xef\xb0G\xa1\xea\xa9\xa7@'
p360
tp361
Rp362
asS'mmre'
p363
(lp364
g7
(g11
S'\xb8\x13\xa9\xaf\xb4\xf1a@'
p365
tp366
Rp367
ag7
(g11
S'\xb8\x13\xa9\xaf\xb4\xf1a@'
p368
tp369
Rp370
ag7
(g11
S'\xb8\x13\xa9\xaf\xb4\xf1a@'
p371
tp372
Rp373
asS'rank'
p374
(lp375
I4597
aI4597
aI4597
assS'spear_3'
p376
(dp377
S'abs_res'
p378
(lp379
g7
(g11
S'\xa6\xd8\xa3p}c\xae@'
p380
tp381
Rp382
ag7
(g11
S'\xa6\xd8\xa3p}c\xae@'
p383
tp384
Rp385
ag7
(g11
S'\xa6\xd8\xa3p}c\xae@'
p386
tp387
Rp388
asS'mmre'
p389
(lp390
g7
(g11
S'\xef\xeb\xd3\x8a\xa0PE@'
p391
tp392
Rp393
ag7
(g11
S'\xef\xeb\xd3\x8a\xa0PE@'
p394
tp395
Rp396
ag7
(g11
S'\xef\xeb\xd3\x8a\xa0PE@'
p397
tp398
Rp399
asS'rank'
p400
(lp401
I7193
aI7193
aI7193
assS'spear_2'
p402
(dp403
S'abs_res'
p404
(lp405
g7
(g11
S'\x0e!\x85\xebQT\xa7@'
p406
tp407
Rp408
ag7
(g11
S'\x0e!\x85\xebQT\xa7@'
p409
tp410
Rp411
ag7
(g11
S'\x0e!\x85\xebQT\xa7@'
p412
tp413
Rp414
asS'mmre'
p415
(lp416
g7
(g11
S'O/\x0c\xc0>\x10k@'
p417
tp418
Rp419
ag7
(g11
S'O/\x0c\xc0>\x10k@'
p420
tp421
Rp422
ag7
(g11
S'O/\x0c\xc0>\x10k@'
p423
tp424
Rp425
asS'rank'
p426
(lp427
I197
aI197
aI197
assS'spear_9'
p428
(dp429
S'abs_res'
p430
(lp431
g7
(g11
S'.\r\xd7\x03F\xcb\xba@'
p432
tp433
Rp434
ag7
(g11
S'-\r\xd7\x03F\xcb\xba@'
p435
tp436
Rp437
ag7
(g11
S',\r\xd7\x03F\xcb\xba@'
p438
tp439
Rp440
asS'mmre'
p441
(lp442
g7
(g11
S"0\xbc'\x08\xe5\x16\x80@"
p443
tp444
Rp445
ag7
(g11
S"0\xbc'\x08\xe5\x16\x80@"
p446
tp447
Rp448
ag7
(g11
S"/\xbc'\x08\xe5\x16\x80@"
p449
tp450
Rp451
asS'rank'
p452
(lp453
I3375
aI3375
aI3375
assS'spear_8'
p454
(dp455
S'abs_res'
p456
(lp457
g7
(g11
S'\x8a\xc3\xf5\x88g\xa0\xb6@'
p458
tp459
Rp460
ag7
(g11
S'\x8a\xc3\xf5\x88g\xa0\xb6@'
p461
tp462
Rp463
ag7
(g11
S'\x8b\xc3\xf5\x88g\xa0\xb6@'
p464
tp465
Rp466
asS'mmre'
p467
(lp468
g7
(g11
S'\x9de\x82\xbe\xd70G@'
p469
tp470
Rp471
ag7
(g11
S'\x9de\x82\xbe\xd70G@'
p472
tp473
Rp474
ag7
(g11
S'\x9de\x82\xbe\xd70G@'
p475
tp476
Rp477
asS'rank'
p478
(lp479
I266
aI266
aI266
asssS'spear_7'
p480
(dp481
S'spear_5'
p482
(dp483
S'abs_res'
p484
(lp485
g7
(g11
S'p\x92\xc2\xf5(\xe7\xa8@'
p486
tp487
Rp488
ag7
(g11
S'p\x92\xc2\xf5(\xe7\xa8@'
p489
tp490
Rp491
ag7
(g11
S'p\x92\xc2\xf5(\xe7\xa8@'
p492
tp493
Rp494
asS'mmre'
p495
(lp496
g7
(g11
S'i\xdc8\x06\xa6\xfdB@'
p497
tp498
Rp499
ag7
(g11
S'i\xdc8\x06\xa6\xfdB@'
p500
tp501
Rp502
ag7
(g11
S'i\xdc8\x06\xa6\xfdB@'
p503
tp504
Rp505
asS'rank'
p506
(lp507
I2
aI2
aI2
assS'spear_4'
p508
(dp509
S'abs_res'
p510
(lp511
g7
(g11
S'\x88\x92\xc2\xf5h>\xaf@'
p512
tp513
Rp514
ag7
(g11
S'\x88\x92\xc2\xf5h>\xaf@'
p515
tp516
Rp517
ag7
(g11
S'\x88\x92\xc2\xf5h>\xaf@'
p518
tp519
Rp520
asS'mmre'
p521
(lp522
g7
(g11
S'\xf9\x03\xcf\xfe2FN@'
p523
tp524
Rp525
ag7
(g11
S'\xf9\x03\xcf\xfe2FN@'
p526
tp527
Rp528
ag7
(g11
S'\xf9\x03\xcf\xfe2FN@'
p529
tp530
Rp531
asS'rank'
p532
(lp533
I26
aI26
aI26
assS'spear_6'
p534
(dp535
S'abs_res'
p536
(lp537
g7
(g11
S'\xe0r=\n\x17!\xaf@'
p538
tp539
Rp540
ag7
(g11
S'\xe0r=\n\x17!\xaf@'
p541
tp542
Rp543
ag7
(g11
S'\xe0r=\n\x17!\xaf@'
p544
tp545
Rp546
asS'mmre'
p547
(lp548
g7
(g11
S'\xe9\x18SAw=H@'
p549
tp550
Rp551
ag7
(g11
S'\xe9\x18SAw=H@'
p552
tp553
Rp554
ag7
(g11
S'\xe9\x18SAw=H@'
p555
tp556
Rp557
asS'rank'
p558
(lp559
I0
aI0
aI0
assS'spear_1'
p560
(dp561
S'abs_res'
p562
(lp563
g7
(g11
S'mx\x14\xaeG]g@'
p564
tp565
Rp566
ag7
(g11
S'kx\x14\xaeG]g@'
p567
tp568
Rp569
ag7
(g11
S'mx\x14\xaeG]g@'
p570
tp571
Rp572
asS'mmre'
p573
(lp574
g7
(g11
S'p3\xf6\xf2\x1f*$@'
p575
tp576
Rp577
ag7
(g11
S'p3\xf6\xf2\x1f*$@'
p578
tp579
Rp580
ag7
(g11
S'p3\xf6\xf2\x1f*$@'
p581
tp582
Rp583
asS'rank'
p584
(lp585
I0
aI0
aI0
assS'spear_0'
p586
(dp587
S'abs_res'
p588
(lp589
g7
(g11
S'X\x99\x99\x99\x99n\x94@'
p590
tp591
Rp592
ag7
(g11
S'X\x99\x99\x99\x99n\x94@'
p593
tp594
Rp595
ag7
(g11
S'X\x99\x99\x99\x99n\x94@'
p596
tp597
Rp598
asS'mmre'
p599
(lp600
g7
(g11
S'\x1c@\x838\xb3hA@'
p601
tp602
Rp603
ag7
(g11
S'\x1c@\x838\xb3hA@'
p604
tp605
Rp606
ag7
(g11
S'\x1d@\x838\xb3hA@'
p607
tp608
Rp609
asS'rank'
p610
(lp611
I0
aI0
aI0
assS'spear_3'
p612
(dp613
S'abs_res'
p614
(lp615
g7
(g11
S'h\x9b\x99\x99\xd9M\xb2@'
p616
tp617
Rp618
ag7
(g11
S'h\x9b\x99\x99\xd9M\xb2@'
p619
tp620
Rp621
ag7
(g11
S'h\x9b\x99\x99\xd9M\xb2@'
p622
tp623
Rp624
asS'mmre'
p625
(lp626
g7
(g11
S'c\x83H\xfe\xdb\x16G@'
p627
tp628
Rp629
ag7
(g11
S'c\x83H\xfe\xdb\x16G@'
p630
tp631
Rp632
ag7
(g11
S'c\x83H\xfe\xdb\x16G@'
p633
tp634
Rp635
asS'rank'
p636
(lp637
I9
aI9
aI9
assS'spear_2'
p638
(dp639
S'abs_res'
p640
(lp641
g7
(g11
S'\xb1\x0c\xd7\xa3\xb0\xc7\xa3@'
p642
tp643
Rp644
ag7
(g11
S'\xb1\x0c\xd7\xa3\xb0\xc7\xa3@'
p645
tp646
Rp647
ag7
(g11
S'\xb1\x0c\xd7\xa3\xb0\xc7\xa3@'
p648
tp649
Rp650
asS'mmre'
p651
(lp652
g7
(g11
S'\xc8C%\xf7>\xc6>@'
p653
tp654
Rp655
ag7
(g11
S'\xc8C%\xf7>\xc6>@'
p656
tp657
Rp658
ag7
(g11
S'\xc8C%\xf7>\xc6>@'
p659
tp660
Rp661
asS'rank'
p662
(lp663
I3
aI3
aI3
assS'spear_9'
p664
(dp665
S'abs_res'
p666
(lp667
g7
(g11
S'6t=\nW\xf6\xb7@'
p668
tp669
Rp670
ag7
(g11
S'6t=\nW\xf6\xb7@'
p671
tp672
Rp673
ag7
(g11
S'6t=\nW\xf6\xb7@'
p674
tp675
Rp676
asS'mmre'
p677
(lp678
g7
(g11
S'b\xd8\x97\xf7\xdagv@'
p679
tp680
Rp681
ag7
(g11
S'b\xd8\x97\xf7\xdagv@'
p682
tp683
Rp684
ag7
(g11
S'b\xd8\x97\xf7\xdagv@'
p685
tp686
Rp687
asS'rank'
p688
(lp689
I0
aI0
aI0
assS'spear_8'
p690
(dp691
S'abs_res'
p692
(lp693
g7
(g11
S'\xbb>\n\xd7\xe3\x9d\xbb@'
p694
tp695
Rp696
ag7
(g11
S'\xbb>\n\xd7\xe3\x9d\xbb@'
p697
tp698
Rp699
ag7
(g11
S'\xbb>\n\xd7\xe3\x9d\xbb@'
p700
tp701
Rp702
asS'mmre'
p703
(lp704
g7
(g11
S'h\xfa\x93\xaa\xfbJI@'
p705
tp706
Rp707
ag7
(g11
S'h\xfa\x93\xaa\xfbJI@'
p708
tp709
Rp710
ag7
(g11
S'h\xfa\x93\xaa\xfbJI@'
p711
tp712
Rp713
asS'rank'
p714
(lp715
I0
aI0
aI0
asssS'spear_6'
p716
(dp717
S'spear_5'
p718
(dp719
S'abs_res'
p720
(lp721
g7
(g11
S'k\x9b\x99\x99\xd9\xf8\xa4@'
p722
tp723
Rp724
ag7
(g11
S'k\x9b\x99\x99\xd9\xf8\xa4@'
p725
tp726
Rp727
ag7
(g11
S'k\x9b\x99\x99\xd9\xf8\xa4@'
p728
tp729
Rp730
asS'mmre'
p731
(lp732
g7
(g11
S'w\xc0z\x0c\xa5\xe7f@'
p733
tp734
Rp735
ag7
(g11
S'w\xc0z\x0c\xa5\xe7f@'
p736
tp737
Rp738
ag7
(g11
S'w\xc0z\x0c\xa5\xe7f@'
p739
tp740
Rp741
asS'rank'
p742
(lp743
I490
aI490
aI490
assS'spear_4'
p744
(dp745
S'abs_res'
p746
(lp747
g7
(g11
S'\xab\x91\xc2\xf5(\x93\xaa@'
p748
tp749
Rp750
ag7
(g11
S'\xab\x91\xc2\xf5(\x93\xaa@'
p751
tp752
Rp753
ag7
(g11
S'\xab\x91\xc2\xf5(\x93\xaa@'
p754
tp755
Rp756
asS'mmre'
p757
(lp758
g7
(g11
S'\x13h\xe9\xd4h\tf@'
p759
tp760
Rp761
ag7
(g11
S'\x13h\xe9\xd4h\tf@'
p762
tp763
Rp764
ag7
(g11
S'\x13h\xe9\xd4h\tf@'
p765
tp766
Rp767
asS'rank'
p768
(lp769
I103
aI103
aI103
assS'spear_7'
p770
(dp771
S'abs_res'
p772
(lp773
g7
(g11
S'\xe0r=\n\x17!\xaf@'
p774
tp775
Rp776
ag7
(g11
S'\xe0r=\n\x17!\xaf@'
p777
tp778
Rp779
ag7
(g11
S'\xe0r=\n\x17!\xaf@'
p780
tp781
Rp782
asS'mmre'
p783
(lp784
g7
(g11
S'\x86\xc0\xfed\tz\x83@'
p785
tp786
Rp787
ag7
(g11
S'\x86\xc0\xfed\tz\x83@'
p788
tp789
Rp790
ag7
(g11
S'\x86\xc0\xfed\tz\x83@'
p791
tp792
Rp793
asS'rank'
p794
(lp795
I0
aI0
aI0
assS'spear_1'
p796
(dp797
S'abs_res'
p798
(lp799
g7
(g11
S't+\\\x8fB\xef\xad@'
p800
tp801
Rp802
ag7
(g11
S't+\\\x8fB\xef\xad@'
p803
tp804
Rp805
ag7
(g11
S't+\\\x8fB\xef\xad@'
p806
tp807
Rp808
asS'mmre'
p809
(lp810
g7
(g11
S'&\xb9\xd4V\x17\x87\x80@'
p811
tp812
Rp813
ag7
(g11
S'&\xb9\xd4V\x17\x87\x80@'
p814
tp815
Rp816
ag7
(g11
S'&\xb9\xd4V\x17\x87\x80@'
p817
tp818
Rp819
asS'rank'
p820
(lp821
I439
aI439
aI439
assS'spear_0'
p822
(dp823
S'abs_res'
p824
(lp825
g7
(g11
S'@\x91\xc2\xf5\xe8\x80\xa5@'
p826
tp827
Rp828
ag7
(g11
S'@\x91\xc2\xf5\xe8\x80\xa5@'
p829
tp830
Rp831
ag7
(g11
S'@\x91\xc2\xf5\xe8\x80\xa5@'
p832
tp833
Rp834
asS'mmre'
p835
(lp836
g7
(g11
S'\xd8\xd2|\x0e\xd5&i@'
p837
tp838
Rp839
ag7
(g11
S'\xd8\xd2|\x0e\xd5&i@'
p840
tp841
Rp842
ag7
(g11
S'\xd8\xd2|\x0e\xd5&i@'
p843
tp844
Rp845
asS'rank'
p846
(lp847
I63
aI63
aI63
assS'spear_3'
p848
(dp849
S'abs_res'
p850
(lp851
g7
(g11
S'\xafgff&\xb9\xa3@'
p852
tp853
Rp854
ag7
(g11
S'\xafgff&\xb9\xa3@'
p855
tp856
Rp857
ag7
(g11
S'\xafgff&\xb9\xa3@'
p858
tp859
Rp860
asS'mmre'
p861
(lp862
g7
(g11
S'f\x0e\x15Gh\x96I@'
p863
tp864
Rp865
ag7
(g11
S'f\x0e\x15Gh\x96I@'
p866
tp867
Rp868
ag7
(g11
S'f\x0e\x15Gh\x96I@'
p869
tp870
Rp871
asS'rank'
p872
(lp873
I550
aI550
aI550
assS'spear_2'
p874
(dp875
S'abs_res'
p876
(lp877
g7
(g11
S'\xb5\xe2z\x14\xae\xc7\xa4@'
p878
tp879
Rp880
ag7
(g11
S'\xb5\xe2z\x14\xae\xc7\xa4@'
p881
tp882
Rp883
ag7
(g11
S'\xb5\xe2z\x14\xae\xc7\xa4@'
p884
tp885
Rp886
asS'mmre'
p887
(lp888
g7
(g11
S'\x85\x95o6Ipv@'
p889
tp890
Rp891
ag7
(g11
S'\x85\x95o6Ipv@'
p892
tp893
Rp894
ag7
(g11
S'\x85\x95o6Ipv@'
p895
tp896
Rp897
asS'rank'
p898
(lp899
I350
aI350
aI350
assS'spear_9'
p900
(dp901
S'abs_res'
p902
(lp903
g7
(g11
S'VJ\xe1z\xb4\xd9\xb9@'
p904
tp905
Rp906
ag7
(g11
S'VJ\xe1z\xb4\xd9\xb9@'
p907
tp908
Rp909
ag7
(g11
S'VJ\xe1z\xb4\xd9\xb9@'
p910
tp911
Rp912
asS'mmre'
p913
(lp914
g7
(g11
S'D\xc6\x8aK\xfdz\x89@'
p915
tp916
Rp917
ag7
(g11
S'D\xc6\x8aK\xfdz\x89@'
p918
tp919
Rp920
ag7
(g11
S'D\xc6\x8aK\xfdz\x89@'
p921
tp922
Rp923
asS'rank'
p924
(lp925
I0
aI0
aI0
assS'spear_8'
p926
(dp927
S'abs_res'
p928
(lp929
g7
(g11
S'kr=\n\x97\xbd\xa8@'
p930
tp931
Rp932
ag7
(g11
S'kr=\n\x97\xbd\xa8@'
p933
tp934
Rp935
ag7
(g11
S'kr=\n\x97\xbd\xa8@'
p936
tp937
Rp938
asS'mmre'
p939
(lp940
g7
(g11
S'\x90\xf8\xbc\x7f\xd3\xe5:@'
p941
tp942
Rp943
ag7
(g11
S'\x90\xf8\xbc\x7f\xd3\xe5:@'
p944
tp945
Rp946
ag7
(g11
S'\x90\xf8\xbc\x7f\xd3\xe5:@'
p947
tp948
Rp949
asS'rank'
p950
(lp951
I0
aI0
aI0
asssS'spear_1'
p952
(dp953
S'spear_5'
p954
(dp955
S'abs_res'
p956
(lp957
g7
(g11
S'\x8d\xf8(\\\xcf\x90\xa8@'
p958
tp959
Rp960
ag7
(g11
S'\x8e\xf8(\\\xcf\x90\xa8@'
p961
tp962
Rp963
ag7
(g11
S'\x8e\xf8(\\\xcf\x90\xa8@'
p964
tp965
Rp966
asS'mmre'
p967
(lp968
g7
(g11
S'\xdeC\x99\xf8\xa3nB@'
p969
tp970
Rp971
ag7
(g11
S'\xdeC\x99\xf8\xa3nB@'
p972
tp973
Rp974
ag7
(g11
S'\xdfC\x99\xf8\xa3nB@'
p975
tp976
Rp977
asS'rank'
p978
(lp979
I38
aI38
aI38
assS'spear_4'
p980
(dp981
S'abs_res'
p982
(lp983
g7
(g11
S'\xceI\xe1z\x14\xf0\xae@'
p984
tp985
Rp986
ag7
(g11
S'\xceI\xe1z\x14\xf0\xae@'
p987
tp988
Rp989
ag7
(g11
S'\xcdI\xe1z\x14\xf0\xae@'
p990
tp991
Rp992
asS'mmre'
p993
(lp994
g7
(g11
S'\xed\x1bi"\x9b\xf0M@'
p995
tp996
Rp997
ag7
(g11
S'\xed\x1bi"\x9b\xf0M@'
p998
tp999
Rp1000
ag7
(g11
S'\xed\x1bi"\x9b\xf0M@'
p1001
tp1002
Rp1003
asS'rank'
p1004
(lp1005
I923
aI923
aI923
assS'spear_7'
p1006
(dp1007
S'abs_res'
p1008
(lp1009
g7
(g11
S'\xd6/33C]g@'
p1010
tp1011
Rp1012
ag7
(g11
S'\xde/33C]g@'
p1013
tp1014
Rp1015
ag7
(g11
S'\xde/33C]g@'
p1016
tp1017
Rp1018
asS'mmre'
p1019
(lp1020
g7
(g11
S'"K\x85\x12\xe5\xef+@'
p1021
tp1022
Rp1023
ag7
(g11
S'"K\x85\x12\xe5\xef+@'
p1024
tp1025
Rp1026
ag7
(g11
S'"K\x85\x12\xe5\xef+@'
p1027
tp1028
Rp1029
asS'rank'
p1030
(lp1031
I2
aI2
aI2
assS'spear_6'
p1032
(dp1033
S'abs_res'
p1034
(lp1035
g7
(g11
S'\xbe \x85\xeb<\xef\xad@'
p1036
tp1037
Rp1038
ag7
(g11
S'\xbf \x85\xeb<\xef\xad@'
p1039
tp1040
Rp1041
ag7
(g11
S'\xbb \x85\xeb<\xef\xad@'
p1042
tp1043
Rp1044
asS'mmre'
p1045
(lp1046
g7
(g11
S'\xf4K0\x1f\x9b\xeaG@'
p1047
tp1048
Rp1049
ag7
(g11
S'\xf4K0\x1f\x9b\xeaG@'
p1050
tp1051
Rp1052
ag7
(g11
S'\xf4K0\x1f\x9b\xeaG@'
p1053
tp1054
Rp1055
asS'rank'
p1056
(lp1057
I2
aI2
aI2
assS'spear_0'
p1058
(dp1059
S'abs_res'
p1060
(lp1061
g7
(g11
S'2eff\x94/\x92@'
p1062
tp1063
Rp1064
ag7
(g11
S'.eff\x94/\x92@'
p1065
tp1066
Rp1067
ag7
(g11
S'3eff\x94/\x92@'
p1068
tp1069
Rp1070
asS'mmre'
p1071
(lp1072
g7
(g11
S'\x0b\xf0\xfe}\x81\x08@@'
p1073
tp1074
Rp1075
ag7
(g11
S'\x0b\xf0\xfe}\x81\x08@@'
p1076
tp1077
Rp1078
ag7
(g11
S'\x0b\xf0\xfe}\x81\x08@@'
p1079
tp1080
Rp1081
asS'rank'
p1082
(lp1083
I17
aI17
aI17
assS'spear_3'
p1084
(dp1085
S'abs_res'
p1086
(lp1087
g7
(g11
S'e\xedQ\xb8\xfe\xc5\xb1@'
p1088
tp1089
Rp1090
ag7
(g11
S'e\xedQ\xb8\xfe\xc5\xb1@'
p1091
tp1092
Rp1093
ag7
(g11
S'e\xedQ\xb8\xfe\xc5\xb1@'
p1094
tp1095
Rp1096
asS'mmre'
p1097
(lp1098
g7
(g11
S"\x8at\xf20'\xa5F@"
p1099
tp1100
Rp1101
ag7
(g11
S"\x8at\xf20'\xa5F@"
p1102
tp1103
Rp1104
ag7
(g11
S"\x8at\xf20'\xa5F@"
p1105
tp1106
Rp1107
asS'rank'
p1108
(lp1109
I9
aI9
aI9
assS'spear_2'
p1110
(dp1111
S'abs_res'
p1112
(lp1113
g7
(g11
S'\x9e\x91\xc2\xf5\xa8\xc3\xa2@'
p1114
tp1115
Rp1116
ag7
(g11
S'\x9e\x91\xc2\xf5\xa8\xc3\xa2@'
p1117
tp1118
Rp1119
ag7
(g11
S'\x9e\x91\xc2\xf5\xa8\xc3\xa2@'
p1120
tp1121
Rp1122
asS'mmre'
p1123
(lp1124
g7
(g11
S'\xacq\x03I\xe6;;@'
p1125
tp1126
Rp1127
ag7
(g11
S'\xacq\x03I\xe6;;@'
p1128
tp1129
Rp1130
ag7
(g11
S'\xacq\x03I\xe6;;@'
p1131
tp1132
Rp1133
asS'rank'
p1134
(lp1135
I4
aI4
aI4
assS'spear_9'
p1136
(dp1137
S'abs_res'
p1138
(lp1139
g7
(g11
S'KJ\xe1z0\x86\xb7@'
p1140
tp1141
Rp1142
ag7
(g11
S'KJ\xe1z0\x86\xb7@'
p1143
tp1144
Rp1145
ag7
(g11
S'LJ\xe1z0\x86\xb7@'
p1146
tp1147
Rp1148
asS'mmre'
p1149
(lp1150
g7
(g11
S'\x84q6\xd3\x1e\x87v@'
p1151
tp1152
Rp1153
ag7
(g11
S'\x84q6\xd3\x1e\x87v@'
p1154
tp1155
Rp1156
ag7
(g11
S'\x84q6\xd3\x1e\x87v@'
p1157
tp1158
Rp1159
asS'rank'
p1160
(lp1161
I5
aI5
aI5
assS'spear_8'
p1162
(dp1163
S'abs_res'
p1164
(lp1165
g7
(g11
S'\xc7{\x14\xae1\x03\xbb@'
p1166
tp1167
Rp1168
ag7
(g11
S'\xc7{\x14\xae1\x03\xbb@'
p1169
tp1170
Rp1171
ag7
(g11
S'\xc7{\x14\xae1\x03\xbb@'
p1172
tp1173
Rp1174
asS'mmre'
p1175
(lp1176
g7
(g11
S'\xacb\x8b\xebW\x13I@'
p1177
tp1178
Rp1179
ag7
(g11
S'\xacb\x8b\xebW\x13I@'
p1180
tp1181
Rp1182
ag7
(g11
S'\xacb\x8b\xebW\x13I@'
p1183
tp1184
Rp1185
asS'rank'
p1186
(lp1187
I2
aI2
aI2
asssS'spear_0'
p1188
(dp1189
S'spear_5'
p1190
(dp1191
S'abs_res'
p1192
(lp1193
g7
(g11
S'\xe4\x9b\x99\x99\x99)\xa3@'
p1194
tp1195
Rp1196
ag7
(g11
S'\xe4\x9b\x99\x99\x99)\xa3@'
p1197
tp1198
Rp1199
ag7
(g11
S'\xe4\x9b\x99\x99\x99)\xa3@'
p1200
tp1201
Rp1202
asS'mmre'
p1203
(lp1204
g7
(g11
S'\x05.\x8d\xea\xbbME@'
p1205
tp1206
Rp1207
ag7
(g11
S'\x05.\x8d\xea\xbbME@'
p1208
tp1209
Rp1210
ag7
(g11
S'\x05.\x8d\xea\xbbME@'
p1211
tp1212
Rp1213
asS'rank'
p1214
(lp1215
I383
aI383
aI383
assS'spear_4'
p1216
(dp1217
S'abs_res'
p1218
(lp1219
g7
(g11
S'\x7f\xe4z\x14\xee\xa9\xa7@'
p1220
tp1221
Rp1222
ag7
(g11
S'\x7f\xe4z\x14\xee\xa9\xa7@'
p1223
tp1224
Rp1225
ag7
(g11
S'\x7f\xe4z\x14\xee\xa9\xa7@'
p1226
tp1227
Rp1228
asS'mmre'
p1229
(lp1230
g7
(g11
S'\x8e}\xb9\xc8uVM@'
p1231
tp1232
Rp1233
ag7
(g11
S'\x8e}\xb9\xc8uVM@'
p1234
tp1235
Rp1236
ag7
(g11
S'\x8e}\xb9\xc8uVM@'
p1237
tp1238
Rp1239
asS'rank'
p1240
(lp1241
I69
aI69
aI69
assS'spear_7'
p1242
(dp1243
S'abs_res'
p1244
(lp1245
g7
(g11
S'T\x99\x99\x99\x99n\x94@'
p1246
tp1247
Rp1248
ag7
(g11
S'T\x99\x99\x99\x99n\x94@'
p1249
tp1250
Rp1251
ag7
(g11
S'T\x99\x99\x99\x99n\x94@'
p1252
tp1253
Rp1254
asS'mmre'
p1255
(lp1256
g7
(g11
S'\x8b]\xcd\x1a\xdc,W@'
p1257
tp1258
Rp1259
ag7
(g11
S'\x8c]\xcd\x1a\xdc,W@'
p1260
tp1261
Rp1262
ag7
(g11
S'\x8b]\xcd\x1a\xdc,W@'
p1263
tp1264
Rp1265
asS'rank'
p1266
(lp1267
I12
aI12
aI12
assS'spear_6'
p1268
(dp1269
S'abs_res'
p1270
(lp1271
g7
(g11
S'=\x91\xc2\xf5\xe8\x80\xa5@'
p1272
tp1273
Rp1274
ag7
(g11
S'>\x91\xc2\xf5\xe8\x80\xa5@'
p1275
tp1276
Rp1277
ag7
(g11
S'>\x91\xc2\xf5\xe8\x80\xa5@'
p1278
tp1279
Rp1280
asS'mmre'
p1281
(lp1282
g7
(g11
S'\x8e\x90\x8d\xde\xdc\xeeD@'
p1283
tp1284
Rp1285
ag7
(g11
S'\x8e\x90\x8d\xde\xdc\xeeD@'
p1286
tp1287
Rp1288
ag7
(g11
S'\x8e\x90\x8d\xde\xdc\xeeD@'
p1289
tp1290
Rp1291
asS'rank'
p1292
(lp1293
I137
aI137
aI137
assS'spear_1'
p1294
(dp1295
S'abs_res'
p1296
(lp1297
g7
(g11
S'\x99F\xe1z\x94/\x92@'
p1298
tp1299
Rp1300
ag7
(g11
S'\x98F\xe1z\x94/\x92@'
p1301
tp1302
Rp1303
ag7
(g11
S'\x98F\xe1z\x94/\x92@'
p1304
tp1305
Rp1306
asS'mmre'
p1307
(lp1308
g7
(g11
S'\xd3\xdc}\xe72\x04R@'
p1309
tp1310
Rp1311
ag7
(g11
S'\xd3\xdc}\xe72\x04R@'
p1312
tp1313
Rp1314
ag7
(g11
S'\xd3\xdc}\xe72\x04R@'
p1315
tp1316
Rp1317
asS'rank'
p1318
(lp1319
I26
aI26
aI26
assS'spear_3'
p1320
(dp1321
S'abs_res'
p1322
(lp1323
g7
(g11
S'\xf2\x02\x00\x00\x80W\xab@'
p1324
tp1325
Rp1326
ag7
(g11
S'\xf2\x02\x00\x00\x80W\xab@'
p1327
tp1328
Rp1329
ag7
(g11
S'\xf2\x02\x00\x00\x80W\xab@'
p1330
tp1331
Rp1332
asS'mmre'
p1333
(lp1334
g7
(g11
S'\xa8\x8d(g\xa1\x00D@'
p1335
tp1336
Rp1337
ag7
(g11
S'\xa8\x8d(g\xa1\x00D@'
p1338
tp1339
Rp1340
ag7
(g11
S'\xa8\x8d(g\xa1\x00D@'
p1341
tp1342
Rp1343
asS'rank'
p1344
(lp1345
I1242
aI1242
aI1242
assS'spear_2'
p1346
(dp1347
S'abs_res'
p1348
(lp1349
g7
(g11
S'\x8e\xa4p=\x8a\x1e\x99@'
p1350
tp1351
Rp1352
ag7
(g11
S'\x8e\xa4p=\x8a\x1e\x99@'
p1353
tp1354
Rp1355
ag7
(g11
S'\x8e\xa4p=\x8a\x1e\x99@'
p1356
tp1357
Rp1358
asS'mmre'
p1359
(lp1360
g7
(g11
S'\xc5\xbfp]\x1d\xafG@'
p1361
tp1362
Rp1363
ag7
(g11
S'\xc6\xbfp]\x1d\xafG@'
p1364
tp1365
Rp1366
ag7
(g11
S'\xc5\xbfp]\x1d\xafG@'
p1367
tp1368
Rp1369
asS'rank'
p1370
(lp1371
I5155
aI5155
aI5155
assS'spear_9'
p1372
(dp1373
S'abs_res'
p1374
(lp1375
g7
(g11
S'`@\n\xd7#a\xb5@'
p1376
tp1377
Rp1378
ag7
(g11
S'`@\n\xd7#a\xb5@'
p1379
tp1380
Rp1381
ag7
(g11
S'`@\n\xd7#a\xb5@'
p1382
tp1383
Rp1384
asS'mmre'
p1385
(lp1386
g7
(g11
S'\x0f\x8d\x96\x97\x16Ey@'
p1387
tp1388
Rp1389
ag7
(g11
S'\x0f\x8d\x96\x97\x16Ey@'
p1390
tp1391
Rp1392
ag7
(g11
S'\x0f\x8d\x96\x97\x16Ey@'
p1393
tp1394
Rp1395
asS'rank'
p1396
(lp1397
I1960
aI1960
aI1960
assS'spear_8'
p1398
(dp1399
S'abs_res'
p1400
(lp1401
g7
(g11
S'0\xa5p=\x8a\xbe\xb6@'
p1402
tp1403
Rp1404
ag7
(g11
S'0\xa5p=\x8a\xbe\xb6@'
p1405
tp1406
Rp1407
ag7
(g11
S'0\xa5p=\x8a\xbe\xb6@'
p1408
tp1409
Rp1410
asS'mmre'
p1411
(lp1412
g7
(g11
S'\xb6\x92\xf6\x9d\xdc\xd0G@'
p1413
tp1414
Rp1415
ag7
(g11
S'\xb6\x92\xf6\x9d\xdc\xd0G@'
p1416
tp1417
Rp1418
ag7
(g11
S'\xb6\x92\xf6\x9d\xdc\xd0G@'
p1419
tp1420
Rp1421
asS'rank'
p1422
(lp1423
I269
aI269
aI269
asssS'spear_3'
p1424
(dp1425
S'spear_5'
p1426
(dp1427
S'abs_res'
p1428
(lp1429
g7
(g11
S'\xb1\n\xd7C\x0f\xef\xa2@'
p1430
tp1431
Rp1432
ag7
(g11
S'\xb2\n\xd7C\x0f\xef\xa2@'
p1433
tp1434
Rp1435
ag7
(g11
S'\xb1\n\xd7C\x0f\xef\xa2@'
p1436
tp1437
Rp1438
asS'mmre'
p1439
(lp1440
g7
(g11
S'\n\xea8gb3p@'
p1441
tp1442
Rp1443
ag7
(g11
S'\n\xea8gb3p@'
p1444
tp1445
Rp1446
ag7
(g11
S'\n\xea8gb3p@'
p1447
tp1448
Rp1449
asS'rank'
p1450
(lp1451
I2729
aI2729
aI2729
assS'spear_4'
p1452
(dp1453
S'abs_res'
p1454
(lp1455
g7
(g11
S'\xa8\x14\xae\xa7wc\xae@'
p1456
tp1457
Rp1458
ag7
(g11
S'\xa8\x14\xae\xa7wc\xae@'
p1459
tp1460
Rp1461
ag7
(g11
S'\xa8\x14\xae\xa7wc\xae@'
p1462
tp1463
Rp1464
asS'mmre'
p1465
(lp1466
g7
(g11
S'\x06!i7?\x9cs@'
p1467
tp1468
Rp1469
ag7
(g11
S'\x06!i7?\x9cs@'
p1470
tp1471
Rp1472
ag7
(g11
S'\x06!i7?\x9cs@'
p1473
tp1474
Rp1475
asS'rank'
p1476
(lp1477
I6750
aI6750
aI6750
assS'spear_7'
p1478
(dp1479
S'abs_res'
p1480
(lp1481
g7
(g11
S'\x9dz\x14\xbe\xdeM\xb2@'
p1482
tp1483
Rp1484
ag7
(g11
S'\x9bz\x14\xbe\xdeM\xb2@'
p1485
tp1486
Rp1487
ag7
(g11
S'\x9dz\x14\xbe\xdeM\xb2@'
p1488
tp1489
Rp1490
asS'mmre'
p1491
(lp1492
g7
(g11
S'\xbc\x0f\x91\x84\xed\xe3\x8d@'
p1493
tp1494
Rp1495
ag7
(g11
S'\xbc\x0f\x91\x84\xed\xe3\x8d@'
p1496
tp1497
Rp1498
ag7
(g11
S'\xbc\x0f\x91\x84\xed\xe3\x8d@'
p1499
tp1500
Rp1501
asS'rank'
p1502
(lp1503
I8152
aI8152
aI8152
assS'spear_6'
p1504
(dp1505
S'abs_res'
p1506
(lp1507
g7
(g11
S'\x9b\x9a\x99y)\xb9\xa3@'
p1508
tp1509
Rp1510
ag7
(g11
S'\x9b\x9a\x99y)\xb9\xa3@'
p1511
tp1512
Rp1513
ag7
(g11
S'\x9b\x9a\x99y)\xb9\xa3@'
p1514
tp1515
Rp1516
asS'mmre'
p1517
(lp1518
g7
(g11
S'\xe7WB\xf2m\xbeR@'
p1519
tp1520
Rp1521
ag7
(g11
S'\xe8WB\xf2m\xbeR@'
p1522
tp1523
Rp1524
ag7
(g11
S'\xe8WB\xf2m\xbeR@'
p1525
tp1526
Rp1527
asS'rank'
p1528
(lp1529
I8075
aI8075
aI8075
assS'spear_1'
p1530
(dp1531
S'abs_res'
p1532
(lp1533
g7
(g11
S'\x9923\xa3\x00\xc6\xb1@'
p1534
tp1535
Rp1536
ag7
(g11
S'\x9923\xa3\x00\xc6\xb1@'
p1537
tp1538
Rp1539
ag7
(g11
S'\x9b23\xa3\x00\xc6\xb1@'
p1540
tp1541
Rp1542
asS'mmre'
p1543
(lp1544
g7
(g11
S'?#\xe3\xdf\x02U\x8b@'
p1545
tp1546
Rp1547
ag7
(g11
S'?#\xe3\xdf\x02U\x8b@'
p1548
tp1549
Rp1550
ag7
(g11
S'?#\xe3\xdf\x02U\x8b@'
p1551
tp1552
Rp1553
asS'rank'
p1554
(lp1555
I7953
aI7953
aI7953
assS'spear_0'
p1556
(dp1557
S'abs_res'
p1558
(lp1559
g7
(g11
S'\xb7\xacG!\x8aW\xab@'
p1560
tp1561
Rp1562
ag7
(g11
S'\xbd\xacG!\x8aW\xab@'
p1563
tp1564
Rp1565
ag7
(g11
S'\xb7\xacG!\x8aW\xab@'
p1566
tp1567
Rp1568
asS'mmre'
p1569
(lp1570
g7
(g11
S'\xe5\x82\xceIqOw@'
p1571
tp1572
Rp1573
ag7
(g11
S'\xe5\x82\xceIqOw@'
p1574
tp1575
Rp1576
ag7
(g11
S'\xe5\x82\xceIqOw@'
p1577
tp1578
Rp1579
asS'rank'
p1580
(lp1581
I7826
aI7826
aI7826
assS'spear_2'
p1582
(dp1583
S'abs_res'
p1584
(lp1585
g7
(g11
S'z\x8a\xc2\xd5c/\xa1@'
p1586
tp1587
Rp1588
ag7
(g11
S'z\x8a\xc2\xd5c/\xa1@'
p1589
tp1590
Rp1591
ag7
(g11
S'{\x8a\xc2\xd5c/\xa1@'
p1592
tp1593
Rp1594
asS'mmre'
p1595
(lp1596
g7
(g11
S'\x92\x1be\x18\xd8B\x82@'
p1597
tp1598
Rp1599
ag7
(g11
S'\x92\x1be\x18\xd8B\x82@'
p1600
tp1601
Rp1602
ag7
(g11
S'\x92\x1be\x18\xd8B\x82@'
p1603
tp1604
Rp1605
asS'rank'
p1606
(lp1607
I4833
aI4833
aI4833
assS'spear_9'
p1608
(dp1609
S'abs_res'
p1610
(lp1611
g7
(g11
S'[R\xb8\xfem\xb6\xb9@'
p1612
tp1613
Rp1614
ag7
(g11
S'[R\xb8\xfem\xb6\xb9@'
p1615
tp1616
Rp1617
ag7
(g11
S'[R\xb8\xfem\xb6\xb9@'
p1618
tp1619
Rp1620
asS'mmre'
p1621
(lp1622
g7
(g11
S'n\xf6J[i\x00\x89@'
p1623
tp1624
Rp1625
ag7
(g11
S'n\xf6J[i\x00\x89@'
p1626
tp1627
Rp1628
ag7
(g11
S'n\xf6J[i\x00\x89@'
p1629
tp1630
Rp1631
asS'rank'
p1632
(lp1633
I7038
aI7038
aI7038
assS'spear_8'
p1634
(dp1635
S'abs_res'
p1636
(lp1637
g7
(g11
S'\xfd33s\xbf\n\xaf@'
p1638
tp1639
Rp1640
ag7
(g11
S'\xfd33s\xbf\n\xaf@'
p1641
tp1642
Rp1643
ag7
(g11
S'\xfc33s\xbf\n\xaf@'
p1644
tp1645
Rp1646
asS'mmre'
p1647
(lp1648
g7
(g11
S'cH\x89v\x19\xd5N@'
p1649
tp1650
Rp1651
ag7
(g11
S'dH\x89v\x19\xd5N@'
p1652
tp1653
Rp1654
ag7
(g11
S'dH\x89v\x19\xd5N@'
p1655
tp1656
Rp1657
asS'rank'
p1658
(lp1659
I7876
aI7876
aI7876
asssS'spear_2'
p1660
(dp1661
S'spear_5'
p1662
(dp1663
S'abs_res'
p1664
(lp1665
g7
(g11
S'#\xc2\xf5\xd0c\xb8\x92@'
p1666
tp1667
Rp1668
ag7
(g11
S'#\xc2\xf5\xd0c\xb8\x92@'
p1669
tp1670
Rp1671
ag7
(g11
S'#\xc2\xf5\xd0c\xb8\x92@'
p1672
tp1673
Rp1674
asS'mmre'
p1675
(lp1676
g7
(g11
S'!U\xb4)q\x18B@'
p1677
tp1678
Rp1679
ag7
(g11
S' U\xb4)q\x18B@'
p1680
tp1681
Rp1682
ag7
(g11
S' U\xb4)q\x18B@'
p1683
tp1684
Rp1685
asS'rank'
p1686
(lp1687
I786
aI786
aI786
assS'spear_4'
p1688
(dp1689
S'abs_res'
p1690
(lp1691
g7
(g11
S'u\x85\xeb\x1dST\xa7@'
p1692
tp1693
Rp1694
ag7
(g11
S'u\x85\xeb\x1dST\xa7@'
p1695
tp1696
Rp1697
ag7
(g11
S't\x85\xeb\x1dST\xa7@'
p1698
tp1699
Rp1700
asS'mmre'
p1701
(lp1702
g7
(g11
S'\x14\xed\xea|\x86\x8dP@'
p1703
tp1704
Rp1705
ag7
(g11
S'\x14\xed\xea|\x86\x8dP@'
p1706
tp1707
Rp1708
ag7
(g11
S'\x14\xed\xea|\x86\x8dP@'
p1709
tp1710
Rp1711
asS'rank'
p1712
(lp1713
I18
aI18
aI18
assS'spear_7'
p1714
(dp1715
S'abs_res'
p1716
(lp1717
g7
(g11
S'\xf5\xff\xffC\xb3\xc7\xa3@'
p1718
tp1719
Rp1720
ag7
(g11
S'\xf9\xff\xffC\xb3\xc7\xa3@'
p1721
tp1722
Rp1723
ag7
(g11
S'\xf9\xff\xffC\xb3\xc7\xa3@'
p1724
tp1725
Rp1726
asS'mmre'
p1727
(lp1728
g7
(g11
S'\xd4F\xae\xfa\xd5\x9eX@'
p1729
tp1730
Rp1731
ag7
(g11
S'\xd3F\xae\xfa\xd5\x9eX@'
p1732
tp1733
Rp1734
ag7
(g11
S'\xd4F\xae\xfa\xd5\x9eX@'
p1735
tp1736
Rp1737
asS'rank'
p1738
(lp1739
I5394
aI5394
aI5394
assS'spear_6'
p1740
(dp1741
S'abs_res'
p1742
(lp1743
g7
(g11
S'\xb5{\x14\xaa\xae\xc7\xa4@'
p1744
tp1745
Rp1746
ag7
(g11
S'\xb5{\x14\xaa\xae\xc7\xa4@'
p1747
tp1748
Rp1749
ag7
(g11
S'\xb5{\x14\xaa\xae\xc7\xa4@'
p1750
tp1751
Rp1752
asS'mmre'
p1753
(lp1754
g7
(g11
S'!\x80\xba\xe5\xcdNE@'
p1755
tp1756
Rp1757
ag7
(g11
S'\x1f\x80\xba\xe5\xcdNE@'
p1758
tp1759
Rp1760
ag7
(g11
S'!\x80\xba\xe5\xcdNE@'
p1761
tp1762
Rp1763
asS'rank'
p1764
(lp1765
I5120
aI5120
aI5120
assS'spear_1'
p1766
(dp1767
S'abs_res'
p1768
(lp1769
g7
(g11
S'\x1d\x84\xeb-\xad\xc3\xa2@'
p1770
tp1771
Rp1772
ag7
(g11
S'\x1d\x84\xeb-\xad\xc3\xa2@'
p1773
tp1774
Rp1775
ag7
(g11
S'\x1d\x84\xeb-\xad\xc3\xa2@'
p1776
tp1777
Rp1778
asS'mmre'
p1779
(lp1780
g7
(g11
S'\x0f\x94\xea\x15#"U@'
p1781
tp1782
Rp1783
ag7
(g11
S'\x0f\x94\xea\x15#"U@'
p1784
tp1785
Rp1786
ag7
(g11
S'\x0f\x94\xea\x15#"U@'
p1787
tp1788
Rp1789
asS'rank'
p1790
(lp1791
I5797
aI5797
aI5797
assS'spear_0'
p1792
(dp1793
S'abs_res'
p1794
(lp1795
g7
(g11
S'\xd5\x8e\xc2\xc5\x8c\x1e\x99@'
p1796
tp1797
Rp1798
ag7
(g11
S'\xd5\x8e\xc2\xc5\x8c\x1e\x99@'
p1799
tp1800
Rp1801
ag7
(g11
S'\xd9\x8e\xc2\xc5\x8c\x1e\x99@'
p1802
tp1803
Rp1804
asS'mmre'
p1805
(lp1806
g7
(g11
S'\xe8\xb3\xcd(\xe2\x8aF@'
p1807
tp1808
Rp1809
ag7
(g11
S'\xe8\xb3\xcd(\xe2\x8aF@'
p1810
tp1811
Rp1812
ag7
(g11
S'\xe8\xb3\xcd(\xe2\x8aF@'
p1813
tp1814
Rp1815
asS'rank'
p1816
(lp1817
I4834
aI4834
aI4834
assS'spear_3'
p1818
(dp1819
S'abs_res'
p1820
(lp1821
g7
(g11
S'\x1b\x91\xc2\xd5c/\xa1@'
p1822
tp1823
Rp1824
ag7
(g11
S'\x10\x91\xc2\xd5c/\xa1@'
p1825
tp1826
Rp1827
ag7
(g11
S'\x1b\x91\xc2\xd5c/\xa1@'
p1828
tp1829
Rp1830
asS'mmre'
p1831
(lp1832
g7
(g11
S',.\xc6\xda\xd5\xf5B@'
p1833
tp1834
Rp1835
ag7
(g11
S'+.\xc6\xda\xd5\xf5B@'
p1836
tp1837
Rp1838
ag7
(g11
S',.\xc6\xda\xd5\xf5B@'
p1839
tp1840
Rp1841
asS'rank'
p1842
(lp1843
I7258
aI7258
aI7258
assS'spear_9'
p1844
(dp1845
S'abs_res'
p1846
(lp1847
g7
(g11
S'\xda\xd7\xa3\x8c8\x9d\xb2@'
p1848
tp1849
Rp1850
ag7
(g11
S'\xda\xd7\xa3\x8c8\x9d\xb2@'
p1851
tp1852
Rp1853
ag7
(g11
S'\xda\xd7\xa3\x8c8\x9d\xb2@'
p1854
tp1855
Rp1856
asS'mmre'
p1857
(lp1858
g7
(g11
S'(\xac\xa3\xc0\x81\xaex@'
p1859
tp1860
Rp1861
ag7
(g11
S'(\xac\xa3\xc0\x81\xaex@'
p1862
tp1863
Rp1864
ag7
(g11
S'(\xac\xa3\xc0\x81\xaex@'
p1865
tp1866
Rp1867
asS'rank'
p1868
(lp1869
I5525
aI5525
aI5525
assS'spear_8'
p1870
(dp1871
S'abs_res'
p1872
(lp1873
g7
(g11
S'\xaf\xd7\xa3\xf4\x10\x03\xb3@'
p1874
tp1875
Rp1876
ag7
(g11
S'\xaf\xd7\xa3\xf4\x10\x03\xb3@'
p1877
tp1878
Rp1879
ag7
(g11
S'\xaf\xd7\xa3\xf4\x10\x03\xb3@'
p1880
tp1881
Rp1882
asS'mmre'
p1883
(lp1884
g7
(g11
S'\rnj\x89\xf7rG@'
p1885
tp1886
Rp1887
ag7
(g11
S'\rnj\x89\xf7rG@'
p1888
tp1889
Rp1890
ag7
(g11
S'\rnj\x89\xf7rG@'
p1891
tp1892
Rp1893
asS'rank'
p1894
(lp1895
I5432
aI5432
aI5432
asssS'spear_9'
p1896
(dp1897
S'spear_5'
p1898
(dp1899
S'abs_res'
p1900
(lp1901
g7
(g11
S'P@\n\xd7c\x80\xb5@'
p1902
tp1903
Rp1904
ag7
(g11
S'P@\n\xd7c\x80\xb5@'
p1905
tp1906
Rp1907
ag7
(g11
S'P@\n\xd7c\x80\xb5@'
p1908
tp1909
Rp1910
asS'mmre'
p1911
(lp1912
g7
(g11
S'\xaf^$\xe0\\\x18J@'
p1913
tp1914
Rp1915
ag7
(g11
S'\xaf^$\xe0\\\x18J@'
p1916
tp1917
Rp1918
ag7
(g11
S'\xaf^$\xe0\\\x18J@'
p1919
tp1920
Rp1921
asS'rank'
p1922
(lp1923
I274
aI274
aI274
assS'spear_4'
p1924
(dp1925
S'abs_res'
p1926
(lp1927
g7
(g11
S'\xa7iffF\xcb\xba@'
p1928
tp1929
Rp1930
ag7
(g11
S'\xa7iffF\xcb\xba@'
p1931
tp1932
Rp1933
ag7
(g11
S'\xa7iffF\xcb\xba@'
p1934
tp1935
Rp1936
asS'mmre'
p1937
(lp1938
g7
(g11
S'1\xda\x0c\xf5\xc0\xc0T@'
p1939
tp1940
Rp1941
ag7
(g11
S'1\xda\x0c\xf5\xc0\xc0T@'
p1942
tp1943
Rp1944
ag7
(g11
S'1\xda\x0c\xf5\xc0\xc0T@'
p1945
tp1946
Rp1947
asS'rank'
p1948
(lp1949
I39
aI39
aI39
assS'spear_7'
p1950
(dp1951
S'abs_res'
p1952
(lp1953
g7
(g11
S'6t=\nW\xf6\xb7@'
p1954
tp1955
Rp1956
ag7
(g11
S'6t=\nW\xf6\xb7@'
p1957
tp1958
Rp1959
ag7
(g11
S'6t=\nW\xf6\xb7@'
p1960
tp1961
Rp1962
asS'mmre'
p1963
(lp1964
g7
(g11
S'\xffn\x00\xfd\xd0\xe2c@'
p1965
tp1966
Rp1967
ag7
(g11
S'\xffn\x00\xfd\xd0\xe2c@'
p1968
tp1969
Rp1970
ag7
(g11
S'\xffn\x00\xfd\xd0\xe2c@'
p1971
tp1972
Rp1973
asS'rank'
p1974
(lp1975
I0
aI0
aI0
assS'spear_6'
p1976
(dp1977
S'abs_res'
p1978
(lp1979
g7
(g11
S'VJ\xe1z\xb4\xd9\xb9@'
p1980
tp1981
Rp1982
ag7
(g11
S'VJ\xe1z\xb4\xd9\xb9@'
p1983
tp1984
Rp1985
ag7
(g11
S'VJ\xe1z\xb4\xd9\xb9@'
p1986
tp1987
Rp1988
asS'mmre'
p1989
(lp1990
g7
(g11
S'd\x95\x18~\n\x14G@'
p1991
tp1992
Rp1993
ag7
(g11
S'd\x95\x18~\n\x14G@'
p1994
tp1995
Rp1996
ag7
(g11
S'd\x95\x18~\n\x14G@'
p1997
tp1998
Rp1999
asS'rank'
p2000
(lp2001
I0
aI0
aI0
assS'spear_1'
p2002
(dp2003
S'abs_res'
p2004
(lp2005
g7
(g11
S'\xd1!\x85\xeb1\x86\xb7@'
p2006
tp2007
Rp2008
ag7
(g11
S'\xd1!\x85\xeb1\x86\xb7@'
p2009
tp2010
Rp2011
ag7
(g11
S'\xd1!\x85\xeb1\x86\xb7@'
p2012
tp2013
Rp2014
asS'mmre'
p2015
(lp2016
g7
(g11
S' jg\xd7\x8b\x9aa@'
p2017
tp2018
Rp2019
ag7
(g11
S' jg\xd7\x8b\x9aa@'
p2020
tp2021
Rp2022
ag7
(g11
S' jg\xd7\x8b\x9aa@'
p2023
tp2024
Rp2025
asS'rank'
p2026
(lp2027
I7
aI7
aI7
assS'spear_0'
p2028
(dp2029
S'abs_res'
p2030
(lp2031
g7
(g11
S'a@\n\xd7#a\xb5@'
p2032
tp2033
Rp2034
ag7
(g11
S'a@\n\xd7#a\xb5@'
p2035
tp2036
Rp2037
ag7
(g11
S'a@\n\xd7#a\xb5@'
p2038
tp2039
Rp2040
asS'mmre'
p2041
(lp2042
g7
(g11
S'\x92\n\xe0\xe0\xe5JR@'
p2043
tp2044
Rp2045
ag7
(g11
S'\x92\n\xe0\xe0\xe5JR@'
p2046
tp2047
Rp2048
ag7
(g11
S'\x92\n\xe0\xe0\xe5JR@'
p2049
tp2050
Rp2051
asS'rank'
p2052
(lp2053
I12
aI12
aI12
assS'spear_3'
p2054
(dp2055
S'abs_res'
p2056
(lp2057
g7
(g11
S'\x89\xbc\x1e\x85k\xb6\xb9@'
p2058
tp2059
Rp2060
ag7
(g11
S'\x89\xbc\x1e\x85k\xb6\xb9@'
p2061
tp2062
Rp2063
ag7
(g11
S'\x89\xbc\x1e\x85k\xb6\xb9@'
p2064
tp2065
Rp2066
asS'mmre'
p2067
(lp2068
g7
(g11
S"\xb9\xa6\xc3'CJE@"
p2069
tp2070
Rp2071
ag7
(g11
S"\xb9\xa6\xc3'CJE@"
p2072
tp2073
Rp2074
ag7
(g11
S"\xb9\xa6\xc3'CJE@"
p2075
tp2076
Rp2077
asS'rank'
p2078
(lp2079
I1024
aI1024
aI1024
assS'spear_2'
p2080
(dp2081
S'abs_res'
p2082
(lp2083
g7
(g11
S'\xbb\x9b\x99\x999\x9d\xb2@'
p2084
tp2085
Rp2086
ag7
(g11
S'\xbb\x9b\x99\x999\x9d\xb2@'
p2087
tp2088
Rp2089
ag7
(g11
S'\xbb\x9b\x99\x999\x9d\xb2@'
p2090
tp2091
Rp2092
asS'mmre'
p2093
(lp2094
g7
(g11
S'o\x83e\x12\x00\xafQ@'
p2095
tp2096
Rp2097
ag7
(g11
S'o\x83e\x12\x00\xafQ@'
p2098
tp2099
Rp2100
ag7
(g11
S'o\x83e\x12\x00\xafQ@'
p2101
tp2102
Rp2103
asS'rank'
p2104
(lp2105
I25
aI25
aI25
assS'spear_8'
p2106
(dp2107
S'abs_res'
p2108
(lp2109
g7
(g11
S"\x87{\x14\xae'\x9a\xc1@"
p2110
tp2111
Rp2112
ag7
(g11
S"\x87{\x14\xae'\x9a\xc1@"
p2113
tp2114
Rp2115
ag7
(g11
S"\x87{\x14\xae'\x9a\xc1@"
p2116
tp2117
Rp2118
asS'mmre'
p2119
(lp2120
g7
(g11
S'V\xff\x0f\xc1S\xa8I@'
p2121
tp2122
Rp2123
ag7
(g11
S'V\xff\x0f\xc1S\xa8I@'
p2124
tp2125
Rp2126
ag7
(g11
S'V\xff\x0f\xc1S\xa8I@'
p2127
tp2128
Rp2129
asS'rank'
p2130
(lp2131
I8
aI8
aI8
asssS'spear_8'
p2132
(dp2133
S'spear_5'
p2134
(dp2135
S'abs_res'
p2136
(lp2137
g7
(g11
S'!\xd8\xa3p=\x7f\xb2@'
p2138
tp2139
Rp2140
ag7
(g11
S'!\xd8\xa3p=\x7f\xb2@'
p2141
tp2142
Rp2143
ag7
(g11
S'!\xd8\xa3p=\x7f\xb2@'
p2144
tp2145
Rp2146
asS'mmre'
p2147
(lp2148
g7
(g11
S'\x0eis\x9f\xa9\xf5y@'
p2149
tp2150
Rp2151
ag7
(g11
S'\x0eis\x9f\xa9\xf5y@'
p2152
tp2153
Rp2154
ag7
(g11
S'\x0eis\x9f\xa9\xf5y@'
p2155
tp2156
Rp2157
asS'rank'
p2158
(lp2159
I490
aI490
aI490
assS'spear_4'
p2160
(dp2161
S'abs_res'
p2162
(lp2163
g7
(g11
S'\x10|\x14\xaeg\xa0\xb6@'
p2164
tp2165
Rp2166
ag7
(g11
S'\x10|\x14\xaeg\xa0\xb6@'
p2167
tp2168
Rp2169
ag7
(g11
S'\x10|\x14\xaeg\xa0\xb6@'
p2170
tp2171
Rp2172
asS'mmre'
p2173
(lp2174
g7
(g11
S'\xf8\x88\xdd\xc4U\nx@'
p2175
tp2176
Rp2177
ag7
(g11
S'\xf8\x88\xdd\xc4U\nx@'
p2178
tp2179
Rp2180
ag7
(g11
S'\xf8\x88\xdd\xc4U\nx@'
p2181
tp2182
Rp2183
asS'rank'
p2184
(lp2185
I103
aI103
aI103
assS'spear_7'
p2186
(dp2187
S'abs_res'
p2188
(lp2189
g7
(g11
S'\xbb>\n\xd7\xe3\x9d\xbb@'
p2190
tp2191
Rp2192
ag7
(g11
S'\xbb>\n\xd7\xe3\x9d\xbb@'
p2193
tp2194
Rp2195
ag7
(g11
S'\xbb>\n\xd7\xe3\x9d\xbb@'
p2196
tp2197
Rp2198
asS'mmre'
p2199
(lp2200
g7
(g11
S'y\xac$\xbc\xdd\xd4\x94@'
p2201
tp2202
Rp2203
ag7
(g11
S'y\xac$\xbc\xdd\xd4\x94@'
p2204
tp2205
Rp2206
ag7
(g11
S'y\xac$\xbc\xdd\xd4\x94@'
p2207
tp2208
Rp2209
asS'rank'
p2210
(lp2211
I434
aI434
aI434
assS'spear_6'
p2212
(dp2213
S'abs_res'
p2214
(lp2215
g7
(g11
S'kr=\n\x97\xbd\xa8@'
p2216
tp2217
Rp2218
ag7
(g11
S'kr=\n\x97\xbd\xa8@'
p2219
tp2220
Rp2221
ag7
(g11
S'kr=\n\x97\xbd\xa8@'
p2222
tp2223
Rp2224
asS'mmre'
p2225
(lp2226
g7
(g11
S'O\x15\xbc\xb8\xeeLL@'
p2227
tp2228
Rp2229
ag7
(g11
S'O\x15\xbc\xb8\xeeLL@'
p2230
tp2231
Rp2232
ag7
(g11
S'O\x15\xbc\xb8\xeeLL@'
p2233
tp2234
Rp2235
asS'rank'
p2236
(lp2237
I1
aI1
aI1
assS'spear_1'
p2238
(dp2239
S'abs_res'
p2240
(lp2241
g7
(g11
S'\xe9\x1f\x85\xeb1\x03\xbb@'
p2242
tp2243
Rp2244
ag7
(g11
S'\xe9\x1f\x85\xeb1\x03\xbb@'
p2245
tp2246
Rp2247
ag7
(g11
S'\xe9\x1f\x85\xeb1\x03\xbb@'
p2248
tp2249
Rp2250
asS'mmre'
p2251
(lp2252
g7
(g11
S'\xc3\xb5\xfc\x99f\xc8\x91@'
p2253
tp2254
Rp2255
ag7
(g11
S'\xc3\xb5\xfc\x99f\xc8\x91@'
p2256
tp2257
Rp2258
ag7
(g11
S'\xc3\xb5\xfc\x99f\xc8\x91@'
p2259
tp2260
Rp2261
asS'rank'
p2262
(lp2263
I439
aI439
aI439
assS'spear_0'
p2264
(dp2265
S'abs_res'
p2266
(lp2267
g7
(g11
S'0\xa5p=\x8a\xbe\xb6@'
p2268
tp2269
Rp2270
ag7
(g11
S'0\xa5p=\x8a\xbe\xb6@'
p2271
tp2272
Rp2273
ag7
(g11
S'0\xa5p=\x8a\xbe\xb6@'
p2274
tp2275
Rp2276
asS'mmre'
p2277
(lp2278
g7
(g11
S',!\xab\xa1q_}@'
p2279
tp2280
Rp2281
ag7
(g11
S',!\xab\xa1q_}@'
p2282
tp2283
Rp2284
ag7
(g11
S',!\xab\xa1q_}@'
p2285
tp2286
Rp2287
asS'rank'
p2288
(lp2289
I63
aI63
aI63
assS'spear_3'
p2290
(dp2291
S'abs_res'
p2292
(lp2293
g7
(g11
S'\x0b|\x14\xae\xc7\n\xaf@'
p2294
tp2295
Rp2296
ag7
(g11
S'\x0b|\x14\xae\xc7\n\xaf@'
p2297
tp2298
Rp2299
ag7
(g11
S'\x0b|\x14\xae\xc7\n\xaf@'
p2300
tp2301
Rp2302
asS'mmre'
p2303
(lp2304
g7
(g11
S'^\x8f\xec_\xb9>`@'
p2305
tp2306
Rp2307
ag7
(g11
S'^\x8f\xec_\xb9>`@'
p2308
tp2309
Rp2310
ag7
(g11
S'^\x8f\xec_\xb9>`@'
p2311
tp2312
Rp2313
asS'rank'
p2314
(lp2315
I531
aI531
aI531
assS'spear_2'
p2316
(dp2317
S'abs_res'
p2318
(lp2319
g7
(g11
S'\xd2\n\xd7\xa3\x10\x03\xb3@'
p2320
tp2321
Rp2322
ag7
(g11
S'\xd2\n\xd7\xa3\x10\x03\xb3@'
p2323
tp2324
Rp2325
ag7
(g11
S'\xd2\n\xd7\xa3\x10\x03\xb3@'
p2326
tp2327
Rp2328
asS'mmre'
p2329
(lp2330
g7
(g11
S'B\xb02U\xc7\xc5\x88@'
p2331
tp2332
Rp2333
ag7
(g11
S'B\xb02U\xc7\xc5\x88@'
p2334
tp2335
Rp2336
ag7
(g11
S'B\xb02U\xc7\xc5\x88@'
p2337
tp2338
Rp2339
asS'rank'
p2340
(lp2341
I350
aI350
aI350
assS'spear_9'
p2342
(dp2343
S'abs_res'
p2344
(lp2345
g7
(g11
S"\x87{\x14\xae'\x9a\xc1@"
p2346
tp2347
Rp2348
ag7
(g11
S"\x87{\x14\xae'\x9a\xc1@"
p2349
tp2350
Rp2351
ag7
(g11
S"\x87{\x14\xae'\x9a\xc1@"
p2352
tp2353
Rp2354
asS'mmre'
p2355
(lp2356
g7
(g11
S'|2\xf1@\xac\xdb\x95@'
p2357
tp2358
Rp2359
ag7
(g11
S'|2\xf1@\xac\xdb\x95@'
p2360
tp2361
Rp2362
ag7
(g11
S'|2\xf1@\xac\xdb\x95@'
p2363
tp2364
Rp2365
asS'rank'
p2366
(lp2367
I1663
aI1663
aI1663
asss.