(dp0
S'../Data/sqlite_59.csv'
p1
(dp2
S'../Data/sqlite_77.csv'
p3
(dp4
F0.1
(dp5
S'mmre'
p6
(dp7
S'bellwether'
p8
(lp9
cnumpy.core.multiarray
scalar
p10
(cnumpy
dtype
p11
(S'f8'
p12
I0
I1
tp13
Rp14
(I3
S'<'
p15
NNNI-1
I-1
I0
tp16
bS'x\xea\xb7]f%@@'
p17
tp18
Rp19
ag10
(g14
S'"\xf4~\tV#@@'
p20
tp21
Rp22
ag10
(g14
S'\xea]\xff%\xfd;@@'
p23
tp24
Rp25
ag10
(g14
S'\x88\xd6}db\x1b@@'
p26
tp27
Rp28
ag10
(g14
S">\x92\x16'A&@@"
p29
tp30
Rp31
ag10
(g14
S'\x16\x14\xdd\xe8C\x11@@'
p32
tp33
Rp34
ag10
(g14
S'\x18\x11+\xa1(\x07@@'
p35
tp36
Rp37
ag10
(g14
S'\xe7\rBhbA@@'
p38
tp39
Rp40
ag10
(g14
S'uc\xa1\xe7\x8d\x1f@@'
p41
tp42
Rp43
ag10
(g14
S'2E\xef\x8c\x08\x1d@@'
p44
tp45
Rp46
ag10
(g14
S'\xb3\x88\xd133\x1c@@'
p47
tp48
Rp49
ag10
(g14
S"\x9a'\xf4\xb1\xc3#@@"
p50
tp51
Rp52
ag10
(g14
S'N\xbf\xc2\xc8=\x18@@'
p53
tp54
Rp55
ag10
(g14
S'8\xf3\x0f\xf0\xef\x1f@@'
p56
tp57
Rp58
ag10
(g14
S'\x16G\xb5\x04\xaf\n@@'
p59
tp60
Rp61
ag10
(g14
S'E\xfav\x1e\xf3-@@'
p62
tp63
Rp64
ag10
(g14
S'\x9e\x98@c\xe2/@@'
p65
tp66
Rp67
ag10
(g14
S'\xcbf\xd3\xf0h;@@'
p68
tp69
Rp70
ag10
(g14
S'Q\xd4\xe5\xeeI(@@'
p71
tp72
Rp73
ag10
(g14
S'\xee\xaac\xe9s\x1e@@'
p74
tp75
Rp76
asS'target'
p77
(lp78
g10
(g14
S'\xcf\xe4\xa9J\xfbq6@'
p79
tp80
Rp81
ag10
(g14
S'\xcf\x96\x18V\xcc\x875@'
p82
tp83
Rp84
ag10
(g14
S'dn\xfe\xd8\x88\t5@'
p85
tp86
Rp87
ag10
(g14
S'\xf8?)\xcc\x96s4@'
p88
tp89
Rp90
ag10
(g14
S'\x80\xbcn\x8cR\t6@'
p91
tp92
Rp93
ag10
(g14
S'm\x7f\xa6\xc5\xc094@'
p94
tp95
Rp96
ag10
(g14
S'\xa60\xac \x93T8@'
p97
tp98
Rp99
ag10
(g14
S'\x03A\xf8i$g6@'
p100
tp101
Rp102
ag10
(g14
S'k\xb52R\xaa#7@'
p103
tp104
Rp105
ag10
(g14
S'.\xa5\x1f{\xddz6@'
p106
tp107
Rp108
ag10
(g14
S'\xcd\x0e?\xb8]}5@'
p109
tp110
Rp111
ag10
(g14
S'\xe7\x9c\x1f\x04!+5@'
p112
tp113
Rp114
ag10
(g14
S'\xb7\x84\xc7\x7fy\xab8@'
p115
tp116
Rp117
ag10
(g14
S'K\xc92\x17\xef\xb47@'
p118
tp119
Rp120
ag10
(g14
S'\x97h]I\x80~3@'
p121
tp122
Rp123
ag10
(g14
S'\xd3\xf5\xed4\xa0c5@'
p124
tp125
Rp126
ag10
(g14
S'\x84\x8e\x07aG\x1b6@'
p127
tp128
Rp129
ag10
(g14
S' \x15\x8d!\\\x815@'
p130
tp131
Rp132
ag10
(g14
S'|CMP;\xdd4@'
p133
tp134
Rp135
ag10
(g14
S'\x0227\x1a\xd3\n:@'
p136
tp137
Rp138
asssss.