(dp0
S'../Data/sqlite_74.csv'
p1
(dp2
S'../Data/sqlite_82.csv'
p3
(dp4
F0.4
(dp5
S'abs_res'
p6
(dp7
S'bellwether'
p8
(lp9
cnumpy.core.multiarray
scalar
p10
(cnumpy
dtype
p11
(S'f8'
p12
I0
I1
tp13
Rp14
(I3
S'<'
p15
NNNI-1
I-1
I0
tp16
bS'\x85\xcf\xb0\xdb\xc48dA'
p17
tp18
Rp19
ag10
(g14
S'y!i\xe6\x9f3dA'
p20
tp21
Rp22
ag10
(g14
S"\x88\xcf\xb0\xb7'5dA"
p23
tp24
Rp25
ag10
(g14
S'\x1e<\x98\xd7>/dA'
p26
tp27
Rp28
ag10
(g14
S'/ku|\xf95dA'
p29
tp30
Rp31
ag10
(g14
S'~j\xbc$gDdA'
p32
tp33
Rp34
ag10
(g14
S'\xa5\rtrG?dA'
p35
tp36
Rp37
ag10
(g14
S'%>\xc3\xde\x02:dA'
p38
tp39
Rp40
ag10
(g14
S'1\x87\x16\x11o&dA'
p41
tp42
Rp43
ag10
(g14
S'\x17 \xf7\xe2 AdA'
p44
tp45
Rp46
ag10
(g14
S'\xf15\x17\xb6\x803dA'
p47
tp48
Rp49
ag10
(g14
S'jY\xab\x8b\x97?dA'
p50
tp51
Rp52
ag10
(g14
S'>&x0i1dA'
p53
tp54
Rp55
ag10
(g14
S'a\xbaId6>dA'
p56
tp57
Rp58
ag10
(g14
S'\x81[\xd6ZrAdA'
p59
tp60
Rp61
ag10
(g14
S'\xf3\xfd\xd4\x00o*dA'
p62
tp63
Rp64
ag10
(g14
S'[\x1d\x13hP<dA'
p65
tp66
Rp67
ag10
(g14
S'\x82\x07\xf30\x83JdA'
p68
tp69
Rp70
ag10
(g14
S'\\\x1d\x13\xc8\xcc3dA'
p71
tp72
Rp73
ag10
(g14
S'7\xd0i\x93\xd1BdA'
p74
tp75
Rp76
asS'target'
p77
(lp78
g10
(g14
S'\x08\x02+\x87\x16\x0es@'
p79
tp80
Rp81
ag10
(g14
S'\xe9|?5^yx@'
p82
tp83
Rp84
ag10
(g14
S'\x05\xac\x1cZd\x0bu@'
p85
tp86
Rp87
ag10
(g14
S'\xea\xd0"\xdb\xf9 t@'
p88
tp89
Rp90
ag10
(g14
S'\xea|?5^\x0ct@'
p91
tp92
Rp93
ag10
(g14
S'\x1c1\x08\xac\x1c\tv@'
p94
tp95
Rp96
ag10
(g14
S'^;\xdfO\x8d\x90v@'
p97
tp98
Rp99
ag10
(g14
S'Z\x10X9\xb4-w@'
p100
tp101
Rp102
ag10
(g14
S'Rd;\xdfO\nu@'
p103
tp104
Rp105
ag10
(g14
S'\xa5E\xb6\xf3\xfdSt@'
p106
tp107
Rp108
ag10
(g14
S'\xa2E\xb6\xf3\xfd\xa7q@'
p109
tp110
Rp111
ag10
(g14
S'13333\xebx@'
p112
tp113
Rp114
ag10
(g14
S'\xb0\x1e\x85\xebQ\xeet@'
p115
tp116
Rp117
ag10
(g14
S'\xfa\xff\xff\xff\xff\x07u@'
p118
tp119
Rp120
ag10
(g14
S'\x18\x85\xebQ\xb8\x14s@'
p121
tp122
Rp123
ag10
(g14
S'H\xe1z\x14\xae)s@'
p124
tp125
Rp126
ag10
(g14
S'\xbc\x9f\x1a/\xdd\nz@'
p127
tp128
Rp129
ag10
(g14
S'\xcc\xf7S\xe3\xa5\xdbs@'
p130
tp131
Rp132
ag10
(g14
S'\x98\x1a/\xdd$\x1fv@'
p133
tp134
Rp135
ag10
(g14
S'L\x8d\x97n\x12sv@'
p136
tp137
Rp138
asssss.