(dp0
S'../Data/sqlite_91.csv'
p1
(dp2
S'../Data/sqlite_50.csv'
p3
(dp4
F0.35
(dp5
S'abs_res'
p6
(dp7
S'bellwether'
p8
(lp9
cnumpy.core.multiarray
scalar
p10
(cnumpy
dtype
p11
(S'f8'
p12
I0
I1
tp13
Rp14
(I3
S'<'
p15
NNNI-1
I-1
I0
tp16
bS'\x84y\xa2\xbe:X A'
p17
tp18
Rp19
ag10
(g14
S'$\xf7\x9aKa\\ A'
p20
tp21
Rp22
ag10
(g14
S'\xbe\xe6B\xd2\xc1\x91 A'
p23
tp24
Rp25
ag10
(g14
S'sL\xf0\xa0\x0c\x84 A'
p26
tp27
Rp28
ag10
(g14
S'\xf3(\\O\xceW A'
p29
tp30
Rp31
ag10
(g14
S'}?5^zz A'
p32
tp33
Rp34
ag10
(g14
S'\xfc\x8dP\x86\x9cc A'
p35
tp36
Rp37
ag10
(g14
S'1$M\xe9Zc A'
p38
tp39
Rp40
ag10
(g14
S'\xa4\xb7e-\xdcY A'
p41
tp42
Rp43
ag10
(g14
S'>Q\xff\x06(k A'
p44
tp45
Rp46
ag10
(g14
S'f\x82\x073#\x98 A'
p47
tp48
Rp49
ag10
(g14
S'\xe4\x17K\xbeVk A'
p50
tp51
Rp52
ag10
(g14
S'\xf1|?u\x94} A'
p53
tp54
Rp55
ag10
(g14
S'S\xb8\x1e\x85/q A'
p56
tp57
Rp58
ag10
(g14
S'~\xa2\xfe\xcd*l A'
p59
tp60
Rp61
ag10
(g14
S'\xf3\x8b%\x7f\x87\x80 A'
p62
tp63
Rp64
ag10
(g14
S'/\x87\x16\x19]f A'
p65
tp66
Rp67
ag10
(g14
S'V\xe3\xa5[\xa1o A'
p68
tp69
Rp70
ag10
(g14
S'\xca\x04\x0f&\x1bk A'
p71
tp72
Rp73
ag10
(g14
S'i\x82\x07\xf30r A'
p74
tp75
Rp76
asS'target'
p77
(lp78
g10
(g14
S'q=\n\xd7\xa3PU@'
p79
tp80
Rp81
ag10
(g14
S'\xd5\xf7S\xe3\xa5GT@'
p82
tp83
Rp84
ag10
(g14
S'H\xe1z\x14\xae_U@'
p85
tp86
Rp87
ag10
(g14
S'(\x87\x16\xd9\xce\xefT@'
p88
tp89
Rp90
ag10
(g14
S'\x1c/\xdd$\x06eU@'
p91
tp92
Rp93
ag10
(g14
S'\xa4p=\n\xd7?V@'
p94
tp95
Rp96
ag10
(g14
S'\xf6\xfd\xd4x\xe9\xb6V@'
p97
tp98
Rp99
ag10
(g14
S'\x13X9\xb4\xc8VT@'
p100
tp101
Rp102
ag10
(g14
S',1\x08\xac\x1c\xc2R@'
p103
tp104
Rp105
ag10
(g14
S'\x18\xaeG\xe1z,S@'
p106
tp107
Rp108
ag10
(g14
S'\xdb\xce\xf7S\xe3\xd1T@'
p109
tp110
Rp111
ag10
(g14
S'\x10\xd7\xa3p=\xb2U@'
p112
tp113
Rp114
ag10
(g14
S'\x91C\x8bl\xe7\xdbS@'
p115
tp116
Rp117
ag10
(g14
S'\x90A`\xe5\xd02T@'
p118
tp119
Rp120
ag10
(g14
S'xh\x91\xed|\xcfT@'
p121
tp122
Rp123
ag10
(g14
S'\xf9(\\\x8f\xc2\xc1S@'
p124
tp125
Rp126
ag10
(g14
S'#\x06\x81\x95C\xfbT@'
p127
tp128
Rp129
ag10
(g14
S'\x0e\xac\x1cZd\xd7T@'
p130
tp131
Rp132
ag10
(g14
S'\x9f\xc4 \xb0r$T@'
p133
tp134
Rp135
ag10
(g14
S'\x1a\x04V\x0e-\xf2S@'
p136
tp137
Rp138
asssss.