(dp0
S'../Data/sqlite_14.csv'
p1
(dp2
S'../Data/sqlite_91.csv'
p3
(dp4
F0.4
(dp5
S'mmre'
p6
(dp7
S'bellwether'
p8
(lp9
cnumpy.core.multiarray
scalar
p10
(cnumpy
dtype
p11
(S'f8'
p12
I0
I1
tp13
Rp14
(I3
S'<'
p15
NNNI-1
I-1
I0
tp16
bS'\x1b\x1f\xcc5RtX@'
p17
tp18
Rp19
ag10
(g14
S'\x11/>\x02(|X@'
p20
tp21
Rp22
ag10
(g14
S'\xec\x1d\xd4J\xfe\x8aX@'
p23
tp24
Rp25
ag10
(g14
S'\x18y\x0c"b}X@'
p26
tp27
Rp28
ag10
(g14
S'\x98f\xcf,.xX@'
p29
tp30
Rp31
ag10
(g14
S'\xcf\xd0_$\x18mX@'
p32
tp33
Rp34
ag10
(g14
S'DX\x9a\xbc9uX@'
p35
tp36
Rp37
ag10
(g14
S'`|\xebDtxX@'
p38
tp39
Rp40
ag10
(g14
S'p\xb4\xa0\xe8\x14sX@'
p41
tp42
Rp43
ag10
(g14
S'^m\x05\xf0\x9bqX@'
p44
tp45
Rp46
ag10
(g14
S'1\xea\x98/\xadqX@'
p47
tp48
Rp49
ag10
(g14
S'\xe7\xbc\xa2F\x83qX@'
p50
tp51
Rp52
ag10
(g14
S'aF\xe3\xa5\xa2qX@'
p53
tp54
Rp55
ag10
(g14
S's\xf4Y^\xb0tX@'
p56
tp57
Rp58
ag10
(g14
S'f\xeb\xb2\x80\xebtX@'
p59
tp60
Rp61
ag10
(g14
S'\x83\x04FOd\x81X@'
p62
tp63
Rp64
ag10
(g14
S'^\xc3u\xe2uiX@'
p65
tp66
Rp67
ag10
(g14
S'\x90v.F\xeazX@'
p68
tp69
Rp70
ag10
(g14
S'\x80;m\xb2+~X@'
p71
tp72
Rp73
ag10
(g14
S'\xca\xdbh\xbb~jX@'
p74
tp75
Rp76
asS'target'
p77
(lp78
g10
(g14
S'\x06i\xc5\x9b1GO@'
p79
tp80
Rp81
ag10
(g14
S'\xd3Ua\x17_\x16M@'
p82
tp83
Rp84
ag10
(g14
S'\x8a\xf2\xcd\xe50\xd7D@'
p85
tp86
Rp87
ag10
(g14
S'\xb5?\x88Rp\x98G@'
p88
tp89
Rp90
ag10
(g14
S'\xf8?\x9dw\x08]M@'
p91
tp92
Rp93
ag10
(g14
S'\x1a\xc0h\x99\x0b\xffP@'
p94
tp95
Rp96
ag10
(g14
S'xlM\xb8\xbcJM@'
p97
tp98
Rp99
ag10
(g14
S'\xc82\xf5\x87\xc7IL@'
p100
tp101
Rp102
ag10
(g14
S'\xf9\x1d\xbc\xd8\xd0\x19Q@'
p103
tp104
Rp105
ag10
(g14
S'\x1bs\x9d\xc0\xe7\x80P@'
p106
tp107
Rp108
ag10
(g14
S'-\xb9\x12f\xdd\xbcN@'
p109
tp110
Rp111
ag10
(g14
S'\xfbN\x1a*\x81rQ@'
p112
tp113
Rp114
ag10
(g14
S'Na\xfb;\xa0uP@'
p115
tp116
Rp117
ag10
(g14
S'\xc1\xf0\xb3\x19\x8a\x96P@'
p118
tp119
Rp120
ag10
(g14
S'u\xea\xf5\r\xf0\x8eM@'
p121
tp122
Rp123
ag10
(g14
S's\xe5}\xc5M\xdfH@'
p124
tp125
Rp126
ag10
(g14
S"\xea~\x95k\xef'S@"
p127
tp128
Rp129
ag10
(g14
S'\x8e7\x88$\xf3\xb7O@'
p130
tp131
Rp132
ag10
(g14
S'\xfc_\xf7\xcd\x18\x00I@'
p133
tp134
Rp135
ag10
(g14
S'\xdd\xd6\x08(\xf6RR@'
p136
tp137
Rp138
asssss.