(dp0
S'../Data/sqlite_57.csv'
p1
(dp2
S'../Data/sqlite_30.csv'
p3
(dp4
F0.3
(dp5
S'abs_res'
p6
(dp7
S'bellwether'
p8
(lp9
cnumpy.core.multiarray
scalar
p10
(cnumpy
dtype
p11
(S'f8'
p12
I0
I1
tp13
Rp14
(I3
S'<'
p15
NNNI-1
I-1
I0
tp16
bS'Sd;;\x96ZdA'
p17
tp18
Rp19
ag10
(g14
S'\xf5\xd2M\x06\\NdA'
p20
tp21
Rp22
ag10
(g14
S'\x80?5\x82bedA'
p23
tp24
Rp25
ag10
(g14
S'I7\x89M$adA'
p26
tp27
Rp28
ag10
(g14
S'\xfe\xd4x\x85|adA'
p29
tp30
Rp31
ag10
(g14
S'\x99n\x12C\xa5cdA'
p32
tp33
Rp34
ag10
(g14
S'4\x08\xac\x98#^dA'
p35
tp36
Rp37
ag10
(g14
S'\xebz\x14f\x05fdA'
p38
tp39
Rp40
ag10
(g14
S'M\xb8\x1e\r\xfdbdA'
p41
tp42
Rp43
ag10
(g14
S'\x08V\x0e\x99\xd9adA'
p44
tp45
Rp46
ag10
(g14
S'75^\xfa\xf5XdA'
p47
tp48
Rp49
ag10
(g14
S'\x98\xed|3\xbeddA'
p50
tp51
Rp52
ag10
(g14
S'J\xe1z4\xa2ZdA'
p53
tp54
Rp55
ag10
(g14
S'A\xb6\xf3Y edA'
p56
tp57
Rp58
ag10
(g14
S'\xb3\xf3\xfd(\x1aedA'
p59
tp60
Rp61
ag10
(g14
S'633?&\\dA'
p62
tp63
Rp64
ag10
(g14
S'\xde$\x06\x81\xe8]dA'
p65
tp66
Rp67
ag10
(g14
S'\xfaS\xe3\x85\xf8fdA'
p68
tp69
Rp70
ag10
(g14
S'Y\x8d\x97\x12\x14ldA'
p71
tp72
Rp73
ag10
(g14
S'\x89A`uwZdA'
p74
tp75
Rp76
asS'target'
p77
(lp78
g10
(g14
S'{\x93\x18\x04V\x1e@@'
p79
tp80
Rp81
ag10
(g14
S'\x9d\xef\xa7\xc6KW:@'
p82
tp83
Rp84
ag10
(g14
S'\x1c\xd9\xce\xf7S#=@'
p85
tp86
Rp87
ag10
(g14
S'\xa4p=\n\xd7\x93<@'
p88
tp89
Rp90
ag10
(g14
S'h\xbaI\x0c\x02K:@'
p91
tp92
Rp93
ag10
(g14
S'\x10X9\xb4\xc8\xd6:@'
p94
tp95
Rp96
ag10
(g14
S'\xc7v\xbe\x9f\x1a\x1f=@'
p97
tp98
Rp99
ag10
(g14
S'\xd3"\xdb\xf9~\xfa?@'
p100
tp101
Rp102
ag10
(g14
S'rh\x91\xed|\x7f@@'
p103
tp104
Rp105
ag10
(g14
S'\xfb~j\xbct\x93<@'
p106
tp107
Rp108
ag10
(g14
S'=\xe1z\x14\xae\xe7<@'
p109
tp110
Rp111
ag10
(g14
S'<\xb4\xc8v\xbe\xa7@@'
p112
tp113
Rp114
ag10
(g14
S'81\x08\xac\x1c\x92D@'
p115
tp116
Rp117
ag10
(g14
S'\xb8\x9d\xef\xa7\xc6\xab?@'
p118
tp119
Rp120
ag10
(g14
S'\xb9\x1e\x85\xebQ\xf8?@'
p121
tp122
Rp123
ag10
(g14
S'\xa9\x9b\xc4 \xb0\x02@@'
p124
tp125
Rp126
ag10
(g14
S'\x03\xd5x\xe9&Q>@'
p127
tp128
Rp129
ag10
(g14
S'\x10-\xb2\x9d\xefG?@'
p130
tp131
Rp132
ag10
(g14
S'V9\xb4\xc8vv@@'
p133
tp134
Rp135
ag10
(g14
S'\r\x00\x00\x00\x00\xd09@'
p136
tp137
Rp138
asssss.