(dp0
S'../Data/sqlite_87.csv'
p1
(dp2
S'../Data/sqlite_84.csv'
p3
(dp4
F0.1
(dp5
S'mmre'
p6
(dp7
S'bellwether'
p8
(lp9
cnumpy.core.multiarray
scalar
p10
(cnumpy
dtype
p11
(S'f8'
p12
I0
I1
tp13
Rp14
(I3
S'<'
p15
NNNI-1
I-1
I0
tp16
bS'vn\x9b\xc4R\x88Y@'
p17
tp18
Rp19
ag10
(g14
S'5\xb8\x1d\xf0\xddtY@'
p20
tp21
Rp22
ag10
(g14
S'\x12\x9c\x05UPsY@'
p23
tp24
Rp25
ag10
(g14
S'\x8a\xb1\xb2O\xbfoY@'
p26
tp27
Rp28
ag10
(g14
S'>-G\x9a\xa1{Y@'
p29
tp30
Rp31
ag10
(g14
S'\xd2\xceB*fKY@'
p32
tp33
Rp34
ag10
(g14
S'\xce\xe0w\xa1\x14{Y@'
p35
tp36
Rp37
ag10
(g14
S'\x19\xc6Y_]lY@'
p38
tp39
Rp40
ag10
(g14
S'A\xa3\xaf=u[Y@'
p41
tp42
Rp43
ag10
(g14
S's\xb5\x19\x05\xa9jY@'
p44
tp45
Rp46
ag10
(g14
S'^\x9f@\xf43(Y@'
p47
tp48
Rp49
ag10
(g14
S'\x9e\xe8\x07WrbY@'
p50
tp51
Rp52
ag10
(g14
S'\xdd\xdc\xb8?w}Y@'
p53
tp54
Rp55
ag10
(g14
S'\x7f\x04\xe6\x06_\xacY@'
p56
tp57
Rp58
ag10
(g14
S'\xdb\xb01\x0fm\xa3Y@'
p59
tp60
Rp61
ag10
(g14
S'\xfb\x85=\xd7U\x8dY@'
p62
tp63
Rp64
ag10
(g14
S'\xd0W\x8a\x9f`\x80Y@'
p65
tp66
Rp67
ag10
(g14
S'\x1a{\x01\xdf\x04ZY@'
p68
tp69
Rp70
ag10
(g14
S'\x14-U\xc7\xabCY@'
p71
tp72
Rp73
ag10
(g14
S'\xba\xb8\x93<ZmY@'
p74
tp75
Rp76
asS'target'
p77
(lp78
g10
(g14
S'`\xe6] \xaarN@'
p79
tp80
Rp81
ag10
(g14
S'\x19v\xcd\xf4\x06\xe2R@'
p82
tp83
Rp84
ag10
(g14
S'\xb9}HFz3J@'
p85
tp86
Rp87
ag10
(g14
S'\x9c\xdc!\xf4u\xc6F@'
p88
tp89
Rp90
ag10
(g14
S'n\xc9\xbc\x06\x7fFV@'
p91
tp92
Rp93
ag10
(g14
S'\t}\xefm\x82\xc7S@'
p94
tp95
Rp96
ag10
(g14
S'\x106\xbbL\xfdw\\@'
p97
tp98
Rp99
ag10
(g14
S'm\x96\x18y-8J@'
p100
tp101
Rp102
ag10
(g14
S'\x0e\xadF\xc0i\xefM@'
p103
tp104
Rp105
ag10
(g14
S'\xc2\xdc@^\xfb"T@'
p106
tp107
Rp108
ag10
(g14
S'|4\xeal\xaf\xe8M@'
p109
tp110
Rp111
ag10
(g14
S'aP\xb18\xd5eE@'
p112
tp113
Rp114
ag10
(g14
S'5\xc8H\x811\xb3O@'
p115
tp116
Rp117
ag10
(g14
S'\x80\xe3\xaed\xd9\x00Q@'
p118
tp119
Rp120
ag10
(g14
S'\x14*\x88RYLH@'
p121
tp122
Rp123
ag10
(g14
S'\x84\x85\xf4\xc0A!O@'
p124
tp125
Rp126
ag10
(g14
S'\xdd\xc5\x83\xc2^ZV@'
p127
tp128
Rp129
ag10
(g14
S'0h\n\x18C^S@'
p130
tp131
Rp132
ag10
(g14
S'\x9a\xc4D\x88\xc1\x85U@'
p133
tp134
Rp135
ag10
(g14
S'\xd3=QN\x99\\G@'
p136
tp137
Rp138
asssss.