(dp0
S'../Data/sqlite_74.csv'
p1
(dp2
S'../Data/sqlite_51.csv'
p3
(dp4
F0.1
(dp5
S'abs_res'
p6
(dp7
S'bellwether'
p8
(lp9
cnumpy.core.multiarray
scalar
p10
(cnumpy
dtype
p11
(S'f8'
p12
I0
I1
tp13
Rp14
(I3
S'<'
p15
NNNI-1
I-1
I0
tp16
bS'\xf2S\xe3%\xbf~nA'
p17
tp18
Rp19
ag10
(g14
S'\x03p\x84BB{nA'
p20
tp21
Rp22
ag10
(g14
S'J\xfd\x1b\x11\xc1xnA'
p23
tp24
Rp25
ag10
(g14
S'6\xb2\x9dk\x82vnA'
p26
tp27
Rp28
ag10
(g14
S'V\xd6\xea8=vnA'
p29
tp30
Rp31
ag10
(g14
S'8&x\x08WynA'
p32
tp33
Rp34
ag10
(g14
S'\x8c\xdck\x82\\xnA'
p35
tp36
Rp37
ag10
(g14
S'\x83\x07\xf3\xf0\x86znA'
p38
tp39
Rp40
ag10
(g14
S'\xb1\xc6K\x9f\xebwnA'
p41
tp42
Rp43
ag10
(g14
S';\xb4\xc8\xfa\xf7xnA'
p44
tp45
Rp46
ag10
(g14
S'\xba\x9d\xef3OrnA'
p47
tp48
Rp49
ag10
(g14
S'\xfa\xd2M\xce\xbcwnA'
p50
tp51
Rp52
ag10
(g14
S'\x1cK~\xe1\x1btnA'
p53
tp54
Rp55
ag10
(g14
S'\x86\xebQl\x18unA'
p56
tp57
Rp58
ag10
(g14
S'\xda\xce\xf7\xbbBvnA'
p59
tp60
Rp61
ag10
(g14
S'\x9a_,\xadutnA'
p62
tp63
Rp64
ag10
(g14
S'\xa2\x18\x04\x9e\xd5|nA'
p65
tp66
Rp67
ag10
(g14
S'\xda\xcc\xcc\xc07\x7fnA'
p68
tp69
Rp70
ag10
(g14
S'\xc8<Q\xf3\x11pnA'
p71
tp72
Rp73
ag10
(g14
S'0\xdd$.\xf6}nA'
p74
tp75
Rp76
asS'target'
p77
(lp78
g10
(g14
S'N\x0c\x02+\x87&A@'
p79
tp80
Rp81
ag10
(g14
S'\xcat\x93\x18\x04\xc6C@'
p82
tp83
Rp84
ag10
(g14
S'\x0e\xd7\xa3p=\x9aB@'
p85
tp86
Rp87
ag10
(g14
S'\xf3(\\\x8f\xc2\x95D@'
p88
tp89
Rp90
ag10
(g14
S'J\x0c\x02+\x87\x06B@'
p91
tp92
Rp93
ag10
(g14
S'\xb1\x1e\x85\xebQ(E@'
p94
tp95
Rp96
ag10
(g14
S'\x19\x04V\x0e-\xe2B@'
p97
tp98
Rp99
ag10
(g14
S'/3333\xa3B@'
p100
tp101
Rp102
ag10
(g14
S'\xa0\xc4 \xb0r8C@'
p103
tp104
Rp105
ag10
(g14
S'\x8b\xc2\xf5(\\\xaf=@'
p106
tp107
Rp108
ag10
(g14
S'xj\xbct\x93\xa8D@'
p109
tp110
Rp111
ag10
(g14
S'Qb\x10X9\x94@@'
p112
tp113
Rp114
ag10
(g14
S'w;\xdfO\x8d\xc7K@'
p115
tp116
Rp117
ag10
(g14
S'\x89A`\xe5\xd0BA@'
p118
tp119
Rp120
ag10
(g14
S'\xeb\xfb\xa9\xf1\xd2m@@'
p121
tp122
Rp123
ag10
(g14
S'\xb5rh\x91\xed\xbcD@'
p124
tp125
Rp126
ag10
(g14
S'\x80j\xbct\x93xA@'
p127
tp128
Rp129
ag10
(g14
S'\xca \xb0rhQE@'
p130
tp131
Rp132
ag10
(g14
S'\x17\x04V\x0e-\xb2>@'
p133
tp134
Rp135
ag10
(g14
S'Pb\x10X9\xd4C@'
p136
tp137
Rp138
asssss.