(dp0
S'../Data/sqlite_57.csv'
p1
(dp2
S'../Data/sqlite_45.csv'
p3
(dp4
F0.2
(dp5
S'abs_res'
p6
(dp7
S'bellwether'
p8
(lp9
cnumpy.core.multiarray
scalar
p10
(cnumpy
dtype
p11
(S'f8'
p12
I0
I1
tp13
Rp14
(I3
S'<'
p15
NNNI-1
I-1
I0
tp16
bS'?\x8blW\xcfCgA'
p17
tp18
Rp19
ag10
(g14
S'\xe8&1\x90\x06IgA'
p20
tp21
Rp22
ag10
(g14
S'\x8cA`],BgA'
p23
tp24
Rp25
ag10
(g14
S'\xec|?y\xbeAgA'
p26
tp27
Rp28
ag10
(g14
S'\xc4v\xbeC\xbf>gA'
p29
tp30
Rp31
ag10
(g14
S'\x1c\xdb\xf9\xca\xc7DgA'
p32
tp33
Rp34
ag10
(g14
S's\x12\x83\x80\x1fHgA'
p35
tp36
Rp37
ag10
(g14
S'\x86\x95CK\x14KgA'
p38
tp39
Rp40
ag10
(g14
S'\x08\x02+wLBgA'
p41
tp42
Rp43
ag10
(g14
S'Sb\x10$\xdcMgA'
p44
tp45
Rp46
ag10
(g14
S'\xb0\xc8v\xde\xe8BgA'
p47
tp48
Rp49
ag10
(g14
S'\xab\x9d\xef_\x0eLgA'
p50
tp51
Rp52
ag10
(g14
S'G\x8bl\x07\x15?gA'
p53
tp54
Rp55
ag10
(g14
S'\x88A`\x99qBgA'
p56
tp57
Rp58
ag10
(g14
S'4\xb4\xc8\xda\xdf;gA'
p59
tp60
Rp61
ag10
(g14
S',\xdd$\xb6\xa8@gA'
p62
tp63
Rp64
ag10
(g14
S'\xbeI\x0cF\x14MgA'
p65
tp66
Rp67
ag10
(g14
S' \x06\x81%-VgA'
p68
tp69
Rp70
ag10
(g14
S'\xb9\xc8vB\x8eEgA'
p71
tp72
Rp73
ag10
(g14
S'\xe3z\x14N\xdfCgA'
p74
tp75
Rp76
asS'target'
p77
(lp78
g10
(g14
S'\xb1t\x93\x18\x04ll@'
p79
tp80
Rp81
ag10
(g14
S'\x0cV\x0e-\xb2\xf5l@'
p82
tp83
Rp84
ag10
(g14
S'B\xe1z\x14\xae\xfdk@'
p85
tp86
Rp87
ag10
(g14
S'\x98\xc4 \xb0r\x1ao@'
p88
tp89
Rp90
ag10
(g14
S'u=\n\xd7\xa3,m@'
p91
tp92
Rp93
ag10
(g14
S'\x97n\x12\x83\xc00p@'
p94
tp95
Rp96
ag10
(g14
S'\xf8\xff\xff\xff\xff\xdbm@'
p97
tp98
Rp99
ag10
(g14
S'\xe4\xfb\xa9\xf1\xd2eo@'
p100
tp101
Rp102
ag10
(g14
S'\xac\xf1\xd2Mb\x8co@'
p103
tp104
Rp105
ag10
(g14
S'\x06+\x87\x16\xd9\x12m@'
p106
tp107
Rp108
ag10
(g14
S'_ffffTq@'
p109
tp110
Rp111
ag10
(g14
S'U7\x89A`\xb3n@'
p112
tp113
Rp114
ag10
(g14
S'\x0f\xac\x1cZdej@'
p115
tp116
Rp117
ag10
(g14
S':3333;l@'
p118
tp119
Rp120
ag10
(g14
S'B\x0c\x02+\x87No@'
p121
tp122
Rp123
ag10
(g14
S'\x83\xc0\xca\xa1E\xbam@'
p124
tp125
Rp126
ag10
(g14
S'\x8e\xebQ\xb8\x1eEn@'
p127
tp128
Rp129
ag10
(g14
S'>`\xe5\xd0"ep@'
p130
tp131
Rp132
ag10
(g14
S'\xf2|?5^0l@'
p133
tp134
Rp135
ag10
(g14
S'=\x8bl\xe7\xfb\x85l@'
p136
tp137
Rp138
asssss.