(dp0
S'../Data/sqlite_16.csv'
p1
(dp2
S'../Data/sqlite_62.csv'
p3
(dp4
F0.35
(dp5
S'mmre'
p6
(dp7
S'bellwether'
p8
(lp9
cnumpy.core.multiarray
scalar
p10
(cnumpy
dtype
p11
(S'f8'
p12
I0
I1
tp13
Rp14
(I3
S'<'
p15
NNNI-1
I-1
I0
tp16
bS'\xaa`L\x1bF8V@'
p17
tp18
Rp19
ag10
(g14
S'\x07\x14&x\x9b6V@'
p20
tp21
Rp22
ag10
(g14
S'\xddQ\x88\xe5\xf29V@'
p23
tp24
Rp25
ag10
(g14
S'bV\xd1v\xf97V@'
p26
tp27
Rp28
ag10
(g14
S'\xf1g\x8d\xdc\x087V@'
p29
tp30
Rp31
ag10
(g14
S'\xb4\xa3\xc6\xc6\x9d7V@'
p32
tp33
Rp34
ag10
(g14
S'oJ\x0f\x07g8V@'
p35
tp36
Rp37
ag10
(g14
S'\xc8\x11i\xf1E6V@'
p38
tp39
Rp40
ag10
(g14
S'\xbf \x18N=8V@'
p41
tp42
Rp43
ag10
(g14
S'\xf6qc\x9cg9V@'
p44
tp45
Rp46
ag10
(g14
S'\xfb\xfc\x85\x9e\xb18V@'
p47
tp48
Rp49
ag10
(g14
S'\xbdP>\xedA:V@'
p50
tp51
Rp52
ag10
(g14
S'\xd61\x9f\x08\xe26V@'
p53
tp54
Rp55
ag10
(g14
S'\xe9g\x8b\xc0\xf88V@'
p56
tp57
Rp58
ag10
(g14
S'\xcb\x1c\x9aG\xdf8V@'
p59
tp60
Rp61
ag10
(g14
S'\x03\x1d\xa1\x1f,7V@'
p62
tp63
Rp64
ag10
(g14
S'\x91\x81[6\xcd8V@'
p65
tp66
Rp67
ag10
(g14
S'\n3\x0e\x94\x089V@'
p68
tp69
Rp70
ag10
(g14
S'C[V)\x038V@'
p71
tp72
Rp73
ag10
(g14
S'\xd7d\x91V\xd46V@'
p74
tp75
Rp76
asS'target'
p77
(lp78
g10
(g14
S'\'\xc3P\x84\x0c\x1b"@'
p79
tp80
Rp81
ag10
(g14
S'\xdb\xae\xe2\xd7xA!@'
p82
tp83
Rp84
ag10
(g14
S'\x14\x94\xb6\xc5\xcb\xba!@'
p85
tp86
Rp87
ag10
(g14
S"\x82\x02;'<(!@"
p88
tp89
Rp90
ag10
(g14
S'yaa\xf5>\xed!@'
p91
tp92
Rp93
ag10
(g14
S'\xaf\x8a"U\xed\xd6!@'
p94
tp95
Rp96
ag10
(g14
S'\xae\xcc|,\xa0"!@'
p97
tp98
Rp99
ag10
(g14
S'@l+\xdc\x00\x84"@'
p100
tp101
Rp102
ag10
(g14
S'Nm\xabz,\xa8!@'
p103
tp104
Rp105
ag10
(g14
S'+\xaf \x87\xb4\xb5!@'
p106
tp107
Rp108
ag10
(g14
S'z\x86r),\xb8 @'
p109
tp110
Rp111
ag10
(g14
S'?\xc1n\xbe\xf5\x85 @'
p112
tp113
Rp114
ag10
(g14
S'1jO\xac*\x99"@'
p115
tp116
Rp117
ag10
(g14
S'\x80\x19\x03\xe8\xe1\xf4 @'
p118
tp119
Rp120
ag10
(g14
S'\xd7O\x810\xa7\xe9 @'
p121
tp122
Rp123
ag10
(g14
S'\x12@\xd1u\xf5\x97"@'
p124
tp125
Rp126
ag10
(g14
S'N\xaf~\x97 \xaf!@'
p127
tp128
Rp129
ag10
(g14
S'\xc5UC\x8dO\x96!@'
p130
tp131
Rp132
ag10
(g14
S'\xb6}\x8d\x8bq\xbd\x1f@'
p133
tp134
Rp135
ag10
(g14
S'_\xfbN\xe9\xa5D"@'
p136
tp137
Rp138
asssss.