(dp0
S'../Data/sqlite_86.csv'
p1
(dp2
S'../Data/sqlite_89.csv'
p3
(dp4
F0.25
(dp5
S'mmre'
p6
(dp7
S'bellwether'
p8
(lp9
cnumpy.core.multiarray
scalar
p10
(cnumpy
dtype
p11
(S'f8'
p12
I0
I1
tp13
Rp14
(I3
S'<'
p15
NNNI-1
I-1
I0
tp16
bS'x\xaf&\xe5\xbfjR@'
p17
tp18
Rp19
ag10
(g14
S'\xf1\x85TPglR@'
p20
tp21
Rp22
ag10
(g14
S'\x0cPX\x88\xe2lR@'
p23
tp24
Rp25
ag10
(g14
S';\x972b\xb8hR@'
p26
tp27
Rp28
ag10
(g14
S'z-2\xcaZwR@'
p29
tp30
Rp31
ag10
(g14
S'\x19wFN\xb2qR@'
p32
tp33
Rp34
ag10
(g14
S'\x07gE=\xb3nR@'
p35
tp36
Rp37
ag10
(g14
S'\xbd\xffG\xd4\x89cR@'
p38
tp39
Rp40
ag10
(g14
S'\xc3<BH1eR@'
p41
tp42
Rp43
ag10
(g14
S'\x80"\xfd\xfctjR@'
p44
tp45
Rp46
ag10
(g14
S'QB\xf6%\x8cnR@'
p47
tp48
Rp49
ag10
(g14
S'PdZ\xac\x1esR@'
p50
tp51
Rp52
ag10
(g14
S'5\xcd\xa6B\xa2mR@'
p53
tp54
Rp55
ag10
(g14
S'\xbdJ\x18\x04\xcepR@'
p56
tp57
Rp58
ag10
(g14
S'\xcdP\x80ZNnR@'
p59
tp60
Rp61
ag10
(g14
S'zS6\x8e&`R@'
p62
tp63
Rp64
ag10
(g14
S'\xea\x80Y\x7f\xaffR@'
p65
tp66
Rp67
ag10
(g14
S'D\x0bD\xe8\xf3tR@'
p68
tp69
Rp70
ag10
(g14
S'6|\xf7ISgR@'
p71
tp72
Rp73
ag10
(g14
S'dR=\xbd\xf0jR@'
p74
tp75
Rp76
asS'target'
p77
(lp78
g10
(g14
S'\xdf~6\xc0u\xc2P@'
p79
tp80
Rp81
ag10
(g14
S'\xa1o\x0epp\xa9Q@'
p82
tp83
Rp84
ag10
(g14
S'\x83\xa8\xcc\x83\xb2&P@'
p85
tp86
Rp87
ag10
(g14
S'I\x172\x973\x90Q@'
p88
tp89
Rp90
ag10
(g14
S'F\xf2\x9d\x89\xd0\x98T@'
p91
tp92
Rp93
ag10
(g14
S'*\x8a\xfc\xacH Q@'
p94
tp95
Rp96
ag10
(g14
S'$*\xf3\xbb,QP@'
p97
tp98
Rp99
ag10
(g14
S'\x95\x9e\xfd\x1aL\rU@'
p100
tp101
Rp102
ag10
(g14
S"*\xce'\xe3\x9f\xfbR@"
p103
tp104
Rp105
ag10
(g14
S'\x9e\x8b\x85\xb7\x8a0Q@'
p106
tp107
Rp108
ag10
(g14
S'\x0eNp\x0f\xd7QU@'
p109
tp110
Rp111
ag10
(g14
S'zikc\xcd@M@'
p112
tp113
Rp114
ag10
(g14
S'\x9cy\t\xb0\x05\xffS@'
p115
tp116
Rp117
ag10
(g14
S'b\x8c\x1cA\xd1\x04L@'
p118
tp119
Rp120
ag10
(g14
S'\x80\xd8\x13\x82\xa9?S@'
p121
tp122
Rp123
ag10
(g14
S'\xfcJ8\x12\xd8\x8aR@'
p124
tp125
Rp126
ag10
(g14
S'Ar\xab\xff\x10FL@'
p127
tp128
Rp129
ag10
(g14
S'\xda\xf1\r\xb2U\xc0U@'
p130
tp131
Rp132
ag10
(g14
S'\x97:\xb6\x98JqQ@'
p133
tp134
Rp135
ag10
(g14
S'\xa6aa\x06\x8c\x0bR@'
p136
tp137
Rp138
asssss.