(dp0
S'../Data/sqlite_71.csv'
p1
(dp2
S'../Data/sqlite_14.csv'
p3
(dp4
F0.05
(dp5
S'abs_res'
p6
(dp7
S'bellwether'
p8
(lp9
cnumpy.core.multiarray
scalar
p10
(cnumpy
dtype
p11
(S'f8'
p12
I0
I1
tp13
Rp14
(I3
S'<'
p15
NNNI-1
I-1
I0
tp16
bS'\xd1\xcc\xcc\xf6\x83ApA'
p17
tp18
Rp19
ag10
(g14
S'\xaa\x9b\xc4JrApA'
p20
tp21
Rp22
ag10
(g14
S"q\xe7\xfb'\xf7BpA"
p23
tp24
Rp25
ag10
(g14
S'Sb\x10ph>pA'
p26
tp27
Rp28
ag10
(g14
S'A5^\xb6\x89CpA'
p29
tp30
Rp31
ag10
(g14
S'\x01\xd5x\x0b\xf9@pA'
p32
tp33
Rp34
ag10
(g14
S'\x1c/\xddB_?pA'
p35
tp36
Rp37
ag10
(g14
S'\xda\xf9~xO@pA'
p38
tp39
Rp40
ag10
(g14
S'\xdd\xa3p\xc7\x9fApA'
p41
tp42
Rp43
ag10
(g14
S'm\xe7\xfb\tE?pA'
p44
tp45
Rp46
ag10
(g14
S'\x16\xaeG\xf9\xd9>pA'
p47
tp48
Rp49
ag10
(g14
S'u\x93\x18rS@pA'
p50
tp51
Rp52
ag10
(g14
S'O7\x89\xb3cApA'
p53
tp54
Rp55
ag10
(g14
S'p\x91\xed\x8a&?pA'
p56
tp57
Rp58
ag10
(g14
S'?\xfb\xf0\x9d8BpA'
p59
tp60
Rp61
ag10
(g14
S'\xb5\xb9\x90V\xff?pA'
p62
tp63
Rp64
ag10
(g14
S'\xb5\xf3\xfd$\xde>pA'
p65
tp66
Rp67
ag10
(g14
S'w\xbe\x9f*\xaf?pA'
p68
tp69
Rp70
ag10
(g14
S'\xaf\xc6KW\xb2@pA'
p71
tp72
Rp73
ag10
(g14
S'\n\xc8\xbd\x82\x96@pA'
p74
tp75
Rp76
asS'target'
p77
(lp78
g10
(g14
S'\x87?5^\xba1h@'
p79
tp80
Rp81
ag10
(g14
S'M\xe1z\x14\xae7h@'
p82
tp83
Rp84
ag10
(g14
S'\xef\xfd\xd4x\xe9:j@'
p85
tp86
Rp87
ag10
(g14
S'\x0f\x83\xc0\xca\xa1yk@'
p88
tp89
Rp90
ag10
(g14
S'\xb9I\x0c\x02+Sj@'
p91
tp92
Rp93
ag10
(g14
S'\xbct\x93\x18\x04\xf6e@'
p94
tp95
Rp96
ag10
(g14
S'X\xbaI\x0c\x02/i@'
p97
tp98
Rp99
ag10
(g14
S'\x12/\xdd$\x06\x15g@'
p100
tp101
Rp102
ag10
(g14
S'ed;\xdfO\x95j@'
p103
tp104
Rp105
ag10
(g14
S'<\x89A`\xe5\xc4k@'
p106
tp107
Rp108
ag10
(g14
S'\xb9\x1e\x85\xebQ(g@'
p109
tp110
Rp111
ag10
(g14
S'\xb3\xc8v\xbe\x9f\x12g@'
p112
tp113
Rp114
ag10
(g14
S'#1\x08\xac\x1crj@'
p115
tp116
Rp117
ag10
(g14
S'\xbct\x93\x18\x04re@'
p118
tp119
Rp120
ag10
(g14
S'\xde\xa3p=\n\xabj@'
p121
tp122
Rp123
ag10
(g14
S'\xb7\x1cZd;\x97h@'
p124
tp125
Rp126
ag10
(g14
S'\xd3"\xdb\xf9~Fg@'
p127
tp128
Rp129
ag10
(g14
S'iffff\xa2g@'
p130
tp131
Rp132
ag10
(g14
S'|h\x91\xed|Om@'
p133
tp134
Rp135
ag10
(g14
S'\x1c/\xdd$\x06\xfdj@'
p136
tp137
Rp138
asssss.