(dp0
S'../Data/sqlite_22.csv'
p1
(dp2
S'../Data/sqlite_59.csv'
p3
(dp4
F0.15
(dp5
S'mmre'
p6
(dp7
S'bellwether'
p8
(lp9
cnumpy.core.multiarray
scalar
p10
(cnumpy
dtype
p11
(S'f8'
p12
I0
I1
tp13
Rp14
(I3
S'<'
p15
NNNI-1
I-1
I0
tp16
bS'\xdf\x17)\xff\x9c6T@'
p17
tp18
Rp19
ag10
(g14
S'\xb1\x06HSo5T@'
p20
tp21
Rp22
ag10
(g14
S'\xa5Qq |6T@'
p23
tp24
Rp25
ag10
(g14
S'\x8f\x16\x9a8\x879T@'
p26
tp27
Rp28
ag10
(g14
S'\xa0\xac\x12=\x0b9T@'
p29
tp30
Rp31
ag10
(g14
S'\xcc\xcd\xc9SD8T@'
p32
tp33
Rp34
ag10
(g14
S'`\xff\xf4A\xc5;T@'
p35
tp36
Rp37
ag10
(g14
S'\xa7\x84}\x00_5T@'
p38
tp39
Rp40
ag10
(g14
S'\x88\xab\xd5X\x0f7T@'
p41
tp42
Rp43
ag10
(g14
S'\xae]>\x19\xe6;T@'
p44
tp45
Rp46
ag10
(g14
S'\x82N"+-6T@'
p47
tp48
Rp49
ag10
(g14
S'\xd4\x1e\xa8d\x10;T@'
p50
tp51
Rp52
ag10
(g14
S'\x11\xd9v\xda\x06<T@'
p53
tp54
Rp55
ag10
(g14
S'\xcdCL6\xcf8T@'
p56
tp57
Rp58
ag10
(g14
S'\xef\x13\x1d\xa32<T@'
p59
tp60
Rp61
ag10
(g14
S'\x8b\xc6\xc4\xd0\xd97T@'
p62
tp63
Rp64
ag10
(g14
S'G\x19,\xad\x8b:T@'
p65
tp66
Rp67
ag10
(g14
S'\xbavG\xf5\xc56T@'
p68
tp69
Rp70
ag10
(g14
S'\x0b\x92~\xc1\xcb7T@'
p71
tp72
Rp73
ag10
(g14
S'\x0f\x131pN:T@'
p74
tp75
Rp76
asS'target'
p77
(lp78
g10
(g14
S'\xf1<|w\x04\x94%@'
p79
tp80
Rp81
ag10
(g14
S'\xe4\x05rfW5(@'
p82
tp83
Rp84
ag10
(g14
S"\xde\x0f\xb6y^\xd6'@"
p85
tp86
Rp87
ag10
(g14
S'|\xb7#\x07\x91\n&@'
p88
tp89
Rp90
ag10
(g14
S"\x8f\xbe$P\xb0S'@"
p91
tp92
Rp93
ag10
(g14
S'\x91\x97\xce8\t\xa8%@'
p94
tp95
Rp96
ag10
(g14
S'\xedp.v\xa1s&@'
p97
tp98
Rp99
ag10
(g14
S'\x1e\x12\xfe\x98\t[%@'
p100
tp101
Rp102
ag10
(g14
S"[\x86{:\x19\xa6'@"
p103
tp104
Rp105
ag10
(g14
S"f[\xaa'<#$@"
p106
tp107
Rp108
ag10
(g14
S'\xafU\x9b\xd4\x0b\xdb&@'
p109
tp110
Rp111
ag10
(g14
S'O\x12JI\x04\xe9$@'
p112
tp113
Rp114
ag10
(g14
S'\x06ux\xa2\x07[&@'
p115
tp116
Rp117
ag10
(g14
S'_\xc8m_t\xe1$@'
p118
tp119
Rp120
ag10
(g14
S'\xb6\xa7gR\xe9\xeb$@'
p121
tp122
Rp123
ag10
(g14
S'S\xe3\xa4FZ\xe6%@'
p124
tp125
Rp126
ag10
(g14
S'\x926\x8c\xb5"C&@'
p127
tp128
Rp129
ag10
(g14
S'\xc4\x99\xe49r|$@'
p130
tp131
Rp132
ag10
(g14
S'\x00\x14d\xd0N\x87&@'
p133
tp134
Rp135
ag10
(g14
S'\x0b\x98\x03\x9a\xd6\xaa$@'
p136
tp137
Rp138
asssss.