(dp0
S'../Data/sqlite_17.csv'
p1
(dp2
S'../Data/sqlite_63.csv'
p3
(dp4
F0.2
(dp5
S'mmre'
p6
(dp7
S'bellwether'
p8
(lp9
cnumpy.core.multiarray
scalar
p10
(cnumpy
dtype
p11
(S'f8'
p12
I0
I1
tp13
Rp14
(I3
S'<'
p15
NNNI-1
I-1
I0
tp16
bS'\x81}\x1d \xf04I@'
p17
tp18
Rp19
ag10
(g14
S'\xfc\xb2Y\xa6#4I@'
p20
tp21
Rp22
ag10
(g14
S'l!nd\x988I@'
p23
tp24
Rp25
ag10
(g14
S'\x98\x9e(\xb8K7I@'
p26
tp27
Rp28
ag10
(g14
S']\x1c[B\xc8\x1bI@'
p29
tp30
Rp31
ag10
(g14
S'\xb5\xeb\xcb\xc4\xbb)I@'
p32
tp33
Rp34
ag10
(g14
S'\xb4\xdb"\x06\xea-I@'
p35
tp36
Rp37
ag10
(g14
S'RX\xa9"e2I@'
p38
tp39
Rp40
ag10
(g14
S"\xbeT\xed\x15'\x1bI@"
p41
tp42
Rp43
ag10
(g14
S'\x86^SP6"I@'
p44
tp45
Rp46
ag10
(g14
S'\xc0^60\xe6.I@'
p47
tp48
Rp49
ag10
(g14
S'Dv\xeex-6I@'
p50
tp51
Rp52
ag10
(g14
S"\xdb\xb2'\xfe]0I@"
p53
tp54
Rp55
ag10
(g14
S'\xbeO\x01\xabP-I@'
p56
tp57
Rp58
ag10
(g14
S'\xd8p\x93\xe8e-I@'
p59
tp60
Rp61
ag10
(g14
S'\x93w\xd6\x93H)I@'
p62
tp63
Rp64
ag10
(g14
S'(\x0c\xde}\x88*I@'
p65
tp66
Rp67
ag10
(g14
S'nxb\x81U7I@'
p68
tp69
Rp70
ag10
(g14
S'\xf7\xef-\xff\xb7.I@'
p71
tp72
Rp73
ag10
(g14
S'\x00[\xf0\xbb\x101I@'
p74
tp75
Rp76
asS'target'
p77
(lp78
g10
(g14
S'\xd2\x9b7\x85\xd7?"@'
p79
tp80
Rp81
ag10
(g14
S'"\xa9g\xb5\xc0\xd3!@'
p82
tp83
Rp84
ag10
(g14
S'l\xa9?)\xb0\xc2!@'
p85
tp86
Rp87
ag10
(g14
S'\t<\xb6u\n\x11#@'
p88
tp89
Rp90
ag10
(g14
S'\x90\x9d\xe5\x8f\xf7\x88"@'
p91
tp92
Rp93
ag10
(g14
S'.8/\xbd\xe6\xa2#@'
p94
tp95
Rp96
ag10
(g14
S'\r\x8b\n\xa7Z\x87$@'
p97
tp98
Rp99
ag10
(g14
S'\xe1\xf5\x00\xb0\xfa4"@'
p100
tp101
Rp102
ag10
(g14
S'Q[\xe53\xe7,"@'
p103
tp104
Rp105
ag10
(g14
S'\x88\nL\xb8x\xb8#@'
p106
tp107
Rp108
ag10
(g14
S'\xbc5\xdf\xde\'K"@'
p109
tp110
Rp111
ag10
(g14
S'\x00\xd5\x0c\xb0 \xf9#@'
p112
tp113
Rp114
ag10
(g14
S'\xc4\x9d\x14\x98\xc0\x92$@'
p115
tp116
Rp117
ag10
(g14
S')\xcb\x90\x82|\xe5!@'
p118
tp119
Rp120
ag10
(g14
S'U\x90\x14\xc1\xc76"@'
p121
tp122
Rp123
ag10
(g14
S'\xfe\xd9l!sR#@'
p124
tp125
Rp126
ag10
(g14
S'@W$\xe9\x9b\xc9"@'
p127
tp128
Rp129
ag10
(g14
S'B\xf1\x93!f\xe2!@'
p130
tp131
Rp132
ag10
(g14
S'\xf8`\x14M\xfak"@'
p133
tp134
Rp135
ag10
(g14
S'\x1fs\xb0\xb9\xea}"@'
p136
tp137
Rp138
asssss.