(dp0
S'../Data/sqlite_15.csv'
p1
(dp2
S'../Data/sqlite_31.csv'
p3
(dp4
F0.25
(dp5
S'abs_res'
p6
(dp7
S'bellwether'
p8
(lp9
cnumpy.core.multiarray
scalar
p10
(cnumpy
dtype
p11
(S'f8'
p12
I0
I1
tp13
Rp14
(I3
S'<'
p15
NNNI-1
I-1
I0
tp16
bS'\\\xbaIl2y<A'
p17
tp18
Rp19
ag10
(g14
S"\xaf\x9d\xef'\xf4z<A"
p20
tp21
Rp22
ag10
(g14
S'R\xabcB\xc0w<A'
p23
tp24
Rp25
ag10
(g14
S'\x9a\xa8\x7f\x83Zx<A'
p26
tp27
Rp28
ag10
(g14
S'\x19\xd9\xcew\xacy<A'
p29
tp30
Rp31
ag10
(g14
S'\xbb\xf5(\xfc\x96z<A'
p32
tp33
Rp34
ag10
(g14
S'eY\xab\x03\x97y<A'
p35
tp36
Rp37
ag10
(g14
S')\xdd$\xe6\xe5z<A'
p38
tp39
Rp40
ag10
(g14
S'y]\x01\x12zz<A'
p41
tp42
Rp43
ag10
(g14
S'%\x87\x16\xb9\xe6x<A'
p44
tp45
Rp46
ag10
(g14
S'\xe3\xfb\xa9\xf1\x94y<A'
p47
tp48
Rp49
ag10
(g14
S'l.$MRy<A'
p50
tp51
Rp52
ag10
(g14
S'^\xd6\xeaX\x84x<A'
p53
tp54
Rp55
ag10
(g14
S'\xd1\xf9~\xaa\x8cz<A'
p56
tp57
Rp58
ag10
(g14
S'\xe5|?u\xd8y<A'
p59
tp60
Rp61
ag10
(g14
S'\x0ft\xda`tx<A'
p62
tp63
Rp64
ag10
(g14
S'U\x9c}\x98\x9cy<A'
p65
tp66
Rp67
ag10
(g14
S'\xd1\x13\xf5\x0f\\y<A'
p68
tp69
Rp70
ag10
(g14
S'\xe1z\x14n\xa6y<A'
p71
tp72
Rp73
ag10
(g14
S'\xdc\x96\xb5:\xdcv<A'
p74
tp75
Rp76
asS'target'
p77
(lp78
g10
(g14
S'\x89A`\xe5\xd0\x80c@'
p79
tp80
Rp81
ag10
(g14
S'}?5^\xba\x01e@'
p82
tp83
Rp84
ag10
(g14
S'\xa6p=\n\xd7\xe7a@'
p85
tp86
Rp87
ag10
(g14
S'Z9\xb4\xc8v\x1ec@'
p88
tp89
Rp90
ag10
(g14
S'$\\\x8f\xc2\xf5\xe2d@'
p91
tp92
Rp93
ag10
(g14
S'lh\x91\xed|we@'
p94
tp95
Rp96
ag10
(g14
S'j\xbct\x93\x18\x14c@'
p97
tp98
Rp99
ag10
(g14
S'X7\x89A`\x89c@'
p100
tp101
Rp102
ag10
(g14
S'%\x06\x81\x95C\x97b@'
p103
tp104
Rp105
ag10
(g14
S'\x8b\xc2\xf5(\\\xcbc@'
p106
tp107
Rp108
ag10
(g14
S'\x8e\x97n\x12\x83 a@'
p109
tp110
Rp111
ag10
(g14
S'\\\x8f\xc2\xf5(tb@'
p112
tp113
Rp114
ag10
(g14
S'?\xdfO\x8d\x97Pb@'
p115
tp116
Rp117
ag10
(g14
S'\xe3O\x8d\x97n$c@'
p118
tp119
Rp120
ag10
(g14
S'\xf9S\xe3\xa5\x9b0c@'
p121
tp122
Rp123
ag10
(g14
S'\x92\xed|?5\xd0b@'
p124
tp125
Rp126
ag10
(g14
S'\xbft\x93\x18\x04\xf0c@'
p127
tp128
Rp129
ag10
(g14
S'wj\xbct\x93\xd0c@'
p130
tp131
Rp132
ag10
(g14
S"'\\\x8f\xc2\xf5\xdcc@"
p133
tp134
Rp135
ag10
(g14
S'\x10-\xb2\x9d\xef\x83c@'
p136
tp137
Rp138
asssss.