(dp0
S'../Data/sqlite_28.csv'
p1
(dp2
S'../Data/sqlite_96.csv'
p3
(dp4
F0.3
(dp5
S'mmre'
p6
(dp7
S'bellwether'
p8
(lp9
cnumpy.core.multiarray
scalar
p10
(cnumpy
dtype
p11
(S'f8'
p12
I0
I1
tp13
Rp14
(I3
S'<'
p15
NNNI-1
I-1
I0
tp16
bS'Y\xb2\xa1\xc1\xa1MU@'
p17
tp18
Rp19
ag10
(g14
S'\xaeq|z\xabFU@'
p20
tp21
Rp22
ag10
(g14
S'\xc3\xd4\x91\xb4\x8cWU@'
p23
tp24
Rp25
ag10
(g14
S'\x10L}\x8d\xd9KU@'
p26
tp27
Rp28
ag10
(g14
S'\xc8\x93#\xe0\xe2>U@'
p29
tp30
Rp31
ag10
(g14
S',y\x10x\xb9QU@'
p32
tp33
Rp34
ag10
(g14
S'\x829\xa7\xa7\xebOU@'
p35
tp36
Rp37
ag10
(g14
S'D\x85u\x94\xca>U@'
p38
tp39
Rp40
ag10
(g14
S'x\x0f\x1e6\xa7GU@'
p41
tp42
Rp43
ag10
(g14
S'\xff[\xb1\x97\x8fLU@'
p44
tp45
Rp46
ag10
(g14
S'\xa4\xd0,\xcc\xacHU@'
p47
tp48
Rp49
ag10
(g14
S'\x90`=\\\x14EU@'
p50
tp51
Rp52
ag10
(g14
S'B\xba\xed\x9c\x0bGU@'
p53
tp54
Rp55
ag10
(g14
S'\xb7\x95!SBNU@'
p56
tp57
Rp58
ag10
(g14
S'\xb9\xa9\xddW\x13SU@'
p59
tp60
Rp61
ag10
(g14
S'P:t\xf6\x88FU@'
p62
tp63
Rp64
ag10
(g14
S'\x13\xb7\xae0ILU@'
p65
tp66
Rp67
ag10
(g14
S'KR\xaa\xf0\xa0GU@'
p68
tp69
Rp70
ag10
(g14
S'\xed\xc0h\xac\x8bOU@'
p71
tp72
Rp73
ag10
(g14
S'\x024\xc8\x8fDPU@'
p74
tp75
Rp76
asS'target'
p77
(lp78
g10
(g14
S"\xd5g'\xb1\x1a.S@"
p79
tp80
Rp81
ag10
(g14
S"'\x12F@81W@"
p82
tp83
Rp84
ag10
(g14
S'\xd4~~m\xc5\x0fG@'
p85
tp86
Rp87
ag10
(g14
S'\xf2\xf9\xf7<yFZ@'
p88
tp89
Rp90
ag10
(g14
S'\x8f\xbe\xfb&\xb2<V@'
p91
tp92
Rp93
ag10
(g14
S'q%y|(\xbeR@'
p94
tp95
Rp96
ag10
(g14
S'\x8a\x87b\xce\x94\xe3Q@'
p97
tp98
Rp99
ag10
(g14
S'$E\xce\x96L\xdfQ@'
p100
tp101
Rp102
ag10
(g14
S'"n;<\xf2E`@'
p103
tp104
Rp105
ag10
(g14
S'!9\x1f\xe5\x1cbU@'
p106
tp107
Rp108
ag10
(g14
S'\xfa\x87\\07\xd8Q@'
p109
tp110
Rp111
ag10
(g14
S'm!Z\x8f\xc2YW@'
p112
tp113
Rp114
ag10
(g14
S'\xf2\xa6\n,\xeb<Z@'
p115
tp116
Rp117
ag10
(g14
S'c"oaH\xb7J@'
p118
tp119
Rp120
ag10
(g14
S'\xe2\x1f\xc4\xc8\x80\xc5R@'
p121
tp122
Rp123
ag10
(g14
S'%2nh\xe7 V@'
p124
tp125
Rp126
ag10
(g14
S'\x1f\x92F\x80\xc8\xddQ@'
p127
tp128
Rp129
ag10
(g14
S'\\\xbe\x01t*\xf9\\@'
p130
tp131
Rp132
ag10
(g14
S'\x19\x7f\xf4\x05*\x1cP@'
p133
tp134
Rp135
ag10
(g14
S'CV\xcd:8\x10O@'
p136
tp137
Rp138
asssss.