(dp0
S'../Data/sqlite_39.csv'
p1
(dp2
S'../Data/sqlite_97.csv'
p3
(dp4
F0.2
(dp5
S'mmre'
p6
(dp7
S'bellwether'
p8
(lp9
cnumpy.core.multiarray
scalar
p10
(cnumpy
dtype
p11
(S'f8'
p12
I0
I1
tp13
Rp14
(I3
S'<'
p15
NNNI-1
I-1
I0
tp16
bS'\xea\xb4\xba\xad\x08\xadc@'
p17
tp18
Rp19
ag10
(g14
S'\tB\x87\x88;\x8ac@'
p20
tp21
Rp22
ag10
(g14
S'E\x99\xbd\xd5&\x84c@'
p23
tp24
Rp25
ag10
(g14
S'~]\xc4ed\x8cc@'
p26
tp27
Rp28
ag10
(g14
S'\x8b\xf2\x8f\xe8+\xa6c@'
p29
tp30
Rp31
ag10
(g14
S'.\xa8Q\xb9$\xd5c@'
p32
tp33
Rp34
ag10
(g14
S'\x8d\xe4\xb1\xd07uc@'
p35
tp36
Rp37
ag10
(g14
S'\x9aF<\x89\tfc@'
p38
tp39
Rp40
ag10
(g14
S'\x80\xe4k/\xb2\x9bc@'
p41
tp42
Rp43
ag10
(g14
S'\x94pI\xf9\t\xa4c@'
p44
tp45
Rp46
ag10
(g14
S'\x98\x17H\x9e\xe8\x9dc@'
p47
tp48
Rp49
ag10
(g14
S'.]\x11C\x01qc@'
p50
tp51
Rp52
ag10
(g14
S'\x90\x1b\xf1\xee$\x7fc@'
p53
tp54
Rp55
ag10
(g14
S'^`oD\x02\x85c@'
p56
tp57
Rp58
ag10
(g14
S'\xdc:\xa5zhQc@'
p59
tp60
Rp61
ag10
(g14
S'0\xf9:\\<\xb6c@'
p62
tp63
Rp64
ag10
(g14
S'f\xd3^\r\xb1\x9ac@'
p65
tp66
Rp67
ag10
(g14
S'\x1a\xa1\x06\xfa\x1f\x89c@'
p68
tp69
Rp70
ag10
(g14
S'^L\x1a\x9f\xe2yc@'
p71
tp72
Rp73
ag10
(g14
S'\xec\x8a=\xb7\x1b\x98c@'
p74
tp75
Rp76
asS'target'
p77
(lp78
g10
(g14
S'\xfd\xeaZ\xc4\xeew_@'
p79
tp80
Rp81
ag10
(g14
S'\xd9\xa7\xf03a\xae`@'
p82
tp83
Rp84
ag10
(g14
S'>\xf8\xf3\x87!eH@'
p85
tp86
Rp87
ag10
(g14
S'\x0c\x97m\xff\xc3\xcdN@'
p88
tp89
Rp90
ag10
(g14
S'\x160J\xa2\x08fJ@'
p91
tp92
Rp93
ag10
(g14
S'\xcel)\xe0X\xffZ@'
p94
tp95
Rp96
ag10
(g14
S'\nSh\xa9X\x99\\@'
p97
tp98
Rp99
ag10
(g14
S'x\xcbe\xfa\xa7\xaeY@'
p100
tp101
Rp102
ag10
(g14
S'Z\x80\xdb\xa7#_S@'
p103
tp104
Rp105
ag10
(g14
S'YA\xc4\x82<wY@'
p106
tp107
Rp108
ag10
(g14
S'\t\x88O\x8f.SP@'
p109
tp110
Rp111
ag10
(g14
S']\x1bN\t\xa8)^@'
p112
tp113
Rp114
ag10
(g14
S"0\x8e'D+EU@"
p115
tp116
Rp117
ag10
(g14
S'\x9c\xed\xec\x03NMH@'
p118
tp119
Rp120
ag10
(g14
S'D\xf3 F{\xb3V@'
p121
tp122
Rp123
ag10
(g14
S'KA\xa2\x15%\x1a^@'
p124
tp125
Rp126
ag10
(g14
S'\xda\x13\x9a\xc8\xc0\x1bX@'
p127
tp128
Rp129
ag10
(g14
S"\xc3\x97\xb5}\xba'_@"
p130
tp131
Rp132
ag10
(g14
S'\xfa(Vv\x9cgW@'
p133
tp134
Rp135
ag10
(g14
S'.\xa8\n^*8T@'
p136
tp137
Rp138
asssss.