(dp0
S'../Data/sqlite_43.csv'
p1
(dp2
S'../Data/sqlite_45.csv'
p3
(dp4
F0.3
(dp5
S'abs_res'
p6
(dp7
S'bellwether'
p8
(lp9
cnumpy.core.multiarray
scalar
p10
(cnumpy
dtype
p11
(S'f8'
p12
I0
I1
tp13
Rp14
(I3
S'<'
p15
NNNI-1
I-1
I0
tp16
bS'\x0f:m\x00\xe8s:A'
p17
tp18
Rp19
ag10
(g14
S'9\xd0i#\x87t:A'
p20
tp21
Rp22
ag10
(g14
S'\x11t\xda\xc0\x19t:A'
p23
tp24
Rp25
ag10
(g14
S'\xa1\xc6K\xf7\xa8t:A'
p26
tp27
Rp28
ag10
(g14
S'\xe5@\xa7\xed\x0ct:A'
p29
tp30
Rp31
ag10
(g14
S':\xfb\xf0\xf9Bu:A'
p32
tp33
Rp34
ag10
(g14
S'#\x04V\xee\xbct:A'
p35
tp36
Rp37
ag10
(g14
S'\x96l\xe7[\x1eu:A'
p38
tp39
Rp40
ag10
(g14
S'\xc9\xcc\xcc,\x1dt:A'
p41
tp42
Rp43
ag10
(g14
S'\x02\xd5x\x89\x85s:A'
p44
tp45
Rp46
ag10
(g14
S'iffF`t:A'
p47
tp48
Rp49
ag10
(g14
S'\x9f\xfe\x8dPZu:A'
p50
tp51
Rp52
ag10
(g14
S'\x10\xac\x1c:\x94t:A'
p53
tp54
Rp55
ag10
(g14
S'\x1d\xaeG\xc1\xb8t:A'
p56
tp57
Rp58
ag10
(g14
S'T~\xb1\xa4\xc7u:A'
p59
tp60
Rp61
ag10
(g14
S'\xef\n\x90\xfbtt:A'
p62
tp63
Rp64
ag10
(g14
S'\x924\xa5\xa2Js:A'
p65
tp66
Rp67
ag10
(g14
S'\x88#\x94\x11\x1eu:A'
p68
tp69
Rp70
ag10
(g14
S'9\xd0i\x03ut:A'
p71
tp72
Rp73
ag10
(g14
S'\xf7\xb6\xac\x15\x07u:A'
p74
tp75
Rp76
asS'target'
p77
(lp78
g10
(g14
S'\t\xd7\xa3p=\xe8h@'
p79
tp80
Rp81
ag10
(g14
S'\xbd\x1e\x85\xebQ>i@'
p82
tp83
Rp84
ag10
(g14
S'\x89\x16\xd9\xce\xf7+h@'
p85
tp86
Rp87
ag10
(g14
S'\xaap=\n\xd7wj@'
p88
tp89
Rp90
ag10
(g14
S'D5^\xbaI\xdci@'
p91
tp92
Rp93
ag10
(g14
S'\x19\xdb\xf9~j<j@'
p94
tp95
Rp96
ag10
(g14
S'r\x91\xed|?ih@'
p97
tp98
Rp99
ag10
(g14
S'7\x89A`\xe5dk@'
p100
tp101
Rp102
ag10
(g14
S'\xd5k.$MYj@'
p103
tp104
Rp105
ag10
(g14
S'\xb9\x9d\xef\xa7\xc6Ai@'
p106
tp107
Rp108
ag10
(g14
S'H\x0c\x02+\x87\x16i@'
p109
tp110
Rp111
ag10
(g14
S'\xbbt\x93\x18\x04\xc2i@'
p112
tp113
Rp114
ag10
(g14
S'\xe6O\x8d\x97n\xa6k@'
p115
tp116
Rp117
ag10
(g14
S'\x17\x83\xc0\xca\xa1\x89h@'
p118
tp119
Rp120
ag10
(g14
S'\x91n\x12\x83\xc0dk@'
p121
tp122
Rp123
ag10
(g14
S'\xc1\xf5(\\\x8f*j@'
p124
tp125
Rp126
ag10
(g14
S'-\x06\x81\x95C\xcdi@'
p127
tp128
Rp129
ag10
(g14
S'@5^\xbaIPj@'
p130
tp131
Rp132
ag10
(g14
S'\xfb\xd4x\xe9&Yi@'
p133
tp134
Rp135
ag10
(g14
S'\x9e\x1a/\xdd$hj@'
p136
tp137
Rp138
asssss.