(dp0
S'../Data/sqlite_15.csv'
p1
(dp2
S'../Data/sqlite_8.csv'
p3
(dp4
F0.15
(dp5
S'abs_res'
p6
(dp7
S'bellwether'
p8
(lp9
cnumpy.core.multiarray
scalar
p10
(cnumpy
dtype
p11
(S'f8'
p12
I0
I1
tp13
Rp14
(I3
S'<'
p15
NNNI-1
I-1
I0
tp16
bS'\xc6v\xbe\xff~4@A'
p17
tp18
Rp19
ag10
(g14
S'u?5\xce75@A'
p20
tp21
Rp22
ag10
(g14
S'\xc3\xd9\x87\x9f^3@A'
p23
tp24
Rp25
ag10
(g14
S'\x0c\xca\xe8\xadS4@A'
p26
tp27
Rp28
ag10
(g14
S'\x90\xd1\xdbb%4@A'
p29
tp30
Rp31
ag10
(g14
S'\x9bE\xb6\xb3\xe04@A'
p32
tp33
Rp34
ag10
(g14
S'_;\xdf\xff!5@A'
p35
tp36
Rp37
ag10
(g14
S'a\xc9/\xd6\xea4@A'
p38
tp39
Rp40
ag10
(g14
S'\x0e\x83\xc0\x9a-4@A'
p41
tp42
Rp43
ag10
(g14
S'\xef\xd2M\xf2H4@A'
p44
tp45
Rp46
ag10
(g14
S'k\x12\x83\xa0\x185@A'
p47
tp48
Rp49
ag10
(g14
S'CDDTW4@A'
p50
tp51
Rp52
ag10
(g14
S'\xbc\x02\xe4n@5@A'
p53
tp54
Rp55
ag10
(g14
S'\x05\xac\x1cZ\xd04@A'
p56
tp57
Rp58
ag10
(g14
S'\xb3V\xc7\xe4\x125@A'
p59
tp60
Rp61
ag10
(g14
S'$1\x08l\x935@A'
p62
tp63
Rp64
ag10
(g14
S'\xafrh!\x054@A'
p65
tp66
Rp67
ag10
(g14
S'\x91\xd1\xdbB\xb85@A'
p68
tp69
Rp70
ag10
(g14
S'\xa0E\xb6\x93\xc34@A'
p71
tp72
Rp73
ag10
(g14
S'_;\xdfo\\5@A'
p74
tp75
Rp76
asS'target'
p77
(lp78
g10
(g14
S'\xc7\xf5(\\\x8f\x8a]@'
p79
tp80
Rp81
ag10
(g14
S'\xecQ\xb8\x1e\x85\xa7Z@'
p82
tp83
Rp84
ag10
(g14
S'\xd2Mb\x10X1X@'
p85
tp86
Rp87
ag10
(g14
S'\x01T\xe3\xa5\x9b\xf0W@'
p88
tp89
Rp90
ag10
(g14
S'\xba\xc8v\xbe\x9f\xa2X@'
p91
tp92
Rp93
ag10
(g14
S'`d;\xdfO=Z@'
p94
tp95
Rp96
ag10
(g14
S'<\x08\xac\x1cZ\x84X@'
p97
tp98
Rp99
ag10
(g14
S'\x17X9\xb4\xc8\x96Z@'
p100
tp101
Rp102
ag10
(g14
S'w?5^\xba\x01Z@'
p103
tp104
Rp105
ag10
(g14
S'7\xdd$\x06\x81\xc5[@'
p106
tp107
Rp108
ag10
(g14
S'\xfe\xd4x\xe9&\xb1Y@'
p109
tp110
Rp111
ag10
(g14
S' \xdb\xf9~j\xecZ@'
p112
tp113
Rp114
ag10
(g14
S'{?5^\xba\xb5a@'
p115
tp116
Rp117
ag10
(g14
S'L\x8bl\xe7\xfbi[@'
p118
tp119
Rp120
ag10
(g14
S'\xcbv\xbe\x9f\x1a\xbfZ@'
p121
tp122
Rp123
ag10
(g14
S'\xc5\xca\xa1E\xb6cW@'
p124
tp125
Rp126
ag10
(g14
S'\xe5\xd0"\xdb\xf9\xf6Z@'
p127
tp128
Rp129
ag10
(g14
S';\xb4\xc8v\xbe_Y@'
p130
tp131
Rp132
ag10
(g14
S'^\xe3\xa5\x9b\xc4\x10[@'
p133
tp134
Rp135
ag10
(g14
S'\x97\xc2\xf5(\\\x87[@'
p136
tp137
Rp138
asssss.