(dp0
S'../Data/sqlite_71.csv'
p1
(dp2
S'../Data/sqlite_37.csv'
p3
(dp4
F0.2
(dp5
S'abs_res'
p6
(dp7
S'bellwether'
p8
(lp9
cnumpy.core.multiarray
scalar
p10
(cnumpy
dtype
p11
(S'f8'
p12
I0
I1
tp13
Rp14
(I3
S'<'
p15
NNNI-1
I-1
I0
tp16
bS'\x0b\xac\x1cN^ckA'
p17
tp18
Rp19
ag10
(g14
S'\xb4\x9d\xef\xab\xe6akA'
p20
tp21
Rp22
ag10
(g14
S'j!ib]ckA'
p23
tp24
Rp25
ag10
(g14
S'%@\xee\xc5-hkA'
p26
tp27
Rp28
ag10
(g14
S'\xdf\x08e,[kkA'
p29
tp30
Rp31
ag10
(g14
S'|?5\xda"gkA'
p32
tp33
Rp34
ag10
(g14
S'\x7f\xe9&\xfd\xcejkA'
p35
tp36
Rp37
ag10
(g14
S'}wwK\xa3]kA'
p38
tp39
Rp40
ag10
(g14
S'\xba\x9d\xef\x8b_[kA'
p41
tp42
Rp43
ag10
(g14
S'\xe3\xb4\x81n\xa8bkA'
p44
tp45
Rp46
ag10
(g14
S']\x9c}h\x99gkA'
p47
tp48
Rp49
ag10
(g14
S'#\xb0rD\nekA'
p50
tp51
Rp52
ag10
(g14
S'&\x06\x81!7ekA'
p53
tp54
Rp55
ag10
(g14
S'\xcd1\xc1\x93\x99hkA'
p56
tp57
Rp58
ag10
(g14
S'\x16g\x1f\xaa\xe1nkA'
p59
tp60
Rp61
ag10
(g14
S'\xc6t\x93\xa8\xb7fkA'
p62
tp63
Rp64
ag10
(g14
S'\xf2\n\x90\xc3B\\kA'
p65
tp66
Rp67
ag10
(g14
S'\x11\x13<\x8cZkkA'
p68
tp69
Rp70
ag10
(g14
S'\xd6\xf7S\xbb\x85UkA'
p71
tp72
Rp73
ag10
(g14
S'\xf5\xdf\x08m_gkA'
p74
tp75
Rp76
asS'target'
p77
(lp78
g10
(g14
S'K\x8bl\xe7\xfbyO@'
p79
tp80
Rp81
ag10
(g14
S'\xddO\x8d\x97n\x1aP@'
p82
tp83
Rp84
ag10
(g14
S'\xe9\xa5\x9b\xc4 XQ@'
p85
tp86
Rp87
ag10
(g14
S'L7\x89A`\x15O@'
p88
tp89
Rp90
ag10
(g14
S'(1\x08\xac\x1c\xdaO@'
p91
tp92
Rp93
ag10
(g14
S'\xd5v\xbe\x9f\x1a\xbfO@'
p94
tp95
Rp96
ag10
(g14
S'\xdc\xce\xf7S\xe3eP@'
p97
tp98
Rp99
ag10
(g14
S'\x86j\xbct\x93\xf8O@'
p100
tp101
Rp102
ag10
(g14
S'`9\xb4\xc8v6P@'
p103
tp104
Rp105
ag10
(g14
S'\x84\xc0\xca\xa1E\x16O@'
p106
tp107
Rp108
ag10
(g14
S'\xfbS\xe3\xa5\x9bdO@'
p109
tp110
Rp111
ag10
(g14
S'\x88\x16\xd9\xce\xf7\x13Q@'
p112
tp113
Rp114
ag10
(g14
S'\xff\xff\xff\xff\xff\x17P@'
p115
tp116
Rp117
ag10
(g14
S'\xb0G\xe1z\x14&P@'
p118
tp119
Rp120
ag10
(g14
S'\xcaK7\x89A`O@'
p121
tp122
Rp123
ag10
(g14
S'<\n\xd7\xa3p\rP@'
p124
tp125
Rp126
ag10
(g14
S'\xb1\xf1\xd2Mb@O@'
p127
tp128
Rp129
ag10
(g14
S'6\n\xd7\xa3p\xbdO@'
p130
tp131
Rp132
ag10
(g14
S'H\x8bl\xe7\xfbqQ@'
p133
tp134
Rp135
ag10
(g14
S'+\\\x8f\xc2\xf5\x98O@'
p136
tp137
Rp138
asssss.