(dp0
S'../Data/sqlite_14.csv'
p1
(dp2
S'../Data/sqlite_91.csv'
p3
(dp4
F0.3
(dp5
S'mmre'
p6
(dp7
S'bellwether'
p8
(lp9
cnumpy.core.multiarray
scalar
p10
(cnumpy
dtype
p11
(S'f8'
p12
I0
I1
tp13
Rp14
(I3
S'<'
p15
NNNI-1
I-1
I0
tp16
bS'0u\xcc\xc5\x18mX@'
p17
tp18
Rp19
ag10
(g14
S' \x15\xf9\x06KtX@'
p20
tp21
Rp22
ag10
(g14
S'i\x92\xeb;AmX@'
p23
tp24
Rp25
ag10
(g14
S'\x1b\x80=\xf5\xcfyX@'
p26
tp27
Rp28
ag10
(g14
S'\xd4\xf2\xcb\xac\xdauX@'
p29
tp30
Rp31
ag10
(g14
S'\xb0U\x96\xf2jqX@'
p32
tp33
Rp34
ag10
(g14
S'\xe2\xf10i\xd6tX@'
p35
tp36
Rp37
ag10
(g14
S'S\xd7\xd7\x90\x1bqX@'
p38
tp39
Rp40
ag10
(g14
S'\xa5\xfcw#puX@'
p41
tp42
Rp43
ag10
(g14
S'\xf1LW2\xf9qX@'
p44
tp45
Rp46
ag10
(g14
S'\x9f\xe3\xad\xee\x91mX@'
p47
tp48
Rp49
ag10
(g14
S'bp\x11\xc0\x86mX@'
p50
tp51
Rp52
ag10
(g14
S'\xda\xefy\xaa\xc4nX@'
p53
tp54
Rp55
ag10
(g14
S'\x8a\xbe$\x9f\xe3tX@'
p56
tp57
Rp58
ag10
(g14
S'\xd9,\x08z\x11rX@'
p59
tp60
Rp61
ag10
(g14
S'qQ\xd3\xfdGxX@'
p62
tp63
Rp64
ag10
(g14
S'DK]\x1aD{X@'
p65
tp66
Rp67
ag10
(g14
S'\xcd\x90y\xdb(uX@'
p68
tp69
Rp70
ag10
(g14
S'\xc7\xdf\x8f\x16\xd4sX@'
p71
tp72
Rp73
ag10
(g14
S'25\x9c\xef1zX@'
p74
tp75
Rp76
asS'target'
p77
(lp78
g10
(g14
S'Q\xe9\xce\xb1\xf1\xa1Q@'
p79
tp80
Rp81
ag10
(g14
S'\xf3"\x85i\x9e\xb3N@'
p82
tp83
Rp84
ag10
(g14
S'A\x12+0ipR@'
p85
tp86
Rp87
ag10
(g14
S'\t+\x84\xf72#O@'
p88
tp89
Rp90
ag10
(g14
S'K\xc7\xca]\x0f\x19O@'
p91
tp92
Rp93
ag10
(g14
S'\xc1k\xa1{\xd7EQ@'
p94
tp95
Rp96
ag10
(g14
S'\xc5\xdeb\x13\xd2%P@'
p97
tp98
Rp99
ag10
(g14
S'\x8c\x94\xfb1\x14\x0eQ@'
p100
tp101
Rp102
ag10
(g14
S'\xa2\x8d\xd0\x91c\xe4O@'
p103
tp104
Rp105
ag10
(g14
S'\xdaf\xa5b\xd3\x92P@'
p106
tp107
Rp108
ag10
(g14
S'E\x1d\xb5:2rR@'
p109
tp110
Rp111
ag10
(g14
S'\xdd:\x82\xbd\xa4>Q@'
p112
tp113
Rp114
ag10
(g14
S'n|\x17\xd6N\xf6P@'
p115
tp116
Rp117
ag10
(g14
S'\xc2N\xd9R\xbe3O@'
p118
tp119
Rp120
ag10
(g14
S'\xf9N\xccZ\xbesP@'
p121
tp122
Rp123
ag10
(g14
S'\xdc\x88r\xb7\x9daN@'
p124
tp125
Rp126
ag10
(g14
S'\x03U}\xfe\r\xb5M@'
p127
tp128
Rp129
ag10
(g14
S"S\x07y'P\xf0P@"
p130
tp131
Rp132
ag10
(g14
S'\x1aX\x88\x8f\xe1\xceO@'
p133
tp134
Rp135
ag10
(g14
S'\xb7H/:\xda\x04O@'
p136
tp137
Rp138
asssss.