(dp0
S'../Data/sqlite_75.csv'
p1
(dp2
S'../Data/sqlite_59.csv'
p3
(dp4
F0.1
(dp5
S'mmre'
p6
(dp7
S'bellwether'
p8
(lp9
cnumpy.core.multiarray
scalar
p10
(cnumpy
dtype
p11
(S'f8'
p12
I0
I1
tp13
Rp14
(I3
S'<'
p15
NNNI-1
I-1
I0
tp16
bS'Gt\x16\xb1\xb9DH@'
p17
tp18
Rp19
ag10
(g14
S'\xf2\x90\x93\xe5\xadKH@'
p20
tp21
Rp22
ag10
(g14
S'GI\xfb\xd9\x04NH@'
p23
tp24
Rp25
ag10
(g14
S')$\r\x19\xe9ZH@'
p26
tp27
Rp28
ag10
(g14
S'PR\xee\x95tAH@'
p29
tp30
Rp31
ag10
(g14
S'NXJ#/OH@'
p32
tp33
Rp34
ag10
(g14
S'\x87\xd0J\x8e\xacBH@'
p35
tp36
Rp37
ag10
(g14
S'\xc6\xaf|\xce\x9eNH@'
p38
tp39
Rp40
ag10
(g14
S'J\x18\nL{QH@'
p41
tp42
Rp43
ag10
(g14
S're)z\xf2FH@'
p44
tp45
Rp46
ag10
(g14
S'=\xfcF\x08\xbaQH@'
p47
tp48
Rp49
ag10
(g14
S'\x8f\xeek\xb5KQH@'
p50
tp51
Rp52
ag10
(g14
S'\n9\xb3k\xd0RH@'
p53
tp54
Rp55
ag10
(g14
S'\xa3\x04\x9b\xbe\xb5@H@'
p56
tp57
Rp58
ag10
(g14
S'm\x87\xd5\x9e\x1fHH@'
p59
tp60
Rp61
ag10
(g14
S'X\xc7\xb2\xd8\x1aGH@'
p62
tp63
Rp64
ag10
(g14
S'\xc8[<\x8e\xd5OH@'
p65
tp66
Rp67
ag10
(g14
S'\x1c}\x06\xb4XOH@'
p68
tp69
Rp70
ag10
(g14
S'\xd8\x87\xc9hrJH@'
p71
tp72
Rp73
ag10
(g14
S'\xa8cw\x9c\xdcHH@'
p74
tp75
Rp76
asS'target'
p77
(lp78
g10
(g14
S'WEj3I\xb2%@'
p79
tp80
Rp81
ag10
(g14
S'S:\xe4H\x08\xa7%@'
p82
tp83
Rp84
ag10
(g14
S' \xd6\x84\xa7\xd8\xe3%@'
p85
tp86
Rp87
ag10
(g14
S'\x1a?NNCI%@'
p88
tp89
Rp90
ag10
(g14
S'\xebb.!\xba\xea(@'
p91
tp92
Rp93
ag10
(g14
S'\x15\xba\x99\x82\xff\xb6$@'
p94
tp95
Rp96
ag10
(g14
S'\x90jg\xd5\x9b\\(@'
p97
tp98
Rp99
ag10
(g14
S'\x97$\x05\xf6\xb8g&@'
p100
tp101
Rp102
ag10
(g14
S'\x82:gF\x9d\xfe$@'
p103
tp104
Rp105
ag10
(g14
S'\xa70H\t\xe3Q%@'
p106
tp107
Rp108
ag10
(g14
S',\t\xc41\xc2\xc8&@'
p109
tp110
Rp111
ag10
(g14
S"\xb7w\x8c\x8a\x90?'@"
p112
tp113
Rp114
ag10
(g14
S'\x94\xc3:\x08Z\x7f#@'
p115
tp116
Rp117
ag10
(g14
S'\xfc\xb8\xb3\x10!\x9a&@'
p118
tp119
Rp120
ag10
(g14
S"\xe1\x08\x0c\x80\xd6C'@"
p121
tp122
Rp123
ag10
(g14
S'W\xa6*U\xfb\x8b%@'
p124
tp125
Rp126
ag10
(g14
S'\xe4k*\xdc\x1e\xe8%@'
p127
tp128
Rp129
ag10
(g14
S'f\x9f\x83\x08\xe4\xc2$@'
p130
tp131
Rp132
ag10
(g14
S"\xf9A\xab.\x1d\xfe'@"
p133
tp134
Rp135
ag10
(g14
S'\x1b\x81\x1cW\xbb\xeb$@'
p136
tp137
Rp138
asssss.