(dp0
S'../Data/sqlite_68.csv'
p1
(dp2
S'../Data/sqlite_87.csv'
p3
(dp4
F0.35
(dp5
S'mmre'
p6
(dp7
S'bellwether'
p8
(lp9
cnumpy.core.multiarray
scalar
p10
(cnumpy
dtype
p11
(S'f8'
p12
I0
I1
tp13
Rp14
(I3
S'<'
p15
NNNI-1
I-1
I0
tp16
bS'\x16\xd6\x17.;\xf2u@'
p17
tp18
Rp19
ag10
(g14
S'^\x06Q\xa0\xcf\xd1u@'
p20
tp21
Rp22
ag10
(g14
S'l]\xcc\xdf\xa7\xb5u@'
p23
tp24
Rp25
ag10
(g14
S'\x00\x8b\xe3!jxu@'
p26
tp27
Rp28
ag10
(g14
S'\x8b:\xd6"\xac\tv@'
p29
tp30
Rp31
ag10
(g14
S'\x8ap\x19\xbdE\xf2u@'
p32
tp33
Rp34
ag10
(g14
S'\xe9A9l\xe4\xbfu@'
p35
tp36
Rp37
ag10
(g14
S'\xf4zU8q\xcdu@'
p38
tp39
Rp40
ag10
(g14
S'\xae~9\xe8\xe0\xeau@'
p41
tp42
Rp43
ag10
(g14
S'\xdes\x06\x01\x14\xb0u@'
p44
tp45
Rp46
ag10
(g14
S'\xfc\x1d\xf7=\xd5\x91u@'
p47
tp48
Rp49
ag10
(g14
S'rr\xdcZ\\\x8fu@'
p50
tp51
Rp52
ag10
(g14
S'\xa8\x93bx\x16\xcdu@'
p53
tp54
Rp55
ag10
(g14
S'Z\xc2S3\x1d\x98u@'
p56
tp57
Rp58
ag10
(g14
S'4\xf1\xd0\x11\xc4\xd5u@'
p59
tp60
Rp61
ag10
(g14
S'b\xeaf\xe7\x98\xc4u@'
p62
tp63
Rp64
ag10
(g14
S'W\x05|u\x92\x80u@'
p65
tp66
Rp67
ag10
(g14
S'O\x16\xacl\x16\xb1u@'
p68
tp69
Rp70
ag10
(g14
S'\xab\xcat\x9a\xaa\xa8u@'
p71
tp72
Rp73
ag10
(g14
S'U\x12G\xdb9\xf1u@'
p74
tp75
Rp76
asS'target'
p77
(lp78
g10
(g14
S'\xcbu\xe0AnES@'
p79
tp80
Rp81
ag10
(g14
S"W\xfe'1\xe8OS@"
p82
tp83
Rp84
ag10
(g14
S'j\xe2T<|XR@'
p85
tp86
Rp87
ag10
(g14
S'\xe8i\x16\xa7\xd4\x99P@'
p88
tp89
Rp90
ag10
(g14
S'2_XF\xc1\x1aU@'
p91
tp92
Rp93
ag10
(g14
S'fx\xdb\xf2\xb7\xf9P@'
p94
tp95
Rp96
ag10
(g14
S'M\xea\x8f\x9cRKO@'
p97
tp98
Rp99
ag10
(g14
S'\xa9p\xc0\xa3nHR@'
p100
tp101
Rp102
ag10
(g14
S'\xe9i;\x9b\xb5\xc4N@'
p103
tp104
Rp105
ag10
(g14
S'\xab\x9c2i\xb7-P@'
p106
tp107
Rp108
ag10
(g14
S't\x00\xff\x9a\xa2\xc6L@'
p109
tp110
Rp111
ag10
(g14
S'\x9bLU7\xe5\xaaL@'
p112
tp113
Rp114
ag10
(g14
S'[}w\xb9t\x1eQ@'
p115
tp116
Rp117
ag10
(g14
S'!\xc2\x8d\x95+FL@'
p118
tp119
Rp120
ag10
(g14
S'\x06\x11\xac\x89E\x9eP@'
p121
tp122
Rp123
ag10
(g14
S'1\xccs\xa1\x02.K@'
p124
tp125
Rp126
ag10
(g14
S'V\x9dYTl\x98Q@'
p127
tp128
Rp129
ag10
(g14
S'{mCz\xdd\x93P@'
p130
tp131
Rp132
ag10
(g14
S'w\xcd#y`3Q@'
p133
tp134
Rp135
ag10
(g14
S'\x08A\x1b\xf4sfV@'
p136
tp137
Rp138
asssss.