(dp0
S'../Data/sqlite_1.csv'
p1
(dp2
S'../Data/sqlite_51.csv'
p3
(dp4
F0.4
(dp5
S'abs_res'
p6
(dp7
S'bellwether'
p8
(lp9
cnumpy.core.multiarray
scalar
p10
(cnumpy
dtype
p11
(S'f8'
p12
I0
I1
tp13
Rp14
(I3
S'<'
p15
NNNI-1
I-1
I0
tp16
bS'BDD\xc4?\n7A'
p17
tp18
Rp19
ag10
(g14
S'\xf9(\\\x8f]\t7A'
p20
tp21
Rp22
ag10
(g14
S'\x94_,\xf9\xf3\t7A'
p23
tp24
Rp25
ag10
(g14
S'\x9c\x99\x999\xf1\x087A'
p26
tp27
Rp28
ag10
(g14
S'\x01\x1c\xa1\x0c\r\n7A'
p29
tp30
Rp31
ag10
(g14
S'\x822z\x9b\xbb\t7A'
p32
tp33
Rp34
ag10
(g14
S'\x91\xfcb)J\n7A'
p35
tp36
Rp37
ag10
(g14
S'\xc4X\xf2\xeb>\x087A'
p38
tp39
Rp40
ag10
(g14
S'|\x86]!\xcd\n7A'
p41
tp42
Rp43
ag10
(g14
S',@\xee\x95\xca\n7A'
p44
tp45
Rp46
ag10
(g14
S'\xb6rhQ\x15\x087A'
p47
tp48
Rp49
ag10
(g14
S'\x8e{\xcde\x86\n7A'
p50
tp51
Rp52
ag10
(g14
S'0@\xee\x159\n7A'
p53
tp54
Rp55
ag10
(g14
S'\x07r\xafy\xbb\n7A'
p56
tp57
Rp58
ag10
(g14
S'\xa5\x9b\xc4\xc0\xdc\x0b7A'
p59
tp60
Rp61
ag10
(g14
S'\x9e}\xf8\x8c\x92\n7A'
p62
tp63
Rp64
ag10
(g14
S'\x19\x92\xa64\xbe\t7A'
p65
tp66
Rp67
ag10
(g14
S"'x0\x8f;\x0c7A"
p68
tp69
Rp70
ag10
(g14
S'\x9eaW`\xe1\t7A'
p71
tp72
Rp73
ag10
(g14
S'\xc6-k\xb5q\x0b7A'
p74
tp75
Rp76
asS'target'
p77
(lp78
g10
(g14
S'\x85\x16\xd9\xce\xf7\x938@'
p79
tp80
Rp81
ag10
(g14
S'\x98\x0bIS*\xce7@'
p82
tp83
Rp84
ag10
(g14
S'\x05X9\xb4\xc8F9@'
p85
tp86
Rp87
ag10
(g14
S'\xbe\x9f\x1a/\xddD8@'
p88
tp89
Rp90
ag10
(g14
S'\x06\xd7\xa3p=*7@'
p91
tp92
Rp93
ag10
(g14
S'T\xe3\xa5\x9b\xc4@8@'
p94
tp95
Rp96
ag10
(g14
S'\xf7(\\\x8f\xc2u=@'
p97
tp98
Rp99
ag10
(g14
S'\x05\x81\x95C\x8bl7@'
p100
tp101
Rp102
ag10
(g14
S'.\x08\xac\x1cZ\x045@'
p103
tp104
Rp105
ag10
(g14
S'\xaap=\n\xd7\x839@'
p106
tp107
Rp108
ag10
(g14
S'9\xb4\xc8v\xbe\x9f5@'
p109
tp110
Rp111
ag10
(g14
S'\xbct\x93\x18\x04\xf67@'
p112
tp113
Rp114
ag10
(g14
S'\xa6p=\n\xd7S7@'
p115
tp116
Rp117
ag10
(g14
S'F\x0c\x02+\x87V7@'
p118
tp119
Rp120
ag10
(g14
S"'\x87\x16\xd9\xce\xf78@"
p121
tp122
Rp123
ag10
(g14
S'$\xdb\xf9~j\xec7@'
p124
tp125
Rp126
ag10
(g14
S'\xbaI\x0c\x02+\x17:@'
p127
tp128
Rp129
ag10
(g14
S'k\x91\xed|?5:@'
p130
tp131
Rp132
ag10
(g14
S'\x96\x18\x04V\x0e]9@'
p133
tp134
Rp135
ag10
(g14
S'\xa4\x1cZd;\x8f8@'
p136
tp137
Rp138
asssss.