(dp0
S'../Data/sqlite_57.csv'
p1
(dp2
S'../Data/sqlite_23.csv'
p3
(dp4
F0.4
(dp5
S'abs_res'
p6
(dp7
S'bellwether'
p8
(lp9
cnumpy.core.multiarray
scalar
p10
(cnumpy
dtype
p11
(S'f8'
p12
I0
I1
tp13
Rp14
(I3
S'<'
p15
NNNI-1
I-1
I0
tp16
bS'\x18\x04V\x8e\xbbsaA'
p17
tp18
Rp19
ag10
(g14
S'\x06\xd7\xa3|\x85\x7faA'
p20
tp21
Rp22
ag10
(g14
S'\x95n\x123U\x87aA'
p23
tp24
Rp25
ag10
(g14
S"\x11X9\x80'qaA"
p26
tp27
Rp28
ag10
(g14
S';\xdfOA\xc3vaA'
p29
tp30
Rp31
ag10
(g14
S']d;O\xe3\x80aA'
p32
tp33
Rp34
ag10
(g14
S'\xb7rh1i|aA'
p35
tp36
Rp37
ag10
(g14
S'B`\xe5\xc0uwaA'
p38
tp39
Rp40
ag10
(g14
S'\r\xd7\xa3\xe0\xf5yaA'
p41
tp42
Rp43
ag10
(g14
S'\xa0\xef\xa7.\x16laA'
p44
tp45
Rp46
ag10
(g14
S' \x85\xeb\xb5\xbe\x83aA'
p47
tp48
Rp49
ag10
(g14
S'\x08V\x0e%\xcfvaA'
p50
tp51
Rp52
ag10
(g14
S'\xb0rhM$\x81aA'
p53
tp54
Rp55
ag10
(g14
S'\xe2\xd0"\x0f/vaA'
p56
tp57
Rp58
ag10
(g14
S"e;\xdf'\xfa|aA"
p59
tp60
Rp61
ag10
(g14
S'\x97\xed|\xe30oaA'
p62
tp63
Rp64
ag10
(g14
S'Pb\x10\x1cL{aA'
p65
tp66
Rp67
ag10
(g14
S'\xf8~j\xb8\x16yaA'
p68
tp69
Rp70
ag10
(g14
S'*\x87\x16e?waA'
p71
tp72
Rp73
ag10
(g14
S'\xf0|?\xe9\xcfsaA'
p74
tp75
Rp76
asS'target'
p77
(lp78
g10
(g14
S'\x04)\\\x8f\xc2u6@'
p79
tp80
Rp81
ag10
(g14
S'\xa3E\xb6\xf3\xfd\x147@'
p82
tp83
Rp84
ag10
(g14
S'\x84A`\xe5\xd0\xd26@'
p85
tp86
Rp87
ag10
(g14
S'k\xe7\xfb\xa9\xf1\xe26@'
p88
tp89
Rp90
ag10
(g14
S'33333\xe37@'
p91
tp92
Rp93
ag10
(g14
S'\x82\x14\xaeG\xe1*7@'
p94
tp95
Rp96
ag10
(g14
S'\xef\xfd\xd4x\xe9\x168@'
p97
tp98
Rp99
ag10
(g14
S'\x19\x83\xc0\xca\xa1\xc57@'
p100
tp101
Rp102
ag10
(g14
S'\xc0 \xb0rhA7@'
p103
tp104
Rp105
ag10
(g14
S'\xe6&1\x08\xac\x1c:@'
p106
tp107
Rp108
ag10
(g14
S'\x07+\x87\x16\xd9n7@'
p109
tp110
Rp111
ag10
(g14
S',\xb2\x9d\xef\xa7&9@'
p112
tp113
Rp114
ag10
(g14
S'9\x89A`\xe5p7@'
p115
tp116
Rp117
ag10
(g14
S'Pb\x10X947@'
p118
tp119
Rp120
ag10
(g14
S'\xc2\xc8v\xbe\x9f\x8a:@'
p121
tp122
Rp123
ag10
(g14
S'\xeb$\x06\x81\x95\x036@'
p124
tp125
Rp126
ag10
(g14
S'b\x8f\xc2\xf5(\xdc7@'
p127
tp128
Rp129
ag10
(g14
S'gfffff5@'
p130
tp131
Rp132
ag10
(g14
S'\x89\x97n\x12\x83\xe07@'
p133
tp134
Rp135
ag10
(g14
S'\\\x8f\xc2\xf5(\xbc7@'
p136
tp137
Rp138
asssss.