(dp0
S'../Data/sqlite_93.csv'
p1
(dp2
S'../Data/sqlite_87.csv'
p3
(dp4
F0.05
(dp5
S'mmre'
p6
(dp7
S'bellwether'
p8
(lp9
cnumpy.core.multiarray
scalar
p10
(cnumpy
dtype
p11
(S'f8'
p12
I0
I1
tp13
Rp14
(I3
S'<'
p15
NNNI-1
I-1
I0
tp16
bS'\x12\xff*T\xbbKV@'
p17
tp18
Rp19
ag10
(g14
S'6\xf2oOdJV@'
p20
tp21
Rp22
ag10
(g14
S'F\x07\x11\xea\x80JV@'
p23
tp24
Rp25
ag10
(g14
S'\x1b\xfe\xab&=IV@'
p26
tp27
Rp28
ag10
(g14
S'\xec\x05\xb2\xcbyKV@'
p29
tp30
Rp31
ag10
(g14
S'e\xeb\x92\xf8\x80JV@'
p32
tp33
Rp34
ag10
(g14
S"\xe6\x11W'\x05JV@"
p35
tp36
Rp37
ag10
(g14
S'\xd2\xf0+6\x03NV@'
p38
tp39
Rp40
ag10
(g14
S'\x9e\xf7\xda\x9a/IV@'
p41
tp42
Rp43
ag10
(g14
S'\x96\x15\x1d\xd9\xd2HV@'
p44
tp45
Rp46
ag10
(g14
S'.\xa5M\x03\xe4KV@'
p47
tp48
Rp49
ag10
(g14
S'\xb3\xa0N\x1b\x04KV@'
p50
tp51
Rp52
ag10
(g14
S'|\xa0\xb4\x90\x8aKV@'
p53
tp54
Rp55
ag10
(g14
S'*%\xf8\xe3HJV@'
p56
tp57
Rp58
ag10
(g14
S')\xc3\\\xc3\x89NV@'
p59
tp60
Rp61
ag10
(g14
S'\xe2\xa0\xfc>\xc4NV@'
p62
tp63
Rp64
ag10
(g14
S'1\xbau&gIV@'
p65
tp66
Rp67
ag10
(g14
S'\x82\x89\xdc\x03lJV@'
p68
tp69
Rp70
ag10
(g14
S'3EM\x0f{JV@'
p71
tp72
Rp73
ag10
(g14
S'W\xec\x190\xe3IV@'
p74
tp75
Rp76
asS'target'
p77
(lp78
g10
(g14
S'x\xa7/\x9dp\xdfS@'
p79
tp80
Rp81
ag10
(g14
S'\xe2\x8f\xcd\xd4\x97ha@'
p82
tp83
Rp84
ag10
(g14
S';r\xb3A\x03\xa7S@'
p85
tp86
Rp87
ag10
(g14
S"\x1cvx\x81'5Z@"
p88
tp89
Rp90
ag10
(g14
S'\xe5\xde\xf3[\xb8\x0cL@'
p91
tp92
Rp93
ag10
(g14
S'\xf2\xd7\x16\xef\xcanT@'
p94
tp95
Rp96
ag10
(g14
S'`f~\xfe\xee\rB@'
p97
tp98
Rp99
ag10
(g14
S',\xce:\xadAsS@'
p100
tp101
Rp102
ag10
(g14
S'\xe2o\x1a\xed\xf4wT@'
p103
tp104
Rp105
ag10
(g14
S'\xb1W\xa3rf\xd8T@'
p106
tp107
Rp108
ag10
(g14
S'\x9en\xf9-\x91\xafX@'
p109
tp110
Rp111
ag10
(g14
S'x\\\xcf\x83\x976R@'
p112
tp113
Rp114
ag10
(g14
S':\xd3.\x1246T@'
p115
tp116
Rp117
ag10
(g14
S'\x94\xfb>x\xb3\x8eR@'
p118
tp119
Rp120
ag10
(g14
S'~\xb9\x9a\x04\xfb\x92E@'
p121
tp122
Rp123
ag10
(g14
S'\xa5\x84o\x95\x166D@'
p124
tp125
Rp126
ag10
(g14
S'\xefmq\x01\x81Z]@'
p127
tp128
Rp129
ag10
(g14
S'\xf1,VYq\x98C@'
p130
tp131
Rp132
ag10
(g14
S'K>\x14\n\x86\x9cX@'
p133
tp134
Rp135
ag10
(g14
S'\xee(N\x87\x12\x9eJ@'
p136
tp137
Rp138
asssss.