(dp0
S'../Data/sqlite_66.csv'
p1
(dp2
S'../Data/sqlite_16.csv'
p3
(dp4
F0.1
(dp5
S'abs_res'
p6
(dp7
S'bellwether'
p8
(lp9
cnumpy.core.multiarray
scalar
p10
(cnumpy
dtype
p11
(S'f8'
p12
I0
I1
tp13
Rp14
(I3
S'<'
p15
NNNI-1
I-1
I0
tp16
bS'\xd1Mb\xd0=K#A'
p17
tp18
Rp19
ag10
(g14
S'\t\x02+\x07\x9dK#A'
p20
tp21
Rp22
ag10
(g14
S'}\x16\xd9\x8e\x82K#A'
p23
tp24
Rp25
ag10
(g14
S'\xcbK7\xc9YJ#A'
p26
tp27
Rp28
ag10
(g14
S'\x80\xf8\x0c\xbb\xdbJ#A'
p29
tp30
Rp31
ag10
(g14
S'\x18X9\xf4\x07K#A'
p32
tp33
Rp34
ag10
(g14
S'\x18Zd\xfb\x17K#A'
p35
tp36
Rp37
ag10
(g14
S'\xe3z\x14\xee\x9bK#A'
p38
tp39
Rp40
ag10
(g14
S'|\xc0\xca!\xffJ#A'
p41
tp42
Rp43
ag10
(g14
S'4\xc1\x83\xb9yK#A'
p44
tp45
Rp46
ag10
(g14
S'\x95\xa6T\xdc\xd3K#A'
p47
tp48
Rp49
ag10
(g14
S'\x13IS\xea\xbdJ#A'
p50
tp51
Rp52
ag10
(g14
S'@\x19\xbdm\xd3J#A'
p53
tp54
Rp55
ag10
(g14
S'\x93n\x12\x03\xd0K#A'
p56
tp57
Rp58
ag10
(g14
S'~\x95C\x0b0K#A'
p59
tp60
Rp61
ag10
(g14
S'\x91\xed|\xff8K#A'
p62
tp63
Rp64
ag10
(g14
S'\x14\xbd-kDK#A'
p65
tp66
Rp67
ag10
(g14
S'\r\x83\xc0J\xe2J#A'
p68
tp69
Rp70
ag10
(g14
S'U\x0e-\xb2\x07K#A'
p71
tp72
Rp73
ag10
(g14
S'w\xe9&1|J#A'
p74
tp75
Rp76
asS'target'
p77
(lp78
g10
(g14
S'\x8f\xc2\xf5(\\\xcfO@'
p79
tp80
Rp81
ag10
(g14
S'B7\x89A`\x9dS@'
p82
tp83
Rp84
ag10
(g14
S'\xdbx\xe9&1\x88M@'
p85
tp86
Rp87
ag10
(g14
S'i\x91\xed|?\x95N@'
p88
tp89
Rp90
ag10
(g14
S'\xde\xf9~j\xbc\xd4L@'
p91
tp92
Rp93
ag10
(g14
S'\x1d\xdb\xf9~j,N@'
p94
tp95
Rp96
ag10
(g14
S'\xb9\xc8v\xbe\x9f\x8aQ@'
p97
tp98
Rp99
ag10
(g14
S'\xc5v\xbe\x9f\x1a\xc7P@'
p100
tp101
Rp102
ag10
(g14
S'\xf5\xfb\xa9\xf1\xd2\x05T@'
p103
tp104
Rp105
ag10
(g14
S'}\xe9&1\x08\xdcP@'
p106
tp107
Rp108
ag10
(g14
S'f\x10X9\xb4\x14Q@'
p109
tp110
Rp111
ag10
(g14
S'\x92\x18\x04V\x0e%P@'
p112
tp113
Rp114
ag10
(g14
S'`\xe5\xd0"\xdb\xe9N@'
p115
tp116
Rp117
ag10
(g14
S'\xe4\xd0"\xdb\xf9nN@'
p118
tp119
Rp120
ag10
(g14
S'vh\x91\xed|wQ@'
p121
tp122
Rp123
ag10
(g14
S'>\n\xd7\xa3p\xbdN@'
p124
tp125
Rp126
ag10
(g14
S'\xe2|?5^\x9aN@'
p127
tp128
Rp129
ag10
(g14
S'\x92\xed|?5\xaeM@'
p130
tp131
Rp132
ag10
(g14
S'\x94\xc4 \xb0r8O@'
p133
tp134
Rp135
ag10
(g14
S'\x8d\x97n\x12\x83\xc8Q@'
p136
tp137
Rp138
asssss.