(dp0
S'../Data/sqlite_32.csv'
p1
(dp2
S'../Data/sqlite_23.csv'
p3
(dp4
F0.3
(dp5
S'abs_res'
p6
(dp7
S'bellwether'
p8
(lp9
cnumpy.core.multiarray
scalar
p10
(cnumpy
dtype
p11
(S'f8'
p12
I0
I1
tp13
Rp14
(I3
S'<'
p15
NNNI-1
I-1
I0
tp16
bS'M\x0c\x02\x9b\xd00@A'
p17
tp18
Rp19
ag10
(g14
S'\xaeG\xe1j^2@A'
p20
tp21
Rp22
ag10
(g14
S'v=\n\xf7\x0f2@A'
p23
tp24
Rp25
ag10
(g14
S'\x9bn\x12\xb3\xcf1@A'
p26
tp27
Rp28
ag10
(g14
S's\x12\x83\x10\xb41@A'
p29
tp30
Rp31
ag10
(g14
S'J\xe1z\x14\xf4/@A'
p32
tp33
Rp34
ag10
(g14
S'\x9f\x99\x99Y\x1a/@A'
p35
tp36
Rp37
ag10
(g14
S'\xc6 \xb02l0@A'
p38
tp39
Rp40
ag10
(g14
S'\x07V\x0e]\xf71@A'
p41
tp42
Rp43
ag10
(g14
S'U\xb8\x1e\x85\xc9.@A'
p44
tp45
Rp46
ag10
(g14
S'\xd5x\xe9v\xd91@A'
p47
tp48
Rp49
ag10
(g14
S'\x82j\xbc\xb4\xec2@A'
p50
tp51
Rp52
ag10
(g14
S'\x0c\xac\x1cJ\xb61@A'
p53
tp54
Rp55
ag10
(g14
S'\x1d\x04V\xae5.@A'
p56
tp57
Rp58
ag10
(g14
S'\x0c\x02+\xe7`.@A'
p59
tp60
Rp61
ag10
(g14
S'n\xbct3<1@A'
p62
tp63
Rp64
ag10
(g14
S'.\xb2\x9d\x9f\n2@A'
p65
tp66
Rp67
ag10
(g14
S'\xef|?U=3@A'
p68
tp69
Rp70
ag10
(g14
S'N7\x89\x11t/@A'
p71
tp72
Rp73
ag10
(g14
S'\n\x81\x95\xe3\n2@A'
p74
tp75
Rp76
asS'target'
p77
(lp78
g10
(g14
S'\x0b\x02+\x87\x16\x19;@'
p79
tp80
Rp81
ag10
(g14
S'\xfa~j\xbct3;@'
p82
tp83
Rp84
ag10
(g14
S'x?5^\xba\xa9:@'
p85
tp86
Rp87
ag10
(g14
S'\xfc\xd4x\xe9&\x81=@'
p88
tp89
Rp90
ag10
(g14
S'^\x10X9\xb4\xa8<@'
p91
tp92
Rp93
ag10
(g14
S'\x1f\x83\xc0\xca\xa1e<@'
p94
tp95
Rp96
ag10
(g14
S'8\xb4\xc8v\xbe_<@'
p97
tp98
Rp99
ag10
(g14
S'!\x85\xebQ\xb8>;@'
p100
tp101
Rp102
ag10
(g14
S'W\xb8\x1e\x85\xebQ;@'
p103
tp104
Rp105
ag10
(g14
S'\x89l\xe7\xfb\xa9\x11:@'
p106
tp107
Rp108
ag10
(g14
S'n\xe7\xfb\xa9\xf1\xf2<@'
p109
tp110
Rp111
ag10
(g14
S'\xe3\xa3p=\n\xe7;@'
p112
tp113
Rp114
ag10
(g14
S'?\x89A`\xe5\xc0:@'
p115
tp116
Rp117
ag10
(g14
S'|\x95C\x8bl\x17=@'
p118
tp119
Rp120
ag10
(g14
S'\x86l\xe7\xfb\xa9\xe19@'
p121
tp122
Rp123
ag10
(g14
S'\xecz\x14\xaeG\xc1<@'
p124
tp125
Rp126
ag10
(g14
S'\xa6\xc6K7\x89q;@'
p127
tp128
Rp129
ag10
(g14
S'\x8dl\xe7\xfb\xa9\xf18@'
p130
tp131
Rp132
ag10
(g14
S'\xe9\xa5\x9b\xc4 \x90<@'
p133
tp134
Rp135
ag10
(g14
S'<3333\x13=@'
p136
tp137
Rp138
asssss.