(dp0
S'../Data/sqlite_20.csv'
p1
(dp2
S'../Data/sqlite_85.csv'
p3
(dp4
F0.15
(dp5
S'abs_res'
p6
(dp7
S'bellwether'
p8
(lp9
cnumpy.core.multiarray
scalar
p10
(cnumpy
dtype
p11
(S'f8'
p12
I0
I1
tp13
Rp14
(I3
S'<'
p15
NNNI-1
I-1
I0
tp16
bS'\xa3\xc4 \xb8\x12bWA'
p17
tp18
Rp19
ag10
(g14
S"\xc8v\xbe'>)WA"
p20
tp21
Rp22
ag10
(g14
S'h\x1f>\x9b\x1f`WA'
p23
tp24
Rp25
ag10
(g14
S'\x81y\xa2n\xa0mWA'
p26
tp27
Rp28
ag10
(g14
S'\x9bRqJdwWA'
p29
tp30
Rp31
ag10
(g14
S'/\xdd$\x86\xcarWA'
p32
tp33
Rp34
ag10
(g14
S']\x8f\xc2\xf92>WA'
p35
tp36
Rp37
ag10
(g14
S'\xcb\xf7Sg\xf4[WA'
p38
tp39
Rp40
ag10
(g14
S'\xce\xb0+t\xe6kWA'
p41
tp42
Rp43
ag10
(g14
S'\xb3e\xad6,!WA'
p44
tp45
Rp46
ag10
(g14
S'f\x9e\xa8\xd3\x17\x97WA'
p47
tp48
Rp49
ag10
(g14
S'y\xcbZ] tWA'
p50
tp51
Rp52
ag10
(g14
S'\xfc\xa9\xf1\xf6ouWA'
p53
tp54
Rp55
ag10
(g14
S'"\x13<\x94\x8bmWA'
p56
tp57
Rp58
ag10
(g14
S'\xd2v\xbe\x7f\xe4_WA'
p59
tp60
Rp61
ag10
(g14
S'o\xe7\xfbqx]WA'
p62
tp63
Rp64
ag10
(g14
S'\\\xbct\xfb\x9d\x9dWA'
p65
tp66
Rp67
ag10
(g14
S'.\x15g[GaWA'
p68
tp69
Rp70
ag10
(g14
S'E\x9aR\xed\x96nWA'
p71
tp72
Rp73
ag10
(g14
S'+\xdd$\xc6\x1ccWA'
p74
tp75
Rp76
asS'target'
p77
(lp78
g10
(g14
S'Z\x8f\xc2\xb5YcAA'
p79
tp80
Rp81
ag10
(g14
S'aff\xa6\xdc\x80EA'
p82
tp83
Rp84
ag10
(g14
S'\x18\xaeG\x01S|BA'
p85
tp86
Rp87
ag10
(g14
S'\t\x00\x00\x80\x8e:AA'
p88
tp89
Rp90
ag10
(g14
S'\xe1z\x14\xee\xf8\x89BA'
p91
tp92
Rp93
ag10
(g14
S'[\x8f\xc25\xc7<BA'
p94
tp95
Rp96
ag10
(g14
S'(33\xf3\x99\x04?A'
p97
tp98
Rp99
ag10
(g14
S'\x07\xd7\xa3p\x06\x0fAA'
p100
tp101
Rp102
ag10
(g14
S'\xe8z\x14\xae\x90\x9eCA'
p103
tp104
Rp105
ag10
(g14
S')\\\x8f\xa2)tAA'
p106
tp107
Rp108
ag10
(g14
S'_\x8f\xc2\xf5\x08aAA'
p109
tp110
Rp111
ag10
(g14
S'fff\xe6\x1d\x99@A'
p112
tp113
Rp114
ag10
(g14
S'\x1b\x85\xebQ\xa7C@A'
p115
tp116
Rp117
ag10
(g14
S'\t\xd7\xa3p\x0c\x8bAA'
p118
tp119
Rp120
ag10
(g14
S'\x8b\xc2\xf5\xc8\xcc6@A'
p121
tp122
Rp123
ag10
(g14
S'G\xe1z4\x9c\xd1FA'
p124
tp125
Rp126
ag10
(g14
S'\xd0\xa3p]\xf4\x82DA'
p127
tp128
Rp129
ag10
(g14
S'\xd9\xa3p\xddL1BA'
p130
tp131
Rp132
ag10
(g14
S':\n\xd7s\xb7\xfbAA'
p133
tp134
Rp135
ag10
(g14
S'\x12\xaeGA\x91\\DA'
p136
tp137
Rp138
asssss.