(dp0
S'../Data/sqlite_8.csv'
p1
(dp2
S'../Data/sqlite_73.csv'
p3
(dp4
F0.4
(dp5
S'mmre'
p6
(dp7
S'bellwether'
p8
(lp9
cnumpy.core.multiarray
scalar
p10
(cnumpy
dtype
p11
(S'f8'
p12
I0
I1
tp13
Rp14
(I3
S'<'
p15
NNNI-1
I-1
I0
tp16
bS'\x90\x905h+LT@'
p17
tp18
Rp19
ag10
(g14
S"S'\xa5DZDT@"
p20
tp21
Rp22
ag10
(g14
S'X\xd2\xb5S\x1aJT@'
p23
tp24
Rp25
ag10
(g14
S'\xc8L\xae\xbe\xa1IT@'
p26
tp27
Rp28
ag10
(g14
S'\x98\x82,\x9b\x88KT@'
p29
tp30
Rp31
ag10
(g14
S'\xd8\xa3j\xca\xb4JT@'
p32
tp33
Rp34
ag10
(g14
S'\xe0\x18\x13m^HT@'
p35
tp36
Rp37
ag10
(g14
S"\x87'\x90lmNT@"
p38
tp39
Rp40
ag10
(g14
S'\xeb\xd2\xf4\xc8\xe8BT@'
p41
tp42
Rp43
ag10
(g14
S'\xad&A\xb8\xd2JT@'
p44
tp45
Rp46
ag10
(g14
S'\xc9\xbb\x10\xe4+KT@'
p47
tp48
Rp49
ag10
(g14
S'\x85\xe4OsxMT@'
p50
tp51
Rp52
ag10
(g14
S'Di~N\xe5@T@'
p53
tp54
Rp55
ag10
(g14
S'\xce9~\x80yMT@'
p56
tp57
Rp58
ag10
(g14
S'nLq!\xc6LT@'
p59
tp60
Rp61
ag10
(g14
S'\xf3[\x86\x8d\x12ET@'
p62
tp63
Rp64
ag10
(g14
S'\x15i\xe6%\xb8JT@'
p65
tp66
Rp67
ag10
(g14
S'oL|\xa9\xb0LT@'
p68
tp69
Rp70
ag10
(g14
S'\xb3v\x8f9\xeaFT@'
p71
tp72
Rp73
ag10
(g14
S'\xfe\x1a\xe1s;NT@'
p74
tp75
Rp76
asS'target'
p77
(lp78
g10
(g14
S'W\x8b\xc1\x07\xdaJ)@'
p79
tp80
Rp81
ag10
(g14
S'Zm\xa2\x99??-@'
p82
tp83
Rp84
ag10
(g14
S'\xd5\xfe\xacY?\xe5,@'
p85
tp86
Rp87
ag10
(g14
S'\x9c}\xa8\x9b\x8e\xec+@'
p88
tp89
Rp90
ag10
(g14
S'\x19%\x19\xa0\xfc\xe7+@'
p91
tp92
Rp93
ag10
(g14
S'%\xa5\xa6\xafrv,@'
p94
tp95
Rp96
ag10
(g14
S'<\xd6,\x84\x16\x90+@'
p97
tp98
Rp99
ag10
(g14
S'\x1a\x0c\xe4*\xf5*+@'
p100
tp101
Rp102
ag10
(g14
S'y\xcf;\xb1i\xd0+@'
p103
tp104
Rp105
ag10
(g14
S'\xd0X"\xdb\xcf\xeb,@'
p106
tp107
Rp108
ag10
(g14
S'\x8b\x1a|{p\\+@'
p109
tp110
Rp111
ag10
(g14
S'\x90\xe7\xd0\xec\x98o*@'
p112
tp113
Rp114
ag10
(g14
S'q\x13\x19\xb6\xbf\xe2,@'
p115
tp116
Rp117
ag10
(g14
S'\x880\xb7:n\xfd-@'
p118
tp119
Rp120
ag10
(g14
S';\x89\xe8\x174\x9a+@'
p121
tp122
Rp123
ag10
(g14
S'\xb1R\x8e\xd4d%+@'
p124
tp125
Rp126
ag10
(g14
S'\xcb-g\xba\xa00+@'
p127
tp128
Rp129
ag10
(g14
S'\xbeX\xc3\xf85".@'
p130
tp131
Rp132
ag10
(g14
S'b\x13\x0c-\xbf\xea)@'
p133
tp134
Rp135
ag10
(g14
S'xW\\\xc0\xb2\x1a+@'
p136
tp137
Rp138
asssss.