(dp0
S'../Data/sqlite_91.csv'
p1
(dp2
S'../Data/sqlite_85.csv'
p3
(dp4
F0.2
(dp5
S'mmre'
p6
(dp7
S'bellwether'
p8
(lp9
cnumpy.core.multiarray
scalar
p10
(cnumpy
dtype
p11
(S'f8'
p12
I0
I1
tp13
Rp14
(I3
S'<'
p15
NNNI-1
I-1
I0
tp16
bS'\xda_D\xf40mU@'
p17
tp18
Rp19
ag10
(g14
S'o+\x88\xe7-kU@'
p20
tp21
Rp22
ag10
(g14
S'n\x133\x92cTU@'
p23
tp24
Rp25
ag10
(g14
S'\xb3P\x9b\xf3\xa0_U@'
p26
tp27
Rp28
ag10
(g14
S'\x06\xd2\xf3+\x16rU@'
p29
tp30
Rp31
ag10
(g14
S'\xb0\xb7\x85\xde\x91[U@'
p32
tp33
Rp34
ag10
(g14
S'\xe1 \xaelN\x7fU@'
p35
tp36
Rp37
ag10
(g14
S'n\xde>w1TU@'
p38
tp39
Rp40
ag10
(g14
S'\xd5-%JW[U@'
p41
tp42
Rp43
ag10
(g14
S')\xa2SOoUU@'
p44
tp45
Rp46
ag10
(g14
S'\xb6\xf3\x9e\x1c\xc1dU@'
p47
tp48
Rp49
ag10
(g14
S'"p43r`U@'
p50
tp51
Rp52
ag10
(g14
S'\xea\x9b!p\xd9WU@'
p53
tp54
Rp55
ag10
(g14
S'\xdeL\x14\x01ibU@'
p56
tp57
Rp58
ag10
(g14
S'N*=p\xc4VU@'
p59
tp60
Rp61
ag10
(g14
S'\xdc|\x13\x11\xa4VU@'
p62
tp63
Rp64
ag10
(g14
S'n\xcd\rD\xaahU@'
p65
tp66
Rp67
ag10
(g14
S'P\xe5\xb1\xf0QUU@'
p68
tp69
Rp70
ag10
(g14
S'$\xf48\xcc\x9azU@'
p71
tp72
Rp73
ag10
(g14
S'sC\x0c\x1c\xef~U@'
p74
tp75
Rp76
asS'target'
p77
(lp78
g10
(g14
S',NoI\xa6\x9aR@'
p79
tp80
Rp81
ag10
(g14
S'\x07k\xfc\xf1\xa5\xe1S@'
p82
tp83
Rp84
ag10
(g14
S'\xc6Tj\xc3\xf2\x82R@'
p85
tp86
Rp87
ag10
(g14
S'<9\xfa\xf1\xd8\xc2R@'
p88
tp89
Rp90
ag10
(g14
S'\xa0\xc0\xd6\x05\xd3\xd0R@'
p91
tp92
Rp93
ag10
(g14
S'\xc9\xe2d\xe7\x07\xa1Q@'
p94
tp95
Rp96
ag10
(g14
S'\x15\xbc:\x945\x0bS@'
p97
tp98
Rp99
ag10
(g14
S'(\x0f\xa0\xd6"$V@'
p100
tp101
Rp102
ag10
(g14
S'5\xc7eO\xaa8S@'
p103
tp104
Rp105
ag10
(g14
S' \xbfHA\xcb$T@'
p106
tp107
Rp108
ag10
(g14
S'\xd42\xefc*\xd0R@'
p109
tp110
Rp111
ag10
(g14
S'\xf9\xfd#\x99,>V@'
p112
tp113
Rp114
ag10
(g14
S'\xfe-\xfesvMS@'
p115
tp116
Rp117
ag10
(g14
S'\x81\xb5V\xb27\xa6S@'
p118
tp119
Rp120
ag10
(g14
S'S}1\xd2\xd6dR@'
p121
tp122
Rp123
ag10
(g14
S'D\x15\xd2\xfbr\xc6R@'
p124
tp125
Rp126
ag10
(g14
S'%.\x0b\xb8$\x98T@'
p127
tp128
Rp129
ag10
(g14
S'\xda,*\xad\xeb\xeeS@'
p130
tp131
Rp132
ag10
(g14
S'\x08\x94\x91\xb8\xe4nT@'
p133
tp134
Rp135
ag10
(g14
S'\xef\x9ag\xe8\xc5\xe0Q@'
p136
tp137
Rp138
asssss.