(dp0
S'../Data/sqlite_46.csv'
p1
(dp2
S'../Data/sqlite_65.csv'
p3
(dp4
F0.15
(dp5
S'abs_res'
p6
(dp7
S'bellwether'
p8
(lp9
cnumpy.core.multiarray
scalar
p10
(cnumpy
dtype
p11
(S'f8'
p12
I0
I1
tp13
Rp14
(I3
S'<'
p15
NNNI-1
I-1
I0
tp16
bS'\xc3 \xb0\xc2\xa5x@A'
p17
tp18
Rp19
ag10
(g14
S'\xa1\xef\xa7\xe6Bx@A'
p20
tp21
Rp22
ag10
(g14
S'0\xb2\x9d?\xb5x@A'
p23
tp24
Rp25
ag10
(g14
S'G\x8bl\x07\xf4w@A'
p26
tp27
Rp28
ag10
(g14
S'n=\nG\xf8w@A'
p29
tp30
Rp31
ag10
(g14
S'E\xb6\xf3\r\x1dx@A'
p32
tp33
Rp34
ag10
(g14
S'\x17\x02+\x97\xa9x@A'
p35
tp36
Rp37
ag10
(g14
S'\xfc(\\\xafIx@A'
p38
tp39
Rp40
ag10
(g14
S'#\x06\x81\xa5+x@A'
p41
tp42
Rp43
ag10
(g14
S'qh\x91\x1dbx@A'
p44
tp45
Rp46
ag10
(g14
S'\xb6t\x93(qx@A'
p47
tp48
Rp49
ag10
(g14
S'\xcd\xcc\xcc\xecJx@A'
p50
tp51
Rp52
ag10
(g14
S'\x07\xac\x1c\xaaKx@A'
p53
tp54
Rp55
ag10
(g14
S"\x10\x02+'Tx@A"
p56
tp57
Rp58
ag10
(g14
S'\xd2Mb\xc0(x@A'
p59
tp60
Rp61
ag10
(g14
S'\xd9x\xe9\x064x@A'
p62
tp63
Rp64
ag10
(g14
S'\xcb\xf7S\xb3\x00x@A'
p65
tp66
Rp67
ag10
(g14
S'\x8el\xe7\xdb\rx@A'
p68
tp69
Rp70
ag10
(g14
S'T\x8d\x97^\x8dx@A'
p71
tp72
Rp73
ag10
(g14
S'\xd6\xa3p\xad\xc1w@A'
p74
tp75
Rp76
asS'target'
p77
(lp78
g10
(g14
S'\x8f\x16\xd9\xce\xf7k\\@'
p79
tp80
Rp81
ag10
(g14
S'\x1a/\xdd$\x06\xf9Y@'
p82
tp83
Rp84
ag10
(g14
S'l\xbct\x93\x18tX@'
p85
tp86
Rp87
ag10
(g14
S'\xac\xf1\xd2Mb\x8c`@'
p88
tp89
Rp90
ag10
(g14
S'\xafG\xe1z\x14jW@'
p91
tp92
Rp93
ag10
(g14
S'@\xe1z\x14\xae\xd3[@'
p94
tp95
Rp96
ag10
(g14
S'`\x10X9\xb4`X@'
p97
tp98
Rp99
ag10
(g14
S'Nb\x10X9TZ@'
p100
tp101
Rp102
ag10
(g14
S'\xff\x80\x95C\x8b|Y@'
p103
tp104
Rp105
ag10
(g14
S'Pb\x10X9DY@'
p106
tp107
Rp108
ag10
(g14
S'>\xdfO\x8d\x97vY@'
p109
tp110
Rp111
ag10
(g14
S'\xa0\xef\xa7\xc6K/X@'
p112
tp113
Rp114
ag10
(g14
S'\xec\xfb\xa9\xf1\xd2=_@'
p115
tp116
Rp117
ag10
(g14
S'\xbaI\x0c\x02+\xe7_@'
p118
tp119
Rp120
ag10
(g14
S'\xce\xcc\xcc\xcc\xcc8a@'
p121
tp122
Rp123
ag10
(g14
S':^\xbaI\x0c*[@'
p124
tp125
Rp126
ag10
(g14
S'\xc4K7\x89A\xe0X@'
p127
tp128
Rp129
ag10
(g14
S'\x18\x02+\x87\x16a[@'
p130
tp131
Rp132
ag10
(g14
S'\xa1A`\xe5\xd0\x12_@'
p133
tp134
Rp135
ag10
(g14
S'1\x89A`\xe5 d@'
p136
tp137
Rp138
asssss.