(dp0
S'../Data/sqlite_28.csv'
p1
(dp2
S'../Data/sqlite_76.csv'
p3
(dp4
F0.3
(dp5
S'mmre'
p6
(dp7
S'bellwether'
p8
(lp9
cnumpy.core.multiarray
scalar
p10
(cnumpy
dtype
p11
(S'f8'
p12
I0
I1
tp13
Rp14
(I3
S'<'
p15
NNNI-1
I-1
I0
tp16
bS'9\xb9\x82O\x1fkT@'
p17
tp18
Rp19
ag10
(g14
S'\x82\xdar\x02XnT@'
p20
tp21
Rp22
ag10
(g14
S'\x1a\xd4\xf6\xdc\x01mT@'
p23
tp24
Rp25
ag10
(g14
S'\xb0\xac\x9b\x9f*qT@'
p26
tp27
Rp28
ag10
(g14
S'P2\xafq\xf5rT@'
p29
tp30
Rp31
ag10
(g14
S"'\x02\xbc\xbc\x06qT@"
p32
tp33
Rp34
ag10
(g14
S'\x96,\xbb\t\x93lT@'
p35
tp36
Rp37
ag10
(g14
S')\xa9V\xb6\x13mT@'
p38
tp39
Rp40
ag10
(g14
S'\xb7<\x83*\x80mT@'
p41
tp42
Rp43
ag10
(g14
S'\xc2-{\xa9$nT@'
p44
tp45
Rp46
ag10
(g14
S'y\xb5=_\xaclT@'
p47
tp48
Rp49
ag10
(g14
S'"\xc0\xe3\x8d\xabpT@'
p50
tp51
Rp52
ag10
(g14
S'r\xd6\xbd\x8c[mT@'
p53
tp54
Rp55
ag10
(g14
S'UL\xd6|!nT@'
p56
tp57
Rp58
ag10
(g14
S'\xbaXr\x05\x8fjT@'
p59
tp60
Rp61
ag10
(g14
S'pC%^\xf3rT@'
p62
tp63
Rp64
ag10
(g14
S'$\x8c\x1bX\xbcnT@'
p65
tp66
Rp67
ag10
(g14
S'oU6<\x02rT@'
p68
tp69
Rp70
ag10
(g14
S'9Og\xfa\x05oT@'
p71
tp72
Rp73
ag10
(g14
S'l\x1ek\xa3\xa6fT@'
p74
tp75
Rp76
asS'target'
p77
(lp78
g10
(g14
S'A+\x82\xc4\xb5\xc40@'
p79
tp80
Rp81
ag10
(g14
S'\xe0\x8d\x9ecR\xd70@'
p82
tp83
Rp84
ag10
(g14
S'\x15U\x08&\x1e\xe10@'
p85
tp86
Rp87
ag10
(g14
S'\x8f\xb5C\xdc\xd8\x111@'
p88
tp89
Rp90
ag10
(g14
S'\xde}#\x0eQB1@'
p91
tp92
Rp93
ag10
(g14
S'\x04\xad\xd0\xab?Q0@'
p94
tp95
Rp96
ag10
(g14
S'\x92\xc3\x9c7Y#1@'
p97
tp98
Rp99
ag10
(g14
S"\xfa3\x0ev'\xac0@"
p100
tp101
Rp102
ag10
(g14
S'\xe7\x1e\x84\x162\x1e2@'
p103
tp104
Rp105
ag10
(g14
S'\xd2\xb4O\x9eO~0@'
p106
tp107
Rp108
ag10
(g14
S'\xb7\x9b7Z=\xa70@'
p109
tp110
Rp111
ag10
(g14
S'\xdce\xcc\xdd\xeaz0@'
p112
tp113
Rp114
ag10
(g14
S'\x02`\x9c\x85\xd8\x9b2@'
p115
tp116
Rp117
ag10
(g14
S':"\xb5\xf8\x83e1@'
p118
tp119
Rp120
ag10
(g14
S'\xe2\xeeE\xbb\xac\xa20@'
p121
tp122
Rp123
ag10
(g14
S'{\x85\x8cPc\xd90@'
p124
tp125
Rp126
ag10
(g14
S'[C\x80\xf8\xa6\xf80@'
p127
tp128
Rp129
ag10
(g14
S'\xd5\t\x07F\x18\xfa1@'
p130
tp131
Rp132
ag10
(g14
S'\xd3\xadx4\xa5^1@'
p133
tp134
Rp135
ag10
(g14
S'\x1f\xf7\x06\xc8\xb7Q2@'
p136
tp137
Rp138
asssss.