(dp0
S'../Data/sqlite_67.csv'
p1
(dp2
S'../Data/sqlite_75.csv'
p3
(dp4
F0.1
(dp5
S'abs_res'
p6
(dp7
S'bellwether'
p8
(lp9
cnumpy.core.multiarray
scalar
p10
(cnumpy
dtype
p11
(S'f8'
p12
I0
I1
tp13
Rp14
(I3
S'<'
p15
NNNI-1
I-1
I0
tp16
bS'\x06\xd5x)3+#A'
p17
tp18
Rp19
ag10
(g14
S'%\xb0r(j+#A'
p20
tp21
Rp22
ag10
(g14
S'\x0fX94\xe2*#A'
p23
tp24
Rp25
ag10
(g14
S'833\xb3\xba*#A'
p26
tp27
Rp28
ag10
(g14
S'\xf4\xfd\xd4x\xdf*#A'
p29
tp30
Rp31
ag10
(g14
S'/\x89A`/+#A'
p32
tp33
Rp34
ag10
(g14
S'\xdfz\x14\xee\xac*#A'
p35
tp36
Rp37
ag10
(g14
S'\xbc\x1e\x85k\x00+#A'
p38
tp39
Rp40
ag10
(g14
S'{!i\xca\xd2*#A'
p41
tp42
Rp43
ag10
(g14
S'\xed&1\xc8a*#A'
p44
tp45
Rp46
ag10
(g14
S'1\xa5\xe2\xecg*#A'
p47
tp48
Rp49
ag10
(g14
S'[d;_\xc9*#A'
p50
tp51
Rp52
ag10
(g14
S'H\x0c\x02\xeb\x04+#A'
p53
tp54
Rp55
ag10
(g14
S'\xf3\xff\xff?U+#A'
p56
tp57
Rp58
ag10
(g14
S'L\xe1z\x14\xab*#A'
p59
tp60
Rp61
ag10
(g14
S'a\x10X97+#A'
p62
tp63
Rp64
ag10
(g14
S'5\x17\x92\xa6\xfd*#A'
p65
tp66
Rp67
ag10
(g14
S'\x93\x18\x04\xd6\x82*#A'
p68
tp69
Rp70
ag10
(g14
S'\xbf \xb02S*#A'
p71
tp72
Rp73
ag10
(g14
S'\xb2I\x0c\x82\x97*#A'
p74
tp75
Rp76
asS'target'
p77
(lp78
g10
(g14
S'L\x8d\x97n\x12S[@'
p79
tp80
Rp81
ag10
(g14
S'D3333+^@'
p82
tp83
Rp84
ag10
(g14
S'f\x10X9\xb4|`@'
p85
tp86
Rp87
ag10
(g14
S'\xb1\x9f\x1a/\xdd4^@'
p88
tp89
Rp90
ag10
(g14
S'*\x06\x81\x95Co`@'
p91
tp92
Rp93
ag10
(g14
S'\xe2z\x14\xaeG\xb9_@'
p94
tp95
Rp96
ag10
(g14
S'h\xbaI\x0c\x02\x1f^@'
p97
tp98
Rp99
ag10
(g14
S'\xda&1\x08\xac<]@'
p100
tp101
Rp102
ag10
(g14
S'\x8b\xc2\xf5(\\\xff^@'
p103
tp104
Rp105
ag10
(g14
S'\xf4&1\x08\xac\x8c[@'
p106
tp107
Rp108
ag10
(g14
S'\xb8G\xe1z\x14\x0e^@'
p109
tp110
Rp111
ag10
(g14
S'/^\xbaI\x0c\x12\\@'
p112
tp113
Rp114
ag10
(g14
S'\xb1\xc6K7\x89\xd9\\@'
p115
tp116
Rp117
ag10
(g14
S'R\x0e-\xb2\x9d\xff^@'
p118
tp119
Rp120
ag10
(g14
S'f\x8f\xc2\xf5(l_@'
p121
tp122
Rp123
ag10
(g14
S'\xaf\xf1\xd2MbX_@'
p124
tp125
Rp126
ag10
(g14
S'\xa2\xc4 \xb0rH^@'
p127
tp128
Rp129
ag10
(g14
S'C7\x89A`-]@'
p130
tp131
Rp132
ag10
(g14
S'\x1a\xb0rh\x91\xd5^@'
p133
tp134
Rp135
ag10
(g14
S'ph\x91\xed|\xff]@'
p136
tp137
Rp138
asssss.