(dp0
S'../Data/sqlite_5.csv'
p1
(dp2
S'../Data/sqlite_94.csv'
p3
(dp4
F0.2
(dp5
S'mmre'
p6
(dp7
S'bellwether'
p8
(lp9
cnumpy.core.multiarray
scalar
p10
(cnumpy
dtype
p11
(S'f8'
p12
I0
I1
tp13
Rp14
(I3
S'<'
p15
NNNI-1
I-1
I0
tp16
bS'\xd0rN\xe8\x1fZX@'
p17
tp18
Rp19
ag10
(g14
S'X\xac\xd7\xcb\xdbZX@'
p20
tp21
Rp22
ag10
(g14
S'x\x92X\xac\xf2WX@'
p23
tp24
Rp25
ag10
(g14
S'\x0c\r\x8c\x9bxYX@'
p26
tp27
Rp28
ag10
(g14
S';\xf2\xce\xfbzXX@'
p29
tp30
Rp31
ag10
(g14
S'\x19S1|\xfaXX@'
p32
tp33
Rp34
ag10
(g14
S'\xcaz\xca\x9d\xf2YX@'
p35
tp36
Rp37
ag10
(g14
S'\x16k\xc1`~YX@'
p38
tp39
Rp40
ag10
(g14
S'\xd8\xfc\x07\x98\xd5YX@'
p41
tp42
Rp43
ag10
(g14
S'\x98\xbc\x82\x19\x19XX@'
p44
tp45
Rp46
ag10
(g14
S'\xa6\xeb~&4ZX@'
p47
tp48
Rp49
ag10
(g14
S'\x18\xe9\x8b\x86CWX@'
p50
tp51
Rp52
ag10
(g14
S'\xb2\x10\x16/"YX@'
p53
tp54
Rp55
ag10
(g14
S'J\xe7)\x1d=ZX@'
p56
tp57
Rp58
ag10
(g14
S'\x02\xbedbsYX@'
p59
tp60
Rp61
ag10
(g14
S'\xec\x98\xe1\x03oZX@'
p62
tp63
Rp64
ag10
(g14
S's"\xa8.\xbdYX@'
p65
tp66
Rp67
ag10
(g14
S'd\xa5\x17\xc2\xcaYX@'
p68
tp69
Rp70
ag10
(g14
S'\xdbO\xf7\xb1\xa4YX@'
p71
tp72
Rp73
ag10
(g14
S'.\x065h\xd5WX@'
p74
tp75
Rp76
asS'target'
p77
(lp78
g10
(g14
S't\xd2\xfb+\xfb\xfaD@'
p79
tp80
Rp81
ag10
(g14
S'\xbb\xf5\xf4b\xc8+P@'
p82
tp83
Rp84
ag10
(g14
S'\xf2p\xe7\xd8+\x8dT@'
p85
tp86
Rp87
ag10
(g14
S't\x92i\x9c\xc2\x98O@'
p88
tp89
Rp90
ag10
(g14
S'4\xb3\xb2\xb1\x19\xdbQ@'
p91
tp92
Rp93
ag10
(g14
S'J\xb8_2\x80\xe8R@'
p94
tp95
Rp96
ag10
(g14
S'\x02\xf7\xe6(\x9d\xc9O@'
p97
tp98
Rp99
ag10
(g14
S'@\x01\xd9|\xc1x^@'
p100
tp101
Rp102
ag10
(g14
S'OT\xde\xad}\x06J@'
p103
tp104
Rp105
ag10
(g14
S'N\x04\xb9\x0bTrU@'
p106
tp107
Rp108
ag10
(g14
S'\xcc\xf6\xdd[-0Q@'
p109
tp110
Rp111
ag10
(g14
S'i\xa8\x07\xfeX\xd6V@'
p112
tp113
Rp114
ag10
(g14
S'\\\xad\x1c\xbcA\xb5Q@'
p115
tp116
Rp117
ag10
(g14
S'\xbfAR\x99\x0f\xd3H@'
p118
tp119
Rp120
ag10
(g14
S'\x8fm q\x12dR@'
p121
tp122
Rp123
ag10
(g14
S'\x07&\xa8\xbe_\xf8H@'
p124
tp125
Rp126
ag10
(g14
S'&\xd3?\xc3\x1aOQ@'
p127
tp128
Rp129
ag10
(g14
S'\x96\x02\xc1\x12kcP@'
p130
tp131
Rp132
ag10
(g14
S'#a\x9eJy\xf8I@'
p133
tp134
Rp135
ag10
(g14
S'cVE\x99\xc0cZ@'
p136
tp137
Rp138
asssss.