(dp0
S'../Data/sqlite_0.csv'
p1
(dp2
S'../Data/sqlite_94.csv'
p3
(dp4
F0.25
(dp5
S'mmre'
p6
(dp7
S'bellwether'
p8
(lp9
cnumpy.core.multiarray
scalar
p10
(cnumpy
dtype
p11
(S'f8'
p12
I0
I1
tp13
Rp14
(I3
S'<'
p15
NNNI-1
I-1
I0
tp16
bS'\x8a\xce\t\xb0\xcalX@'
p17
tp18
Rp19
ag10
(g14
S'(\xca\xe4\x0f,mX@'
p20
tp21
Rp22
ag10
(g14
S'=\xae\r15mX@'
p23
tp24
Rp25
ag10
(g14
S'\xb0w\x18\x90$mX@'
p26
tp27
Rp28
ag10
(g14
S'\x13\xfa\x06wNnX@'
p29
tp30
Rp31
ag10
(g14
S'Wx\x0f.7nX@'
p32
tp33
Rp34
ag10
(g14
S'\x13\xaf-<\xf5pX@'
p35
tp36
Rp37
ag10
(g14
S'Up#\x86|mX@'
p38
tp39
Rp40
ag10
(g14
S'\xf7V1\x10\xfakX@'
p41
tp42
Rp43
ag10
(g14
S'\xc82w3\xfcmX@'
p44
tp45
Rp46
ag10
(g14
S'\x9b\x0b%\xe6wlX@'
p47
tp48
Rp49
ag10
(g14
S'Dv\x0c\xc8\x97mX@'
p50
tp51
Rp52
ag10
(g14
S'~?\x169\x19nX@'
p53
tp54
Rp55
ag10
(g14
S'\xe8u@\xc2\xc9nX@'
p56
tp57
Rp58
ag10
(g14
S'?\xe3\xa0]8lX@'
p59
tp60
Rp61
ag10
(g14
S'\xfewL\xa9ZmX@'
p62
tp63
Rp64
ag10
(g14
S'g\x04(\xd6umX@'
p65
tp66
Rp67
ag10
(g14
S'\xe9\xd8bsOmX@'
p68
tp69
Rp70
ag10
(g14
S'I\xd0\xbb\xd9@nX@'
p71
tp72
Rp73
ag10
(g14
S'\xf8Ak\x98\xfemX@'
p74
tp75
Rp76
asS'target'
p77
(lp78
g10
(g14
S'/(\xcd\x10P\xe1S@'
p79
tp80
Rp81
ag10
(g14
S'My\xae\xaa\xa8\x87F@'
p82
tp83
Rp84
ag10
(g14
S'\x1fe\x0f\x01\x82GV@'
p85
tp86
Rp87
ag10
(g14
S'\x0f\xe6\x90oR\nM@'
p88
tp89
Rp90
ag10
(g14
S'\xc3\x8d~\x12#&R@'
p91
tp92
Rp93
ag10
(g14
S'\xca\x13rsY\xc0D@'
p94
tp95
Rp96
ag10
(g14
S't\x9c\x84=YQO@'
p97
tp98
Rp99
ag10
(g14
S'\x08Y\xac\xc3\xf2BL@'
p100
tp101
Rp102
ag10
(g14
S'\xef\xa0\x8d\x1f\xfe\x8fR@'
p103
tp104
Rp105
ag10
(g14
S'\x8c]\xfb\xc6\xcfiN@'
p106
tp107
Rp108
ag10
(g14
S'\xd6\x00\xa8\xe3\x1d]P@'
p109
tp110
Rp111
ag10
(g14
S'\xe1\xbf1\x7f\xdb\xe4I@'
p112
tp113
Rp114
ag10
(g14
S'\x97\xde\xad\x03\x06\x00F@'
p115
tp116
Rp117
ag10
(g14
S'\x92\x13+\x9a`tK@'
p118
tp119
Rp120
ag10
(g14
S'ic\xd5\x88\xf9sR@'
p121
tp122
Rp123
ag10
(g14
S'\xa2\x10\x94Q|\x88W@'
p124
tp125
Rp126
ag10
(g14
S'u\xef\xff\xfcOhR@'
p127
tp128
Rp129
ag10
(g14
S'\xd3\xa1\xea\xe6orT@'
p130
tp131
Rp132
ag10
(g14
S'\x9f\xb6\t\xb9\x1fqP@'
p133
tp134
Rp135
ag10
(g14
S'|\xa3\xa7\xc2\x1f\xceF@'
p136
tp137
Rp138
asssss.