(dp0
S'../Data/sqlite_71.csv'
p1
(dp2
S'../Data/sqlite_35.csv'
p3
(dp4
F0.05
(dp5
S'abs_res'
p6
(dp7
S'bellwether'
p8
(lp9
cnumpy.core.multiarray
scalar
p10
(cnumpy
dtype
p11
(S'f8'
p12
I0
I1
tp13
Rp14
(I3
S'<'
p15
NNNI-1
I-1
I0
tp16
bS'\x1cZd\xb76?pA'
p17
tp18
Rp19
ag10
(g14
S'z?5\n\x1a>pA'
p20
tp21
Rp22
ag10
(g14
S'-\xb2\x9duWApA'
p23
tp24
Rp25
ag10
(g14
S'\x07\xac\x1c\x94l=pA'
p26
tp27
Rp28
ag10
(g14
S'\x86A`\x0b\xed=pA'
p29
tp30
Rp31
ag10
(g14
S'\x06\xac\x1c\xda\xc6:pA'
p32
tp33
Rp34
ag10
(g14
S"'\x06\x81g\xde=pA"
p35
tp36
Rp37
ag10
(g14
S'D\xb6\xf3\x97\x03ApA'
p38
tp39
Rp40
ag10
(g14
S'\xafG\xe1|\x01ApA'
p41
tp42
Rp43
ag10
(g14
S'\xe7Q\xb8P\x97=pA'
p44
tp45
Rp46
ag10
(g14
S'\x02V\x0e\xfd\xda?pA'
p47
tp48
Rp49
ag10
(g14
S'R9\xb4\xc4\xc7=pA'
p50
tp51
Rp52
ag10
(g14
S'yj\xbc\x08\xfcApA'
p53
tp54
Rp55
ag10
(g14
S'\xc7K7=\x0e@pA'
p56
tp57
Rp58
ag10
(g14
S'\xf3(\\\x1d\xc2@pA'
p59
tp60
Rp61
ag10
(g14
S'\xcb\xa1Eb\xa5=pA'
p62
tp63
Rp64
ag10
(g14
S'b;\xdf50ApA'
p65
tp66
Rp67
ag10
(g14
S'5\x89AH\xbbApA'
p68
tp69
Rp70
ag10
(g14
S'\x11\x83\xc0^2=pA'
p71
tp72
Rp73
ag10
(g14
S'\xe8Q\xb8\xb0UApA'
p74
tp75
Rp76
asS'target'
p77
(lp78
g10
(g14
S'@`\xe5\xd0"\xb7d@'
p79
tp80
Rp81
ag10
(g14
S'u?5^\xba\x89e@'
p82
tp83
Rp84
ag10
(g14
S'\xef\xd2Mb\x10\xd0a@'
p85
tp86
Rp87
ag10
(g14
S'\xe6$\x06\x81\x95\xf7c@'
p88
tp89
Rp90
ag10
(g14
S'<\x8bl\xe7\xfb\x15e@'
p91
tp92
Rp93
ag10
(g14
S'r\xe9&1\x08te@'
p94
tp95
Rp96
ag10
(g14
S'\x8f\x16\xd9\xce\xf7\x17d@'
p97
tp98
Rp99
ag10
(g14
S'*/\xdd$\x06\xc9d@'
p100
tp101
Rp102
ag10
(g14
S'\x95\x9b\xc4 \xb0jd@'
p103
tp104
Rp105
ag10
(g14
S'\x0f\xaeG\xe1z8c@'
p106
tp107
Rp108
ag10
(g14
S'\xf1(\\\x8f\xc2\x11a@'
p109
tp110
Rp111
ag10
(g14
S'B\n\xd7\xa3p\xb5e@'
p112
tp113
Rp114
ag10
(g14
S'F5^\xbaI\xf4d@'
p115
tp116
Rp117
ag10
(g14
S'\x8e\x95C\x8bl\xb7f@'
p118
tp119
Rp120
ag10
(g14
S'n\xe7\xfb\xa9\xf1\xfec@'
p121
tp122
Rp123
ag10
(g14
S'Q\x0c\x02+\x87Vb@'
p124
tp125
Rp126
ag10
(g14
S'B\xdfO\x8d\x97:c@'
p127
tp128
Rp129
ag10
(g14
S'(\x08\xac\x1cZ\xd0a@'
p130
tp131
Rp132
ag10
(g14
S'!\x04V\x0e-^a@'
p133
tp134
Rp135
ag10
(g14
S'4\x89A`\xe5td@'
p136
tp137
Rp138
asssss.