(dp0
S'../Data/sqlite_63.csv'
p1
(dp2
S'../Data/sqlite_94.csv'
p3
(dp4
F0.05
(dp5
S'mmre'
p6
(dp7
S'bellwether'
p8
(lp9
cnumpy.core.multiarray
scalar
p10
(cnumpy
dtype
p11
(S'f8'
p12
I0
I1
tp13
Rp14
(I3
S'<'
p15
NNNI-1
I-1
I0
tp16
bS'\xe9Ic\x0bV.W@'
p17
tp18
Rp19
ag10
(g14
S'A\xa1\xd2d\x8e/W@'
p20
tp21
Rp22
ag10
(g14
S'\xce\x1b\xf2\x80>-W@'
p23
tp24
Rp25
ag10
(g14
S'^g\xd5\xcf\xd2.W@'
p26
tp27
Rp28
ag10
(g14
S'1\x81nq\xc1-W@'
p29
tp30
Rp31
ag10
(g14
S'\xda\x88"<\x87-W@'
p32
tp33
Rp34
ag10
(g14
S'\xb3(\xf3\x8e\xe1.W@'
p35
tp36
Rp37
ag10
(g14
S'3\xb3\n{\x1f-W@'
p38
tp39
Rp40
ag10
(g14
S'R\xb1\x82\x03+/W@'
p41
tp42
Rp43
ag10
(g14
S'\xe5`\xf3\xb6\x160W@'
p44
tp45
Rp46
ag10
(g14
S'\xef\xd90\xe2E1W@'
p47
tp48
Rp49
ag10
(g14
S'\xbd+ \xc3\x860W@'
p50
tp51
Rp52
ag10
(g14
S'9<\xec\x93\n/W@'
p53
tp54
Rp55
ag10
(g14
S'\x9b6\x1f\x92_/W@'
p56
tp57
Rp58
ag10
(g14
S'\x85H\xd2\xe7\x1a.W@'
p59
tp60
Rp61
ag10
(g14
S'\xa0\xf4\xe6x\xfc.W@'
p62
tp63
Rp64
ag10
(g14
S'e\x99\x17\x1c\xb4.W@'
p65
tp66
Rp67
ag10
(g14
S'>9\r@\x930W@'
p68
tp69
Rp70
ag10
(g14
S'\xb8Ps\x87G/W@'
p71
tp72
Rp73
ag10
(g14
S'P,\x1e\xb5\xb9-W@'
p74
tp75
Rp76
asS'target'
p77
(lp78
g10
(g14
S'\x07o\xe2\xe55\x9dU@'
p79
tp80
Rp81
ag10
(g14
S'\xb3\xe4\xab*\x9e\x1cA@'
p82
tp83
Rp84
ag10
(g14
S'\x08\x1d\x9e\x17c_R@'
p85
tp86
Rp87
ag10
(g14
S'\xfe\xa5+\xf7\xa2rP@'
p88
tp89
Rp90
ag10
(g14
S'\x08\x89p\x08rHF@'
p91
tp92
Rp93
ag10
(g14
S' V\x9e\x80\xa5_Q@'
p94
tp95
Rp96
ag10
(g14
S'\xfe\xd6\xe9\x85Z}E@'
p97
tp98
Rp99
ag10
(g14
S'\x9f+U+\x87UK@'
p100
tp101
Rp102
ag10
(g14
S')\xc3x\xfe\xf3xW@'
p103
tp104
Rp105
ag10
(g14
S'\x82\xbbl\xed{\x9dS@'
p106
tp107
Rp108
ag10
(g14
S'\xb1w\x92\x11\xa5\x14T@'
p109
tp110
Rp111
ag10
(g14
S'\xe7\xb0$\xdb\x88\xab?@'
p112
tp113
Rp114
ag10
(g14
S'\xb1ek?ehS@'
p115
tp116
Rp117
ag10
(g14
S'\xbd\xc0\x91_\xab\xcaP@'
p118
tp119
Rp120
ag10
(g14
S')\xe5h4\xaebU@'
p121
tp122
Rp123
ag10
(g14
S'K\xa4\xdbN&(Q@'
p124
tp125
Rp126
ag10
(g14
S'4\x7f\x96\n&kC@'
p127
tp128
Rp129
ag10
(g14
S'\x0b\xb2\xeeu\x00\xe4@@'
p130
tp131
Rp132
ag10
(g14
S'2Hy!\x17PB@'
p133
tp134
Rp135
ag10
(g14
S'\xa7qON\x87\x87]@'
p136
tp137
Rp138
asssss.