(dp0
S'../Data/sqlite_18.csv'
p1
(dp2
S'../Data/sqlite_72.csv'
p3
(dp4
F0.1
(dp5
S'abs_res'
p6
(dp7
S'bellwether'
p8
(lp9
cnumpy.core.multiarray
scalar
p10
(cnumpy
dtype
p11
(S'f8'
p12
I0
I1
tp13
Rp14
(I3
S'<'
p15
NNNI-1
I-1
I0
tp16
bS'g\x10X\xd9{zAA'
p17
tp18
Rp19
ag10
(g14
S'p=\n\x97\xc0zAA'
p20
tp21
Rp22
ag10
(g14
S'9B\x19\x1d\xc5zAA'
p23
tp24
Rp25
ag10
(g14
S'c;\xdf\x9f\xd3zAA'
p26
tp27
Rp28
ag10
(g14
S'\xe8&1\xd8\x14zAA'
p29
tp30
Rp31
ag10
(g14
S'\xb9\xf3\xfd\xd4\tzAA'
p32
tp33
Rp34
ag10
(g14
S'fff\x06DzAA'
p35
tp36
Rp37
ag10
(g14
S'\xc7\xf5(|\xebyAA'
p38
tp39
Rp40
ag10
(g14
S'3\\\x8f"\xeazAA'
p41
tp42
Rp43
ag10
(g14
S'\x1e\xaeG\xc1\x89zAA'
p44
tp45
Rp46
ag10
(g14
S'T\xe3\xa5[\xc2zAA'
p47
tp48
Rp49
ag10
(g14
S'\x91\x18\x046OzAA'
p50
tp51
Rp52
ag10
(g14
S'\x04+\x87\xb6\xadzAA'
p53
tp54
Rp55
ag10
(g14
S'\xc5 \xb0\x82\x85zAA'
p56
tp57
Rp58
ag10
(g14
S'\x0e\x81\x95#+zAA'
p59
tp60
Rp61
ag10
(g14
S'\xec\xa7\xc6;\xeczAA'
p62
tp63
Rp64
ag10
(g14
S'\x83A`5\xbezAA'
p65
tp66
Rp67
ag10
(g14
S'1\xdd$\x06HzAA'
p68
tp69
Rp70
ag10
(g14
S'\xe8\n\x90\xfb\x0e{AA'
p71
tp72
Rp73
ag10
(g14
S'\x90\x97n\xf2\xd4zAA'
p74
tp75
Rp76
asS'target'
p77
(lp78
g10
(g14
S'8\x08\xac\x1cZ\xacT@'
p79
tp80
Rp81
ag10
(g14
S'\x97\x18\x04V\x0e\xadV@'
p82
tp83
Rp84
ag10
(g14
S'U\x0e-\xb2\x9d\x8fU@'
p85
tp86
Rp87
ag10
(g14
S'\x00\xaa\xf1\xd2MzT@'
p88
tp89
Rp90
ag10
(g14
S'B`\xe5\xd0"+V@'
p91
tp92
Rp93
ag10
(g14
S'\xaa\xf1\xd2Mb\x80V@'
p94
tp95
Rp96
ag10
(g14
S'U\xb8\x1e\x85\xeb\xd1T@'
p97
tp98
Rp99
ag10
(g14
S'.\x87\x16\xd9\xce\xb7V@'
p100
tp101
Rp102
ag10
(g14
S'\xe4$\x06\x81\x95\x9bU@'
p103
tp104
Rp105
ag10
(g14
S'\xc8I\x0c\x02+\x9fT@'
p106
tp107
Rp108
ag10
(g14
S'0^\xbaI\x0c\xe2T@'
p109
tp110
Rp111
ag10
(g14
S'\x06\xac\x1cZd\x83V@'
p112
tp113
Rp114
ag10
(g14
S'.\x06\x81\x95C\xabT@'
p115
tp116
Rp117
ag10
(g14
S'tffff\x96U@'
p118
tp119
Rp120
ag10
(g14
S'\xdd\xce\xf7S\xe3\xfdV@'
p121
tp122
Rp123
ag10
(g14
S'bd;\xdfOEV@'
p124
tp125
Rp126
ag10
(g14
S'\xb6rh\x91\xed\x8cW@'
p127
tp128
Rp129
ag10
(g14
S'\x10\xac\x1cZd\xb3S@'
p130
tp131
Rp132
ag10
(g14
S'vh\x91\xed|GV@'
p133
tp134
Rp135
ag10
(g14
S'D5^\xbaI\x8cV@'
p136
tp137
Rp138
asssss.