(dp0
S'../Data/sqlite_84.csv'
p1
(dp2
S'../Data/sqlite_97.csv'
p3
(dp4
F0.35
(dp5
S'mmre'
p6
(dp7
S'bellwether'
p8
(lp9
cnumpy.core.multiarray
scalar
p10
(cnumpy
dtype
p11
(S'f8'
p12
I0
I1
tp13
Rp14
(I3
S'<'
p15
NNNI-1
I-1
I0
tp16
bS'\xe3\xb7I\x1a%|T@'
p17
tp18
Rp19
ag10
(g14
S'\n+\xc9\x80\x93}T@'
p20
tp21
Rp22
ag10
(g14
S'\xba\xf7hec\x7fT@'
p23
tp24
Rp25
ag10
(g14
S'\xafB\xb1\x01\x1dxT@'
p26
tp27
Rp28
ag10
(g14
S'\xcc\r(F\x05vT@'
p29
tp30
Rp31
ag10
(g14
S'\xf4e\x12\xda5zT@'
p32
tp33
Rp34
ag10
(g14
S'\\\xb5\xab\x9dL|T@'
p35
tp36
Rp37
ag10
(g14
S'\xe5\xc4\x9aO\xceuT@'
p38
tp39
Rp40
ag10
(g14
S'v\xd9u\x1f\xd2\x84T@'
p41
tp42
Rp43
ag10
(g14
S'f{\\\xd2\x9dhT@'
p44
tp45
Rp46
ag10
(g14
S'\xab\xd6\x01M\x10~T@'
p47
tp48
Rp49
ag10
(g14
S';\xbf%5\xfbvT@'
p50
tp51
Rp52
ag10
(g14
S'\x84LtE\xa1wT@'
p53
tp54
Rp55
ag10
(g14
S'\xdf\x19\xdb\x8es{T@'
p56
tp57
Rp58
ag10
(g14
S'\xf6\x82\x04\x85BwT@'
p59
tp60
Rp61
ag10
(g14
S'*h\xe5\x87*sT@'
p62
tp63
Rp64
ag10
(g14
S'\xae\x7f\xe8P\xcboT@'
p65
tp66
Rp67
ag10
(g14
S'!\x9a\xa7\x8d\xe5\x82T@'
p68
tp69
Rp70
ag10
(g14
S'\x84s\x88\x90\xf5zT@'
p71
tp72
Rp73
ag10
(g14
S'vA\xf8FKxT@'
p74
tp75
Rp76
asS'target'
p77
(lp78
g10
(g14
S'\xae3\x1f/9\xc1V@'
p79
tp80
Rp81
ag10
(g14
S'\xc8\xb00\x89\x9buN@'
p82
tp83
Rp84
ag10
(g14
S'\x0e\x87>W%_Q@'
p85
tp86
Rp87
ag10
(g14
S'\x82\xcd\xe8\x93\xdadT@'
p88
tp89
Rp90
ag10
(g14
S',j\xf4\xffb\xaeS@'
p91
tp92
Rp93
ag10
(g14
S'C\xf9\xa1`3\xcfT@'
p94
tp95
Rp96
ag10
(g14
S'\xf1$>\xfa\xfd3Q@'
p97
tp98
Rp99
ag10
(g14
S':\x81c\xad\x83*R@'
p100
tp101
Rp102
ag10
(g14
S'\xce\xff\x86O\xc8\xcdM@'
p103
tp104
Rp105
ag10
(g14
S'|9\xf9&z Q@'
p106
tp107
Rp108
ag10
(g14
S'I\xaa\xd6\x81\xb5IW@'
p109
tp110
Rp111
ag10
(g14
S'S\x0e|\xa7\xff\x9bQ@'
p112
tp113
Rp114
ag10
(g14
S'\xc1;\xd9\xdd\xb04S@'
p115
tp116
Rp117
ag10
(g14
S'#)\xd9\x19w\x07Q@'
p118
tp119
Rp120
ag10
(g14
S'0Il\x02\xab\xffU@'
p121
tp122
Rp123
ag10
(g14
S'o\x04W\xa3|\xebU@'
p124
tp125
Rp126
ag10
(g14
S'\xf6\x9f\x0c3{\x87V@'
p127
tp128
Rp129
ag10
(g14
S'h\xfd"\x18ZuN@'
p130
tp131
Rp132
ag10
(g14
S'\xeb\xdcF\xe4v\xa1R@'
p133
tp134
Rp135
ag10
(g14
S'\x9b\xd5\x99\x8e\xfd\x98R@'
p136
tp137
Rp138
asssss.