(dp0
S'../Data/sqlite_42.csv'
p1
(dp2
S'../Data/sqlite_97.csv'
p3
(dp4
F0.15
(dp5
S'mmre'
p6
(dp7
S'bellwether'
p8
(lp9
cnumpy.core.multiarray
scalar
p10
(cnumpy
dtype
p11
(S'f8'
p12
I0
I1
tp13
Rp14
(I3
S'<'
p15
NNNI-1
I-1
I0
tp16
bS'3\xa0Y\xdc\xae+U@'
p17
tp18
Rp19
ag10
(g14
S'\x1c\x1b\xfc\xfa%4U@'
p20
tp21
Rp22
ag10
(g14
S'\x94\xc9j\xeb}1U@'
p23
tp24
Rp25
ag10
(g14
S'm\x86\xdb\xa8\xbe)U@'
p26
tp27
Rp28
ag10
(g14
S'\ryL\xd9\xaf,U@'
p29
tp30
Rp31
ag10
(g14
S'\xc0\xfeH\x05b,U@'
p32
tp33
Rp34
ag10
(g14
S'\x0e*\xeb)6-U@'
p35
tp36
Rp37
ag10
(g14
S'\xab\xdc\xf9{\x88+U@'
p38
tp39
Rp40
ag10
(g14
S'\xbe\xbd\x04\xbcK6U@'
p41
tp42
Rp43
ag10
(g14
S'c\xba5\x1c]0U@'
p44
tp45
Rp46
ag10
(g14
S'DL\xe3Nw3U@'
p47
tp48
Rp49
ag10
(g14
S'~\xee\x97\xa0\x846U@'
p50
tp51
Rp52
ag10
(g14
S'\xc2({S?2U@'
p53
tp54
Rp55
ag10
(g14
S'y\xdd\x14\x90|/U@'
p56
tp57
Rp58
ag10
(g14
S'2\xc8U\xad\xdf-U@'
p59
tp60
Rp61
ag10
(g14
S'\x9e\xb6@\xc0\x962U@'
p62
tp63
Rp64
ag10
(g14
S'\xe0\x02\xe2\xc7\xd3+U@'
p65
tp66
Rp67
ag10
(g14
S'\x83\x92a\x03\xb8/U@'
p68
tp69
Rp70
ag10
(g14
S'\x184z\xf5\xa31U@'
p71
tp72
Rp73
ag10
(g14
S'(\xc6\xc9\xb7\x05/U@'
p74
tp75
Rp76
asS'target'
p77
(lp78
g10
(g14
S'>@>\xbe;\xd4K@'
p79
tp80
Rp81
ag10
(g14
S'\xfef\x0370!\\@'
p82
tp83
Rp84
ag10
(g14
S'\x88\tZ\x1e+\xc3H@'
p85
tp86
Rp87
ag10
(g14
S';\xe3\xfa\x19[\xf7U@'
p88
tp89
Rp90
ag10
(g14
S'\x8d}1\xfe\x1d\xa3Q@'
p91
tp92
Rp93
ag10
(g14
S'\x9e\xa9ro\t[S@'
p94
tp95
Rp96
ag10
(g14
S'\xbcQ\xe97\xd9\xc1T@'
p97
tp98
Rp99
ag10
(g14
S'\xce\xb3\xf7PL\x92f@'
p100
tp101
Rp102
ag10
(g14
S'\x11T\xf4\x80\xc0\tI@'
p103
tp104
Rp105
ag10
(g14
S'W]\x04\x90\xa7\xd4M@'
p106
tp107
Rp108
ag10
(g14
S'\x0bb\x8dR\xaa\xfdR@'
p109
tp110
Rp111
ag10
(g14
S'\x0fNU\xe0\xdcME@'
p112
tp113
Rp114
ag10
(g14
S'E\x82\x9crb\x96P@'
p115
tp116
Rp117
ag10
(g14
S'\xba\xf3JU#\x93Q@'
p118
tp119
Rp120
ag10
(g14
S'\x18m6\x03\xc39K@'
p121
tp122
Rp123
ag10
(g14
S'\xd1\x04\x8d \x12\x03P@'
p124
tp125
Rp126
ag10
(g14
S'\x15Y\xe8\x97\x0bLK@'
p127
tp128
Rp129
ag10
(g14
S'\x07zkM\x82%R@'
p130
tp131
Rp132
ag10
(g14
S'\x926<\xa9\x9b:E@'
p133
tp134
Rp135
ag10
(g14
S' \xe7C\x82\x8c\x9ac@'
p136
tp137
Rp138
asssss.