(dp0
S'../Data/sqlite_69.csv'
p1
(dp2
S'../Data/sqlite_63.csv'
p3
(dp4
F0.3
(dp5
S'mmre'
p6
(dp7
S'bellwether'
p8
(lp9
cnumpy.core.multiarray
scalar
p10
(cnumpy
dtype
p11
(S'f8'
p12
I0
I1
tp13
Rp14
(I3
S'<'
p15
NNNI-1
I-1
I0
tp16
bS'\xd2\xb9\xb8i\x17rm@'
p17
tp18
Rp19
ag10
(g14
S'\xd9\x00\xcfw\xe0Xm@'
p20
tp21
Rp22
ag10
(g14
S'$:h!\xa8pm@'
p23
tp24
Rp25
ag10
(g14
S'\x1a9\xa4R\xc7Vm@'
p26
tp27
Rp28
ag10
(g14
S'\xfb\xac\xd3i\xa2]m@'
p29
tp30
Rp31
ag10
(g14
S'w0\xef\xcdytm@'
p32
tp33
Rp34
ag10
(g14
S'9):?_mm@'
p35
tp36
Rp37
ag10
(g14
S'\xbb&\\6qhm@'
p38
tp39
Rp40
ag10
(g14
S'\xf6}y\xcc\xedam@'
p41
tp42
Rp43
ag10
(g14
S'W\xe9?\x88\xeb\x84m@'
p44
tp45
Rp46
ag10
(g14
S'\x90Q\x97\xca\x14\x91m@'
p47
tp48
Rp49
ag10
(g14
S'\xe0\xd8\xbbW\xa3om@'
p50
tp51
Rp52
ag10
(g14
S'\x02\x95o\x9c\x07\x84m@'
p53
tp54
Rp55
ag10
(g14
S'\xe3y]ujRm@'
p56
tp57
Rp58
ag10
(g14
S'\xce2\x13t?~m@'
p59
tp60
Rp61
ag10
(g14
S'5\xea\x8fe\x01bm@'
p62
tp63
Rp64
ag10
(g14
S'\xfa\x9a\xff\xe5]km@'
p65
tp66
Rp67
ag10
(g14
S'\xdaAE\xa3x]m@'
p68
tp69
Rp70
ag10
(g14
S'I\xbcu}\xccmm@'
p71
tp72
Rp73
ag10
(g14
S'2\x84\xd7\xe4(\x99m@'
p74
tp75
Rp76
asS'target'
p77
(lp78
g10
(g14
S'N\x92EJ&\xba"@'
p79
tp80
Rp81
ag10
(g14
S'\xee2\x12\xc0\xd6\xb7"@'
p82
tp83
Rp84
ag10
(g14
S'[h\rOF\xa0"@'
p85
tp86
Rp87
ag10
(g14
S'3W\x0b]_3"@'
p88
tp89
Rp90
ag10
(g14
S'D|.\xe5m\xe6"@'
p91
tp92
Rp93
ag10
(g14
S'"\xe6\xf8\x84\xd6G"@'
p94
tp95
Rp96
ag10
(g14
S'\x87\xa2\\x\xdf5#@'
p97
tp98
Rp99
ag10
(g14
S'NK\xb84\nm"@'
p100
tp101
Rp102
ag10
(g14
S'\x9a\xf9\x013i\x8d"@'
p103
tp104
Rp105
ag10
(g14
S'b\xca\xd4\xc7C\xc2"@'
p106
tp107
Rp108
ag10
(g14
S'\xd6\xcf\x8e\xda \xdb"@'
p109
tp110
Rp111
ag10
(g14
S'\xc0\x84\xf4\xdb\x84/#@'
p112
tp113
Rp114
ag10
(g14
S'\xa4~\x0e\x18\x98\xd0"@'
p115
tp116
Rp117
ag10
(g14
S'\xd3\x04&\xbe4\xf9#@'
p118
tp119
Rp120
ag10
(g14
S'\xf3\xc6\x18\x18\r|"@'
p121
tp122
Rp123
ag10
(g14
S'r\x9d\xf9\xe5\xe8\xd9"@'
p124
tp125
Rp126
ag10
(g14
S'\xb7~b\xae\x9c\xb3"@'
p127
tp128
Rp129
ag10
(g14
S'\xee\xea\xadU\xa3\xa5"@'
p130
tp131
Rp132
ag10
(g14
S'@W9\xf6fa"@'
p133
tp134
Rp135
ag10
(g14
S'\xe3{\x14\xff\xd7\xeb"@'
p136
tp137
Rp138
asssss.