(dp0
S'../Data/sqlite_64.csv'
p1
(dp2
S'../Data/sqlite_66.csv'
p3
(dp4
F0.05
(dp5
S'abs_res'
p6
(dp7
S'bellwether'
p8
(lp9
cnumpy.core.multiarray
scalar
p10
(cnumpy
dtype
p11
(S'f8'
p12
I0
I1
tp13
Rp14
(I3
S'<'
p15
NNNI-1
I-1
I0
tp16
bS'\x8d{\xcdEX.$A'
p17
tp18
Rp19
ag10
(g14
S'?5^\xba\xf7-$A'
p20
tp21
Rp22
ag10
(g14
S'<\xdfOM;.$A'
p23
tp24
Rp25
ag10
(g14
S'w=\nw\xb3.$A'
p26
tp27
Rp28
ag10
(g14
S')1\x08L{.$A'
p29
tp30
Rp31
ag10
(g14
S'\xea\xfb\xa9\xd1\x7f.$A'
p32
tp33
Rp34
ag10
(g14
S'\xdaO\x8dWe.$A'
p35
tp36
Rp37
ag10
(g14
S'dff\xa6K.$A'
p38
tp39
Rp40
ag10
(g14
S'\x91\xed|\x7f2.$A'
p41
tp42
Rp43
ag10
(g14
S'\xb0\x1cZD\x8f.$A'
p44
tp45
Rp46
ag10
(g14
S'8m\xa0S*.$A'
p47
tp48
Rp49
ag10
(g14
S'F\x0c\x02\x8b\xc2-$A'
p50
tp51
Rp52
ag10
(g14
S'=\n\xd7\xa3a.$A'
p53
tp54
Rp55
ag10
(g14
S'\x1a\x04V.\x15.$A'
p56
tp57
Rp58
ag10
(g14
S'\xd2\xf7Sc\x94.$A'
p59
tp60
Rp61
ag10
(g14
S'\xc6v\xbe\x9fr.$A'
p62
tp63
Rp64
ag10
(g14
S'\xf77B\xd9I.$A'
p65
tp66
Rp67
ag10
(g14
S'/@\xeeu\x89.$A'
p68
tp69
Rp70
ag10
(g14
S'\xfd\xd4x\x89\x81.$A'
p71
tp72
Rp73
ag10
(g14
S'L7\x89\xa1\x9f.$A'
p74
tp75
Rp76
asS'target'
p77
(lp78
g10
(g14
S'1333sY\xb7@'
p79
tp80
Rp81
ag10
(g14
S'\xb1\x1e\x85\xeb\x11\xee\xb7@'
p82
tp83
Rp84
ag10
(g14
S'\x13\xaeG\xe1z\n\xbb@'
p85
tp86
Rp87
ag10
(g14
S'gfff&\x9c\xb7@'
p88
tp89
Rp90
ag10
(g14
S'r=\n\xd7\xe3f\xb5@'
p91
tp92
Rp93
ag10
(g14
S'\x06\xd7\xa3p}[\xba@'
p94
tp95
Rp96
ag10
(g14
S'Y\xb8\x1e\x85+\xce\xb7@'
p97
tp98
Rp99
ag10
(g14
S'\xf5(\\\x8f\xc2M\xb8@'
p100
tp101
Rp102
ag10
(g14
S'\xd6\xa3p=\xca]\xb8@'
p103
tp104
Rp105
ag10
(g14
S'\x0e\xaeG\xe1\xba\xf8\xb8@'
p106
tp107
Rp108
ag10
(g14
S'-\\\x8f\xc2\xb5\x15\xba@'
p109
tp110
Rp111
ag10
(g14
S'\\\x8f\xc2\xf5\xe8\xa2\xba@'
p112
tp113
Rp114
ag10
(g14
S'\xa5G\xe1z\x14\x84\xb9@'
p115
tp116
Rp117
ag10
(g14
S'[\x8f\xc2\xf5(\xd7\xb7@'
p118
tp119
Rp120
ag10
(g14
S'\x9c\x99\x99\x99Y\xb4\xb9@'
p121
tp122
Rp123
ag10
(g14
S'A\xe1z\x14.\xc0\xb8@'
p124
tp125
Rp126
ag10
(g14
S'4333\xb3\t\xb7@'
p127
tp128
Rp129
ag10
(g14
S':\n\xd7\xa30\x98\xb9@'
p130
tp131
Rp132
ag10
(g14
S'T\x8f\xc2\xf5(\x0e\xb8@'
p133
tp134
Rp135
ag10
(g14
S'\xec(\\\x8fB\xdf\xb8@'
p136
tp137
Rp138
asssss.