(dp0
S'../Data/sqlite_18.csv'
p1
(dp2
S'../Data/sqlite_47.csv'
p3
(dp4
F0.05
(dp5
S'abs_res'
p6
(dp7
S'bellwether'
p8
(lp9
cnumpy.core.multiarray
scalar
p10
(cnumpy
dtype
p11
(S'f8'
p12
I0
I1
tp13
Rp14
(I3
S'<'
p15
NNNI-1
I-1
I0
tp16
bS'\x12X9\xb4\xc9`BA'
p17
tp18
Rp19
ag10
(g14
S'\xe0Mbp!`BA'
p20
tp21
Rp22
ag10
(g14
S'\xceK7\xb9\x85`BA'
p23
tp24
Rp25
ag10
(g14
S'\xa0\x99\x99\xf9\xd5`BA'
p26
tp27
Rp28
ag10
(g14
S'\x06\x00\x00p\x81`BA'
p29
tp30
Rp31
ag10
(g14
S'w\x93\x18TA`BA'
p32
tp33
Rp34
ag10
(g14
S'w\xe9&\xa1\x07`BA'
p35
tp36
Rp37
ag10
(g14
S'~j\xbc44`BA'
p38
tp39
Rp40
ag10
(g14
S'{?5.n`BA'
p41
tp42
Rp43
ag10
(g14
S'J7\x89\x91\x88`BA'
p44
tp45
Rp46
ag10
(g14
S'\xcd\x85\xa4\tH`BA'
p47
tp48
Rp49
ag10
(g14
S'\xfd*\x87\x86\x8b`BA'
p50
tp51
Rp52
ag10
(g14
S'\xd7"\xdbY2`BA'
p53
tp54
Rp55
ag10
(g14
S'\x8c\xa4)eH`BA'
p56
tp57
Rp58
ag10
(g14
S'\t+\x87\xc6{`BA'
p59
tp60
Rp61
ag10
(g14
S'*\x06\x81\xc5\x8f`BA'
p62
tp63
Rp64
ag10
(g14
S'\x8c\x16\xd9\x8e\xc9_BA'
p65
tp66
Rp67
ag10
(g14
S'\xaf\x7f#\xb4N`BA'
p68
tp69
Rp70
ag10
(g14
S'8\xb4\xc8\x06\x9e`BA'
p71
tp72
Rp73
ag10
(g14
S"\x18\xd9\xce'J`BA"
p74
tp75
Rp76
asS'target'
p77
(lp78
g10
(g14
S'(\x08\xac\x1cZ\xc4b@'
p79
tp80
Rp81
ag10
(g14
S'\x8eC\x8bl\xe7\x17a@'
p82
tp83
Rp84
ag10
(g14
S'%\x87\x16\xd9\xce\x8f^@'
p85
tp86
Rp87
ag10
(g14
S'x\x95C\x8bl\xe7^@'
p88
tp89
Rp90
ag10
(g14
S'\xffU\x0e-\xb2\xed_@'
p91
tp92
Rp93
ag10
(g14
S'\xdbO\x8d\x97nj`@'
p94
tp95
Rp96
ag10
(g14
S'5\xdd$\x06\x81u`@'
p97
tp98
Rp99
ag10
(g14
S'\xa3\xc6K7\x89ua@'
p100
tp101
Rp102
ag10
(g14
S'\xad\xf1\xd2Mb\xd4`@'
p103
tp104
Rp105
ag10
(g14
S'\xbcK7\x89AH`@'
p106
tp107
Rp108
ag10
(g14
S'\x8b\xed|?5\xaee@'
p109
tp110
Rp111
ag10
(g14
S'R\xb8\x1e\x85\xeb)`@'
p112
tp113
Rp114
ag10
(g14
S'\xfe\x01+\x87\x16AZ@'
p115
tp116
Rp117
ag10
(g14
S'\x88\x97n\x12\x83,a@'
p118
tp119
Rp120
ag10
(g14
S'\x03)\\\x8f\xc2!a@'
p121
tp122
Rp123
ag10
(g14
S'\xaa\x9d\xef\xa7\xc6{\\@'
p124
tp125
Rp126
ag10
(g14
S'\x1f\\\x8f\xc2\xf5\xa4`@'
p127
tp128
Rp129
ag10
(g14
S'H\xe1z\x14\xae\x0f`@'
p130
tp131
Rp132
ag10
(g14
S'\x12\xaeG\xe1z\xf4a@'
p133
tp134
Rp135
ag10
(g14
S'\xe8~j\xbct\xbbe@'
p136
tp137
Rp138
asssss.