(dp0
S'../Data/sqlite_27.csv'
p1
(dp2
S'../Data/sqlite_32.csv'
p3
(dp4
F0.05
(dp5
S'mmre'
p6
(dp7
S'bellwether'
p8
(lp9
cnumpy.core.multiarray
scalar
p10
(cnumpy
dtype
p11
(S'f8'
p12
I0
I1
tp13
Rp14
(I3
S'<'
p15
NNNI-1
I-1
I0
tp16
bS' .\xe2\x14SmX@'
p17
tp18
Rp19
ag10
(g14
S'\xf3\xc7\xd9(PmX@'
p20
tp21
Rp22
ag10
(g14
S"\xc6\x9a'2QmX@"
p23
tp24
Rp25
ag10
(g14
S'\xc5<>\x82QmX@'
p26
tp27
Rp28
ag10
(g14
S'jc\x81`UmX@'
p29
tp30
Rp31
ag10
(g14
S'E\xbf\x0cLPmX@'
p32
tp33
Rp34
ag10
(g14
S'Vc4\xf9QmX@'
p35
tp36
Rp37
ag10
(g14
S'\r\xc6\xe2\x0f`mX@'
p38
tp39
Rp40
ag10
(g14
S'Aw\xf9lVmX@'
p41
tp42
Rp43
ag10
(g14
S'b\xd2\xdeJJmX@'
p44
tp45
Rp46
ag10
(g14
S'\x93lQ\x9ePmX@'
p47
tp48
Rp49
ag10
(g14
S'\xec\xe5\xe4JImX@'
p50
tp51
Rp52
ag10
(g14
S'\xea\x0el\nXmX@'
p53
tp54
Rp55
ag10
(g14
S'\xbaudIBmX@'
p56
tp57
Rp58
ag10
(g14
S'\xc4S\xc1LXmX@'
p59
tp60
Rp61
ag10
(g14
S'\xfd\xbd\x8b\xe5TmX@'
p62
tp63
Rp64
ag10
(g14
S'=\xddY\x8fPmX@'
p65
tp66
Rp67
ag10
(g14
S'u~7.WmX@'
p68
tp69
Rp70
ag10
(g14
S'V\x96"\xa4NmX@'
p71
tp72
Rp73
ag10
(g14
S'\x08\xdd\x04\xbfSmX@'
p74
tp75
Rp76
asS'target'
p77
(lp78
g10
(g14
S']\x98\x80\x10G\xa0\xee?'
p79
tp80
Rp81
ag10
(g14
S'W\xb0H=\xc8{\xed?'
p82
tp83
Rp84
ag10
(g14
S'|\thv\xa8\xa7\xea?'
p85
tp86
Rp87
ag10
(g14
S's\xa1fT\xcb\x84\xed?'
p88
tp89
Rp90
ag10
(g14
S'\xca\x88OE?\x85\xee?'
p91
tp92
Rp93
ag10
(g14
S'\x00\xe3\xa6\x98U\n\xec?'
p94
tp95
Rp96
ag10
(g14
S'P\xf2\xea\xd7p0\xec?'
p97
tp98
Rp99
ag10
(g14
S'\xb5\xcf\x1a~\xb2z\xed?'
p100
tp101
Rp102
ag10
(g14
S'"\x84Spe\x11\xeb?'
p103
tp104
Rp105
ag10
(g14
S'\x08\x9fD\xef\xb4\x85\xef?'
p106
tp107
Rp108
ag10
(g14
S'\xf9\xc9e\xe1\x99:\xec?'
p109
tp110
Rp111
ag10
(g14
S'y\xd0\xb9\x90\xedk\xff?'
p112
tp113
Rp114
ag10
(g14
S'\xe0\x1d\x95\x99\xd7\xba\xea?'
p115
tp116
Rp117
ag10
(g14
S'\x06c#se\xd9\r@'
p118
tp119
Rp120
ag10
(g14
S'\x04\xbf\xd1\xda\x9d\xc8\xed?'
p121
tp122
Rp123
ag10
(g14
S'\x11\xae\x02H\xe6s\xec?'
p124
tp125
Rp126
ag10
(g14
S'\x8b7\xdd\x19\xd7:\xed?'
p127
tp128
Rp129
ag10
(g14
S'\xcb]\xf4J\xf7\xda\xed?'
p130
tp131
Rp132
ag10
(g14
S'^>\xb2\xe6!W\xed?'
p133
tp134
Rp135
ag10
(g14
S'\xf9|\xdb\x94OF\xf0?'
p136
tp137
Rp138
asssss.