(dp0
S'../Data/sqlite_60.csv'
p1
(dp2
S'../Data/sqlite_3.csv'
p3
(dp4
F0.25
(dp5
S'abs_res'
p6
(dp7
S'bellwether'
p8
(lp9
cnumpy.core.multiarray
scalar
p10
(cnumpy
dtype
p11
(S'f8'
p12
I0
I1
tp13
Rp14
(I3
S'<'
p15
NNNI-1
I-1
I0
tp16
bS'\x00\x1c\xa1\x8c\x86MeA'
p17
tp18
Rp19
ag10
(g14
S'@DDtU]eA'
p20
tp21
Rp22
ag10
(g14
S'\xf5\xa9\xf1~ PeA'
p23
tp24
Rp25
ag10
(g14
S'/\x08\xac8yVeA'
p26
tp27
Rp28
ag10
(g14
S'>\xfd\x1bm\xb8eeA'
p29
tp30
Rp31
ag10
(g14
S'.B\x19\x9d\xc0NeA'
p32
tp33
Rp34
ag10
(g14
S'\xa8\x7f#\x1c\x9b_eA'
p35
tp36
Rp37
ag10
(g14
S'\x13\x83\xc0*\xbbVeA'
p38
tp39
Rp40
ag10
(g14
S'X\x8f\xc2I\x9eYeA'
p41
tp42
Rp43
ag10
(g14
S'\xb3rh\x05}VeA'
p44
tp45
Rp46
ag10
(g14
S'\x0c\x90{EV`eA'
p47
tp48
Rp49
ag10
(g14
S'\xdf&1\xf4\xf7NeA'
p50
tp51
Rp52
ag10
(g14
S'I\x19\xbd\x89\xa8WeA'
p53
tp54
Rp55
ag10
(g14
S'<\x17\x92"\x06[eA'
p56
tp57
Rp58
ag10
(g14
S'9\xa7\r0M`eA'
p59
tp60
Rp61
ag10
(g14
S'(\xa3\xb7\xb5\x8fZeA'
p62
tp63
Rp64
ag10
(g14
S'\xa9\xd51\xf5^YeA'
p65
tp66
Rp67
ag10
(g14
S'\xb5\x02\xe4\x02\x13[eA'
p68
tp69
Rp70
ag10
(g14
S'\xed\xd2Mz\xbc\\eA'
p71
tp72
Rp73
ag10
(g14
S' \x06\x81q\xe6`eA'
p74
tp75
Rp76
asS'target'
p77
(lp78
g10
(g14
S'7\xb4\xc8v\xbe\xedh@'
p79
tp80
Rp81
ag10
(g14
S'\xa8\xc6K7\x89]k@'
p82
tp83
Rp84
ag10
(g14
S'zj\xbct\x93\xdak@'
p85
tp86
Rp87
ag10
(g14
S'\xf4~j\xbct\xf7i@'
p88
tp89
Rp90
ag10
(g14
S'\xd5Mb\x10Xih@'
p91
tp92
Rp93
ag10
(g14
S'\x1f\x04V\x0e-^k@'
p94
tp95
Rp96
ag10
(g14
S'\xbe\xca\xa1E\xb6\x85j@'
p97
tp98
Rp99
ag10
(g14
S'.\xb2\x9d\xef\xa7\xc0k@'
p100
tp101
Rp102
ag10
(g14
S'r\x12\x83\xc0\xca%j@'
p103
tp104
Rp105
ag10
(g14
S'\x16\xd9\xce\xf7S\xa3j@'
p106
tp107
Rp108
ag10
(g14
S'M\xe3\xa5\x9b\xc4\xe4k@'
p109
tp110
Rp111
ag10
(g14
S'Y\x0e-\xb2\x9dyk@'
p112
tp113
Rp114
ag10
(g14
S'm\xe7\xfb\xa9\xf1\xd6i@'
p115
tp116
Rp117
ag10
(g14
S'!\x04V\x0e-\x06m@'
p118
tp119
Rp120
ag10
(g14
S'e\xbaI\x0c\x02\xcfk@'
p121
tp122
Rp123
ag10
(g14
S'M7\x89A`\x97j@'
p124
tp125
Rp126
ag10
(g14
S'Y\xbaI\x0c\x02\xd7i@'
p127
tp128
Rp129
ag10
(g14
S'V9\xb4\xc8vVm@'
p130
tp131
Rp132
ag10
(g14
S'8\xdd$\x06\x81\x8bj@'
p133
tp134
Rp135
ag10
(g14
S'\xe3z\x14\xaeG7j@'
p136
tp137
Rp138
asssss.