(dp0
S'../Data/sqlite_35.csv'
p1
(dp2
S'../Data/sqlite_91.csv'
p3
(dp4
F0.15
(dp5
S'mmre'
p6
(dp7
S'bellwether'
p8
(lp9
cnumpy.core.multiarray
scalar
p10
(cnumpy
dtype
p11
(S'f8'
p12
I0
I1
tp13
Rp14
(I3
S'<'
p15
NNNI-1
I-1
I0
tp16
bS'\xd7\rC\xc4\xb88X@'
p17
tp18
Rp19
ag10
(g14
S'_\xcf\x1e\x08\x8d3X@'
p20
tp21
Rp22
ag10
(g14
S'#\x92\xe0\x8e=7X@'
p23
tp24
Rp25
ag10
(g14
S'\xb7\x11[z\xa1@X@'
p26
tp27
Rp28
ag10
(g14
S'\xbe\xa7\xda\xf4>7X@'
p29
tp30
Rp31
ag10
(g14
S'EJ\x01\xe5\xeb8X@'
p32
tp33
Rp34
ag10
(g14
S'\x13@\x95\xcdA*X@'
p35
tp36
Rp37
ag10
(g14
S'\x07S\xef\x08j0X@'
p38
tp39
Rp40
ag10
(g14
S'\xa8y\x9d\xea\xea6X@'
p41
tp42
Rp43
ag10
(g14
S'1\xf1\x93^U4X@'
p44
tp45
Rp46
ag10
(g14
S'\x88\xb7^?\xd74X@'
p47
tp48
Rp49
ag10
(g14
S'\xe9\x88\xad5u0X@'
p50
tp51
Rp52
ag10
(g14
S'\x85X\x14\x7f\xf1:X@'
p53
tp54
Rp55
ag10
(g14
S'\x91@\xee\x9e\xef6X@'
p56
tp57
Rp58
ag10
(g14
S'\xc24\xc31\n6X@'
p59
tp60
Rp61
ag10
(g14
S'\xa6\x1e8Y\x824X@'
p62
tp63
Rp64
ag10
(g14
S'\x15ty\x19\x896X@'
p65
tp66
Rp67
ag10
(g14
S'.S\xb3 \x1c*X@'
p68
tp69
Rp70
ag10
(g14
S'\xcdm\nq\x898X@'
p71
tp72
Rp73
ag10
(g14
S'\x88}\xeee\xd63X@'
p74
tp75
Rp76
asS'target'
p77
(lp78
g10
(g14
S'\xab\xd6+\x9fD\xfcP@'
p79
tp80
Rp81
ag10
(g14
S'^i\x8eI(HP@'
p82
tp83
Rp84
ag10
(g14
S'\xf1\xe97:\x01nO@'
p85
tp86
Rp87
ag10
(g14
S'\x1ax\x1a%n\xb5M@'
p88
tp89
Rp90
ag10
(g14
S'\x9ea\xbcd)\xe5N@'
p91
tp92
Rp93
ag10
(g14
S'\xc6]<\x17<vL@'
p94
tp95
Rp96
ag10
(g14
S'\xbb\xeb\xd1o7\x94Q@'
p97
tp98
Rp99
ag10
(g14
S'\xbc\xe6\n\xbcc\xeeN@'
p100
tp101
Rp102
ag10
(g14
S'U\xe9U391O@'
p103
tp104
Rp105
ag10
(g14
S'\x9f-\xc4\x11f\x96P@'
p106
tp107
Rp108
ag10
(g14
S'\x0f\xee\xab\x8b\xb8>P@'
p109
tp110
Rp111
ag10
(g14
S'\x04\x94J\xd6k?R@'
p112
tp113
Rp114
ag10
(g14
S'I\x19\xb0\x87\xb4#N@'
p115
tp116
Rp117
ag10
(g14
S'\x11\xf65\xd0\xf1\xd2O@'
p118
tp119
Rp120
ag10
(g14
S'5\xc8\x883i\x1bP@'
p121
tp122
Rp123
ag10
(g14
S'\xe4G\x07\xe4\xaa\x86P@'
p124
tp125
Rp126
ag10
(g14
S'\xcd\x07,K\xfb[P@'
p127
tp128
Rp129
ag10
(g14
S'hh\x02h\xb2,R@'
p130
tp131
Rp132
ag10
(g14
S'\x1c\xeb+\xce\\=P@'
p133
tp134
Rp135
ag10
(g14
S'b/\x85,\\\x9aN@'
p136
tp137
Rp138
asssss.