(dp0
S'../Data/sqlite_85.csv'
p1
(dp2
S'../Data/sqlite_44.csv'
p3
(dp4
F0.05
(dp5
S'abs_res'
p6
(dp7
S'bellwether'
p8
(lp9
cnumpy.core.multiarray
scalar
p10
(cnumpy
dtype
p11
(S'f8'
p12
I0
I1
tp13
Rp14
(I3
S'<'
p15
NNNI-1
I-1
I0
tp16
bS'`\x91\xed\xfc/.ZA'
p17
tp18
Rp19
ag10
(g14
S'\xc6t\x93\xb8\xb1\x18ZA'
p20
tp21
Rp22
ag10
(g14
S'>o\xcbRw\x17ZA'
p23
tp24
Rp25
ag10
(g14
S'\r\x83\xc0\xaa(%ZA'
p26
tp27
Rp28
ag10
(g14
S'\xd0\xa3p\xddjIZA'
p29
tp30
Rp31
ag10
(g14
S'\xcc"\xdb\xe1\xd2\x1dZA'
p32
tp33
Rp34
ag10
(g14
S'6^\xbaa1IZA'
p35
tp36
Rp37
ag10
(g14
S'\x9an\x12C\xb2BZA'
p38
tp39
Rp40
ag10
(g14
S'\xe6\x89\xfa\xc7b>ZA'
p41
tp42
Rp43
ag10
(g14
S"\xab\x9b\xc4\x88<'ZA"
p44
tp45
Rp46
ag10
(g14
S'/\x89A\xe0\xb90ZA'
p47
tp48
Rp49
ag10
(g14
S'\xafV\xc7|\x80\x14ZA'
p50
tp51
Rp52
ag10
(g14
S'c\xe7\xfbI\x91@ZA'
p53
tp54
Rp55
ag10
(g14
S'f\xf6\xe1K|3ZA'
p56
tp57
Rp58
ag10
(g14
S'(\xdb\xf9\x9e\xb4PZA'
p59
tp60
Rp61
ag10
(g14
S'\xb6\xf3\xfd$\xd6\x1cZA'
p62
tp63
Rp64
ag10
(g14
S'\xe6\xdf\x08\xa5\xd4\xf4YA'
p65
tp66
Rp67
ag10
(g14
S'W\xf2\x8b5\x91DZA'
p68
tp69
Rp70
ag10
(g14
S'1\xdd$\x1e\xb5UZA'
p71
tp72
Rp73
ag10
(g14
S'#\x15gg~<ZA'
p74
tp75
Rp76
asS'target'
p77
(lp78
g10
(g14
S'7\xb2\x9d\xef\xa7\x8eZ@'
p79
tp80
Rp81
ag10
(g14
S'\xb3G\xe1z\x14\x16V@'
p82
tp83
Rp84
ag10
(g14
S'&\x87\x16\xd9\xce\xa7P@'
p85
tp86
Rp87
ag10
(g14
S',Zd;\xdfoU@'
p88
tp89
Rp90
ag10
(g14
S'\xf5|?5^\xa2U@'
p91
tp92
Rp93
ag10
(g14
S'\xb4\x1e\x85\xebQ\xa0c@'
p94
tp95
Rp96
ag10
(g14
S'F7\x89A`%R@'
p97
tp98
Rp99
ag10
(g14
S'03333\xebV@'
p100
tp101
Rp102
ag10
(g14
S'<5^\xbaI\xccR@'
p103
tp104
Rp105
ag10
(g14
S'*/\xdd$\x06!Z@'
p106
tp107
Rp108
ag10
(g14
S'o\xbct\x93\x18$T@'
p109
tp110
Rp111
ag10
(g14
S'K\xb6\xf3\xfd\xd4hV@'
p112
tp113
Rp114
ag10
(g14
S'\xdf\xa3p=\n\x1fS@'
p115
tp116
Rp117
ag10
(g14
S'\xcbt\x93\x18\x04&[@'
p118
tp119
Rp120
ag10
(g14
S'/\x87\x16\xd9\xce\x87T@'
p121
tp122
Rp123
ag10
(g14
S'O\xe3\xa5\x9b\xc4\xb0]@'
p124
tp125
Rp126
ag10
(g14
S'\xde\xce\xf7S\xe3\x9dS@'
p127
tp128
Rp129
ag10
(g14
S'\x82\xe9&1\x08LU@'
p130
tp131
Rp132
ag10
(g14
S'th\x91\xed|\xc7S@'
p133
tp134
Rp135
ag10
(g14
S'<\xdd$\x06\x81\rX@'
p136
tp137
Rp138
asssss.