(dp0
S'../Data/sqlite_44.csv'
p1
(dp2
S'../Data/sqlite_88.csv'
p3
(dp4
F0.3
(dp5
S'abs_res'
p6
(dp7
S'bellwether'
p8
(lp9
cnumpy.core.multiarray
scalar
p10
(cnumpy
dtype
p11
(S'f8'
p12
I0
I1
tp13
Rp14
(I3
S'<'
p15
NNNI-1
I-1
I0
tp16
bS'P\xe3\xa5\xa3\x94-_A'
p17
tp18
Rp19
ag10
(g14
S'\xdf\x96\xb5^\x06\x0b_A'
p20
tp21
Rp22
ag10
(g14
S'\xa2\x8c\xde\xfeT*_A'
p23
tp24
Rp25
ag10
(g14
S'\xbat\x93L\x10\xfd^A'
p26
tp27
Rp28
ag10
(g14
S'\x13g\x1f\xdaK\x17_A'
p29
tp30
Rp31
ag10
(g14
S'\xf8\xc5\x92w\xf9\x1a_A'
p32
tp33
Rp34
ag10
(g14
S'\xe5|?U\xdd\x16_A'
p35
tp36
Rp37
ag10
(g14
S"[\x9e\xa8'\\\n_A"
p38
tp39
Rp40
ag10
(g14
S'U\xffF\x84\xf4X_A'
p41
tp42
Rp43
ag10
(g14
S',\xce>8\xad\xf9^A'
p44
tp45
Rp46
ag10
(g14
S'\xefD\xfd\xa7I{_A'
p47
tp48
Rp49
ag10
(g14
S'\xae\xaa\xaaB\x9e\x06_A'
p50
tp51
Rp52
ag10
(g14
S'\t\x1e\xcco\n(_A'
p53
tp54
Rp55
ag10
(g14
S"_s!\x85x'_A"
p56
tp57
Rp58
ag10
(g14
S'\x9dRqn\xad\xf1^A'
p59
tp60
Rp61
ag10
(g14
S'\xde\xce\xf7\x1b\x17\x03_A'
p62
tp63
Rp64
ag10
(g14
S'{\x86]\xa1\xf6\xf5^A'
p65
tp66
Rp67
ag10
(g14
S',O\xd4[\x10<_A'
p68
tp69
Rp70
ag10
(g14
S'\xd5\x06:=\x15\xf3^A'
p71
tp72
Rp73
ag10
(g14
S'N\x1b\xe8\x04|&_A'
p74
tp75
Rp76
asS'target'
p77
(lp78
g10
(g14
S'333\xb3\xdet0A'
p79
tp80
Rp81
ag10
(g14
S'\xfe\xff\xff\x7f;\xf9+A'
p82
tp83
Rp84
ag10
(g14
S'433\xb3\x8f\x954A'
p85
tp86
Rp87
ag10
(g14
S'>\n\xd7#9\x12.A'
p88
tp89
Rp90
ag10
(g14
S'\xc0\xf5(\x9cE\xdf2A'
p91
tp92
Rp93
ag10
(g14
S'\x08\xd7\xa3\xb0\x15\xae1A'
p94
tp95
Rp96
ag10
(g14
S'n=\nWu0.A'
p97
tp98
Rp99
ag10
(g14
S'[\x8f\xc25E\x9a0A'
p100
tp101
Rp102
ag10
(g14
S')\\\x8f\x82\xed\x860A'
p103
tp104
Rp105
ag10
(g14
S' \x85\xebQA;+A'
p106
tp107
Rp108
ag10
(g14
S'\xa4p=\x8a! 4A'
p109
tp110
Rp111
ag10
(g14
S'\xf6(\\\x8f\x8aS+A'
p112
tp113
Rp114
ag10
(g14
S'I\xe1z\x14\x1d\xca2A'
p115
tp116
Rp117
ag10
(g14
S'\\\x8f\xc256d2A'
p118
tp119
Rp120
ag10
(g14
S'gfffPO*A'
p121
tp122
Rp123
ag10
(g14
S'\xca\xcc\xccL\x19x1A'
p124
tp125
Rp126
ag10
(g14
S'\xa5p=\x8a\xa9\x05/A'
p127
tp128
Rp129
ag10
(g14
S'\x00\x00\x00\x803\xf04A'
p130
tp131
Rp132
ag10
(g14
S')\\\x8f\xc2\x10\x013A'
p133
tp134
Rp135
ag10
(g14
S'=\n\xd7\xa3 \xe3*A'
p136
tp137
Rp138
asssss.