(dp0
S'../Data/sqlite_4.csv'
p1
(dp2
S'../Data/sqlite_16.csv'
p3
(dp4
F0.4
(dp5
S'abs_res'
p6
(dp7
S'bellwether'
p8
(lp9
cnumpy.core.multiarray
scalar
p10
(cnumpy
dtype
p11
(S'f8'
p12
I0
I1
tp13
Rp14
(I3
S'<'
p15
NNNI-1
I-1
I0
tp16
bS'\xbb\xc8v^*k7A'
p17
tp18
Rp19
ag10
(g14
S'\x03\xc8\xbd\xa6Pn7A'
p20
tp21
Rp22
ag10
(g14
S'\x18 \xf7\xfa\xf0l7A'
p23
tp24
Rp25
ag10
(g14
S'\xc5-k\x953l7A'
p26
tp27
Rp28
ag10
(g14
S'\xd2i\x03\x1dRk7A'
p29
tp30
Rp31
ag10
(g14
S'{L\xf0\xa0\xf6k7A'
p32
tp33
Rp34
ag10
(g14
S'\xfa~j\x1c\xc2n7A'
p35
tp36
Rp37
ag10
(g14
S'^9\xb4\xe8&l7A'
p38
tp39
Rp40
ag10
(g14
S'\xc4\xd7\\h9n7A'
p41
tp42
Rp43
ag10
(g14
S'\x95\xfcbI\x97l7A'
p44
tp45
Rp46
ag10
(g14
S'\xaf\xaa\xaa\x8ank7A'
p47
tp48
Rp49
ag10
(g14
S'>&x\xd0\x1fk7A'
p50
tp51
Rp52
ag10
(g14
S' \x13<8en7A'
p53
tp54
Rp55
ag10
(g14
S'g\x9e\xa8\x7f\xcem7A'
p56
tp57
Rp58
ag10
(g14
S'C\xa7\r\xf4Fm7A'
p59
tp60
Rp61
ag10
(g14
S'r\x842\x9a\x9dl7A'
p62
tp63
Rp64
ag10
(g14
S'8\x89A\xc0Pk7A'
p65
tp66
Rp67
ag10
(g14
S"\x10\x02+'\xf9k7A"
p68
tp69
Rp70
ag10
(g14
S'N\xb6\xf3\x1dul7A'
p71
tp72
Rp73
ag10
(g14
S'\x08\xe4^\xb3\xf1m7A'
p74
tp75
Rp76
asS'target'
p77
(lp78
g10
(g14
S'I\xb6\xf3\xfd\xd4\xe0C@'
p79
tp80
Rp81
ag10
(g14
S'!\xdb\xf9~j\xacC@'
p82
tp83
Rp84
ag10
(g14
S'\xfe\xd4x\xe9&\x01D@'
p85
tp86
Rp87
ag10
(g14
S'\x0c\x81\x95C\x8bDC@'
p88
tp89
Rp90
ag10
(g14
S'\xe8Q\xb8\x1e\x85\xa3E@'
p91
tp92
Rp93
ag10
(g14
S'^\x0e-\xb2\x9d\x07C@'
p94
tp95
Rp96
ag10
(g14
S'!\xdb\xf9~j\xecB@'
p97
tp98
Rp99
ag10
(g14
S'i\xad\x8e\t\x1e\x1cD@'
p100
tp101
Rp102
ag10
(g14
S'~\xe9&1\x08\xecE@'
p103
tp104
Rp105
ag10
(g14
S'4\x87\x16\xd9\xceGD@'
p106
tp107
Rp108
ag10
(g14
S'th\x91\xed|\x17C@'
p109
tp110
Rp111
ag10
(g14
S'm\xbct\x93\x18\xe4C@'
p112
tp113
Rp114
ag10
(g14
S'\x82l\xe7\xfb\xa9\xe1D@'
p115
tp116
Rp117
ag10
(g14
S'\x14\xaeG\xe1z\x14D@'
p118
tp119
Rp120
ag10
(g14
S'(\x06\x81\x95CcC@'
p121
tp122
Rp123
ag10
(g14
S'\x9a\x18\x04V\x0e\xd5D@'
p124
tp125
Rp126
ag10
(g14
S'F\x9aRq\xf6\x81D@'
p127
tp128
Rp129
ag10
(g14
S'D\n\xd7\xa3p5F@'
p130
tp131
Rp132
ag10
(g14
S'2\xdd$\x06\x81UE@'
p133
tp134
Rp135
ag10
(g14
S'p\xe7\xfb\xa9\xf1\xf2D@'
p136
tp137
Rp138
asssss.