(dp0
S'../Data/sqlite_79.csv'
p1
(dp2
S'../Data/sqlite_63.csv'
p3
(dp4
F0.05
(dp5
S'mmre'
p6
(dp7
S'bellwether'
p8
(lp9
cnumpy.core.multiarray
scalar
p10
(cnumpy
dtype
p11
(S'f8'
p12
I0
I1
tp13
Rp14
(I3
S'<'
p15
NNNI-1
I-1
I0
tp16
bS'M$\xc0\x02\x9fzV@'
p17
tp18
Rp19
ag10
(g14
S'R\xf4\xdc\x04\xa7xV@'
p20
tp21
Rp22
ag10
(g14
S'9\xebs\x1c\x10{V@'
p23
tp24
Rp25
ag10
(g14
S'm\xff-n\n{V@'
p26
tp27
Rp28
ag10
(g14
S'\xd9 D\x11\x18{V@'
p29
tp30
Rp31
ag10
(g14
S't\xc3\xb6\x84\xdfxV@'
p32
tp33
Rp34
ag10
(g14
S'\xdbs\xdd\x93\x90zV@'
p35
tp36
Rp37
ag10
(g14
S'\xaa8\xc3\xc0\xcbyV@'
p38
tp39
Rp40
ag10
(g14
S'j\x86\xc1\xd3q{V@'
p41
tp42
Rp43
ag10
(g14
S'(5R\x0b\xa4zV@'
p44
tp45
Rp46
ag10
(g14
S'\xa2\x13\xe4#kzV@'
p47
tp48
Rp49
ag10
(g14
S')\xcb\xa7<.zV@'
p50
tp51
Rp52
ag10
(g14
S'\xde\xcbd6GyV@'
p53
tp54
Rp55
ag10
(g14
S'DC\xeb\xba\xbfzV@'
p56
tp57
Rp58
ag10
(g14
S'\xe1\xa1\xc2\xe8\xa6zV@'
p59
tp60
Rp61
ag10
(g14
S'>V\xd0\xac\x7fyV@'
p62
tp63
Rp64
ag10
(g14
S'\xfb\xd0i]DzV@'
p65
tp66
Rp67
ag10
(g14
S'\xd6\x93G\x91\x82{V@'
p68
tp69
Rp70
ag10
(g14
S'1\x9f\x1b\xc3\xafyV@'
p71
tp72
Rp73
ag10
(g14
S'2\xd7\x8b\xffozV@'
p74
tp75
Rp76
asS'target'
p77
(lp78
g10
(g14
S'\xf9\x19\x93\xb9\xaeR$@'
p79
tp80
Rp81
ag10
(g14
S'\xaf\rwfD\xd1%@'
p82
tp83
Rp84
ag10
(g14
S'\x04\xa3D\xc5\xcb\x1b"@'
p85
tp86
Rp87
ag10
(g14
S'q-\x84\xc1u\xbf%@'
p88
tp89
Rp90
ag10
(g14
S'^tZ\xfe~F!@'
p91
tp92
Rp93
ag10
(g14
S'\x00\x0f\xd8P\xf9c#@'
p94
tp95
Rp96
ag10
(g14
S'\xa6C\x8fYw9$@'
p97
tp98
Rp99
ag10
(g14
S'\xad}Q`o\x93"@'
p100
tp101
Rp102
ag10
(g14
S'%\xa5{%Ea%@'
p103
tp104
Rp105
ag10
(g14
S'7\xb1\xcf\xe5\xec\x19$@'
p106
tp107
Rp108
ag10
(g14
S'L\xce\x7fe\xddS"@'
p109
tp110
Rp111
ag10
(g14
S'\xb4\xb4n\xd7\x9d\xa8 @'
p112
tp113
Rp114
ag10
(g14
S'\x96\xa3\x85\x12T\x0f#@'
p115
tp116
Rp117
ag10
(g14
S'\xdc(\x87;X\x8d!@'
p118
tp119
Rp120
ag10
(g14
S'#\x90\xcaMU\xa8"@'
p121
tp122
Rp123
ag10
(g14
S'M;\xfa\xb9\xb1\x91#@'
p124
tp125
Rp126
ag10
(g14
S'\xf7\x93\x0b\xbet\xf3$@'
p127
tp128
Rp129
ag10
(g14
S'\xd6(\xbe\x94\xac\xf2#@'
p130
tp131
Rp132
ag10
(g14
S'\x18F\xa0\x81*H#@'
p133
tp134
Rp135
ag10
(g14
S'\xd7p\xe48\x9b\xf3!@'
p136
tp137
Rp138
asssss.