(dp0
S'../Data/sqlite_37.csv'
p1
(dp2
S'../Data/sqlite_73.csv'
p3
(dp4
F0.25
(dp5
S'mmre'
p6
(dp7
S'bellwether'
p8
(lp9
cnumpy.core.multiarray
scalar
p10
(cnumpy
dtype
p11
(S'f8'
p12
I0
I1
tp13
Rp14
(I3
S'<'
p15
NNNI-1
I-1
I0
tp16
bS'r`\xf1$\x9a[W@'
p17
tp18
Rp19
ag10
(g14
S'\x0cch\xe8\xd6ZW@'
p20
tp21
Rp22
ag10
(g14
S'F}\x9d2*ZW@'
p23
tp24
Rp25
ag10
(g14
S'\xc8\xb5\xc0x\xab[W@'
p26
tp27
Rp28
ag10
(g14
S'5(|"\x7fYW@'
p29
tp30
Rp31
ag10
(g14
S'\x08\xbf]\xc2\x8eYW@'
p32
tp33
Rp34
ag10
(g14
S'Q\x8f(\x10\xf0ZW@'
p35
tp36
Rp37
ag10
(g14
S'ZON\xfc\xbcYW@'
p38
tp39
Rp40
ag10
(g14
S'\xff\x0fV\xf2\xe3YW@'
p41
tp42
Rp43
ag10
(g14
S'\xb3]v#&ZW@'
p44
tp45
Rp46
ag10
(g14
S'3\xf8\xe8\xc8\x8fYW@'
p47
tp48
Rp49
ag10
(g14
S'\x9b\xc4ne\xfcZW@'
p50
tp51
Rp52
ag10
(g14
S'\xa6\x80Fl\xd9ZW@'
p53
tp54
Rp55
ag10
(g14
S'T\xddML\xa3[W@'
p56
tp57
Rp58
ag10
(g14
S'\xf86\xa3\xbbv\\W@'
p59
tp60
Rp61
ag10
(g14
S'\xba[\x8d\xd2\x8fYW@'
p62
tp63
Rp64
ag10
(g14
S'\x93\xaflHyZW@'
p65
tp66
Rp67
ag10
(g14
S'\x06\xca\xc1\xdb\xf4YW@'
p68
tp69
Rp70
ag10
(g14
S'\x10\x1dn\x8d\xc8ZW@'
p71
tp72
Rp73
ag10
(g14
S'O:Q\xefjYW@'
p74
tp75
Rp76
asS'target'
p77
(lp78
g10
(g14
S'k\xcbz\x14\x06\x10+@'
p79
tp80
Rp81
ag10
(g14
S'\x9d[e\x89\xbb9.@'
p82
tp83
Rp84
ag10
(g14
S'\t\xa5\x011\xab\xda-@'
p85
tp86
Rp87
ag10
(g14
S'\n\x08\xa9.3\x98,@'
p88
tp89
Rp90
ag10
(g14
S'I/\xafvFA)@'
p91
tp92
Rp93
ag10
(g14
S'\xd0<fa\xb3-,@'
p94
tp95
Rp96
ag10
(g14
S'\xe2\x8d\xc9\x16}\xe3.@'
p97
tp98
Rp99
ag10
(g14
S'^\x01\xac\xe2w\xb8+@'
p100
tp101
Rp102
ag10
(g14
S'\xbd1\x1f \xd6\xf4,@'
p103
tp104
Rp105
ag10
(g14
S'k\xfe\xbd\xae\x88^*@'
p106
tp107
Rp108
ag10
(g14
S'\xac\x9d\xbd5\xe5%.@'
p109
tp110
Rp111
ag10
(g14
S"\xf5\x81\xa2(c'-@"
p112
tp113
Rp114
ag10
(g14
S'\xe1\x11\x8f\t\xd9R*@'
p115
tp116
Rp117
ag10
(g14
S'\x97\x1d\x06b\xea0-@'
p118
tp119
Rp120
ag10
(g14
S'MX\\iA\x14,@'
p121
tp122
Rp123
ag10
(g14
S'(I\xce\xd3\xd9[,@'
p124
tp125
Rp126
ag10
(g14
S'Y\xd2\x19\x96{(*@'
p127
tp128
Rp129
ag10
(g14
S'\xdf\xdd{O\xe6\x7f,@'
p130
tp131
Rp132
ag10
(g14
S'\xd4\x80\xba\xd7\x85\xa1-@'
p133
tp134
Rp135
ag10
(g14
S'\xa6\x18\xe0u\xa0\xe1*@'
p136
tp137
Rp138
asssss.