(dp0
S'../Data/sqlite_29.csv'
p1
(dp2
S'../Data/sqlite_2.csv'
p3
(dp4
F0.05
(dp5
S'abs_res'
p6
(dp7
S'bellwether'
p8
(lp9
cnumpy.core.multiarray
scalar
p10
(cnumpy
dtype
p11
(S'f8'
p12
I0
I1
tp13
Rp14
(I3
S'<'
p15
NNNI-1
I-1
I0
tp16
bS'\xc1\xa1E\xf6\x05LEA'
p17
tp18
Rp19
ag10
(g14
S'P\xabc2HLEA'
p20
tp21
Rp22
ag10
(g14
S'\xa8\xc6K\x17\xe0KEA'
p23
tp24
Rp25
ag10
(g14
S'+\x08\xac\xbc\xf3KEA'
p26
tp27
Rp28
ag10
(g14
S'P\xe3\xa5\xbb\xc5KEA'
p29
tp30
Rp31
ag10
(g14
S'\x11\xaeG\xb1RLEA'
p32
tp33
Rp34
ag10
(g14
S'\xac\xe4\x17{ULEA'
p35
tp36
Rp37
ag10
(g14
S'\xa2\x9b\xc4\xf0\xbeKEA'
p38
tp39
Rp40
ag10
(g14
S'`\x10X\xe9KLEA'
p41
tp42
Rp43
ag10
(g14
S'\xa9\x1cZ\xe4\xa4KEA'
p44
tp45
Rp46
ag10
(g14
S'z\xc0\xca\xd1\xe9KEA'
p47
tp48
Rp49
ag10
(g14
S'\xcfMb\x80\xd0KEA'
p50
tp51
Rp52
ag10
(g14
S'=\xe1z\xb4\x86KEA'
p53
tp54
Rp55
ag10
(g14
S'F\x8d\x97\x8e\x9fKEA'
p56
tp57
Rp58
ag10
(g14
S'B\xe1zd\x11LEA'
p59
tp60
Rp61
ag10
(g14
S'\x8f\x99\x99\xf9\x8dKEA'
p62
tp63
Rp64
ag10
(g14
S'\xae\x9d\xef\xc7~KEA'
p65
tp66
Rp67
ag10
(g14
S'\x96\x9b\xc40\x99KEA'
p68
tp69
Rp70
ag10
(g14
S'\xe7\xa7\xc6\xeb\xe1KEA'
p71
tp72
Rp73
ag10
(g14
S'\xcf\xa3p\xad@KEA'
p74
tp75
Rp76
asS'target'
p77
(lp78
g10
(g14
S'f\x91\xed|?\xd5]@'
p79
tp80
Rp81
ag10
(g14
S'\x08\x81\x95C\x8b\xecS@'
p82
tp83
Rp84
ag10
(g14
S'X\x0e-\xb2\x9d7S@'
p85
tp86
Rp87
ag10
(g14
S'V\x8f\xc2\xf5($S@'
p88
tp89
Rp90
ag10
(g14
S'\xb2\xf1\xd2Mb\xc0R@'
p91
tp92
Rp93
ag10
(g14
S'\x94\xc2\xf5(\\gS@'
p94
tp95
Rp96
ag10
(g14
S'!/\xdd$\x06\x19X@'
p97
tp98
Rp99
ag10
(g14
S'\xbaI\x0c\x02+wR@'
p100
tp101
Rp102
ag10
(g14
S'\x02V\x0e-\xb2-U@'
p103
tp104
Rp105
ag10
(g14
S'y\xe9&1\x08dR@'
p106
tp107
Rp108
ag10
(g14
S'\x92C\x8bl\xe7\xabU@'
p109
tp110
Rp111
ag10
(g14
S'\xa4\xef\xa7\xc6K/Z@'
p112
tp113
Rp114
ag10
(g14
S'I7\x89A`\xfdR@'
p115
tp116
Rp117
ag10
(g14
S'e\xe5\xd0"\xdb\xd9V@'
p118
tp119
Rp120
ag10
(g14
S'K\xb8\x1e\x85\xeb!V@'
p121
tp122
Rp123
ag10
(g14
S'M7\x89A`\xb5[@'
p124
tp125
Rp126
ag10
(g14
S'5^\xbaI\x0c2V@'
p127
tp128
Rp129
ag10
(g14
S'\xff(\\\x8f\xc2)W@'
p130
tp131
Rp132
ag10
(g14
S'\xf5|?5^"V@'
p133
tp134
Rp135
ag10
(g14
S'\x06\x7fj\xbctCR@'
p136
tp137
Rp138
asssss.