(dp0
S'../Data/sqlite_91.csv'
p1
(dp2
S'../Data/sqlite_3.csv'
p3
(dp4
F0.1
(dp5
S'abs_res'
p6
(dp7
S'bellwether'
p8
(lp9
cnumpy.core.multiarray
scalar
p10
(cnumpy
dtype
p11
(S'f8'
p12
I0
I1
tp13
Rp14
(I3
S'<'
p15
NNNI-1
I-1
I0
tp16
bS'\xf4D\xfd\xdbnh&A'
p17
tp18
Rp19
ag10
(g14
S']\xe5\xd0bn_&A'
p20
tp21
Rp22
ag10
(g14
S'\xed\xa7\xc6K\xf4X&A'
p23
tp24
Rp25
ag10
(g14
S'\x9c\xef\xa7\xc6XV&A'
p26
tp27
Rp28
ag10
(g14
S'\xdf\xdd\xdd\xdd\x8b`&A'
p29
tp30
Rp31
ag10
(g14
S'j\x91\xed\xfc\xb2c&A'
p32
tp33
Rp34
ag10
(g14
S'\xe2$\x06A9K&A'
p35
tp36
Rp37
ag10
(g14
S'cff&\x81a&A'
p38
tp39
Rp40
ag10
(g14
S'UH\x9a\xd27f&A'
p41
tp42
Rp43
ag10
(g14
S'R\xe3\xa5\x1b\x88]&A'
p44
tp45
Rp46
ag10
(g14
S'\x0e\x90{\x8d\x94`&A'
p47
tp48
Rp49
ag10
(g14
S'\xf7\xfd\xd4\xf8Uc&A'
p50
tp51
Rp52
ag10
(g14
S'\xa7\xf1\xd2\r<W&A'
p53
tp54
Rp55
ag10
(g14
S'\xb7\xc8v>\x9aZ&A'
p56
tp57
Rp58
ag10
(g14
S'`s!\xe9\x84Y&A'
p59
tp60
Rp61
ag10
(g14
S'h\xcbZ\x9d\xc8Z&A'
p62
tp63
Rp64
ag10
(g14
S'\x99\x1a/\x1d\xe9J&A'
p65
tp66
Rp67
ag10
(g14
S'\xa3\x99\x99\x99\x89i&A'
p68
tp69
Rp70
ag10
(g14
S'\x15X9\xf4\xdfU&A'
p71
tp72
Rp73
ag10
(g14
S'x\x93\x18D\xe6g&A'
p74
tp75
Rp76
asS'target'
p77
(lp78
g10
(g14
S'\x9d\xef\xa7\xc6K\x13s@'
p79
tp80
Rp81
ag10
(g14
S'\xf5~j\xbct)u@'
p82
tp83
Rp84
ag10
(g14
S':\n\xd7\xa3pUq@'
p85
tp86
Rp87
ag10
(g14
S'%\xdb\xf9~jHo@'
p88
tp89
Rp90
ag10
(g14
S'13333\xbfl@'
p91
tp92
Rp93
ag10
(g14
S'\xbcI\x0c\x02+\xfbo@'
p94
tp95
Rp96
ag10
(g14
S'\x87\x95C\x8bl\xfbo@'
p97
tp98
Rp99
ag10
(g14
S'H7\x89A`#p@'
p100
tp101
Rp102
ag10
(g14
S'\xd3 \xb0rh\xc5l@'
p103
tp104
Rp105
ag10
(g14
S'\xb6\xf3\xfd\xd4xim@'
p106
tp107
Rp108
ag10
(g14
S'\x90\xc2\xf5(\\}p@'
p109
tp110
Rp111
ag10
(g14
S'\xdb\xce\xf7S\xe3Lp@'
p112
tp113
Rp114
ag10
(g14
S'\xe2\xd0"\xdb\xf9\xb4p@'
p115
tp116
Rp117
ag10
(g14
S'\xcdv\xbe\x9f\x1acn@'
p118
tp119
Rp120
ag10
(g14
S'j\x12\x83\xc0\xcaem@'
p121
tp122
Rp123
ag10
(g14
S'\xec\xa7\xc6K7\xcdl@'
p124
tp125
Rp126
ag10
(g14
S'\x06\xd5x\xe9&5o@'
p127
tp128
Rp129
ag10
(g14
S'\xfa(\\\x8f\xc2+m@'
p130
tp131
Rp132
ag10
(g14
S'\xbf\xf3\xfd\xd4xQn@'
p133
tp134
Rp135
ag10
(g14
S'\x16/\xdd$\x06Sr@'
p136
tp137
Rp138
asssss.