(dp0
S'../Data/sqlite_66.csv'
p1
(dp2
S'../Data/sqlite_88.csv'
p3
(dp4
F0.3
(dp5
S'abs_res'
p6
(dp7
S'bellwether'
p8
(lp9
cnumpy.core.multiarray
scalar
p10
(cnumpy
dtype
p11
(S'f8'
p12
I0
I1
tp13
Rp14
(I3
S'<'
p15
NNNI-1
I-1
I0
tp16
bS'A\xa7\r\x04\xe7I]A'
p17
tp18
Rp19
ag10
(g14
S'\xb7\x81N[\xda=]A'
p20
tp21
Rp22
ag10
(g14
S'4m\xa0\x13\xfb\x80]A'
p23
tp24
Rp25
ag10
(g14
S'\x02\x00\x00\x18(S]A'
p26
tp27
Rp28
ag10
(g14
S'[\xc9/\xfe\xd21]A'
p29
tp30
Rp31
ag10
(g14
S'U\xb8\x1e\x05\x8f\x00]A'
p32
tp33
Rp34
ag10
(g14
S'x\x14\xae\xf7el]A'
p35
tp36
Rp37
ag10
(g14
S'k\xa0\xd3f\x974]A'
p38
tp39
Rp40
ag10
(g14
S'g\x03\x9dNrA]A'
p41
tp42
Rp43
ag10
(g14
S'\xf1Q\xb8v\x10,]A'
p44
tp45
Rp46
ag10
(g14
S'tww\xb7\x8a,]A'
p47
tp48
Rp49
ag10
(g14
S'"\xbfX\xd2Q\x0e]A'
p50
tp51
Rp52
ag10
(g14
S'H\xe1zl\xe2m]A'
p53
tp54
Rp55
ag10
(g14
S'\xa7\rtb\x9dR]A'
p56
tp57
Rp58
ag10
(g14
S'\xa3p=j{\xdc\\A'
p59
tp60
Rp61
ag10
(g14
S'Am\xa0\xab)#]A'
p62
tp63
Rp64
ag10
(g14
S'4\x96\xfc\xb2\x99P]A'
p65
tp66
Rp67
ag10
(g14
S'\xc3X\xf2\x1b\x06Y]A'
p68
tp69
Rp70
ag10
(g14
S'TUU\xa5\xca\x0e]A'
p71
tp72
Rp73
ag10
(g14
S'\x19\xe8\xb4)>4]A'
p74
tp75
Rp76
asS'target'
p77
(lp78
g10
(g14
S'\xca\xcc\xccL\xa6>+A'
p79
tp80
Rp81
ag10
(g14
S'\xaeG\xe1:\nN1A'
p82
tp83
Rp84
ag10
(g14
S"'\\\x8f\xc2\xbc\x9e/A"
p85
tp86
Rp87
ag10
(g14
S'\xb8\x1e\x85k\xdbU0A'
p88
tp89
Rp90
ag10
(g14
S'p=\n\xd7\xd4S+A'
p91
tp92
Rp93
ag10
(g14
S'\xdfz\x14\xae?v,A'
p94
tp95
Rp96
ag10
(g14
S'\xbe\x1e\x85\xebz\xd47A'
p97
tp98
Rp99
ag10
(g14
S'*\\\x8f\xc2\x91\xeb-A'
p100
tp101
Rp102
ag10
(g14
S'\x8d\xc2\xf5\xa8\\\x87.A'
p103
tp104
Rp105
ag10
(g14
S'23338~2A'
p106
tp107
Rp108
ag10
(g14
S'\xce\xcc\xcc\xcc\xe7^,A'
p109
tp110
Rp111
ag10
(g14
S'eff&/\x8a2A'
p112
tp113
Rp114
ag10
(g14
S'x\x14\xae\x87K\x044A'
p115
tp116
Rp117
ag10
(g14
S'&\\\x8f\xc2\xd6X-A'
p118
tp119
Rp120
ag10
(g14
S'\x1c\x85\xebQ\xd9\xf3*A'
p121
tp122
Rp123
ag10
(g14
S'\x82\xebQ8\xbcc,A'
p124
tp125
Rp126
ag10
(g14
S'y\x14\xaeG\xd5\x1d,A'
p127
tp128
Rp129
ag10
(g14
S'\xcd\xcc\xcc\xcc\xae\xe8*A'
p130
tp131
Rp132
ag10
(g14
S'\x0b\xd7\xa3\xf0\xb9n.A'
p133
tp134
Rp135
ag10
(g14
S'\xe1z\x14\xae\x1cP)A'
p136
tp137
Rp138
asssss.