(dp0
S'../Data/sqlite_2.csv'
p1
(dp2
S'../Data/sqlite_96.csv'
p3
(dp4
F0.3
(dp5
S'mmre'
p6
(dp7
S'bellwether'
p8
(lp9
cnumpy.core.multiarray
scalar
p10
(cnumpy
dtype
p11
(S'f8'
p12
I0
I1
tp13
Rp14
(I3
S'<'
p15
NNNI-1
I-1
I0
tp16
bS'\xb7.J\x0bzLW@'
p17
tp18
Rp19
ag10
(g14
S'\xb5ZPW\x80GW@'
p20
tp21
Rp22
ag10
(g14
S'^\xf5\xe3\xbf:OW@'
p23
tp24
Rp25
ag10
(g14
S'\xe4\xa4;\xfb\xc7HW@'
p26
tp27
Rp28
ag10
(g14
S'4\xcf\xf3*$LW@'
p29
tp30
Rp31
ag10
(g14
S'd!\xe8ghKW@'
p32
tp33
Rp34
ag10
(g14
S'\x8e\x91\x92\xaevKW@'
p35
tp36
Rp37
ag10
(g14
S'\xfea\xaa\xb0\x1cMW@'
p38
tp39
Rp40
ag10
(g14
S'\x0e\xa2^\x807MW@'
p41
tp42
Rp43
ag10
(g14
S"k\x07`'LDW@"
p44
tp45
Rp46
ag10
(g14
S'\xea\x95\x98\xf4\xfdLW@'
p47
tp48
Rp49
ag10
(g14
S'nu\x0c<~MW@'
p50
tp51
Rp52
ag10
(g14
S'\xa7\x86\xc9\xa1xOW@'
p53
tp54
Rp55
ag10
(g14
S'~ |A\nKW@'
p56
tp57
Rp58
ag10
(g14
S'I\xb0\xcb\x1e\xa9OW@'
p59
tp60
Rp61
ag10
(g14
S'\x00t\xd7GFKW@'
p62
tp63
Rp64
ag10
(g14
S'P\xd1\xc5 \x9cHW@'
p65
tp66
Rp67
ag10
(g14
S'n\xc8\x07m JW@'
p68
tp69
Rp70
ag10
(g14
S'\xca\xb2OB\xbdKW@'
p71
tp72
Rp73
ag10
(g14
S'kh\x02\xeb\xddHW@'
p74
tp75
Rp76
asS'target'
p77
(lp78
g10
(g14
S'\xa0\xfb0\x8c\n\x82[@'
p79
tp80
Rp81
ag10
(g14
S'\x1b.|W\x18>S@'
p82
tp83
Rp84
ag10
(g14
S'\xa5\xae<\xfe\xf8\xb8T@'
p85
tp86
Rp87
ag10
(g14
S'\x97\x8d\x9f\xdesLX@'
p88
tp89
Rp90
ag10
(g14
S'\x8f\xf2\xdbr\xd56V@'
p91
tp92
Rp93
ag10
(g14
S'\x80\xcf\x8fS3\x0eY@'
p94
tp95
Rp96
ag10
(g14
S'7E!\xd1\x10\x13R@'
p97
tp98
Rp99
ag10
(g14
S'\x87o\xba\x1f.\x8eM@'
p100
tp101
Rp102
ag10
(g14
S'\xf4+\n(FcP@'
p103
tp104
Rp105
ag10
(g14
S'\x02\xd9\xbc\x0b\xaa\x11W@'
p106
tp107
Rp108
ag10
(g14
S'\xc1j*\x02\xed^R@'
p109
tp110
Rp111
ag10
(g14
S'\xe5, d\x03\xd0S@'
p112
tp113
Rp114
ag10
(g14
S'\x866\x89\xfe\x82MN@'
p115
tp116
Rp117
ag10
(g14
S'\x9e\x10\x11{\xa2aU@'
p118
tp119
Rp120
ag10
(g14
S'\x07}\x169\\\x08Q@'
p121
tp122
Rp123
ag10
(g14
S'\xac\xd2H\xde\xed\x8bP@'
p124
tp125
Rp126
ag10
(g14
S'\xbef\xdcu\xfe\xf6Z@'
p127
tp128
Rp129
ag10
(g14
S'\xb8b\xf3\xce\x8blV@'
p130
tp131
Rp132
ag10
(g14
S'\xfb\xa5g=}:X@'
p133
tp134
Rp135
ag10
(g14
S'\xe1\xaeVc\xd64S@'
p136
tp137
Rp138
asssss.