(dp0
S'../Data/sqlite_71.csv'
p1
(dp2
S'../Data/sqlite_21.csv'
p3
(dp4
F0.05
(dp5
S'abs_res'
p6
(dp7
S'bellwether'
p8
(lp9
cnumpy.core.multiarray
scalar
p10
(cnumpy
dtype
p11
(S'f8'
p12
I0
I1
tp13
Rp14
(I3
S'<'
p15
NNNI-1
I-1
I0
tp16
bS'\x17\xaeG\x05\xb8=pA'
p17
tp18
Rp19
ag10
(g14
S'\xea&1Z\xe9?pA'
p20
tp21
Rp22
ag10
(g14
S'%\x06\x81;\xf3>pA'
p23
tp24
Rp25
ag10
(g14
S'\xf3\xd2M\x187=pA'
p26
tp27
Rp28
ag10
(g14
S'<Q\xff\xf4\x83@pA'
p29
tp30
Rp31
ag10
(g14
S'\xb4\x9d\xef\r\xee@pA'
p32
tp33
Rp34
ag10
(g14
S'\xb6rh5\x8a>pA'
p35
tp36
Rp37
ag10
(g14
S'\xc1I\x0c\xa6H?pA'
p38
tp39
Rp40
ag10
(g14
S'833\xa3\xbb<pA'
p41
tp42
Rp43
ag10
(g14
S'\x86\x95C\xcb\x05@pA'
p44
tp45
Rp46
ag10
(g14
S'\xab\x8e\t\x1e\xbf>pA'
p47
tp48
Rp49
ag10
(g14
S'\xea\xfb\xa9\xa7\x1e?pA'
p50
tp51
Rp52
ag10
(g14
S'S\x0e-\x16\x8aCpA'
p53
tp54
Rp55
ag10
(g14
S'\x99n\x12\x97$BpA'
p56
tp57
Rp58
ag10
(g14
S'(1\x08\xda\x95=pA'
p59
tp60
Rp61
ag10
(g14
S'\x1d\x85\xeb{\x8fApA'
p62
tp63
Rp64
ag10
(g14
S'\xda\xf9~\x82=ApA'
p65
tp66
Rp67
ag10
(g14
S'\t\xac\x1cv\xdb=pA'
p68
tp69
Rp70
ag10
(g14
S'\xaa\x1cZ\x0e,>pA'
p71
tp72
Rp73
ag10
(g14
S')1\x08\xb8$@pA'
p74
tp75
Rp76
asS'target'
p77
(lp78
g10
(g14
S'B\x8bl\xe7\xfbyi@'
p79
tp80
Rp81
ag10
(g14
S'\xefQ\xb8\x1e\x853l@'
p82
tp83
Rp84
ag10
(g14
S"'\x08\xac\x1cZ,n@"
p85
tp86
Rp87
ag10
(g14
S'+\x87\x16\xd9\xce?r@'
p88
tp89
Rp90
ag10
(g14
S'sffffrm@'
p91
tp92
Rp93
ag10
(g14
S':5^\xbaI\xc8h@'
p94
tp95
Rp96
ag10
(g14
S"th\x91\xed|'p@"
p97
tp98
Rp99
ag10
(g14
S'\x11/\xdd$\x06\xb5j@'
p100
tp101
Rp102
ag10
(g14
S'\x96\x18\x04V\x0e\x11m@'
p103
tp104
Rp105
ag10
(g14
S'$\x04V\x0e-\xdaj@'
p106
tp107
Rp108
ag10
(g14
S'4\x06\x81\x95C\x97n@'
p109
tp110
Rp111
ag10
(g14
S'Y9\xb4\xc8v\x96l@'
p112
tp113
Rp114
ag10
(g14
S'\xe4\xfb\xa9\xf1\xd2\xcdj@'
p115
tp116
Rp117
ag10
(g14
S"\xd2\xf7S\xe3\xa5'j@"
p118
tp119
Rp120
ag10
(g14
S'\x00\x7fj\xbct!p@'
p121
tp122
Rp123
ag10
(g14
S'\xa9\x1cZd;\x17i@'
p124
tp125
Rp126
ag10
(g14
S'\xd7"\xdb\xf9~Fm@'
p127
tp128
Rp129
ag10
(g14
S'\xad\x9d\xef\xa7\xc6;k@'
p130
tp131
Rp132
ag10
(g14
S'\xf2S\xe3\xa5\x9b\xc4h@'
p133
tp134
Rp135
ag10
(g14
S'9`\xe5\xd0"\x97i@'
p136
tp137
Rp138
asssss.