(dp0
S'../Data/sqlite_12.csv'
p1
(dp2
S'../Data/sqlite_89.csv'
p3
(dp4
F0.4
(dp5
S'mmre'
p6
(dp7
S'bellwether'
p8
(lp9
cnumpy.core.multiarray
scalar
p10
(cnumpy
dtype
p11
(S'f8'
p12
I0
I1
tp13
Rp14
(I3
S'<'
p15
NNNI-1
I-1
I0
tp16
bS'\x95\xba\xd6\xd4\x81\x81e@'
p17
tp18
Rp19
ag10
(g14
S'^\x8d\x8b\x0e\xfc\x0ce@'
p20
tp21
Rp22
ag10
(g14
S'\x90\xab\xd8:1\xe0e@'
p23
tp24
Rp25
ag10
(g14
S'\xdd\xdb\x9e\xb6\xef=e@'
p26
tp27
Rp28
ag10
(g14
S'\xd8x\xf8\xf8h\xb8e@'
p29
tp30
Rp31
ag10
(g14
S'xG\xaa\xcf\xffre@'
p32
tp33
Rp34
ag10
(g14
S'\x94C*\xe21Be@'
p35
tp36
Rp37
ag10
(g14
S'\x8eF\xce\x01d/f@'
p38
tp39
Rp40
ag10
(g14
S'Z\xb0/E\x033f@'
p41
tp42
Rp43
ag10
(g14
S'\xa9\xd8\xb5>(\x96e@'
p44
tp45
Rp46
ag10
(g14
S'\xae8v\xb2\xcaRe@'
p47
tp48
Rp49
ag10
(g14
S'\x19\x97\x1a\x07{\xb6e@'
p50
tp51
Rp52
ag10
(g14
S'\xc5\xab\x83a\xe6\xd1e@'
p53
tp54
Rp55
ag10
(g14
S'\xa6\xf5\\\x0cjye@'
p56
tp57
Rp58
ag10
(g14
S'z*\xc6\xb9rQe@'
p59
tp60
Rp61
ag10
(g14
S'IC\x9b\x8d\xa6ee@'
p62
tp63
Rp64
ag10
(g14
S'\xf5{.@\x03\x81e@'
p65
tp66
Rp67
ag10
(g14
S'\xc5\xf4\xfap\x85\xa2e@'
p68
tp69
Rp70
ag10
(g14
S'\xecWL\xd7Y\xb8e@'
p71
tp72
Rp73
ag10
(g14
S'\xab{\x1b>QVe@'
p74
tp75
Rp76
asS'target'
p77
(lp78
g10
(g14
S'T\x80lP\xde\xefQ@'
p79
tp80
Rp81
ag10
(g14
S'6jC\xb1?\x9dO@'
p82
tp83
Rp84
ag10
(g14
S'A\xd8\x8d\x90YKS@'
p85
tp86
Rp87
ag10
(g14
S'"pm\xdb\x88-L@'
p88
tp89
Rp90
ag10
(g14
S'\xda\x7f\xa1\xb7(*S@'
p91
tp92
Rp93
ag10
(g14
S'\xd63\x07\x82\x81\xd5L@'
p94
tp95
Rp96
ag10
(g14
S'k\x9b;\x19Z\x98N@'
p97
tp98
Rp99
ag10
(g14
S'\x05zp\xa9zQV@'
p100
tp101
Rp102
ag10
(g14
S'\xac\x80x\xd4\x89>P@'
p103
tp104
Rp105
ag10
(g14
S'\x85@f\x90\x97\x1cS@'
p106
tp107
Rp108
ag10
(g14
S'^1w\xf8\x9b=S@'
p109
tp110
Rp111
ag10
(g14
S'\x88)\x91~\xde\nP@'
p112
tp113
Rp114
ag10
(g14
S'j\x19;\xbc\xb4.Q@'
p115
tp116
Rp117
ag10
(g14
S'\xf1M-\x8bV\x83P@'
p118
tp119
Rp120
ag10
(g14
S'\xd5\xb3\xe3LO\xd0N@'
p121
tp122
Rp123
ag10
(g14
S'"g\x87\xf3\xfd\x99P@'
p124
tp125
Rp126
ag10
(g14
S"\xa16'(\xebcP@"
p127
tp128
Rp129
ag10
(g14
S'\x19\xa5^\xfd0bO@'
p130
tp131
Rp132
ag10
(g14
S'Dy]UiHQ@'
p133
tp134
Rp135
ag10
(g14
S'x\xad\x1e~\xa6\xdbN@'
p136
tp137
Rp138
asssss.