(dp0
S'../Data/sqlite_22.csv'
p1
(dp2
S'../Data/sqlite_62.csv'
p3
(dp4
F0.2
(dp5
S'mmre'
p6
(dp7
S'bellwether'
p8
(lp9
cnumpy.core.multiarray
scalar
p10
(cnumpy
dtype
p11
(S'f8'
p12
I0
I1
tp13
Rp14
(I3
S'<'
p15
NNNI-1
I-1
I0
tp16
bS'\xcbr\x84.\x80^U@'
p17
tp18
Rp19
ag10
(g14
S"G\x00\xca,'^U@"
p20
tp21
Rp22
ag10
(g14
S'\xa23\xca\xc1zaU@'
p23
tp24
Rp25
ag10
(g14
S'H\xcd\x07\x04(_U@'
p26
tp27
Rp28
ag10
(g14
S'F\x83\x14UBaU@'
p29
tp30
Rp31
ag10
(g14
S'\xbc\x9f\xaf\xa0\xf0`U@'
p32
tp33
Rp34
ag10
(g14
S'\xbe>c\x14\xa2`U@'
p35
tp36
Rp37
ag10
(g14
S'\x92\x99\xd8\xfc(`U@'
p38
tp39
Rp40
ag10
(g14
S'\xd4W\xb4u#_U@'
p41
tp42
Rp43
ag10
(g14
S'\x8c\x7fs\xdd\x13`U@'
p44
tp45
Rp46
ag10
(g14
S'h\x9f\x17\xb3IaU@'
p47
tp48
Rp49
ag10
(g14
S'D\x87\x03\xdf\xe6aU@'
p50
tp51
Rp52
ag10
(g14
S'(\xd9\xf5N\xaa^U@'
p53
tp54
Rp55
ag10
(g14
S'\xea\xfd/S/aU@'
p56
tp57
Rp58
ag10
(g14
S'.\x904\xf0\x8e_U@'
p59
tp60
Rp61
ag10
(g14
S'b\xdd\x16\xc8\xd3`U@'
p62
tp63
Rp64
ag10
(g14
S'^\xe8\xd6&g`U@'
p65
tp66
Rp67
ag10
(g14
S'D\xf0\xd2ox`U@'
p68
tp69
Rp70
ag10
(g14
S'q\x13\xdf\xeb\xa4_U@'
p71
tp72
Rp73
ag10
(g14
S'\xff\x93!t\x93aU@'
p74
tp75
Rp76
asS'target'
p77
(lp78
g10
(g14
S'RI\x9f\xaf\x00\xca @'
p79
tp80
Rp81
ag10
(g14
S'\r\xd3L\x10\xfb\xf5!@'
p82
tp83
Rp84
ag10
(g14
S'\xe9\x1a\xfb\x9b\xf7: @'
p85
tp86
Rp87
ag10
(g14
S'?{d$\xa2\x0f!@'
p88
tp89
Rp90
ag10
(g14
S'\xf0\x84\xff\xd7\x96\xfc!@'
p91
tp92
Rp93
ag10
(g14
S'\xfc}8Y7\xb3!@'
p94
tp95
Rp96
ag10
(g14
S"\x03\xc5\xd3\xf2'\xe3#@"
p97
tp98
Rp99
ag10
(g14
S'\xbd\xa1\xbb\x8b|\xfb @'
p100
tp101
Rp102
ag10
(g14
S'\xad\x02Q\xf4{\xc1!@'
p103
tp104
Rp105
ag10
(g14
S'I.r2\x7fI!@'
p106
tp107
Rp108
ag10
(g14
S'5k&P\x9af @'
p109
tp110
Rp111
ag10
(g14
S'\xda_-\xfeR,"@'
p112
tp113
Rp114
ag10
(g14
S'\x96\x96\xaaK\x7f\xed!@'
p115
tp116
Rp117
ag10
(g14
S'\x8e\xf3;8qN @'
p118
tp119
Rp120
ag10
(g14
S'\xb6\xdf\x0b\xdd\xce\x17!@'
p121
tp122
Rp123
ag10
(g14
S'\xcf\x06\xc2\xf2\x8c\xe2 @'
p124
tp125
Rp126
ag10
(g14
S'\x9fe\xf2\xcb-\xe2!@'
p127
tp128
Rp129
ag10
(g14
S'\t\xbdD\xa1\x07z!@'
p130
tp131
Rp132
ag10
(g14
S'H\x86?A\xe9D!@'
p133
tp134
Rp135
ag10
(g14
S'hW\x00\x92l\x1c"@'
p136
tp137
Rp138
asssss.