(dp0
S'../Data/sqlite_41.csv'
p1
(dp2
S'../Data/sqlite_90.csv'
p3
(dp4
F0.05
(dp5
S'mmre'
p6
(dp7
S'bellwether'
p8
(lp9
cnumpy.core.multiarray
scalar
p10
(cnumpy
dtype
p11
(S'f8'
p12
I0
I1
tp13
Rp14
(I3
S'<'
p15
NNNI-1
I-1
I0
tp16
bS'O\xaeI\xed\x01IT@'
p17
tp18
Rp19
ag10
(g14
S'\x88\xcbJ\x1c\xc9FT@'
p20
tp21
Rp22
ag10
(g14
S'\x84Af\x0c\xe7MT@'
p23
tp24
Rp25
ag10
(g14
S'\xb6`ov\x04RT@'
p26
tp27
Rp28
ag10
(g14
S'\x9b=\xc7\x91\x84JT@'
p29
tp30
Rp31
ag10
(g14
S'x\x8d\x80C\xfaIT@'
p32
tp33
Rp34
ag10
(g14
S'\xd7\x7fy<<IT@'
p35
tp36
Rp37
ag10
(g14
S'\x02td!\xc3HT@'
p38
tp39
Rp40
ag10
(g14
S'\x80k(\xad\xa0GT@'
p41
tp42
Rp43
ag10
(g14
S'\x9c\xe8\xe2\x12\x1cKT@'
p44
tp45
Rp46
ag10
(g14
S'Q8\xd5$)PT@'
p47
tp48
Rp49
ag10
(g14
S'\x1dGa\xe0\xd7UT@'
p50
tp51
Rp52
ag10
(g14
S'\x07j1h\xdePT@'
p53
tp54
Rp55
ag10
(g14
S'|\x7f0\xde\xb2NT@'
p56
tp57
Rp58
ag10
(g14
S"RR\x05'\x0bRT@"
p59
tp60
Rp61
ag10
(g14
S'J\xdeU\x82bRT@'
p62
tp63
Rp64
ag10
(g14
S'L\x80\xf6\xd8\x99IT@'
p65
tp66
Rp67
ag10
(g14
S"\xee'\xe6\xa7\xe5QT@"
p68
tp69
Rp70
ag10
(g14
S'\xb2\xf8."5QT@'
p71
tp72
Rp73
ag10
(g14
S'\xc7-\xcdD\xadKT@'
p74
tp75
Rp76
asS'target'
p77
(lp78
g10
(g14
S't(\xb7p\x8b\x81@@'
p79
tp80
Rp81
ag10
(g14
S'\x19\x95\xd6\xc1\xe5\xfc@@'
p82
tp83
Rp84
ag10
(g14
S'>6~\xf7\x06"A@'
p85
tp86
Rp87
ag10
(g14
S'1}\xcej\x96\x1aD@'
p88
tp89
Rp90
ag10
(g14
S'ey\xff6\xaf\x9e=@'
p91
tp92
Rp93
ag10
(g14
S'(\x9b\xb9\xafq\xc4@@'
p94
tp95
Rp96
ag10
(g14
S'k^\xd4\x85\x9d<@@'
p97
tp98
Rp99
ag10
(g14
S'\x06#\xfbR{\x0c?@'
p100
tp101
Rp102
ag10
(g14
S'E\xe2\xd8Q\xd6]B@'
p103
tp104
Rp105
ag10
(g14
S'\xf2G\xee\xd1)9@@'
p106
tp107
Rp108
ag10
(g14
S'\xa9\x8diu\xa2\x9eC@'
p109
tp110
Rp111
ag10
(g14
S'\xe0\\N\x1edCB@'
p112
tp113
Rp114
ag10
(g14
S'\xa8yML\xcb\xc3A@'
p115
tp116
Rp117
ag10
(g14
S'\xe4\xa8f)\x1d\x04@@'
p118
tp119
Rp120
ag10
(g14
S'\x91\n\xd5\xf4\xd1\x0f@@'
p121
tp122
Rp123
ag10
(g14
S'6_\x19<\x90\xfe@@'
p124
tp125
Rp126
ag10
(g14
S'\x9a\x9f\xa1\xbf\xa87=@'
p127
tp128
Rp129
ag10
(g14
S'\xedI\xef\xe7t\rC@'
p130
tp131
Rp132
ag10
(g14
S'\xbe1\x04\x88Y\x13D@'
p133
tp134
Rp135
ag10
(g14
S'\xdc\x8e\x96B\xa3\x19A@'
p136
tp137
Rp138
asssss.