(dp0
S'../Data/sqlite_54.csv'
p1
(dp2
S'../Data/sqlite_78.csv'
p3
(dp4
F0.4
(dp5
S'mmre'
p6
(dp7
S'bellwether'
p8
(lp9
cnumpy.core.multiarray
scalar
p10
(cnumpy
dtype
p11
(S'f8'
p12
I0
I1
tp13
Rp14
(I3
S'<'
p15
NNNI-1
I-1
I0
tp16
bS" \xc7\x1d'\x1e\xf1x@"
p17
tp18
Rp19
ag10
(g14
S'\x1f[\xb5Gg=y@'
p20
tp21
Rp22
ag10
(g14
S'U\xf1l\xe4IYy@'
p23
tp24
Rp25
ag10
(g14
S'G\xe2\x81\x81s8y@'
p26
tp27
Rp28
ag10
(g14
S'W\x06\xe8_\x8c3y@'
p29
tp30
Rp31
ag10
(g14
S'xO\xa8e\xd8jy@'
p32
tp33
Rp34
ag10
(g14
S't\xf8\xb7WX\x1dy@'
p35
tp36
Rp37
ag10
(g14
S'Qym1\x0cKy@'
p38
tp39
Rp40
ag10
(g14
S'cl\x9e)\xf6\ny@'
p41
tp42
Rp43
ag10
(g14
S'\xad\x8b\x01\xcbu<y@'
p44
tp45
Rp46
ag10
(g14
S'\xc9\xe2\x01w6<y@'
p47
tp48
Rp49
ag10
(g14
S'\x05F\xa8\xf0\x8d1y@'
p50
tp51
Rp52
ag10
(g14
S'\x0f\xc0n\x92F3y@'
p53
tp54
Rp55
ag10
(g14
S'\xf3m\xa66?\x0cy@'
p56
tp57
Rp58
ag10
(g14
S'\x05\x81\x9f\xff\x8d/y@'
p59
tp60
Rp61
ag10
(g14
S'sD\xddh_Iy@'
p62
tp63
Rp64
ag10
(g14
S'H\x96\xe82!Gy@'
p65
tp66
Rp67
ag10
(g14
S'\xa7/J\xf2\xb9\x19y@'
p68
tp69
Rp70
ag10
(g14
S"\xce\xa7\x9a\xd9Z'y@"
p71
tp72
Rp73
ag10
(g14
S'\x0e\xb01M\xa7\ry@'
p74
tp75
Rp76
asS'target'
p77
(lp78
g10
(g14
S'y\x18|\xe8]\xd02@'
p79
tp80
Rp81
ag10
(g14
S'\x03\xde\x1aK\xce\xcc2@'
p82
tp83
Rp84
ag10
(g14
S'\xb0\xec\xb3k\x05\xa25@'
p85
tp86
Rp87
ag10
(g14
S'\x91\xa8\xffM\xd5\x923@'
p88
tp89
Rp90
ag10
(g14
S'Xj\x99\xdd\xdd\x9e2@'
p91
tp92
Rp93
ag10
(g14
S'J\x0f\xae{\x10*4@'
p94
tp95
Rp96
ag10
(g14
S'T\xf0U6or3@'
p97
tp98
Rp99
ag10
(g14
S't`>\x08\xef\xc04@'
p100
tp101
Rp102
ag10
(g14
S'LR\xf91\nG3@'
p103
tp104
Rp105
ag10
(g14
S'Nu\x8a4\xb5G3@'
p106
tp107
Rp108
ag10
(g14
S'\xf4b\xb2\xbb\xe0\x913@'
p109
tp110
Rp111
ag10
(g14
S'p\x8c\xd7\xc6M\xd92@'
p112
tp113
Rp114
ag10
(g14
S'6\xffV\xea\xd4\xd94@'
p115
tp116
Rp117
ag10
(g14
S'\x9f0\xfbc\x1dm3@'
p118
tp119
Rp120
ag10
(g14
S'\xac\xcage\xb3\x874@'
p121
tp122
Rp123
ag10
(g14
S'c@f\xadq\xde3@'
p124
tp125
Rp126
ag10
(g14
S'\x7fN\x03Yj\xe23@'
p127
tp128
Rp129
ag10
(g14
S'\x10\xba\x81\xf8\xb1\x8a3@'
p130
tp131
Rp132
ag10
(g14
S'\x94\xe0\xea\xc6\t\x183@'
p133
tp134
Rp135
ag10
(g14
S'$\xe1\xbc\x82$\xa23@'
p136
tp137
Rp138
asssss.