(dp0
S'../Data/sqlite_25.csv'
p1
(dp2
S'../Data/sqlite_1.csv'
p3
(dp4
F0.05
(dp5
S'abs_res'
p6
(dp7
S'bellwether'
p8
(lp9
cnumpy.core.multiarray
scalar
p10
(cnumpy
dtype
p11
(S'f8'
p12
I0
I1
tp13
Rp14
(I3
S'<'
p15
NNNI-1
I-1
I0
tp16
bS'C\xe1z4\x08:>A'
p17
tp18
Rp19
ag10
(g14
S'+\\\x8f\xa2\x7f8>A'
p20
tp21
Rp22
ag10
(g14
S'\xeeQ\xb8\xfe[:>A'
p23
tp24
Rp25
ag10
(g14
S'dff\x06T9>A'
p26
tp27
Rp28
ag10
(g14
S'\xf9(\\oD9>A'
p29
tp30
Rp31
ag10
(g14
S'\xa8p=\xca#8>A'
p32
tp33
Rp34
ag10
(g14
S'\x08\xd7\xa3\xb0`:>A'
p35
tp36
Rp37
ag10
(g14
S'D\xe1zt\xfb9>A'
p38
tp39
Rp40
ag10
(g14
S'\xd4\xa3p\xfdG;>A'
p41
tp42
Rp43
ag10
(g14
S'\x01\x00\x00`\xe79>A'
p44
tp45
Rp46
ag10
(g14
S'\x82\x14\xae\xc7\xa19>A'
p47
tp48
Rp49
ag10
(g14
S'\xda\xa3p=V:>A'
p50
tp51
Rp52
ag10
(g14
S'\x13\xaeG\x01\r:>A'
p53
tp54
Rp55
ag10
(g14
S'\xc4/\x96\xbc\xab9>A'
p56
tp57
Rp58
ag10
(g14
S'\xbf\x1e\x85\xab\x889>A'
p59
tp60
Rp61
ag10
(g14
S'_\x8f\xc25\x85:>A'
p62
tp63
Rp64
ag10
(g14
S'V\xb8\x1e\x05\xc39>A'
p65
tp66
Rp67
ag10
(g14
S'\xacp=\x8a\x9b9>A'
p68
tp69
Rp70
ag10
(g14
S'\xdez\x14.L9>A'
p71
tp72
Rp73
ag10
(g14
S'9\n\xd7CO:>A'
p74
tp75
Rp76
asS'target'
p77
(lp78
g10
(g14
S'jffff\n\xd6@'
p79
tp80
Rp81
ag10
(g14
S'\xf8\xff\xff\xff\xdf\xc8\xd5@'
p82
tp83
Rp84
ag10
(g14
S'hffff\xab\xd4@'
p85
tp86
Rp87
ag10
(g14
S'afffF\r\xd5@'
p88
tp89
Rp90
ag10
(g14
S'\xd2\xcc\xcc\xcc\xcce\xd3@'
p91
tp92
Rp93
ag10
(g14
S'ifffF=\xd5@'
p94
tp95
Rp96
ag10
(g14
S'\x07\x00\x00\x00@9\xd3@'
p97
tp98
Rp99
ag10
(g14
S'-333\xd3\xbf\xd5@'
p100
tp101
Rp102
ag10
(g14
S'lfffF\xd0\xd4@'
p103
tp104
Rp105
ag10
(g14
S'\xa0\x99\x99\x99\x99\x91\xd2@'
p106
tp107
Rp108
ag10
(g14
S'\x00\x00\x00\x00`w\xd7@'
p109
tp110
Rp111
ag10
(g14
S'/333s\x17\xd5@'
p112
tp113
Rp114
ag10
(g14
S'0333\xd3*\xd4@'
p115
tp116
Rp117
ag10
(g14
S'-333\x93l\xd3@'
p118
tp119
Rp120
ag10
(g14
S'ifffF+\xd3@'
p121
tp122
Rp123
ag10
(g14
S'\x9e\x99\x99\x99\xd9\x8e\xd3@'
p124
tp125
Rp126
ag10
(g14
S'\xe3\xcc\xcc\xccL\xbe\xd2@'
p127
tp128
Rp129
ag10
(g14
S'\x04\x00\x00\x00\x00)\xd6@'
p130
tp131
Rp132
ag10
(g14
S'2333\x13\xa5\xd4@'
p133
tp134
Rp135
ag10
(g14
S'\x92\x99\x99\x99ys\xd4@'
p136
tp137
Rp138
asssss.