(dp0
S'../Data/sqlite_56.csv'
p1
(dp2
S'../Data/sqlite_59.csv'
p3
(dp4
F0.3
(dp5
S'mmre'
p6
(dp7
S'bellwether'
p8
(lp9
cnumpy.core.multiarray
scalar
p10
(cnumpy
dtype
p11
(S'f8'
p12
I0
I1
tp13
Rp14
(I3
S'<'
p15
NNNI-1
I-1
I0
tp16
bS'\xd7\xd1\x8dj\xecRC@'
p17
tp18
Rp19
ag10
(g14
S'\x92\xdd\xbf\x176vC@'
p20
tp21
Rp22
ag10
(g14
S'\xec$t\x94\xbbAC@'
p23
tp24
Rp25
ag10
(g14
S'\x15\xb5\xdb\xbd7fC@'
p26
tp27
Rp28
ag10
(g14
S'U\x10Oc|YC@'
p29
tp30
Rp31
ag10
(g14
S'\xf2,\xf5\xbeefC@'
p32
tp33
Rp34
ag10
(g14
S'\xb7\xf7\xf2\xdb\xa3RC@'
p35
tp36
Rp37
ag10
(g14
S'w(P\xc7\x0cjC@'
p38
tp39
Rp40
ag10
(g14
S'\xa1\xfbR\xa5\xea[C@'
p41
tp42
Rp43
ag10
(g14
S'\xe7\x15\x11X+lC@'
p44
tp45
Rp46
ag10
(g14
S'I4E\x8f:tC@'
p47
tp48
Rp49
ag10
(g14
S'\xd0\xab7\x87\xd0OC@'
p50
tp51
Rp52
ag10
(g14
S'+\xa6<>YOC@'
p53
tp54
Rp55
ag10
(g14
S'\xa0\xadV\x0e\xcdDC@'
p56
tp57
Rp58
ag10
(g14
S'\xed\x9c\x1b7pYC@'
p59
tp60
Rp61
ag10
(g14
S'\xbf\x94\x8aO\x18iC@'
p62
tp63
Rp64
ag10
(g14
S'\xf0\xfa\x00S\x83bC@'
p65
tp66
Rp67
ag10
(g14
S'\x07\xa3\x9f\x1a:YC@'
p68
tp69
Rp70
ag10
(g14
S'Ei[\x8cnSC@'
p71
tp72
Rp73
ag10
(g14
S'W~\xd0\x81Y^C@'
p74
tp75
Rp76
asS'target'
p77
(lp78
g10
(g14
S'T\x8bi8\xe9\xd9%@'
p79
tp80
Rp81
ag10
(g14
S'\xb5\xdf\xb1\xd2Bu%@'
p82
tp83
Rp84
ag10
(g14
S'=\xa6\xb9"\xd9\xcc&@'
p85
tp86
Rp87
ag10
(g14
S"\xb2w\xc0\xe5\xff\x02'@"
p88
tp89
Rp90
ag10
(g14
S'R\xb2\x91n\x16U%@'
p91
tp92
Rp93
ag10
(g14
S'\x05[\x9a\xf5\xb9\x81%@'
p94
tp95
Rp96
ag10
(g14
S'4\xe6;.\xfd=&@'
p97
tp98
Rp99
ag10
(g14
S'\x9e\xe14\x8a\xb6]%@'
p100
tp101
Rp102
ag10
(g14
S'$\xd1\xbb\x83`\x9e#@'
p103
tp104
Rp105
ag10
(g14
S'^\xa0a\xbd\xb5N$@'
p106
tp107
Rp108
ag10
(g14
S'\xaf\xb0\xf5\xc1\xbfI$@'
p109
tp110
Rp111
ag10
(g14
S'4\x08\x005^\x17&@'
p112
tp113
Rp114
ag10
(g14
S'\x87\x9b\x7fU0\xe3&@'
p115
tp116
Rp117
ag10
(g14
S'\xe0\x11\x02\x83\xd5\x1c&@'
p118
tp119
Rp120
ag10
(g14
S"\xc5\x03I\xf6\xa1 '@"
p121
tp122
Rp123
ag10
(g14
S'\xd0\x96B\x10O\xb1%@'
p124
tp125
Rp126
ag10
(g14
S"&Ml99\xc6'@"
p127
tp128
Rp129
ag10
(g14
S'\xceO,_j\x08&@'
p130
tp131
Rp132
ag10
(g14
S'\xa6>\x8bNO\x9e%@'
p133
tp134
Rp135
ag10
(g14
S"t\x1d\x0b\xe0k!'@"
p136
tp137
Rp138
asssss.