(dp0
S'../Data/sqlite_15.csv'
p1
(dp2
S'../Data/sqlite_47.csv'
p3
(dp4
F0.15
(dp5
S'abs_res'
p6
(dp7
S'bellwether'
p8
(lp9
cnumpy.core.multiarray
scalar
p10
(cnumpy
dtype
p11
(S'f8'
p12
I0
I1
tp13
Rp14
(I3
S'<'
p15
NNNI-1
I-1
I0
tp16
bS'\xc3\xae\x009\x9e(@A'
p17
tp18
Rp19
ag10
(g14
S"W\xc7\x04o\xed'@A"
p20
tp21
Rp22
ag10
(g14
S'*\xb2\x9d\xcf)(@A'
p23
tp24
Rp25
ag10
(g14
S'\xc8\xd9\x87\xbf/(@A'
p26
tp27
Rp28
ag10
(g14
S'ADD$,(@A'
p29
tp30
Rp31
ag10
(g14
S'\xee(\\/\x8d(@A'
p32
tp33
Rp34
ag10
(g14
S"0\xdd$6\xd8'@A"
p35
tp36
Rp37
ag10
(g14
S"\x14\xd9\xce\xc7\xee'@A"
p38
tp39
Rp40
ag10
(g14
S"\xa8\xc6K\x07`'@A"
p41
tp42
Rp43
ag10
(g14
S"\xa0\x8c\xde&\xc4'@A"
p44
tp45
Rp46
ag10
(g14
S'"\x94\xd1K\xc6\'@A'
p47
tp48
Rp49
ag10
(g14
S'Lb\x10(\x12(@A'
p50
tp51
Rp52
ag10
(g14
S'\x85\xc0\xca\x01q(@A'
p53
tp54
Rp55
ag10
(g14
S'>\x89Ap\xb7(@A'
p56
tp57
Rp58
ag10
(g14
S'\xbb\xd7\\\x18\xa2(@A'
p59
tp60
Rp61
ag10
(g14
S'\xc0t\x93\xc8\x1f(@A'
p62
tp63
Rp64
ag10
(g14
S'\xc2\xca\xa1\xd5\xb7(@A'
p65
tp66
Rp67
ag10
(g14
S'\xce\xa1E&\x00(@A'
p68
tp69
Rp70
ag10
(g14
S'3^\xba\tC(@A'
p71
tp72
Rp73
ag10
(g14
S'QUU\x851)@A'
p74
tp75
Rp76
asS'target'
p77
(lp78
g10
(g14
S'\x89A`\xe5\xd0\xea_@'
p79
tp80
Rp81
ag10
(g14
S'\xd6\xf9~j\xbcL\\@'
p82
tp83
Rp84
ag10
(g14
S'\xc2\xf3\xfd\xd4x\xf9Y@'
p85
tp86
Rp87
ag10
(g14
S'g;\xdfO\x8d\xbf]@'
p88
tp89
Rp90
ag10
(g14
S'n\x14\xaeG\xe1\x86[@'
p91
tp92
Rp93
ag10
(g14
S'\xe8&1\x08\xacTZ@'
p94
tp95
Rp96
ag10
(g14
S'\xd8x\xe9&1HY@'
p97
tp98
Rp99
ag10
(g14
S'\xbet\x93\x18\x04\x9eY@'
p100
tp101
Rp102
ag10
(g14
S't\xbe\x9f\x1a/\x85\\@'
p103
tp104
Rp105
ag10
(g14
S'\xec(\\\x8f\xc2-[@'
p106
tp107
Rp108
ag10
(g14
S'\xb6\x9d\xef\xa7\xc6\x13[@'
p109
tp110
Rp111
ag10
(g14
S'\xf5(\\\x8f\xc2\xbdZ@'
p112
tp113
Rp114
ag10
(g14
S'L\xe1z\x14\xaeoZ@'
p115
tp116
Rp117
ag10
(g14
S'!\xaeG\xe1z\xc4Z@'
p118
tp119
Rp120
ag10
(g14
S'\xfc\xa9\xf1\xd2M"\\@'
p121
tp122
Rp123
ag10
(g14
S'<5^\xbaI\x1c]@'
p124
tp125
Rp126
ag10
(g14
S'#\xdb\xf9~j\xac\\@'
p127
tp128
Rp129
ag10
(g14
S'J7\x89A`\xddY@'
p130
tp131
Rp132
ag10
(g14
S'H\xe1z\x14\xae7Y@'
p133
tp134
Rp135
ag10
(g14
S'\x9ep=\n\xd7\x9bX@'
p136
tp137
Rp138
asssss.