(dp0
S'../Data/sqlite_16.csv'
p1
(dp2
S'../Data/sqlite_86.csv'
p3
(dp4
F0.15
(dp5
S'mmre'
p6
(dp7
S'bellwether'
p8
(lp9
cnumpy.core.multiarray
scalar
p10
(cnumpy
dtype
p11
(S'f8'
p12
I0
I1
tp13
Rp14
(I3
S'<'
p15
NNNI-1
I-1
I0
tp16
bS'N\x00uYQ\xaa4@'
p17
tp18
Rp19
ag10
(g14
S'\xdc\xa6\xfc"\xe4w4@'
p20
tp21
Rp22
ag10
(g14
S'-\x82\x8c\x7f6\\5@'
p23
tp24
Rp25
ag10
(g14
S'Q\xc8\xc6\x8ft\xc74@'
p26
tp27
Rp28
ag10
(g14
S'\x87-\xd7\x88{\xf24@'
p29
tp30
Rp31
ag10
(g14
S'V\xe8(Fd\xef4@'
p32
tp33
Rp34
ag10
(g14
S'0\xacm\x92\x8b\xfd4@'
p35
tp36
Rp37
ag10
(g14
S'\xe83\x0eD|a4@'
p38
tp39
Rp40
ag10
(g14
S't\xec\xf6R\xa7[4@'
p41
tp42
Rp43
ag10
(g14
S'.\x98\x0c\xe4\ty5@'
p44
tp45
Rp46
ag10
(g14
S'\xefTNk~\xdd4@'
p47
tp48
Rp49
ag10
(g14
S'\xb5\x08\xcb\xdd?_4@'
p50
tp51
Rp52
ag10
(g14
S'T\xf7\n\x90\x8c\r5@'
p53
tp54
Rp55
ag10
(g14
S'sK\xc6\xa6\xa0\x875@'
p56
tp57
Rp58
ag10
(g14
S'\xa5\xc9`\xf4y\xc74@'
p59
tp60
Rp61
ag10
(g14
S'\xd8I\xdbwT\n5@'
p62
tp63
Rp64
ag10
(g14
S"\x1a\xff_\x90'\xe34@"
p65
tp66
Rp67
ag10
(g14
S'X\x85\xf1V\x1c15@'
p68
tp69
Rp70
ag10
(g14
S'sm3s\xfa\xab4@'
p71
tp72
Rp73
ag10
(g14
S'\xd9>%\x13\x18g4@'
p74
tp75
Rp76
asS'target'
p77
(lp78
g10
(g14
S' \xa0\xab\xbc<8U@'
p79
tp80
Rp81
ag10
(g14
S'\x98\x86S:\x98"N@'
p82
tp83
Rp84
ag10
(g14
S'\xf5\xdap\x02M\x9aB@'
p85
tp86
Rp87
ag10
(g14
S'\xc4\xcd[mh4J@'
p88
tp89
Rp90
ag10
(g14
S'\xbe\x88)S\xf8\x1bE@'
p91
tp92
Rp93
ag10
(g14
S'\xa8\x85\xf9\xba\xab\xc4K@'
p94
tp95
Rp96
ag10
(g14
S'\xf8\xc0QN\x1fjQ@'
p97
tp98
Rp99
ag10
(g14
S'\xde\xd3\x8c\xa6T:V@'
p100
tp101
Rp102
ag10
(g14
S'\xfc1\x89&\xb0\xd4R@'
p103
tp104
Rp105
ag10
(g14
S'\xc3\x9f\xe0iR:O@'
p106
tp107
Rp108
ag10
(g14
S'~\x03\x86MH\xf4P@'
p109
tp110
Rp111
ag10
(g14
S'd\xb1\x95m\xfa\x9fM@'
p112
tp113
Rp114
ag10
(g14
S'\x1f8\x91\xd17\x18G@'
p115
tp116
Rp117
ag10
(g14
S'\x90\x9b2#\x8e\x8eI@'
p118
tp119
Rp120
ag10
(g14
S'\xff\x8dL<\xba]K@'
p121
tp122
Rp123
ag10
(g14
S'\x16\xa4._\xd1_I@'
p124
tp125
Rp126
ag10
(g14
S'\xb1n\t_r\x9eG@'
p127
tp128
Rp129
ag10
(g14
S'A\rr\xc2oZJ@'
p130
tp131
Rp132
ag10
(g14
S'\xbbw\xd4\x9d\xb4\xe3V@'
p133
tp134
Rp135
ag10
(g14
S'GL\x1a\xe2\xf1\x11U@'
p136
tp137
Rp138
asssss.