(dp0
S'../Data/sqlite_38.csv'
p1
(dp2
S'../Data/sqlite_88.csv'
p3
(dp4
F0.1
(dp5
S'mmre'
p6
(dp7
S'bellwether'
p8
(lp9
cnumpy.core.multiarray
scalar
p10
(cnumpy
dtype
p11
(S'f8'
p12
I0
I1
tp13
Rp14
(I3
S'<'
p15
NNNI-1
I-1
I0
tp16
bS'b\xaf\xe7\x06\x00cX@'
p17
tp18
Rp19
ag10
(g14
S'\xce;\xfb$\xa3[X@'
p20
tp21
Rp22
ag10
(g14
S'-\xfe\xe7\x93\xa2^X@'
p23
tp24
Rp25
ag10
(g14
S'\xeb2\xc0\xfb\xdf[X@'
p26
tp27
Rp28
ag10
(g14
S'\x86\xb9\xd0\xd5{_X@'
p29
tp30
Rp31
ag10
(g14
S'\xff\x11\x95"$^X@'
p32
tp33
Rp34
ag10
(g14
S'\x1eR%:\x14cX@'
p35
tp36
Rp37
ag10
(g14
S'I\xea\x06#\t]X@'
p38
tp39
Rp40
ag10
(g14
S'\x90\xf0R\x1c\x05`X@'
p41
tp42
Rp43
ag10
(g14
S'!\xa4\xcf\xd7Y]X@'
p44
tp45
Rp46
ag10
(g14
S'h\xf3\xe3W\xf8_X@'
p47
tp48
Rp49
ag10
(g14
S'\xe9\xa4|\x0c\xa4[X@'
p50
tp51
Rp52
ag10
(g14
S']]\xe6\x92\x8bdX@'
p53
tp54
Rp55
ag10
(g14
S'\xe4\xcb\xb1\xa7s_X@'
p56
tp57
Rp58
ag10
(g14
S'H\x96ME\x14`X@'
p59
tp60
Rp61
ag10
(g14
S'\x19\x83)\xac\xd4_X@'
p62
tp63
Rp64
ag10
(g14
S'I\x8c\x18r\xdc^X@'
p65
tp66
Rp67
ag10
(g14
S'N\x0c7tFaX@'
p68
tp69
Rp70
ag10
(g14
S'\xc5/&\x1b\xfc_X@'
p71
tp72
Rp73
ag10
(g14
S'v:c\x98L^X@'
p74
tp75
Rp76
asS'target'
p77
(lp78
g10
(g14
S"'\x00qI\x16\xf9I@"
p79
tp80
Rp81
ag10
(g14
S'Oq\xb5\x06\xe2\xa7K@'
p82
tp83
Rp84
ag10
(g14
S'C\x9a\xdc\x86\x17\xdeM@'
p85
tp86
Rp87
ag10
(g14
S'\xa0\x13\xc2\xe5\xda\xb8L@'
p88
tp89
Rp90
ag10
(g14
S'\x06\x88\x1d\xad\x9f\xbeJ@'
p91
tp92
Rp93
ag10
(g14
S'K\x13r\x88\xcb%K@'
p94
tp95
Rp96
ag10
(g14
S'f\xc9\xe9X\xb9\xe0M@'
p97
tp98
Rp99
ag10
(g14
S'\x19\xba>K\x10nS@'
p100
tp101
Rp102
ag10
(g14
S'\xcc9\x930\x82sL@'
p103
tp104
Rp105
ag10
(g14
S'\x94J],\xb5\xcdQ@'
p106
tp107
Rp108
ag10
(g14
S'\xee?l\x00\x03iH@'
p109
tp110
Rp111
ag10
(g14
S'R\xed\xe6T\xbc\xe4L@'
p112
tp113
Rp114
ag10
(g14
S'\x98\xf3M\xa5f\xf3G@'
p115
tp116
Rp117
ag10
(g14
S'\xb55\x98\xe4mNK@'
p118
tp119
Rp120
ag10
(g14
S'u}\xfaZ\n3K@'
p121
tp122
Rp123
ag10
(g14
S'&\xa8~\x13\xbf\xd0L@'
p124
tp125
Rp126
ag10
(g14
S']+C\xd5\x06\x1eL@'
p127
tp128
Rp129
ag10
(g14
S'\x8c\xeb\x8b\xf0h\x8dL@'
p130
tp131
Rp132
ag10
(g14
S'z\xf9x\x1cn\xbdJ@'
p133
tp134
Rp135
ag10
(g14
S"'\xdeiM\x96UL@"
p136
tp137
Rp138
asssss.