(dp0
S'../Data/sqlite_14.csv'
p1
(dp2
S'../Data/sqlite_91.csv'
p3
(dp4
F0.25
(dp5
S'mmre'
p6
(dp7
S'bellwether'
p8
(lp9
cnumpy.core.multiarray
scalar
p10
(cnumpy
dtype
p11
(S'f8'
p12
I0
I1
tp13
Rp14
(I3
S'<'
p15
NNNI-1
I-1
I0
tp16
bS'c?l\xe3RmX@'
p17
tp18
Rp19
ag10
(g14
S'\x06Z\xae2\xbdvX@'
p20
tp21
Rp22
ag10
(g14
S'\xe7O{\xf0\xa4uX@'
p23
tp24
Rp25
ag10
(g14
S'\x95"\xa7\xaetuX@'
p26
tp27
Rp28
ag10
(g14
S'@I\xe0\x80\xe1rX@'
p29
tp30
Rp31
ag10
(g14
S'\xb7i@\xca\x02\x80X@'
p32
tp33
Rp34
ag10
(g14
S's*\x08\xcefsX@'
p35
tp36
Rp37
ag10
(g14
S'~\x98G\x0f\xc8sX@'
p38
tp39
Rp40
ag10
(g14
S'\x97\xed\xdf6^pX@'
p41
tp42
Rp43
ag10
(g14
S'N\x98f5\x9etX@'
p44
tp45
Rp46
ag10
(g14
S'\x04\x0f(\xb2\x07rX@'
p47
tp48
Rp49
ag10
(g14
S':\x17\x98\xaf\x84uX@'
p50
tp51
Rp52
ag10
(g14
S'\xc5\xc0\x90"\x9bwX@'
p53
tp54
Rp55
ag10
(g14
S'c\xab\xf4\x7f\x82kX@'
p56
tp57
Rp58
ag10
(g14
S'\x01d6\xdc}{X@'
p59
tp60
Rp61
ag10
(g14
S'\rw{\xb5\xdclX@'
p62
tp63
Rp64
ag10
(g14
S't\x8cV_\rjX@'
p65
tp66
Rp67
ag10
(g14
S'\xdb\x08\xc0s\xbeuX@'
p68
tp69
Rp70
ag10
(g14
S'\xbad,\xe4}zX@'
p71
tp72
Rp73
ag10
(g14
S'\xb2o\x8d6\xd2mX@'
p74
tp75
Rp76
asS'target'
p77
(lp78
g10
(g14
S's\xc5\xc2\x93:\xecQ@'
p79
tp80
Rp81
ag10
(g14
S'\xf4s\xa0\xfd\x83mO@'
p82
tp83
Rp84
ag10
(g14
S'\x84\x0b\xaemD]L@'
p85
tp86
Rp87
ag10
(g14
S'\xb7\xe0\xef;\x81\x8cP@'
p88
tp89
Rp90
ag10
(g14
S'\xf52\x96S\r]O@'
p91
tp92
Rp93
ag10
(g14
S'\xb3\x15V\x1dD0I@'
p94
tp95
Rp96
ag10
(g14
S'(\xf4k\xa8\xac\xbaO@'
p97
tp98
Rp99
ag10
(g14
S'\xba=\x88\xad\xcb&O@'
p100
tp101
Rp102
ag10
(g14
S'\x84\xef!\x19\xefeP@'
p103
tp104
Rp105
ag10
(g14
S'\x82M\xebEv\xd0N@'
p106
tp107
Rp108
ag10
(g14
S'\xf7|y\x9azNP@'
p109
tp110
Rp111
ag10
(g14
S'-\x84\x91u\x1d\x04N@'
p112
tp113
Rp114
ag10
(g14
S'\x9b\x1f\xd7\xcbc\x84M@'
p115
tp116
Rp117
ag10
(g14
S'\xa0\xd1\xb6\xae\x97\xc0R@'
p118
tp119
Rp120
ag10
(g14
S'\x1e5\xb3I \xdcJ@'
p121
tp122
Rp123
ag10
(g14
S"'\xa6Q\xe7\xe83R@"
p124
tp125
Rp126
ag10
(g14
S'k+\xeb\xc8\xe7{R@'
p127
tp128
Rp129
ag10
(g14
S'\x91\x17W\x1c\x01\xd1N@'
p130
tp131
Rp132
ag10
(g14
S'J\xd9E"\xe1TM@'
p133
tp134
Rp135
ag10
(g14
S'\xf1\x92\xa4q\xfe\x95R@'
p136
tp137
Rp138
asssss.