(dp0
S'../Data/sqlite_69.csv'
p1
(dp2
S'../Data/sqlite_76.csv'
p3
(dp4
F0.1
(dp5
S'mmre'
p6
(dp7
S'bellwether'
p8
(lp9
cnumpy.core.multiarray
scalar
p10
(cnumpy
dtype
p11
(S'f8'
p12
I0
I1
tp13
Rp14
(I3
S'<'
p15
NNNI-1
I-1
I0
tp16
bS'\xbf=U\xee\x946_@'
p17
tp18
Rp19
ag10
(g14
S'\x0f\xf6\xaf\x86[)_@'
p20
tp21
Rp22
ag10
(g14
S'\x96\xae\xca3t+_@'
p23
tp24
Rp25
ag10
(g14
S'\xff\x9a\x1a\xde\xcd5_@'
p26
tp27
Rp28
ag10
(g14
S'\xe7\xf7\x18\xc6\xf9&_@'
p29
tp30
Rp31
ag10
(g14
S'\x1e\xd26\xb2\x137_@'
p32
tp33
Rp34
ag10
(g14
S'm*%\xa0\x95b_@'
p35
tp36
Rp37
ag10
(g14
S'Ss9\x17\xda&_@'
p38
tp39
Rp40
ag10
(g14
S'\xe0\x06\xf22\xf7\x13_@'
p41
tp42
Rp43
ag10
(g14
S'\xd5S\xc2\xf1%E_@'
p44
tp45
Rp46
ag10
(g14
S'{\x06\xd3O<]_@'
p47
tp48
Rp49
ag10
(g14
S'\xce\xec;\xf6T;_@'
p50
tp51
Rp52
ag10
(g14
S'2\xf2\x92\xd1:\x1b_@'
p53
tp54
Rp55
ag10
(g14
S'\x18\x17)\xf5\xb2T_@'
p56
tp57
Rp58
ag10
(g14
S'n!fA\xe79_@'
p59
tp60
Rp61
ag10
(g14
S'\xebK\xc7%"F_@'
p62
tp63
Rp64
ag10
(g14
S'\x84\xad0\xad\x98K_@'
p65
tp66
Rp67
ag10
(g14
S'\xc4\x10\xd8\xba`F_@'
p68
tp69
Rp70
ag10
(g14
S'\t,j\xd8\xceR_@'
p71
tp72
Rp73
ag10
(g14
S'G<\xaaD\xcbN_@'
p74
tp75
Rp76
asS'target'
p77
(lp78
g10
(g14
S'\x16\xffsa\x81\x931@'
p79
tp80
Rp81
ag10
(g14
S')l=\x96)\xf40@'
p82
tp83
Rp84
ag10
(g14
S'\x12\xfa-\xce\xc0z3@'
p85
tp86
Rp87
ag10
(g14
S'A\x8c[kD\xed1@'
p88
tp89
Rp90
ag10
(g14
S'\xe9\xbc\x95i\xe0\x102@'
p91
tp92
Rp93
ag10
(g14
S'\xe8d\xadAf\xc21@'
p94
tp95
Rp96
ag10
(g14
S'\xb89\xdb0]\x1f3@'
p97
tp98
Rp99
ag10
(g14
S'J\x12\x03\xdaQ\xbb/@'
p100
tp101
Rp102
ag10
(g14
S'~o\xdc\xb4!.0@'
p103
tp104
Rp105
ag10
(g14
S'\x9a`D\xd3\x12\x191@'
p106
tp107
Rp108
ag10
(g14
S'\x90 b\x92\xe9Y2@'
p109
tp110
Rp111
ag10
(g14
S'\xee\x02<\xf6W\xb00@'
p112
tp113
Rp114
ag10
(g14
S'\xa6\x9f\xca\x9c\x1e\xc10@'
p115
tp116
Rp117
ag10
(g14
S'e\x97\x01j\x8421@'
p118
tp119
Rp120
ag10
(g14
S'hv6\x92\xd2\x8f1@'
p121
tp122
Rp123
ag10
(g14
S'=A\x11x\xb4\xda2@'
p124
tp125
Rp126
ag10
(g14
S'\xa1,\x80=UZ2@'
p127
tp128
Rp129
ag10
(g14
S'\xcc\xed\xe4\xffsX4@'
p130
tp131
Rp132
ag10
(g14
S'U\xed\xbc\xb8\x07C2@'
p133
tp134
Rp135
ag10
(g14
S'UY2\xb1\x15\x7f2@'
p136
tp137
Rp138
asssss.