(dp0
S'../Data/sqlite_18.csv'
p1
(dp2
S'../Data/sqlite_72.csv'
p3
(dp4
F0.35
(dp5
S'abs_res'
p6
(dp7
S'bellwether'
p8
(lp9
cnumpy.core.multiarray
scalar
p10
(cnumpy
dtype
p11
(S'f8'
p12
I0
I1
tp13
Rp14
(I3
S'<'
p15
NNNI-1
I-1
I0
tp16
bS'\x1b \xf7\xba\xfd@9A'
p17
tp18
Rp19
ag10
(g14
S'\xe0$\x06!\x17?9A'
p20
tp21
Rp22
ag10
(g14
S'\xe5\xa5\x9b\xa4P?9A'
p23
tp24
Rp25
ag10
(g14
S'\xf6\xe13\xcc\x17A9A'
p26
tp27
Rp28
ag10
(g14
S'hW\x80\xfc|>9A'
p29
tp30
Rp31
ag10
(g14
S'u\xaf\xb90\xb3>9A'
p32
tp33
Rp34
ag10
(g14
S'\x924\xa5B\xba@9A'
p35
tp36
Rp37
ag10
(g14
S'n\x03\x9d\xf6\x1a?9A'
p38
tp39
Rp40
ag10
(g14
S'u\x05\xc8\xfdDA9A'
p41
tp42
Rp43
ag10
(g14
S'y?5\x1e\xc4?9A'
p44
tp45
Rp46
ag10
(g14
S')\xf9\xc5\xf2\xf0<9A'
p47
tp48
Rp49
ag10
(g14
S'5\x17\x92&O>9A'
p50
tp51
Rp52
ag10
(g14
S'\x8f\xde\x96\xf5j?9A'
p53
tp54
Rp55
ag10
(g14
S'f\x03\x9d\x16\xd2?9A'
p56
tp57
Rp58
ag10
(g14
S'^\x8f\xc2\xf5\xcf>9A'
p59
tp60
Rp61
ag10
(g14
S'Q\xd4\xbf\xb1x?9A'
p62
tp63
Rp64
ag10
(g14
S'/\xa3\xb7\xe5t=9A'
p65
tp66
Rp67
ag10
(g14
S'1\x08\xac|v>9A'
p68
tp69
Rp70
ag10
(g14
S'7\xfb\xf0y\xe8=9A'
p71
tp72
Rp73
ag10
(g14
S'\x10\x83\xc0*\xac@9A'
p74
tp75
Rp76
asS'target'
p77
(lp78
g10
(g14
S'\xea&1\x08\xacTK@'
p79
tp80
Rp81
ag10
(g14
S']\x8f\xc2\xf5(\x84K@'
p82
tp83
Rp84
ag10
(g14
S'\xe6|?5^JM@'
p85
tp86
Rp87
ag10
(g14
S'\xd4x\xe9&1HM@'
p88
tp89
Rp90
ag10
(g14
S'\xfc(\\\x8f\xc2mJ@'
p91
tp92
Rp93
ag10
(g14
S'\xc1K7\x89A\xa0K@'
p94
tp95
Rp96
ag10
(g14
S'\xcd\xf7S\xe3\xa5\x9bM@'
p97
tp98
Rp99
ag10
(g14
S'~\xe9&1\x08\xecL@'
p100
tp101
Rp102
ag10
(g14
S'\x9b\x99\x99\x99\x99\xa9K@'
p103
tp104
Rp105
ag10
(g14
S'\xe2&1\x08\xac\xd4L@'
p106
tp107
Rp108
ag10
(g14
S'\xc2\xf5(\\\x8f"M@'
p109
tp110
Rp111
ag10
(g14
S'\x1aX9\xb4\xc8\xc6L@'
p112
tp113
Rp114
ag10
(g14
S'\xc9\xca\xa1E\xb6\x13M@'
p115
tp116
Rp117
ag10
(g14
S'\xf7|?5^\xeaL@'
p118
tp119
Rp120
ag10
(g14
S'#\x85\xebQ\xb8\xa6M@'
p121
tp122
Rp123
ag10
(g14
S'\x84\x95C\x8blOK@'
p124
tp125
Rp126
ag10
(g14
S'G\x8bl\xe7\xfbqJ@'
p127
tp128
Rp129
ag10
(g14
S'\xcd \xb0rh\xf1K@'
p130
tp131
Rp132
ag10
(g14
S'0\xdb\xf9~j\x0cL@'
p133
tp134
Rp135
ag10
(g14
S'\xdc\xd0"\xdb\xf9.M@'
p136
tp137
Rp138
asssss.