(dp0
S'../Data/sqlite_85.csv'
p1
(dp2
S'../Data/sqlite_5.csv'
p3
(dp4
F0.15
(dp5
S'abs_res'
p6
(dp7
S'bellwether'
p8
(lp9
cnumpy.core.multiarray
scalar
p10
(cnumpy
dtype
p11
(S'f8'
p12
I0
I1
tp13
Rp14
(I3
S'<'
p15
NNNI-1
I-1
I0
tp16
bS'\xe8Q\xb8v\xbbZWA'
p17
tp18
Rp19
ag10
(g14
S'\\\xbaI\xe4\xd4SWA'
p20
tp21
Rp22
ag10
(g14
S'\xa0E\xb6s\x8a\xafWA'
p23
tp24
Rp25
ag10
(g14
S'\xc7K7\x11\x88\x8dWA'
p26
tp27
Rp28
ag10
(g14
S'\x9c_,\xf1\xcadWA'
p29
tp30
Rp31
ag10
(g14
S'\xfb\xc5\x92wASWA'
p32
tp33
Rp34
ag10
(g14
S'{#\x94\xd9\xc9+WA'
p35
tp36
Rp37
ag10
(g14
S'\xb6\x1e\x85\xdb\xf3dWA'
p38
tp39
Rp40
ag10
(g14
S'\x81\xa4)}\xf2aWA'
p41
tp42
Rp43
ag10
(g14
S'\xb9G\xe1J\x8b\xa7WA'
p44
tp45
Rp46
ag10
(g14
S'\xed\n\x90KAnWA'
p47
tp48
Rp49
ag10
(g14
S'\x07\x00\x00x\x18XWA'
p50
tp51
Rp52
ag10
(g14
S'\xd8\xce\xf7{@\x88WA'
p53
tp54
Rp55
ag10
(g14
S'WFo\xabLrWA'
p56
tp57
Rp58
ag10
(g14
S'\x87\xc0\xca!\xfbnWA'
p59
tp60
Rp61
ag10
(g14
S'O\x0e-\x9a)ZWA'
p62
tp63
Rp64
ag10
(g14
S'\x91A`U,vWA'
p65
tp66
Rp67
ag10
(g14
S'\x10-\xb2M\xbaZWA'
p68
tp69
Rp70
ag10
(g14
S'3\xb4\xc86\xab\x82WA'
p71
tp72
Rp73
ag10
(g14
S'\xf6~j,\\rWA'
p74
tp75
Rp76
asS'target'
p77
(lp78
g10
(g14
S'\x96\xc2\xf5(\\\xefa@'
p79
tp80
Rp81
ag10
(g14
S'\x05+\x87\x16\xd9(a@'
p82
tp83
Rp84
ag10
(g14
S'\x9b\x99\x99\x99\x99\xb1Y@'
p85
tp86
Rp87
ag10
(g14
S'\xf8(\\\x8f\xc2Ua@'
p88
tp89
Rp90
ag10
(g14
S'\xd3\xf9~j\xbc\x94_@'
p91
tp92
Rp93
ag10
(g14
S'\n-\xb2\x9d\xef\x9f]@'
p94
tp95
Rp96
ag10
(g14
S'^d;\xdfO\xbd\\@'
p97
tp98
Rp99
ag10
(g14
S'\xe1z\x14\xaeG}`@'
p100
tp101
Rp102
ag10
(g14
S'\xe0\xce\xf7S\xe3\xf9`@'
p103
tp104
Rp105
ag10
(g14
S'\xcb\xf7S\xe3\xa5Wb@'
p106
tp107
Rp108
ag10
(g14
S'.\xdd$\x06\x815]@'
p109
tp110
Rp111
ag10
(g14
S'$\x06\x81\x95C\x83_@'
p112
tp113
Rp114
ag10
(g14
S'\xb4rh\x91\xed\x08`@'
p115
tp116
Rp117
ag10
(g14
S'\xcf"\xdb\xf9~x`@'
p118
tp119
Rp120
ag10
(g14
S'j;\xdfO\x8d\x17Y@'
p121
tp122
Rp123
ag10
(g14
S'\x14X9\xb4\xc8\x8aX@'
p124
tp125
Rp126
ag10
(g14
S'\xf3(\\\x8f\xc2\x1da@'
p127
tp128
Rp129
ag10
(g14
S'&\xb0rh\x91\xfd^@'
p130
tp131
Rp132
ag10
(g14
S'\x8bA`\xe5\xd0Rb@'
p133
tp134
Rp135
ag10
(g14
S'Bb\x10X9\xacZ@'
p136
tp137
Rp138
asssss.