(dp0
S'../Data/sqlite_35.csv'
p1
(dp2
S'../Data/sqlite_94.csv'
p3
(dp4
F0.15
(dp5
S'mmre'
p6
(dp7
S'bellwether'
p8
(lp9
cnumpy.core.multiarray
scalar
p10
(cnumpy
dtype
p11
(S'f8'
p12
I0
I1
tp13
Rp14
(I3
S'<'
p15
NNNI-1
I-1
I0
tp16
bS'"s\xd1\xbb\x86,X@'
p17
tp18
Rp19
ag10
(g14
S'\xaf\x0b.\x07\\,X@'
p20
tp21
Rp22
ag10
(g14
S'\xd5\xb2\x01\xd2\xa7,X@'
p23
tp24
Rp25
ag10
(g14
S'\x93\xf2\xcc{\x82,X@'
p26
tp27
Rp28
ag10
(g14
S'\x9d\x16\x97\xe5\x8e,X@'
p29
tp30
Rp31
ag10
(g14
S'$\t\xea`\xa7,X@'
p32
tp33
Rp34
ag10
(g14
S'X%j\xfc\x88,X@'
p35
tp36
Rp37
ag10
(g14
S'\xc2\xf1\x17 4+X@'
p38
tp39
Rp40
ag10
(g14
S'\xd4\x18\xeb;\x83+X@'
p41
tp42
Rp43
ag10
(g14
S'\x02\x8a}$|,X@'
p44
tp45
Rp46
ag10
(g14
S'\x18\x87\xdcJ\xf6,X@'
p47
tp48
Rp49
ag10
(g14
S's\xb1+>\x9d+X@'
p50
tp51
Rp52
ag10
(g14
S'K\xbe"\x0b<+X@'
p53
tp54
Rp55
ag10
(g14
S"\xd5j1'\x07,X@"
p56
tp57
Rp58
ag10
(g14
S'\xa8\xcep\x9b\xd6,X@'
p59
tp60
Rp61
ag10
(g14
S'\xc1\x92\x87\xee\x94-X@'
p62
tp63
Rp64
ag10
(g14
S'\xf5\xe3\xe94J,X@'
p65
tp66
Rp67
ag10
(g14
S'\xc5p}\xd6\xd2,X@'
p68
tp69
Rp70
ag10
(g14
S'\x07\xc2Qt&-X@'
p71
tp72
Rp73
ag10
(g14
S'\xad#W\x11\x0f-X@'
p74
tp75
Rp76
asS'target'
p77
(lp78
g10
(g14
S'\xe0;\xd4:P&S@'
p79
tp80
Rp81
ag10
(g14
S'\xbb\x14\xbc\x88@9Y@'
p82
tp83
Rp84
ag10
(g14
S'\x1fU4\\y\x19N@'
p85
tp86
Rp87
ag10
(g14
S')\xe5\xfd$\xbbWX@'
p88
tp89
Rp90
ag10
(g14
S'\x89\xd7\xb2\xe5bSH@'
p91
tp92
Rp93
ag10
(g14
S'R\xc2\xeaCS\xeeI@'
p94
tp95
Rp96
ag10
(g14
S'\xee\x0c\x10\x99\xfc\xd5Z@'
p97
tp98
Rp99
ag10
(g14
S'\xad\x1aB}\xa1;^@'
p100
tp101
Rp102
ag10
(g14
S'HSm=[yQ@'
p103
tp104
Rp105
ag10
(g14
S'k\xb7<1g\x7fQ@'
p106
tp107
Rp108
ag10
(g14
S'\x10\x7f$\xb7\x1aUQ@'
p109
tp110
Rp111
ag10
(g14
S'\xfc\tG\x8d\xeb\xd9R@'
p112
tp113
Rp114
ag10
(g14
S'\xaf\xcf\x10&\xec\xf6Z@'
p115
tp116
Rp117
ag10
(g14
S'}\n\xac1\xdf\x8fL@'
p118
tp119
Rp120
ag10
(g14
S'\xb3\x1bM\xdf0\xa0E@'
p121
tp122
Rp123
ag10
(g14
S'\xdd.N8M_J@'
p124
tp125
Rp126
ag10
(g14
S'\xe5\xbe\xe5\xbc\xb1>O@'
p127
tp128
Rp129
ag10
(g14
S'Q\x80\x0b\xa0(\xa4G@'
p130
tp131
Rp132
ag10
(g14
S'9\xf5\x7f\x95@6P@'
p133
tp134
Rp135
ag10
(g14
S'\x98\xe2\xe5\xbf\xe1\x83O@'
p136
tp137
Rp138
asssss.