(dp0
S'../Data/sqlite_64.csv'
p1
(dp2
S'../Data/sqlite_90.csv'
p3
(dp4
F0.2
(dp5
S'mmre'
p6
(dp7
S'bellwether'
p8
(lp9
cnumpy.core.multiarray
scalar
p10
(cnumpy
dtype
p11
(S'f8'
p12
I0
I1
tp13
Rp14
(I3
S'<'
p15
NNNI-1
I-1
I0
tp16
bS'\x81\xd5\xb5l\xdeTW@'
p17
tp18
Rp19
ag10
(g14
S'2<R\xa0\xfbSW@'
p20
tp21
Rp22
ag10
(g14
S'B\xech*\xd6EW@'
p23
tp24
Rp25
ag10
(g14
S'\xefh\xb9\xdd\x8fPW@'
p26
tp27
Rp28
ag10
(g14
S'\x8e"Gg\x9bIW@'
p29
tp30
Rp31
ag10
(g14
S'\xc6\xa8^?\xf5LW@'
p32
tp33
Rp34
ag10
(g14
S'SD`\xcc#QW@'
p35
tp36
Rp37
ag10
(g14
S'e\xd5\x18\xe0]JW@'
p38
tp39
Rp40
ag10
(g14
S'\xb0\x97\x84|\xfaIW@'
p41
tp42
Rp43
ag10
(g14
S'p\xf3\xf5D\xdcKW@'
p44
tp45
Rp46
ag10
(g14
S'\xb1jN\xa98QW@'
p47
tp48
Rp49
ag10
(g14
S'\x8a3\xc8E*MW@'
p50
tp51
Rp52
ag10
(g14
S'\xa0m\xed\x8c\x95LW@'
p53
tp54
Rp55
ag10
(g14
S'\xa3\x86L\xefXNW@'
p56
tp57
Rp58
ag10
(g14
S'\xb7\x17\xf4GmJW@'
p59
tp60
Rp61
ag10
(g14
S'\xe4C\xd2Q\xb1GW@'
p62
tp63
Rp64
ag10
(g14
S'\xbb\xcf[]EIW@'
p65
tp66
Rp67
ag10
(g14
S'\xaeg\xaaaiIW@'
p68
tp69
Rp70
ag10
(g14
S'\xdf\xb0\xa2\xdd]PW@'
p71
tp72
Rp73
ag10
(g14
S'\x02\xd9\xeaVgXW@'
p74
tp75
Rp76
asS'target'
p77
(lp78
g10
(g14
S'\x9a\x04\x0e\x9c\x82\xad@@'
p79
tp80
Rp81
ag10
(g14
S'\n\x8f3_\x9cHA@'
p82
tp83
Rp84
ag10
(g14
S'\x129\xba/\x91\xb7@@'
p85
tp86
Rp87
ag10
(g14
S'\xd6\x8f\xd6\t\xf5\x85?@'
p88
tp89
Rp90
ag10
(g14
S'\xe6Y|\x1c\xd9lA@'
p91
tp92
Rp93
ag10
(g14
S'\xc41\xee\xb7^\x8f@@'
p94
tp95
Rp96
ag10
(g14
S'^\xa5X\xf4\x1fsB@'
p97
tp98
Rp99
ag10
(g14
S'I\x0cc\x1b\xb3\tA@'
p100
tp101
Rp102
ag10
(g14
S'\xda/:\x00\x8aqA@'
p103
tp104
Rp105
ag10
(g14
S'\x9d\x8dn\x99\xd4\x0cB@'
p106
tp107
Rp108
ag10
(g14
S'5\xf4\x12\x99>\xb6@@'
p109
tp110
Rp111
ag10
(g14
S'lN\x1a\xb3B\xd5A@'
p112
tp113
Rp114
ag10
(g14
S'\xc8\xb9\n\xf4\xe0\x80@@'
p115
tp116
Rp117
ag10
(g14
S'\x1a\x92n\xb4\x144A@'
p118
tp119
Rp120
ag10
(g14
S'\xdenv\xe0LyA@'
p121
tp122
Rp123
ag10
(g14
S'\xc2\xd1\xcfMpE@@'
p124
tp125
Rp126
ag10
(g14
S'\x12\xaf\xfe\x8dI`A@'
p127
tp128
Rp129
ag10
(g14
S'\xce\xe2\x1e3\xb8i?@'
p130
tp131
Rp132
ag10
(g14
S'\xe8\x91O{\x89\xfb@@'
p133
tp134
Rp135
ag10
(g14
S'\xde:\x87\xa6n\xa0@@'
p136
tp137
Rp138
asssss.