(dp0
S'../Data/sqlite_51.csv'
p1
(dp2
S'../Data/sqlite_92.csv'
p3
(dp4
F0.4
(dp5
S'mmre'
p6
(dp7
S'bellwether'
p8
(lp9
cnumpy.core.multiarray
scalar
p10
(cnumpy
dtype
p11
(S'f8'
p12
I0
I1
tp13
Rp14
(I3
S'<'
p15
NNNI-1
I-1
I0
tp16
bS'\xaaF\xb9\xd9\x862Q@'
p17
tp18
Rp19
ag10
(g14
S'!\xe0+\xa7\x8eDQ@'
p20
tp21
Rp22
ag10
(g14
S'\x81\x0b^j\x90EQ@'
p23
tp24
Rp25
ag10
(g14
S'\xe2bs\x82e5Q@'
p26
tp27
Rp28
ag10
(g14
S'\x83\r\x83\x82gJQ@'
p29
tp30
Rp31
ag10
(g14
S'?\x80\xe1\xd3\xe3+Q@'
p32
tp33
Rp34
ag10
(g14
S'\x15\xe9>\xd0k!Q@'
p35
tp36
Rp37
ag10
(g14
S'\x1a%WB\x8e-Q@'
p38
tp39
Rp40
ag10
(g14
S'N@\x0b\x07\x9a5Q@'
p41
tp42
Rp43
ag10
(g14
S'\xb5yh\xf2\xd0?Q@'
p44
tp45
Rp46
ag10
(g14
S'n\x85*\xda\x8e2Q@'
p47
tp48
Rp49
ag10
(g14
S'\xea\xc6zc\xce&Q@'
p50
tp51
Rp52
ag10
(g14
S'\xc1\xc1(\xf9M)Q@'
p53
tp54
Rp55
ag10
(g14
S'\x1f\x03\xb7\xdc\xea9Q@'
p56
tp57
Rp58
ag10
(g14
S'E`ef/$Q@'
p59
tp60
Rp61
ag10
(g14
S"\xcc|\x16g\xf8'Q@"
p62
tp63
Rp64
ag10
(g14
S'\xdf|O\xc20BQ@'
p65
tp66
Rp67
ag10
(g14
S'S\x80R\xa6iMQ@'
p68
tp69
Rp70
ag10
(g14
S'hN\x829H-Q@'
p71
tp72
Rp73
ag10
(g14
S'\xef\xfe\xa6\xccEDQ@'
p74
tp75
Rp76
asS'target'
p77
(lp78
g10
(g14
S'!\xbd\x91rlCP@'
p79
tp80
Rp81
ag10
(g14
S'Bu\xacm\xaeWS@'
p82
tp83
Rp84
ag10
(g14
S'\xbb\x10\x7f\x11\xe0\xe3O@'
p85
tp86
Rp87
ag10
(g14
S'~\x81\xe5\x97\x17}Q@'
p88
tp89
Rp90
ag10
(g14
S'\xdeO\xd1\xd5dyP@'
p91
tp92
Rp93
ag10
(g14
S'\x96\x0c\xf1"\x04\x96Q@'
p94
tp95
Rp96
ag10
(g14
S'Q\x9e\x8a\x98T1P@'
p97
tp98
Rp99
ag10
(g14
S'\r\\\x97\x01\x0b\x14S@'
p100
tp101
Rp102
ag10
(g14
S'\xd7\xf6=g\x01\x10U@'
p103
tp104
Rp105
ag10
(g14
S'\x02\x06\xda\x08b\xdcW@'
p106
tp107
Rp108
ag10
(g14
S'I\xb9q\x93V\xd5P@'
p109
tp110
Rp111
ag10
(g14
S'\xeda7H\xa4HR@'
p112
tp113
Rp114
ag10
(g14
S'\xcc9U\x1f\xf9\x0bQ@'
p115
tp116
Rp117
ag10
(g14
S"5\x93z\x80'\xf5N@"
p118
tp119
Rp120
ag10
(g14
S'\xed\xf2\x1cUj\xd2[@'
p121
tp122
Rp123
ag10
(g14
S'\xc2\x9c\x16d\xef\x05M@'
p124
tp125
Rp126
ag10
(g14
S'\xa2\xc0\x80\x105+S@'
p127
tp128
Rp129
ag10
(g14
S'D\xc6x\x94\x92ZQ@'
p130
tp131
Rp132
ag10
(g14
S'\x7f\x1e\xf7\xac\xe2LV@'
p133
tp134
Rp135
ag10
(g14
S'j\xb3\xcegj\x80T@'
p136
tp137
Rp138
asssss.