(dp0
S'../Data/sqlite_91.csv'
p1
(dp2
S'../Data/sqlite_45.csv'
p3
(dp4
F0.1
(dp5
S'abs_res'
p6
(dp7
S'bellwether'
p8
(lp9
cnumpy.core.multiarray
scalar
p10
(cnumpy
dtype
p11
(S'f8'
p12
I0
I1
tp13
Rp14
(I3
S'<'
p15
NNNI-1
I-1
I0
tp16
bS'mh\x91mQT&A'
p17
tp18
Rp19
ag10
(g14
S'\xfa7B\xd9\xeeb&A'
p20
tp21
Rp22
ag10
(g14
S'\x93\xed|?\xf6T&A'
p23
tp24
Rp25
ag10
(g14
S'Ub\x10\x98\xb0s&A'
p26
tp27
Rp28
ag10
(g14
S'<\xb4\xc8\xf6\xdcQ&A'
p29
tp30
Rp31
ag10
(g14
S'\x15\xe6\x89\xba\xe3P&A'
p32
tp33
Rp34
ag10
(g14
S'i\xbaI\xcc\xa9Y&A'
p35
tp36
Rp37
ag10
(g14
S'\xfdS\xe3\xe5\xc9b&A'
p38
tp39
Rp40
ag10
(g14
S'\x8a\xed|\x7f\x04Z&A'
p41
tp42
Rp43
ag10
(g14
S'\xa1\x1a/]\x03\\&A'
p44
tp45
Rp46
ag10
(g14
S'\xc4\x1e\x85k)M&A'
p47
tp48
Rp49
ag10
(g14
S'\xec\xdf\x08\xe5\x0bp&A'
p50
tp51
Rp52
ag10
(g14
S's\x93\x18\xc4\xceQ&A'
p53
tp54
Rp55
ag10
(g14
S'w=\n\x17\xa6V&A'
p56
tp57
Rp58
ag10
(g14
S'\x01\xd5x)a`&A'
p59
tp60
Rp61
ag10
(g14
S'wh\x91mVD&A'
p62
tp63
Rp64
ag10
(g14
S'\xe1\xce\xf7\x93RR&A'
p65
tp66
Rp67
ag10
(g14
S'\xaf\x1cZd(g&A'
p68
tp69
Rp70
ag10
(g14
S'\xf9\xd2M\xe2Ho&A'
p71
tp72
Rp73
ag10
(g14
S'\x10\xe6\x89\xfa\xf7L&A'
p74
tp75
Rp76
asS'target'
p77
(lp78
g10
(g14
S'T\xb8\x1e\x85\xebcs@'
p79
tp80
Rp81
ag10
(g14
S'\x88\xebQ\xb8\x1e\x0bq@'
p82
tp83
Rp84
ag10
(g14
S'\xd5v\xbe\x9f\x1aWn@'
p85
tp86
Rp87
ag10
(g14
S'\xff\xff\xff\xff\xff\xb3p@'
p88
tp89
Rp90
ag10
(g14
S'$\xb0rh\x91\xc3p@'
p91
tp92
Rp93
ag10
(g14
S'\xe3O\x8d\x97n\xfcp@'
p94
tp95
Rp96
ag10
(g14
S'>5^\xbaIlo@'
p97
tp98
Rp99
ag10
(g14
S'R7\x89A`\xbdm@'
p100
tp101
Rp102
ag10
(g14
S'\x06\xac\x1cZd\xf9p@'
p103
tp104
Rp105
ag10
(g14
S'S\x8d\x97n\x123p@'
p106
tp107
Rp108
ag10
(g14
S'\xbbI\x0c\x02+Gq@'
p109
tp110
Rp111
ag10
(g14
S'8^\xbaI\x0c@p@'
p112
tp113
Rp114
ag10
(g14
S'G\xe1z\x14\xae\x85p@'
p115
tp116
Rp117
ag10
(g14
S'\xe2&1\x08\xacXm@'
p118
tp119
Rp120
ag10
(g14
S'E\xe1z\x14\xaecp@'
p121
tp122
Rp123
ag10
(g14
S'U\xe3\xa5\x9b\xc4\xa4p@'
p124
tp125
Rp126
ag10
(g14
S'!Zd;\xdf\xcbp@'
p127
tp128
Rp129
ag10
(g14
S'%\xdb\xf9~j\xccp@'
p130
tp131
Rp132
ag10
(g14
S'\xabG\xe1z\x14\xd2p@'
p133
tp134
Rp135
ag10
(g14
S'\xdbO\x8d\x97nfq@'
p136
tp137
Rp138
asssss.