(dp0
S'../Data/sqlite_1.csv'
p1
(dp2
S'../Data/sqlite_82.csv'
p3
(dp4
F0.35
(dp5
S'abs_res'
p6
(dp7
S'bellwether'
p8
(lp9
cnumpy.core.multiarray
scalar
p10
(cnumpy
dtype
p11
(S'f8'
p12
I0
I1
tp13
Rp14
(I3
S'<'
p15
NNNI-1
I-1
I0
tp16
bS'\xb6\xf3\xfd\x14228A'
p17
tp18
Rp19
ag10
(g14
S'\x10\xe6\x89ZD/8A'
p20
tp21
Rp22
ag10
(g14
S'y\xda@\x07208A'
p23
tp24
Rp25
ag10
(g14
S'\x0ct\xda`\x0b18A'
p26
tp27
Rp28
ag10
(g14
S'\xe8\x08e\x14\xf608A'
p29
tp30
Rp31
ag10
(g14
S'\x93n\x12\x03\xc5/8A'
p32
tp33
Rp34
ag10
(g14
S'yL\xf0\x80\xce08A'
p35
tp36
Rp37
ag10
(g14
S'\x05ISJ108A'
p38
tp39
Rp40
ag10
(g14
S'|ww\xd7\x9208A'
p41
tp42
Rp43
ag10
(g14
S'\x17\x04V\xae\xec/8A'
p44
tp45
Rp46
ag10
(g14
S'V\x80\xdc\xeb\xea08A'
p47
tp48
Rp49
ag10
(g14
S'\xf9\xe13\x8c\xfd/8A'
p50
tp51
Rp52
ag10
(g14
S'0^\xba\t\x8108A'
p53
tp54
Rp55
ag10
(g14
S'\xe7\xd0"\xdbD-8A'
p56
tp57
Rp58
ag10
(g14
S'\xe2\xb2V\xa7l08A'
p59
tp60
Rp61
ag10
(g14
S'/\xea\xdf\xc8\t18A'
p62
tp63
Rp64
ag10
(g14
S'\xca/\x96\xfc\xf0/8A'
p65
tp66
Rp67
ag10
(g14
S'\xb2rh\xd1m08A'
p68
tp69
Rp70
ag10
(g14
S'>\xdfO\xcd\x1818A'
p71
tp72
Rp73
ag10
(g14
S'bs!\xa9\xca/8A'
p74
tp75
Rp76
asS'target'
p77
(lp78
g10
(g14
S'\xc4\xf5(\\\x8f\xc0\x7f@'
p79
tp80
Rp81
ag10
(g14
S'\x81A`\xe5\xd0\x96t@'
p82
tp83
Rp84
ag10
(g14
S'd\xe7\xfb\xa9\xf1\x80r@'
p85
tp86
Rp87
ag10
(g14
S'b\xbaI\x0c\x02=y@'
p88
tp89
Rp90
ag10
(g14
S'733330t@'
p91
tp92
Rp93
ag10
(g14
S'\x04\xac\x1cZdlx@'
p94
tp95
Rp96
ag10
(g14
S'\x1a/\xdd$\x06iv@'
p97
tp98
Rp99
ag10
(g14
S'\x9e\x9b\xc4 \xb0\xa2t@'
p100
tp101
Rp102
ag10
(g14
S'\x0f\xaeG\xe1z.u@'
p103
tp104
Rp105
ag10
(g14
S'\x1d\xb2\x9d\xef\xa7>x@'
p106
tp107
Rp108
ag10
(g14
S'\xb5\x1cZd;Ew@'
p109
tp110
Rp111
ag10
(g14
S']9\xb4\xc8v\x97u@'
p112
tp113
Rp114
ag10
(g14
S'\x89\xa4)\x15gEt@'
p115
tp116
Rp117
ag10
(g14
S'l\xe9&1\x08\xca}@'
p118
tp119
Rp120
ag10
(g14
S'r=\n\xd7\xa3\x01w@'
p121
tp122
Rp123
ag10
(g14
S'\x9f\x99\x99\x99\x99r}@'
p124
tp125
Rp126
ag10
(g14
S'\xa6\xef\xa7\xc6K\xbfr@'
p127
tp128
Rp129
ag10
(g14
S'\xad\x1cZd;\x9bu@'
p130
tp131
Rp132
ag10
(g14
S'\\\x8f\xc2\xf5(?t@'
p133
tp134
Rp135
ag10
(g14
S'"\x08\xac\x1cZ\x9cy@'
p136
tp137
Rp138
asssss.