(dp0
S'../Data/sqlite_23.csv'
p1
(dp2
S'../Data/sqlite_92.csv'
p3
(dp4
F0.05
(dp5
S'mmre'
p6
(dp7
S'bellwether'
p8
(lp9
cnumpy.core.multiarray
scalar
p10
(cnumpy
dtype
p11
(S'f8'
p12
I0
I1
tp13
Rp14
(I3
S'<'
p15
NNNI-1
I-1
I0
tp16
bS'\x05[\x05\x82\xbfUQ@'
p17
tp18
Rp19
ag10
(g14
S'\xd6\xa9\xfeG\x1aSQ@'
p20
tp21
Rp22
ag10
(g14
S'\xd1\xad\xdb|\xadNQ@'
p23
tp24
Rp25
ag10
(g14
S'\xa9iP\xf7\x1fUQ@'
p26
tp27
Rp28
ag10
(g14
S'\xa5\x11q\xca\xc8RQ@'
p29
tp30
Rp31
ag10
(g14
S']\xc8\x81Y\xa1OQ@'
p32
tp33
Rp34
ag10
(g14
S'#\xd5\x16\x9egMQ@'
p35
tp36
Rp37
ag10
(g14
S'$\xe3\x10\x14\xf8KQ@'
p38
tp39
Rp40
ag10
(g14
S'v\x86L\xb4rRQ@'
p41
tp42
Rp43
ag10
(g14
S'\t\xf0\x1e\xceHVQ@'
p44
tp45
Rp46
ag10
(g14
S'(K^\x7f\x15PQ@'
p47
tp48
Rp49
ag10
(g14
S'.p\xbae\x81LQ@'
p50
tp51
Rp52
ag10
(g14
S'\xd9\x90Fl>IQ@'
p53
tp54
Rp55
ag10
(g14
S'["\xe4\\T[Q@'
p56
tp57
Rp58
ag10
(g14
S'\xef\xe3YL\xfdXQ@'
p59
tp60
Rp61
ag10
(g14
S'\xbf;\x13\xa6\xa9JQ@'
p62
tp63
Rp64
ag10
(g14
S'\x11\xd4\x0e\xe7\xb9\\Q@'
p65
tp66
Rp67
ag10
(g14
S'\xb9\xc8\x18\xfceNQ@'
p68
tp69
Rp70
ag10
(g14
S'wX\xf0}\xe8RQ@'
p71
tp72
Rp73
ag10
(g14
S'JJ\xde6rVQ@'
p74
tp75
Rp76
asS'target'
p77
(lp78
g10
(g14
S'\xc0\xe76u\xa3\xdaT@'
p79
tp80
Rp81
ag10
(g14
S'$\xa7\x1a\xe6\x89\xbdU@'
p82
tp83
Rp84
ag10
(g14
S'{\xba}P\x0c\xa3X@'
p85
tp86
Rp87
ag10
(g14
S'\xc9"\x13\xd1h\x07M@'
p88
tp89
Rp90
ag10
(g14
S'\xd3\xc1\xbf\x98s\xbac@'
p91
tp92
Rp93
ag10
(g14
S'\x03\xa6\\\\\xe1kS@'
p94
tp95
Rp96
ag10
(g14
S'\x91,7\xefT\x9aP@'
p97
tp98
Rp99
ag10
(g14
S'9\x1f\xccu\xe9wQ@'
p100
tp101
Rp102
ag10
(g14
S'O\x85S\x80\xaaPP@'
p103
tp104
Rp105
ag10
(g14
S'\x02\x83\x927\xb8\xe7D@'
p106
tp107
Rp108
ag10
(g14
S'cK!\x15g\xcfT@'
p109
tp110
Rp111
ag10
(g14
S'\r\x0c5\xa2/\x83d@'
p112
tp113
Rp114
ag10
(g14
S'p\xfc\xf2\xada\x1a_@'
p115
tp116
Rp117
ag10
(g14
S'\xedt\x02H\xa2\xfa<@'
p118
tp119
Rp120
ag10
(g14
S'zQ\x13\xe0\xd2}S@'
p121
tp122
Rp123
ag10
(g14
S"'+m\xe2+\xece@"
p124
tp125
Rp126
ag10
(g14
S'\x15\x1e\xe92\xd0\x89K@'
p127
tp128
Rp129
ag10
(g14
S'\x97\xaaDS\xb9\xddB@'
p130
tp131
Rp132
ag10
(g14
S'\xeb\xd74\x9a\xfb\x18Y@'
p133
tp134
Rp135
ag10
(g14
S'V\x8e\x0b(`xC@'
p136
tp137
Rp138
asssss.