(dp0
S'../Data/sqlite_75.csv'
p1
(dp2
S'../Data/sqlite_94.csv'
p3
(dp4
F0.1
(dp5
S'mmre'
p6
(dp7
S'bellwether'
p8
(lp9
cnumpy.core.multiarray
scalar
p10
(cnumpy
dtype
p11
(S'f8'
p12
I0
I1
tp13
Rp14
(I3
S'<'
p15
NNNI-1
I-1
I0
tp16
bS'\xd0\xf1\x0f\xc3Z3X@'
p17
tp18
Rp19
ag10
(g14
S'4o._\xd23X@'
p20
tp21
Rp22
ag10
(g14
S'\xb9~\xc8\x84\x863X@'
p23
tp24
Rp25
ag10
(g14
S'\xb1\xe0\x98\x1f\x013X@'
p26
tp27
Rp28
ag10
(g14
S'.\xbd\xc6\x1c\x8d3X@'
p29
tp30
Rp31
ag10
(g14
S'_\xf0\xe8\x03\xbe3X@'
p32
tp33
Rp34
ag10
(g14
S'K\xceO\xdaY4X@'
p35
tp36
Rp37
ag10
(g14
S'\x84\x8a\x9c\x89\xbc3X@'
p38
tp39
Rp40
ag10
(g14
S'\xecf\xb9\xbb~4X@'
p41
tp42
Rp43
ag10
(g14
S'a\xbcn\xbe<3X@'
p44
tp45
Rp46
ag10
(g14
S'l#D\x04\xb13X@'
p47
tp48
Rp49
ag10
(g14
S'\xd5G\x9d\x92p2X@'
p50
tp51
Rp52
ag10
(g14
S'\xdc\xed\x7fG\xd93X@'
p53
tp54
Rp55
ag10
(g14
S'\xe2\xe4\x01\xa1\xe23X@'
p56
tp57
Rp58
ag10
(g14
S'\xf2\xf6d\xb8\xe43X@'
p59
tp60
Rp61
ag10
(g14
S'\xcbbE\x0f\xfd4X@'
p62
tp63
Rp64
ag10
(g14
S'{\\-\x03\xc44X@'
p65
tp66
Rp67
ag10
(g14
S'\xcb\xf3O\xfb\xb23X@'
p68
tp69
Rp70
ag10
(g14
S'\xf4\xeb\xb1o\x0b4X@'
p71
tp72
Rp73
ag10
(g14
S'\xac\xec\xef\x19\x134X@'
p74
tp75
Rp76
asS'target'
p77
(lp78
g10
(g14
S'y_\xbc\xed\xa3-R@'
p79
tp80
Rp81
ag10
(g14
S'\xba\\\x85\xebG_N@'
p82
tp83
Rp84
ag10
(g14
S'.X\xa6\xaa\xb7sP@'
p85
tp86
Rp87
ag10
(g14
S'k0\xb2_o\xf9P@'
p88
tp89
Rp90
ag10
(g14
S'\x0ceO\xc3@eH@'
p91
tp92
Rp93
ag10
(g14
S'>\xbe\x01<\xf8$S@'
p94
tp95
Rp96
ag10
(g14
S'x%u\xb8\xe4PL@'
p97
tp98
Rp99
ag10
(g14
S's\x7f2\xf81\xc1O@'
p100
tp101
Rp102
ag10
(g14
S'}\xaf\x8a\xdbI\xa3X@'
p103
tp104
Rp105
ag10
(g14
S'\x02\xaa3\xdc\xdeMY@'
p106
tp107
Rp108
ag10
(g14
S'\x86\xa5\x7f\x13\x19GQ@'
p109
tp110
Rp111
ag10
(g14
S'\x80\xc6\x86\x19,mX@'
p112
tp113
Rp114
ag10
(g14
S'B4\xd4\\n\x90V@'
p115
tp116
Rp117
ag10
(g14
S'`\xd4\xaf\xa6s\x17S@'
p118
tp119
Rp120
ag10
(g14
S'\xf1G\x01\x93\xd8\x9bX@'
p121
tp122
Rp123
ag10
(g14
S"9}x'\xe6\x9fP@"
p124
tp125
Rp126
ag10
(g14
S'Q\x1f\x1a\x89\x97\rB@'
p127
tp128
Rp129
ag10
(g14
S'g+\x8e\xd1\x7f\xacN@'
p130
tp131
Rp132
ag10
(g14
S'|4\xbai\x87dU@'
p133
tp134
Rp135
ag10
(g14
S'K\xeao`\x071X@'
p136
tp137
Rp138
asssss.