(dp0
S'../Data/sqlite_46.csv'
p1
(dp2
S'../Data/sqlite_30.csv'
p3
(dp4
F0.1
(dp5
S'abs_res'
p6
(dp7
S'bellwether'
p8
(lp9
cnumpy.core.multiarray
scalar
p10
(cnumpy
dtype
p11
(S'f8'
p12
I0
I1
tp13
Rp14
(I3
S'<'
p15
NNNI-1
I-1
I0
tp16
bS'\x1a/\xddd\x9brAA'
p17
tp18
Rp19
ag10
(g14
S'\xaaE\xb6\x03}rAA'
p20
tp21
Rp22
ag10
(g14
S'\xa7\x9b\xc4p\xa6rAA'
p23
tp24
Rp25
ag10
(g14
S'\x92\xed|\x0f\x0brAA'
p26
tp27
Rp28
ag10
(g14
S'\xde\xf9~\xfa\rrAA'
p29
tp30
Rp31
ag10
(g14
S'<\n\xd7S\x82rAA'
p32
tp33
Rp34
ag10
(g14
S'\x1f\x85\xebQ\xf2qAA'
p35
tp36
Rp37
ag10
(g14
S'\xd3Mb\x10\x1drAA'
p38
tp39
Rp40
ag10
(g14
S'\t-\xb2\xfd\xabqAA'
p41
tp42
Rp43
ag10
(g14
S'\xf8\xd2M\x12#rAA'
p44
tp45
Rp46
ag10
(g14
S'5^\xba\xe9]rAA'
p47
tp48
Rp49
ag10
(g14
S'E\x8bl\x17CrAA'
p50
tp51
Rp52
ag10
(g14
S'H`\xe5\x00\\rAA'
p53
tp54
Rp55
ag10
(g14
S'o\xbct\xc3\xc9qAA'
p56
tp57
Rp58
ag10
(g14
S'\x81?5^:rAA'
p59
tp60
Rp61
ag10
(g14
S'k\xe7\xfb\xe9\xf8qAA'
p62
tp63
Rp64
ag10
(g14
S'\x19\x04V\x9edrAA'
p65
tp66
Rp67
ag10
(g14
S'\xbbI\x0c\xd2wqAA'
p68
tp69
Rp70
ag10
(g14
S'z\xbe\x9f\xdayrAA'
p71
tp72
Rp73
ag10
(g14
S'\x1b\x04V>\x06rAA'
p74
tp75
Rp76
asS'target'
p77
(lp78
g10
(g14
S'\x80j\xbct\x938G@'
p79
tp80
Rp81
ag10
(g14
S'\xee|?5^:B@'
p82
tp83
Rp84
ag10
(g14
S'\xdd"\xdb\xf9~:H@'
p85
tp86
Rp87
ag10
(g14
S'\xf5\xa9\xf1\xd2MbF@'
p88
tp89
Rp90
ag10
(g14
S'h\x10X9\xb4\xc8C@'
p91
tp92
Rp93
ag10
(g14
S'\xd4"\xdb\xf9~\xbaD@'
p94
tp95
Rp96
ag10
(g14
S'\x89\xebQ\xb8\x1e5C@'
p97
tp98
Rp99
ag10
(g14
S'\xdc\xa3p=\nwJ@'
p100
tp101
Rp102
ag10
(g14
S'F\x8bl\xe7\xfb)D@'
p103
tp104
Rp105
ag10
(g14
S'&\xb0rh\x91mD@'
p106
tp107
Rp108
ag10
(g14
S'\xb7\x1e\x85\xebQ\xf8C@'
p109
tp110
Rp111
ag10
(g14
S'\x17\x83\xc0\xca\xa1EC@'
p112
tp113
Rp114
ag10
(g14
S'\x94\x18\x04V\x0e\x1dA@'
p115
tp116
Rp117
ag10
(g14
S'N\xb6\xf3\xfd\xd4\x98C@'
p118
tp119
Rp120
ag10
(g14
S'L\x0c\x02+\x87&H@'
p121
tp122
Rp123
ag10
(g14
S'=3333\xf3G@'
p124
tp125
Rp126
ag10
(g14
S'c\xbaI\x0c\x02;B@'
p127
tp128
Rp129
ag10
(g14
S'83333cG@'
p130
tp131
Rp132
ag10
(g14
S'\xbc\xf1\xd2Mb\xb0H@'
p133
tp134
Rp135
ag10
(g14
S'_\xe5\xd0"\xdb9I@'
p136
tp137
Rp138
asssss.