(dp0
S'../Data/sqlite_64.csv'
p1
(dp2
S'../Data/sqlite_4.csv'
p3
(dp4
F0.2
(dp5
S'abs_res'
p6
(dp7
S'bellwether'
p8
(lp9
cnumpy.core.multiarray
scalar
p10
(cnumpy
dtype
p11
(S'f8'
p12
I0
I1
tp13
Rp14
(I3
S'<'
p15
NNNI-1
I-1
I0
tp16
bS'\x11\xf5o\xb4\x86&?A'
p17
tp18
Rp19
ag10
(g14
S'\xd4\x94\x8a\xe3e(?A'
p20
tp21
Rp22
ag10
(g14
S"IS*>\xd2'?A"
p23
tp24
Rp25
ag10
(g14
S"<O\xd4\x1f^'?A"
p26
tp27
Rp28
ag10
(g14
S'\xc9K7\x89F(?A'
p29
tp30
Rp31
ag10
(g14
S'\xd1\xbd\xe6\xc2~(?A'
p32
tp33
Rp34
ag10
(g14
S'\x9c\x99\x99\xa9/&?A'
p35
tp36
Rp37
ag10
(g14
S'\xb6\x1e\x85Km(?A'
p38
tp39
Rp40
ag10
(g14
S"\xa2C\x8b\xdc^'?A"
p41
tp42
Rp43
ag10
(g14
S"\x17\x9fa\x87_'?A"
p44
tp45
Rp46
ag10
(g14
S'\xabc\x82\x97^(?A'
p47
tp48
Rp49
ag10
(g14
S'\x96\x97n\x82 &?A'
p50
tp51
Rp52
ag10
(g14
S"\xa7aW\xa0.'?A"
p53
tp54
Rp55
ag10
(g14
S'\x9d\xc4 \x10\x17&?A'
p56
tp57
Rp58
ag10
(g14
S"Q\x8d\x97.\x00'?A"
p59
tp60
Rp61
ag10
(g14
S'\x80\x88\x88\xd8\xa0&?A'
p62
tp63
Rp64
ag10
(g14
S'N(\xa3\x97\x8b&?A'
p65
tp66
Rp67
ag10
(g14
S'\x10-\xb2=\x96&?A'
p68
tp69
Rp70
ag10
(g14
S'R(\xa3\xd70(?A'
p71
tp72
Rp73
ag10
(g14
S"\xc2\x9f\x1a\x8fq'?A"
p74
tp75
Rp76
asS'target'
p77
(lp78
g10
(g14
S'5333\xf3\xca\xd3@'
p79
tp80
Rp81
ag10
(g14
S'\xff\xff\xff\xff\x1f#\xd3@'
p82
tp83
Rp84
ag10
(g14
S'afff\xc6\x9c\xd2@'
p85
tp86
Rp87
ag10
(g14
S'\xfa\xff\xff\xff\xbf2\xd4@'
p88
tp89
Rp90
ag10
(g14
S'ifff\x86T\xd3@'
p91
tp92
Rp93
ag10
(g14
S'63333a\xd4@'
p94
tp95
Rp96
ag10
(g14
S'dfff\x96y\xd3@'
p97
tp98
Rp99
ag10
(g14
S'7333\xa3b\xd1@'
p100
tp101
Rp102
ag10
(g14
S'cfff\x06E\xd2@'
p103
tp104
Rp105
ag10
(g14
S'\x02\x00\x00\x00\x00\xae\xd1@'
p106
tp107
Rp108
ag10
(g14
S'bfff\x06\x1b\xd2@'
p109
tp110
Rp111
ag10
(g14
S'\x9c\x99\x99\x99\t\xef\xd3@'
p112
tp113
Rp114
ag10
(g14
S'8333\xb3\x93\xd1@'
p115
tp116
Rp117
ag10
(g14
S'5333Ss\xd3@'
p118
tp119
Rp120
ag10
(g14
S'\x99\x99\x99\x99y\x81\xd2@'
p121
tp122
Rp123
ag10
(g14
S'73333J\xd2@'
p124
tp125
Rp126
ag10
(g14
S'\x07\x00\x00\x00@\x15\xd2@'
p127
tp128
Rp129
ag10
(g14
S'\x07\x00\x00\x00\xa0\r\xd3@'
p130
tp131
Rp132
ag10
(g14
S'ffff\xe6\xea\xd2@'
p133
tp134
Rp135
ag10
(g14
S'9333S]\xd2@'
p136
tp137
Rp138
asssss.