(dp0
S'../Data/sqlite_37.csv'
p1
(dp2
S'../Data/sqlite_73.csv'
p3
(dp4
F0.3
(dp5
S'mmre'
p6
(dp7
S'bellwether'
p8
(lp9
cnumpy.core.multiarray
scalar
p10
(cnumpy
dtype
p11
(S'f8'
p12
I0
I1
tp13
Rp14
(I3
S'<'
p15
NNNI-1
I-1
I0
tp16
bS'\xa9\x9b\x85\x08=YW@'
p17
tp18
Rp19
ag10
(g14
S'\x82\x81l\x88pZW@'
p20
tp21
Rp22
ag10
(g14
S'\xdb\xb2\xe9\xf9/ZW@'
p23
tp24
Rp25
ag10
(g14
S'\xac\x8fF5\x1b[W@'
p26
tp27
Rp28
ag10
(g14
S'Jx\x96\x8a\xaeZW@'
p29
tp30
Rp31
ag10
(g14
S'\x84\x89R\x1afYW@'
p32
tp33
Rp34
ag10
(g14
S'Z\xb6\x0c\xb9\xdd\\W@'
p35
tp36
Rp37
ag10
(g14
S'v:\xd1\xec\xb1ZW@'
p38
tp39
Rp40
ag10
(g14
S'\xddB\x92"\xf6XW@'
p41
tp42
Rp43
ag10
(g14
S'\x05vY\xde%YW@'
p44
tp45
Rp46
ag10
(g14
S'<\xfa \x9f\xb8ZW@'
p47
tp48
Rp49
ag10
(g14
S'\x19A\x02R{ZW@'
p50
tp51
Rp52
ag10
(g14
S'\x10@\xe9\x98\xbcXW@'
p53
tp54
Rp55
ag10
(g14
S'\x18Um2\xe5YW@'
p56
tp57
Rp58
ag10
(g14
S'\xf9:\xb9\x00\x15ZW@'
p59
tp60
Rp61
ag10
(g14
S'\xb0pS\xcb\x03ZW@'
p62
tp63
Rp64
ag10
(g14
S'\xccv\xd3\xe8)ZW@'
p65
tp66
Rp67
ag10
(g14
S'/\xb3\xfeP\x7fZW@'
p68
tp69
Rp70
ag10
(g14
S'\xd7|\x81\x1b\\YW@'
p71
tp72
Rp73
ag10
(g14
S't[p\xe3\xacZW@'
p74
tp75
Rp76
asS'target'
p77
(lp78
g10
(g14
S'~@\x08D \xba)@'
p79
tp80
Rp81
ag10
(g14
S'\x06\xf8a\xc3\xd2\x00+@'
p82
tp83
Rp84
ag10
(g14
S'\x92m\xdb$LM)@'
p85
tp86
Rp87
ag10
(g14
S'0\xe1\x9b~~\x0e+@'
p88
tp89
Rp90
ag10
(g14
S'rf\xdb\xab\xb7!)@'
p91
tp92
Rp93
ag10
(g14
S'\xfb4\x06F=\xec*@'
p94
tp95
Rp96
ag10
(g14
S'j\xa39\xd4\xc2\x19*@'
p97
tp98
Rp99
ag10
(g14
S'\xdc\\\xcc"\xb1\xca+@'
p100
tp101
Rp102
ag10
(g14
S'\x92\xbd~\xd8!\xd1+@'
p103
tp104
Rp105
ag10
(g14
S'\xc8x\x1f\xe6)\xb6,@'
p106
tp107
Rp108
ag10
(g14
S'\x1f\rbo\xebi*@'
p109
tp110
Rp111
ag10
(g14
S'\x00\x14\x9f\x9e\xea\xff*@'
p112
tp113
Rp114
ag10
(g14
S'\xf7\xaf\xc9\x95\x92\xba+@'
p115
tp116
Rp117
ag10
(g14
S'\x9c\xce\xc5\x1e\x99S*@'
p118
tp119
Rp120
ag10
(g14
S':+\x14\x85\x90\xa9*@'
p121
tp122
Rp123
ag10
(g14
S'")\x0b\xc7\xebt*@'
p124
tp125
Rp126
ag10
(g14
S'\x95,dJ\xe0a,@'
p127
tp128
Rp129
ag10
(g14
S'\xf2071\x80;+@'
p130
tp131
Rp132
ag10
(g14
S'\x92nFi\xfaL.@'
p133
tp134
Rp135
ag10
(g14
S'<\xb3j\xa2w\xfe)@'
p136
tp137
Rp138
asssss.