(dp0
S'../Data/sqlite_34.csv'
p1
(dp2
S'../Data/sqlite_79.csv'
p3
(dp4
F0.15
(dp5
S'mmre'
p6
(dp7
S'bellwether'
p8
(lp9
cnumpy.core.multiarray
scalar
p10
(cnumpy
dtype
p11
(S'f8'
p12
I0
I1
tp13
Rp14
(I3
S'<'
p15
NNNI-1
I-1
I0
tp16
bS'\xe3:\x04\xa9>v}@'
p17
tp18
Rp19
ag10
(g14
S'\xf6A\xb0bd|}@'
p20
tp21
Rp22
ag10
(g14
S'\x8f\xc5\xc3>\x1e}}@'
p23
tp24
Rp25
ag10
(g14
S'\x9e\x8a|\xd4\xe2l}@'
p26
tp27
Rp28
ag10
(g14
S'\xe5\x84\x8c$\x0e\x89}@'
p29
tp30
Rp31
ag10
(g14
S"ud='>\x8f}@"
p32
tp33
Rp34
ag10
(g14
S'6:k\xc9\xe3\x83}@'
p35
tp36
Rp37
ag10
(g14
S'\xdc;\x1e22\x7f}@'
p38
tp39
Rp40
ag10
(g14
S'\x10\xb3\x80.yy}@'
p41
tp42
Rp43
ag10
(g14
S'M\xc4\\=\xa0m}@'
p44
tp45
Rp46
ag10
(g14
S'\x0c\xb3J\xd0nv}@'
p47
tp48
Rp49
ag10
(g14
S'}R\xfb#\x04q}@'
p50
tp51
Rp52
ag10
(g14
S'\x9d\xb7\xb0\x94h\x82}@'
p53
tp54
Rp55
ag10
(g14
S'\xab\xbd\x07\xd8k\x84}@'
p56
tp57
Rp58
ag10
(g14
S'3\x84\xc71\xe0}}@'
p59
tp60
Rp61
ag10
(g14
S'n5x\xf5\xdc\x88}@'
p62
tp63
Rp64
ag10
(g14
S'\x98zT\x99?\x9b}@'
p65
tp66
Rp67
ag10
(g14
S'\xa8\xc7\xd4R\xda\x82}@'
p68
tp69
Rp70
ag10
(g14
S'\x1cK\xb7WSp}@'
p71
tp72
Rp73
ag10
(g14
S'`\xbeitI~}@'
p74
tp75
Rp76
asS'target'
p77
(lp78
g10
(g14
S'u79\x08Ce%@'
p79
tp80
Rp81
ag10
(g14
S'U\x0b^\xfc\xb1e%@'
p82
tp83
Rp84
ag10
(g14
S'W\xb9\xc0\xac\xdf\x13 @'
p85
tp86
Rp87
ag10
(g14
S'D\x8e\xe7DS]\x1c@'
p88
tp89
Rp90
ag10
(g14
S'\xa0T\x98\t\'\x04"@'
p91
tp92
Rp93
ag10
(g14
S'\xbf\xbaL-\xe0\xff$@'
p94
tp95
Rp96
ag10
(g14
S'56\xbc}\x05\x92"@'
p97
tp98
Rp99
ag10
(g14
S'\x02\x0f\x13\xc6\xa9Q#@'
p100
tp101
Rp102
ag10
(g14
S'\xc8\xe0\x9b\x9b\x97\x82#@'
p103
tp104
Rp105
ag10
(g14
S'\xe9h\x17y"\x06\x1c@'
p106
tp107
Rp108
ag10
(g14
S'a\xc6jD\x06h\x1f@'
p109
tp110
Rp111
ag10
(g14
S'\x7f5\xd22\xef%&@'
p112
tp113
Rp114
ag10
(g14
S'F\xd1\xd0\x87b\x83%@'
p115
tp116
Rp117
ag10
(g14
S'\x9536L\xd0\xdb&@'
p118
tp119
Rp120
ag10
(g14
S'\x9d#\xca\t\xbf\x15"@'
p121
tp122
Rp123
ag10
(g14
S'`[\xf1R\xf9\xf4!@'
p124
tp125
Rp126
ag10
(g14
S'\x89\xd6y\xe0\xc9\xbb*@'
p127
tp128
Rp129
ag10
(g14
S'\xde*|hun!@'
p130
tp131
Rp132
ag10
(g14
S'=v\x10\xf1W\xc3\x19@'
p133
tp134
Rp135
ag10
(g14
S'\xdc\ni\xa2\x04S$@'
p136
tp137
Rp138
asssss.