(dp0
S'../Data/sqlite_60.csv'
p1
(dp2
S'../Data/sqlite_56.csv'
p3
(dp4
F0.25
(dp5
S'abs_res'
p6
(dp7
S'bellwether'
p8
(lp9
cnumpy.core.multiarray
scalar
p10
(cnumpy
dtype
p11
(S'f8'
p12
I0
I1
tp13
Rp14
(I3
S'<'
p15
NNNI-1
I-1
I0
tp16
bS'\xd9Mb\x14\xef^eA'
p17
tp18
Rp19
ag10
(g14
S'cH\x9a.(ZeA'
p20
tp21
Rp22
ag10
(g14
S'\xb2\x1cZ\x94\xc2\\eA'
p23
tp24
Rp25
ag10
(g14
S'=\xa5\xe2\x80\x13PeA'
p26
tp27
Rp28
ag10
(g14
S'DDD\xb01YeA'
p29
tp30
Rp31
ag10
(g14
S'\xcaK7\xa1\x03TeA'
p32
tp33
Rp34
ag10
(g14
S'\xaa\rtf\xc3TeA'
p35
tp36
Rp37
ag10
(g14
S'\x7f\xa2\xfe)\tMeA'
p38
tp39
Rp40
ag10
(g14
S'\x0b\x90{\xf9(aeA'
p41
tp42
Rp43
ag10
(g14
S'\xfc\xff\xff{\xddUeA'
p44
tp45
Rp46
ag10
(g14
S'\xc5\xf5(\x1c\xf7UeA'
p47
tp48
Rp49
ag10
(g14
S'\x91\xed|\xbfDYeA'
p50
tp51
Rp52
ag10
(g14
S'\xd0Mb\xb4L_eA'
p53
tp54
Rp55
ag10
(g14
S'o\xcbZ\xad\xa5KeA'
p56
tp57
Rp58
ag10
(g14
S'\xc9\xdb\xb2\x12\xa4XeA'
p59
tp60
Rp61
ag10
(g14
S')>\xc3F\xa2SeA'
p62
tp63
Rp64
ag10
(g14
S'\xbe\x1e\x85\x9b\x8eTeA'
p65
tp66
Rp67
ag10
(g14
S'\xf6\xb6\xac\x99\xcbWeA'
p68
tp69
Rp70
ag10
(g14
S'\x82\x16\xd9\x96_aeA'
p71
tp72
Rp73
ag10
(g14
S'\xec&1<\xfbaeA'
p74
tp75
Rp76
asS'target'
p77
(lp78
g10
(g14
S'K5^\xbaI\xd4\\@'
p79
tp80
Rp81
ag10
(g14
S'L5^\xbaI\xa0]@'
p82
tp83
Rp84
ag10
(g14
S'\xee|?5^\xaa]@'
p85
tp86
Rp87
ag10
(g14
S'\xc0\xf5(\\\x8fB\\@'
p88
tp89
Rp90
ag10
(g14
S'\x96n\x12\x83\xc0B]@'
p91
tp92
Rp93
ag10
(g14
S'>\xdfO\x8d\x97\x1a`@'
p94
tp95
Rp96
ag10
(g14
S'W\x8d\x97n\x12w\\@'
p97
tp98
Rp99
ag10
(g14
S'<\x08\xac\x1cZt_@'
p100
tp101
Rp102
ag10
(g14
S"\xd1\xa3p=\n']@"
p103
tp104
Rp105
ag10
(g14
S'\xe5\xfb\xa9\xf1\xd2\t\\@'
p106
tp107
Rp108
ag10
(g14
S'@\x89A`\xe5X]@'
p109
tp110
Rp111
ag10
(g14
S'\xb1\xf3\xfd\xd4x\xc1]@'
p112
tp113
Rp114
ag10
(g14
S'\x7fj\xbct\x93\xd4^@'
p115
tp116
Rp117
ag10
(g14
S'A\x8bl\xe7\xfbq^@'
p118
tp119
Rp120
ag10
(g14
S'i\x12\x83\xc0\xca\xcd]@'
p121
tp122
Rp123
ag10
(g14
S'i\xbct\x93\x18l^@'
p124
tp125
Rp126
ag10
(g14
S'$\x08\xac\x1cZ\xac\\@'
p127
tp128
Rp129
ag10
(g14
S'3\n\xd7\xa3p1_@'
p130
tp131
Rp132
ag10
(g14
S'\x9b\x99\x99\x99\x99\xe9\\@'
p133
tp134
Rp135
ag10
(g14
S'\xb2\x1e\x85\xebQ\xd8[@'
p136
tp137
Rp138
asssss.