(dp0
S'../Data/sqlite_4.csv'
p1
(dp2
S'../Data/sqlite_70.csv'
p3
(dp4
F0.05
(dp5
S'abs_res'
p6
(dp7
S'bellwether'
p8
(lp9
cnumpy.core.multiarray
scalar
p10
(cnumpy
dtype
p11
(S'f8'
p12
I0
I1
tp13
Rp14
(I3
S'<'
p15
NNNI-1
I-1
I0
tp16
bS'\xe6\xa7\xc6\x1b\xb0pBA'
p17
tp18
Rp19
ag10
(g14
S'\xd2"\xdb\x99MpBA'
p20
tp21
Rp22
ag10
(g14
S'\xe6\xa5\x9btgpBA'
p23
tp24
Rp25
ag10
(g14
S'2^\xba\x19\x10pBA'
p26
tp27
Rp28
ag10
(g14
S'r=\ng@pBA'
p29
tp30
Rp31
ag10
(g14
S'\\d;o\xf4pBA'
p32
tp33
Rp34
ag10
(g14
S'>\x89A0\xb6pBA'
p35
tp36
Rp37
ag10
(g14
S'\x05\x81\x95\xc3VpBA'
p38
tp39
Rp40
ag10
(g14
S'\xd5"\xdb9&pBA'
p41
tp42
Rp43
ag10
(g14
S'\x1c\xdb\xf9\xfe[pBA'
p44
tp45
Rp46
ag10
(g14
S'\x17\x04V\x8e\xd5oBA'
p47
tp48
Rp49
ag10
(g14
S'H7\x89\xf1ppBA'
p50
tp51
Rp52
ag10
(g14
S'\x97\xfcb\x99\x1cpBA'
p53
tp54
Rp55
ag10
(g14
S'B5^J4pBA'
p56
tp57
Rp58
ag10
(g14
S'\x17/\xdd\xf4\xb7pBA'
p59
tp60
Rp61
ag10
(g14
S'-\x87\x16I\xa4pBA'
p62
tp63
Rp64
ag10
(g14
S'\xe0$\x06A\x89pBA'
p65
tp66
Rp67
ag10
(g14
S'$\x85\xeb\xe1\x83pBA'
p68
tp69
Rp70
ag10
(g14
S'\x9bC\x8blcpBA'
p71
tp72
Rp73
ag10
(g14
S'\x01\xd5xi\xe6pBA'
p74
tp75
Rp76
asS'target'
p77
(lp78
g10
(g14
S'\x90A`\xe5\xd0\xb6a@'
p79
tp80
Rp81
ag10
(g14
S'L`\xe5\xd0"\xa7e@'
p82
tp83
Rp84
ag10
(g14
S'\xe4z\x14\xaeG!d@'
p85
tp86
Rp87
ag10
(g14
S'^\xb8\x1e\x85\xeb\x91d@'
p88
tp89
Rp90
ag10
(g14
S'95^\xbaI<h@'
p91
tp92
Rp93
ag10
(g14
S'\x1d\xb0rh\x91\xfda@'
p94
tp95
Rp96
ag10
(g14
S'\xa0E\xb6\xf3\xfd$c@'
p97
tp98
Rp99
ag10
(g14
S'\x1f\x04V\x0e-\xd6c@'
p100
tp101
Rp102
ag10
(g14
S'\x12Zd;\xdf7d@'
p103
tp104
Rp105
ag10
(g14
S'?\xb4\xc8v\xbe\xcfb@'
p106
tp107
Rp108
ag10
(g14
S'w\xe9&1\x08\x18d@'
p109
tp110
Rp111
ag10
(g14
S'"\\\x8f\xc2\xf5\x04e@'
p112
tp113
Rp114
ag10
(g14
S'\x1a\xd7\xa3p=\x12f@'
p115
tp116
Rp117
ag10
(g14
S'<\xb6\xf3\xfd\xd4|a@'
p118
tp119
Rp120
ag10
(g14
S'\r-\xb2\x9d\xef\x17c@'
p121
tp122
Rp123
ag10
(g14
S'\xe0\xd0"\xdb\xf9za@'
p124
tp125
Rp126
ag10
(g14
S'\xf7S\xe3\xa5\x9bTb@'
p127
tp128
Rp129
ag10
(g14
S'\xd4"\xdb\xf9~\x06f@'
p130
tp131
Rp132
ag10
(g14
S'\t\x02+\x87\x16\x01d@'
p133
tp134
Rp135
ag10
(g14
S'\xbb\x1e\x85\xebQ\x80f@'
p136
tp137
Rp138
asssss.