(dp0
S'../Data/sqlite_46.csv'
p1
(dp2
S'../Data/sqlite_22.csv'
p3
(dp4
F0.15
(dp5
S'abs_res'
p6
(dp7
S'bellwether'
p8
(lp9
cnumpy.core.multiarray
scalar
p10
(cnumpy
dtype
p11
(S'f8'
p12
I0
I1
tp13
Rp14
(I3
S'<'
p15
NNNI-1
I-1
I0
tp16
bS'\xfc~j,os@A'
p17
tp18
Rp19
ag10
(g14
S'\x06\xac\x1c*\x9ds@A'
p20
tp21
Rp22
ag10
(g14
S'\xb7\xf3\xfd\x84Zs@A'
p23
tp24
Rp25
ag10
(g14
S'\xc9\xa1E\x16ss@A'
p26
tp27
Rp28
ag10
(g14
S'\x19\xd9\xce\x97\xb2s@A'
p29
tp30
Rp31
ag10
(g14
S'\t-\xb2]\xcds@A'
p32
tp33
Rp34
ag10
(g14
S'\x13-\xb2\r\x9bs@A'
p35
tp36
Rp37
ag10
(g14
S'Ib\x10\xf8ls@A'
p38
tp39
Rp40
ag10
(g14
S'\xc4K7\xb9\xf6s@A'
p41
tp42
Rp43
ag10
(g14
S'\xf6(\\_qs@A'
p44
tp45
Rp46
ag10
(g14
S'\xe1z\x14\xde\x8as@A'
p47
tp48
Rp49
ag10
(g14
S'\xfe\xa9\xf1\x12\x92s@A'
p50
tp51
Rp52
ag10
(g14
S'\xed|?%\xb5s@A'
p53
tp54
Rp55
ag10
(g14
S'\x19Zd\x1b\x8as@A'
p56
tp57
Rp58
ag10
(g14
S'\xc3\xf5(\x9c\x8fs@A'
p59
tp60
Rp61
ag10
(g14
S'ph\x91}Es@A'
p62
tp63
Rp64
ag10
(g14
S'i\x91\xed\x8c\xc6r@A'
p65
tp66
Rp67
ag10
(g14
S'\x87A`\x95\xd5s@A'
p68
tp69
Rp70
ag10
(g14
S'7\xdfO\xed\xbcs@A'
p71
tp72
Rp73
ag10
(g14
S'\x93\xed|\xbf\x0cs@A'
p74
tp75
Rp76
asS'target'
p77
(lp78
g10
(g14
S'@\n\xd7\xa3p\xb5[@'
p79
tp80
Rp81
ag10
(g14
S'Y\x0e-\xb2\x9dSZ@'
p82
tp83
Rp84
ag10
(g14
S'\x80?5^\xba\xb9W@'
p85
tp86
Rp87
ag10
(g14
S'\xb9\xf3\xfd\xd4x\x95V@'
p88
tp89
Rp90
ag10
(g14
S'\x83A`\xe5\xd0BX@'
p91
tp92
Rp93
ag10
(g14
S'\xf6\xd2Mb\x10H[@'
p94
tp95
Rp96
ag10
(g14
S'\xf3\xfd\xd4x\xe9\xa2V@'
p97
tp98
Rp99
ag10
(g14
S'\xab\x1cZd;GY@'
p100
tp101
Rp102
ag10
(g14
S':5^\xbaI\x14Z@'
p103
tp104
Rp105
ag10
(g14
S'N\x8d\x97n\x12\xbb[@'
p106
tp107
Rp108
ag10
(g14
S'$\xdd$\x06\x81eZ@'
p109
tp110
Rp111
ag10
(g14
S'\xc7\xa1E\xb6\xf3\xe5Y@'
p112
tp113
Rp114
ag10
(g14
S'*\xb2\x9d\xef\xa7\xc6Z@'
p115
tp116
Rp117
ag10
(g14
S't\x95C\x8bl;V@'
p118
tp119
Rp120
ag10
(g14
S'G\x0e-\xb2\x9d\xcb[@'
p121
tp122
Rp123
ag10
(g14
S'\xac\xc6K7\x89![@'
p124
tp125
Rp126
ag10
(g14
S'83333\xd3X@'
p127
tp128
Rp129
ag10
(g14
S'\x00\xaa\xf1\xd2M\x1a^@'
p130
tp131
Rp132
ag10
(g14
S'\xc2K7\x89A\xb8[@'
p133
tp134
Rp135
ag10
(g14
S'\x91\x16\xd9\xce\xf7\x0bX@'
p136
tp137
Rp138
asssss.