(dp0
S'../Data/sqlite_74.csv'
p1
(dp2
S'../Data/sqlite_30.csv'
p3
(dp4
F0.4
(dp5
S'abs_res'
p6
(dp7
S'bellwether'
p8
(lp9
cnumpy.core.multiarray
scalar
p10
(cnumpy
dtype
p11
(S'f8'
p12
I0
I1
tp13
Rp14
(I3
S'<'
p15
NNNI-1
I-1
I0
tp16
bS'\x90_,A.OdA'
p17
tp18
Rp19
ag10
(g14
S'\xea\x98\xe0A\xe8TdA'
p20
tp21
Rp22
ag10
(g14
S'\xc6\xf7Sw\x98SdA'
p23
tp24
Rp25
ag10
(g14
S'z\x93\x18$\xedQdA'
p26
tp27
Rp28
ag10
(g14
S'\x97\x0bI;\x07adA'
p29
tp30
Rp31
ag10
(g14
S'\xc0\xd7\\\\+JdA'
p32
tp33
Rp34
ag10
(g14
S'f.$\xdd\xe6ZdA'
p35
tp36
Rp37
ag10
(g14
S'\n\xbb\x02\x1c\xf5BdA'
p38
tp39
Rp40
ag10
(g14
S'\x05\x9d68\xd2VdA'
p41
tp42
Rp43
ag10
(g14
S';\xfb\xf0\x99\xdcNdA'
p44
tp45
Rp46
ag10
(g14
S'\xaarh\xd5\xaeTdA'
p47
tp48
Rp49
ag10
(g14
S'!>\xc3j3TdA'
p50
tp51
Rp52
ag10
(g14
S'\te\xf4\x9e\x0eCdA'
p53
tp54
Rp55
ag10
(g14
S'u\xe9&\r\xc6]dA'
p56
tp57
Rp58
ag10
(g14
S'\x9e8\xfbx\xd1GdA'
p59
tp60
Rp61
ag10
(g14
S'\x8b\xde\x96\x85\x82IdA'
p62
tp63
Rp64
ag10
(g14
S'\x9d\x99\x99\x81\xd2IdA'
p65
tp66
Rp67
ag10
(g14
S'\x80\xebQ\x00hKdA'
p68
tp69
Rp70
ag10
(g14
S'Q\x9c}HwZdA'
p71
tp72
Rp73
ag10
(g14
S'\xae\xf1\xd2IVDdA'
p74
tp75
Rp76
asS'target'
p77
(lp78
g10
(g14
S'X\x8d\x97n\x12S6@'
p79
tp80
Rp81
ag10
(g14
S'\x9d\x1a/\xdd$\x166@'
p82
tp83
Rp84
ag10
(g14
S'\xa2\xc6K7\x89\x81:@'
p85
tp86
Rp87
ag10
(g14
S'V9\xb4\xc8v\x0e9@'
p88
tp89
Rp90
ag10
(g14
S'd;\xdfO\x8d\xb77@'
p91
tp92
Rp93
ag10
(g14
S'\xe1\xd0"\xdb\xf9\xfe8@'
p94
tp95
Rp96
ag10
(g14
S'\x84\xebQ\xb8\x1eE:@'
p97
tp98
Rp99
ag10
(g14
S'm\x91\xed|?58@'
p100
tp101
Rp102
ag10
(g14
S'8\xb4\xc8v\xbe\x7f:@'
p103
tp104
Rp105
ag10
(g14
S'F\x0c\x02+\x87\xb6=@'
p106
tp107
Rp108
ag10
(g14
S'\x9d\xed|?5\xbe:@'
p109
tp110
Rp111
ag10
(g14
S"\x85\x95C\x8bl'=@"
p112
tp113
Rp114
ag10
(g14
S'\xa5\x1a/\xdd$f8@'
p115
tp116
Rp117
ag10
(g14
S'Y\xbaI\x0c\x02k8@'
p118
tp119
Rp120
ag10
(g14
S'\x99\xef\xa7\xc6Kg9@'
p121
tp122
Rp123
ag10
(g14
S'\x08\x00\x00\x00\x00\xe08@'
p124
tp125
Rp126
ag10
(g14
S'_\x10X9\xb4\xc8:@'
p127
tp128
Rp129
ag10
(g14
S'1\x89A`\xe5\xe08@'
p130
tp131
Rp132
ag10
(g14
S'\xff*\x87\x16\xd9^;@'
p133
tp134
Rp135
ag10
(g14
S'\xf2\xd2Mb\x10\x18:@'
p136
tp137
Rp138
asssss.