(dp0
S'../Data/sqlite_18.csv'
p1
(dp2
S'../Data/sqlite_8.csv'
p3
(dp4
F0.1
(dp5
S'abs_res'
p6
(dp7
S'bellwether'
p8
(lp9
cnumpy.core.multiarray
scalar
p10
(cnumpy
dtype
p11
(S'f8'
p12
I0
I1
tp13
Rp14
(I3
S'<'
p15
NNNI-1
I-1
I0
tp16
bS'\xf8~jl\x9fvAA'
p17
tp18
Rp19
ag10
(g14
S'\x1eZd\xeb\x13vAA'
p20
tp21
Rp22
ag10
(g14
S'\xef\xb4\x81.\xc1uAA'
p23
tp24
Rp25
ag10
(g14
S'\xf3\x8b%?fvAA'
p26
tp27
Rp28
ag10
(g14
S'\xc0-k\xd5\x0fvAA'
p29
tp30
Rp31
ag10
(g14
S'\xd5\xf7SClvAA'
p32
tp33
Rp34
ag10
(g14
S'\xa8\xfe\x8d`]vAA'
p35
tp36
Rp37
ag10
(g14
S'!>\xc3^\xbauAA'
p38
tp39
Rp40
ag10
(g14
S'w\xe9&q\xdauAA'
p41
tp42
Rp43
ag10
(g14
S'}?5\xdeAvAA'
p44
tp45
Rp46
ag10
(g14
S'.\xdd$6MvAA'
p47
tp48
Rp49
ag10
(g14
S'U\x1b\xe84LvAA'
p50
tp51
Rp52
ag10
(g14
S'\xa4\xef\xa7V!vAA'
p53
tp54
Rp55
ag10
(g14
S'\xc4\x9f\x1a\xef|vAA'
p56
tp57
Rp58
ag10
(g14
S'+\\\x8f\x92\xe4uAA'
p59
tp60
Rp61
ag10
(g14
S'\xd9\xa3pMAvAA'
p62
tp63
Rp64
ag10
(g14
S'\xe2$\x06\xa1\xd0uAA'
p65
tp66
Rp67
ag10
(g14
S'\xf77BY\xc2vAA'
p68
tp69
Rp70
ag10
(g14
S'\x1e/\xdd\xb4\xbfuAA'
p71
tp72
Rp73
ag10
(g14
S'\n<\x98\x87\x97uAA'
p74
tp75
Rp76
asS'target'
p77
(lp78
g10
(g14
S'e\xbaI\x0c\x02\xe3Z@'
p79
tp80
Rp81
ag10
(g14
S'x\x14\xaeG\xe1\x82]@'
p82
tp83
Rp84
ag10
(g14
S'\xf3\xd2Mb\x10\x88`@'
p85
tp86
Rp87
ag10
(g14
S'\x96n\x12\x83\xc0\x1a]@'
p88
tp89
Rp90
ag10
(g14
S'kh\x91\xed|\x87]@'
p91
tp92
Rp93
ag10
(g14
S'\xf0\xa7\xc6K7\x01^@'
p94
tp95
Rp96
ag10
(g14
S'\xdeMb\x10X\x81Y@'
p97
tp98
Rp99
ag10
(g14
S'\xfe(\\\x8f\xc25\\@'
p100
tp101
Rp102
ag10
(g14
S'b\xbaI\x0c\x02\x03\\@'
p103
tp104
Rp105
ag10
(g14
S'\xa5\x1a/\xdd$\x1e`@'
p106
tp107
Rp108
ag10
(g14
S'\x1c\x04V\x0e-\nZ@'
p109
tp110
Rp111
ag10
(g14
S'~\x14\xaeG\xe1\xea^@'
p112
tp113
Rp114
ag10
(g14
S'\x08+\x87\x16\xd9\xf6[@'
p115
tp116
Rp117
ag10
(g14
S'^\xe3\xa5\x9b\xc4\xc8[@'
p118
tp119
Rp120
ag10
(g14
S'L\x0c\x02+\x87Nd@'
p121
tp122
Rp123
ag10
(g14
S'\xef|?5^\xf2_@'
p124
tp125
Rp126
ag10
(g14
S'D\xb8\x1e\x85\xeb\xf1Y@'
p127
tp128
Rp129
ag10
(g14
S'\xf0\xd2Mb\x10\xdc[@'
p130
tp131
Rp132
ag10
(g14
S'S\x8d\x97n\x12\xcf_@'
p133
tp134
Rp135
ag10
(g14
S'n\x91\xed|?uY@'
p136
tp137
Rp138
asssss.