(dp0
S'../Data/sqlite_50.csv'
p1
(dp2
S'../Data/sqlite_59.csv'
p3
(dp4
F0.05
(dp5
S'mmre'
p6
(dp7
S'bellwether'
p8
(lp9
cnumpy.core.multiarray
scalar
p10
(cnumpy
dtype
p11
(S'f8'
p12
I0
I1
tp13
Rp14
(I3
S'<'
p15
NNNI-1
I-1
I0
tp16
bS'\xd3\x15j\xfc\x11%T@'
p17
tp18
Rp19
ag10
(g14
S'y\xe9<\xfdS%T@'
p20
tp21
Rp22
ag10
(g14
S'4d\x11\x02\xed&T@'
p23
tp24
Rp25
ag10
(g14
S"~\xbc\xb0w\xda'T@"
p26
tp27
Rp28
ag10
(g14
S'\x93\xc3\xc5\x12A&T@'
p29
tp30
Rp31
ag10
(g14
S"\x02\xddIN\xeb'T@"
p32
tp33
Rp34
ag10
(g14
S'\xfb\xe0ll\xd0%T@'
p35
tp36
Rp37
ag10
(g14
S"\xe0$e\xfb\xb8'T@"
p38
tp39
Rp40
ag10
(g14
S"\xd6\xbd\x9f\xe5\x08'T@"
p41
tp42
Rp43
ag10
(g14
S"\xb1\xd6C>M'T@"
p44
tp45
Rp46
ag10
(g14
S'\xca\x85\x04\xb8\xd3&T@'
p47
tp48
Rp49
ag10
(g14
S':M\x12\x8f\xa3&T@'
p50
tp51
Rp52
ag10
(g14
S'no\x89\x9dM&T@'
p53
tp54
Rp55
ag10
(g14
S"/\xd9Y\x8b/'T@"
p56
tp57
Rp58
ag10
(g14
S'2K\x98W\x90%T@'
p59
tp60
Rp61
ag10
(g14
S"]\xcc\xb3S\x0f'T@"
p62
tp63
Rp64
ag10
(g14
S'\xcc\xd0l\x81e&T@'
p65
tp66
Rp67
ag10
(g14
S'\x05\x05\x97\xfa\x06(T@'
p68
tp69
Rp70
ag10
(g14
S'm\x7f\xc4\xd5p&T@'
p71
tp72
Rp73
ag10
(g14
S"\xe9_\x9d\x11\xfe'T@"
p74
tp75
Rp76
asS'target'
p77
(lp78
g10
(g14
S'\xcf\x81M\xd7\x1da*@'
p79
tp80
Rp81
ag10
(g14
S"\xaa\xc6\xa2+\xa9\xd1'@"
p82
tp83
Rp84
ag10
(g14
S"\x95\xf5|\x94\xdeS'@"
p85
tp86
Rp87
ag10
(g14
S'\xacx\xc8\xb0\xea\xa9(@'
p88
tp89
Rp90
ag10
(g14
S'{M2\x98/Z&@'
p91
tp92
Rp93
ag10
(g14
S'o\x97\xc8*\xa5)%@'
p94
tp95
Rp96
ag10
(g14
S'p\xba\x9fC\x83"&@'
p97
tp98
Rp99
ag10
(g14
S'\x96}<@7\xd7%@'
p100
tp101
Rp102
ag10
(g14
S'\xfcS\x19\x83\xe8"&@'
p103
tp104
Rp105
ag10
(g14
S"\xf6!\xd6\x8d\x96\x0f'@"
p106
tp107
Rp108
ag10
(g14
S'\xce\xfe\xf0R\xf3\xba$@'
p109
tp110
Rp111
ag10
(g14
S'D\xefN\xdb92)@'
p112
tp113
Rp114
ag10
(g14
S"4z\x03'\x92\xec&@"
p115
tp116
Rp117
ag10
(g14
S"\xb2\xdb\x15\xe4S='@"
p118
tp119
Rp120
ag10
(g14
S"HZ\xba\xf3P{'@"
p121
tp122
Rp123
ag10
(g14
S'\x87\xc4Ks\xc2\xef$@'
p124
tp125
Rp126
ag10
(g14
S'AQIh\x94D)@'
p127
tp128
Rp129
ag10
(g14
S'\x15\xa1\xa9\x8fAQ)@'
p130
tp131
Rp132
ag10
(g14
S'e\xbfN\x02x9&@'
p133
tp134
Rp135
ag10
(g14
S'\xc4\xd9\xad\xf9\xbe\x98"@'
p136
tp137
Rp138
asssss.