(dp0
S'../Data/sqlite_67.csv'
p1
(dp2
S'../Data/sqlite_21.csv'
p3
(dp4
F0.05
(dp5
S'abs_res'
p6
(dp7
S'bellwether'
p8
(lp9
cnumpy.core.multiarray
scalar
p10
(cnumpy
dtype
p11
(S'f8'
p12
I0
I1
tp13
Rp14
(I3
S'<'
p15
NNNI-1
I-1
I0
tp16
bS'\x8c\xed|?\xb5)$A'
p17
tp18
Rp19
ag10
(g14
S'9\x89A`F)$A'
p20
tp21
Rp22
ag10
(g14
S']9\xb4\xc8\xc8)$A'
p23
tp24
Rp25
ag10
(g14
S'\x94PF\xaf\xdb)$A'
p26
tp27
Rp28
ag10
(g14
S'\xf4`\x9e\xa8\xdf)$A'
p29
tp30
Rp31
ag10
(g14
S'\xf5\xff\xff\xbf[)$A'
p32
tp33
Rp34
ag10
(g14
S'\xff\x80\x95\xc3\xd6)$A'
p35
tp36
Rp37
ag10
(g14
S'\xc2v\xbe\x1f\x08*$A'
p38
tp39
Rp40
ag10
(g14
S'>\xdfO\x8d\xef)$A'
p41
tp42
Rp43
ag10
(g14
S'qL\xf0 4*$A'
p44
tp45
Rp46
ag10
(g14
S'\xcbx\xe9&!*$A'
p47
tp48
Rp49
ag10
(g14
S'\xc5/\x96|9*$A'
p50
tp51
Rp52
ag10
(g14
S'v\xbe\x9f\x1aQ*$A'
p53
tp54
Rp55
ag10
(g14
S'\x7f\x14\xae\x87\xc9)$A'
p56
tp57
Rp58
ag10
(g14
S'1\x87\x16\x99\xe7)$A'
p59
tp60
Rp61
ag10
(g14
S'\xc0\xf5(\xdc\x89)$A'
p62
tp63
Rp64
ag10
(g14
S'4\n\xd7\xe3\xf8)$A'
p65
tp66
Rp67
ag10
(g14
S'(\xb2\x9d\xef3*$A'
p68
tp69
Rp70
ag10
(g14
S'\xa1\xd3\x06\xfa\x81)$A'
p71
tp72
Rp73
ag10
(g14
S'p\x12\x83\x00\x0e*$A'
p74
tp75
Rp76
asS'target'
p77
(lp78
g10
(g14
S'u\x93\x18\x04V\x82h@'
p79
tp80
Rp81
ag10
(g14
S'\x00\xd7\xa3p=\x92l@'
p82
tp83
Rp84
ag10
(g14
S'2\x89A`\xe5\xfcl@'
p85
tp86
Rp87
ag10
(g14
S'm\xe7\xfb\xa9\xf1lq@'
p88
tp89
Rp90
ag10
(g14
S'"/\xdd$\x06sp@'
p91
tp92
Rp93
ag10
(g14
S'\xc2\x9d\xef\xa7\xc6Gm@'
p94
tp95
Rp96
ag10
(g14
S'.\xdb\xf9~j\x04m@'
p97
tp98
Rp99
ag10
(g14
S'K7\x89A`\xa9h@'
p100
tp101
Rp102
ag10
(g14
S'W\xbaI\x0c\x02\xf7l@'
p103
tp104
Rp105
ag10
(g14
S's\x93\x18\x04V\x0eo@'
p106
tp107
Rp108
ag10
(g14
S'\xa1p=\n\xd7\xa3h@'
p109
tp110
Rp111
ag10
(g14
S'C\x8bl\xe7\xfb9m@'
p112
tp113
Rp114
ag10
(g14
S'#\x85\xebQ\xb8\x06l@'
p115
tp116
Rp117
ag10
(g14
S'\xda\xf9~j\xbc.p@'
p118
tp119
Rp120
ag10
(g14
S'nffffrm@'
p121
tp122
Rp123
ag10
(g14
S'\x10/\xdd$\x06mo@'
p124
tp125
Rp126
ag10
(g14
S'?\xdfO\x8d\x97^k@'
p127
tp128
Rp129
ag10
(g14
S'\xb6\x9b\xc4 \xb0\x8aj@'
p130
tp131
Rp132
ag10
(g14
S'=\x89A`\xe5\xfci@'
p133
tp134
Rp135
ag10
(g14
S'\xfc*\x87\x16\xd9\xa6j@'
p136
tp137
Rp138
asssss.