(dp0
S'../Data/sqlite_9.csv'
p1
(dp2
S'../Data/sqlite_95.csv'
p3
(dp4
F0.2
(dp5
S'mmre'
p6
(dp7
S'bellwether'
p8
(lp9
cnumpy.core.multiarray
scalar
p10
(cnumpy
dtype
p11
(S'f8'
p12
I0
I1
tp13
Rp14
(I3
S'<'
p15
NNNI-1
I-1
I0
tp16
bS'2\x93BF?\xf7X@'
p17
tp18
Rp19
ag10
(g14
S'H\xc1\x1f -\xf7X@'
p20
tp21
Rp22
ag10
(g14
S'\xe9\x9du\x830\xf7X@'
p23
tp24
Rp25
ag10
(g14
S'vB\r\x81/\xf7X@'
p26
tp27
Rp28
ag10
(g14
S'\xe7j\t\x99?\xf7X@'
p29
tp30
Rp31
ag10
(g14
S'(\xa2\x981O\xf7X@'
p32
tp33
Rp34
ag10
(g14
S'\x97\xa8\xb9\x96)\xf7X@'
p35
tp36
Rp37
ag10
(g14
S'\xbc\x1a`\x983\xf7X@'
p38
tp39
Rp40
ag10
(g14
S'*vg\xfe>\xf7X@'
p41
tp42
Rp43
ag10
(g14
S'\x907\xb2\xdaF\xf7X@'
p44
tp45
Rp46
ag10
(g14
S'\x02G\xa3.e\xf7X@'
p47
tp48
Rp49
ag10
(g14
S'4J\x85\xdbN\xf7X@'
p50
tp51
Rp52
ag10
(g14
S'^(\xde\x17;\xf7X@'
p53
tp54
Rp55
ag10
(g14
S'\x94W\x83\xf1+\xf7X@'
p56
tp57
Rp58
ag10
(g14
S'h\x1f\x8cM2\xf7X@'
p59
tp60
Rp61
ag10
(g14
S'\xcb\xd4\xd82+\xf7X@'
p62
tp63
Rp64
ag10
(g14
S'h\x06<S)\xf7X@'
p65
tp66
Rp67
ag10
(g14
S'\x08\xd54>O\xf7X@'
p68
tp69
Rp70
ag10
(g14
S'\xeb\xd7^\xf9J\xf7X@'
p71
tp72
Rp73
ag10
(g14
S'\xe8`\xfe\x9dI\xf7X@'
p74
tp75
Rp76
asS'target'
p77
(lp78
g10
(g14
S'\x8e6^t\x88\xd4B@'
p79
tp80
Rp81
ag10
(g14
S'Z8!\xa538A@'
p82
tp83
Rp84
ag10
(g14
S'\x10Va6\xf7\x92A@'
p85
tp86
Rp87
ag10
(g14
S'Z\xa7\xec~\xce\xe8A@'
p88
tp89
Rp90
ag10
(g14
S'4\xb6\x9etT\xed@@'
p91
tp92
Rp93
ag10
(g14
S'\x05Z\xa9\x99\xd1\xd8A@'
p94
tp95
Rp96
ag10
(g14
S'\xcd~\xe1[u\xb7A@'
p97
tp98
Rp99
ag10
(g14
S'\x9c\xaf:g\x92\xa4@@'
p100
tp101
Rp102
ag10
(g14
S'\xa2L\xab\x88vYE@'
p103
tp104
Rp105
ag10
(g14
S'\xe6@{\x86\xa7\xf2A@'
p106
tp107
Rp108
ag10
(g14
S'FNB&\xe8\xd0A@'
p109
tp110
Rp111
ag10
(g14
S'\x9d\x05\xcdk@$C@'
p112
tp113
Rp114
ag10
(g14
S'^\xa2\xffl\xe3\x06@@'
p115
tp116
Rp117
ag10
(g14
S'\x91_\xf6Z\x8bg?@'
p118
tp119
Rp120
ag10
(g14
S'\xdavX5<\xe6A@'
p121
tp122
Rp123
ag10
(g14
S'v<8\xbc\xef\xd6C@'
p124
tp125
Rp126
ag10
(g14
S'\x9e\xd8N\xf0JfC@'
p127
tp128
Rp129
ag10
(g14
S'\xe9:\xe0\x11\xb5M?@'
p130
tp131
Rp132
ag10
(g14
S'\x88\xd5\xa5[\xe4\x84B@'
p133
tp134
Rp135
ag10
(g14
S'\xeb\x1f>\x9a\xf0\xefA@'
p136
tp137
Rp138
asssss.