(dp0
S'../Data/sqlite_12.csv'
p1
(dp2
S'../Data/sqlite_84.csv'
p3
(dp4
F0.05
(dp5
S'mmre'
p6
(dp7
S'bellwether'
p8
(lp9
cnumpy.core.multiarray
scalar
p10
(cnumpy
dtype
p11
(S'f8'
p12
I0
I1
tp13
Rp14
(I3
S'<'
p15
NNNI-1
I-1
I0
tp16
bS'\x83\xd1\xed\xf6\xe3?u@'
p17
tp18
Rp19
ag10
(g14
S'\xfa\xa0\xa5\xcej/u@'
p20
tp21
Rp22
ag10
(g14
S'VS\xdf2N?u@'
p23
tp24
Rp25
ag10
(g14
S'h\xb2\xf8\xe8i>u@'
p26
tp27
Rp28
ag10
(g14
S'}DW\x01//u@'
p29
tp30
Rp31
ag10
(g14
S'\x8a\x7f\xb1;o?u@'
p32
tp33
Rp34
ag10
(g14
S'5\xf1\xf7 F5u@'
p35
tp36
Rp37
ag10
(g14
S'z\xdc\xf1l\xb3.u@'
p38
tp39
Rp40
ag10
(g14
S'h\xfd\x06\xf377u@'
p41
tp42
Rp43
ag10
(g14
S'"\xe2\xb2@\xf8&u@'
p44
tp45
Rp46
ag10
(g14
S'\xce\xe3 ^\xa3=u@'
p47
tp48
Rp49
ag10
(g14
S'\xbeiZDXEu@'
p50
tp51
Rp52
ag10
(g14
S'\x8f9\x18\xd9\xea7u@'
p53
tp54
Rp55
ag10
(g14
S'\x12\xf6\x0b:&Cu@'
p56
tp57
Rp58
ag10
(g14
S'\xa6\xd5w\x87\x02.u@'
p59
tp60
Rp61
ag10
(g14
S'\xf6\xe4\xd7r\rDu@'
p62
tp63
Rp64
ag10
(g14
S'\x87r\x02\xef\xff?u@'
p65
tp66
Rp67
ag10
(g14
S"s\xbbd'\xf61u@"
p68
tp69
Rp70
ag10
(g14
S'g\x8f:\xa2+.u@'
p71
tp72
Rp73
ag10
(g14
S'\xfd\xa0!4\xe4Su@'
p74
tp75
Rp76
asS'target'
p77
(lp78
g10
(g14
S'y\x8d@\xdc\x84ES@'
p79
tp80
Rp81
ag10
(g14
S'Tql*z>b@'
p82
tp83
Rp84
ag10
(g14
S'\x89\x19\xfeP\xf9\x8fT@'
p85
tp86
Rp87
ag10
(g14
S'bF\xe6\x80s\x1d]@'
p88
tp89
Rp90
ag10
(g14
S'm\x9b\xbf\xf3\xf2@Q@'
p91
tp92
Rp93
ag10
(g14
S'[\xd0\xe1;(MR@'
p94
tp95
Rp96
ag10
(g14
S'0\x93#\xac\x92 K@'
p97
tp98
Rp99
ag10
(g14
S't\xcc\x90-\xb2\x14P@'
p100
tp101
Rp102
ag10
(g14
S'\x01\x1a\xfaRn\xdcJ@'
p103
tp104
Rp105
ag10
(g14
S'\xe0>\x95\xcb\xad\xb3F@'
p106
tp107
Rp108
ag10
(g14
S'\x83\xc4<\\y\x1cV@'
p109
tp110
Rp111
ag10
(g14
S"(~cz\xf1'd@"
p112
tp113
Rp114
ag10
(g14
S'\xba\xbb\x89\xb2\x82b`@'
p115
tp116
Rp117
ag10
(g14
S'\xc63\x94\xfd2\x8aX@'
p118
tp119
Rp120
ag10
(g14
S'\xac\x1d\xa8\xb0\x9aFM@'
p121
tp122
Rp123
ag10
(g14
S'\x9d[\xea\xfa\x12\x8bF@'
p124
tp125
Rp126
ag10
(g14
S'$\r*\x0c\xbd\xc8B@'
p127
tp128
Rp129
ag10
(g14
S'\xa3\x8c\x8b!\x9d\xa5T@'
p130
tp131
Rp132
ag10
(g14
S'\x05\x88\xbfY\xa6\xf2:@'
p133
tp134
Rp135
ag10
(g14
S'\xb4\tM\xcd\xc5\x03U@'
p136
tp137
Rp138
asssss.