(dp0
S'../Data/sqlite_57.csv'
p1
(dp2
S'../Data/sqlite_44.csv'
p3
(dp4
F0.2
(dp5
S'abs_res'
p6
(dp7
S'bellwether'
p8
(lp9
cnumpy.core.multiarray
scalar
p10
(cnumpy
dtype
p11
(S'f8'
p12
I0
I1
tp13
Rp14
(I3
S'<'
p15
NNNI-1
I-1
I0
tp16
bS'X\x0e-\x8a\nLgA'
p17
tp18
Rp19
ag10
(g14
S't\x14\xae\xd7MEgA'
p20
tp21
Rp22
ag10
(g14
S'\xa2\x1a/\xc9!AgA'
p23
tp24
Rp25
ag10
(g14
S'L\xe1z\xe4\x16JgA'
p26
tp27
Rp28
ag10
(g14
S'g\x12\x83\x08\x0ePgA'
p29
tp30
Rp31
ag10
(g14
S'W9\xb4xPYgA'
p32
tp33
Rp34
ag10
(g14
S'1\xb2\x9dk\x9fRgA'
p35
tp36
Rp37
ag10
(g14
S'5^\xba\xf9\xe3NgA'
p38
tp39
Rp40
ag10
(g14
S'\xa0\x9b\xc4\xa8vMgA'
p41
tp42
Rp43
ag10
(g14
S'\xe0z\x14\xe2fMgA'
p44
tp45
Rp46
ag10
(g14
S'o=\n/\xbaIgA'
p47
tp48
Rp49
ag10
(g14
S'e\x10X\x8dGTgA'
p50
tp51
Rp52
ag10
(g14
S'\x19\x83\xc0\xce\x0bCgA'
p53
tp54
Rp55
ag10
(g14
S'\x82\x95CSENgA'
p56
tp57
Rp58
ag10
(g14
S'\xde\xa3p\xe9`SgA'
p59
tp60
Rp61
ag10
(g14
S'\x1d\x85\xebQ\x13IgA'
p62
tp63
Rp64
ag10
(g14
S'\x18-\xb2\xb5\xa6KgA'
p65
tp66
Rp67
ag10
(g14
S'6\x89Al\x9aPgA'
p68
tp69
Rp70
ag10
(g14
S'\x94\x97n\xe6TCgA'
p71
tp72
Rp73
ag10
(g14
S'\xf9S\xe3-0IgA'
p74
tp75
Rp76
asS'target'
p77
(lp78
g10
(g14
S'\x1b\xdb\xf9~j,O@'
p79
tp80
Rp81
ag10
(g14
S'\xcf"\xdb\xf9~\nL@'
p82
tp83
Rp84
ag10
(g14
S'95^\xbaI\x9cJ@'
p85
tp86
Rp87
ag10
(g14
S'`\x10X9\xb4xN@'
p88
tp89
Rp90
ag10
(g14
S'r\x93\x18\x04V~M@'
p91
tp92
Rp93
ag10
(g14
S'\x1d-\xb2\x9d\xef\xe7O@'
p94
tp95
Rp96
ag10
(g14
S'\xb7\xf3\xfd\xd4x\x99N@'
p97
tp98
Rp99
ag10
(g14
S'J7\x89A`\xa5L@'
p100
tp101
Rp102
ag10
(g14
S'\xbe\xa1E\xb6\xf3\x9dL@'
p103
tp104
Rp105
ag10
(g14
S'"Zd;\xdfoP@'
p106
tp107
Rp108
ag10
(g14
S'\x84j\xbct\x93XO@'
p109
tp110
Rp111
ag10
(g14
S'\xcb"\xdb\xf9~\x1aO@'
p112
tp113
Rp114
ag10
(g14
S'M\x8d\x97n\x123L@'
p115
tp116
Rp117
ag10
(g14
S'\xdf$\x06\x81\x95\x83M@'
p118
tp119
Rp120
ag10
(g14
S'\xe7Q\xb8\x1e\x85\x8bL@'
p121
tp122
Rp123
ag10
(g14
S'\xd3x\xe9&1\x80K@'
p124
tp125
Rp126
ag10
(g14
S'E7\x89A`\x95M@'
p127
tp128
Rp129
ag10
(g14
S'N\xb8\x1e\x85\xebAN@'
p130
tp131
Rp132
ag10
(g14
S'13333\xdbP@'
p133
tp134
Rp135
ag10
(g14
S'A\x8d\x97n\x12\xebK@'
p136
tp137
Rp138
asssss.