(dp0
S'../Data/sqlite_36.csv'
p1
(dp2
S'../Data/sqlite_16.csv'
p3
(dp4
F0.15
(dp5
S'abs_res'
p6
(dp7
S'bellwether'
p8
(lp9
cnumpy.core.multiarray
scalar
p10
(cnumpy
dtype
p11
(S'f8'
p12
I0
I1
tp13
Rp14
(I3
S'<'
p15
NNNI-1
I-1
I0
tp16
bS'\xfd\xff\xff\xff\xff\x8cv@'
p17
tp18
Rp19
ag10
(g14
S'\xcei\x03\x9d6^v@'
p20
tp21
Rp22
ag10
(g14
S'\t\xac\x1cZd\x04v@'
p23
tp24
Rp25
ag10
(g14
S'0^\xbaI\x0c^v@'
p26
tp27
Rp28
ag10
(g14
S'\xc4\xf5(\\\x8f\rv@'
p29
tp30
Rp31
ag10
(g14
S'U\x8d\x97n\x12 v@'
p32
tp33
Rp34
ag10
(g14
S'\xff7B\x19\xbd.v@'
p35
tp36
Rp37
ag10
(g14
S'\x97\x8a\xb3\x0f\x9fCv@'
p38
tp39
Rp40
ag10
(g14
S'8\n\xd7\xa3p-v@'
p41
tp42
Rp43
ag10
(g14
S'\xe7O\x8d\x97n\tv@'
p44
tp45
Rp46
ag10
(g14
S'\x19\xdb\xf9~j9v@'
p47
tp48
Rp49
ag10
(g14
S'\x13 \xf7\x9a\x0b\xd0u@'
p50
tp51
Rp52
ag10
(g14
S'\xd7\xa3p=\n\x0cv@'
p53
tp54
Rp55
ag10
(g14
S'\x90\xb5:&x\xfbu@'
p56
tp57
Rp58
ag10
(g14
S'"\xdb\xf9~j\x10v@'
p59
tp60
Rp61
ag10
(g14
S'\x8e_,\xf9\xc5\tv@'
p62
tp63
Rp64
ag10
(g14
S'\xf6\xe3^s!Av@'
p65
tp66
Rp67
ag10
(g14
S'\xa9\xe4\x17K~\xc5u@'
p68
tp69
Rp70
ag10
(g14
S'>5^\xbaI\xf2u@'
p71
tp72
Rp73
ag10
(g14
S'3\xb2\x9d\xef\xa7\x1av@'
p74
tp75
Rp76
asS'target'
p77
(lp78
g10
(g14
S'\xf4|?5^\xdaO@'
p79
tp80
Rp81
ag10
(g14
S'\xe2\xa3p=\n\xf7N@'
p82
tp83
Rp84
ag10
(g14
S'wh\x91\xed|\xcfP@'
p85
tp86
Rp87
ag10
(g14
S'D^\xbaI\x0cBK@'
p88
tp89
Rp90
ag10
(g14
S'\x0eV\x0e-\xb2\x8dK@'
p91
tp92
Rp93
ag10
(g14
S'\x1e\xb0rh\x91\x1dK@'
p94
tp95
Rp96
ag10
(g14
S'\xca\x1e\x85\xebQHL@'
p97
tp98
Rp99
ag10
(g14
S'\xa1\x99\x99\x99\x99\xd9O@'
p100
tp101
Rp102
ag10
(g14
S'D\xe1z\x14\xaegN@'
p103
tp104
Rp105
ag10
(g14
S'l\xbct\x93\x18DQ@'
p106
tp107
Rp108
ag10
(g14
S'\xaerh\x91\xed\xd4N@'
p109
tp110
Rp111
ag10
(g14
S'\x97\xebQ\xb8\x1e\xa5O@'
p112
tp113
Rp114
ag10
(g14
S'\xa5p=\n\xd7#L@'
p115
tp116
Rp117
ag10
(g14
S'\xe1\xd0"\xdb\xf9\x1eL@'
p118
tp119
Rp120
ag10
(g14
S'\xeb\xa7\xc6K7YL@'
p121
tp122
Rp123
ag10
(g14
S'\xce$\x06\x81\x95SK@'
p124
tp125
Rp126
ag10
(g14
S'Qb\x10X9XP@'
p127
tp128
Rp129
ag10
(g14
S'#\xb0rh\x91MQ@'
p130
tp131
Rp132
ag10
(g14
S'\x1a\x85\xebQ\xb8\x0eN@'
p133
tp134
Rp135
ag10
(g14
S' \xb0rh\x91\x1dM@'
p136
tp137
Rp138
asssss.