(dp0
S'../Data/sqlite_35.csv'
p1
(dp2
S'../Data/sqlite_59.csv'
p3
(dp4
F0.25
(dp5
S'mmre'
p6
(dp7
S'bellwether'
p8
(lp9
cnumpy.core.multiarray
scalar
p10
(cnumpy
dtype
p11
(S'f8'
p12
I0
I1
tp13
Rp14
(I3
S'<'
p15
NNNI-1
I-1
I0
tp16
bS'\xf1\x9b\xa9\x0e\x10_G@'
p17
tp18
Rp19
ag10
(g14
S'\xf3\xbc\x12\x9b2UG@'
p20
tp21
Rp22
ag10
(g14
S'ZSXGQcG@'
p23
tp24
Rp25
ag10
(g14
S'\x83\x98I\x83\xc8UG@'
p26
tp27
Rp28
ag10
(g14
S'\x85]\xd2\xc6\n]G@'
p29
tp30
Rp31
ag10
(g14
S'[Zk\xfeAfG@'
p32
tp33
Rp34
ag10
(g14
S'\x91\xe8I\xd1\xbeTG@'
p35
tp36
Rp37
ag10
(g14
S'\xd7k\xdd}\x08^G@'
p38
tp39
Rp40
ag10
(g14
S'@ZW#\xecGG@'
p41
tp42
Rp43
ag10
(g14
S'\xd2\xa9\x9d*stG@'
p44
tp45
Rp46
ag10
(g14
S'\xe2p\x11\x92\x9cMG@'
p47
tp48
Rp49
ag10
(g14
S'x,\xf3\x83#eG@'
p50
tp51
Rp52
ag10
(g14
S'$y\x8e\xe8\x1bdG@'
p53
tp54
Rp55
ag10
(g14
S'X\r\x18Z\xe0SG@'
p56
tp57
Rp58
ag10
(g14
S'J3\x1d%\xe2[G@'
p59
tp60
Rp61
ag10
(g14
S'\xa4\xc95\xe1\xbeaG@'
p62
tp63
Rp64
ag10
(g14
S'D\xae\x03\x11\x03cG@'
p65
tp66
Rp67
ag10
(g14
S'\x1b\xa0Z\x18\xebQG@'
p68
tp69
Rp70
ag10
(g14
S'\xcb(\xd3\x91\xb6@G@'
p71
tp72
Rp73
ag10
(g14
S'\xf6\xa4\xec\xceAiG@'
p74
tp75
Rp76
asS'target'
p77
(lp78
g10
(g14
S'%9+\xfeo9%@'
p79
tp80
Rp81
ag10
(g14
S'1\x12L\xf7\x15\x00&@'
p82
tp83
Rp84
ag10
(g14
S'\x04\x18\xe7\x02\xbc\x03&@'
p85
tp86
Rp87
ag10
(g14
S'\xd8A\xa5\xfbq6%@'
p88
tp89
Rp90
ag10
(g14
S"\xbc\xa22\x83\xca\x1b'@"
p91
tp92
Rp93
ag10
(g14
S"\x13\x8b{#\x96\xb2'@"
p94
tp95
Rp96
ag10
(g14
S'S\xd8`\x8c\x93\x84%@'
p97
tp98
Rp99
ag10
(g14
S'\xa4\xe3yr\xa96%@'
p100
tp101
Rp102
ag10
(g14
S'/\xae\x9c\x8a\xf0\t&@'
p103
tp104
Rp105
ag10
(g14
S'c#0\x01\xf4r$@'
p106
tp107
Rp108
ag10
(g14
S'\x8fO\xdeP:D&@'
p109
tp110
Rp111
ag10
(g14
S'\n\xce\x102\xb2\xce&@'
p112
tp113
Rp114
ag10
(g14
S'?\xe26\x9d\x02g$@'
p115
tp116
Rp117
ag10
(g14
S'\x96\xef\xff\xdf:\x05&@'
p118
tp119
Rp120
ag10
(g14
S'\x80\x86\xb5\xc1\xd83%@'
p121
tp122
Rp123
ag10
(g14
S'\x9cmj\xad\x9d\xde%@'
p124
tp125
Rp126
ag10
(g14
S'\xee(\xb2Q\x86~%@'
p127
tp128
Rp129
ag10
(g14
S"jP;|R['@"
p130
tp131
Rp132
ag10
(g14
S"\xd5\x97\x99\xdf`z'@"
p133
tp134
Rp135
ag10
(g14
S'\xe7\xe3\xa4\xdb h%@'
p136
tp137
Rp138
asssss.