(dp0
S'../Data/sqlite_50.csv'
p1
(dp2
S'../Data/sqlite_76.csv'
p3
(dp4
F0.35
(dp5
S'mmre'
p6
(dp7
S'bellwether'
p8
(lp9
cnumpy.core.multiarray
scalar
p10
(cnumpy
dtype
p11
(S'f8'
p12
I0
I1
tp13
Rp14
(I3
S'<'
p15
NNNI-1
I-1
I0
tp16
bS'E5\x1b\xd7I7V@'
p17
tp18
Rp19
ag10
(g14
S'p@\xf9~\x8d5V@'
p20
tp21
Rp22
ag10
(g14
S'\x9e\x08\x07\xa8@9V@'
p23
tp24
Rp25
ag10
(g14
S'\xfej\xb1\t\x875V@'
p26
tp27
Rp28
ag10
(g14
S'\xc4\x04A\x97S9V@'
p29
tp30
Rp31
ag10
(g14
S'\xcf$\x95\x08H5V@'
p32
tp33
Rp34
ag10
(g14
S'\xdbO\xb9\x89-6V@'
p35
tp36
Rp37
ag10
(g14
S'?\x8fT\x07\xc0;V@'
p38
tp39
Rp40
ag10
(g14
S'Z\x1c\x04&\xc26V@'
p41
tp42
Rp43
ag10
(g14
S'\xcc\x8aa\xa3\\9V@'
p44
tp45
Rp46
ag10
(g14
S"-!'/\xcc7V@"
p47
tp48
Rp49
ag10
(g14
S'\xc0\xf7\xc60\x999V@'
p50
tp51
Rp52
ag10
(g14
S'[\xa5\xb1\xc7\x8b4V@'
p53
tp54
Rp55
ag10
(g14
S'lj\x1d\x00\x196V@'
p56
tp57
Rp58
ag10
(g14
S'\x9b\xc9|{\xc57V@'
p59
tp60
Rp61
ag10
(g14
S'\x16[H\xf7F9V@'
p62
tp63
Rp64
ag10
(g14
S'7\xa9\xa2ox3V@'
p65
tp66
Rp67
ag10
(g14
S'\x80\x83B]\xff7V@'
p68
tp69
Rp70
ag10
(g14
S'@\x08D\xac\xdb9V@'
p71
tp72
Rp73
ag10
(g14
S'\xe8\x85y\xd578V@'
p74
tp75
Rp76
asS'target'
p77
(lp78
g10
(g14
S'\xd6O?\xf0\x0e\xd71@'
p79
tp80
Rp81
ag10
(g14
S'%\xf9u\x88\xa3\x870@'
p82
tp83
Rp84
ag10
(g14
S'\xe4d\xb6N\x8a{1@'
p85
tp86
Rp87
ag10
(g14
S'\xd9\x9f\x82\x83:@0@'
p88
tp89
Rp90
ag10
(g14
S'\x1e\xeaP\x9c\xa0\xd22@'
p91
tp92
Rp93
ag10
(g14
S'\xb6\xc2M!\xa6r2@'
p94
tp95
Rp96
ag10
(g14
S'^\x93\xb3\xa8\x83\xc42@'
p97
tp98
Rp99
ag10
(g14
S'b\x9d\x166$A0@'
p100
tp101
Rp102
ag10
(g14
S'\xb4\xcfR\x1d\xde\xcb1@'
p103
tp104
Rp105
ag10
(g14
S'\xb1\xf1\x8b\x1b\xc2J1@'
p106
tp107
Rp108
ag10
(g14
S'\x04\x1b\x91\xba-W1@'
p109
tp110
Rp111
ag10
(g14
S'\xfa\xcd\x02Li\xfa0@'
p112
tp113
Rp114
ag10
(g14
S'\xc6\x98\x96]\xce"2@'
p115
tp116
Rp117
ag10
(g14
S'\xd5\x05\xd8\x9f~\xc61@'
p118
tp119
Rp120
ag10
(g14
S'\xe4\r\xec_9\x930@'
p121
tp122
Rp123
ag10
(g14
S'\xf7\xe56\xe9\xecG0@'
p124
tp125
Rp126
ag10
(g14
S'\xe3\xafS\x85P\xf81@'
p127
tp128
Rp129
ag10
(g14
S'z\xc5\xc0f\xfbQ1@'
p130
tp131
Rp132
ag10
(g14
S'+da\xdb\xb5z0@'
p133
tp134
Rp135
ag10
(g14
S'j\xf3\x97TdV0@'
p136
tp137
Rp138
asssss.