(dp0
S'../Data/sqlite_73.csv'
p1
(dp2
S'../Data/sqlite_94.csv'
p3
(dp4
F0.1
(dp5
S'mmre'
p6
(dp7
S'bellwether'
p8
(lp9
cnumpy.core.multiarray
scalar
p10
(cnumpy
dtype
p11
(S'f8'
p12
I0
I1
tp13
Rp14
(I3
S'<'
p15
NNNI-1
I-1
I0
tp16
bS'\xea\xccR\x89PgW@'
p17
tp18
Rp19
ag10
(g14
S'08FK\xd0hW@'
p20
tp21
Rp22
ag10
(g14
S'\x9c\xbf\x0c\x01PfW@'
p23
tp24
Rp25
ag10
(g14
S'0\xe9\xed4\xf4gW@'
p26
tp27
Rp28
ag10
(g14
S'8\x08D\xd3\xbaiW@'
p29
tp30
Rp31
ag10
(g14
S'\xc4\xf1g\x9e\xb1hW@'
p32
tp33
Rp34
ag10
(g14
S'\xfb\xbf\xe2BGfW@'
p35
tp36
Rp37
ag10
(g14
S']iB\x9a-iW@'
p38
tp39
Rp40
ag10
(g14
S'\xa2\x03\x03\x198jW@'
p41
tp42
Rp43
ag10
(g14
S'\x81\x1dP%\xcafW@'
p44
tp45
Rp46
ag10
(g14
S'l\x19M\xec\xcbiW@'
p47
tp48
Rp49
ag10
(g14
S'\x93&#\x18^gW@'
p50
tp51
Rp52
ag10
(g14
S'\xe9M\xd2\xdeJgW@'
p53
tp54
Rp55
ag10
(g14
S'\x16tH\xf7\xaeeW@'
p56
tp57
Rp58
ag10
(g14
S'\x13\x1fJ\xd2\x01iW@'
p59
tp60
Rp61
ag10
(g14
S'\x87\x83\t\xacMhW@'
p62
tp63
Rp64
ag10
(g14
S'i\xaem\xc8OhW@'
p65
tp66
Rp67
ag10
(g14
S'\x0eb\xfd\xd8\x9aeW@'
p68
tp69
Rp70
ag10
(g14
S'\xbe\x19\xa8\x05\xe5iW@'
p71
tp72
Rp73
ag10
(g14
S'0\xe7\x16\xbdAhW@'
p74
tp75
Rp76
asS'target'
p77
(lp78
g10
(g14
S'\xcdq4^$\xe2O@'
p79
tp80
Rp81
ag10
(g14
S't0\xcb\xe4o-O@'
p82
tp83
Rp84
ag10
(g14
S'g*\xb6\x87F\x96Q@'
p85
tp86
Rp87
ag10
(g14
S'0HV\x04\xc5\xa9M@'
p88
tp89
Rp90
ag10
(g14
S'\xf4e\xe4D\xa9[O@'
p91
tp92
Rp93
ag10
(g14
S'PlE\xa5\xf0#Q@'
p94
tp95
Rp96
ag10
(g14
S'L\x19\xda\x9701Y@'
p97
tp98
Rp99
ag10
(g14
S'5\xbb\xaf}\xfb\xdfG@'
p100
tp101
Rp102
ag10
(g14
S'\x1d\x12q\xcbl\xa9K@'
p103
tp104
Rp105
ag10
(g14
S'\x02\xad\t\xa0v\xc1V@'
p106
tp107
Rp108
ag10
(g14
S'3=\x16w70R@'
p109
tp110
Rp111
ag10
(g14
S'\xa2\x85\x97T|p]@'
p112
tp113
Rp114
ag10
(g14
S'G]&\n\xd0\xb6\\@'
p115
tp116
Rp117
ag10
(g14
S'p\xfc\x98\x1c\xe9\xf5U@'
p118
tp119
Rp120
ag10
(g14
S'v\xb1[`,\xffH@'
p121
tp122
Rp123
ag10
(g14
S'\x1cgF7`\rQ@'
p124
tp125
Rp126
ag10
(g14
S'\x9f\xa9\x17\xed\xdd\xd9L@'
p127
tp128
Rp129
ag10
(g14
S'\xf7d\xff\x86{\xf9W@'
p130
tp131
Rp132
ag10
(g14
S'\x9dW\xc8\xc2\xc8\x87M@'
p133
tp134
Rp135
ag10
(g14
S'\x04\x0f "\xb6\xecF@'
p136
tp137
Rp138
asssss.