(dp0
S'../Data/sqlite_35.csv'
p1
(dp2
S'../Data/sqlite_63.csv'
p3
(dp4
F0.1
(dp5
S'mmre'
p6
(dp7
S'bellwether'
p8
(lp9
cnumpy.core.multiarray
scalar
p10
(cnumpy
dtype
p11
(S'f8'
p12
I0
I1
tp13
Rp14
(I3
S'<'
p15
NNNI-1
I-1
I0
tp16
bS'\xe3\x8b[\xc7\xfc$K@'
p17
tp18
Rp19
ag10
(g14
S'q\x16\xb3\x84\xba%K@'
p20
tp21
Rp22
ag10
(g14
S'4\xf0q\x1dT,K@'
p23
tp24
Rp25
ag10
(g14
S'\xcf\xd0\x03p\xea)K@'
p26
tp27
Rp28
ag10
(g14
S'4\x07};\x04&K@'
p29
tp30
Rp31
ag10
(g14
S'\x82\x84=\xf0\x0c$K@'
p32
tp33
Rp34
ag10
(g14
S'\xd0\x14q\xd5V)K@'
p35
tp36
Rp37
ag10
(g14
S'K\xfc\x0c\xb9m"K@'
p38
tp39
Rp40
ag10
(g14
S"\x8eg'\xee\x9a(K@"
p41
tp42
Rp43
ag10
(g14
S'\xfb:[\x04/(K@'
p44
tp45
Rp46
ag10
(g14
S'\xcefj\xaa\x89\x1eK@'
p47
tp48
Rp49
ag10
(g14
S"\x1f\xbfi_@'K@"
p50
tp51
Rp52
ag10
(g14
S'\xfd\xc9\x9b4[*K@'
p53
tp54
Rp55
ag10
(g14
S'\xfcl\xd7\x14f)K@'
p56
tp57
Rp58
ag10
(g14
S'\r\x1d\x8aD//K@'
p59
tp60
Rp61
ag10
(g14
S'\xfe\xee\x11b!-K@'
p62
tp63
Rp64
ag10
(g14
S"\xab\xb0\xb6\xc9\xf4'K@"
p65
tp66
Rp67
ag10
(g14
S'M\xdb\xb66\xd4"K@'
p68
tp69
Rp70
ag10
(g14
S'\x08o\x08Y\xf0.K@'
p71
tp72
Rp73
ag10
(g14
S'\xdc8-O\x17.K@'
p74
tp75
Rp76
asS'target'
p77
(lp78
g10
(g14
S"\x80\xa4\xcb\x92U'#@"
p79
tp80
Rp81
ag10
(g14
S' 1H\xa1\xbcZ#@'
p82
tp83
Rp84
ag10
(g14
S'j9M\xf9-<!@'
p85
tp86
Rp87
ag10
(g14
S'\xd3\x17\x86\xb3\xf2\xd3"@'
p88
tp89
Rp90
ag10
(g14
S'\r\xda\xf4FZ["@'
p91
tp92
Rp93
ag10
(g14
S'N\xcf\xf8\xaa\xa1\xf0 @'
p94
tp95
Rp96
ag10
(g14
S'\xab\x99\xfbW\xb8\xac!@'
p97
tp98
Rp99
ag10
(g14
S'\x92V\xff\x8b\xc6\x11#@'
p100
tp101
Rp102
ag10
(g14
S'\xd7\x7f\x13\xf0\xb6\xac#@'
p103
tp104
Rp105
ag10
(g14
S'I6\xecI\xd2l!@'
p106
tp107
Rp108
ag10
(g14
S'E\xc95E7\xf4"@'
p109
tp110
Rp111
ag10
(g14
S'\xb8\n\x7f\x999\xe9$@'
p112
tp113
Rp114
ag10
(g14
S'!\x00r\x97yZ#@'
p115
tp116
Rp117
ag10
(g14
S'\xaa\xcb\xc2\xfdN?!@'
p118
tp119
Rp120
ag10
(g14
S'\xfd0:u!\xdb"@'
p121
tp122
Rp123
ag10
(g14
S'`W\xc1l\xc1\x11#@'
p124
tp125
Rp126
ag10
(g14
S'\xe2\x94\xb8\x19\x86\xba"@'
p127
tp128
Rp129
ag10
(g14
S'\xec\x12\x83S\xae\x1e$@'
p130
tp131
Rp132
ag10
(g14
S'\xc7>,\xca\xd1o @'
p133
tp134
Rp135
ag10
(g14
S'>X\x90{\xbb\xfc!@'
p136
tp137
Rp138
asssss.