(dp0
S'../Data/sqlite_0.csv'
p1
(dp2
S'../Data/sqlite_90.csv'
p3
(dp4
F0.2
(dp5
S'mmre'
p6
(dp7
S'bellwether'
p8
(lp9
cnumpy.core.multiarray
scalar
p10
(cnumpy
dtype
p11
(S'f8'
p12
I0
I1
tp13
Rp14
(I3
S'<'
p15
NNNI-1
I-1
I0
tp16
bS"\xa3\xcbi\xeb\xe1'W@"
p17
tp18
Rp19
ag10
(g14
S'\xaa\xcf\xa1\xac\x08(W@'
p20
tp21
Rp22
ag10
(g14
S'\x9e\x90\xcb\xd0\xdc&W@'
p23
tp24
Rp25
ag10
(g14
S'\xe44\x14\x8c7$W@'
p26
tp27
Rp28
ag10
(g14
S'\xac\xf1g\xf1F.W@'
p29
tp30
Rp31
ag10
(g14
S'l\x9aig%(W@'
p32
tp33
Rp34
ag10
(g14
S"\xc4\xc46\xa1\x84'W@"
p35
tp36
Rp37
ag10
(g14
S'p\xa44\x8d\xfa#W@'
p38
tp39
Rp40
ag10
(g14
S'\x16\x89gH\xbe+W@'
p41
tp42
Rp43
ag10
(g14
S'P\x0b:"m(W@'
p44
tp45
Rp46
ag10
(g14
S'\xf0K(\xc6\xdf#W@'
p47
tp48
Rp49
ag10
(g14
S'1\x83\xf1\x98s.W@'
p50
tp51
Rp52
ag10
(g14
S'\xcb\xedz\xa9\x17\x1dW@'
p53
tp54
Rp55
ag10
(g14
S'*\xad\xd8->2W@'
p56
tp57
Rp58
ag10
(g14
S'&@\x84\xfc\xfa&W@'
p59
tp60
Rp61
ag10
(g14
S"0\x97\x0b\xb5\xa1'W@"
p62
tp63
Rp64
ag10
(g14
S'\x1djF\xfaN$W@'
p65
tp66
Rp67
ag10
(g14
S'lX\x84l\xba#W@'
p68
tp69
Rp70
ag10
(g14
S"Vl\xfaP\x89'W@"
p71
tp72
Rp73
ag10
(g14
S"\x02\x93T\xcbu'W@"
p74
tp75
Rp76
asS'target'
p77
(lp78
g10
(g14
S'\xa5\xf8H\xb1\n\xa9A@'
p79
tp80
Rp81
ag10
(g14
S'\xb8igy\xd4{@@'
p82
tp83
Rp84
ag10
(g14
S'`W%\xcfr\xff@@'
p85
tp86
Rp87
ag10
(g14
S'\xaf\xfb\t\xb0\x98.A@'
p88
tp89
Rp90
ag10
(g14
S'# \xf9\xd3\xb4\xb4@@'
p91
tp92
Rp93
ag10
(g14
S'\t\xb0\xceSY\x80A@'
p94
tp95
Rp96
ag10
(g14
S'\x07\xdck|.n?@'
p97
tp98
Rp99
ag10
(g14
S'7\xdc%\x0f\xc2\xfeC@'
p100
tp101
Rp102
ag10
(g14
S'\x82\xfb\xd0\xba\x9fjB@'
p103
tp104
Rp105
ag10
(g14
S',\xf9iQ6dC@'
p106
tp107
Rp108
ag10
(g14
S'\xf2\x93M\xf3\x19\x81A@'
p109
tp110
Rp111
ag10
(g14
S'Je\xfda\xdd!?@'
p112
tp113
Rp114
ag10
(g14
S'7\x00\xffK\xa3\xec@@'
p115
tp116
Rp117
ag10
(g14
S'c8l\xdf2\xd3A@'
p118
tp119
Rp120
ag10
(g14
S'\xae\x19\xde_\xcc6B@'
p121
tp122
Rp123
ag10
(g14
S'5\xbe.\xfa\xed\x8dB@'
p124
tp125
Rp126
ag10
(g14
S'45\xeeT\x0f\\@@'
p127
tp128
Rp129
ag10
(g14
S'\xddl\xf0\x7f\x9b\xda@@'
p130
tp131
Rp132
ag10
(g14
S'+\x83r\xed\xcfJA@'
p133
tp134
Rp135
ag10
(g14
S'\xe0\x11<\xc70K?@'
p136
tp137
Rp138
asssss.