(dp0
S'../Data/sqlite_37.csv'
p1
(dp2
S'../Data/sqlite_97.csv'
p3
(dp4
F0.3
(dp5
S'mmre'
p6
(dp7
S'bellwether'
p8
(lp9
cnumpy.core.multiarray
scalar
p10
(cnumpy
dtype
p11
(S'f8'
p12
I0
I1
tp13
Rp14
(I3
S'<'
p15
NNNI-1
I-1
I0
tp16
bS"h$\xb9'\x19PX@"
p17
tp18
Rp19
ag10
(g14
S'R\x99\x1c\xa5=PX@'
p20
tp21
Rp22
ag10
(g14
S'b\x02\xbb\xa89QX@'
p23
tp24
Rp25
ag10
(g14
S'=\\\x02\x1b_QX@'
p26
tp27
Rp28
ag10
(g14
S'\xe9(x\xd3\xcfOX@'
p29
tp30
Rp31
ag10
(g14
S'ed\xe8\xfd\x89PX@'
p32
tp33
Rp34
ag10
(g14
S'\xec\xae\xdc\xf6!OX@'
p35
tp36
Rp37
ag10
(g14
S'R\x8e\xcd\x06JPX@'
p38
tp39
Rp40
ag10
(g14
S'\xce9\x00\xde\xe7PX@'
p41
tp42
Rp43
ag10
(g14
S'[+\x15\x89CPX@'
p44
tp45
Rp46
ag10
(g14
S'\x16\xf2T\xff\xbfOX@'
p47
tp48
Rp49
ag10
(g14
S'`\xc6-N\xb5PX@'
p50
tp51
Rp52
ag10
(g14
S'p<\x8e|\x14QX@'
p53
tp54
Rp55
ag10
(g14
S'\xc45+R\xcaQX@'
p56
tp57
Rp58
ag10
(g14
S'\x88D\x0f\xadsOX@'
p59
tp60
Rp61
ag10
(g14
S'H)\xe4o\rRX@'
p62
tp63
Rp64
ag10
(g14
S"r\xa8\x0c\x1b'QX@"
p65
tp66
Rp67
ag10
(g14
S'$FY\x95\xb5PX@'
p68
tp69
Rp70
ag10
(g14
S'/\xb6\x9d\x8f\x18SX@'
p71
tp72
Rp73
ag10
(g14
S'\x05x\xd5\xfc-PX@'
p74
tp75
Rp76
asS'target'
p77
(lp78
g10
(g14
S'\xe6\xb3\x00?6\xbfT@'
p79
tp80
Rp81
ag10
(g14
S'\x892\xcca!\xd5V@'
p82
tp83
Rp84
ag10
(g14
S'\xc0\xb2\xbf\x1cr*V@'
p85
tp86
Rp87
ag10
(g14
S'Q\xe8\xe6\x97\x16\xedS@'
p88
tp89
Rp90
ag10
(g14
S'\x94!\xd8r\x84\xd9T@'
p91
tp92
Rp93
ag10
(g14
S'RX\x93\xddT\xa6T@'
p94
tp95
Rp96
ag10
(g14
S'\xd7r|3\\\x82U@'
p97
tp98
Rp99
ag10
(g14
S'\x9d\xf85,\xac<V@'
p100
tp101
Rp102
ag10
(g14
S'\xbc&w\xba\xaa4V@'
p103
tp104
Rp105
ag10
(g14
S'\xf7\xf47\x0b\xd8#W@'
p106
tp107
Rp108
ag10
(g14
S'\x1f\xed\xddh\xf2\xa5S@'
p109
tp110
Rp111
ag10
(g14
S'+\xf0\xf33\xa5JP@'
p112
tp113
Rp114
ag10
(g14
S'h\xd6\x02Ac;[@'
p115
tp116
Rp117
ag10
(g14
S'\xd7(\x85\xf3\x1ceR@'
p118
tp119
Rp120
ag10
(g14
S'\xf2\x8c`\xa4\xda\x90V@'
p121
tp122
Rp123
ag10
(g14
S'wv\xbbY\xd2\x93H@'
p124
tp125
Rp126
ag10
(g14
S'MH\xc2\xec\xdc&S@'
p127
tp128
Rp129
ag10
(g14
S'\x05\x93}T\xd1\xbbL@'
p130
tp131
Rp132
ag10
(g14
S'q\x92\x9dWD\x07K@'
p133
tp134
Rp135
ag10
(g14
S'\x15\r\x8c\x0e\xc5{L@'
p136
tp137
Rp138
asssss.