(dp0
S'../Data/sqlite_4.csv'
p1
(dp2
S'../Data/sqlite_56.csv'
p3
(dp4
F0.05
(dp5
S'abs_res'
p6
(dp7
S'bellwether'
p8
(lp9
cnumpy.core.multiarray
scalar
p10
(cnumpy
dtype
p11
(S'f8'
p12
I0
I1
tp13
Rp14
(I3
S'<'
p15
NNNI-1
I-1
I0
tp16
bS'\xf0\xd2M\xa2\xd5nBA'
p17
tp18
Rp19
ag10
(g14
S'\xee\xfb\xa9!InBA'
p20
tp21
Rp22
ag10
(g14
S'3\x89A\x00\x03oBA'
p23
tp24
Rp25
ag10
(g14
S'&\xb0r\x18\xffmBA'
p26
tp27
Rp28
ag10
(g14
S'\xd7Mb\xb0\x91nBA'
p29
tp30
Rp31
ag10
(g14
S'\xed\xd2M"NnBA'
p32
tp33
Rp34
ag10
(g14
S'u\x93\x18\xb4tnBA'
p35
tp36
Rp37
ag10
(g14
S'\xd6\x06:\rynBA'
p38
tp39
Rp40
ag10
(g14
S'\xef~j,DnBA'
p41
tp42
Rp43
ag10
(g14
S'\x86A`\xe5\x88nBA'
p44
tp45
Rp46
ag10
(g14
S'qh\x91\x8d\xb4nBA'
p47
tp48
Rp49
ag10
(g14
S'\xd5\xb0+\xb0 nBA'
p50
tp51
Rp52
ag10
(g14
S'\xba\x1e\x85;\xc8mBA'
p53
tp54
Rp55
ag10
(g14
S'\\\xe5\xd0BpnBA'
p56
tp57
Rp58
ag10
(g14
S'E7\x89q\xfamBA'
p59
tp60
Rp61
ag10
(g14
S'\xcf\xf7S\xa3SnBA'
p62
tp63
Rp64
ag10
(g14
S'\xb0\x9d\xef\x17)nBA'
p65
tp66
Rp67
ag10
(g14
S'fff\x86^nBA'
p68
tp69
Rp70
ag10
(g14
S'\x1b\x04V\x9e\x92nBA'
p71
tp72
Rp73
ag10
(g14
S'\x9fn\x12\xa3%nBA'
p74
tp75
Rp76
asS'target'
p77
(lp78
g10
(g14
S'zj\xbct\x93\xf4a@'
p79
tp80
Rp81
ag10
(g14
S'q\xe7\xfb\xa9\xf1\x9ad@'
p82
tp83
Rp84
ag10
(g14
S'\x89A`\xe5\xd02d@'
p85
tp86
Rp87
ag10
(g14
S'\xdcz\x14\xaeG\x15b@'
p88
tp89
Rp90
ag10
(g14
S'\xb0\x1cZd;\x13d@'
p91
tp92
Rp93
ag10
(g14
S'\x89\xed|?5\xe6a@'
p94
tp95
Rp96
ag10
(g14
S't\xe9&1\x08tc@'
p97
tp98
Rp99
ag10
(g14
S'2\xdfO\x8d\x97:a@'
p100
tp101
Rp102
ag10
(g14
S'\xe0O\x8d\x97n\xe2b@'
p103
tp104
Rp105
ag10
(g14
S'L\x8bl\xe7\xfbYd@'
p106
tp107
Rp108
ag10
(g14
S'\xb8I\x0c\x02+wa@'
p109
tp110
Rp111
ag10
(g14
S'\xf6U\x0e-\xb2\x13d@'
p112
tp113
Rp114
ag10
(g14
S'\xcev\xbe\x9f\x1a\x0fd@'
p115
tp116
Rp117
ag10
(g14
S'1\x06\x81\x95CSe@'
p118
tp119
Rp120
ag10
(g14
S'hffffZc@'
p121
tp122
Rp123
ag10
(g14
S'&3333\x87f@'
p124
tp125
Rp126
ag10
(g14
S'\xb3\x1e\x85\xebQ\x08d@'
p127
tp128
Rp129
ag10
(g14
S'\x13\x02+\x87\x16\x8dc@'
p130
tp131
Rp132
ag10
(g14
S'/\xb0rh\x91\xe5d@'
p133
tp134
Rp135
ag10
(g14
S'/\x08\xac\x1cZ\xacf@'
p136
tp137
Rp138
asssss.