(dp0
S'../Data/sqlite_43.csv'
p1
(dp2
S'../Data/sqlite_2.csv'
p3
(dp4
F0.2
(dp5
S'abs_res'
p6
(dp7
S'bellwether'
p8
(lp9
cnumpy.core.multiarray
scalar
p10
(cnumpy
dtype
p11
(S'f8'
p12
I0
I1
tp13
Rp14
(I3
S'<'
p15
NNNI-1
I-1
I0
tp16
bS'x!i\xaa\xf3i>A'
p17
tp18
Rp19
ag10
(g14
S'"1\x08\xcc\xd0h>A'
p20
tp21
Rp22
ag10
(g14
S'\xc9Z\x1d\xd3\xd0h>A'
p23
tp24
Rp25
ag10
(g14
S'\x98\xe0\xc1\xfc\xf6i>A'
p26
tp27
Rp28
ag10
(g14
S'\x13\xf5o\xc4\xc9i>A'
p29
tp30
Rp31
ag10
(g14
S'/z[\xb6\xe7j>A'
p32
tp33
Rp34
ag10
(g14
S'N\x9c}X\x81h>A'
p35
tp36
Rp37
ag10
(g14
S'\xd6\x15 \xb7ti>A'
p38
tp39
Rp40
ag10
(g14
S'0\x87\x169mh>A'
p41
tp42
Rp43
ag10
(g14
S'\x83\xebQ8\xaai>A'
p44
tp45
Rp46
ag10
(g14
S'I\xa98[\x10j>A'
p47
tp48
Rp49
ag10
(g14
S'\x81\x07\xf3d\xe2h>A'
p50
tp51
Rp52
ag10
(g14
S'I\x8d\x97\x8e\x88i>A'
p53
tp54
Rp55
ag10
(g14
S'O\xd4\xbf\xf1\x94h>A'
p56
tp57
Rp58
ag10
(g14
S'y\xb1\xe4\xf7\x8bi>A'
p59
tp60
Rp61
ag10
(g14
S'\xf6\x9a\x0b\xa9\xddi>A'
p62
tp63
Rp64
ag10
(g14
S')33Sci>A'
p65
tp66
Rp67
ag10
(g14
S'\x1d\xb0rH\x90h>A'
p68
tp69
Rp70
ag10
(g14
S'%\\\x8f\x02\xa4i>A'
p71
tp72
Rp73
ag10
(g14
S'\xd3Mb\x10Pi>A'
p74
tp75
Rp76
asS'target'
p77
(lp78
g10
(g14
S'\xec\xfd\xd4x\xe9\xf6O@'
p79
tp80
Rp81
ag10
(g14
S'=5^\xbaI4Q@'
p82
tp83
Rp84
ag10
(g14
S'\xe7Q\xb8\x1e\x85\xabP@'
p85
tp86
Rp87
ag10
(g14
S'\x0b\xac\x1cZdSR@'
p88
tp89
Rp90
ag10
(g14
S'\x9eE\xb6\xf3\xfdlO@'
p91
tp92
Rp93
ag10
(g14
S'65^\xbaI|M@'
p94
tp95
Rp96
ag10
(g14
S'\xc7K7\x89A\xb0P@'
p97
tp98
Rp99
ag10
(g14
S'\xae\xf1\xd2Mb\x80O@'
p100
tp101
Rp102
ag10
(g14
S'F7\x89A`\xc5R@'
p103
tp104
Rp105
ag10
(g14
S'a\x8f\xc2\xf5(\xd4T@'
p106
tp107
Rp108
ag10
(g14
S'`\x8f\xc2\xf5(\x0cQ@'
p109
tp110
Rp111
ag10
(g14
S'H\xb6\xf3\xfd\xd4\xe0Q@'
p112
tp113
Rp114
ag10
(g14
S'4\x08\xac\x1cZ\xacM@'
p115
tp116
Rp117
ag10
(g14
S'\xadrh\x91\xed\x8cM@'
p118
tp119
Rp120
ag10
(g14
S'\xa5p=\n\xd7\xebS@'
p121
tp122
Rp123
ag10
(g14
S'm;\xdfO\x8d\xf7P@'
p124
tp125
Rp126
ag10
(g14
S'\x05+\x87\x16\xd9:R@'
p127
tp128
Rp129
ag10
(g14
S'\xc4v\xbe\x9f\x1a_S@'
p130
tp131
Rp132
ag10
(g14
S'E\x8bl\xe7\xfb\x01Q@'
p133
tp134
Rp135
ag10
(g14
S'\x01\xd5x\xe9&!Q@'
p136
tp137
Rp138
asssss.