(dp0
S'../Data/sqlite_2.csv'
p1
(dp2
S'../Data/sqlite_59.csv'
p3
(dp4
F0.1
(dp5
S'mmre'
p6
(dp7
S'bellwether'
p8
(lp9
cnumpy.core.multiarray
scalar
p10
(cnumpy
dtype
p11
(S'f8'
p12
I0
I1
tp13
Rp14
(I3
S'<'
p15
NNNI-1
I-1
I0
tp16
bS";\x99\x95'\xc5SU@"
p17
tp18
Rp19
ag10
(g14
S'\x80\x97\x08\x83PSU@'
p20
tp21
Rp22
ag10
(g14
S'\xd0\r\xbf\xa5\x10UU@'
p23
tp24
Rp25
ag10
(g14
S'U\xd5\xc9\x18zVU@'
p26
tp27
Rp28
ag10
(g14
S'\xb5u\xfa\x87yTU@'
p29
tp30
Rp31
ag10
(g14
S'd\xa9\xba\xabsSU@'
p32
tp33
Rp34
ag10
(g14
S'\x05\xd9Zx]TU@'
p35
tp36
Rp37
ag10
(g14
S'N!\x8b\xfcfVU@'
p38
tp39
Rp40
ag10
(g14
S'\x9eW\xf8T\xcbVU@'
p41
tp42
Rp43
ag10
(g14
S'\xd8\xb0\xc2"\xebTU@'
p44
tp45
Rp46
ag10
(g14
S'\x0c8-\x89<TU@'
p47
tp48
Rp49
ag10
(g14
S'\x9c;\xf3\x7f\x9cTU@'
p50
tp51
Rp52
ag10
(g14
S'\xc7s\xac\xb7\xbeSU@'
p53
tp54
Rp55
ag10
(g14
S'n\xd5\x1b`uTU@'
p56
tp57
Rp58
ag10
(g14
S'^\xa4\x81s\x9fSU@'
p59
tp60
Rp61
ag10
(g14
S'Z\x8f\xb9\xe0zSU@'
p62
tp63
Rp64
ag10
(g14
S'\x85\xd8C\x9d\xf5TU@'
p65
tp66
Rp67
ag10
(g14
S'46v\xa3\xcdUU@'
p68
tp69
Rp70
ag10
(g14
S'J\xc1O\x96KUU@'
p71
tp72
Rp73
ag10
(g14
S'w\x88+\x15\xfdTU@'
p74
tp75
Rp76
asS'target'
p77
(lp78
g10
(g14
S"\xa0\xc6Ow k'@"
p79
tp80
Rp81
ag10
(g14
S"`=\xcc\x1a\xdb\xe5'@"
p82
tp83
Rp84
ag10
(g14
S'51\xd9\x00\xb6\x94%@'
p85
tp86
Rp87
ag10
(g14
S'5\xdadW\x1bR%@'
p88
tp89
Rp90
ag10
(g14
S'0\xd8Y\x1f\x97\xef%@'
p91
tp92
Rp93
ag10
(g14
S"\xc9\x99U\x06cK'@"
p94
tp95
Rp96
ag10
(g14
S'\xcb\xd3\x96\x10M\xc3%@'
p97
tp98
Rp99
ag10
(g14
S'{\xcb\xf390=$@'
p100
tp101
Rp102
ag10
(g14
S'\xdeq=\x1d\x0f\xdc$@'
p103
tp104
Rp105
ag10
(g14
S'u;t\xa84K&@'
p106
tp107
Rp108
ag10
(g14
S'\xc5\x86Q\xba\x86s(@'
p109
tp110
Rp111
ag10
(g14
S'\xe0\xa6B\xc9\x17-$@'
p112
tp113
Rp114
ag10
(g14
S'\xaeC9\xb7\xa2\x9d&@'
p115
tp116
Rp117
ag10
(g14
S'\x13\xc9\xf9j\xf5\xa1&@'
p118
tp119
Rp120
ag10
(g14
S"\x8e\xfd\xb9\xfde\x17'@"
p121
tp122
Rp123
ag10
(g14
S'\xa2\xf3\xb3\xdcd\x8f(@'
p124
tp125
Rp126
ag10
(g14
S'".R\xe2?\x04&@'
p127
tp128
Rp129
ag10
(g14
S'\xe2\xeeW\xea\x83\xc4%@'
p130
tp131
Rp132
ag10
(g14
S'\xf5&\x1fL43$@'
p133
tp134
Rp135
ag10
(g14
S'\xc15#\x96\xbc\xc0(@'
p136
tp137
Rp138
asssss.