(dp0
S'../Data/sqlite_44.csv'
p1
(dp2
S'../Data/sqlite_59.csv'
p3
(dp4
F0.05
(dp5
S'mmre'
p6
(dp7
S'bellwether'
p8
(lp9
cnumpy.core.multiarray
scalar
p10
(cnumpy
dtype
p11
(S'f8'
p12
I0
I1
tp13
Rp14
(I3
S'<'
p15
NNNI-1
I-1
I0
tp16
bS'r\xd1\xf3r\x10UU@'
p17
tp18
Rp19
ag10
(g14
S'\x04\xa5\x18\xc0cTU@'
p20
tp21
Rp22
ag10
(g14
S'\xd6\x99\xdc\x1d\x85UU@'
p23
tp24
Rp25
ag10
(g14
S'\xbb\xe5v:\xb3TU@'
p26
tp27
Rp28
ag10
(g14
S'a\x93\x05l\xf9TU@'
p29
tp30
Rp31
ag10
(g14
S'?Y\xd8\xa3\xb6TU@'
p32
tp33
Rp34
ag10
(g14
S'rD\xa7\xa3\xeeTU@'
p35
tp36
Rp37
ag10
(g14
S'\x03\xd8\xbf\x9b?TU@'
p38
tp39
Rp40
ag10
(g14
S'\xac,\xaf\x92\x17UU@'
p41
tp42
Rp43
ag10
(g14
S'\xc4\x88Y\xfbfTU@'
p44
tp45
Rp46
ag10
(g14
S';\xec-\xfdnTU@'
p47
tp48
Rp49
ag10
(g14
S'\xb1\xd0+\xaeWUU@'
p50
tp51
Rp52
ag10
(g14
S'\xac\xdc\xd8Z_TU@'
p53
tp54
Rp55
ag10
(g14
S'0\xdf\xcc\xff\xd2SU@'
p56
tp57
Rp58
ag10
(g14
S's5\x83a\x94UU@'
p59
tp60
Rp61
ag10
(g14
S'\x04GH6\x1aUU@'
p62
tp63
Rp64
ag10
(g14
S"\xf1\xa0Bw'TU@"
p65
tp66
Rp67
ag10
(g14
S'\xe8\x11\xa6JzTU@'
p68
tp69
Rp70
ag10
(g14
S'\xe2\x16n\xd8\x1aTU@'
p71
tp72
Rp73
ag10
(g14
S'\x8fd\xbc\xef\x97SU@'
p74
tp75
Rp76
asS'target'
p77
(lp78
g10
(g14
S'q\x9e\x83m8\x97#@'
p79
tp80
Rp81
ag10
(g14
S"\xab{\xb0S3#'@"
p82
tp83
Rp84
ag10
(g14
S'yN>%\xefC#@'
p85
tp86
Rp87
ag10
(g14
S'\x94M\xfa\xddd<&@'
p88
tp89
Rp90
ag10
(g14
S'g\xff\xe4\xdck\xe1%@'
p91
tp92
Rp93
ag10
(g14
S"\xf6\xd3\x03>8\xe5'@"
p94
tp95
Rp96
ag10
(g14
S'}\xb3\xe3ID\xcd#@'
p97
tp98
Rp99
ag10
(g14
S'\x95zq\x07\xba\xb5-@'
p100
tp101
Rp102
ag10
(g14
S'`\x11\xa9\xc9k\xba%@'
p103
tp104
Rp105
ag10
(g14
S'\x87\xc9B<J\x0f%@'
p106
tp107
Rp108
ag10
(g14
S'\x8a\xde\xe9\xeb\xfa3$@'
p109
tp110
Rp111
ag10
(g14
S't5\xf2\xbe,z$@'
p112
tp113
Rp114
ag10
(g14
S'\xcf\r\x92\xda\xc2\x83)@'
p115
tp116
Rp117
ag10
(g14
S'OrI\x1fV\x9d)@'
p118
tp119
Rp120
ag10
(g14
S'9bF\x9a\x00\xba(@'
p121
tp122
Rp123
ag10
(g14
S'\x8eVO7\x8dy(@'
p124
tp125
Rp126
ag10
(g14
S'\xc0\xe9\xaf\xfe\xadF$@'
p127
tp128
Rp129
ag10
(g14
S"\xae\x16\x11|\xf6f'@"
p130
tp131
Rp132
ag10
(g14
S"\xd6i}\xbf\xda\x96'@"
p133
tp134
Rp135
ag10
(g14
S'\xfd\xc8\x99\x8f\xed\xa8%@'
p136
tp137
Rp138
asssss.