(dp0
S'../Data/sqlite_1.csv'
p1
(dp2
S'../Data/sqlite_58.csv'
p3
(dp4
F0.1
(dp5
S'abs_res'
p6
(dp7
S'bellwether'
p8
(lp9
cnumpy.core.multiarray
scalar
p10
(cnumpy
dtype
p11
(S'f8'
p12
I0
I1
tp13
Rp14
(I3
S'<'
p15
NNNI-1
I-1
I0
tp16
bS'z?5\xde\xbc=AA'
p17
tp18
Rp19
ag10
(g14
S'\xb4\x904\xc5\xea=AA'
p20
tp21
Rp22
ag10
(g14
S'\xd7\xa3p\r\xea<AA'
p23
tp24
Rp25
ag10
(g14
S'\xcdv\xbeoS=AA'
p26
tp27
Rp28
ag10
(g14
S'L7\x89\x91I=AA'
p29
tp30
Rp31
ag10
(g14
S'dffv\xe8<AA'
p32
tp33
Rp34
ag10
(g14
S'\xa7\xb7e]P=AA'
p35
tp36
Rp37
ag10
(g14
S'&""\xe2H=AA'
p38
tp39
Rp40
ag10
(g14
S'\xce>|\xf6Q=AA'
p41
tp42
Rp43
ag10
(g14
S'\xb7\x1e\x85\xcb\xda=AA'
p44
tp45
Rp46
ag10
(g14
S'\x1b\x85\xeb\x81\xe3=AA'
p47
tp48
Rp49
ag10
(g14
S'\x06+\x87\xe6W=AA'
p50
tp51
Rp52
ag10
(g14
S'\x85\xebQ\x98A=AA'
p53
tp54
Rp55
ag10
(g14
S'N\xb8\x1euK=AA'
p56
tp57
Rp58
ag10
(g14
S'\xa2\x1a/\x8d\x7f=AA'
p59
tp60
Rp61
ag10
(g14
S'\x996\xd0I =AA'
p62
tp63
Rp64
ag10
(g14
S'\x81\xb1\xe4\x17\xef=AA'
p65
tp66
Rp67
ag10
(g14
S'@\n\xd7\xe3\xf0<AA'
p68
tp69
Rp70
ag10
(g14
S'\x8b\xc2\xf5xv=AA'
p71
tp72
Rp73
ag10
(g14
S'ih\x91=6=AA'
p74
tp75
Rp76
asS'target'
p77
(lp78
g10
(g14
S'\x94\x18\x04V\x0eIX@'
p79
tp80
Rp81
ag10
(g14
S'\x99C\x8bl\xe7\x83[@'
p82
tp83
Rp84
ag10
(g14
S'\x8e\xed|?5\xd6[@'
p85
tp86
Rp87
ag10
(g14
S'\xa6\x1cZd;\xb7Y@'
p88
tp89
Rp90
ag10
(g14
S'R7\x89A`\xdd[@'
p91
tp92
Rp93
ag10
(g14
S'\x13\x83\xc0\xca\xa1U\\@'
p94
tp95
Rp96
ag10
(g14
S'\x11\xd7\xa3p=\xe2[@'
p97
tp98
Rp99
ag10
(g14
S'\xc6\xca\xa1E\xb6SY@'
p100
tp101
Rp102
ag10
(g14
S'\xdfMb\x10X\xc9Z@'
p103
tp104
Rp105
ag10
(g14
S'{\xc0\xca\xa1E\x8e[@'
p106
tp107
Rp108
ag10
(g14
S'\x96\xc4 \xb0r`\\@'
p109
tp110
Rp111
ag10
(g14
S'/\x89A`\xe5\xc8Z@'
p112
tp113
Rp114
ag10
(g14
S'\xebz\x14\xaeG\xa1Y@'
p115
tp116
Rp117
ag10
(g14
S'\xe6z\x14\xaeGQ]@'
p118
tp119
Rp120
ag10
(g14
S'\xa9\x9b\xc4 \xb0\xc2X@'
p121
tp122
Rp123
ag10
(g14
S'J7\x89A`5Y@'
p124
tp125
Rp126
ag10
(g14
S'\x89\x16\xd9\xce\xf7\xc3[@'
p127
tp128
Rp129
ag10
(g14
S'*\\\x8f\xc2\xf5\x14Y@'
p130
tp131
Rp132
ag10
(g14
S'\xbd\xca\xa1E\xb6\x03Y@'
p133
tp134
Rp135
ag10
(g14
S'\xcfMb\x10X5Z@'
p136
tp137
Rp138
asssss.