(dp0
S'../Data/sqlite_74.csv'
p1
(dp2
S'../Data/sqlite_36.csv'
p3
(dp4
F0.1
(dp5
S'abs_res'
p6
(dp7
S'bellwether'
p8
(lp9
cnumpy.core.multiarray
scalar
p10
(cnumpy
dtype
p11
(S'f8'
p12
I0
I1
tp13
Rp14
(I3
S'<'
p15
NNNI-1
I-1
I0
tp16
bS'!Zd\xc7\xfdrnA'
p17
tp18
Rp19
ag10
(g14
S'q\xe5\xd0\x92JtnA'
p20
tp21
Rp22
ag10
(g14
S'\xb1\x9d\xef\x93\xa5unA'
p23
tp24
Rp25
ag10
(g14
S'\xf6Q\xb8\x1a\xe3\x81nA'
p26
tp27
Rp28
ag10
(g14
S'\xb2rh\x91`unA'
p29
tp30
Rp31
ag10
(g14
S'\xb1\x1cZ\xd0\rvnA'
p32
tp33
Rp34
ag10
(g14
S'\x84\x16\xd96\xb1nnA'
p35
tp36
Rp37
ag10
(g14
S'aW\x800\xcdqnA'
p38
tp39
Rp40
ag10
(g14
S'I`\xe5<]xnA'
p41
tp42
Rp43
ag10
(g14
S'\xe9$\x06\x01\x96ynA'
p44
tp45
Rp46
ag10
(g14
S'\xb4\x1cZdY~nA'
p47
tp48
Rp49
ag10
(g14
S'd\xad\x8eyWvnA'
p50
tp51
Rp52
ag10
(g14
S'W\xb8\x1e\x89$pnA'
p53
tp54
Rp55
ag10
(g14
S's\x05\xc8\xe9esnA'
p56
tp57
Rp58
ag10
(g14
S'\xd4"\xdb\xa52unA'
p59
tp60
Rp61
ag10
(g14
S'\x8eA`\xed\xd4mnA'
p62
tp63
Rp64
ag10
(g14
S',O\xd4\x87\x8axnA'
p65
tp66
Rp67
ag10
(g14
S'\xd3i\x03\xa1\x15onA'
p68
tp69
Rp70
ag10
(g14
S'\x91\xb5:RTwnA'
p71
tp72
Rp73
ag10
(g14
S'\n\xf3D\xfdZlnA'
p74
tp75
Rp76
asS'target'
p77
(lp78
g10
(g14
S'{\xbct\x93\x18\x0cY@'
p79
tp80
Rp81
ag10
(g14
S'\xfa\xfd\xd4x\xe9\xaeZ@'
p82
tp83
Rp84
ag10
(g14
S'\x01\x00\x00\x00\x00\x9cY@'
p85
tp86
Rp87
ag10
(g14
S'(\x06\x81\x95C\x1b]@'
p88
tp89
Rp90
ag10
(g14
S'k=\n\xd7\xa38]@'
p91
tp92
Rp93
ag10
(g14
S'\r\xd7\xa3p=\xbaX@'
p94
tp95
Rp96
ag10
(g14
S'\xf8\xfd\xd4x\xe9\xeeY@'
p97
tp98
Rp99
ag10
(g14
S'I\x8bl\xe7\xfb\x89Y@'
p100
tp101
Rp102
ag10
(g14
S'\xb7\xc8v\xbe\x9fRZ@'
p103
tp104
Rp105
ag10
(g14
S')\x06\x81\x95C\xdb\\@'
p106
tp107
Rp108
ag10
(g14
S'\x0eV\x0e-\xb2\x95\\@'
p109
tp110
Rp111
ag10
(g14
S'\xfe~j\xbct\xc7Y@'
p112
tp113
Rp114
ag10
(g14
S'\xd8\xa3p=\n\xafX@'
p115
tp116
Rp117
ag10
(g14
S'wh\x91\xed|\xe7Y@'
p118
tp119
Rp120
ag10
(g14
S'\xd9x\xe9&1X]@'
p121
tp122
Rp123
ag10
(g14
S'\x9dC\x8bl\xe7\x83]@'
p124
tp125
Rp126
ag10
(g14
S'Pb\x10X9\xc4Z@'
p127
tp128
Rp129
ag10
(g14
S'\xefz\x14\xaeGQZ@'
p130
tp131
Rp132
ag10
(g14
S'\xb6\x1e\x85\xebQ\xe8W@'
p133
tp134
Rp135
ag10
(g14
S'\xb9G\xe1z\x14\xf6W@'
p136
tp137
Rp138
asssss.