(dp0
S'../Data/sqlite_43.csv'
p1
(dp2
S'../Data/sqlite_5.csv'
p3
(dp4
F0.2
(dp5
S'abs_res'
p6
(dp7
S'bellwether'
p8
(lp9
cnumpy.core.multiarray
scalar
p10
(cnumpy
dtype
p11
(S'f8'
p12
I0
I1
tp13
Rp14
(I3
S'<'
p15
NNNI-1
I-1
I0
tp16
bS'\x05c\xc9\x8f\x0bM>A'
p17
tp18
Rp19
ag10
(g14
S'\x16V\x0e-\tM>A'
p20
tp21
Rp22
ag10
(g14
S'i,\xf9\xc5)M>A'
p23
tp24
Rp25
ag10
(g14
S'\xd5\xcc\xccL~M>A'
p26
tp27
Rp28
ag10
(g14
S'\x1a\xca\xe8\xad0L>A'
p29
tp30
Rp31
ag10
(g14
S'JS*.\xaeL>A'
p32
tp33
Rp34
ag10
(g14
S'"\xa1\x8c>\xa1L>A'
p35
tp36
Rp37
ag10
(g14
S'\x89l\xe7;CL>A'
p38
tp39
Rp40
ag10
(g14
S'*\xa3\xb7\x055M>A'
p41
tp42
Rp43
ag10
(g14
S'L\xa98[\x9bL>A'
p44
tp45
Rp46
ag10
(g14
S'\xd0\x13\xf5OCN>A'
p47
tp48
Rp49
ag10
(g14
S'\xa1\xe0\xc1\xfceM>A'
p50
tp51
Rp52
ag10
(g14
S'A\xee5\xd7\x8dL>A'
p53
tp54
Rp55
ag10
(g14
S'\xa8\xa8\x7f\xa3\x99L>A'
p56
tp57
Rp58
ag10
(g14
S'3\xb2\x9do\x8fL>A'
p59
tp60
Rp61
ag10
(g14
S'S\x8d\x97\x8e\x1bM>A'
p62
tp63
Rp64
ag10
(g14
S'\x06G(\x83\xceL>A'
p65
tp66
Rp67
ag10
(g14
S'[\xffF\xe8\xb6L>A'
p68
tp69
Rp70
ag10
(g14
S'Z\xe3\xa5\x1b\x85L>A'
p71
tp72
Rp73
ag10
(g14
S'\xfdo\x84\xd2\xb1L>A'
p74
tp75
Rp76
asS'target'
p77
(lp78
g10
(g14
S'L\x0c\x02+\x87v\\@'
p79
tp80
Rp81
ag10
(g14
S'\x03c\xc9/\x96\xdcY@'
p82
tp83
Rp84
ag10
(g14
S'\x87\x99\x99\x99\x99Y]@'
p85
tp86
Rp87
ag10
(g14
S'\xe9&1\x08\xac\x88[@'
p88
tp89
Rp90
ag10
(g14
S'\xeb|?5^*^@'
p91
tp92
Rp93
ag10
(g14
S'\xffU\x0e-\xb2\xdd[@'
p94
tp95
Rp96
ag10
(g14
S'/\xdd$\x06\x81\x1dX@'
p97
tp98
Rp99
ag10
(g14
S'7\xdfO\x8d\x97~Z@'
p100
tp101
Rp102
ag10
(g14
S',^\xbaI\x0cB\\@'
p103
tp104
Rp105
ag10
(g14
S'\xdd\xf9~j\xbc<Z@'
p106
tp107
Rp108
ag10
(g14
S'\x97\xef\xa7\xc6Kw^@'
p109
tp110
Rp111
ag10
(g14
S'\x95\xed|?5\xbe^@'
p112
tp113
Rp114
ag10
(g14
S'\xee\xa7\xc6K7\x01]@'
p115
tp116
Rp117
ag10
(g14
S'_\x10X9\xb4|]@'
p118
tp119
Rp120
ag10
(g14
S'v\x14\xaeG\xe1\xb2_@'
p121
tp122
Rp123
ag10
(g14
S'R9\xb4\xc8v\xd6[@'
p124
tp125
Rp126
ag10
(g14
S'\x83\x16\xd9\xce\xf7cY@'
p127
tp128
Rp129
ag10
(g14
S'>\xb4\xc8v\xbeWY@'
p130
tp131
Rp132
ag10
(g14
S'\x05T\xe3\xa5\x9b<W@'
p133
tp134
Rp135
ag10
(g14
S'\xc2\xf5(\\\x8f._@'
p136
tp137
Rp138
asssss.