(dp0
S'../Data/sqlite_77.csv'
p1
(dp2
S'../Data/sqlite_63.csv'
p3
(dp4
F0.3
(dp5
S'mmre'
p6
(dp7
S'bellwether'
p8
(lp9
cnumpy.core.multiarray
scalar
p10
(cnumpy
dtype
p11
(S'f8'
p12
I0
I1
tp13
Rp14
(I3
S'<'
p15
NNNI-1
I-1
I0
tp16
bS'O\xcc\x16\x048N@@'
p17
tp18
Rp19
ag10
(g14
S'{\xc2\x86\xa2$CA@'
p20
tp21
Rp22
ag10
(g14
S'N\xab3Pd!A@'
p23
tp24
Rp25
ag10
(g14
S'\xd63\x9eFkVA@'
p26
tp27
Rp28
ag10
(g14
S'x\xffv&\x18\xab@@'
p29
tp30
Rp31
ag10
(g14
S'\x12w1\xa0u\x9b@@'
p32
tp33
Rp34
ag10
(g14
S'@C*y\xcbTA@'
p35
tp36
Rp37
ag10
(g14
S'\xc3*\xb3\xb5\xb5o@@'
p38
tp39
Rp40
ag10
(g14
S'\xbf\xd4\xec\x11\x18\xb9@@'
p41
tp42
Rp43
ag10
(g14
S':W-\xf32\x19@@'
p44
tp45
Rp46
ag10
(g14
S'\x1b\x96]sC\xe5@@'
p47
tp48
Rp49
ag10
(g14
S'\x1cI\xcbnN\x83@@'
p50
tp51
Rp52
ag10
(g14
S'k\x84=h\xd7\x91@@'
p53
tp54
Rp55
ag10
(g14
S'Jr\xa0\x7fo2@@'
p56
tp57
Rp58
ag10
(g14
S"'\x9c\xfb\xb43\x8c@@"
p59
tp60
Rp61
ag10
(g14
S'[\xd2\xed\xa3\xd7^@@'
p62
tp63
Rp64
ag10
(g14
S'\xed\x9b\x1e\x9dE\x8b@@'
p65
tp66
Rp67
ag10
(g14
S'O6\xfe\x00F\xb6@@'
p68
tp69
Rp70
ag10
(g14
S'4\x1aV\xd7\xc3H@@'
p71
tp72
Rp73
ag10
(g14
S"&\xed'\xc1p\xcd@@"
p74
tp75
Rp76
asS'target'
p77
(lp78
g10
(g14
S'\'s&D6|"@'
p79
tp80
Rp81
ag10
(g14
S'\x998,\x98\xe2\x8d"@'
p82
tp83
Rp84
ag10
(g14
S'E\xa87\x87\xcc\xe0!@'
p85
tp86
Rp87
ag10
(g14
S'S\xf6J\xc8\xd7T"@'
p88
tp89
Rp90
ag10
(g14
S'\xf7\xb6!\xdd^\x9a"@'
p91
tp92
Rp93
ag10
(g14
S'Wb\xef\xc3\x1b\xa9"@'
p94
tp95
Rp96
ag10
(g14
S'74L`\xd3?!@'
p97
tp98
Rp99
ag10
(g14
S'\x93\xa9\x0b0\xa1-"@'
p100
tp101
Rp102
ag10
(g14
S'R\x04\x92M\xc8\x9e"@'
p103
tp104
Rp105
ag10
(g14
S'nM\xa1y\xc3\xdc#@'
p106
tp107
Rp108
ag10
(g14
S'\xa9\x96F)~i$@'
p109
tp110
Rp111
ag10
(g14
S'[kx\xd0\xda\x89!@'
p112
tp113
Rp114
ag10
(g14
S'\xd4\xc2F\xbdF\x92!@'
p115
tp116
Rp117
ag10
(g14
S' f\x8bga\x0c#@'
p118
tp119
Rp120
ag10
(g14
S'\x00\xb9l\xe8\xdc\x83"@'
p121
tp122
Rp123
ag10
(g14
S'c\x19\xbf%\x91\xdd"@'
p124
tp125
Rp126
ag10
(g14
S'\xdb\x9e2Lr8"@'
p127
tp128
Rp129
ag10
(g14
S'\xaaj\x06\x1b\xad\xe1!@'
p130
tp131
Rp132
ag10
(g14
S'\xf5\x82H\x86g\xdc"@'
p133
tp134
Rp135
ag10
(g14
S'\x19\x9e\xf9\x98\xe1]"@'
p136
tp137
Rp138
asssss.