(dp0
S'../Data/sqlite_35.csv'
p1
(dp2
S'../Data/sqlite_7.csv'
p3
(dp4
F0.15
(dp5
S'mmre'
p6
(dp7
S'bellwether'
p8
(lp9
cnumpy.core.multiarray
scalar
p10
(cnumpy
dtype
p11
(S'f8'
p12
I0
I1
tp13
Rp14
(I3
S'<'
p15
NNNI-1
I-1
I0
tp16
bS'\xc0\xe0\xe8^A="@'
p17
tp18
Rp19
ag10
(g14
S'\xabh\x00:\xe3/"@'
p20
tp21
Rp22
ag10
(g14
S'\xb1C\xcf\xe0sa"@'
p23
tp24
Rp25
ag10
(g14
S'#W\x1b\xbe\x7fI"@'
p26
tp27
Rp28
ag10
(g14
S'\x11\xd1)}\xbd1"@'
p29
tp30
Rp31
ag10
(g14
S'+6\xa0T\xb18"@'
p32
tp33
Rp34
ag10
(g14
S'\x8f;ps\x98@"@'
p35
tp36
Rp37
ag10
(g14
S'\x9aYQD\x19K"@'
p38
tp39
Rp40
ag10
(g14
S'!x\r"!F"@'
p41
tp42
Rp43
ag10
(g14
S'\x81\x199\x8a\xf2N"@'
p44
tp45
Rp46
ag10
(g14
S'\xe0\xa8B\xb8\x80E"@'
p47
tp48
Rp49
ag10
(g14
S'D\x11\xc2\xc1_<"@'
p50
tp51
Rp52
ag10
(g14
S'A~7\x00\x13_"@'
p53
tp54
Rp55
ag10
(g14
S')i\xec\xa1\xeb."@'
p56
tp57
Rp58
ag10
(g14
S'\xa0#It\xbcG"@'
p59
tp60
Rp61
ag10
(g14
S'\x1e.7p6N"@'
p62
tp63
Rp64
ag10
(g14
S'\x84\n\xba\xfeNC"@'
p65
tp66
Rp67
ag10
(g14
S'l+:Md^"@'
p68
tp69
Rp70
ag10
(g14
S'\xde\x0f\xb3\xdc\xb77"@'
p71
tp72
Rp73
ag10
(g14
S'[|\x0bI\x19P"@'
p74
tp75
Rp76
asS'target'
p77
(lp78
g10
(g14
S'!\xa6!;iU\xf5?'
p79
tp80
Rp81
ag10
(g14
S'\x83+\xf7L\xf7F\xf5?'
p82
tp83
Rp84
ag10
(g14
S"J\x80v\xac\xe3'\xf4?"
p85
tp86
Rp87
ag10
(g14
S'h\xca\x9b\x1f\x0f\x9b\xf5?'
p88
tp89
Rp90
ag10
(g14
S'\xd8\xb5\r\x94i%\xf6?'
p91
tp92
Rp93
ag10
(g14
S'[\x0cf\xbb\xf2\xcf\xf3?'
p94
tp95
Rp96
ag10
(g14
S'+8[hM%\xf5?'
p97
tp98
Rp99
ag10
(g14
S'\xb4\x88Vg\xe8F\xf5?'
p100
tp101
Rp102
ag10
(g14
S'\xa93/\x8dT!\xf6?'
p103
tp104
Rp105
ag10
(g14
S'k\xe2X\x18c\xdd\xf3?'
p106
tp107
Rp108
ag10
(g14
S'\x03 <\xb2\x02L\xf7?'
p109
tp110
Rp111
ag10
(g14
S'\xdc\x1fD)\xee]\xf7?'
p112
tp113
Rp114
ag10
(g14
S'\x83\x19=\n/l\xf4?'
p115
tp116
Rp117
ag10
(g14
S'\xa3\x08\xd1\xfe2 \xf9?'
p118
tp119
Rp120
ag10
(g14
S'\r9\xdbj>h\xf4?'
p121
tp122
Rp123
ag10
(g14
S':\xd4\xf6\x02\xe3\xcf\xf4?'
p124
tp125
Rp126
ag10
(g14
S'\xc9\xae\xea\x10:\xbe\xf4?'
p127
tp128
Rp129
ag10
(g14
S'\xb2eO\x1ev\xde\xf7?'
p130
tp131
Rp132
ag10
(g14
S'\xcf~*C\x85\xb0\xf6?'
p133
tp134
Rp135
ag10
(g14
S'\x9a\xd3D\x1d\xa3\xcc\xf5?'
p136
tp137
Rp138
asssss.