(dp0
S'../Data/sqlite_16.csv'
p1
(dp2
S'../Data/sqlite_73.csv'
p3
(dp4
F0.35
(dp5
S'mmre'
p6
(dp7
S'bellwether'
p8
(lp9
cnumpy.core.multiarray
scalar
p10
(cnumpy
dtype
p11
(S'f8'
p12
I0
I1
tp13
Rp14
(I3
S'<'
p15
NNNI-1
I-1
I0
tp16
bS'&45+\x92cU@'
p17
tp18
Rp19
ag10
(g14
S'%\xc0\xbb\x81\x1baU@'
p20
tp21
Rp22
ag10
(g14
S'0\xac\xb4"\x9a^U@'
p23
tp24
Rp25
ag10
(g14
S'\xac\x98\x05t>^U@'
p26
tp27
Rp28
ag10
(g14
S'\xb9/51\x8ecU@'
p29
tp30
Rp31
ag10
(g14
S'@\xc8\x19?\x98aU@'
p32
tp33
Rp34
ag10
(g14
S'r\x8c\xaek\xc1eU@'
p35
tp36
Rp37
ag10
(g14
S"{\x8b\xfe'\x1d_U@"
p38
tp39
Rp40
ag10
(g14
S'`W\x07\x8c\xd0`U@'
p41
tp42
Rp43
ag10
(g14
S'T\x92\x03=\xd4\\U@'
p44
tp45
Rp46
ag10
(g14
S'^\xf1\xc0\xf2BbU@'
p47
tp48
Rp49
ag10
(g14
S'j\xd3\xdarf_U@'
p50
tp51
Rp52
ag10
(g14
S'\xd6\xb8\x01R _U@'
p53
tp54
Rp55
ag10
(g14
S'\xa6GP\x9a\xf4]U@'
p56
tp57
Rp58
ag10
(g14
S'UfkS\x8faU@'
p59
tp60
Rp61
ag10
(g14
S'\xaclC-\nbU@'
p62
tp63
Rp64
ag10
(g14
S'\x91f\xc6\xf9\xa1cU@'
p65
tp66
Rp67
ag10
(g14
S'/\xaauO1dU@'
p68
tp69
Rp70
ag10
(g14
S'z\xfd\x07\xba\xcd_U@'
p71
tp72
Rp73
ag10
(g14
S'\xe94u\xe4JcU@'
p74
tp75
Rp76
asS'target'
p77
(lp78
g10
(g14
S'\x13\xa48$@\xba*@'
p79
tp80
Rp81
ag10
(g14
S'\xed\x8a4\xda\xba\xcf+@'
p82
tp83
Rp84
ag10
(g14
S';\xa6\x83\x88\xe3(+@'
p85
tp86
Rp87
ag10
(g14
S'b\xe5\x17\xd6\x1fB,@'
p88
tp89
Rp90
ag10
(g14
S'1\x15Y\xed\xd44)@'
p91
tp92
Rp93
ag10
(g14
S'\x93\xdea7\x8e\x8b*@'
p94
tp95
Rp96
ag10
(g14
S'\x98\x92\xf0\xc8%\xdb)@'
p97
tp98
Rp99
ag10
(g14
S"\xf8'\xc3\r\x13\x99,@"
p100
tp101
Rp102
ag10
(g14
S'\xad\xf2\xe6\xee\xbe\xf1*@'
p103
tp104
Rp105
ag10
(g14
S'aM\xde\xcdz\xce,@'
p106
tp107
Rp108
ag10
(g14
S'k\xbe\x19\x92\xf7\xf6+@'
p109
tp110
Rp111
ag10
(g14
S'\xce$ \x86pD+@'
p112
tp113
Rp114
ag10
(g14
S'\xd5x\x10N\xaad+@'
p115
tp116
Rp117
ag10
(g14
S'M\\\x95\xee\x13s-@'
p118
tp119
Rp120
ag10
(g14
S'\xa7\x8d\x97\x80\xeae,@'
p121
tp122
Rp123
ag10
(g14
S'\x03\xb4\x14\x1a\x9d)+@'
p124
tp125
Rp126
ag10
(g14
S'\xe6\\h\xcc\xaf\n+@'
p127
tp128
Rp129
ag10
(g14
S'mY\xfdK\xe4\xde)@'
p130
tp131
Rp132
ag10
(g14
S'\xb6\x06\xaf\xea\xda\x13,@'
p133
tp134
Rp135
ag10
(g14
S'\x88\xe1\xedP_x*@'
p136
tp137
Rp138
asssss.