(dp0
S'../Data/sqlite_37.csv'
p1
(dp2
S'../Data/sqlite_97.csv'
p3
(dp4
F0.4
(dp5
S'mmre'
p6
(dp7
S'bellwether'
p8
(lp9
cnumpy.core.multiarray
scalar
p10
(cnumpy
dtype
p11
(S'f8'
p12
I0
I1
tp13
Rp14
(I3
S'<'
p15
NNNI-1
I-1
I0
tp16
bS'\xd02\xcb$\x99PX@'
p17
tp18
Rp19
ag10
(g14
S'\xbdyv\xd2\xe3PX@'
p20
tp21
Rp22
ag10
(g14
S'N0\xd5vMPX@'
p23
tp24
Rp25
ag10
(g14
S'\x00Dv\xcfIQX@'
p26
tp27
Rp28
ag10
(g14
S'h\xfb\xe6\xb7\xfePX@'
p29
tp30
Rp31
ag10
(g14
S'\xf8\x9b\xca:\xb4QX@'
p32
tp33
Rp34
ag10
(g14
S'\xe4\xe6a\x1dxQX@'
p35
tp36
Rp37
ag10
(g14
S'g\xd2\xd5\x01\xfcOX@'
p38
tp39
Rp40
ag10
(g14
S'\xd4TQI\x1fRX@'
p41
tp42
Rp43
ag10
(g14
S'\x90\xcb\xd9\xb4\xe7PX@'
p44
tp45
Rp46
ag10
(g14
S'`sF\x95\xbbOX@'
p47
tp48
Rp49
ag10
(g14
S'\x13\x9d\xb6\xe5,QX@'
p50
tp51
Rp52
ag10
(g14
S'm\xdb\x15\x8c\xa5OX@'
p53
tp54
Rp55
ag10
(g14
S'j\x08\xc7\xab\xbbPX@'
p56
tp57
Rp58
ag10
(g14
S'\xd0\xa6>\xf5\xfaPX@'
p59
tp60
Rp61
ag10
(g14
S'w\xe4\xcb8lOX@'
p62
tp63
Rp64
ag10
(g14
S'\x95^e3mMX@'
p65
tp66
Rp67
ag10
(g14
S'=Z\xe5{\x15RX@'
p68
tp69
Rp70
ag10
(g14
S'\xdb\xe5\xac\x87\x04QX@'
p71
tp72
Rp73
ag10
(g14
S':\xae\xc7r^OX@'
p74
tp75
Rp76
asS'target'
p77
(lp78
g10
(g14
S'\xb1\x02\xe64\xb6{M@'
p79
tp80
Rp81
ag10
(g14
S'L|\xdd}\x9d\xdbV@'
p82
tp83
Rp84
ag10
(g14
S'\xd4\x19x\xb8\xffOX@'
p85
tp86
Rp87
ag10
(g14
S'C}\x92p46R@'
p88
tp89
Rp90
ag10
(g14
S'\x1d\xceU\xe5\xf9\xb5P@'
p91
tp92
Rp93
ag10
(g14
S'\x05XY\xaak\xd3U@'
p94
tp95
Rp96
ag10
(g14
S'\xea\xae\xd6\xf3\x013W@'
p97
tp98
Rp99
ag10
(g14
S'\x8d\xcd\xd9\x9c\xe7\xd5W@'
p100
tp101
Rp102
ag10
(g14
S'\x88\x97e\xcf\xec.T@'
p103
tp104
Rp105
ag10
(g14
S'9\xa8\xdcERmU@'
p106
tp107
Rp108
ag10
(g14
S'8\xe8\xecf\xf9\xd0S@'
p109
tp110
Rp111
ag10
(g14
S'G\xd7a#\x81\xf0N@'
p112
tp113
Rp114
ag10
(g14
S'e\x84\xc1*\x0c\xfdS@'
p115
tp116
Rp117
ag10
(g14
S'\xee\xda\xc50\xc2IO@'
p118
tp119
Rp120
ag10
(g14
S'\x0e\x8d\x1e;\x85\x8fP@'
p121
tp122
Rp123
ag10
(g14
S'\xbd@\xa9\xee\x98\xd7[@'
p124
tp125
Rp126
ag10
(g14
S'\xaa\x0c\\m-\x97Q@'
p127
tp128
Rp129
ag10
(g14
S'\xdc\xb6@%\x16\xaeL@'
p130
tp131
Rp132
ag10
(g14
S'H\\Mq\xb0\xb6U@'
p133
tp134
Rp135
ag10
(g14
S'[/\xc3xy0W@'
p136
tp137
Rp138
asssss.