(dp0
S'../Data/sqlite_18.csv'
p1
(dp2
S'../Data/sqlite_70.csv'
p3
(dp4
F0.15
(dp5
S'abs_res'
p6
(dp7
S'bellwether'
p8
(lp9
cnumpy.core.multiarray
scalar
p10
(cnumpy
dtype
p11
(S'f8'
p12
I0
I1
tp13
Rp14
(I3
S'<'
p15
NNNI-1
I-1
I0
tp16
bS'Z\x8f\xc2u\xa2h@A'
p17
tp18
Rp19
ag10
(g14
S'z\xe9&\xf1\xb5g@A'
p20
tp21
Rp22
ag10
(g14
S'\x1c\x85\xebAjh@A'
p23
tp24
Rp25
ag10
(g14
S'\xfc\x8dPv\xf0h@A'
p26
tp27
Rp28
ag10
(g14
S'Y\xbaI\x9clh@A'
p29
tp30
Rp31
ag10
(g14
S'\xe5\xfb\xa9\xb1\xdbg@A'
p32
tp33
Rp34
ag10
(g14
S'\xcbv\xbe_\x1bh@A'
p35
tp36
Rp37
ag10
(g14
S'2\x89A\xd0\x86h@A'
p38
tp39
Rp40
ag10
(g14
S'\xe3^sA\xb4g@A'
p41
tp42
Rp43
ag10
(g14
S'+@\xeeu_h@A'
p44
tp45
Rp46
ag10
(g14
S'\xa8\x7f#\xb4ph@A'
p47
tp48
Rp49
ag10
(g14
S'@\xe1z\xe4\x05h@A'
p50
tp51
Rp52
ag10
(g14
S'Ob\x10\x18\xb2g@A'
p53
tp54
Rp55
ag10
(g14
S'\x06\xac\x1c*Gh@A'
p56
tp57
Rp58
ag10
(g14
S'\x17\xaeG\x01?h@A'
p59
tp60
Rp61
ag10
(g14
S'\xbe\xca\xa1%}h@A'
p62
tp63
Rp64
ag10
(g14
S'G\xc5\xd9\x17\xb6g@A'
p65
tp66
Rp67
ag10
(g14
S'\x0b\xbb\x02\xd4\x8fg@A'
p68
tp69
Rp70
ag10
(g14
S'[d;\x0f\x1ai@A'
p71
tp72
Rp73
ag10
(g14
S'\xe33\xec:\xd4h@A'
p74
tp75
Rp76
asS'target'
p77
(lp78
g10
(g14
S'B\x0c\x02+\x87\x02a@'
p79
tp80
Rp81
ag10
(g14
S'\xa1\x99\x99\x99\x99\xc9_@'
p82
tp83
Rp84
ag10
(g14
S'\x86A`\xe5\xd0F`@'
p85
tp86
Rp87
ag10
(g14
S'\xc9x\xe9&1\x94`@'
p88
tp89
Rp90
ag10
(g14
S'\xa4\xef\xa7\xc6K\xc7`@'
p91
tp92
Rp93
ag10
(g14
S'G\x0c\x02+\x87pa@'
p94
tp95
Rp96
ag10
(g14
S'~j\xbct\x93\xf0_@'
p97
tp98
Rp99
ag10
(g14
S'(1\x08\xac\x1c"`@'
p100
tp101
Rp102
ag10
(g14
S'J\x0c\x02+\x87r`@'
p103
tp104
Rp105
ag10
(g14
S'\t-\xb2\x9d\xef\xab`@'
p106
tp107
Rp108
ag10
(g14
S'\x1a\x85\xebQ\xb8z`@'
p109
tp110
Rp111
ag10
(g14
S'\x9bn\x12\x83\xc0\xae_@'
p112
tp113
Rp114
ag10
(g14
S'I\x8d\x97n\x12_b@'
p115
tp116
Rp117
ag10
(g14
S'\t\xac\x1cZdW`@'
p118
tp119
Rp120
ag10
(g14
S'\r\xaeG\xe1zT`@'
p121
tp122
Rp123
ag10
(g14
S'\xd7x\xe9&1@a@'
p124
tp125
Rp126
ag10
(g14
S'N\xb8\x1e\x85\xebi_@'
p127
tp128
Rp129
ag10
(g14
S'\xc8I\x0c\x02+\xcf_@'
p130
tp131
Rp132
ag10
(g14
S'\xae\xc8v\xbe\x9f\x82a@'
p133
tp134
Rp135
ag10
(g14
S'Q9\xb4\xc8v6a@'
p136
tp137
Rp138
asssss.