(dp0
S'../Data/sqlite_43.csv'
p1
(dp2
S'../Data/sqlite_94.csv'
p3
(dp4
F0.4
(dp5
S'mmre'
p6
(dp7
S'bellwether'
p8
(lp9
cnumpy.core.multiarray
scalar
p10
(cnumpy
dtype
p11
(S'f8'
p12
I0
I1
tp13
Rp14
(I3
S'<'
p15
NNNI-1
I-1
I0
tp16
bS'\x134\t\xca-7w@'
p17
tp18
Rp19
ag10
(g14
S'\xbff_c8\xbav@'
p20
tp21
Rp22
ag10
(g14
S'-$g\xab\xbd\xfbv@'
p23
tp24
Rp25
ag10
(g14
S'\x06\xf0\xd4\x94\xe43w@'
p26
tp27
Rp28
ag10
(g14
S'\xb52W\xea\xa7\xeav@'
p29
tp30
Rp31
ag10
(g14
S'Ee\xcd]\x9d\x00w@'
p32
tp33
Rp34
ag10
(g14
S'#\x8d\xa7\xc8\xdd w@'
p35
tp36
Rp37
ag10
(g14
S'u\x87\n= Bw@'
p38
tp39
Rp40
ag10
(g14
S'\x00\x17_W\xd5\xd9v@'
p41
tp42
Rp43
ag10
(g14
S'\xd9s}yH\x14w@'
p44
tp45
Rp46
ag10
(g14
S'_\xe6[\xbc\x9b1w@'
p47
tp48
Rp49
ag10
(g14
S'J\x03\xd1+\xb8\xdcv@'
p50
tp51
Rp52
ag10
(g14
S's\x8fR\xc3\xc9\xacv@'
p53
tp54
Rp55
ag10
(g14
S'M\x0c{*p\xe7v@'
p56
tp57
Rp58
ag10
(g14
S'\xed\xcb$`g\xf5v@'
p59
tp60
Rp61
ag10
(g14
S'\x0e\xfb`\xb6\xdc\xedv@'
p62
tp63
Rp64
ag10
(g14
S'\xcazL\x85\x9a\xf8v@'
p65
tp66
Rp67
ag10
(g14
S'^W\xc6\x01\xa7Vw@'
p68
tp69
Rp70
ag10
(g14
S'(\xeba\x9e\xb4\xd3v@'
p71
tp72
Rp73
ag10
(g14
S'\x93@\x11\x19u\xeav@'
p74
tp75
Rp76
asS'target'
p77
(lp78
g10
(g14
S'\x1a\xb1\n.6lO@'
p79
tp80
Rp81
ag10
(g14
S'`ve;X!K@'
p82
tp83
Rp84
ag10
(g14
S'\x92\xb8\xb2E\xc4\x1aM@'
p85
tp86
Rp87
ag10
(g14
S'HrV\xccG\x15O@'
p88
tp89
Rp90
ag10
(g14
S'\xeaD;f\x8e\x9eL@'
p91
tp92
Rp93
ag10
(g14
S'Z0\xe0\xbb\x07eM@'
p94
tp95
Rp96
ag10
(g14
S'<\x9f\xecz2eR@'
p97
tp98
Rp99
ag10
(g14
S'\xc2z\x1eT5iQ@'
p100
tp101
Rp102
ag10
(g14
S'\x9b\xfd\xbf?\xdfWR@'
p103
tp104
Rp105
ag10
(g14
S'\xb1\xb5\x92\xba \xe6S@'
p106
tp107
Rp108
ag10
(g14
S'%\xe0\x12vr\x82O@'
p109
tp110
Rp111
ag10
(g14
S'\xcb\xfa\xdd\x96\x9c\x9cO@'
p112
tp113
Rp114
ag10
(g14
S'\x8dq\xd8\xd6\x8e[E@'
p115
tp116
Rp117
ag10
(g14
S'\xb4\xdcI\x84\x82iQ@'
p118
tp119
Rp120
ag10
(g14
S'ZG\xe77OfV@'
p121
tp122
Rp123
ag10
(g14
S'\x9e\xb3\xd3+\x00gR@'
p124
tp125
Rp126
ag10
(g14
S'/\xef\xfd\xfe\xf9\nS@'
p127
tp128
Rp129
ag10
(g14
S'\x13\x11\xa6\xa07lT@'
p130
tp131
Rp132
ag10
(g14
S'\xfa\xbao:!\xc2K@'
p133
tp134
Rp135
ag10
(g14
S'\xed\x86\xe2\xf0\xc8\x99Q@'
p136
tp137
Rp138
asssss.