(dp0
S'../Data/sqlite_32.csv'
p1
(dp2
S'../Data/sqlite_21.csv'
p3
(dp4
F0.25
(dp5
S'abs_res'
p6
(dp7
S'bellwether'
p8
(lp9
cnumpy.core.multiarray
scalar
p10
(cnumpy
dtype
p11
(S'f8'
p12
I0
I1
tp13
Rp14
(I3
S'<'
p15
NNNI-1
I-1
I0
tp16
bS'I\xe1zT\xe6>AA'
p17
tp18
Rp19
ag10
(g14
S'\xb2rh\x11iBAA'
p20
tp21
Rp22
ag10
(g14
S'r\x12\x83\xc0\xc6AAA'
p23
tp24
Rp25
ag10
(g14
S'\xd3Mb\xf0\xdaAAA'
p26
tp27
Rp28
ag10
(g14
S't\x93\x18\x84\x18AAA'
p29
tp30
Rp31
ag10
(g14
S'*\x06\x81U}?AA'
p32
tp33
Rp34
ag10
(g14
S'j\x91\xedLz@AA'
p35
tp36
Rp37
ag10
(g14
S'\x99n\x12\xe3\x8d@AA'
p38
tp39
Rp40
ag10
(g14
S'1\xb2\x9d_\x99AAA'
p41
tp42
Rp43
ag10
(g14
S'\xf7\xfd\xd4\xb8\x1fAAA'
p44
tp45
Rp46
ag10
(g14
S'\x1fZd\xeb\xc7<AA'
p47
tp48
Rp49
ag10
(g14
S'\xd2\xf7Ss\xe3@AA'
p50
tp51
Rp52
ag10
(g14
S'\xd2\xcc\xcc\xec\xac@AA'
p53
tp54
Rp55
ag10
(g14
S'\xc2\x9f\x1a\x1f8AAA'
p56
tp57
Rp58
ag10
(g14
S's\xbe\x9f:\x9aAAA'
p59
tp60
Rp61
ag10
(g14
S'\xa4\xf1\xd2\r\xa5@AA'
p62
tp63
Rp64
ag10
(g14
S'%ZdK\x01?AA'
p65
tp66
Rp67
ag10
(g14
S'eff\xa6\x89@AA'
p68
tp69
Rp70
ag10
(g14
S'k\xbct3\xe7AAA'
p71
tp72
Rp73
ag10
(g14
S'-\\\x8f\x926AAA'
p74
tp75
Rp76
asS'target'
p77
(lp78
g10
(g14
S',3333\xd5e@'
p79
tp80
Rp81
ag10
(g14
S'\xac\xc6K7\x89Ae@'
p82
tp83
Rp84
ag10
(g14
S'\xc6K7\x89A\xa4f@'
p85
tp86
Rp87
ag10
(g14
S'\xaa\x9b\xc4 \xb0\x90f@'
p88
tp89
Rp90
ag10
(g14
S'\xd0\xf7S\xe3\xa5\x9be@'
p91
tp92
Rp93
ag10
(g14
S'\xea\xd0"\xdb\xf9\xaae@'
p94
tp95
Rp96
ag10
(g14
S'\xb1\x9b\xc4 \xb0\xeae@'
p97
tp98
Rp99
ag10
(g14
S'\xc2t\x93\x18\x04\xc2d@'
p100
tp101
Rp102
ag10
(g14
S'\xac\xf1\xd2Mbld@'
p103
tp104
Rp105
ag10
(g14
S'w\x12\x83\xc0\xca\x9bf@'
p106
tp107
Rp108
ag10
(g14
S'2\x08\xac\x1cZde@'
p109
tp110
Rp111
ag10
(g14
S'fffff\xd2e@'
p112
tp113
Rp114
ag10
(g14
S'\x88\xebQ\xb8\x1e}f@'
p115
tp116
Rp117
ag10
(g14
S'zh\x91\xed|oh@'
p118
tp119
Rp120
ag10
(g14
S'\x17\xaeG\xe1zPe@'
p121
tp122
Rp123
ag10
(g14
S'L\x8d\x97n\x12\xf7e@'
p124
tp125
Rp126
ag10
(g14
S'\x1c\x04V\x0e-\x9ee@'
p127
tp128
Rp129
ag10
(g14
S'\xc1\x1e\x85\xebQ\xbae@'
p130
tp131
Rp132
ag10
(g14
S'\x9d\xc4 \xb0r g@'
p133
tp134
Rp135
ag10
(g14
S'`\x8f\xc2\xf5(\xc6e@'
p136
tp137
Rp138
asssss.