(dp0
S'../Data/sqlite_89.csv'
p1
(dp2
S'../Data/sqlite_15.csv'
p3
(dp4
F0.25
(dp5
S'abs_res'
p6
(dp7
S'bellwether'
p8
(lp9
cnumpy.core.multiarray
scalar
p10
(cnumpy
dtype
p11
(S'f8'
p12
I0
I1
tp13
Rp14
(I3
S'<'
p15
NNNI-1
I-1
I0
tp16
bS'\x01\x7fj|\xc0U<A'
p17
tp18
Rp19
ag10
(g14
S'\xc6K7\xf9?Z<A'
p20
tp21
Rp22
ag10
(g14
S'@\xdfO\r\x9dW<A'
p23
tp24
Rp25
ag10
(g14
S'\xbd\xca\xa1\xb5\x8dW<A'
p26
tp27
Rp28
ag10
(g14
S'\xb0rh!+W<A'
p29
tp30
Rp31
ag10
(g14
S'\tX9T\xecV<A'
p32
tp33
Rp34
ag10
(g14
S'&\xb0r\x08\x86W<A'
p35
tp36
Rp37
ag10
(g14
S'\xe7&1h\x8dW<A'
p38
tp39
Rp40
ag10
(g14
S'\xe9&1hZV<A'
p41
tp42
Rp43
ag10
(g14
S'\xaa\xf1\xd2M\x7fU<A'
p44
tp45
Rp46
ag10
(g14
S'\x06V\x0em\xbdV<A'
p47
tp48
Rp49
ag10
(g14
S'\xb9I\x0c2(W<A'
p50
tp51
Rp52
ag10
(g14
S'}\x14\xae\xc7\x7fW<A'
p53
tp54
Rp55
ag10
(g14
S'\t\xac\x1c\xba\x81W<A'
p56
tp57
Rp58
ag10
(g14
S'\xc8 \xb0\xc2\xd8U<A'
p59
tp60
Rp61
ag10
(g14
S'h\xbct\xb3\xf5W<A'
p62
tp63
Rp64
ag10
(g14
S'\xd8\xa3p]dX<A'
p65
tp66
Rp67
ag10
(g14
S'\x1e\x85\xebA\xaaT<A'
p68
tp69
Rp70
ag10
(g14
S'l\x91\xed\xdc\xb9W<A'
p71
tp72
Rp73
ag10
(g14
S'\xe4\xa5\x9b4\xbbW<A'
p74
tp75
Rp76
asS'target'
p77
(lp78
g10
(g14
S'7333\xf3z\xcf@'
p79
tp80
Rp81
ag10
(g14
S'4333\x93d\xd0@'
p82
tp83
Rp84
ag10
(g14
S'bfffF\x17\xd0@'
p85
tp86
Rp87
ag10
(g14
S'dfff\xa6b\xcf@'
p88
tp89
Rp90
ag10
(g14
S']fff\xc6.\xce@'
p91
tp92
Rp93
ag10
(g14
S'afff&\r\xce@'
p94
tp95
Rp96
ag10
(g14
S'Zfff\xa6\x93\xce@'
p97
tp98
Rp99
ag10
(g14
S'2333C*\xd0@'
p100
tp101
Rp102
ag10
(g14
S'\xd0\xcc\xcc\xccL+\xcf@'
p103
tp104
Rp105
ag10
(g14
S'\xc8\xcc\xcc\xcc,\\\xcc@'
p106
tp107
Rp108
ag10
(g14
S')333\xb3\xd7\xcf@'
p109
tp110
Rp111
ag10
(g14
S'3333\x93P\xd0@'
p112
tp113
Rp114
ag10
(g14
S'\xfe\xff\xff\xff\x7f\x81\xd0@'
p115
tp116
Rp117
ag10
(g14
S'3333\xc3c\xd0@'
p118
tp119
Rp120
ag10
(g14
S':333\xc3\x14\xd1@'
p121
tp122
Rp123
ag10
(g14
S'efff\xc6\xf4\xcf@'
p124
tp125
Rp126
ag10
(g14
S'\xeb\xee\xee\xee\x8e\x16\xce@'
p127
tp128
Rp129
ag10
(g14
S'lfff\xe6\xfb\xcf@'
p130
tp131
Rp132
ag10
(g14
S'^fff\xe6\t\xcf@'
p133
tp134
Rp135
ag10
(g14
S'\x96\x99\x99\x99\xd9[\xd0@'
p136
tp137
Rp138
asssss.