(dp0
S'../Data/sqlite_75.csv'
p1
(dp2
S'../Data/sqlite_94.csv'
p3
(dp4
F0.35
(dp5
S'mmre'
p6
(dp7
S'bellwether'
p8
(lp9
cnumpy.core.multiarray
scalar
p10
(cnumpy
dtype
p11
(S'f8'
p12
I0
I1
tp13
Rp14
(I3
S'<'
p15
NNNI-1
I-1
I0
tp16
bS'\x016Y\xd0\xf94X@'
p17
tp18
Rp19
ag10
(g14
S'\x10|u\x90\xe34X@'
p20
tp21
Rp22
ag10
(g14
S'[\x00Rt\x995X@'
p23
tp24
Rp25
ag10
(g14
S'\x9b\x90\xd6G\x1f2X@'
p26
tp27
Rp28
ag10
(g14
S'\xe3MU\xd5\xf05X@'
p29
tp30
Rp31
ag10
(g14
S'\x81\xefqT\x984X@'
p32
tp33
Rp34
ag10
(g14
S'O\x82\xdf\x9c`3X@'
p35
tp36
Rp37
ag10
(g14
S'X\xc4\x0e\x1dY2X@'
p38
tp39
Rp40
ag10
(g14
S'260QH3X@'
p41
tp42
Rp43
ag10
(g14
S'D\xd5\x99\x0f(4X@'
p44
tp45
Rp46
ag10
(g14
S'\x0c\xe6J<w2X@'
p47
tp48
Rp49
ag10
(g14
S'\xd4\xc2P"c6X@'
p50
tp51
Rp52
ag10
(g14
S'"\xd8w\x07\xbc4X@'
p53
tp54
Rp55
ag10
(g14
S'?sS\x9823X@'
p56
tp57
Rp58
ag10
(g14
S'\xfe\xd9E\x0f\xa54X@'
p59
tp60
Rp61
ag10
(g14
S'C\x90TC\n4X@'
p62
tp63
Rp64
ag10
(g14
S'\xbf\x97u\xad\xb72X@'
p65
tp66
Rp67
ag10
(g14
S'b1A\xaf\xc83X@'
p68
tp69
Rp70
ag10
(g14
S'_U\x9b~\xab3X@'
p71
tp72
Rp73
ag10
(g14
S'\xf8\x96uQ\x063X@'
p74
tp75
Rp76
asS'target'
p77
(lp78
g10
(g14
S"'2u//\x8eM@"
p79
tp80
Rp81
ag10
(g14
S'o\xe6:\x07\xff\x07O@'
p82
tp83
Rp84
ag10
(g14
S'\x04%\x8bE\xa0\x85Q@'
p85
tp86
Rp87
ag10
(g14
S'\x8a\xf4\x1b<\x9e\x04T@'
p88
tp89
Rp90
ag10
(g14
S'4I\xd0=b\xfdK@'
p91
tp92
Rp93
ag10
(g14
S'\xfe\xe9X\x0f\x12OM@'
p94
tp95
Rp96
ag10
(g14
S'\xd1\x16\xb9\xd3\x164R@'
p97
tp98
Rp99
ag10
(g14
S'D\x8a\xceb\xe7!P@'
p100
tp101
Rp102
ag10
(g14
S'\x1d\xb9\xf4N\xe8\xb3Q@'
p103
tp104
Rp105
ag10
(g14
S'\xcf\xca\xa3gE\xb6S@'
p106
tp107
Rp108
ag10
(g14
S'\xc0\xa3\xb3\xa9\xbeXT@'
p109
tp110
Rp111
ag10
(g14
S'\xc9"\xea.\xc2\xd1O@'
p112
tp113
Rp114
ag10
(g14
S'\xde\xbd\xfa\x01\x06RP@'
p115
tp116
Rp117
ag10
(g14
S'17\xfa\xc1\xa9%Z@'
p118
tp119
Rp120
ag10
(g14
S'\x87E\xcfSJRT@'
p121
tp122
Rp123
ag10
(g14
S'\xb3|+\xbb\x0b\xaeK@'
p124
tp125
Rp126
ag10
(g14
S'g%\xc7\x8aMwT@'
p127
tp128
Rp129
ag10
(g14
S'b \xef \xd0\x97Q@'
p130
tp131
Rp132
ag10
(g14
S'0\x0f\x88\x0bf\x8eP@'
p133
tp134
Rp135
ag10
(g14
S'\x10\x9du\xc8\x9aTP@'
p136
tp137
Rp138
asssss.