(dp0
S'../Data/sqlite_46.csv'
p1
(dp2
S'../Data/sqlite_14.csv'
p3
(dp4
F0.4
(dp5
S'abs_res'
p6
(dp7
S'bellwether'
p8
(lp9
cnumpy.core.multiarray
scalar
p10
(cnumpy
dtype
p11
(S'f8'
p12
I0
I1
tp13
Rp14
(I3
S'<'
p15
NNNI-1
I-1
I0
tp16
bS'\xdcO\x8d\xb7@-7A'
p17
tp18
Rp19
ag10
(g14
S'\xd7\xf7S\xa3y,7A'
p20
tp21
Rp22
ag10
(g14
S'\xf4\xa7\xc6k+-7A'
p23
tp24
Rp25
ag10
(g14
S'\xeb\xa7\xc6K\xf4,7A'
p26
tp27
Rp28
ag10
(g14
S'\xbd\x1e\x85K5-7A'
p29
tp30
Rp31
ag10
(g14
S'A\xb6\xf3\x9d\xf1+7A'
p32
tp33
Rp34
ag10
(g14
S'\x0e\xd7\xa3\xf0\xb5(7A'
p35
tp36
Rp37
ag10
(g14
S'ph\x91-\x0b-7A'
p38
tp39
Rp40
ag10
(g14
S'5\\\x8f\x02\x11,7A'
p41
tp42
Rp43
ag10
(g14
S']\x8f\xc25\xd0*7A'
p44
tp45
Rp46
ag10
(g14
S'\x01\xaa\xf1RG,7A'
p47
tp48
Rp49
ag10
(g14
S'\xee|?\x15\x12+7A'
p50
tp51
Rp52
ag10
(g14
S'\x8fl\xe7\x1by,7A'
p53
tp54
Rp55
ag10
(g14
S'\x9e\xef\xa7&\xbe*7A'
p56
tp57
Rp58
ag10
(g14
S'$\\\x8f\x021+7A'
p59
tp60
Rp61
ag10
(g14
S'\xb4\xf3\xfd\xb4U+7A'
p62
tp63
Rp64
ag10
(g14
S'^d;\x7f\x80*7A'
p65
tp66
Rp67
ag10
(g14
S'\xe9Q\xb8~\xce*7A'
p68
tp69
Rp70
ag10
(g14
S'\xa8p=jv+7A'
p71
tp72
Rp73
ag10
(g14
S'\x0c\x02+\x07\x9e-7A'
p74
tp75
Rp76
asS'target'
p77
(lp78
g10
(g14
S'\xd9x\xe9&1X\\@'
p79
tp80
Rp81
ag10
(g14
S'\xe5\xd0"\xdb\xf9~^@'
p82
tp83
Rp84
ag10
(g14
S'\xc0t\x93\x18\x04n[@'
p85
tp86
Rp87
ag10
(g14
S'.3333\xcb[@'
p88
tp89
Rp90
ag10
(g14
S'b;\xdfO\x8d;_@'
p91
tp92
Rp93
ag10
(g14
S'\xf8\xd2Mb\x10\x18_@'
p94
tp95
Rp96
ag10
(g14
S'\x88\xc0\xca\xa1E\x1e_@'
p97
tp98
Rp99
ag10
(g14
S'\x17\x83\xc0\xca\xa1\xfd]@'
p100
tp101
Rp102
ag10
(g14
S'd\xe5\xd0"\xdb\xb9\\@'
p103
tp104
Rp105
ag10
(g14
S'L7\x89A`\xe1^@'
p106
tp107
Rp108
ag10
(g14
S'\xb0I\x0c\x02+\x9b]@'
p109
tp110
Rp111
ag10
(g14
S'gffff(`@'
p112
tp113
Rp114
ag10
(g14
S'&Zd;\xdf\xe3^@'
p115
tp116
Rp117
ag10
(g14
S'\xe9Q\xb8\x1e\x85\xff^@'
p118
tp119
Rp120
ag10
(g14
S'\xfe\xff\xff\xff\xff\x0f\\@'
p121
tp122
Rp123
ag10
(g14
S'\xd6x\xe9&1\xc0^@'
p124
tp125
Rp126
ag10
(g14
S'\xde\xa3p=\n\xef^@'
p127
tp128
Rp129
ag10
(g14
S'\xb0\xf3\xfd\xd4xA]@'
p130
tp131
Rp132
ag10
(g14
S']\x0e-\xb2\x9d__@'
p133
tp134
Rp135
ag10
(g14
S',\xdd$\x06\x81M^@'
p136
tp137
Rp138
asssss.