(dp0
S'../Data/sqlite_51.csv'
p1
(dp2
S'../Data/sqlite_63.csv'
p3
(dp4
F0.1
(dp5
S'mmre'
p6
(dp7
S'bellwether'
p8
(lp9
cnumpy.core.multiarray
scalar
p10
(cnumpy
dtype
p11
(S'f8'
p12
I0
I1
tp13
Rp14
(I3
S'<'
p15
NNNI-1
I-1
I0
tp16
bS'\xfcJ\xa8\xfbTiW@'
p17
tp18
Rp19
ag10
(g14
S'O\x01&\xb4\x11iW@'
p20
tp21
Rp22
ag10
(g14
S'\x14a<?oiW@'
p23
tp24
Rp25
ag10
(g14
S'z!\xaaq\x96iW@'
p26
tp27
Rp28
ag10
(g14
S'\x0278\xf9\xd4hW@'
p29
tp30
Rp31
ag10
(g14
S'\xee\xec\x90\xdd\xffiW@'
p32
tp33
Rp34
ag10
(g14
S'\x81uQL\x8biW@'
p35
tp36
Rp37
ag10
(g14
S'5kI\x02SiW@'
p38
tp39
Rp40
ag10
(g14
S'<\xa8\xf7\xfb\x17iW@'
p41
tp42
Rp43
ag10
(g14
S'B]D\r\xe9hW@'
p44
tp45
Rp46
ag10
(g14
S'\xaac\xb8\xf7RiW@'
p47
tp48
Rp49
ag10
(g14
S'\x83n&\xf8<iW@'
p50
tp51
Rp52
ag10
(g14
S'\xa7\xac\xb5\xc2\x1biW@'
p53
tp54
Rp55
ag10
(g14
S'"_B\xaaLiW@'
p56
tp57
Rp58
ag10
(g14
S'\\\x0b\x17a\xf3hW@'
p59
tp60
Rp61
ag10
(g14
S'%L\xb2\xf0)iW@'
p62
tp63
Rp64
ag10
(g14
S'p\x95, \x8eiW@'
p65
tp66
Rp67
ag10
(g14
S'i\xa6\xe21\xdfhW@'
p68
tp69
Rp70
ag10
(g14
S'\x19^\x15l[iW@'
p71
tp72
Rp73
ag10
(g14
S'\x19\xf9U\x13\xdahW@'
p74
tp75
Rp76
asS'target'
p77
(lp78
g10
(g14
S'V_=az\x00#@'
p79
tp80
Rp81
ag10
(g14
S'5\xe3}\x8d\xbc\xe5#@'
p82
tp83
Rp84
ag10
(g14
S' \x03\xaa\xcb\xb7\x8f$@'
p85
tp86
Rp87
ag10
(g14
S'\x83(@\xefh\xdb!@'
p88
tp89
Rp90
ag10
(g14
S'\x0b\x92/\x9a\xbd\xca"@'
p91
tp92
Rp93
ag10
(g14
S'b\xad\xaf\x19\x03\xa2!@'
p94
tp95
Rp96
ag10
(g14
S'\x04\xf9$3\xa9%"@'
p97
tp98
Rp99
ag10
(g14
S'\xb3\xcc\xd4\xab\xf3\xf7!@'
p100
tp101
Rp102
ag10
(g14
S'y\xfd\x1ecQ\xcd"@'
p103
tp104
Rp105
ag10
(g14
S'\xa5\xe92)M4%@'
p106
tp107
Rp108
ag10
(g14
S'\xa7\xddM\x0b\x0c4#@'
p109
tp110
Rp111
ag10
(g14
S'p\x1c\xeb\xab\xcf=#@'
p112
tp113
Rp114
ag10
(g14
S'`\x94u\xbc\xc8D"@'
p115
tp116
Rp117
ag10
(g14
S'\x8c\x19h\x91\x0e\x06"@'
p118
tp119
Rp120
ag10
(g14
S'\n\n\x9f\xb6\x80\x08#@'
p121
tp122
Rp123
ag10
(g14
S'\xcaVSYGp"@'
p124
tp125
Rp126
ag10
(g14
S'\xb1\x94\x1c\x9fc\x8f$@'
p127
tp128
Rp129
ag10
(g14
S'b\x17\xcfV2\xe3#@'
p130
tp131
Rp132
ag10
(g14
S'\x9b\x00\xb4\xa9\xaaU#@'
p133
tp134
Rp135
ag10
(g14
S'\x19\x81K\xd7\xb9\xc8!@'
p136
tp137
Rp138
asssss.