(dp0
S'../Data/sqlite_66.csv'
p1
(dp2
S'../Data/sqlite_83.csv'
p3
(dp4
F0.05
(dp5
S'abs_res'
p6
(dp7
S'bellwether'
p8
(lp9
cnumpy.core.multiarray
scalar
p10
(cnumpy
dtype
p11
(S'f8'
p12
I0
I1
tp13
Rp14
(I3
S'<'
p15
NNNI-1
I-1
I0
tp16
bS'\xd7\xce\xf7\x93%Z"A'
p17
tp18
Rp19
ag10
(g14
S'\x04\xd5xi:Z"A'
p20
tp21
Rp22
ag10
(g14
S'\x80j\xbctmZ"A'
p23
tp24
Rp25
ag10
(g14
S'\x83\xc0\xca\xe1\x86Z"A'
p26
tp27
Rp28
ag10
(g14
S'@DD\xc4\'Z"A'
p29
tp30
Rp31
ag10
(g14
S'\x91\x97n\x12\xd9Y"A'
p32
tp33
Rp34
ag10
(g14
S'G\x8bl\'\xaaZ"A'
p35
tp36
Rp37
ag10
(g14
S'[\x10X97Z"A'
p38
tp39
Rp40
ag10
(g14
S'\xafrh\xd1\xbcY"A'
p41
tp42
Rp43
ag10
(g14
S'\x0f\x11\x11\x117Z"A'
p44
tp45
Rp46
ag10
(g14
S'\\ff&\xdaY"A'
p47
tp48
Rp49
ag10
(g14
S'\xcaK7\x89:Z"A'
p50
tp51
Rp52
ag10
(g14
S'gff\xe6\x18Z"A'
p53
tp54
Rp55
ag10
(g14
S'P\xb8\x1eE\\Z"A'
p56
tp57
Rp58
ag10
(g14
S'\xe0O\x8d\x97\xe4Y"A'
p59
tp60
Rp61
ag10
(g14
S'\xb6\x1e\x85+AY"A'
p62
tp63
Rp64
ag10
(g14
S'\x9d\'\xea\x9f\xe7Y"A'
p65
tp66
Rp67
ag10
(g14
S'Y9\xb4\x08aZ"A'
p68
tp69
Rp70
ag10
(g14
S'\x0eX9t\x95Z"A'
p71
tp72
Rp73
ag10
(g14
S'&\xbfX2\x08Z"A'
p74
tp75
Rp76
asS'target'
p77
(lp78
g10
(g14
S'L\x8d\x97n\x92`\x91@'
p79
tp80
Rp81
ag10
(g14
S'R\x8bl\xe7\xfb\x1d\x7f@'
p82
tp83
Rp84
ag10
(g14
S'\xb4I\x0c\x02+\x0e\x80@'
p85
tp86
Rp87
ag10
(g14
S'\x9b\xef\xa7\xc6K\xb6\x83@'
p88
tp89
Rp90
ag10
(g14
S'\xf7~j\xbctA}@'
p91
tp92
Rp93
ag10
(g14
S'B\x8bl\xe7\xfb!x@'
p94
tp95
Rp96
ag10
(g14
S'\xa6E\xb6\xf3\xfd\n|@'
p97
tp98
Rp99
ag10
(g14
S'j\xbaI\x0c\x02\tx@'
p100
tp101
Rp102
ag10
(g14
S'\x16T\xe3\xa5\x9b\xce{@'
p103
tp104
Rp105
ag10
(g14
S'\xf5~j\xbct\x8d\x81@'
p106
tp107
Rp108
ag10
(g14
S'O\n\xd7\xa3p\xc9y@'
p109
tp110
Rp111
ag10
(g14
S'\xe8\xce\xf7S\xe3G\x8e@'
p112
tp113
Rp114
ag10
(g14
S'%\x87\x16\xd9\x8e\x0f\xa1@'
p115
tp116
Rp117
ag10
(g14
S'\x99\xc4 \xb0r\x10{@'
p118
tp119
Rp120
ag10
(g14
S'ph\x91\xed|\x97z@'
p121
tp122
Rp123
ag10
(g14
S'\x1e/\xdd$\x06\xcbx@'
p124
tp125
Rp126
ag10
(g14
S'\xc6\xf3\xfd\xd4xmz@'
p127
tp128
Rp129
ag10
(g14
S'+\xdb\xf9~j\x86x@'
p130
tp131
Rp132
ag10
(g14
S'\xab\x18\x04V\x0e5|@'
p133
tp134
Rp135
ag10
(g14
S'\x0f\xd3Mb\x10z|@'
p136
tp137
Rp138
asssss.