(dp0
S'../Data/sqlite_10.csv'
p1
(dp2
S'../Data/sqlite_94.csv'
p3
(dp4
F0.05
(dp5
S'mmre'
p6
(dp7
S'bellwether'
p8
(lp9
cnumpy.core.multiarray
scalar
p10
(cnumpy
dtype
p11
(S'f8'
p12
I0
I1
tp13
Rp14
(I3
S'<'
p15
NNNI-1
I-1
I0
tp16
bS']r\xdcp\x82W4@'
p17
tp18
Rp19
ag10
(g14
S'\xea\xcc>\xde\xe774@'
p20
tp21
Rp22
ag10
(g14
S'oF\x17\n\xf394@'
p23
tp24
Rp25
ag10
(g14
S'%u6H\xacc4@'
p26
tp27
Rp28
ag10
(g14
S'/\n\xbeX\xf8e4@'
p29
tp30
Rp31
ag10
(g14
S'#\x0f\xb8\xfc\xcd(4@'
p32
tp33
Rp34
ag10
(g14
S'$\xd0\xc3\x83JJ4@'
p35
tp36
Rp37
ag10
(g14
S'\xd6\x96\xfe\xa8%e4@'
p38
tp39
Rp40
ag10
(g14
S'\nP\x0f\xdb\xb4D4@'
p41
tp42
Rp43
ag10
(g14
S'\xde5,i\xbf\xa84@'
p44
tp45
Rp46
ag10
(g14
S'\x13\xa4\x93\xe8\xcd\x7f4@'
p47
tp48
Rp49
ag10
(g14
S'%\xa3U\xa2\xd1r4@'
p50
tp51
Rp52
ag10
(g14
S'\xacQ\\*c44@'
p53
tp54
Rp55
ag10
(g14
S'lAgnr|4@'
p56
tp57
Rp58
ag10
(g14
S'dV\xf2\x7f\x03H4@'
p59
tp60
Rp61
ag10
(g14
S'+\x80kTZd4@'
p62
tp63
Rp64
ag10
(g14
S'\xb0\xf0\xc7\x15\x16\x0c4@'
p65
tp66
Rp67
ag10
(g14
S'\xe7|\xa4W\xbb>4@'
p68
tp69
Rp70
ag10
(g14
S'\xf4\xe5\x17\xefCK4@'
p71
tp72
Rp73
ag10
(g14
S'\xe67\xdf,\xb4Q4@'
p74
tp75
Rp76
asS'target'
p77
(lp78
g10
(g14
S'\xf7zV\xf8\xd6\xf1A@'
p79
tp80
Rp81
ag10
(g14
S'\xd9\x15E\x1e\xfb,H@'
p82
tp83
Rp84
ag10
(g14
S'\xf9\xb4\xa7\x84"\xa9V@'
p85
tp86
Rp87
ag10
(g14
S'\x91,\x7f%\xd3cH@'
p88
tp89
Rp90
ag10
(g14
S'\xdd\xca\x9c\xce\xaf\xaeP@'
p91
tp92
Rp93
ag10
(g14
S'\x91\x8e(ZxeO@'
p94
tp95
Rp96
ag10
(g14
S'\xeb\xca\x084\xca\ta@'
p97
tp98
Rp99
ag10
(g14
S'\xf7H:Z\xc7,R@'
p100
tp101
Rp102
ag10
(g14
S'\x96z\xaa\xf6\xf7XS@'
p103
tp104
Rp105
ag10
(g14
S'\xb1!\x92\xce\xff\x02V@'
p106
tp107
Rp108
ag10
(g14
S'\xab\xc77o\xa4\xda?@'
p109
tp110
Rp111
ag10
(g14
S'\x06\xb6:\xeb\xc0\x96T@'
p112
tp113
Rp114
ag10
(g14
S'\x92Z=\x9d;\x84U@'
p115
tp116
Rp117
ag10
(g14
S'\x99S\xc7\x993\x0bA@'
p118
tp119
Rp120
ag10
(g14
S'\xae/,\xf6.:T@'
p121
tp122
Rp123
ag10
(g14
S'T\x85,\x01/\xefT@'
p124
tp125
Rp126
ag10
(g14
S'\xe0\x9b\x91V\xac3R@'
p127
tp128
Rp129
ag10
(g14
S'`\xe9\x1ad\x1c\x17Q@'
p130
tp131
Rp132
ag10
(g14
S'Hj\x12\x89|8R@'
p133
tp134
Rp135
ag10
(g14
S'\xe7\xdd\x88\x9fG\x1dB@'
p136
tp137
Rp138
asssss.