(dp0
S'../Data/sqlite_93.csv'
p1
(dp2
S'../Data/sqlite_90.csv'
p3
(dp4
F0.25
(dp5
S'mmre'
p6
(dp7
S'bellwether'
p8
(lp9
cnumpy.core.multiarray
scalar
p10
(cnumpy
dtype
p11
(S'f8'
p12
I0
I1
tp13
Rp14
(I3
S'<'
p15
NNNI-1
I-1
I0
tp16
bS'\x06\x13\x9b\xa4\xe6sX@'
p17
tp18
Rp19
ag10
(g14
S'\xf5\xd5NODyX@'
p20
tp21
Rp22
ag10
(g14
S'\xca\xe7H\xe9vzX@'
p23
tp24
Rp25
ag10
(g14
S'\xd5^\x8d\xbe\xe0wX@'
p26
tp27
Rp28
ag10
(g14
S'CXl\x03\xbfvX@'
p29
tp30
Rp31
ag10
(g14
S'm\xc1\xe5T"{X@'
p32
tp33
Rp34
ag10
(g14
S':\xa1\xedf)xX@'
p35
tp36
Rp37
ag10
(g14
S'\xd2\x06\r\x93\xbevX@'
p38
tp39
Rp40
ag10
(g14
S'\xcfD\xbb\x9fEuX@'
p41
tp42
Rp43
ag10
(g14
S'W\xe4;bjvX@'
p44
tp45
Rp46
ag10
(g14
S'\t?:\xd0\xd9tX@'
p47
tp48
Rp49
ag10
(g14
S'\x07\xc9\x95}QwX@'
p50
tp51
Rp52
ag10
(g14
S'\xe9\xb4\x9egRzX@'
p53
tp54
Rp55
ag10
(g14
S'\x1c<\xd4\xae8wX@'
p56
tp57
Rp58
ag10
(g14
S'\xe7\x1f\xd40\x10{X@'
p59
tp60
Rp61
ag10
(g14
S'w\x8b?},yX@'
p62
tp63
Rp64
ag10
(g14
S'k\x9c\xec\x92\xa7zX@'
p65
tp66
Rp67
ag10
(g14
S'T\x84\x17\x8a\xe9yX@'
p68
tp69
Rp70
ag10
(g14
S'\x89c\xca\xe0\xd3zX@'
p71
tp72
Rp73
ag10
(g14
S'\x16\x06\x98\xa6CsX@'
p74
tp75
Rp76
asS'target'
p77
(lp78
g10
(g14
S'\xf6X\x19\xe3\xebAB@'
p79
tp80
Rp81
ag10
(g14
S');\xd1\xc3\xfd\xf4A@'
p82
tp83
Rp84
ag10
(g14
S'#\xe9\x1a\xc47vA@'
p85
tp86
Rp87
ag10
(g14
S't\xf8\x1e\xa30\xd1@@'
p88
tp89
Rp90
ag10
(g14
S'"\xc4.\x07\x97HB@'
p91
tp92
Rp93
ag10
(g14
S'htwef6D@'
p94
tp95
Rp96
ag10
(g14
S'\x05<\x1b\x14gRB@'
p97
tp98
Rp99
ag10
(g14
S'zH\x88\xf1\x80\x0eC@'
p100
tp101
Rp102
ag10
(g14
S'\r\x8bS\x97\xb5\x0eA@'
p103
tp104
Rp105
ag10
(g14
S'\xf1(\xc9U\x83\rC@'
p106
tp107
Rp108
ag10
(g14
S'\x06\x8f\x9c`\xfb\xc7A@'
p109
tp110
Rp111
ag10
(g14
S'\xe3<\xf6\xea\xa2^A@'
p112
tp113
Rp114
ag10
(g14
S'M\xbb\x13A\xc8!C@'
p115
tp116
Rp117
ag10
(g14
S'\xadJ\x1f\xcbU @@'
p118
tp119
Rp120
ag10
(g14
S'\x95\xb4\xee\xdbp\xd9@@'
p121
tp122
Rp123
ag10
(g14
S'\x08\xe80WO\xaeA@'
p124
tp125
Rp126
ag10
(g14
S'\xd1\xb4l\x8b\xb1hA@'
p127
tp128
Rp129
ag10
(g14
S'\xbfS\xa4\xef>\xb4C@'
p130
tp131
Rp132
ag10
(g14
S'\xd7\x98Zk\x9d\rA@'
p133
tp134
Rp135
ag10
(g14
S'\xf0`J\xd2\xdb\xb3B@'
p136
tp137
Rp138
asssss.