(dp0
S'../Data/sqlite_4.csv'
p1
(dp2
S'../Data/sqlite_0.csv'
p3
(dp4
F0.25
(dp5
S'abs_res'
p6
(dp7
S'bellwether'
p8
(lp9
cnumpy.core.multiarray
scalar
p10
(cnumpy
dtype
p11
(S'f8'
p12
I0
I1
tp13
Rp14
(I3
S'<'
p15
NNNI-1
I-1
I0
tp16
bS'\xb5rh\xd1\n3=A'
p17
tp18
Rp19
ag10
(g14
S'3z[\xb6\xa72=A'
p20
tp21
Rp22
ag10
(g14
S'_W\x80\xdc\x011=A'
p23
tp24
Rp25
ag10
(g14
S'\x11ISJ)1=A'
p26
tp27
Rp28
ag10
(g14
S'\xbeI\x0c":2=A'
p29
tp30
Rp31
ag10
(g14
S'-1\x08\x0c`2=A'
p32
tp33
Rp34
ag10
(g14
S'`\x8f\xc2\xf5\t4=A'
p35
tp36
Rp37
ag10
(g14
S'w\x91\xed\xbc\x963=A'
p38
tp39
Rp40
ag10
(g14
S'\xa0\xb7e\xed\x801=A'
p41
tp42
Rp43
ag10
(g14
S'{j\xbc4p/=A'
p44
tp45
Rp46
ag10
(g14
S'\xb1:&\xd8b0=A'
p47
tp48
Rp49
ag10
(g14
S'\xe5mY\x0bJ0=A'
p50
tp51
Rp52
ag10
(g14
S'@|\x86\x9d\xda0=A'
p53
tp54
Rp55
ag10
(g14
S'2\xdb\xf9^\xfd0=A'
p56
tp57
Rp58
ag10
(g14
S'\xc4\xca\xa1\x05F3=A'
p59
tp60
Rp61
ag10
(g14
S'F\xee5\x97\xb01=A'
p62
tp63
Rp64
ag10
(g14
S'\xcf\xe8m\x99n2=A'
p65
tp66
Rp67
ag10
(g14
S'h\xa0\xd3\xc6^0=A'
p68
tp69
Rp70
ag10
(g14
S'\xeb&1\xc8\xdd3=A'
p71
tp72
Rp73
ag10
(g14
S'\xa5aW`c1=A'
p74
tp75
Rp76
asS'target'
p77
(lp78
g10
(g14
S'\xd2\xf7S\xe3\xa5\x13c@'
p79
tp80
Rp81
ag10
(g14
S'Tb\x10X98f@'
p82
tp83
Rp84
ag10
(g14
S'\xa5p=\n\xd7\x85e@'
p85
tp86
Rp87
ag10
(g14
S'O\x0e-\xb2\x9d\x17e@'
p88
tp89
Rp90
ag10
(g14
S'\xccK7\x89A\x9ec@'
p91
tp92
Rp93
ag10
(g14
S'r=\n\xd7\xa3"e@'
p94
tp95
Rp96
ag10
(g14
S'\xa9\xc4 \xb0r\xd8b@'
p97
tp98
Rp99
ag10
(g14
S'\r\x02+\x87\x16\xfbd@'
p100
tp101
Rp102
ag10
(g14
S'\xfe*\x87\x16\xd9\x06d@'
p103
tp104
Rp105
ag10
(g14
S'\xff\xd4x\xe9&uc@'
p106
tp107
Rp108
ag10
(g14
S'\xc7v\xbe\x9f\x1a\xd7c@'
p109
tp110
Rp111
ag10
(g14
S'\x90\x18\x04V\x0e\xa9c@'
p112
tp113
Rp114
ag10
(g14
S'\x8bl\xe7\xfb\xa9\xf1c@'
p115
tp116
Rp117
ag10
(g14
S'\xe2$\x06\x81\x951d@'
p118
tp119
Rp120
ag10
(g14
S'K\xb6\xf3\xfd\xd4\xa6d@'
p121
tp122
Rp123
ag10
(g14
S'Z\x8f\xc2\xf5(\x1ad@'
p124
tp125
Rp126
ag10
(g14
S'`\x10X9\xb44f@'
p127
tp128
Rp129
ag10
(g14
S'\xea\xa5\x9b\xc4 \x94d@'
p130
tp131
Rp132
ag10
(g14
S'>5^\xbaI\xb8b@'
p133
tp134
Rp135
ag10
(g14
S'2\xdd$\x06\x81Yb@'
p136
tp137
Rp138
asssss.