(dp0
S'../Data/sqlite_58.csv'
p1
(dp2
S'../Data/sqlite_68.csv'
p3
(dp4
F0.15
(dp5
S'mmre'
p6
(dp7
S'bellwether'
p8
(lp9
cnumpy.core.multiarray
scalar
p10
(cnumpy
dtype
p11
(S'f8'
p12
I0
I1
tp13
Rp14
(I3
S'<'
p15
NNNI-1
I-1
I0
tp16
bS'U+\\\rR[W@'
p17
tp18
Rp19
ag10
(g14
S'\xf1id$\xf0[W@'
p20
tp21
Rp22
ag10
(g14
S'\x99\xc5\\\xd3\xb0[W@'
p23
tp24
Rp25
ag10
(g14
S'\x00Zu\xb6\xee[W@'
p26
tp27
Rp28
ag10
(g14
S'\xf43\x8eE&[W@'
p29
tp30
Rp31
ag10
(g14
S'\xd3\xfafYD\\W@'
p32
tp33
Rp34
ag10
(g14
S' F\x86\x8c\xe9[W@'
p35
tp36
Rp37
ag10
(g14
S'\xbd\xbdS?\t\\W@'
p38
tp39
Rp40
ag10
(g14
S'*\xabZO8\\W@'
p41
tp42
Rp43
ag10
(g14
S'\x88\xc2\x0bi\x05]W@'
p44
tp45
Rp46
ag10
(g14
S'\xa6\x8b\xcc\x83T[W@'
p47
tp48
Rp49
ag10
(g14
S'\xd0\xdd\xe4\x1d\xcc[W@'
p50
tp51
Rp52
ag10
(g14
S'<\x14\x8d\x98\x9c[W@'
p53
tp54
Rp55
ag10
(g14
S',\xba+5Q[W@'
p56
tp57
Rp58
ag10
(g14
S'tp\xfa?s\\W@'
p59
tp60
Rp61
ag10
(g14
S'\xddcj\xa3\xeb[W@'
p62
tp63
Rp64
ag10
(g14
S'L\x00mwZ[W@'
p65
tp66
Rp67
ag10
(g14
S'mfyY\xb1[W@'
p68
tp69
Rp70
ag10
(g14
S'\xa7\\\x91\x0eL[W@'
p71
tp72
Rp73
ag10
(g14
S'\x84o\xb5\xaf\x02\\W@'
p74
tp75
Rp76
asS'target'
p77
(lp78
g10
(g14
S'\xc9mDZ-\x08\xf0?'
p79
tp80
Rp81
ag10
(g14
S'\xf8%\xcf\x1cn\x97\xf0?'
p82
tp83
Rp84
ag10
(g14
S'j\x17\xba\x91\x01D\xf3?'
p85
tp86
Rp87
ag10
(g14
S'\x9fD\xb1\x9a\xf9\xbd\xf0?'
p88
tp89
Rp90
ag10
(g14
S'\x91;\xa7t\x02D\xf2?'
p91
tp92
Rp93
ag10
(g14
S'\xf1\x94;sL>\xf1?'
p94
tp95
Rp96
ag10
(g14
S'7\xa6D\xb33B\xf4?'
p97
tp98
Rp99
ag10
(g14
S'\x922O[r\xd8\xef?'
p100
tp101
Rp102
ag10
(g14
S'f\xb9G\xf6T>\xf0?'
p103
tp104
Rp105
ag10
(g14
S'r\xbfv\xd5}\xb9\xf2?'
p106
tp107
Rp108
ag10
(g14
S'Bx\xaf7\x18@\xf2?'
p109
tp110
Rp111
ag10
(g14
S':\xad<\xb2\x00K\xf2?'
p112
tp113
Rp114
ag10
(g14
S'\xeb\x07U1\x88^\xf4?'
p115
tp116
Rp117
ag10
(g14
S'i\xd3h\xacf\x90\xf1?'
p118
tp119
Rp120
ag10
(g14
S'\xa8\xb5\xa0i\xc15\xf2?'
p121
tp122
Rp123
ag10
(g14
S'\xaaez\xb0\xf1\xf0\xf3?'
p124
tp125
Rp126
ag10
(g14
S'\xc9\x9a\xb0\r\x80\x04\xf0?'
p127
tp128
Rp129
ag10
(g14
S'\xcc\xa9\xfd\x01O[\xf3?'
p130
tp131
Rp132
ag10
(g14
S'\x92\x8e\xba H\x88\xf2?'
p133
tp134
Rp135
ag10
(g14
S'>M\xdb@\xfb4\xf3?'
p136
tp137
Rp138
asssss.