(dp0
S'../Data/sqlite_57.csv'
p1
(dp2
S'../Data/sqlite_64.csv'
p3
(dp4
F0.3
(dp5
S'abs_res'
p6
(dp7
S'bellwether'
p8
(lp9
cnumpy.core.multiarray
scalar
p10
(cnumpy
dtype
p11
(S'f8'
p12
I0
I1
tp13
Rp14
(I3
S'<'
p15
NNNI-1
I-1
I0
tp16
bS'|\x14\xaeW\x18jdA'
p17
tp18
Rp19
ag10
(g14
S'\xbe\x9f\x1a\x93:UdA'
p20
tp21
Rp22
ag10
(g14
S'cffB\xf7cdA'
p23
tp24
Rp25
ag10
(g14
S'\xf3\xd2M\x82\xc4^dA'
p26
tp27
Rp28
ag10
(g14
S'\x98\x18\x04:bXdA'
p29
tp30
Rp31
ag10
(g14
S'\xebz\x14\xd2\x02^dA'
p32
tp33
Rp34
ag10
(g14
S'zh\x91\xfd]fdA'
p35
tp36
Rp37
ag10
(g14
S'\xbc\x1e\x85\x13\xb8`dA'
p38
tp39
Rp40
ag10
(g14
S'r\xe7\xfb\xf9JUdA'
p41
tp42
Rp43
ag10
(g14
S'v\xbe\x9f&+]dA'
p44
tp45
Rp46
ag10
(g14
S'p\xe7\xfb\xcd\xfdTdA'
p47
tp48
Rp49
ag10
(g14
S'\x81j\xbct\x04WdA'
p50
tp51
Rp52
ag10
(g14
S'\xd1\xcc\xcct\x15_dA'
p53
tp54
Rp55
ag10
(g14
S'D\xb6\xf3i\xc2fdA'
p56
tp57
Rp58
ag10
(g14
S'0\x08\xac\x80EfdA'
p59
tp60
Rp61
ag10
(g14
S'\xd7x\xe92,cdA'
p62
tp63
Rp64
ag10
(g14
S'\xc9 \xb0\x1a1[dA'
p65
tp66
Rp67
ag10
(g14
S'd;\xdf\x8f\rZdA'
p68
tp69
Rp70
ag10
(g14
S'\xfe~j\x88\xf4WdA'
p71
tp72
Rp73
ag10
(g14
S'\xddz\x14\xbaCddA'
p74
tp75
Rp76
asS'target'
p77
(lp78
g10
(g14
S'A5^\xbaI\xdar@'
p79
tp80
Rp81
ag10
(g14
S'\x8f\x97n\x12\x83\x01t@'
p82
tp83
Rp84
ag10
(g14
S'8\x89A`\xe5\xe9v@'
p85
tp86
Rp87
ag10
(g14
S'\x0b\x02+\x87\x16\xa0t@'
p88
tp89
Rp90
ag10
(g14
S'y\xe9&1\x08;r@'
p91
tp92
Rp93
ag10
(g14
S'?5^\xbaI\x90s@'
p94
tp95
Rp96
ag10
(g14
S'\xbd\xf5(\\\x8f\xddt@'
p97
tp98
Rp99
ag10
(g14
S'\x0c\x9faW\x809t@'
p100
tp101
Rp102
ag10
(g14
S']d;\xdfO\xc5s@'
p103
tp104
Rp105
ag10
(g14
S'\xdd$\x06\x81\x95\xa3u@'
p106
tp107
Rp108
ag10
(g14
S'\xd2x\xe9&1vs@'
p109
tp110
Rp111
ag10
(g14
S'\x96\x18\x04V\x0e\x83s@'
p112
tp113
Rp114
ag10
(g14
S'\xdfO\x8d\x97n\xcat@'
p115
tp116
Rp117
ag10
(g14
S'oh\x91\xed|\x07t@'
p118
tp119
Rp120
ag10
(g14
S'p\x12\x83\xc0\xcavt@'
p121
tp122
Rp123
ag10
(g14
S'3\x08\xac\x1cZ\x8dr@'
p124
tp125
Rp126
ag10
(g14
S'\x1f\\\x8f\xc2\xf5\xccu@'
p127
tp128
Rp129
ag10
(g14
S'\xd3Mb\x10X\xefr@'
p130
tp131
Rp132
ag10
(g14
S'\x1e/\xdd$\x06\x0et@'
p133
tp134
Rp135
ag10
(g14
S'\x16Zd;\xdfQv@'
p136
tp137
Rp138
asssss.