(dp0
S'../Data/sqlite_33.csv'
p1
(dp2
S'../Data/sqlite_96.csv'
p3
(dp4
F0.4
(dp5
S'mmre'
p6
(dp7
S'bellwether'
p8
(lp9
cnumpy.core.multiarray
scalar
p10
(cnumpy
dtype
p11
(S'f8'
p12
I0
I1
tp13
Rp14
(I3
S'<'
p15
NNNI-1
I-1
I0
tp16
bS'\xc2\xc3\xe6_h?U@'
p17
tp18
Rp19
ag10
(g14
S'z\xd38%d:U@'
p20
tp21
Rp22
ag10
(g14
S'\x8f\x1b\x0b-\x98?U@'
p23
tp24
Rp25
ag10
(g14
S'\xd3b\x9f\xd6\x1f<U@'
p26
tp27
Rp28
ag10
(g14
S'>\x03\xce\xb5\xa7PU@'
p29
tp30
Rp31
ag10
(g14
S'\xea)\x13\x18\xec=U@'
p32
tp33
Rp34
ag10
(g14
S'9\xb3\x7f\xfcm@U@'
p35
tp36
Rp37
ag10
(g14
S'l\xfdH\x96\x8fAU@'
p38
tp39
Rp40
ag10
(g14
S'\x97\\\x03\x8a~9U@'
p41
tp42
Rp43
ag10
(g14
S'\xd2\x92I\xc93IU@'
p44
tp45
Rp46
ag10
(g14
S'\x89\x8dV\x99\xf3@U@'
p47
tp48
Rp49
ag10
(g14
S'\t\xc4\xb6\x9e\xcd6U@'
p50
tp51
Rp52
ag10
(g14
S'b6\xd12\x077U@'
p53
tp54
Rp55
ag10
(g14
S'\xfb\xfcFw\x97BU@'
p56
tp57
Rp58
ag10
(g14
S'\xe3\xb5\xfd\xc128U@'
p59
tp60
Rp61
ag10
(g14
S'\x00!=\x0bt:U@'
p62
tp63
Rp64
ag10
(g14
S'O\xd4_\xaf\x14JU@'
p65
tp66
Rp67
ag10
(g14
S'\x18"E\xa1\xf95U@'
p68
tp69
Rp70
ag10
(g14
S'\x11\x17\x8a0\x8bEU@'
p71
tp72
Rp73
ag10
(g14
S'\xf51p\t\x80CU@'
p74
tp75
Rp76
asS'target'
p77
(lp78
g10
(g14
S' \xfd\xf1\xe6\xb2\xbbX@'
p79
tp80
Rp81
ag10
(g14
S'\xbb\xa6<mBiR@'
p82
tp83
Rp84
ag10
(g14
S'\xc6\x9c\x95\xc4\x9f\xfeT@'
p85
tp86
Rp87
ag10
(g14
S'\x98c^\x88\xc0\xfeU@'
p88
tp89
Rp90
ag10
(g14
S'\x10&p\xdd[]P@'
p91
tp92
Rp93
ag10
(g14
S'\xe9d\x9eG\x9a\xe2M@'
p94
tp95
Rp96
ag10
(g14
S'm\xcd\x04\xdf:\xfaO@'
p97
tp98
Rp99
ag10
(g14
S'\xc9-c\xf0d=S@'
p100
tp101
Rp102
ag10
(g14
S'\xf8\xfd\x15\xbaH\x89V@'
p103
tp104
Rp105
ag10
(g14
S'\\\xc1D\xc3\x9bKQ@'
p106
tp107
Rp108
ag10
(g14
S'_\xf2v\xb3tHS@'
p109
tp110
Rp111
ag10
(g14
S'L\x02\xd2\xd91/U@'
p112
tp113
Rp114
ag10
(g14
S'|\xc7\xd1.R\xdeV@'
p115
tp116
Rp117
ag10
(g14
S'\xdf\x90[O\x947S@'
p118
tp119
Rp120
ag10
(g14
S'\x82\x12@\x81\xb8\x15V@'
p121
tp122
Rp123
ag10
(g14
S'\x03\xbb_ \x08\xaaT@'
p124
tp125
Rp126
ag10
(g14
S'\xce6\xd2B\xe4/M@'
p127
tp128
Rp129
ag10
(g14
S'\xf19\xb16\x14\x82Y@'
p130
tp131
Rp132
ag10
(g14
S'\xb4;\xefd\x06&P@'
p133
tp134
Rp135
ag10
(g14
S'\x93.!:V\xd3E@'
p136
tp137
Rp138
asssss.