(dp0
S'../Data/sqlite_51.csv'
p1
(dp2
S'../Data/sqlite_63.csv'
p3
(dp4
F0.05
(dp5
S'mmre'
p6
(dp7
S'bellwether'
p8
(lp9
cnumpy.core.multiarray
scalar
p10
(cnumpy
dtype
p11
(S'f8'
p12
I0
I1
tp13
Rp14
(I3
S'<'
p15
NNNI-1
I-1
I0
tp16
bS"L-O\xb2'iW@"
p17
tp18
Rp19
ag10
(g14
S'\xe5\x7f\x11\xe6\xf6hW@'
p20
tp21
Rp22
ag10
(g14
S'I\xe1P\xcf:iW@'
p23
tp24
Rp25
ag10
(g14
S'lI\xdb\x80OiW@'
p26
tp27
Rp28
ag10
(g14
S'\xe5\xa0\xea\xbetiW@'
p29
tp30
Rp31
ag10
(g14
S'E\x05M\x06\x0biW@'
p32
tp33
Rp34
ag10
(g14
S'p\x0e\x8b\xd0\xb4iW@'
p35
tp36
Rp37
ag10
(g14
S'"Y\x8f\xe2ziW@'
p38
tp39
Rp40
ag10
(g14
S'\xe8\xf43;\xc9hW@'
p41
tp42
Rp43
ag10
(g14
S'O\r\xc7UMiW@'
p44
tp45
Rp46
ag10
(g14
S'Y\x1b\xc8\\yiW@'
p47
tp48
Rp49
ag10
(g14
S'\x01\xb4\xf5\x0e\niW@'
p50
tp51
Rp52
ag10
(g14
S'\x90s\xdb\x10\x1ciW@'
p53
tp54
Rp55
ag10
(g14
S'\xebl\xda/\x02iW@'
p56
tp57
Rp58
ag10
(g14
S'.\x9fl\x89qiW@'
p59
tp60
Rp61
ag10
(g14
S'\xa9\xf5l\xc1+iW@'
p62
tp63
Rp64
ag10
(g14
S'\xcf\x8fO_`iW@'
p65
tp66
Rp67
ag10
(g14
S'\x1e\xd1\r~\x92iW@'
p68
tp69
Rp70
ag10
(g14
S'\xe7\xa1*M\x92iW@'
p71
tp72
Rp73
ag10
(g14
S'\xcab\xa0R\x9fiW@'
p74
tp75
Rp76
asS'target'
p77
(lp78
g10
(g14
S'\xc1\x183\xc0\xae3"@'
p79
tp80
Rp81
ag10
(g14
S'\x95*\xd3\xee\xe3(%@'
p82
tp83
Rp84
ag10
(g14
S'\xc0n\xd1\xe0M\xa9!@'
p85
tp86
Rp87
ag10
(g14
S'|tH86\x9f"@'
p88
tp89
Rp90
ag10
(g14
S'x\xc8\xea\x08\x139!@'
p91
tp92
Rp93
ag10
(g14
S'\x9aB\xb4\x9c1\xc1"@'
p94
tp95
Rp96
ag10
(g14
S'$ C\xe7\x85\xa6 @'
p97
tp98
Rp99
ag10
(g14
S'\xc9\x9fc\xf0\xd0\x96#@'
p100
tp101
Rp102
ag10
(g14
S'6\xbe\xae\x87\xf7A#@'
p103
tp104
Rp105
ag10
(g14
S'\xd1\x1d\x1bL\xeaW!@'
p106
tp107
Rp108
ag10
(g14
S'\x17\x1fT\n\x90\xb7$@'
p109
tp110
Rp111
ag10
(g14
S'\xdb\x9c\x83\xc6\xd11 @'
p112
tp113
Rp114
ag10
(g14
S'<<\xad\x98\x9c\x8c"@'
p115
tp116
Rp117
ag10
(g14
S'\x0c\x9b\x01\xc6.\x91#@'
p118
tp119
Rp120
ag10
(g14
S'<\x99\xa5\xeb\xf4\x9a!@'
p121
tp122
Rp123
ag10
(g14
S'=\x8e\xbc\xf4\x06m#@'
p124
tp125
Rp126
ag10
(g14
S'\xa7Q\\]\xb6\x00!@'
p127
tp128
Rp129
ag10
(g14
S'j\xd5U7^\t"@'
p130
tp131
Rp132
ag10
(g14
S'oh*K4\xac#@'
p133
tp134
Rp135
ag10
(g14
S'\x828\xee\xa1\x05\xb5$@'
p136
tp137
Rp138
asssss.