(dp0
S'../Data/sqlite_35.csv'
p1
(dp2
S'../Data/sqlite_84.csv'
p3
(dp4
F0.25
(dp5
S'mmre'
p6
(dp7
S'bellwether'
p8
(lp9
cnumpy.core.multiarray
scalar
p10
(cnumpy
dtype
p11
(S'f8'
p12
I0
I1
tp13
Rp14
(I3
S'<'
p15
NNNI-1
I-1
I0
tp16
bS'\tz\xc3;\xfc\x01C@'
p17
tp18
Rp19
ag10
(g14
S'\xaa\xa4y\x8f\xcf9C@'
p20
tp21
Rp22
ag10
(g14
S'Z\xd0bn\xccNC@'
p23
tp24
Rp25
ag10
(g14
S'\x89"I\xb7\x8fuC@'
p26
tp27
Rp28
ag10
(g14
S'8\x9b\x86\x15\xbdFC@'
p29
tp30
Rp31
ag10
(g14
S'$\x1b\xc5\xdd\x7f[C@'
p32
tp33
Rp34
ag10
(g14
S's\xbd\xb8\xb5<$C@'
p35
tp36
Rp37
ag10
(g14
S'\xa9nLx\x1c\xcaB@'
p38
tp39
Rp40
ag10
(g14
S'^MVA\xe1/C@'
p41
tp42
Rp43
ag10
(g14
S'+\x88\xc6e|AC@'
p44
tp45
Rp46
ag10
(g14
S'\xaa:!s\xb5/C@'
p47
tp48
Rp49
ag10
(g14
S'\xc52uC\xd6\xebB@'
p50
tp51
Rp52
ag10
(g14
S'@-z\xd0+\x93C@'
p53
tp54
Rp55
ag10
(g14
S'*\x948\xe8\xefGC@'
p56
tp57
Rp58
ag10
(g14
S'\x82u\x99\xfb\x0c\x15C@'
p59
tp60
Rp61
ag10
(g14
S'\xbe.\xbb|_6C@'
p62
tp63
Rp64
ag10
(g14
S'SU\x96>%MC@'
p65
tp66
Rp67
ag10
(g14
S'\x7f\x95"\xd21QC@'
p68
tp69
Rp70
ag10
(g14
S'G\xebC\xc5\x97\x0eC@'
p71
tp72
Rp73
ag10
(g14
S'\x17bb\xab\x0fiC@'
p74
tp75
Rp76
asS'target'
p77
(lp78
g10
(g14
S'~\xa3\xf9\x11\x07:W@'
p79
tp80
Rp81
ag10
(g14
S'\xee\t\xa3s\x91\xa9O@'
p82
tp83
Rp84
ag10
(g14
S'\xc7\xf7%3~\xb6Q@'
p85
tp86
Rp87
ag10
(g14
S'e\x00@\x89s\xf5Q@'
p88
tp89
Rp90
ag10
(g14
S'\xbd\x97\xfd3\xfc\x1aN@'
p91
tp92
Rp93
ag10
(g14
S'\xd8~5\xb8\x92\xffF@'
p94
tp95
Rp96
ag10
(g14
S'\x8ds^)\x077Y@'
p97
tp98
Rp99
ag10
(g14
S'W\xcc\xbbw`S[@'
p100
tp101
Rp102
ag10
(g14
S'\xf9r\xd6\x03\xdd\xaeQ@'
p103
tp104
Rp105
ag10
(g14
S'\x92\x14/\x9b\x0eWP@'
p106
tp107
Rp108
ag10
(g14
S'G\x9b\xf8\xc9\xc1\x19R@'
p109
tp110
Rp111
ag10
(g14
S'K.\xfa&,"T@'
p112
tp113
Rp114
ag10
(g14
S'\xc5\xaf\x0f\x0fC\x86Q@'
p115
tp116
Rp117
ag10
(g14
S'\xa6\xb6\xfaIN!P@'
p118
tp119
Rp120
ag10
(g14
S'\x9d\x055\xf7N\xd6M@'
p121
tp122
Rp123
ag10
(g14
S'\x18N\x196\xc6$E@'
p124
tp125
Rp126
ag10
(g14
S'd\xd7b\xeb\xf1\xd5I@'
p127
tp128
Rp129
ag10
(g14
S'\xbeM\xc6%\x04EG@'
p130
tp131
Rp132
ag10
(g14
S'k\x9e#\xfa\xf6\xf6Q@'
p133
tp134
Rp135
ag10
(g14
S'\xbc3\xeaL\x04\x84R@'
p136
tp137
Rp138
asssss.