(dp0
S'../Data/sqlite_95.csv'
p1
(dp2
S'../Data/sqlite_47.csv'
p3
(dp4
F0.25
(dp5
S'abs_res'
p6
(dp7
S'bellwether'
p8
(lp9
cnumpy.core.multiarray
scalar
p10
(cnumpy
dtype
p11
(S'f8'
p12
I0
I1
tp13
Rp14
(I3
S'<'
p15
NNNI-1
I-1
I0
tp16
bS'],\xf9\xc51\x1b6A'
p17
tp18
Rp19
ag10
(g14
S'7\xb2\x9dor;6A'
p20
tp21
Rp22
ag10
(g14
S'\xc0\xe6B\xf2f\xf35A'
p23
tp24
Rp25
ag10
(g14
S'\xb8\xd7\\\xc8\xed 6A'
p26
tp27
Rp28
ag10
(g14
S'\x06r\xaf\xb9D#6A'
p29
tp30
Rp31
ag10
(g14
S'h\x01r\x8f\xc6\xdc5A'
p32
tp33
Rp34
ag10
(g14
S'R*\xce> \x1a6A'
p35
tp36
Rp37
ag10
(g14
S'\xdfk.\xe4S=6A'
p38
tp39
Rp40
ag10
(g14
S'\xf6`\x9e\x88\xab"6A'
p41
tp42
Rp43
ag10
(g14
S'`d;\x1f:\x1a6A'
p44
tp45
Rp46
ag10
(g14
S'\x1c\x04Vn\x8aD6A'
p47
tp48
Rp49
ag10
(g14
S'\xf4\xfd\xd4Xx\x156A'
p50
tp51
Rp52
ag10
(g14
S')x0\xcf\xba\n6A'
p53
tp54
Rp55
ag10
(g14
S'8B\x19\xbd\x82\xfc5A'
p56
tp57
Rp58
ag10
(g14
S'Q~\xb1\xe4=\t6A'
p59
tp60
Rp61
ag10
(g14
S'\xb2\x904%\xd6\x156A'
p62
tp63
Rp64
ag10
(g14
S':\xa5\xe2\xccL\x166A'
p65
tp66
Rp67
ag10
(g14
S'S7\x89\x81\xd566A'
p68
tp69
Rp70
ag10
(g14
S'\xeb|?\x952\xfe5A'
p71
tp72
Rp73
ag10
(g14
S'\xc9\xbd\xe6\xe2~:6A'
p74
tp75
Rp76
asS'target'
p77
(lp78
g10
(g14
S'r\x93\x18\x04VfX@'
p79
tp80
Rp81
ag10
(g14
S'B5^\xbaI\x14X@'
p82
tp83
Rp84
ag10
(g14
S'\x1a/\xdd$\x06\xd1Y@'
p85
tp86
Rp87
ag10
(g14
S'8\xdfO\x8d\x97\xdeY@'
p88
tp89
Rp90
ag10
(g14
S'\xc4\xf7S\xe3\xa5kW@'
p91
tp92
Rp93
ag10
(g14
S'\x1a\x85\xebQ\xb8"U@'
p94
tp95
Rp96
ag10
(g14
S'm\x12\x83\xc0\xca\xc9Y@'
p97
tp98
Rp99
ag10
(g14
S'\xbfI\x0c\x02+\xd7W@'
p100
tp101
Rp102
ag10
(g14
S"'1\x08\xac\x1c&X@"
p103
tp104
Rp105
ag10
(g14
S'\xc9 \xb0rhAY@'
p106
tp107
Rp108
ag10
(g14
S'\xd4v\xbe\x9f\x1aKV@'
p109
tp110
Rp111
ag10
(g14
S'\x10-\xb2\x9d\xef?V@'
p112
tp113
Rp114
ag10
(g14
S'\xb3\xc8v\xbe\x9f\x1aV@'
p115
tp116
Rp117
ag10
(g14
S'dffff\xeeW@'
p118
tp119
Rp120
ag10
(g14
S'O\x0e-\xb2\x9d\x8fX@'
p121
tp122
Rp123
ag10
(g14
S'\xcdv\xbe\x9f\x1a\xdfV@'
p124
tp125
Rp126
ag10
(g14
S'iffffFX@'
p127
tp128
Rp129
ag10
(g14
S'v?5^\xba\xddW@'
p130
tp131
Rp132
ag10
(g14
S'\x8dl\xe7\xfb\xa9uW@'
p133
tp134
Rp135
ag10
(g14
S'@\xb6\xf3\xfd\xd4(_@'
p136
tp137
Rp138
asssss.