(dp0
S'../Data/sqlite_1.csv'
p1
(dp2
S'../Data/sqlite_5.csv'
p3
(dp4
F0.05
(dp5
S'abs_res'
p6
(dp7
S'bellwether'
p8
(lp9
cnumpy.core.multiarray
scalar
p10
(cnumpy
dtype
p11
(S'f8'
p12
I0
I1
tp13
Rp14
(I3
S'<'
p15
NNNI-1
I-1
I0
tp16
bS"\xa7p=\xca\xe0'BA"
p17
tp18
Rp19
ag10
(g14
S'+\xdb\xf9n\x17(BA'
p20
tp21
Rp22
ag10
(g14
S"\xd3x\xe9\xf6\xff'BA"
p23
tp24
Rp25
ag10
(g14
S'\xcb\xcc\xcc<N(BA'
p26
tp27
Rp28
ag10
(g14
S'T\xb8\x1eUs(BA'
p29
tp30
Rp31
ag10
(g14
S'{\xe9&\x11*(BA'
p32
tp33
Rp34
ag10
(g14
S'[\x0e-\x824(BA'
p35
tp36
Rp37
ag10
(g14
S'\xe2$\x06\x81Z(BA'
p38
tp39
Rp40
ag10
(g14
S"\xea\xfb\xa9\xc1\xf6'BA"
p41
tp42
Rp43
ag10
(g14
S'>\n\xd7\xc3\\(BA'
p44
tp45
Rp46
ag10
(g14
S'|\xbe\x9f\x1aA(BA'
p47
tp48
Rp49
ag10
(g14
S'\xd5Mb`$(BA'
p50
tp51
Rp52
ag10
(g14
S'\x06\x81\x953}(BA'
p53
tp54
Rp55
ag10
(g14
S"\x0eV\x0e\xdd\xf2'BA"
p56
tp57
Rp58
ag10
(g14
S'#\xdb\xf9\xcee(BA'
p59
tp60
Rp61
ag10
(g14
S'A\x8bl\xc75(BA'
p62
tp63
Rp64
ag10
(g14
S'u\xbe\x9fJH(BA'
p65
tp66
Rp67
ag10
(g14
S'\xb6\x1cZt\x1c(BA'
p68
tp69
Rp70
ag10
(g14
S'%\xf7\x9a\xcbu(BA'
p71
tp72
Rp73
ag10
(g14
S'z\xe7\xfbY\xcc(BA'
p74
tp75
Rp76
asS'target'
p77
(lp78
g10
(g14
S'\xb3I\x0c\x02+\xc7d@'
p79
tp80
Rp81
ag10
(g14
S'%1\x08\xac\x1c\xcae@'
p82
tp83
Rp84
ag10
(g14
S'\xb6rh\x91\xed\x08b@'
p85
tp86
Rp87
ag10
(g14
S'\xb8\x1cZd;Se@'
p88
tp89
Rp90
ag10
(g14
S'\x99C\x8bl\xe7Cb@'
p91
tp92
Rp93
ag10
(g14
S'\x0e\x04V\x0e->Z@'
p94
tp95
Rp96
ag10
(g14
S'F\xb6\xf3\xfd\xd4la@'
p97
tp98
Rp99
ag10
(g14
S'\x7f\xc0\xca\xa1E\x92b@'
p100
tp101
Rp102
ag10
(g14
S'c\xe5\xd0"\xdb9a@'
p103
tp104
Rp105
ag10
(g14
S'\x96\x9b\xc4 \xb0\x8a_@'
p106
tp107
Rp108
ag10
(g14
S'\xeb\xfb\xa9\xf1\xd21b@'
p109
tp110
Rp111
ag10
(g14
S'\xfe*\x87\x16\xd9f[@'
p112
tp113
Rp114
ag10
(g14
S'\x84\xbe\x9f\x1a/\xd5Y@'
p115
tp116
Rp117
ag10
(g14
S'^\xb8\x1e\x85\xeb\xb1a@'
p118
tp119
Rp120
ag10
(g14
S'i\xbct\x93\x18\xcc\\@'
p121
tp122
Rp123
ag10
(g14
S'\xc8I\x0c\x02+?c@'
p124
tp125
Rp126
ag10
(g14
S'p\x14\xaeG\xe1Nd@'
p127
tp128
Rp129
ag10
(g14
S'\xed\xa7\xc6K7\xfdc@'
p130
tp131
Rp132
ag10
(g14
S'Rd;\xdfO\xf5g@'
p133
tp134
Rp135
ag10
(g14
S'f\x8f\xc2\xf5(\xc4^@'
p136
tp137
Rp138
asssss.