(dp0
S'../Data/sqlite_30.csv'
p1
(dp2
S'../Data/sqlite_97.csv'
p3
(dp4
F0.35
(dp5
S'mmre'
p6
(dp7
S'bellwether'
p8
(lp9
cnumpy.core.multiarray
scalar
p10
(cnumpy
dtype
p11
(S'f8'
p12
I0
I1
tp13
Rp14
(I3
S'<'
p15
NNNI-1
I-1
I0
tp16
bS'O\xd0\xc3\x1d\x1cGX@'
p17
tp18
Rp19
ag10
(g14
S'\r\xb9\x02FdHX@'
p20
tp21
Rp22
ag10
(g14
S'\xbd&\x90g\xbbHX@'
p23
tp24
Rp25
ag10
(g14
S'Y?\xe0g\xcaEX@'
p26
tp27
Rp28
ag10
(g14
S"j\x03X'\xf2DX@"
p29
tp30
Rp31
ag10
(g14
S'\xfd\xfd$\xe0nEX@'
p32
tp33
Rp34
ag10
(g14
S'\xa7W\xb7{WIX@'
p35
tp36
Rp37
ag10
(g14
S'\x13\xfe\xf3{\x7fGX@'
p38
tp39
Rp40
ag10
(g14
S'\x14y\xc1\xeb\xe8FX@'
p41
tp42
Rp43
ag10
(g14
S'e\x10\xaaa(FX@'
p44
tp45
Rp46
ag10
(g14
S'\x02\xf3\xe5*\x11HX@'
p47
tp48
Rp49
ag10
(g14
S'\xd5\xd5\xa7i\xd9GX@'
p50
tp51
Rp52
ag10
(g14
S'\x11J\x94\xb9\xafHX@'
p53
tp54
Rp55
ag10
(g14
S'\xdd\x99\xa7\x7fMEX@'
p56
tp57
Rp58
ag10
(g14
S'\xe5F\xc6\x1fYFX@'
p59
tp60
Rp61
ag10
(g14
S'X\xb9\xcbC\xbfHX@'
p62
tp63
Rp64
ag10
(g14
S'?c\xf8\xdd,HX@'
p65
tp66
Rp67
ag10
(g14
S'DX\x05<UEX@'
p68
tp69
Rp70
ag10
(g14
S'\xea\xa0?\xbc%HX@'
p71
tp72
Rp73
ag10
(g14
S"\x8a'\x81\x7f5IX@"
p74
tp75
Rp76
asS'target'
p77
(lp78
g10
(g14
S'\xd7\xcfU\xda\x17\x82S@'
p79
tp80
Rp81
ag10
(g14
S'3\xc2,@\x05\xc2[@'
p82
tp83
Rp84
ag10
(g14
S'\xa2-\xec\xa4z\xc2G@'
p85
tp86
Rp87
ag10
(g14
S'\x8d \xcbr\xc8\xdf\\@'
p88
tp89
Rp90
ag10
(g14
S'\x11\x97\xa4\x9d\x0cRT@'
p91
tp92
Rp93
ag10
(g14
S'-B.O\xbd\xe5S@'
p94
tp95
Rp96
ag10
(g14
S"'\xd7\xc6\xb3\x07.S@"
p97
tp98
Rp99
ag10
(g14
S'\x89\xed\xf9+w\x13S@'
p100
tp101
Rp102
ag10
(g14
S'8\xa1\x00\xe6\xb5\x13Z@'
p103
tp104
Rp105
ag10
(g14
S'\xc1a"\xa9\xe5OS@'
p106
tp107
Rp108
ag10
(g14
S'\x05\xfc}\x81\x00+W@'
p109
tp110
Rp111
ag10
(g14
S'\xadz\x97\xdd\x03KR@'
p112
tp113
Rp114
ag10
(g14
S'L,oG8\xceT@'
p115
tp116
Rp117
ag10
(g14
S'}\xa6 .y.R@'
p118
tp119
Rp120
ag10
(g14
S'.T<\xadw\xe2W@'
p121
tp122
Rp123
ag10
(g14
S'\xd9\xbf\x04\xfb^\xa8K@'
p124
tp125
Rp126
ag10
(g14
S'\xa1\x8eJ\r\xa0]V@'
p127
tp128
Rp129
ag10
(g14
S'\x00h\x89$\xa2\x18V@'
p130
tp131
Rp132
ag10
(g14
S'\xe3["\x88\xd1\x7fJ@'
p133
tp134
Rp135
ag10
(g14
S'\xc3\xe0\x83\xdd\xdadR@'
p136
tp137
Rp138
asssss.