(dp0
S'../Data/sqlite_16.csv'
p1
(dp2
S'../Data/sqlite_96.csv'
p3
(dp4
F0.15
(dp5
S'mmre'
p6
(dp7
S'bellwether'
p8
(lp9
cnumpy.core.multiarray
scalar
p10
(cnumpy
dtype
p11
(S'f8'
p12
I0
I1
tp13
Rp14
(I3
S'<'
p15
NNNI-1
I-1
I0
tp16
bS'P\xaf\xf5\x8d\\JW@'
p17
tp18
Rp19
ag10
(g14
S'\x17\xcb\x04\x7f1KW@'
p20
tp21
Rp22
ag10
(g14
S'\xb9m\x9cv&LW@'
p23
tp24
Rp25
ag10
(g14
S'\xc8\xa3\xea_OOW@'
p26
tp27
Rp28
ag10
(g14
S'6\xb7\x8cddKW@'
p29
tp30
Rp31
ag10
(g14
S'C\x84Y\x1c\xe2GW@'
p32
tp33
Rp34
ag10
(g14
S'\xc9)ZZ\xc4NW@'
p35
tp36
Rp37
ag10
(g14
S'\x1c\x92\xe8\x1f\tKW@'
p38
tp39
Rp40
ag10
(g14
S',\xc2\xb1\xb9tMW@'
p41
tp42
Rp43
ag10
(g14
S'Gd,\x9b|OW@'
p44
tp45
Rp46
ag10
(g14
S'_\xddqz\xecKW@'
p47
tp48
Rp49
ag10
(g14
S'<\xe1\xac\xbboKW@'
p50
tp51
Rp52
ag10
(g14
S'\xb7*\x83\x00KLW@'
p53
tp54
Rp55
ag10
(g14
S'\x84\xbcGG\xb4IW@'
p56
tp57
Rp58
ag10
(g14
S'<\x18\xd4\x9bXKW@'
p59
tp60
Rp61
ag10
(g14
S'~p\x9e&wLW@'
p62
tp63
Rp64
ag10
(g14
S'\xa7\xbc\x06\x97sKW@'
p65
tp66
Rp67
ag10
(g14
S'\xfa\x11d#\xd2JW@'
p68
tp69
Rp70
ag10
(g14
S'Sn\x1ar\xaaHW@'
p71
tp72
Rp73
ag10
(g14
S'\xef\xa7\x06W\xdeLW@'
p74
tp75
Rp76
asS'target'
p77
(lp78
g10
(g14
S'\xa4\xae\xbaM\xbarQ@'
p79
tp80
Rp81
ag10
(g14
S'\x9b\x0b5\xbeA\xb6H@'
p82
tp83
Rp84
ag10
(g14
S'\xc2\xd6\xf0\xdbo\xdeR@'
p85
tp86
Rp87
ag10
(g14
S'0\x0fIJZ\xc4F@'
p88
tp89
Rp90
ag10
(g14
S'F`\xac\x0c\xb9JT@'
p91
tp92
Rp93
ag10
(g14
S'\xa5\xc0A\x95\x12\x1a]@'
p94
tp95
Rp96
ag10
(g14
S'\xad\xf0\x00\x8c\x9aD?@'
p97
tp98
Rp99
ag10
(g14
S'\x1a\xca,nS\xb1`@'
p100
tp101
Rp102
ag10
(g14
S'\xfb\xb8(\xaf\xd5=U@'
p103
tp104
Rp105
ag10
(g14
S'\x0c)6\xfc!\x87G@'
p106
tp107
Rp108
ag10
(g14
S'\xf6h\x06\x84/zL@'
p109
tp110
Rp111
ag10
(g14
S'\xd3B\xb6\xa0\xcbTT@'
p112
tp113
Rp114
ag10
(g14
S'\x11\xd0\xbb\x92\xa4\x87F@'
p115
tp116
Rp117
ag10
(g14
S'\x88\x8e\xe3\x8c}\xfbT@'
p118
tp119
Rp120
ag10
(g14
S'\xf8\x02\xb4\x901yI@'
p121
tp122
Rp123
ag10
(g14
S'\xb3r\x14\xda6\xf3H@'
p124
tp125
Rp126
ag10
(g14
S'\xd7\x9e\x1b`\xc8\rS@'
p127
tp128
Rp129
ag10
(g14
S'\xbc\x99T\x1c\xecJU@'
p130
tp131
Rp132
ag10
(g14
S'1\xa2d\x911\xf6O@'
p133
tp134
Rp135
ag10
(g14
S'm3\x19(\xc1\xcbX@'
p136
tp137
Rp138
asssss.