(dp0
S'../Data/sqlite_30.csv'
p1
(dp2
S'../Data/sqlite_59.csv'
p3
(dp4
F0.3
(dp5
S'mmre'
p6
(dp7
S'bellwether'
p8
(lp9
cnumpy.core.multiarray
scalar
p10
(cnumpy
dtype
p11
(S'f8'
p12
I0
I1
tp13
Rp14
(I3
S'<'
p15
NNNI-1
I-1
I0
tp16
bS'\xf0F\x0e\x8f\xbc@W@'
p17
tp18
Rp19
ag10
(g14
S'y\xca\x91\xed9AW@'
p20
tp21
Rp22
ag10
(g14
S'\xf1\x8a?\xce\nCW@'
p23
tp24
Rp25
ag10
(g14
S'B\x9b\x80.=BW@'
p26
tp27
Rp28
ag10
(g14
S'.G\x08jZ>W@'
p29
tp30
Rp31
ag10
(g14
S'9H\xb9\xe1-AW@'
p32
tp33
Rp34
ag10
(g14
S'\x99E\x11AUBW@'
p35
tp36
Rp37
ag10
(g14
S'u\xa15\xbd\xb9CW@'
p38
tp39
Rp40
ag10
(g14
S'\xc6e\x15\xd6\xacCW@'
p41
tp42
Rp43
ag10
(g14
S'\xba_\\\xd2\x08BW@'
p44
tp45
Rp46
ag10
(g14
S'E\xfb\x7f\xda\tAW@'
p47
tp48
Rp49
ag10
(g14
S'\xf3\xcc\xfb\xca\xabCW@'
p50
tp51
Rp52
ag10
(g14
S'\x17a\xca\xdc#CW@'
p53
tp54
Rp55
ag10
(g14
S'\x0e\xb8\xc8\xc8\xbb@W@'
p56
tp57
Rp58
ag10
(g14
S'\xe7\xcf\xdb=\xcfAW@'
p59
tp60
Rp61
ag10
(g14
S'u\xf7\xefUKAW@'
p62
tp63
Rp64
ag10
(g14
S'\xedR{\x93\x9fBW@'
p65
tp66
Rp67
ag10
(g14
S'\xb2\xdd\xd5L\xafCW@'
p68
tp69
Rp70
ag10
(g14
S'\x1dbF\xadfCW@'
p71
tp72
Rp73
ag10
(g14
S'\x1f\xec\xe6/\xb1AW@'
p74
tp75
Rp76
asS'target'
p77
(lp78
g10
(g14
S'\x0c\xee\x93p\x05\xa4%@'
p79
tp80
Rp81
ag10
(g14
S'\xa1\xf4#\xd49\x1d&@'
p82
tp83
Rp84
ag10
(g14
S'\x8a\xdeO\xdac6&@'
p85
tp86
Rp87
ag10
(g14
S'n\x82*\xdc/=$@'
p88
tp89
Rp90
ag10
(g14
S'u\x87\xe4\x02\t#&@'
p91
tp92
Rp93
ag10
(g14
S'IU\xc2\x97|\x8a%@'
p94
tp95
Rp96
ag10
(g14
S'F\x10;X\\!(@'
p97
tp98
Rp99
ag10
(g14
S'\xb7\xb3\x02\xbe\x19\xa2%@'
p100
tp101
Rp102
ag10
(g14
S'R\x12\xb1?Fp%@'
p103
tp104
Rp105
ag10
(g14
S'\xad\xf8\xe1\x0cx\xc8&@'
p106
tp107
Rp108
ag10
(g14
S'\xe2Y+\xad\xf0\x13%@'
p109
tp110
Rp111
ag10
(g14
S'm\rB\xd5r\x9c%@'
p112
tp113
Rp114
ag10
(g14
S'\xfb\n4P\x9f|$@'
p115
tp116
Rp117
ag10
(g14
S'\xb2$X|!v&@'
p118
tp119
Rp120
ag10
(g14
S'm\xed\xb8\x81\xf9\xab&@'
p121
tp122
Rp123
ag10
(g14
S'%\xee\xc1\x80\xa7h%@'
p124
tp125
Rp126
ag10
(g14
S'\xd9\xf0\x0c\xa7z\x07$@'
p127
tp128
Rp129
ag10
(g14
S'\x1bB<x\x07\xec$@'
p130
tp131
Rp132
ag10
(g14
S'\xfeV`"\x8a\x8f%@'
p133
tp134
Rp135
ag10
(g14
S'\xf2\x15\xfepR\xd8%@'
p136
tp137
Rp138
asssss.