(dp0
S'../Data/sqlite_23.csv'
p1
(dp2
S'../Data/sqlite_97.csv'
p3
(dp4
F0.2
(dp5
S'mmre'
p6
(dp7
S'bellwether'
p8
(lp9
cnumpy.core.multiarray
scalar
p10
(cnumpy
dtype
p11
(S'f8'
p12
I0
I1
tp13
Rp14
(I3
S'<'
p15
NNNI-1
I-1
I0
tp16
bS'VC\xd3AA>X@'
p17
tp18
Rp19
ag10
(g14
S'i4\x07\x15\x89>X@'
p20
tp21
Rp22
ag10
(g14
S'2\xc9n\x8f\x0f>X@'
p23
tp24
Rp25
ag10
(g14
S'f\xcb\xbc\x8a\xc0@X@'
p26
tp27
Rp28
ag10
(g14
S'*#\xc9Wm?X@'
p29
tp30
Rp31
ag10
(g14
S'\xdaB1\xc9/>X@'
p32
tp33
Rp34
ag10
(g14
S'\xda\x1e\x83\x1e\x96>X@'
p35
tp36
Rp37
ag10
(g14
S'*\r\x10\xe1\xfa>X@'
p38
tp39
Rp40
ag10
(g14
S'`h\x14\x17\xc2?X@'
p41
tp42
Rp43
ag10
(g14
S'o\xf1\xfd\x99\x1e>X@'
p44
tp45
Rp46
ag10
(g14
S' Tbm]?X@'
p47
tp48
Rp49
ag10
(g14
S'$)\x89\x03?>X@'
p50
tp51
Rp52
ag10
(g14
S'_\x0eFW\xd6?X@'
p53
tp54
Rp55
ag10
(g14
S'\x1d\xd7\x9a\xf1\x0cAX@'
p56
tp57
Rp58
ag10
(g14
S'\x93\xab\xe1PgAX@'
p59
tp60
Rp61
ag10
(g14
S'f\xf4ug\x06@X@'
p62
tp63
Rp64
ag10
(g14
S'\x83]\xa0\x83b?X@'
p65
tp66
Rp67
ag10
(g14
S'U\x14\xa1\xd1\xdc?X@'
p68
tp69
Rp70
ag10
(g14
S'X\xe1\x05\xc4\xa5?X@'
p71
tp72
Rp73
ag10
(g14
S'u\x9c\x93\x90\xce?X@'
p74
tp75
Rp76
asS'target'
p77
(lp78
g10
(g14
S'\xe0\x9c\x86K\xc4|R@'
p79
tp80
Rp81
ag10
(g14
S'\xf5\xf3\x03\x8d\x15D^@'
p82
tp83
Rp84
ag10
(g14
S'6\xa0j)-\x08T@'
p85
tp86
Rp87
ag10
(g14
S'\xf0^\x17?\x85\xaaW@'
p88
tp89
Rp90
ag10
(g14
S'Rs\x18|ZVW@'
p91
tp92
Rp93
ag10
(g14
S'\x8d\xc1aIo\xa3T@'
p94
tp95
Rp96
ag10
(g14
S'\x8a?\xa9K^\xa6P@'
p97
tp98
Rp99
ag10
(g14
S'7\x8c\x93j\x0c=R@'
p100
tp101
Rp102
ag10
(g14
S'f\x0f\xfd\xfeB\xc5W@'
p103
tp104
Rp105
ag10
(g14
S'\tK[\xca\xaa\x18V@'
p106
tp107
Rp108
ag10
(g14
S'\x19\x81\x9b\x9f\xd6\x0bV@'
p109
tp110
Rp111
ag10
(g14
S'\xec\xc6\x8c8:\xe5K@'
p112
tp113
Rp114
ag10
(g14
S'l2Q\xd25\xcbP@'
p115
tp116
Rp117
ag10
(g14
S'\xfb\x0f\xde5\x0c\x9bL@'
p118
tp119
Rp120
ag10
(g14
S'\x9a\x19hD\xe6QW@'
p121
tp122
Rp123
ag10
(g14
S'\xd6c\xc0\xf4\xef\x17R@'
p124
tp125
Rp126
ag10
(g14
S'\x01T\xcd][\x96P@'
p127
tp128
Rp129
ag10
(g14
S'\xb8i\x0c\x17+\x1bT@'
p130
tp131
Rp132
ag10
(g14
S'Rd\x18f\x9e[X@'
p133
tp134
Rp135
ag10
(g14
S'J\x0c\xfa\x9f\x88oN@'
p136
tp137
Rp138
asssss.