(dp0
S'../Data/sqlite_37.csv'
p1
(dp2
S'../Data/sqlite_79.csv'
p3
(dp4
F0.25
(dp5
S'mmre'
p6
(dp7
S'bellwether'
p8
(lp9
cnumpy.core.multiarray
scalar
p10
(cnumpy
dtype
p11
(S'f8'
p12
I0
I1
tp13
Rp14
(I3
S'<'
p15
NNNI-1
I-1
I0
tp16
bS'\xe9<M\xcaDRE@'
p17
tp18
Rp19
ag10
(g14
S'\xa4\xfd\r\xcd\x85KE@'
p20
tp21
Rp22
ag10
(g14
S'`u-"\xb4eE@'
p23
tp24
Rp25
ag10
(g14
S'\xb1t\x9f\xfeaZE@'
p26
tp27
Rp28
ag10
(g14
S'\xc3:\\\xd7\xc4NE@'
p29
tp30
Rp31
ag10
(g14
S'?\x9c\xcd\n.EE@'
p32
tp33
Rp34
ag10
(g14
S'5\x82\xd3h\x13_E@'
p35
tp36
Rp37
ag10
(g14
S'\xef}(3\xeePE@'
p38
tp39
Rp40
ag10
(g14
S';\xec\x1a\xcfZTE@'
p41
tp42
Rp43
ag10
(g14
S'\x853;p\xd0]E@'
p44
tp45
Rp46
ag10
(g14
S'T\xd0u\xbe\xaeXE@'
p47
tp48
Rp49
ag10
(g14
S'\xde\xb3\xd28\x86CE@'
p50
tp51
Rp52
ag10
(g14
S"'l\x1e(\x87fE@"
p53
tp54
Rp55
ag10
(g14
S'\x01\xa5Y\x8f\x0fLE@'
p56
tp57
Rp58
ag10
(g14
S"\x7f\xbc'u\xbbFE@"
p59
tp60
Rp61
ag10
(g14
S'%\xaav\n\x94NE@'
p62
tp63
Rp64
ag10
(g14
S'\xc6\xffj\x8e\xf3SE@'
p65
tp66
Rp67
ag10
(g14
S'o\xdb\xc5\x8cUnE@'
p68
tp69
Rp70
ag10
(g14
S'w9o,\x08SE@'
p71
tp72
Rp73
ag10
(g14
S'V\r\x81\x95AIE@'
p74
tp75
Rp76
asS'target'
p77
(lp78
g10
(g14
S'\xb0\xcd$\xe1\x1dy!@'
p79
tp80
Rp81
ag10
(g14
S'6\xf5\x00\xd1\xb1!#@'
p82
tp83
Rp84
ag10
(g14
S'\xc5\xfd\x9b>B4\x1f@'
p85
tp86
Rp87
ag10
(g14
S'MJ\xac\xd1\xcd\x1f"@'
p88
tp89
Rp90
ag10
(g14
S'\x10q\x96\xb6l\x0f(@'
p91
tp92
Rp93
ag10
(g14
S'\xe7)\x9b\xd3R\n(@'
p94
tp95
Rp96
ag10
(g14
S'\x9c\xaa.\xe4b\x1a\x18@'
p97
tp98
Rp99
ag10
(g14
S'\xd5\xc8m\xf3/!)@'
p100
tp101
Rp102
ag10
(g14
S'\xf7M\xc3\xa5\x18\xbf&@'
p103
tp104
Rp105
ag10
(g14
S'\xc5#?\x0f^\x81!@'
p106
tp107
Rp108
ag10
(g14
S'\xc7\x06\xca\\\xafH"@'
p109
tp110
Rp111
ag10
(g14
S'\x0ev\xe3\x14\xd8\xcf(@'
p112
tp113
Rp114
ag10
(g14
S'\x18\xc2\xfei9\x1e @'
p115
tp116
Rp117
ag10
(g14
S'\xa8MM:\x98e&@'
p118
tp119
Rp120
ag10
(g14
S'\x18O\xfa\xb6)V%@'
p121
tp122
Rp123
ag10
(g14
S'{\xc5W\x1fZ\xc5&@'
p124
tp125
Rp126
ag10
(g14
S'\x05\x85\xaa\xb4c"#@'
p127
tp128
Rp129
ag10
(g14
S'\xc8I\xf4/\xcd\x88\x1e@'
p130
tp131
Rp132
ag10
(g14
S'\xff\x93\xfe\xa6A=%@'
p133
tp134
Rp135
ag10
(g14
S'\xba\xcb\x04\xd7{\xe6#@'
p136
tp137
Rp138
asssss.