(dp0
S'../Data/sqlite_67.csv'
p1
(dp2
S'../Data/sqlite_0.csv'
p3
(dp4
F0.15
(dp5
S'abs_res'
p6
(dp7
S'bellwether'
p8
(lp9
cnumpy.core.multiarray
scalar
p10
(cnumpy
dtype
p11
(S'f8'
p12
I0
I1
tp13
Rp14
(I3
S'<'
p15
NNNI-1
I-1
I0
tp16
bS'\x0c\xac\x1cZ\x8e:"A'
p17
tp18
Rp19
ag10
(g14
S']\x0e-\xb2\x9a:"A'
p20
tp21
Rp22
ag10
(g14
S'}?5\xde\x17:"A'
p23
tp24
Rp25
ag10
(g14
S'\x10<\x98\xe7F:"A'
p26
tp27
Rp28
ag10
(g14
S'\xe7&1\x08I:"A'
p29
tp30
Rp31
ag10
(g14
S'm\x91\xed<\x0b;"A'
p32
tp33
Rp34
ag10
(g14
S'2\xdd$\x06\x92:"A'
p35
tp36
Rp37
ag10
(g14
S'w\xa2\xfe\x8dW:"A'
p38
tp39
Rp40
ag10
(g14
S'jJ\xc5Y\r;"A'
p41
tp42
Rp43
ag10
(g14
S'\xf5(\\\xcfx9"A'
p44
tp45
Rp46
ag10
(g14
S'\xbbt\x93X\xd49"A'
p47
tp48
Rp49
ag10
(g14
S' \xdb\xf9~\xde9"A'
p50
tp51
Rp52
ag10
(g14
S'\x1d/\xdd\xa4\xdc9"A'
p53
tp54
Rp55
ag10
(g14
S'-^\xba\xc9*:"A'
p56
tp57
Rp58
ag10
(g14
S'\x96{\xcd\x85\xc9:"A'
p59
tp60
Rp61
ag10
(g14
S'!\xb0r\xa8\xf89"A'
p62
tp63
Rp64
ag10
(g14
S'X\xc7\x04\x8f\x88:"A'
p65
tp66
Rp67
ag10
(g14
S'\x7f\xe9&q\xd69"A'
p68
tp69
Rp70
ag10
(g14
S'P\x8d\x97\xeea:"A'
p71
tp72
Rp73
ag10
(g14
S'X\x0e-\xf2K9"A'
p74
tp75
Rp76
asS'target'
p77
(lp78
g10
(g14
S'\x92n\x12\x83\xc0&g@'
p79
tp80
Rp81
ag10
(g14
S'\x16\x83\xc0\xca\xa1\x85g@'
p82
tp83
Rp84
ag10
(g14
S'93333\xb3e@'
p85
tp86
Rp87
ag10
(g14
S'\xbc\xf5(\\\x8f\x98d@'
p88
tp89
Rp90
ag10
(g14
S'\x04V\x0e-\xb2qe@'
p91
tp92
Rp93
ag10
(g14
S'h;\xdfO\x8d\x93e@'
p94
tp95
Rp96
ag10
(g14
S'\n\x02+\x87\x16\xefh@'
p97
tp98
Rp99
ag10
(g14
S'G\x8bl\xe7\xfb\xb1g@'
p100
tp101
Rp102
ag10
(g14
S'\xd9\xce\xf7S\xe3\x11e@'
p103
tp104
Rp105
ag10
(g14
S'\xf9*\x87\x16\xd9zf@'
p106
tp107
Rp108
ag10
(g14
S'\xcdv\xbe\x9f\x1aCg@'
p109
tp110
Rp111
ag10
(g14
S'\xc9K7\x89Axe@'
p112
tp113
Rp114
ag10
(g14
S'\x80j\xbct\x93\x14g@'
p115
tp116
Rp117
ag10
(g14
S'\x84\x16\xd9\xce\xf7og@'
p118
tp119
Rp120
ag10
(g14
S'33333\x8bg@'
p121
tp122
Rp123
ag10
(g14
S'\x8d\x97n\x12\x83\x88f@'
p124
tp125
Rp126
ag10
(g14
S'\x10-\xb2\x9d\xef[h@'
p127
tp128
Rp129
ag10
(g14
S'\x18/\xdd$\x06\xd5d@'
p130
tp131
Rp132
ag10
(g14
S'p\x12\x83\xc0\xcaMg@'
p133
tp134
Rp135
ag10
(g14
S'K5^\xbaI\x90f@'
p136
tp137
Rp138
asssss.