(dp0
S'../Data/sqlite_26.csv'
p1
(dp2
S'../Data/sqlite_18.csv'
p3
(dp4
F0.4
(dp5
S'mmre'
p6
(dp7
S'bellwether'
p8
(lp9
cnumpy.core.multiarray
scalar
p10
(cnumpy
dtype
p11
(S'f8'
p12
I0
I1
tp13
Rp14
(I3
S'<'
p15
NNNI-1
I-1
I0
tp16
bS'\xe8\xad\xe18\xfbbX@'
p17
tp18
Rp19
ag10
(g14
S'536|\rcX@'
p20
tp21
Rp22
ag10
(g14
S'8\nu\x8c?cX@'
p23
tp24
Rp25
ag10
(g14
S'v(A\xa9\x1acX@'
p26
tp27
Rp28
ag10
(g14
S'H\xfe\xda\rFcX@'
p29
tp30
Rp31
ag10
(g14
S'81\x9d\xf0\x1fcX@'
p32
tp33
Rp34
ag10
(g14
S'P\xe7+K\x1bcX@'
p35
tp36
Rp37
ag10
(g14
S'\xebVw\x8b\x15cX@'
p38
tp39
Rp40
ag10
(g14
S'\xccH]\xa5\tcX@'
p41
tp42
Rp43
ag10
(g14
S'\xfb!\xbfW\x17cX@'
p44
tp45
Rp46
ag10
(g14
S'\xc3#j\x1c cX@'
p47
tp48
Rp49
ag10
(g14
S'\xcf\x8d\xa2\x9d\x12cX@'
p50
tp51
Rp52
ag10
(g14
S'h33e\x12cX@'
p53
tp54
Rp55
ag10
(g14
S'\xc8~\xdbC!cX@'
p56
tp57
Rp58
ag10
(g14
S'\xb4\x17|\x90 cX@'
p59
tp60
Rp61
ag10
(g14
S'E\x9a\xdc\\\x14cX@'
p62
tp63
Rp64
ag10
(g14
S'\x93?QQ5cX@'
p65
tp66
Rp67
ag10
(g14
S'\x94\x0e\x03;%cX@'
p68
tp69
Rp70
ag10
(g14
S'\x03\xee\xb0\x9f\x07cX@'
p71
tp72
Rp73
ag10
(g14
S'\x9d[\x11\xcb\x12cX@'
p74
tp75
Rp76
asS'target'
p77
(lp78
g10
(g14
S'xB\x9e\xa9\xad\xc8\xec?'
p79
tp80
Rp81
ag10
(g14
S'Kl\xf7-O\xd3\xec?'
p82
tp83
Rp84
ag10
(g14
S'*\x040$-\x8c\xec?'
p85
tp86
Rp87
ag10
(g14
S'x\xe2\xb9\xbbs\xb8\xea?'
p88
tp89
Rp90
ag10
(g14
S'\xca!\x0b\xeb\xd7\t\xec?'
p91
tp92
Rp93
ag10
(g14
S'\xd5\x950\xbc\xbcl\xeb?'
p94
tp95
Rp96
ag10
(g14
S'\xb86\xc7{:\xc6\xea?'
p97
tp98
Rp99
ag10
(g14
S'\xaa\x91\x83\x95\x96\t\xed?'
p100
tp101
Rp102
ag10
(g14
S'\xba\xa7\xc3>M?\xec?'
p103
tp104
Rp105
ag10
(g14
S'f\xac\x1d\xac\xf7\x1c\xed?'
p106
tp107
Rp108
ag10
(g14
S'\xe8A"u\xa3\x91\xeb?'
p109
tp110
Rp111
ag10
(g14
S'\xc7\xc7Cx\xa70\xec?'
p112
tp113
Rp114
ag10
(g14
S'\xa5Ur\xe0w>\xeb?'
p115
tp116
Rp117
ag10
(g14
S'8\x978m\xae\\\xec?'
p118
tp119
Rp120
ag10
(g14
S"\x18\x08'\x9ex\xc6\xeb?"
p121
tp122
Rp123
ag10
(g14
S'Z`T\x94x\xb9\xeb?'
p124
tp125
Rp126
ag10
(g14
S'<\x8br\x1c\x07G\xea?'
p127
tp128
Rp129
ag10
(g14
S'\x10\x9fV[\n\xac\xec?'
p130
tp131
Rp132
ag10
(g14
S'\xe2\x1aSubY\xed?'
p133
tp134
Rp135
ag10
(g14
S'5\xf8B\xcdY;\xee?'
p136
tp137
Rp138
asssss.