(dp0
S'../Data/sqlite_40.csv'
p1
(dp2
S'../Data/sqlite_86.csv'
p3
(dp4
F0.25
(dp5
S'mmre'
p6
(dp7
S'bellwether'
p8
(lp9
cnumpy.core.multiarray
scalar
p10
(cnumpy
dtype
p11
(S'f8'
p12
I0
I1
tp13
Rp14
(I3
S'<'
p15
NNNI-1
I-1
I0
tp16
bS'\x80vQ\xb5:gz@'
p17
tp18
Rp19
ag10
(g14
S'L)f\r\xd3dz@'
p20
tp21
Rp22
ag10
(g14
S'\xe1\x1e\xa0:jYz@'
p23
tp24
Rp25
ag10
(g14
S']\x9c\x96\x9a\xdb:z@'
p26
tp27
Rp28
ag10
(g14
S'>\x16YI\x87\xf0y@'
p29
tp30
Rp31
ag10
(g14
S"w\xfb\t\xe9'{z@"
p32
tp33
Rp34
ag10
(g14
S'\xf5\xefqr\x0bbz@'
p35
tp36
Rp37
ag10
(g14
S"N\xabr\xe5'tz@"
p38
tp39
Rp40
ag10
(g14
S'dJ\x08\xf6j0z@'
p41
tp42
Rp43
ag10
(g14
S'\xfa\xdf-a\x06\x96z@'
p44
tp45
Rp46
ag10
(g14
S'}0mm\xabwz@'
p47
tp48
Rp49
ag10
(g14
S'\xb6\x83\x1fj\x91,z@'
p50
tp51
Rp52
ag10
(g14
S'\xe5\xb0%y3]z@'
p53
tp54
Rp55
ag10
(g14
S";i'\xe3\x04\xe1y@"
p56
tp57
Rp58
ag10
(g14
S'd\xef\xa2\xf6\xbf\\z@'
p59
tp60
Rp61
ag10
(g14
S'\xd1Q\xac:i?z@'
p62
tp63
Rp64
ag10
(g14
S'\xe6\xf8\x7f,Euz@'
p65
tp66
Rp67
ag10
(g14
S'\x90,(\x19E\x13z@'
p68
tp69
Rp70
ag10
(g14
S'f\xb9\xb8@`Tz@'
p71
tp72
Rp73
ag10
(g14
S"+E\x9d}'Ez@"
p74
tp75
Rp76
asS'target'
p77
(lp78
g10
(g14
S'\xb9\x9b\xd4,,,P@'
p79
tp80
Rp81
ag10
(g14
S'\xde\xadZ6%\xb1P@'
p82
tp83
Rp84
ag10
(g14
S'\xae\xb1\xa4L\x19\nO@'
p85
tp86
Rp87
ag10
(g14
S'\xb9\xc8\x10%\xb5\xc1E@'
p88
tp89
Rp90
ag10
(g14
S'\xe2\x87\xca\x0cL\xc4M@'
p91
tp92
Rp93
ag10
(g14
S'\xb3\xe1\xb8_\x92\x94Q@'
p94
tp95
Rp96
ag10
(g14
S'cIz\xae\xd6\x13P@'
p97
tp98
Rp99
ag10
(g14
S'\xa8Zoh\xaf6U@'
p100
tp101
Rp102
ag10
(g14
S'\x171*\x848\xcbR@'
p103
tp104
Rp105
ag10
(g14
S'\x7f\x18\xb2}RGW@'
p106
tp107
Rp108
ag10
(g14
S'\x13\xdch\x14\xb3mK@'
p109
tp110
Rp111
ag10
(g14
S'\xe5pG8j\xe3P@'
p112
tp113
Rp114
ag10
(g14
S'P\x05\x0f1\x8eTS@'
p115
tp116
Rp117
ag10
(g14
S'Wj\xd4v\x7fiL@'
p118
tp119
Rp120
ag10
(g14
S'\x1br\x8d\\K\x89U@'
p121
tp122
Rp123
ag10
(g14
S'\xd1\xf6\t\x15&>L@'
p124
tp125
Rp126
ag10
(g14
S'\x04\xc5{\x8b\xdf`O@'
p127
tp128
Rp129
ag10
(g14
S'\x93\xe7\xc5\x16\xf0\xb4G@'
p130
tp131
Rp132
ag10
(g14
S'<\xc60o\xd3\x1fP@'
p133
tp134
Rp135
ag10
(g14
S'\xac\xc3\x93\xff\x98\xe8P@'
p136
tp137
Rp138
asssss.