(dp0
S'../Data/sqlite_78.csv'
p1
(dp2
S'../Data/sqlite_87.csv'
p3
(dp4
F0.3
(dp5
S'mmre'
p6
(dp7
S'bellwether'
p8
(lp9
cnumpy.core.multiarray
scalar
p10
(cnumpy
dtype
p11
(S'f8'
p12
I0
I1
tp13
Rp14
(I3
S'<'
p15
NNNI-1
I-1
I0
tp16
bS'0L\x01\xc0\xbeiK@'
p17
tp18
Rp19
ag10
(g14
S'\xea\x8fI&#iK@'
p20
tp21
Rp22
ag10
(g14
S'\xcc\xb2Xs\xdccK@'
p23
tp24
Rp25
ag10
(g14
S'bU(\x04\x90\x96K@'
p26
tp27
Rp28
ag10
(g14
S'\xf2Vw\x03\xb8\x01K@'
p29
tp30
Rp31
ag10
(g14
S'\xd8W\xba$KPK@'
p32
tp33
Rp34
ag10
(g14
S'\x8e\xba\xfa,|5K@'
p35
tp36
Rp37
ag10
(g14
S'\x12\xab\x19\x1b\r2K@'
p38
tp39
Rp40
ag10
(g14
S'\x04y\xc6/\x8e?K@'
p41
tp42
Rp43
ag10
(g14
S'T-v\n\x88>K@'
p44
tp45
Rp46
ag10
(g14
S'u\xf7\xf6\x9fn?K@'
p47
tp48
Rp49
ag10
(g14
S'U\x03-X\x14\x1aK@'
p50
tp51
Rp52
ag10
(g14
S'\x82E^3{FK@'
p53
tp54
Rp55
ag10
(g14
S'IY\xff\xec\x81<K@'
p56
tp57
Rp58
ag10
(g14
S'\x00;+\x1e\r\x87K@'
p59
tp60
Rp61
ag10
(g14
S'REEO\x08\xb0K@'
p62
tp63
Rp64
ag10
(g14
S'\x1a@G\xa09jK@'
p65
tp66
Rp67
ag10
(g14
S'\t\x0cS\xaaiKK@'
p68
tp69
Rp70
ag10
(g14
S'\x00bK\x90(aK@'
p71
tp72
Rp73
ag10
(g14
S'V\x1a\xa9\xf3\xe8\xa8K@'
p74
tp75
Rp76
asS'target'
p77
(lp78
g10
(g14
S'\x1b\xea\xeeK\xda\xf1T@'
p79
tp80
Rp81
ag10
(g14
S'\x15\xaf\x17\xdd\x18\xcbX@'
p82
tp83
Rp84
ag10
(g14
S'\x17\x9c\xa2k` W@'
p85
tp86
Rp87
ag10
(g14
S'\xd6\xd50\x1d6PP@'
p88
tp89
Rp90
ag10
(g14
S'\x8cr\x07\xe6SOQ@'
p91
tp92
Rp93
ag10
(g14
S'\x04\xa6\xa7\xc3I\xc3M@'
p94
tp95
Rp96
ag10
(g14
S'\xdc\xe0\xc9\xbc\x07nQ@'
p97
tp98
Rp99
ag10
(g14
S'n\x92l\xbc\xf0{S@'
p100
tp101
Rp102
ag10
(g14
S'\xe5\x90nd\xf7,P@'
p103
tp104
Rp105
ag10
(g14
S'GJ\xce`J\xf4Q@'
p106
tp107
Rp108
ag10
(g14
S'n\x81\x94\x7f\x95\x13O@'
p109
tp110
Rp111
ag10
(g14
S'\xc4F1|8\x19R@'
p112
tp113
Rp114
ag10
(g14
S'H^\x7f\xed\xef\x0bP@'
p115
tp116
Rp117
ag10
(g14
S'\x82\xd2\xd5\xd4\xb5&N@'
p118
tp119
Rp120
ag10
(g14
S'\x15\xa3|\xa2k\xb8I@'
p121
tp122
Rp123
ag10
(g14
S'\xa5\x04Q\xa4\xb4\x19M@'
p124
tp125
Rp126
ag10
(g14
S'0ed\xe8\xf9\xeaR@'
p127
tp128
Rp129
ag10
(g14
S'"}\x0c\xdb\xf2cU@'
p130
tp131
Rp132
ag10
(g14
S'Mt\xdb\x87\xe4\xd4Q@'
p133
tp134
Rp135
ag10
(g14
S'\xde(\xee\x8d\xd6mM@'
p136
tp137
Rp138
asssss.