(dp0
S'../Data/sqlite_36.csv'
p1
(dp2
S'../Data/sqlite_87.csv'
p3
(dp4
F0.05
(dp5
S'mmre'
p6
(dp7
S'bellwether'
p8
(lp9
cnumpy.core.multiarray
scalar
p10
(cnumpy
dtype
p11
(S'f8'
p12
I0
I1
tp13
Rp14
(I3
S'<'
p15
NNNI-1
I-1
I0
tp16
bS'\xa5\x99\xccz\xb2dT@'
p17
tp18
Rp19
ag10
(g14
S'\x87\x98v\xd8 gT@'
p20
tp21
Rp22
ag10
(g14
S'\xb3\x19\xa9f\xe9fT@'
p23
tp24
Rp25
ag10
(g14
S'#\xc1\xc7\xaaRfT@'
p26
tp27
Rp28
ag10
(g14
S'tR\xd4\x84\xa9eT@'
p29
tp30
Rp31
ag10
(g14
S'\xe2\xa9\x182\xefdT@'
p32
tp33
Rp34
ag10
(g14
S'O\xb5\xc0\xec\x05gT@'
p35
tp36
Rp37
ag10
(g14
S'>\xc9g\x8aQiT@'
p38
tp39
Rp40
ag10
(g14
S'-$\r\xb8\x14gT@'
p41
tp42
Rp43
ag10
(g14
S'\xe1\xa40\xd27bT@'
p44
tp45
Rp46
ag10
(g14
S'\xe1\x03\xf5\xb6fhT@'
p47
tp48
Rp49
ag10
(g14
S'L\xd0\x9a\xcb\x7fdT@'
p50
tp51
Rp52
ag10
(g14
S'\x16\xdeE1\xc5eT@'
p53
tp54
Rp55
ag10
(g14
S'\n\x0c\xaea\xfcfT@'
p56
tp57
Rp58
ag10
(g14
S'\xf7\xfd\x0e+\xf8gT@'
p59
tp60
Rp61
ag10
(g14
S'\xd1\xa0Cc\xa5bT@'
p62
tp63
Rp64
ag10
(g14
S'\xe7;\xa6\xc8\xa8fT@'
p65
tp66
Rp67
ag10
(g14
S'E\xeeD[\xebgT@'
p68
tp69
Rp70
ag10
(g14
S'T\x17\x07e\x14dT@'
p71
tp72
Rp73
ag10
(g14
S'ca\xaf\x089eT@'
p74
tp75
Rp76
asS'target'
p77
(lp78
g10
(g14
S'U\x14U\xe6\x88\xd8O@'
p79
tp80
Rp81
ag10
(g14
S'5"f\x8e\xf3\x9e^@'
p82
tp83
Rp84
ag10
(g14
S'\x99\xf9Q\xd6\x14\xb8R@'
p85
tp86
Rp87
ag10
(g14
S'\xacL\xe2\xec\xce\x94G@'
p88
tp89
Rp90
ag10
(g14
S'\x9fk5\xc0\xe4\xfc\\@'
p91
tp92
Rp93
ag10
(g14
S'\xa9\x9f\xf1IqY]@'
p94
tp95
Rp96
ag10
(g14
S'\xfc\x07\x9e\x1c\xf8\xbdI@'
p97
tp98
Rp99
ag10
(g14
S'U"K\xa9\xed\xf8S@'
p100
tp101
Rp102
ag10
(g14
S'\x993f\n\x9e\x12V@'
p103
tp104
Rp105
ag10
(g14
S'>\xa5e\x9asgX@'
p106
tp107
Rp108
ag10
(g14
S'\xfa\x91l\xa5$iR@'
p109
tp110
Rp111
ag10
(g14
S'\xb1A\xe5\xca1\xcbQ@'
p112
tp113
Rp114
ag10
(g14
S',\xfcOI\x13\nG@'
p115
tp116
Rp117
ag10
(g14
S'\x85\x07J\xc4\xd6\xf3Q@'
p118
tp119
Rp120
ag10
(g14
S'L7\xf7\xd9W\x92Q@'
p121
tp122
Rp123
ag10
(g14
S'J\xec,\x15j\xf9]@'
p124
tp125
Rp126
ag10
(g14
S'\x97 94\x94|P@'
p127
tp128
Rp129
ag10
(g14
S'\xe3\xc5\x80\xc0tED@'
p130
tp131
Rp132
ag10
(g14
S'g,+\x87YPT@'
p133
tp134
Rp135
ag10
(g14
S'\x0f~\xa1\xa4\xdceH@'
p136
tp137
Rp138
asssss.