(dp0
S'../Data/sqlite_57.csv'
p1
(dp2
S'../Data/sqlite_75.csv'
p3
(dp4
F0.1
(dp5
S'abs_res'
p6
(dp7
S'bellwether'
p8
(lp9
cnumpy.core.multiarray
scalar
p10
(cnumpy
dtype
p11
(S'f8'
p12
I0
I1
tp13
Rp14
(I3
S'<'
p15
NNNI-1
I-1
I0
tp16
bS'\xd4$\x06\xe9o-jA'
p17
tp18
Rp19
ag10
(g14
S'b\xbct3\x1b/jA'
p20
tp21
Rp22
ag10
(g14
S'm\x12\x83\xa4\x103jA'
p23
tp24
Rp25
ag10
(g14
S'`ff\xd2\xe61jA'
p26
tp27
Rp28
ag10
(g14
S'\x8d\x97n\x8a\xee/jA'
p29
tp30
Rp31
ag10
(g14
S'7\xdfOu\xb9:jA'
p32
tp33
Rp34
ag10
(g14
S'\xb4\xf3\xfd\xb0\xf5-jA'
p35
tp36
Rp37
ag10
(g14
S'\xac\xc8v\x82P-jA'
p38
tp39
Rp40
ag10
(g14
S'f=\n\xe35.jA'
p41
tp42
Rp43
ag10
(g14
S'\xe2\xa5\x9b8r6jA'
p44
tp45
Rp46
ag10
(g14
S'-^\xba\xc91/jA'
p47
tp48
Rp49
ag10
(g14
S'mh\x91a\xab1jA'
p50
tp51
Rp52
ag10
(g14
S'!\x85\xeb\xad\xa9-jA'
p53
tp54
Rp55
ag10
(g14
S'\xc3Mb\xdc36jA'
p56
tp57
Rp58
ag10
(g14
S'\x98E\xb6\x07r*jA'
p59
tp60
Rp61
ag10
(g14
S'\x10-\xb2\x01\xfa(jA'
p62
tp63
Rp64
ag10
(g14
S'\xe5|?\xe9\xe8+jA'
p65
tp66
Rp67
ag10
(g14
S'\xe5\xfb\xa9!F/jA'
p68
tp69
Rp70
ag10
(g14
S'\xe0\xd0"O)3jA'
p71
tp72
Rp73
ag10
(g14
S'\xc5K7\xf9\xa6.jA'
p74
tp75
Rp76
asS'target'
p77
(lp78
g10
(g14
S'>3333\xd7`@'
p79
tp80
Rp81
ag10
(g14
S'l\xbe\x9f\x1a/\xd5[@'
p82
tp83
Rp84
ag10
(g14
S'6^\xbaI\x0c\x1a^@'
p85
tp86
Rp87
ag10
(g14
S'6\xdfO\x8d\x97\xf6^@'
p88
tp89
Rp90
ag10
(g14
S'Y\xe5\xd0"\xdb\xe1]@'
p91
tp92
Rp93
ag10
(g14
S'\x9f\x1a/\xdd$.`@'
p94
tp95
Rp96
ag10
(g14
S'Qd;\xdfO-_@'
p97
tp98
Rp99
ag10
(g14
S'ih\x91\xed|/\\@'
p100
tp101
Rp102
ag10
(g14
S'+^\xbaI\x0c\x9a^@'
p103
tp104
Rp105
ag10
(g14
S'&\x08\xac\x1cZ\xc4_@'
p106
tp107
Rp108
ag10
(g14
S'\xc0\xcc\xcc\xcc\xcc\xdc^@'
p109
tp110
Rp111
ag10
(g14
S'\x17\xaeG\xe1z\x04`@'
p112
tp113
Rp114
ag10
(g14
S'\xd2\xcc\xcc\xcc\xcc\xcc[@'
p115
tp116
Rp117
ag10
(g14
S'\xd7$\x06\x81\x95;_@'
p118
tp119
Rp120
ag10
(g14
S'P\xe3\xa5\x9b\xc4P]@'
p121
tp122
Rp123
ag10
(g14
S'\xa9\x9d\xef\xa7\xc6\xab^@'
p124
tp125
Rp126
ag10
(g14
S'(^\xbaI\x0c\xd2]@'
p127
tp128
Rp129
ag10
(g14
S'\xdc\xf9~j\xbc\xd8]@'
p130
tp131
Rp132
ag10
(g14
S'\x95\x1a/\xdd$\x16^@'
p133
tp134
Rp135
ag10
(g14
S'\xc4\x1e\x85\xebQH_@'
p136
tp137
Rp138
asssss.