(dp0
S'../Data/sqlite_79.csv'
p1
(dp2
S'../Data/sqlite_90.csv'
p3
(dp4
F0.35
(dp5
S'mmre'
p6
(dp7
S'bellwether'
p8
(lp9
cnumpy.core.multiarray
scalar
p10
(cnumpy
dtype
p11
(S'f8'
p12
I0
I1
tp13
Rp14
(I3
S'<'
p15
NNNI-1
I-1
I0
tp16
bS'\xa1#\x9ea\xabkX@'
p17
tp18
Rp19
ag10
(g14
S'\x13\x0fS\xee\xe0jX@'
p20
tp21
Rp22
ag10
(g14
S'\x1a|\xd5\xb8QjX@'
p23
tp24
Rp25
ag10
(g14
S'j\xde\x93p\xdefX@'
p26
tp27
Rp28
ag10
(g14
S'j\xab!l(fX@'
p29
tp30
Rp31
ag10
(g14
S'\xfd\xe0\xbf )lX@'
p32
tp33
Rp34
ag10
(g14
S'%\x19\x9c\r+gX@'
p35
tp36
Rp37
ag10
(g14
S'\x8a\x8f\x9e\xa3>hX@'
p38
tp39
Rp40
ag10
(g14
S'\xfcH;f_iX@'
p41
tp42
Rp43
ag10
(g14
S'\x8c\xd7\x93\xe4HiX@'
p44
tp45
Rp46
ag10
(g14
S'\xb6\xc9b\xe9?qX@'
p47
tp48
Rp49
ag10
(g14
S"\xba\x86'\r\xd5jX@"
p50
tp51
Rp52
ag10
(g14
S'\xbem\x91\xd5okX@'
p53
tp54
Rp55
ag10
(g14
S'9\x96m\xb5\x89jX@'
p56
tp57
Rp58
ag10
(g14
S'\xa7\xcb\xd3\xd7siX@'
p59
tp60
Rp61
ag10
(g14
S'\xd6)\x95\xe3vgX@'
p62
tp63
Rp64
ag10
(g14
S'h\xce(L\xd8hX@'
p65
tp66
Rp67
ag10
(g14
S'tE\x98\xc2\xddhX@'
p68
tp69
Rp70
ag10
(g14
S'\xc6\xdd\x1bx\x02iX@'
p71
tp72
Rp73
ag10
(g14
S'q=\xd1\xd2\x90gX@'
p74
tp75
Rp76
asS'target'
p77
(lp78
g10
(g14
S'\x03\xf1\xc5M\x1e5>@'
p79
tp80
Rp81
ag10
(g14
S'[\xb4\x96Q\x1b\x16A@'
p82
tp83
Rp84
ag10
(g14
S'\x8a\xc2\x830w\xd1?@'
p85
tp86
Rp87
ag10
(g14
S'te\x01\xd3\xc9\xe2A@'
p88
tp89
Rp90
ag10
(g14
S' \nd4\xbazB@'
p91
tp92
Rp93
ag10
(g14
S'Q~\xef]\x91\xbb?@'
p94
tp95
Rp96
ag10
(g14
S'\xaf{\x16\xae\xbf\x86A@'
p97
tp98
Rp99
ag10
(g14
S'B-\xb58\xe5FB@'
p100
tp101
Rp102
ag10
(g14
S'\xf1\t@\xd2\xc4\xeb@@'
p103
tp104
Rp105
ag10
(g14
S'\xe5\x8dJ\xea\xe7pA@'
p106
tp107
Rp108
ag10
(g14
S'F\xc0\xf0^AN@@'
p109
tp110
Rp111
ag10
(g14
S'\xba\x88X\xd2W\xa6@@'
p112
tp113
Rp114
ag10
(g14
S'\xbcQ\x1dA\xfb\xc4A@'
p115
tp116
Rp117
ag10
(g14
S'\xb3Y\x91\xa6\xe8QA@'
p118
tp119
Rp120
ag10
(g14
S'\xae\xa12\x84\xa2\tA@'
p121
tp122
Rp123
ag10
(g14
S'\xa6\no\x90!\x15A@'
p124
tp125
Rp126
ag10
(g14
S'\xfb1\x84\x0e\x9d`A@'
p127
tp128
Rp129
ag10
(g14
S'\xff\x8d<\x93p\xa0A@'
p130
tp131
Rp132
ag10
(g14
S'\xf8\xb1^\x07\x9b\x92A@'
p133
tp134
Rp135
ag10
(g14
S'5\xfe\xcb\xf90eB@'
p136
tp137
Rp138
asssss.