(dp0
S'../Data/sqlite_44.csv'
p1
(dp2
S'../Data/sqlite_59.csv'
p3
(dp4
F0.2
(dp5
S'mmre'
p6
(dp7
S'bellwether'
p8
(lp9
cnumpy.core.multiarray
scalar
p10
(cnumpy
dtype
p11
(S'f8'
p12
I0
I1
tp13
Rp14
(I3
S'<'
p15
NNNI-1
I-1
I0
tp16
bS']\xc6\xbbk\x93TU@'
p17
tp18
Rp19
ag10
(g14
S'\x90\x88+\x1c$VU@'
p20
tp21
Rp22
ag10
(g14
S'\xab\xdfWM\nVU@'
p23
tp24
Rp25
ag10
(g14
S'\xc0K\xd68mUU@'
p26
tp27
Rp28
ag10
(g14
S':d\xc4\x8dgTU@'
p29
tp30
Rp31
ag10
(g14
S'\t$Z\xb9\x8bRU@'
p32
tp33
Rp34
ag10
(g14
S'JCM\x07VVU@'
p35
tp36
Rp37
ag10
(g14
S'.oi\xc0>SU@'
p38
tp39
Rp40
ag10
(g14
S'J\x07ih\x92SU@'
p41
tp42
Rp43
ag10
(g14
S'S\xfd\x11\xc4\xe6TU@'
p44
tp45
Rp46
ag10
(g14
S'\xae\x80\xa4ZVUU@'
p47
tp48
Rp49
ag10
(g14
S'\xd4\xceR\x94LVU@'
p50
tp51
Rp52
ag10
(g14
S'Z\x0f\x98\x98pVU@'
p53
tp54
Rp55
ag10
(g14
S'\xe4\x7f\x02\xea\x1cSU@'
p56
tp57
Rp58
ag10
(g14
S'\x14B\xf6f\xabUU@'
p59
tp60
Rp61
ag10
(g14
S'\xe2=\x01\xb0\x85SU@'
p62
tp63
Rp64
ag10
(g14
S'RX\x9b\x03\xfdUU@'
p65
tp66
Rp67
ag10
(g14
S'\x18\x13\xda\x94rRU@'
p68
tp69
Rp70
ag10
(g14
S'6\xe3\xeb\x9a\xceSU@'
p71
tp72
Rp73
ag10
(g14
S'}\xce\xf0\xcf^UU@'
p74
tp75
Rp76
asS'target'
p77
(lp78
g10
(g14
S"\x9a$\t\x8d\xe9\x9b'@"
p79
tp80
Rp81
ag10
(g14
S'"n\x96\xce\x8dy%@'
p82
tp83
Rp84
ag10
(g14
S'>\xe1\x11w\x9bp%@'
p85
tp86
Rp87
ag10
(g14
S'\x1e\xf2\x1a9\xb3\xfa$@'
p88
tp89
Rp90
ag10
(g14
S'4\x1b\xde\xf0\x047&@'
p91
tp92
Rp93
ag10
(g14
S"\x7f4\x9e\x94\xde3'@"
p94
tp95
Rp96
ag10
(g14
S'l>\xa2-\xa3\xd9%@'
p97
tp98
Rp99
ag10
(g14
S'\xa0\xc9\xf6T\xdd\xfa$@'
p100
tp101
Rp102
ag10
(g14
S'>i\x02Y%\xfd%@'
p103
tp104
Rp105
ag10
(g14
S'\xc6\xc0\xc0=q!%@'
p106
tp107
Rp108
ag10
(g14
S'4\x14\xd0\xabo\x92&@'
p109
tp110
Rp111
ag10
(g14
S'\xd2\xd4T\x1a_g#@'
p112
tp113
Rp114
ag10
(g14
S'i 1CY\x1d$@'
p115
tp116
Rp117
ag10
(g14
S'\xe5\x1b\xb2\x92&\x0c&@'
p118
tp119
Rp120
ag10
(g14
S'\xb7\x9f\x17\x01>\xc9&@'
p121
tp122
Rp123
ag10
(g14
S'\xac\x84\x81}\xe9\xf4%@'
p124
tp125
Rp126
ag10
(g14
S'\x1e\x88\xfa\xcb\xa2_$@'
p127
tp128
Rp129
ag10
(g14
S'\x8c$\xce\xa1k\xc8&@'
p130
tp131
Rp132
ag10
(g14
S'\x8e\xcf\xd1 \xc0\x15&@'
p133
tp134
Rp135
ag10
(g14
S'=m\x8f^\xfe\xce%@'
p136
tp137
Rp138
asssss.