(dp0
S'../Data/sqlite_8.csv'
p1
(dp2
S'../Data/sqlite_59.csv'
p3
(dp4
F0.05
(dp5
S'mmre'
p6
(dp7
S'bellwether'
p8
(lp9
cnumpy.core.multiarray
scalar
p10
(cnumpy
dtype
p11
(S'f8'
p12
I0
I1
tp13
Rp14
(I3
S'<'
p15
NNNI-1
I-1
I0
tp16
bS'\xaeO\xfa>\\<T@'
p17
tp18
Rp19
ag10
(g14
S'\x00]\x1czz<T@'
p20
tp21
Rp22
ag10
(g14
S'\xecY3\x1dV<T@'
p23
tp24
Rp25
ag10
(g14
S'\x02\x11Z\x83\xa5:T@'
p26
tp27
Rp28
ag10
(g14
S'\x9e\x145\xca\x969T@'
p29
tp30
Rp31
ag10
(g14
S'j\x9ft\xcek;T@'
p32
tp33
Rp34
ag10
(g14
S'\x84\xc7\x13\xa0\xcd:T@'
p35
tp36
Rp37
ag10
(g14
S'\x9c*/\xd5\xaa:T@'
p38
tp39
Rp40
ag10
(g14
S'E\xd7\xa6\xaa\x8b<T@'
p41
tp42
Rp43
ag10
(g14
S'd9\xf97\\;T@'
p44
tp45
Rp46
ag10
(g14
S'dx\xe9\x8e\xc1<T@'
p47
tp48
Rp49
ag10
(g14
S'\x9b\xa6\xe5\x10a=T@'
p50
tp51
Rp52
ag10
(g14
S'\xb3U\xdc\xcam;T@'
p53
tp54
Rp55
ag10
(g14
S'P@M\x0c\x82;T@'
p56
tp57
Rp58
ag10
(g14
S'\xc7\xb2\t\x1e\xe3:T@'
p59
tp60
Rp61
ag10
(g14
S'M\xcb$\xbcY9T@'
p62
tp63
Rp64
ag10
(g14
S'N\xeaM<\x12;T@'
p65
tp66
Rp67
ag10
(g14
S'\x8c\x07u\xdeu<T@'
p68
tp69
Rp70
ag10
(g14
S'\x85\xadO\x07\x8d;T@'
p71
tp72
Rp73
ag10
(g14
S'd~*Yr<T@'
p74
tp75
Rp76
asS'target'
p77
(lp78
g10
(g14
S'p\x11d:\x16\xfc&@'
p79
tp80
Rp81
ag10
(g14
S'\xfc]\xa3\x07\\\xaa$@'
p82
tp83
Rp84
ag10
(g14
S'6;\xed\xd5\x14m+@'
p85
tp86
Rp87
ag10
(g14
S'\xdc\x11\xc7$\xe2\xd1%@'
p88
tp89
Rp90
ag10
(g14
S'\xa54\xa6_.\xc9%@'
p91
tp92
Rp93
ag10
(g14
S'@7\xfa\xa6\xfa\xde(@'
p94
tp95
Rp96
ag10
(g14
S"Bk\xda\xa9Nr'@"
p97
tp98
Rp99
ag10
(g14
S'DUQ\xab\xc3\xc6&@'
p100
tp101
Rp102
ag10
(g14
S'\xf8\x02^l\x93{%@'
p103
tp104
Rp105
ag10
(g14
S'\xd0\x04S\xec\x8f\x05%@'
p106
tp107
Rp108
ag10
(g14
S"'\x1a\r\xe4\x00\xb0$@"
p109
tp110
Rp111
ag10
(g14
S'\xc5\xad\xebJ\x1fi#@'
p112
tp113
Rp114
ag10
(g14
S'v\xab\x1f\x05j\xf1(@'
p115
tp116
Rp117
ag10
(g14
S'k\xb8q\x04r_#@'
p118
tp119
Rp120
ag10
(g14
S'\xdc.\xc8[\xf2\x99%@'
p121
tp122
Rp123
ag10
(g14
S'\xf0O\x99\xe3\xb7\xff*@'
p124
tp125
Rp126
ag10
(g14
S'nqLM\xd1\xee%@'
p127
tp128
Rp129
ag10
(g14
S'r\xab \xc6z\xc7!@'
p130
tp131
Rp132
ag10
(g14
S'\x8c\x94\x94\x92\xa0H$@'
p133
tp134
Rp135
ag10
(g14
S'\x08\xe2\x8dq%g#@'
p136
tp137
Rp138
asssss.