(dp0
S'../Data/sqlite_81.csv'
p1
(dp2
S'../Data/sqlite_58.csv'
p3
(dp4
F0.35
(dp5
S'rank'
p6
(dp7
S'bellwether'
p8
(lp9
I150
aI197
aI196
aI180
aI191
aI142
aI187
aI184
aI11
aI189
aI8
aI141
aI185
aI186
aI185
aI189
aI187
aI194
aI189
aI181
asS'target'
p10
(lp11
I31
aI115
aI110
aI9
aI14
aI7
aI60
aI34
aI91
aI66
aI143
aI13
aI72
aI87
aI75
aI70
aI44
aI5
aI4
aI51
asssss.