(dp0
S'../Data/sqlite_18.csv'
p1
(dp2
S'../Data/sqlite_50.csv'
p3
(dp4
F0.35
(dp5
S'abs_res'
p6
(dp7
S'bellwether'
p8
(lp9
cnumpy.core.multiarray
scalar
p10
(cnumpy
dtype
p11
(S'f8'
p12
I0
I1
tp13
Rp14
(I3
S'<'
p15
NNNI-1
I-1
I0
tp16
bS'-x0/\xab99A'
p17
tp18
Rp19
ag10
(g14
S'LS*.l99A'
p20
tp21
Rp22
ag10
(g14
S'c\xabc\xe2E<9A'
p23
tp24
Rp25
ag10
(g14
S'\x81\xdck\xce\xac79A'
p26
tp27
Rp28
ag10
(g14
S'\x92\x88\x88\x88{79A'
p29
tp30
Rp31
ag10
(g14
S'\xc9\xf5(|}99A'
p32
tp33
Rp34
ag10
(g14
S'\xa6T\x9c\xdd\xab89A'
p35
tp36
Rp37
ag10
(g14
S'Q*\xce~\x0f89A'
p38
tp39
Rp40
ag10
(g14
S'\xafrhq\xf179A'
p41
tp42
Rp43
ag10
(g14
S'\xa6\x1a/]\xed89A'
p44
tp45
Rp46
ag10
(g14
S'\xdaMb\x10\x0f89A'
p47
tp48
Rp49
ag10
(g14
S'\xe2\xd0"{\xfc:9A'
p50
tp51
Rp52
ag10
(g14
S'\xf8S\xe3\x05f99A'
p53
tp54
Rp55
ag10
(g14
S'e\x1f>\xa3\x9589A'
p56
tp57
Rp58
ag10
(g14
S'\xe8\x96\xb5\xfa\xe899A'
p59
tp60
Rp61
ag10
(g14
S'M\xe1z\xf4\x8e99A'
p62
tp63
Rp64
ag10
(g14
S'Fo\xcbZ%:9A'
p65
tp66
Rp67
ag10
(g14
S'\x19\xf7\x9a+\xc989A'
p68
tp69
Rp70
ag10
(g14
S'\x02\x9b\x0bi\x8499A'
p71
tp72
Rp73
ag10
(g14
S'HS*.o79A'
p74
tp75
Rp76
asS'target'
p77
(lp78
g10
(g14
S'3\xdd$\x06\x81AT@'
p79
tp80
Rp81
ag10
(g14
S'\xafrh\x91\xed4T@'
p82
tp83
Rp84
ag10
(g14
S'xh\x91\xed|CU@'
p85
tp86
Rp87
ag10
(g14
S'\x14\x83\xc0\xca\xa1\xfdT@'
p88
tp89
Rp90
ag10
(g14
S'$\xb0rh\x91)T@'
p91
tp92
Rp93
ag10
(g14
S'\x9dn\x12\x83\xc0\xcaU@'
p94
tp95
Rp96
ag10
(g14
S'K\x0c\x02+\x87zT@'
p97
tp98
Rp99
ag10
(g14
S'9\x89A`\xe5\xb8T@'
p100
tp101
Rp102
ag10
(g14
S'\x9b\xed|?5\xd6T@'
p103
tp104
Rp105
ag10
(g14
S'\xd9Mb\x10X9S@'
p106
tp107
Rp108
ag10
(g14
S'y\x93\x18\x04V\x02S@'
p109
tp110
Rp111
ag10
(g14
S'\x00\x00\x00\x00\x00\xf0T@'
p112
tp113
Rp114
ag10
(g14
S'\xca\xcc\xcc\xcc\xcc\x88S@'
p115
tp116
Rp117
ag10
(g14
S'=\n\xd7\xa3p\x85T@'
p118
tp119
Rp120
ag10
(g14
S'\x12\xaeG\xe1z\xccT@'
p121
tp122
Rp123
ag10
(g14
S'\x9a\x99\x99\x99\x99eS@'
p124
tp125
Rp126
ag10
(g14
S'\xa7p=\n\xd7\x93U@'
p127
tp128
Rp129
ag10
(g14
S'A`\xe5\xd0"\x9fT@'
p130
tp131
Rp132
ag10
(g14
S'\x90\x97n\x12\x83\xe0U@'
p133
tp134
Rp135
ag10
(g14
S'Pb\x10X9\xc4U@'
p136
tp137
Rp138
asssss.