(dp0
S'../Data/sqlite_62.csv'
p1
(dp2
S'../Data/sqlite_95.csv'
p3
(dp4
F0.15
(dp5
S'mmre'
p6
(dp7
S'bellwether'
p8
(lp9
cnumpy.core.multiarray
scalar
p10
(cnumpy
dtype
p11
(S'f8'
p12
I0
I1
tp13
Rp14
(I3
S'<'
p15
NNNI-1
I-1
I0
tp16
bS'_\n*\x86saX@'
p17
tp18
Rp19
ag10
(g14
S'02\x1c\xdb\xa2`X@'
p20
tp21
Rp22
ag10
(g14
S'\x9f\xd1\xacN\xf9^X@'
p23
tp24
Rp25
ag10
(g14
S'\xd8\xbdl\xc5\xcd_X@'
p26
tp27
Rp28
ag10
(g14
S'M\xba\x94P8_X@'
p29
tp30
Rp31
ag10
(g14
S'0\x9c)j\x81aX@'
p32
tp33
Rp34
ag10
(g14
S'C\x91&\xdc\xd1_X@'
p35
tp36
Rp37
ag10
(g14
S'Vo>c\x8f`X@'
p38
tp39
Rp40
ag10
(g14
S'\xbc\x9a\x14\x0c]_X@'
p41
tp42
Rp43
ag10
(g14
S'vg\x10\x86\xca_X@'
p44
tp45
Rp46
ag10
(g14
S'z^\xb2\\Y`X@'
p47
tp48
Rp49
ag10
(g14
S'\xe3\x0e\xe2o\xcf_X@'
p50
tp51
Rp52
ag10
(g14
S'kG\x9b\x99zaX@'
p53
tp54
Rp55
ag10
(g14
S'bgO+\xc0_X@'
p56
tp57
Rp58
ag10
(g14
S"j'\xe0\x89\xd9aX@"
p59
tp60
Rp61
ag10
(g14
S'\xb8i\x14\xe9\xa8_X@'
p62
tp63
Rp64
ag10
(g14
S'\xd1\ra\x80\xee`X@'
p65
tp66
Rp67
ag10
(g14
S'A\xf2%\xe3S`X@'
p68
tp69
Rp70
ag10
(g14
S'^\xe1\xb2\n\xae`X@'
p71
tp72
Rp73
ag10
(g14
S'\x97\xf3=\x9b\xfa_X@'
p74
tp75
Rp76
asS'target'
p77
(lp78
g10
(g14
S']\x1dT\xc1"K@@'
p79
tp80
Rp81
ag10
(g14
S'\x11J\xbctz\x11?@'
p82
tp83
Rp84
ag10
(g14
S'&\xe5\x83Y\xb0%B@'
p85
tp86
Rp87
ag10
(g14
S'\x00\xc8\x93\x14\xca\xffA@'
p88
tp89
Rp90
ag10
(g14
S'N\x1e\x8f\xb9-9D@'
p91
tp92
Rp93
ag10
(g14
S'F\xee\xb1\xa5z\xb2B@'
p94
tp95
Rp96
ag10
(g14
S't\x19\x91\xb7i!@@'
p97
tp98
Rp99
ag10
(g14
S'\xb9\xe9h\xb4^\x1cB@'
p100
tp101
Rp102
ag10
(g14
S':0Z\xf2\x01QB@'
p103
tp104
Rp105
ag10
(g14
S'Tx2N\xb1\xfaB@'
p106
tp107
Rp108
ag10
(g14
S'\xfb\xacj\x10\xd5\xcb>@'
p109
tp110
Rp111
ag10
(g14
S'|\x9dft`{@@'
p112
tp113
Rp114
ag10
(g14
S'\x86\x8cu[\xcb\xc3B@'
p115
tp116
Rp117
ag10
(g14
S'I\x91\x90\x16m\xfaA@'
p118
tp119
Rp120
ag10
(g14
S'7\xe6\x9e\xd8\xbc\xee=@'
p121
tp122
Rp123
ag10
(g14
S'k\xd6T#\rX>@'
p124
tp125
Rp126
ag10
(g14
S'\xb8/+u|\xe1A@'
p127
tp128
Rp129
ag10
(g14
S'\xaf\xf7aX\x1e[?@'
p130
tp131
Rp132
ag10
(g14
S'E\xc2\x02&\xb4\x1dB@'
p133
tp134
Rp135
ag10
(g14
S'%\xc3{\xa4\xe2\xa0E@'
p136
tp137
Rp138
asssss.