(dp0
S'../Data/sqlite_44.csv'
p1
(dp2
S'../Data/sqlite_96.csv'
p3
(dp4
F0.05
(dp5
S'mmre'
p6
(dp7
S'bellwether'
p8
(lp9
cnumpy.core.multiarray
scalar
p10
(cnumpy
dtype
p11
(S'f8'
p12
I0
I1
tp13
Rp14
(I3
S'<'
p15
NNNI-1
I-1
I0
tp16
bS'Q\xf2*+iLW@'
p17
tp18
Rp19
ag10
(g14
S'\xbd\xa2\xb1\x93\xbcIW@'
p20
tp21
Rp22
ag10
(g14
S'\x07\x03\xda\xd37LW@'
p23
tp24
Rp25
ag10
(g14
S'\xf0"Y\xdb\xceIW@'
p26
tp27
Rp28
ag10
(g14
S'\xfb\xeb\x1bJ\x16KW@'
p29
tp30
Rp31
ag10
(g14
S'\xeb\x81iq\xd1JW@'
p32
tp33
Rp34
ag10
(g14
S'<\xbb\x13?\xb0IW@'
p35
tp36
Rp37
ag10
(g14
S'\x1f\x15#\x9azJW@'
p38
tp39
Rp40
ag10
(g14
S'\x82c\xb2W\xfaKW@'
p41
tp42
Rp43
ag10
(g14
S'w\xe4u\xb5GIW@'
p44
tp45
Rp46
ag10
(g14
S'TKn\x81\x87KW@'
p47
tp48
Rp49
ag10
(g14
S'\xa9e\x0b%\x1eLW@'
p50
tp51
Rp52
ag10
(g14
S'\x99~UalLW@'
p53
tp54
Rp55
ag10
(g14
S'\x17oI\xea\x8bIW@'
p56
tp57
Rp58
ag10
(g14
S'9\xa2\xb7]EKW@'
p59
tp60
Rp61
ag10
(g14
S'\xf8Xu\xe9iIW@'
p62
tp63
Rp64
ag10
(g14
S'~\xee=\xbf\xe6JW@'
p65
tp66
Rp67
ag10
(g14
S'j\xf9\xec&*KW@'
p68
tp69
Rp70
ag10
(g14
S'\n)\xe2\xe8\xbdKW@'
p71
tp72
Rp73
ag10
(g14
S'\x1b8C\xa2\xc3IW@'
p74
tp75
Rp76
asS'target'
p77
(lp78
g10
(g14
S'\xec\xfc\x0f\x19g\xb9;@'
p79
tp80
Rp81
ag10
(g14
S'L[\xa1b\x03\x8fE@'
p82
tp83
Rp84
ag10
(g14
S'"I\xef)\xe6\x10W@'
p85
tp86
Rp87
ag10
(g14
S'\x01#\x0e\xb2\xb4AZ@'
p88
tp89
Rp90
ag10
(g14
S'\x92\x06\xc7\x00\x17\xb6[@'
p91
tp92
Rp93
ag10
(g14
S'\xd9\x11-\xcd\xcf-J@'
p94
tp95
Rp96
ag10
(g14
S'\x8bgq-c6S@'
p97
tp98
Rp99
ag10
(g14
S'\xe5\x01\x94\t\x91\x9bD@'
p100
tp101
Rp102
ag10
(g14
S'!@t{\x98\x01@@'
p103
tp104
Rp105
ag10
(g14
S'\xaa\xb1,o\x00\xd0X@'
p106
tp107
Rp108
ag10
(g14
S'H-7iG\xbdQ@'
p109
tp110
Rp111
ag10
(g14
S'\xbb8\xb6%\xa9jJ@'
p112
tp113
Rp114
ag10
(g14
S'\x85\xf1\xa3\x84}\xad@@'
p115
tp116
Rp117
ag10
(g14
S'&\x8a\x17)\xa8\xd4`@'
p118
tp119
Rp120
ag10
(g14
S'-[\xf9&\xf4fZ@'
p121
tp122
Rp123
ag10
(g14
S'H{\x80\x13\x91GS@'
p124
tp125
Rp126
ag10
(g14
S'\x14X\\\xaa\x9bMV@'
p127
tp128
Rp129
ag10
(g14
S'\x19\x16?\x88o]f@'
p130
tp131
Rp132
ag10
(g14
S'y\xc6\xd81\x04\xd4T@'
p133
tp134
Rp135
ag10
(g14
S'\xdb\xa4\xfc\x99b\xf9Y@'
p136
tp137
Rp138
asssss.