(dp0
S'../Data/sqlite_57.csv'
p1
(dp2
S'../Data/sqlite_2.csv'
p3
(dp4
F0.1
(dp5
S'abs_res'
p6
(dp7
S'bellwether'
p8
(lp9
cnumpy.core.multiarray
scalar
p10
(cnumpy
dtype
p11
(S'f8'
p12
I0
I1
tp13
Rp14
(I3
S'<'
p15
NNNI-1
I-1
I0
tp16
bS',\x89A\x10~5jA'
p17
tp18
Rp19
ag10
(g14
S'\x8c\x97n\xd6\xf5*jA'
p20
tp21
Rp22
ag10
(g14
S'\x1a\x85\xeb\xedT;jA'
p23
tp24
Rp25
ag10
(g14
S'(33\xbfV5jA'
p26
tp27
Rp28
ag10
(g14
S'\x90C\x8b(\xee9jA'
p29
tp30
Rp31
ag10
(g14
S'\xc0v\xbe;\xdb:jA'
p32
tp33
Rp34
ag10
(g14
S'\xf8(\\\xff\x163jA'
p35
tp36
Rp37
ag10
(g14
S'2^\xba-48jA'
p38
tp39
Rp40
ag10
(g14
S'+\\\x8f\xd2K9jA'
p41
tp42
Rp43
ag10
(g14
S'\x83\x18\x04^\xf8/jA'
p44
tp45
Rp46
ag10
(g14
S'\xf9\xab\x1c\xfea0jA'
p47
tp48
Rp49
ag10
(g14
S'\xa1\xc6K\xf7\n9jA'
p50
tp51
Rp52
ag10
(g14
S'-33\x83J9jA'
p53
tp54
Rp55
ag10
(g14
S'\xa4E\xb6o\x05*jA'
p56
tp57
Rp58
ag10
(g14
S'\x8c\x18\x04B\x118jA'
p59
tp60
Rp61
ag10
(g14
S'\x1cZd\xbfR7jA'
p62
tp63
Rp64
ag10
(g14
S'\xd4"\xdb\xd9\xc0-jA'
p65
tp66
Rp67
ag10
(g14
S'\xd6O\x8dS;2jA'
p68
tp69
Rp70
ag10
(g14
S'\x82\xc2\xf5<\xb44jA'
p71
tp72
Rp73
ag10
(g14
S'\xc7\xa1E\x8a\x1a4jA'
p74
tp75
Rp76
asS'target'
p77
(lp78
g10
(g14
S'\x95\x99\x99\x99\x99\xf1U@'
p79
tp80
Rp81
ag10
(g14
S'?\x8bl\xe7\xfb\x89R@'
p82
tp83
Rp84
ag10
(g14
S'\x12\xaeG\xe1z\xa4N@'
p85
tp86
Rp87
ag10
(g14
S'4\\\x8f\xc2\xf58U@'
p88
tp89
Rp90
ag10
(g14
S'\x90A`\xe5\xd06T@'
p91
tp92
Rp93
ag10
(g14
S'\xce\xa3p=\n\x17S@'
p94
tp95
Rp96
ag10
(g14
S'\xae\xc8v\xbe\x9f\xd2S@'
p97
tp98
Rp99
ag10
(g14
S'5^\xbaI\x0c\xaaS@'
p100
tp101
Rp102
ag10
(g14
S'Y\x0e-\xb2\x9dWR@'
p103
tp104
Rp105
ag10
(g14
S'\x85\x95C\x8bl_Y@'
p106
tp107
Rp108
ag10
(g14
S'\xf4(\\\x8f\xc2]R@'
p109
tp110
Rp111
ag10
(g14
S'\x89\xc0\xca\xa1E\xe6Y@'
p112
tp113
Rp114
ag10
(g14
S'`\xbaI\x0c\x02{Q@'
p115
tp116
Rp117
ag10
(g14
S'\x84\x97n\x12\x83XU@'
p118
tp119
Rp120
ag10
(g14
S'*3333\x0bU@'
p121
tp122
Rp123
ag10
(g14
S'w\x14\xaeG\xe1\xa2S@'
p124
tp125
Rp126
ag10
(g14
S'\xee\xfb\xa9\xf1\xd2\xd5P@'
p127
tp128
Rp129
ag10
(g14
S'\xec&1\x08\xac\x0cT@'
p130
tp131
Rp132
ag10
(g14
S'\xf5\xa7\xc6K7iT@'
p133
tp134
Rp135
ag10
(g14
S'\x8cj\xbct\x93\xe0W@'
p136
tp137
Rp138
asssss.