(dp0
S'../Data/sqlite_23.csv'
p1
(dp2
S'../Data/sqlite_92.csv'
p3
(dp4
F0.35
(dp5
S'mmre'
p6
(dp7
S'bellwether'
p8
(lp9
cnumpy.core.multiarray
scalar
p10
(cnumpy
dtype
p11
(S'f8'
p12
I0
I1
tp13
Rp14
(I3
S'<'
p15
NNNI-1
I-1
I0
tp16
bS'\x7f\xb1\xc3\x19\x02VQ@'
p17
tp18
Rp19
ag10
(g14
S'\xa8\xeb\xaeH\xb9GQ@'
p20
tp21
Rp22
ag10
(g14
S'\xebH\x8d\xa3EXQ@'
p23
tp24
Rp25
ag10
(g14
S'\xa9>\x8a\xa4 7Q@'
p26
tp27
Rp28
ag10
(g14
S'\xd3#T\xf2?\\Q@'
p29
tp30
Rp31
ag10
(g14
S'\xd51\xe6\xb0QDQ@'
p32
tp33
Rp34
ag10
(g14
S'\r9\xe4\xc9\tUQ@'
p35
tp36
Rp37
ag10
(g14
S'\xb6LQ\x1d0MQ@'
p38
tp39
Rp40
ag10
(g14
S'mP\xab\xe0\x02RQ@'
p41
tp42
Rp43
ag10
(g14
S'0\x0b\n\xff\x99HQ@'
p44
tp45
Rp46
ag10
(g14
S'n\xb2\xaeV\xcfCQ@'
p47
tp48
Rp49
ag10
(g14
S'\x0es\x02\x1f\x80VQ@'
p50
tp51
Rp52
ag10
(g14
S']Cc\xfaRMQ@'
p53
tp54
Rp55
ag10
(g14
S'qP\x18\x0b\xe3LQ@'
p56
tp57
Rp58
ag10
(g14
S'Tb(ZESQ@'
p59
tp60
Rp61
ag10
(g14
S'6YO\xc8\x085Q@'
p62
tp63
Rp64
ag10
(g14
S'\xc8\x8a\xeaPh>Q@'
p65
tp66
Rp67
ag10
(g14
S'u4,+iZQ@'
p68
tp69
Rp70
ag10
(g14
S'\x86\x8d\x10d\xa0=Q@'
p71
tp72
Rp73
ag10
(g14
S'k^\xc3\xbd\x80:Q@'
p74
tp75
Rp76
asS'target'
p77
(lp78
g10
(g14
S'b6\xbb\x8a+^O@'
p79
tp80
Rp81
ag10
(g14
S'2\xe8X)LyT@'
p82
tp83
Rp84
ag10
(g14
S'\xc4\xafF\xd6\xae(S@'
p85
tp86
Rp87
ag10
(g14
S'\x93\x10N\xb9G\x06V@'
p88
tp89
Rp90
ag10
(g14
S'Q\xbf\x8d\xa9\x85\xb0S@'
p91
tp92
Rp93
ag10
(g14
S'%\xb6\xa1p\xf9\xcbT@'
p94
tp95
Rp96
ag10
(g14
S'\xbd\xe2\xe8\x91\xe0%R@'
p97
tp98
Rp99
ag10
(g14
S'\xae\x85>"+=S@'
p100
tp101
Rp102
ag10
(g14
S'\xab\x19\x97\xc3\x8epT@'
p103
tp104
Rp105
ag10
(g14
S'\x17\xbf\xfdZM\x84V@'
p106
tp107
Rp108
ag10
(g14
S'6\xe8R\x1b\xad\xf9Y@'
p109
tp110
Rp111
ag10
(g14
S'\x07hz,%\xddN@'
p112
tp113
Rp114
ag10
(g14
S'\x85\xf7[\xe7}\x11R@'
p115
tp116
Rp117
ag10
(g14
S'\xdd\x00\xd6\x027uT@'
p118
tp119
Rp120
ag10
(g14
S'\x82\xf9\x16xZ\xa9Y@'
p121
tp122
Rp123
ag10
(g14
S'\x8c\xa1\x14\x13\xe0j[@'
p124
tp125
Rp126
ag10
(g14
S'`)Q\xba\x84;T@'
p127
tp128
Rp129
ag10
(g14
S';\xb5b\x14\x7f\x06Z@'
p130
tp131
Rp132
ag10
(g14
S'\xa0\x03Yo\x9e\xb7X@'
p133
tp134
Rp135
ag10
(g14
S'\xd5\xd7$+\xbc\x87S@'
p136
tp137
Rp138
asssss.