(dp0
S'../Data/sqlite_51.csv'
p1
(dp2
S'../Data/sqlite_59.csv'
p3
(dp4
F0.3
(dp5
S'mmre'
p6
(dp7
S'bellwether'
p8
(lp9
cnumpy.core.multiarray
scalar
p10
(cnumpy
dtype
p11
(S'f8'
p12
I0
I1
tp13
Rp14
(I3
S'<'
p15
NNNI-1
I-1
I0
tp16
bS'RhBPE&W@'
p17
tp18
Rp19
ag10
(g14
S'x\xbb\xa6Y\xcd$W@'
p20
tp21
Rp22
ag10
(g14
S'\x84jG\x94\x9f$W@'
p23
tp24
Rp25
ag10
(g14
S'\xbc\xbe\xbd\xd1\x81#W@'
p26
tp27
Rp28
ag10
(g14
S'\x94\xc9\xef\xe8 %W@'
p29
tp30
Rp31
ag10
(g14
S'\xdf\n\xb6\xaf\xa2#W@'
p32
tp33
Rp34
ag10
(g14
S'_\x14\xebXT&W@'
p35
tp36
Rp37
ag10
(g14
S"\x85\x8di\x8b\x13'W@"
p38
tp39
Rp40
ag10
(g14
S'0\xd2\xcd9w%W@'
p41
tp42
Rp43
ag10
(g14
S'\x11\xff\xaf\xb3\xba$W@'
p44
tp45
Rp46
ag10
(g14
S'\xb4\xdf\xa0\xe8\xd8#W@'
p47
tp48
Rp49
ag10
(g14
S'\xa6v\xef\x8fN%W@'
p50
tp51
Rp52
ag10
(g14
S'\x9d.\xbd8S)W@'
p53
tp54
Rp55
ag10
(g14
S'?\xafuP\xf4%W@'
p56
tp57
Rp58
ag10
(g14
S'Y\xb0\xe6\x9b\xf7"W@'
p59
tp60
Rp61
ag10
(g14
S'\x88\xb2\xfd@\\&W@'
p62
tp63
Rp64
ag10
(g14
S'\x19\xe1Ib\n$W@'
p65
tp66
Rp67
ag10
(g14
S'\xb0\xb7k\x9b\xc3&W@'
p68
tp69
Rp70
ag10
(g14
S'Y\xfd.|\x0c&W@'
p71
tp72
Rp73
ag10
(g14
S"n\xe4r\x14\x15'W@"
p74
tp75
Rp76
asS'target'
p77
(lp78
g10
(g14
S'\xe9\x1eN\x96\x14\x14$@'
p79
tp80
Rp81
ag10
(g14
S'\xc0\xf2Z0hv&@'
p82
tp83
Rp84
ag10
(g14
S'\xb9~9\xd1\xf4"&@'
p85
tp86
Rp87
ag10
(g14
S'sI\xa1\x8e\xd9\x8a&@'
p88
tp89
Rp90
ag10
(g14
S'\x1b3\n\x0f\x92O&@'
p91
tp92
Rp93
ag10
(g14
S'hF\xb4\x1d\xa2*%@'
p94
tp95
Rp96
ag10
(g14
S'b)F\xb1h\xc1&@'
p97
tp98
Rp99
ag10
(g14
S'dU\xa4\xc8{\xa4%@'
p100
tp101
Rp102
ag10
(g14
S"+o'\xf5UN&@"
p103
tp104
Rp105
ag10
(g14
S'\x1bb\xfe\xfbK\x1e%@'
p106
tp107
Rp108
ag10
(g14
S'\x8ep#\xa8\xd3\xda%@'
p109
tp110
Rp111
ag10
(g14
S'\xcdVNS\xd6r%@'
p112
tp113
Rp114
ag10
(g14
S'\xb6\xd9?H\xcc/$@'
p115
tp116
Rp117
ag10
(g14
S'\xc2\xdd\xba\x9a\x14\x05&@'
p118
tp119
Rp120
ag10
(g14
S"sa\x1c\xd5\xe1\xd8'@"
p121
tp122
Rp123
ag10
(g14
S'\x00*\xb4\xae\xfb\x9e#@'
p124
tp125
Rp126
ag10
(g14
S'pe\xc3\x8a.\xa8&@'
p127
tp128
Rp129
ag10
(g14
S'\xbeS\xb2yFq%@'
p130
tp131
Rp132
ag10
(g14
S'\xc0I\xe1#\xa3\x15%@'
p133
tp134
Rp135
ag10
(g14
S'\x01\x0et\xc6\xe3\xc1%@'
p136
tp137
Rp138
asssss.