(dp0
S'../Data/sqlite_18.csv'
p1
(dp2
S'../Data/sqlite_19.csv'
p3
(dp4
F0.4
(dp5
S'abs_res'
p6
(dp7
S'bellwether'
p8
(lp9
cnumpy.core.multiarray
scalar
p10
(cnumpy
dtype
p11
(S'f8'
p12
I0
I1
tp13
Rp14
(I3
S'<'
p15
NNNI-1
I-1
I0
tp16
bS'\x90{\xcdE127A'
p17
tp18
Rp19
ag10
(g14
S'.\xce>\xfc-87A'
p20
tp21
Rp22
ag10
(g14
S'Q~\xb1\xe4\xb747A'
p23
tp24
Rp25
ag10
(g14
S'\xce\x06:\x8d:67A'
p26
tp27
Rp28
ag10
(g14
S'\xb08\xfb\x90[67A'
p29
tp30
Rp31
ag10
(g14
S'<\xd0i#\xf787A'
p32
tp33
Rp34
ag10
(g14
S'\xbcI\x0c\x02{67A'
p35
tp36
Rp37
ag10
(g14
S'\xa4E\xb6\x13q57A'
p38
tp39
Rp40
ag10
(g14
S'e\xc9/\x96\x1657A'
p41
tp42
Rp43
ag10
(g14
S'SUU\xd5\xa657A'
p44
tp45
Rp46
ag10
(g14
S'x\xf6\xe1s\x8557A'
p47
tp48
Rp49
ag10
(g14
S'\xde\xb2Vg\xd257A'
p50
tp51
Rp52
ag10
(g14
S'\x83\xb1\xe4\xd7\xca67A'
p53
tp54
Rp55
ag10
(g14
S'V\x0e-2s87A'
p56
tp57
Rp58
ag10
(g14
S'\xbe\x9f\x1aO\xd347A'
p59
tp60
Rp61
ag10
(g14
S'\xd8\\H\xfa\xb457A'
p62
tp63
Rp64
ag10
(g14
S'\xf4`\x9e\xa8\xda67A'
p65
tp66
Rp67
ag10
(g14
S'>`\xe5P,57A'
p68
tp69
Rp70
ag10
(g14
S'A\xd2\x94j\xee57A'
p71
tp72
Rp73
ag10
(g14
S'/\\\x8f\x02\xd177A'
p74
tp75
Rp76
asS'target'
p77
(lp78
g10
(g14
S'\xcbK7\x89A(Q@'
p79
tp80
Rp81
ag10
(g14
S'\xa1p=\n\xd7\x07R@'
p82
tp83
Rp84
ag10
(g14
S'\xb1G\xe1z\x14\x02Q@'
p85
tp86
Rp87
ag10
(g14
S'\xdez\x14\xaeG)Q@'
p88
tp89
Rp90
ag10
(g14
S'\xa5\xc4 \xb0r0Q@'
p91
tp92
Rp93
ag10
(g14
S'\xf8(\\\x8f\xc2\xd5Q@'
p94
tp95
Rp96
ag10
(g14
S'\x93\xa6T\x9c}(R@'
p97
tp98
Rp99
ag10
(g14
S'?\n\xd7\xa3p-P@'
p100
tp101
Rp102
ag10
(g14
S'\x12\x83\xc0\xca\xa1\x95P@'
p103
tp104
Rp105
ag10
(g14
S'73333\xc3P@'
p106
tp107
Rp108
ag10
(g14
S'}?5^\xba\xb1P@'
p109
tp110
Rp111
ag10
(g14
S'\xcd\xa1E\xb6\xf35Q@'
p112
tp113
Rp114
ag10
(g14
S'\xbe\x1e\x85\xebQpP@'
p115
tp116
Rp117
ag10
(g14
S'~j\xbct\x93\x90O@'
p118
tp119
Rp120
ag10
(g14
S'4\x08\xac\x1cZLP@'
p121
tp122
Rp123
ag10
(g14
S'\x13\x83\xc0\xca\xa1\rR@'
p124
tp125
Rp126
ag10
(g14
S'\xd2Mb\x10XQQ@'
p127
tp128
Rp129
ag10
(g14
S'\x93\xc2\xf5(\\\xc7Q@'
p130
tp131
Rp132
ag10
(g14
S'T\x0c\x02+\x876Q@'
p133
tp134
Rp135
ag10
(g14
S'\xfc*\x87\x16\xd9FQ@'
p136
tp137
Rp138
asssss.