(dp0
S'../Data/sqlite_2.csv'
p1
(dp2
S'../Data/sqlite_78.csv'
p3
(dp4
F0.05
(dp5
S'mmre'
p6
(dp7
S'bellwether'
p8
(lp9
cnumpy.core.multiarray
scalar
p10
(cnumpy
dtype
p11
(S'f8'
p12
I0
I1
tp13
Rp14
(I3
S'<'
p15
NNNI-1
I-1
I0
tp16
bS'\x9e\xdf"BSkN@'
p17
tp18
Rp19
ag10
(g14
S'i[-\xbe\x98aN@'
p20
tp21
Rp22
ag10
(g14
S'\x93\x90\x1cE\xf1gN@'
p23
tp24
Rp25
ag10
(g14
S'L\xc8!\xcc,cN@'
p26
tp27
Rp28
ag10
(g14
S'\xa4\xae+\xf4\x7ffN@'
p29
tp30
Rp31
ag10
(g14
S'\x9aH\x92\xbb\x98iN@'
p32
tp33
Rp34
ag10
(g14
S'\r\x80\x0cYowN@'
p35
tp36
Rp37
ag10
(g14
S'f\xae79/aN@'
p38
tp39
Rp40
ag10
(g14
S'\xecW1\xba7eN@'
p41
tp42
Rp43
ag10
(g14
S'\x98*\x0c\xc3JWN@'
p44
tp45
Rp46
ag10
(g14
S'\x96\xb8K\x1a\xc6^N@'
p47
tp48
Rp49
ag10
(g14
S'\x02)Y\x8c9bN@'
p50
tp51
Rp52
ag10
(g14
S"\xcc'\xef\xb0WcN@"
p53
tp54
Rp55
ag10
(g14
S'_\xe3\xa7\x90\x08]N@'
p56
tp57
Rp58
ag10
(g14
S'Q\xee\xb0\x03daN@'
p59
tp60
Rp61
ag10
(g14
S'\xa4\x7f\xf3\x14zeN@'
p62
tp63
Rp64
ag10
(g14
S'l/1\xde\x7fiN@'
p65
tp66
Rp67
ag10
(g14
S'XIi\xb2\x1dfN@'
p68
tp69
Rp70
ag10
(g14
S'\xbd\x99\x84\x92?iN@'
p71
tp72
Rp73
ag10
(g14
S'\xc7\xc0P\xe1\xcbeN@'
p74
tp75
Rp76
asS'target'
p77
(lp78
g10
(g14
S'\xc2\x89\x93\xcbP\xba5@'
p79
tp80
Rp81
ag10
(g14
S'\xee\xacM\x1ai\xde5@'
p82
tp83
Rp84
ag10
(g14
S'*\x08\x105yz3@'
p85
tp86
Rp87
ag10
(g14
S'\xaf\xa1f\x8ea\x804@'
p88
tp89
Rp90
ag10
(g14
S'\xf0YtT\x16\xb33@'
p91
tp92
Rp93
ag10
(g14
S'\x16\xf4\x0eL/\xea4@'
p94
tp95
Rp96
ag10
(g14
S'\x1aQ\x8f\xb6x{1@'
p97
tp98
Rp99
ag10
(g14
S'\xd7\x1d\x8bo\x99\t3@'
p100
tp101
Rp102
ag10
(g14
S'\xe0:?@\r\xf83@'
p103
tp104
Rp105
ag10
(g14
S'/\xfaM\xa1\x1f\x7f7@'
p106
tp107
Rp108
ag10
(g14
S'AvT\x0b\xb5\xfd1@'
p109
tp110
Rp111
ag10
(g14
S'\xae\x80\xe3\xb9\x7f\xef4@'
p112
tp113
Rp114
ag10
(g14
S'\x91;\xf7\xbf\t?2@'
p115
tp116
Rp117
ag10
(g14
S'\x9e\x83wt\xd1\xa35@'
p118
tp119
Rp120
ag10
(g14
S'\x9cX@7:r5@'
p121
tp122
Rp123
ag10
(g14
S'y!<\x1d3\xdd4@'
p124
tp125
Rp126
ag10
(g14
S'\x15\xf4\xdc(:14@'
p127
tp128
Rp129
ag10
(g14
S'\x84\x92\xa7\xe3Gz3@'
p130
tp131
Rp132
ag10
(g14
S'\x8a\x1b\xa2h\xc4\xb74@'
p133
tp134
Rp135
ag10
(g14
S'\x15\x7f\xd2\xaf\xd5u5@'
p136
tp137
Rp138
asssss.