(dp0
S'../Data/sqlite_15.csv'
p1
(dp2
S'../Data/sqlite_30.csv'
p3
(dp4
F0.1
(dp5
S'abs_res'
p6
(dp7
S'bellwether'
p8
(lp9
cnumpy.core.multiarray
scalar
p10
(cnumpy
dtype
p11
(S'f8'
p12
I0
I1
tp13
Rp14
(I3
S'<'
p15
NNNI-1
I-1
I0
tp16
bS'\x8dPF\xff\xb5/AA'
p17
tp18
Rp19
ag10
(g14
S's\xcbZ\xfd*0AA'
p20
tp21
Rp22
ag10
(g14
S'D`\xe5\x00\x160AA'
p23
tp24
Rp25
ag10
(g14
S'\xd3x\xe9&\xca/AA'
p26
tp27
Rp28
ag10
(g14
S'\x14\xaeG\x11\x1e0AA'
p29
tp30
Rp31
ag10
(g14
S'3\xc1\x83\xc9i/AA'
p32
tp33
Rp34
ag10
(g14
S'o=\nW\xbb/AA'
p35
tp36
Rp37
ag10
(g14
S'\xa6p=\xfa\x160AA'
p38
tp39
Rp40
ag10
(g14
S'm\xbctc\xdf/AA'
p41
tp42
Rp43
ag10
(g14
S'^\x1d\x13\xac\xa5/AA'
p44
tp45
Rp46
ag10
(g14
S'*1\x08\x9c\xcf/AA'
p47
tp48
Rp49
ag10
(g14
S'\rX9\xb4\x920AA'
p50
tp51
Rp52
ag10
(g14
S'\xc9K7\xa9\xd9/AA'
p53
tp54
Rp55
ag10
(g14
S'P\xf0`\xde\xe2/AA'
p56
tp57
Rp58
ag10
(g14
S'\xb3G\xe1\xba\xc3/AA'
p59
tp60
Rp61
ag10
(g14
S'}j\xbc\xf4\x10/AA'
p62
tp63
Rp64
ag10
(g14
S"\xb2\x00\xb9'\xb7/AA"
p65
tp66
Rp67
ag10
(g14
S'\x83\x14\xae\xc7\xdb/AA'
p68
tp69
Rp70
ag10
(g14
S'%\x85\xeb\xb18/AA'
p71
tp72
Rp73
ag10
(g14
S'm\xbctC\xe9/AA'
p74
tp75
Rp76
asS'target'
p77
(lp78
g10
(g14
S'i;\xdfO\x8d\x87@@'
p79
tp80
Rp81
ag10
(g14
S'\xab\x9b\xc4 \xb0\xc2G@'
p82
tp83
Rp84
ag10
(g14
S'\xb3rh\x91\xed\xacB@'
p85
tp86
Rp87
ag10
(g14
S'R7\x89A`\xe5C@'
p88
tp89
Rp90
ag10
(g14
S'\xc6\xa1E\xb6\xf3\x9dF@'
p91
tp92
Rp93
ag10
(g14
S'\x96\x18\x04V\x0e\xb5H@'
p94
tp95
Rp96
ag10
(g14
S'\xb3\xf1\xd2Mb\xe8@@'
p97
tp98
Rp99
ag10
(g14
S'\xe0O\x8d\x97nbG@'
p100
tp101
Rp102
ag10
(g14
S'(Zd;\xdf\x9fE@'
p103
tp104
Rp105
ag10
(g14
S'\xdf\xf9~j\xbcdE@'
p106
tp107
Rp108
ag10
(g14
S'\x01\xaa\xf1\xd2M\xd2F@'
p109
tp110
Rp111
ag10
(g14
S'l\xbct\x93\x18d@@'
p112
tp113
Rp114
ag10
(g14
S'\xab\xc6K7\x89\xf1B@'
p115
tp116
Rp117
ag10
(g14
S':\x89A`\xe5@A@'
p118
tp119
Rp120
ag10
(g14
S';\xb2\x9d\xef\xa7\xd6C@'
p121
tp122
Rp123
ag10
(g14
S'\x07\x7fj\xbct\x93I@'
p124
tp125
Rp126
ag10
(g14
S'{h\x91\xed|?G@'
p127
tp128
Rp129
ag10
(g14
S'\x95\x99\x99\x99\x99Y=@'
p130
tp131
Rp132
ag10
(g14
S'4\xdd$\x06\x815C@'
p133
tp134
Rp135
ag10
(g14
S'\x99C\x8bl\xe7;D@'
p136
tp137
Rp138
asssss.