(dp0
S'../Data/sqlite_31.csv'
p1
(dp2
S'../Data/sqlite_90.csv'
p3
(dp4
F0.05
(dp5
S'mmre'
p6
(dp7
S'bellwether'
p8
(lp9
cnumpy.core.multiarray
scalar
p10
(cnumpy
dtype
p11
(S'f8'
p12
I0
I1
tp13
Rp14
(I3
S'<'
p15
NNNI-1
I-1
I0
tp16
bS'F\xef;\x83\x9eaV@'
p17
tp18
Rp19
ag10
(g14
S'\xd8x=3IgV@'
p20
tp21
Rp22
ag10
(g14
S'-(\xe7\xb0\xf8eV@'
p23
tp24
Rp25
ag10
(g14
S'6\x06\xa1t\xdc_V@'
p26
tp27
Rp28
ag10
(g14
S'\xa2"\xb7&NiV@'
p29
tp30
Rp31
ag10
(g14
S'\xe4\\\x96\xc6qcV@'
p32
tp33
Rp34
ag10
(g14
S'\xe9K\x81\x08\xdddV@'
p35
tp36
Rp37
ag10
(g14
S'\xf2k\x00\xa8V`V@'
p38
tp39
Rp40
ag10
(g14
S'\x13iZ.\xf4^V@'
p41
tp42
Rp43
ag10
(g14
S'\xbbD\xf7\xdd\x98`V@'
p44
tp45
Rp46
ag10
(g14
S'\x9b],\x9e&_V@'
p47
tp48
Rp49
ag10
(g14
S'\x16E\xc3\x8d\x9bcV@'
p50
tp51
Rp52
ag10
(g14
S'Vy\xf2\xd6\xe6lV@'
p53
tp54
Rp55
ag10
(g14
S'\x90a\xb6\xad|`V@'
p56
tp57
Rp58
ag10
(g14
S'\xafV\xbd\xb7X`V@'
p59
tp60
Rp61
ag10
(g14
S'\x14U4\xebp`V@'
p62
tp63
Rp64
ag10
(g14
S'(\xf9\xd8\x8bKeV@'
p65
tp66
Rp67
ag10
(g14
S'\x88\x9c\xb9g\njV@'
p68
tp69
Rp70
ag10
(g14
S'\x00{uU\x94cV@'
p71
tp72
Rp73
ag10
(g14
S'\x08\x12\xe0L{eV@'
p74
tp75
Rp76
asS'target'
p77
(lp78
g10
(g14
S'\x1e` \x82\xbd-B@'
p79
tp80
Rp81
ag10
(g14
S'V"n\xf1\xaeXD@'
p82
tp83
Rp84
ag10
(g14
S'(\xfc\x9d\rN`D@'
p85
tp86
Rp87
ag10
(g14
S'|\xc9\r\r\xd3wB@'
p88
tp89
Rp90
ag10
(g14
S'\x13\x0c\xeb\x9f\xd4uA@'
p91
tp92
Rp93
ag10
(g14
S'\xa7H_\xcc\x8b7D@'
p94
tp95
Rp96
ag10
(g14
S'\xe9\xfd\xd41\xae\xab=@'
p97
tp98
Rp99
ag10
(g14
S'\x8a1S\xb7\xb1\x95@@'
p100
tp101
Rp102
ag10
(g14
S'\x89\xd6\x1c\x8f)\xe3A@'
p103
tp104
Rp105
ag10
(g14
S'\xd0\xdb\x8c\x0c\x033A@'
p106
tp107
Rp108
ag10
(g14
S'\xf4\xd3\x95\xff\xd5\xb3C@'
p109
tp110
Rp111
ag10
(g14
S'\x05\xd2S\x90\xfe\xe3B@'
p112
tp113
Rp114
ag10
(g14
S'\xcb\t\x9c\xc4\x8d\x8bB@'
p115
tp116
Rp117
ag10
(g14
S'2\x99\x05{\xb9\xc9@@'
p118
tp119
Rp120
ag10
(g14
S'\xfb\x13\xde\x03\x01\x16>@'
p121
tp122
Rp123
ag10
(g14
S'Gk\xb5?\x08\xfa?@'
p124
tp125
Rp126
ag10
(g14
S'~|\r\x90\x18\xd8B@'
p127
tp128
Rp129
ag10
(g14
S'\rF4\x19M\rD@'
p130
tp131
Rp132
ag10
(g14
S'/8\xa1\xaf\xbcsB@'
p133
tp134
Rp135
ag10
(g14
S'\xc8\x8bU \xae\x0fA@'
p136
tp137
Rp138
asssss.