(dp0
S'../Data/sqlite_28.csv'
p1
(dp2
S'../Data/sqlite_63.csv'
p3
(dp4
F0.4
(dp5
S'mmre'
p6
(dp7
S'bellwether'
p8
(lp9
cnumpy.core.multiarray
scalar
p10
(cnumpy
dtype
p11
(S'f8'
p12
I0
I1
tp13
Rp14
(I3
S'<'
p15
NNNI-1
I-1
I0
tp16
bS'F\xf7\x1b\xcdZ&R@'
p17
tp18
Rp19
ag10
(g14
S'rP%4\x0e%R@'
p20
tp21
Rp22
ag10
(g14
S'\xc9JI\x8c\xe1)R@'
p23
tp24
Rp25
ag10
(g14
S'\x8c/\xb8\xfcd*R@'
p26
tp27
Rp28
ag10
(g14
S'\x00\xe2#\xcc\xdf)R@'
p29
tp30
Rp31
ag10
(g14
S'\xd6\xe6\xb3\xb4\x85.R@'
p32
tp33
Rp34
ag10
(g14
S"6nrw\xd6'R@"
p35
tp36
Rp37
ag10
(g14
S't\x91\xcb\x1c\x8f,R@'
p38
tp39
Rp40
ag10
(g14
S'\xa3EG\xd5\x84(R@'
p41
tp42
Rp43
ag10
(g14
S"L\x90\xc9\xb2\xce'R@"
p44
tp45
Rp46
ag10
(g14
S'\xc8\xfd\x9d\xa9\xd0%R@'
p47
tp48
Rp49
ag10
(g14
S'\x91=I\x02v"R@'
p50
tp51
Rp52
ag10
(g14
S'*\x1a^\xc5\xe7-R@'
p53
tp54
Rp55
ag10
(g14
S'/\x96\x1b\x07\xa3!R@'
p56
tp57
Rp58
ag10
(g14
S'k\xef\xb1T>*R@'
p59
tp60
Rp61
ag10
(g14
S'\x92\xa3\xc8F\xe5!R@'
p62
tp63
Rp64
ag10
(g14
S"n\xb1BKM'R@"
p65
tp66
Rp67
ag10
(g14
S"\xc0)q\xfe\x91'R@"
p68
tp69
Rp70
ag10
(g14
S'\xe2"\xf3\xe7s%R@'
p71
tp72
Rp73
ag10
(g14
S'#w\x1c\xe9\xc0 R@'
p74
tp75
Rp76
asS'target'
p77
(lp78
g10
(g14
S'"\xfe\x8azL\xe2"@'
p79
tp80
Rp81
ag10
(g14
S'\x1d.O\'\xee\x13"@'
p82
tp83
Rp84
ag10
(g14
S'\x8e5^\x99\xd6`#@'
p85
tp86
Rp87
ag10
(g14
S'\x02\x86o\x8ay\x15"@'
p88
tp89
Rp90
ag10
(g14
S'\x15U\xa0\x12p\x97#@'
p91
tp92
Rp93
ag10
(g14
S':\xcf\xfe\xa0\xbc\xca"@'
p94
tp95
Rp96
ag10
(g14
S'\xdc\xd1\x01\xc5 \xbc!@'
p97
tp98
Rp99
ag10
(g14
S'\xd8\xd1p\x1f\xf7\x0e"@'
p100
tp101
Rp102
ag10
(g14
S'p5\xf3\x1d\x11\xd5"@'
p103
tp104
Rp105
ag10
(g14
S'\xb6\x188}z\xde"@'
p106
tp107
Rp108
ag10
(g14
S'\xe7~H\xae\x84\r#@'
p109
tp110
Rp111
ag10
(g14
S'\xf4\xc9]\xa7j\x07#@'
p112
tp113
Rp114
ag10
(g14
S'\xc2\x16\xe9\xc4Yr"@'
p115
tp116
Rp117
ag10
(g14
S'\xe7\x0e\x80\x85Tc"@'
p118
tp119
Rp120
ag10
(g14
S'*t\xe6\xf1$o#@'
p121
tp122
Rp123
ag10
(g14
S'\x96\xb0C\x1e\xf0\xb1"@'
p124
tp125
Rp126
ag10
(g14
S'&\x0fXC\xb6/"@'
p127
tp128
Rp129
ag10
(g14
S'\xbc[\xac\x83\xf2\xe0"@'
p130
tp131
Rp132
ag10
(g14
S'w\nN\x83 \xb7"@'
p133
tp134
Rp135
ag10
(g14
S'R\xb4q;\xa7j"@'
p136
tp137
Rp138
asssss.