(dp0
S'../Data/sqlite_72.csv'
p1
(dp2
S'../Data/sqlite_73.csv'
p3
(dp4
F0.1
(dp5
S'mmre'
p6
(dp7
S'bellwether'
p8
(lp9
cnumpy.core.multiarray
scalar
p10
(cnumpy
dtype
p11
(S'f8'
p12
I0
I1
tp13
Rp14
(I3
S'<'
p15
NNNI-1
I-1
I0
tp16
bS'\xf5\x03n\xf9\x9b&V@'
p17
tp18
Rp19
ag10
(g14
S' \x06\x12g\xa8&V@'
p20
tp21
Rp22
ag10
(g14
S'\x15\x0e=\x85\xb5%V@'
p23
tp24
Rp25
ag10
(g14
S'\xa1\xcf\xa6kH%V@'
p26
tp27
Rp28
ag10
(g14
S'\x97H\x11]\xe8(V@'
p29
tp30
Rp31
ag10
(g14
S'\x1c\xf7\xa7f\xa3%V@'
p32
tp33
Rp34
ag10
(g14
S'\x1d6\x90n\xdf&V@'
p35
tp36
Rp37
ag10
(g14
S'=|5/O&V@'
p38
tp39
Rp40
ag10
(g14
S"'\x13a\xac\x7f%V@"
p41
tp42
Rp43
ag10
(g14
S'g:\xcd&&#V@'
p44
tp45
Rp46
ag10
(g14
S'6\xba~(\xf0%V@'
p47
tp48
Rp49
ag10
(g14
S'\xb99\xa0\\\xcd%V@'
p50
tp51
Rp52
ag10
(g14
S'\xb94\x00\x1b\xa3$V@'
p53
tp54
Rp55
ag10
(g14
S'd\xc1\xd3\x86!&V@'
p56
tp57
Rp58
ag10
(g14
S'\xdd\xba\xa6\x12\xb4#V@'
p59
tp60
Rp61
ag10
(g14
S'\xf2\x81_\xed\x19&V@'
p62
tp63
Rp64
ag10
(g14
S"\xf5\x07dd\xd7'V@"
p65
tp66
Rp67
ag10
(g14
S'\x15\xa52o\xe6#V@'
p68
tp69
Rp70
ag10
(g14
S'Kb\xd8">%V@'
p71
tp72
Rp73
ag10
(g14
S'\xf9h\xcc7\x19%V@'
p74
tp75
Rp76
asS'target'
p77
(lp78
g10
(g14
S'\xf5\x92\x15\xb7H\x99-@'
p79
tp80
Rp81
ag10
(g14
S'\x15\xb3\xbd\xb8\x0fx-@'
p82
tp83
Rp84
ag10
(g14
S'\xdf\x88)\x96>\xcc-@'
p85
tp86
Rp87
ag10
(g14
S'\x1a\xf4\x11%\\&-@'
p88
tp89
Rp90
ag10
(g14
S'\x90\xe7\x9cdI\xd2*@'
p91
tp92
Rp93
ag10
(g14
S'\xb6}\xf4duE-@'
p94
tp95
Rp96
ag10
(g14
S'\x84\x81\xa4Q+\xbc*@'
p97
tp98
Rp99
ag10
(g14
S'@\xbe\xb8w9\x82,@'
p100
tp101
Rp102
ag10
(g14
S'\xab]\xefY\xf7\xca-@'
p103
tp104
Rp105
ag10
(g14
S'\x8e\x15\xecK\xd5\xee0@'
p106
tp107
Rp108
ag10
(g14
S'#FGa\xb7\xc6.@'
p109
tp110
Rp111
ag10
(g14
S'D1C\xfc_\xcc+@'
p112
tp113
Rp114
ag10
(g14
S' F&\xc2\xfa\xed.@'
p115
tp116
Rp117
ag10
(g14
S'\xa9=~\xea\xd1y*@'
p118
tp119
Rp120
ag10
(g14
S'\xd7\xd7>6\x1c#-@'
p121
tp122
Rp123
ag10
(g14
S'J\x8dy\x00H\xc2-@'
p124
tp125
Rp126
ag10
(g14
S'\x1c\xfc\x13\xce\xf3\xc0(@'
p127
tp128
Rp129
ag10
(g14
S'L\xd3"\xa9\x8000@'
p130
tp131
Rp132
ag10
(g14
S'/{9X\xa2>-@'
p133
tp134
Rp135
ag10
(g14
S'\xf5m\xb7\x03\xa5W.@'
p136
tp137
Rp138
asssss.