(dp0
S'../Data/sqlite_31.csv'
p1
(dp2
S'../Data/sqlite_73.csv'
p3
(dp4
F0.4
(dp5
S'mmre'
p6
(dp7
S'bellwether'
p8
(lp9
cnumpy.core.multiarray
scalar
p10
(cnumpy
dtype
p11
(S'f8'
p12
I0
I1
tp13
Rp14
(I3
S'<'
p15
NNNI-1
I-1
I0
tp16
bS'U\xad\xc6\x7f\xcbJH@'
p17
tp18
Rp19
ag10
(g14
S'\xe5t;!cPH@'
p20
tp21
Rp22
ag10
(g14
S'\xb33\x11g\xb0SH@'
p23
tp24
Rp25
ag10
(g14
S'\xfdpA8^rH@'
p26
tp27
Rp28
ag10
(g14
S'\xe3\xce\xd2\x89\xb0.H@'
p29
tp30
Rp31
ag10
(g14
S'\x1320\x9d\xb1KH@'
p32
tp33
Rp34
ag10
(g14
S'\xc8\xf92\x8219H@'
p35
tp36
Rp37
ag10
(g14
S'\xfe1\x85\xe9fTH@'
p38
tp39
Rp40
ag10
(g14
S'\x1d\xb2\xca3\x00`H@'
p41
tp42
Rp43
ag10
(g14
S'\xc6\x86Y\xc6\xe73H@'
p44
tp45
Rp46
ag10
(g14
S'H\xedE\x11\xd2aH@'
p47
tp48
Rp49
ag10
(g14
S'D\x94\x1a{\x91(H@'
p50
tp51
Rp52
ag10
(g14
S'\xe4\x95\xa1S\xda9H@'
p53
tp54
Rp55
ag10
(g14
S'R\xa1\r\xa4A<H@'
p56
tp57
Rp58
ag10
(g14
S'\xa2g\x14\xe8\xdbZH@'
p59
tp60
Rp61
ag10
(g14
S'd\xe1N\xa5#FH@'
p62
tp63
Rp64
ag10
(g14
S'X\xa1\x0f}\x8e<H@'
p65
tp66
Rp67
ag10
(g14
S'mW\xd6VU5H@'
p68
tp69
Rp70
ag10
(g14
S'\xd8Q\xfd5iJH@'
p71
tp72
Rp73
ag10
(g14
S'/\x04\xc0\xad\xf5UH@'
p74
tp75
Rp76
asS'target'
p77
(lp78
g10
(g14
S'\x07\x919\xec\xb9\x0e,@'
p79
tp80
Rp81
ag10
(g14
S'f-\xe1Qw\xbb+@'
p82
tp83
Rp84
ag10
(g14
S'\x96\xfcdE\x82\xa8-@'
p85
tp86
Rp87
ag10
(g14
S'\x9d\xc4x\x8a\xe6X+@'
p88
tp89
Rp90
ag10
(g14
S'=\xef\xf5\x18\xb0\xa7,@'
p91
tp92
Rp93
ag10
(g14
S'\xb1\xbc|7\x1b\xe1)@'
p94
tp95
Rp96
ag10
(g14
S'p\x14x\x02y\xb7+@'
p97
tp98
Rp99
ag10
(g14
S'(>\x1a\x802)-@'
p100
tp101
Rp102
ag10
(g14
S'#@.\xff\xca\x15-@'
p103
tp104
Rp105
ag10
(g14
S'\xcdF\x10\xddN\x15*@'
p106
tp107
Rp108
ag10
(g14
S'X\xba\x8d.L\x99+@'
p109
tp110
Rp111
ag10
(g14
S";arv'd+@"
p112
tp113
Rp114
ag10
(g14
S'\xa9\x1b/?\x06|-@'
p115
tp116
Rp117
ag10
(g14
S'\x90O\x80\xf7P\xc2,@'
p118
tp119
Rp120
ag10
(g14
S'%\xe0\xb1\x83\x10\xae,@'
p121
tp122
Rp123
ag10
(g14
S'\xa4\xd6#lFl*@'
p124
tp125
Rp126
ag10
(g14
S'\xe9\x1bK\xd1g .@'
p127
tp128
Rp129
ag10
(g14
S'<7\x06}\x1a\x1f+@'
p130
tp131
Rp132
ag10
(g14
S'\xe7;q9\xb2d*@'
p133
tp134
Rp135
ag10
(g14
S'#\x9fFfi\xd4+@'
p136
tp137
Rp138
asssss.