(dp0
S'../Data/sqlite_65.csv'
p1
(dp2
S'../Data/sqlite_72.csv'
p3
(dp4
F0.4
(dp5
S'abs_res'
p6
(dp7
S'bellwether'
p8
(lp9
cnumpy.core.multiarray
scalar
p10
(cnumpy
dtype
p11
(S'f8'
p12
I0
I1
tp13
Rp14
(I3
S'<'
p15
NNNI-1
I-1
I0
tp16
bS'\xb2\xf3\xfd\xd4x\xc6r@'
p17
tp18
Rp19
ag10
(g14
S'F\xe1z\x14\xae1s@'
p20
tp21
Rp22
ag10
(g14
S'\xe2z\x14\xaeG:s@'
p23
tp24
Rp25
ag10
(g14
S'Z\xe3\xa5\x9b\xc4\xe9r@'
p26
tp27
Rp28
ag10
(g14
S'\xed&1\x08\xac\x16s@'
p29
tp30
Rp31
ag10
(g14
S'\xf9~j\xbct:s@'
p32
tp33
Rp34
ag10
(g14
S'\xcex\xe9&1er@'
p35
tp36
Rp37
ag10
(g14
S'\xfb\xa9\xf1\xd2M\x0fs@'
p38
tp39
Rp40
ag10
(g14
S'\x84A`\xe5\xd01s@'
p41
tp42
Rp43
ag10
(g14
S'_\xe5\xd0"\xdb\x03s@'
p44
tp45
Rp46
ag10
(g14
S'Nb\x10X9\xb1r@'
p47
tp48
Rp49
ag10
(g14
S'\xe3&1\x08\xac\xebr@'
p50
tp51
Rp52
ag10
(g14
S';3333\x16s@'
p53
tp54
Rp55
ag10
(g14
S'8^\xbaI\x0c^s@'
p56
tp57
Rp58
ag10
(g14
S'\xf4\xfd\xd4x\xe9\xc5r@'
p59
tp60
Rp61
ag10
(g14
S'5^\xbaI\x0cZs@'
p62
tp63
Rp64
ag10
(g14
S'\xa4\x1a/\xdd$(s@'
p65
tp66
Rp67
ag10
(g14
S'l\xbe\x9f\x1a/\xc0r@'
p68
tp69
Rp70
ag10
(g14
S'\xe3\xf9~j\xbc s@'
p71
tp72
Rp73
ag10
(g14
S'@`\xe5\xd0"#s@'
p74
tp75
Rp76
asS'target'
p77
(lp78
g10
(g14
S'\xb4\xf3\xfd\xd4x\xc1J@'
p79
tp80
Rp81
ag10
(g14
S'\x16\x04V\x0e-*L@'
p82
tp83
Rp84
ag10
(g14
S'Q7\x89A`\xcdK@'
p85
tp86
Rp87
ag10
(g14
S'fffff6H@'
p88
tp89
Rp90
ag10
(g14
S'gffff\x1eK@'
p91
tp92
Rp93
ag10
(g14
S'D\xb6\xf3\xfd\xd4`K@'
p94
tp95
Rp96
ag10
(g14
S'd\xe5\xd0"\xdb\x19H@'
p97
tp98
Rp99
ag10
(g14
S'(\x85\xebQ\xb8\x9eJ@'
p100
tp101
Rp102
ag10
(g14
S'\xcdK7\x89A@J@'
p103
tp104
Rp105
ag10
(g14
S'q\xbct\x93\x18\x1cJ@'
p106
tp107
Rp108
ag10
(g14
S'\xaaG\xe1z\x14FI@'
p109
tp110
Rp111
ag10
(g14
S'\t\x81\x95C\x8b\x0cL@'
p112
tp113
Rp114
ag10
(g14
S'\xc2K7\x89AXJ@'
p115
tp116
Rp117
ag10
(g14
S'\rX9\xb4\xc8\xdeI@'
p118
tp119
Rp120
ag10
(g14
S'\xb8\xf3\xfd\xd4x)I@'
p121
tp122
Rp123
ag10
(g14
S'\x95\xed|?5\xfeI@'
p124
tp125
Rp126
ag10
(g14
S'\x87\x16\xd9\xce\xf7sH@'
p127
tp128
Rp129
ag10
(g14
S'\xe1\xa5\x9b\xc4 \xf0J@'
p130
tp131
Rp132
ag10
(g14
S'\xb4\xc8v\xbe\x9f:J@'
p133
tp134
Rp135
ag10
(g14
S'^\x8f\xc2\xf5(\x9cI@'
p136
tp137
Rp138
asssss.