(dp0
S'../Data/sqlite_9.csv'
p1
(dp2
S'../Data/sqlite_97.csv'
p3
(dp4
F0.1
(dp5
S'mmre'
p6
(dp7
S'bellwether'
p8
(lp9
cnumpy.core.multiarray
scalar
p10
(cnumpy
dtype
p11
(S'f8'
p12
I0
I1
tp13
Rp14
(I3
S'<'
p15
NNNI-1
I-1
I0
tp16
bS'\xdbw\xf1=o?X@'
p17
tp18
Rp19
ag10
(g14
S'\x00pt@L?X@'
p20
tp21
Rp22
ag10
(g14
S'\x1c\xd0\x15w\xbd?X@'
p23
tp24
Rp25
ag10
(g14
S'\xa6\xcb\xa3d=@X@'
p26
tp27
Rp28
ag10
(g14
S'\xf65\xf9e\xb9?X@'
p29
tp30
Rp31
ag10
(g14
S'\xda;\xf6\xa8@@X@'
p32
tp33
Rp34
ag10
(g14
S'\xce5\xa5\xbe\x87?X@'
p35
tp36
Rp37
ag10
(g14
S'\xa7(|\xa8\xb4?X@'
p38
tp39
Rp40
ag10
(g14
S'\x1c Jb\xa7?X@'
p41
tp42
Rp43
ag10
(g14
S'\x90$\x96\n\xac?X@'
p44
tp45
Rp46
ag10
(g14
S'\x1eS\x86\x19\xb8@X@'
p47
tp48
Rp49
ag10
(g14
S'\x02d\xaf"\xe1=X@'
p50
tp51
Rp52
ag10
(g14
S'\xb2L\x0bfR?X@'
p53
tp54
Rp55
ag10
(g14
S'\xc7\xcd\xa8!\xdf?X@'
p56
tp57
Rp58
ag10
(g14
S'9\x92W+\x1e@X@'
p59
tp60
Rp61
ag10
(g14
S'\xc6\x81\\\xcc\x94@X@'
p62
tp63
Rp64
ag10
(g14
S'\xec\xde\xfa&\xc5>X@'
p65
tp66
Rp67
ag10
(g14
S'\xf5\x9f\xbe\xe0\xb7?X@'
p68
tp69
Rp70
ag10
(g14
S'\x88G\x95w\xde?X@'
p71
tp72
Rp73
ag10
(g14
S'\xe21\x8a\x00\x06@X@'
p74
tp75
Rp76
asS'target'
p77
(lp78
g10
(g14
S'\xc7\xe1\x9bS\xe3,U@'
p79
tp80
Rp81
ag10
(g14
S'\xe8\xc4\x02W\x91~d@'
p82
tp83
Rp84
ag10
(g14
S'\x85\xd1\xa0\\~"[@'
p85
tp86
Rp87
ag10
(g14
S'\xbf\x1f\xeb\x9d#\nJ@'
p88
tp89
Rp90
ag10
(g14
S'\xaai\x9e$%\xeaT@'
p91
tp92
Rp93
ag10
(g14
S'K\x9c\x8aND\xf3R@'
p94
tp95
Rp96
ag10
(g14
S'r/1\xcfqqZ@'
p97
tp98
Rp99
ag10
(g14
S'\x1dn\xbe\x90\xe9\x81[@'
p100
tp101
Rp102
ag10
(g14
S'\xb5\xda\xe6\x00S\xe2[@'
p103
tp104
Rp105
ag10
(g14
S'="\x9a]\xec\x89K@'
p106
tp107
Rp108
ag10
(g14
S'\xc9\xcdl\xc7\x17?R@'
p109
tp110
Rp111
ag10
(g14
S"U\x1f']\xa6\xa2c@"
p112
tp113
Rp114
ag10
(g14
S"\x16\x99\x1d\nZ'd@"
p115
tp116
Rp117
ag10
(g14
S'/$X\xc6y(Q@'
p118
tp119
Rp120
ag10
(g14
S'\xb5p\x1d\x0e\x9fJ\\@'
p121
tp122
Rp123
ag10
(g14
S'\x9dD\xc4\xcf\x19\xf3R@'
p124
tp125
Rp126
ag10
(g14
S'\xc4!\x17\xc3\xfb\x93U@'
p127
tp128
Rp129
ag10
(g14
S'\xbe&U\x10\xf3\x89P@'
p130
tp131
Rp132
ag10
(g14
S'\x8b]\xe6\xdaQMQ@'
p133
tp134
Rp135
ag10
(g14
S'8\xcah]\x89\xfaP@'
p136
tp137
Rp138
asssss.