(dp0
S'../Data/sqlite_32.csv'
p1
(dp2
S'../Data/sqlite_95.csv'
p3
(dp4
F0.3
(dp5
S'mmre'
p6
(dp7
S'bellwether'
p8
(lp9
cnumpy.core.multiarray
scalar
p10
(cnumpy
dtype
p11
(S'f8'
p12
I0
I1
tp13
Rp14
(I3
S'<'
p15
NNNI-1
I-1
I0
tp16
bS'\x17\xe7\xc7\xee\xe3\xdbQ@'
p17
tp18
Rp19
ag10
(g14
S'@\xc2\xae\x97+\x98R@'
p20
tp21
Rp22
ag10
(g14
S'BF\x08\xcdx\x1bR@'
p23
tp24
Rp25
ag10
(g14
S'l\xeb\xd0Q\xfc\xa9S@'
p26
tp27
Rp28
ag10
(g14
S'a`}\x94\x15mR@'
p29
tp30
Rp31
ag10
(g14
S'@\x9eYt\x83\xaaR@'
p32
tp33
Rp34
ag10
(g14
S'\xd9\x9d{\x96`cS@'
p35
tp36
Rp37
ag10
(g14
S'Y\x93*}<\xfcR@'
p38
tp39
Rp40
ag10
(g14
S'\xd5\xa2\x8atj\xf4Q@'
p41
tp42
Rp43
ag10
(g14
S'/\x1f\x0bGD\x8eS@'
p44
tp45
Rp46
ag10
(g14
S'\x03\xc3\x82\x80J\x08S@'
p47
tp48
Rp49
ag10
(g14
S'\xcb\x7f\x03;>\x89R@'
p50
tp51
Rp52
ag10
(g14
S'\x1b"\xda8*tR@'
p53
tp54
Rp55
ag10
(g14
S'B\xd35*=\xedQ@'
p56
tp57
Rp58
ag10
(g14
S'|\xb27}\xd5\x9fR@'
p59
tp60
Rp61
ag10
(g14
S'\xda?7\x8c\xa3\xf1R@'
p62
tp63
Rp64
ag10
(g14
S'\x8d\xc7\x82T\xd6;R@'
p65
tp66
Rp67
ag10
(g14
S'\x8d\xf3\xf2\xbeqSR@'
p68
tp69
Rp70
ag10
(g14
S'\xca\xad\x89\xad\x15\x03S@'
p71
tp72
Rp73
ag10
(g14
S'\x0f\x89\xa7\xd3p\x98R@'
p74
tp75
Rp76
asS'target'
p77
(lp78
g10
(g14
S'\x02\x903\xc0\x03\xb2=@'
p79
tp80
Rp81
ag10
(g14
S'\x1d(>Y\x15\xe9A@'
p82
tp83
Rp84
ag10
(g14
S'\xb9n\xd7h\xbdT@@'
p85
tp86
Rp87
ag10
(g14
S'\xdbP\xf7c\xa3{A@'
p88
tp89
Rp90
ag10
(g14
S'\x15g\x1a\xfe\xafcA@'
p91
tp92
Rp93
ag10
(g14
S' \xe2\xfdCtXD@'
p94
tp95
Rp96
ag10
(g14
S'Hv\xac\xa1\xb3^B@'
p97
tp98
Rp99
ag10
(g14
S'\xdeWZ\x1d`\x82C@'
p100
tp101
Rp102
ag10
(g14
S'\xf4\xf3\xa3XPc<@'
p103
tp104
Rp105
ag10
(g14
S'Y\x89\x17A7\xedA@'
p106
tp107
Rp108
ag10
(g14
S'N\x98A\x86o\xe4@@'
p109
tp110
Rp111
ag10
(g14
S'\xb7\xa4\\\xc8]RB@'
p112
tp113
Rp114
ag10
(g14
S'q\x10hy1\x9dD@'
p115
tp116
Rp117
ag10
(g14
S"\xda\xaa2N'>>@"
p118
tp119
Rp120
ag10
(g14
S' \x03G\xd7i\r>@'
p121
tp122
Rp123
ag10
(g14
S'\x18C\xd0\x1b\xba{A@'
p124
tp125
Rp126
ag10
(g14
S'a\x95s\x9cY6A@'
p127
tp128
Rp129
ag10
(g14
S')\x028\x86\xc6`B@'
p130
tp131
Rp132
ag10
(g14
S'\xc0L[\x0f\xf1\xa2?@'
p133
tp134
Rp135
ag10
(g14
S'>Z\xf2\xff\xcb??@'
p136
tp137
Rp138
asssss.