(dp0
S'../Data/sqlite_37.csv'
p1
(dp2
S'../Data/sqlite_85.csv'
p3
(dp4
F0.3
(dp5
S'abs_res'
p6
(dp7
S'bellwether'
p8
(lp9
cnumpy.core.multiarray
scalar
p10
(cnumpy
dtype
p11
(S'f8'
p12
I0
I1
tp13
Rp14
(I3
S'<'
p15
NNNI-1
I-1
I0
tp16
bS'k\xbct\x83i$SA'
p17
tp18
Rp19
ag10
(g14
S'\x0b-\xb2\xc5\xe9QSA'
p20
tp21
Rp22
ag10
(g14
S'\t\xd7\xa3(\xf5lSA'
p23
tp24
Rp25
ag10
(g14
S'\xad\x9d\xef;\x93\x94SA'
p26
tp27
Rp28
ag10
(g14
S'\xf1Q\xb8\xf6\xd7qSA'
p29
tp30
Rp31
ag10
(g14
S'Ud;\xd7\xc7tSA'
p32
tp33
Rp34
ag10
(g14
S'k\x12\x83\x08\x18#SA'
p35
tp36
Rp37
ag10
(g14
S'1\xdd$\xaa\x87zSA'
p38
tp39
Rp40
ag10
(g14
S'\xc4 \xb0jcTSA'
p41
tp42
Rp43
ag10
(g14
S'\xf2~j\x84"YSA'
p44
tp45
Rp46
ag10
(g14
S'\xd9z\x14\xa6\rMSA'
p47
tp48
Rp49
ag10
(g14
S'M\xb8\x1eYa\x88SA'
p50
tp51
Rp52
ag10
(g14
S'\xcaMb\\#LSA'
p53
tp54
Rp55
ag10
(g14
S'\x8d\xc2\xf5\xc0\x92tSA'
p56
tp57
Rp58
ag10
(g14
S'N\x0e-\x16c:SA'
p59
tp60
Rp61
ag10
(g14
S'\x80?5J0\x80SA'
p62
tp63
Rp64
ag10
(g14
S'\xf2\xd2M^\xd4ESA'
p65
tp66
Rp67
ag10
(g14
S'\xf0\xd2M.\x1aESA'
p68
tp69
Rp70
ag10
(g14
S'cff\xf2\xe1FSA'
p71
tp72
Rp73
ag10
(g14
S'\xc2 \xb0\x02\xfawSA'
p74
tp75
Rp76
asS'target'
p77
(lp78
g10
(g14
S'\xb0p=J\xa9\xf6>A'
p79
tp80
Rp81
ag10
(g14
S'\xd1\xa3p\xbd\x8f\xbb:A'
p82
tp83
Rp84
ag10
(g14
S';\n\xd7\xc3\x89 ?A'
p85
tp86
Rp87
ag10
(g14
S'\xa9G\xe1\xfaO\x80=A'
p88
tp89
Rp90
ag10
(g14
S'\xd6\xa3p\xbdv\x1a<A'
p91
tp92
Rp93
ag10
(g14
S'\x1d\x85\xeb\x91\xf4\r=A'
p94
tp95
Rp96
ag10
(g14
S'bfff2\x19<A'
p97
tp98
Rp99
ag10
(g14
S'^\x8f\xc25\xacf>A'
p100
tp101
Rp102
ag10
(g14
S'\x87\xebQx\xa24;A'
p103
tp104
Rp105
ag10
(g14
S'\xedQ\xb8\x9e\xf6\xe8<A'
p106
tp107
Rp108
ag10
(g14
S'\xb5\x1e\x85kdG<A'
p109
tp110
Rp111
ag10
(g14
S'233sqp>A'
p112
tp113
Rp114
ag10
(g14
S'\xc3\xf5(\xfc\xd2O@A'
p115
tp116
Rp117
ag10
(g14
S'\x84\x14\xae\xe7:\xb6=A'
p118
tp119
Rp120
ag10
(g14
S'\xedQ\xb8\xde\x9d{@A'
p121
tp122
Rp123
ag10
(g14
S'\x01\xd7\xa3\xd0 \x08?A'
p124
tp125
Rp126
ag10
(g14
S'\xacG\xe1\x9a\x1b\x94@A'
p127
tp128
Rp129
ag10
(g14
S'q=\n\x17\x1a\xb8=A'
p130
tp131
Rp132
ag10
(g14
S'\x05\x00\x00@\xe09>A'
p133
tp134
Rp135
ag10
(g14
S'\xc4\xf5(\x1c9y=A'
p136
tp137
Rp138
asssss.