(dp0
S'../Data/sqlite_9.csv'
p1
(dp2
S'../Data/sqlite_78.csv'
p3
(dp4
F0.3
(dp5
S'mmre'
p6
(dp7
S'bellwether'
p8
(lp9
cnumpy.core.multiarray
scalar
p10
(cnumpy
dtype
p11
(S'f8'
p12
I0
I1
tp13
Rp14
(I3
S'<'
p15
NNNI-1
I-1
I0
tp16
bS'\\mpV\x1d%T@'
p17
tp18
Rp19
ag10
(g14
S'\xce\xb4\xcf\x1dU(T@'
p20
tp21
Rp22
ag10
(g14
S'\x81\r-\xda\xd2%T@'
p23
tp24
Rp25
ag10
(g14
S'\xbe\xbdIj\x90&T@'
p26
tp27
Rp28
ag10
(g14
S'm\xeaU\x1b\xe7!T@'
p29
tp30
Rp31
ag10
(g14
S'\xa2\x7f\xf1\xe0\x8c)T@'
p32
tp33
Rp34
ag10
(g14
S'\x03_2~\x08+T@'
p35
tp36
Rp37
ag10
(g14
S'E7Yx\x14-T@'
p38
tp39
Rp40
ag10
(g14
S'R`{\x05~)T@'
p41
tp42
Rp43
ag10
(g14
S'$\xa8i\x90\xe0\x1fT@'
p44
tp45
Rp46
ag10
(g14
S'\xfd\xa2\xb6\xbe7*T@'
p47
tp48
Rp49
ag10
(g14
S'A}1"&$T@'
p50
tp51
Rp52
ag10
(g14
S'y\x1f?\xed\xbe\x1fT@'
p53
tp54
Rp55
ag10
(g14
S'v\xee\xc2V\xbf#T@'
p56
tp57
Rp58
ag10
(g14
S'\x1b-sJ\xab"T@'
p59
tp60
Rp61
ag10
(g14
S"0j\xbei\xd4'T@"
p62
tp63
Rp64
ag10
(g14
S'\xb0 \xdd\xce\x89 T@'
p65
tp66
Rp67
ag10
(g14
S'\x02\xd3\x83N\x1c*T@'
p68
tp69
Rp70
ag10
(g14
S'\x19\xe9\xb7\x0cV*T@'
p71
tp72
Rp73
ag10
(g14
S'[^\x14\xdd"+T@'
p74
tp75
Rp76
asS'target'
p77
(lp78
g10
(g14
S'\xb1\x93|S\xf6\x962@'
p79
tp80
Rp81
ag10
(g14
S'\xc9\x8c\xde\x12p\x072@'
p82
tp83
Rp84
ag10
(g14
S'\xb5\xc7\xcf54\x924@'
p85
tp86
Rp87
ag10
(g14
S'2\x9eh\xa79.4@'
p88
tp89
Rp90
ag10
(g14
S'\xf5\x98\xa7yw\xe23@'
p91
tp92
Rp93
ag10
(g14
S'\xa7\x1b\xa2MP\x1d3@'
p94
tp95
Rp96
ag10
(g14
S'\x9a\x89\t\x01\x01\x0c2@'
p97
tp98
Rp99
ag10
(g14
S'/1\xc0QM\xed2@'
p100
tp101
Rp102
ag10
(g14
S'k\x1cU"Ur3@'
p103
tp104
Rp105
ag10
(g14
S'\x14;\x81\xd0+\xc14@'
p106
tp107
Rp108
ag10
(g14
S'j \xfe\xbf\xf6\x8e3@'
p109
tp110
Rp111
ag10
(g14
S'q\xdf\xd1\xe9H@4@'
p112
tp113
Rp114
ag10
(g14
S'\xc0w\xd7\xd3\xf3\xd32@'
p115
tp116
Rp117
ag10
(g14
S'\xf6\xe5\xf0%\x88\xe63@'
p118
tp119
Rp120
ag10
(g14
S')\x87F1\xaf\\4@'
p121
tp122
Rp123
ag10
(g14
S'u,\xb1\xd3$42@'
p124
tp125
Rp126
ag10
(g14
S'\xbe\xc4\xba\xb9\x89M4@'
p127
tp128
Rp129
ag10
(g14
S'/u`52\x044@'
p130
tp131
Rp132
ag10
(g14
S'A\xe0\x7f\x80\xc7@4@'
p133
tp134
Rp135
ag10
(g14
S'\x07\x01A`\xa0\xef2@'
p136
tp137
Rp138
asssss.