(dp0
S'../Data/sqlite_76.csv'
p1
(dp2
S'../Data/sqlite_78.csv'
p3
(dp4
F0.3
(dp5
S'mmre'
p6
(dp7
S'bellwether'
p8
(lp9
cnumpy.core.multiarray
scalar
p10
(cnumpy
dtype
p11
(S'f8'
p12
I0
I1
tp13
Rp14
(I3
S'<'
p15
NNNI-1
I-1
I0
tp16
bS'\x04\x12\xce\x93\x14Kw@'
p17
tp18
Rp19
ag10
(g14
S' V\xe0\xd3\xfd w@'
p20
tp21
Rp22
ag10
(g14
S'RYB\xc1\xeaPw@'
p23
tp24
Rp25
ag10
(g14
S'5\x83\x95\x91\x1b>w@'
p26
tp27
Rp28
ag10
(g14
S'U\xae@YE\nw@'
p29
tp30
Rp31
ag10
(g14
S'\x01i\x1fw>6w@'
p32
tp33
Rp34
ag10
(g14
S'\x84s\xb1DW\x0cw@'
p35
tp36
Rp37
ag10
(g14
S'@\xb0l\x121\xfav@'
p38
tp39
Rp40
ag10
(g14
S'\xc9h\x8cSY;w@'
p41
tp42
Rp43
ag10
(g14
S'\x05\x10\xfa\x87\x9bWw@'
p44
tp45
Rp46
ag10
(g14
S'""\xd9\xe3\xa9^w@'
p47
tp48
Rp49
ag10
(g14
S'\x1e\x03\x91\xb9N\x0bw@'
p50
tp51
Rp52
ag10
(g14
S'\xe2W\xdf|\xfaRw@'
p53
tp54
Rp55
ag10
(g14
S'\x9b\xe6\x99A\x84Fw@'
p56
tp57
Rp58
ag10
(g14
S'\xb9\xfe\xa1\xb1\xaeEw@'
p59
tp60
Rp61
ag10
(g14
S'\xf0\x1a\n\xeaW+w@'
p62
tp63
Rp64
ag10
(g14
S'\xc6A\x0e\xd3O%w@'
p65
tp66
Rp67
ag10
(g14
S'\xb0\xdf\x11G\xea$w@'
p68
tp69
Rp70
ag10
(g14
S'n\r q\x1c.w@'
p71
tp72
Rp73
ag10
(g14
S'\x13\x93\xca\xc9\xf3Ow@'
p74
tp75
Rp76
asS'target'
p77
(lp78
g10
(g14
S'\xe9>\xd7=\xce\x9a4@'
p79
tp80
Rp81
ag10
(g14
S'(\x8b\tn\r+3@'
p82
tp83
Rp84
ag10
(g14
S'Qj\x18\xd8\r\x903@'
p85
tp86
Rp87
ag10
(g14
S'\xe1\x83A\x12f\xc23@'
p88
tp89
Rp90
ag10
(g14
S'G(w\xb0\xad\x014@'
p91
tp92
Rp93
ag10
(g14
S'sQ\xee\xdf\x9b)2@'
p94
tp95
Rp96
ag10
(g14
S':\xf8\xe8\xaf\xe983@'
p97
tp98
Rp99
ag10
(g14
S'\xe5\x81\xbe\xa2\x88\xa73@'
p100
tp101
Rp102
ag10
(g14
S'l<\x86JL\x1f3@'
p103
tp104
Rp105
ag10
(g14
S'K\xe5o\x11\xa884@'
p106
tp107
Rp108
ag10
(g14
S'\xa4\x84f\x0c\xb7%4@'
p109
tp110
Rp111
ag10
(g14
S'\xafOJv\xf6]2@'
p112
tp113
Rp114
ag10
(g14
S'\xd4\r\xdc\xa7\xfc\x8a3@'
p115
tp116
Rp117
ag10
(g14
S'\xfe-u]\xc8\xbf3@'
p118
tp119
Rp120
ag10
(g14
S'\x07\n7\xf3B>4@'
p121
tp122
Rp123
ag10
(g14
S'\x94\xc1A\xb4Z,4@'
p124
tp125
Rp126
ag10
(g14
S'\xb4\xd9\xafA\xf8\xe52@'
p127
tp128
Rp129
ag10
(g14
S'( )\xec6\xac2@'
p130
tp131
Rp132
ag10
(g14
S'J\xf5\xc3\xee.\x1b3@'
p133
tp134
Rp135
ag10
(g14
S"4'`\xcb\xf0\x1b5@"
p136
tp137
Rp138
asssss.