(dp0
S'../Data/sqlite_79.csv'
p1
(dp2
S'../Data/sqlite_65.csv'
p3
(dp4
F0.15
(dp5
S'abs_res'
p6
(dp7
S'bellwether'
p8
(lp9
cnumpy.core.multiarray
scalar
p10
(cnumpy
dtype
p11
(S'f8'
p12
I0
I1
tp13
Rp14
(I3
S'<'
p15
NNNI-1
I-1
I0
tp16
bS'\x95n\x12\x83\xc0\x05u@'
p17
tp18
Rp19
ag10
(g14
S'$\\\x8f\xc2\xf5\x14u@'
p20
tp21
Rp22
ag10
(g14
S'\\;\xdfO\x8d}u@'
p23
tp24
Rp25
ag10
(g14
S'\xf3(\\\x8f\xc2\xddt@'
p26
tp27
Rp28
ag10
(g14
S'\x1a""""\x1bu@'
p29
tp30
Rp31
ag10
(g14
S'\xb3\xc8v\xbe\x9f\x9cu@'
p32
tp33
Rp34
ag10
(g14
S'?7\x89A`\x19u@'
p35
tp36
Rp37
ag10
(g14
S'E\xa98\xfb\xf0\xfet@'
p38
tp39
Rp40
ag10
(g14
S'\x8al\xe7\xfb\xa9\x80t@'
p41
tp42
Rp43
ag10
(g14
S'\xfd\xff\xff\xff\xff\xc6t@'
p44
tp45
Rp46
ag10
(g14
S'\xd6k.$M\xb8t@'
p47
tp48
Rp49
ag10
(g14
S':\x89A`\xe5\xcbt@'
p50
tp51
Rp52
ag10
(g14
S'2&x0O\ru@'
p53
tp54
Rp55
ag10
(g14
S'l\x03\x9d6\xd05u@'
p56
tp57
Rp58
ag10
(g14
S'k=\n\xd7\xa3ut@'
p59
tp60
Rp61
ag10
(g14
S'.\x08\xac\x1cZ\xc2u@'
p62
tp63
Rp64
ag10
(g14
S'{\x95C\x8bl\xees@'
p65
tp66
Rp67
ag10
(g14
S'/\x08\xac\x1cZ\xe4t@'
p68
tp69
Rp70
ag10
(g14
S'\xc2\xca\xa1E\xb6vt@'
p71
tp72
Rp73
ag10
(g14
S'\xf4~j\xbctdt@'
p74
tp75
Rp76
asS'target'
p77
(lp78
g10
(g14
S'\x90\x97n\x12\x83\x08Y@'
p79
tp80
Rp81
ag10
(g14
S'51\x08\xac\x1c\xa2]@'
p82
tp83
Rp84
ag10
(g14
S'B\x8bl\xe7\xfb)Y@'
p85
tp86
Rp87
ag10
(g14
S'H\n\xd7\xa3p\tZ@'
p88
tp89
Rp90
ag10
(g14
S'\x1f\xdb\xf9~jLd@'
p91
tp92
Rp93
ag10
(g14
S'\xea\xfb\xa9\xf1\xd2\r`@'
p94
tp95
Rp96
ag10
(g14
S'\x83\xc0\xca\xa1Ebe@'
p97
tp98
Rp99
ag10
(g14
S'\xbd\x1e\x85\xebQ\xf0]@'
p100
tp101
Rp102
ag10
(g14
S'vh\x91\xed|\xc7[@'
p103
tp104
Rp105
ag10
(g14
S'+\x04V\x0e-\xdaZ@'
p106
tp107
Rp108
ag10
(g14
S'\xdbO\x8d\x97n"[@'
p109
tp110
Rp111
ag10
(g14
S'5\x08\xac\x1cZ\\W@'
p112
tp113
Rp114
ag10
(g14
S'\xa2\x99\x99\x99\x99\xc9X@'
p115
tp116
Rp117
ag10
(g14
S'c\x10X9\xb4\x04_@'
p118
tp119
Rp120
ag10
(g14
S'o\xbct\x93\x18lZ@'
p121
tp122
Rp123
ag10
(g14
S'>`\xe5\xd0"\xcfX@'
p124
tp125
Rp126
ag10
(g14
S'O7\x89A`\xd9`@'
p127
tp128
Rp129
ag10
(g14
S'c9\xb4\xc8v>Z@'
p130
tp131
Rp132
ag10
(g14
S'\x8cA`\xe5\xd0\xeaW@'
p133
tp134
Rp135
ag10
(g14
S'\xf8|?5^\xf2]@'
p136
tp137
Rp138
asssss.