(dp0
S'../Data/sqlite_86.csv'
p1
(dp2
S'../Data/sqlite_77.csv'
p3
(dp4
F0.05
(dp5
S'mmre'
p6
(dp7
S'bellwether'
p8
(lp9
cnumpy.core.multiarray
scalar
p10
(cnumpy
dtype
p11
(S'f8'
p12
I0
I1
tp13
Rp14
(I3
S'<'
p15
NNNI-1
I-1
I0
tp16
bS';o\xcc\x1b\x947U@'
p17
tp18
Rp19
ag10
(g14
S'\x02\xf4x\xda(EU@'
p20
tp21
Rp22
ag10
(g14
S'VW#\xf0P=U@'
p23
tp24
Rp25
ag10
(g14
S'b\xc5F\xeb\x98=U@'
p26
tp27
Rp28
ag10
(g14
S'a\xa4\x98\x17\x13HU@'
p29
tp30
Rp31
ag10
(g14
S'\xa6\x89-\xc5\xa2>U@'
p32
tp33
Rp34
ag10
(g14
S'KEd\x87D<U@'
p35
tp36
Rp37
ag10
(g14
S'V\xab\x80Y\xc1DU@'
p38
tp39
Rp40
ag10
(g14
S'\xd7Su\xe4\xba:U@'
p41
tp42
Rp43
ag10
(g14
S'\x18\x93[\xa1\x87AU@'
p44
tp45
Rp46
ag10
(g14
S'*\xcc\x947\xf7CU@'
p47
tp48
Rp49
ag10
(g14
S'6\xc1\x87\x9a\xc1IU@'
p50
tp51
Rp52
ag10
(g14
S'\xa0\t\xa6q\xe4?U@'
p53
tp54
Rp55
ag10
(g14
S"\xcb'\x8dC9GU@"
p56
tp57
Rp58
ag10
(g14
S'\xaa[\x9e\x1f\x9d7U@'
p59
tp60
Rp61
ag10
(g14
S'\xcfw\xd8q*9U@'
p62
tp63
Rp64
ag10
(g14
S'\xd3L\x7f7P<U@'
p65
tp66
Rp67
ag10
(g14
S'v\xce4\x95g;U@'
p68
tp69
Rp70
ag10
(g14
S'\xfc\xb5\xf4, <U@'
p71
tp72
Rp73
ag10
(g14
S'\xd6\xb8\xea\xb8f>U@'
p74
tp75
Rp76
asS'target'
p77
(lp78
g10
(g14
S'J\x08\xe8~\xb6\xa67@'
p79
tp80
Rp81
ag10
(g14
S'[W\xd7\xba\x1f=6@'
p82
tp83
Rp84
ag10
(g14
S'/\xdc6\xe4O:5@'
p85
tp86
Rp87
ag10
(g14
S'm\tM*\xd9Q6@'
p88
tp89
Rp90
ag10
(g14
S'\x1e,al\xe6\xc93@'
p91
tp92
Rp93
ag10
(g14
S"\x8a,'8\\*6@"
p94
tp95
Rp96
ag10
(g14
S'[\x92p;/\t8@'
p97
tp98
Rp99
ag10
(g14
S'w\xeb%ip)6@'
p100
tp101
Rp102
ag10
(g14
S'\r\xb0fY/\xa16@'
p103
tp104
Rp105
ag10
(g14
S'C4\x97x\x9b_8@'
p106
tp107
Rp108
ag10
(g14
S'\xa0D\x9b\x12\t\x93:@'
p109
tp110
Rp111
ag10
(g14
S'/T\xb3\xe8\x0eL4@'
p112
tp113
Rp114
ag10
(g14
S'\xf8\xd4\xed\xbc@\xa86@'
p115
tp116
Rp117
ag10
(g14
S'u\xadG\x1f\xcc\x1c9@'
p118
tp119
Rp120
ag10
(g14
S'\xe2\xcb\xcf\x94\x83\xd76@'
p121
tp122
Rp123
ag10
(g14
S'\xc2@\x8c\x88j\xc17@'
p124
tp125
Rp126
ag10
(g14
S']\x8a\xd6K!\xfe8@'
p127
tp128
Rp129
ag10
(g14
S'i\x8cv\x02\x15x5@'
p130
tp131
Rp132
ag10
(g14
S'(9\x84\xe0\xffd3@'
p133
tp134
Rp135
ag10
(g14
S'\xb1\xa5U]\x82\xf47@'
p136
tp137
Rp138
asssss.