(dp0
S'../Data/sqlite_7.csv'
p1
(dp2
S'../Data/sqlite_77.csv'
p3
(dp4
F0.1
(dp5
S'mmre'
p6
(dp7
S'bellwether'
p8
(lp9
cnumpy.core.multiarray
scalar
p10
(cnumpy
dtype
p11
(S'f8'
p12
I0
I1
tp13
Rp14
(I3
S'<'
p15
NNNI-1
I-1
I0
tp16
bS'y3\x97\xa1W;N@'
p17
tp18
Rp19
ag10
(g14
S'\xd6\xe4\xfbe\x8a1N@'
p20
tp21
Rp22
ag10
(g14
S'd*6\xef*;N@'
p23
tp24
Rp25
ag10
(g14
S'\xfe"6\xe9\xb8;N@'
p26
tp27
Rp28
ag10
(g14
S'u`XW\xa1?N@'
p29
tp30
Rp31
ag10
(g14
S'\x7fR\x08zv?N@'
p32
tp33
Rp34
ag10
(g14
S'\x87\\p8\xe85N@'
p35
tp36
Rp37
ag10
(g14
S'\xf1y\xa4\xef\xabAN@'
p38
tp39
Rp40
ag10
(g14
S'\x19\xc6@<\xc9:N@'
p41
tp42
Rp43
ag10
(g14
S'g\x1a-\xe7\xde?N@'
p44
tp45
Rp46
ag10
(g14
S"'\xec\t\x01\xd0)N@"
p47
tp48
Rp49
ag10
(g14
S'n\xec\x9e\xa7\xfc-N@'
p50
tp51
Rp52
ag10
(g14
S' $0CkCN@'
p53
tp54
Rp55
ag10
(g14
S'\x82\xaa\xcb\x8bx6N@'
p56
tp57
Rp58
ag10
(g14
S'U\x19\xe0.\xa50N@'
p59
tp60
Rp61
ag10
(g14
S'w\x90\xe7\xa0\xcc?N@'
p62
tp63
Rp64
ag10
(g14
S't(\x8cT\xbc6N@'
p65
tp66
Rp67
ag10
(g14
S'=\x024\xad\xd5TN@'
p68
tp69
Rp70
ag10
(g14
S'j\xf259\xe3IN@'
p71
tp72
Rp73
ag10
(g14
S'\xdc\x13\xc6\x8d\xbeDN@'
p74
tp75
Rp76
asS'target'
p77
(lp78
g10
(g14
S'\xc6\xada\x86+58@'
p79
tp80
Rp81
ag10
(g14
S'\x8dW\xca\x9cP\x999@'
p82
tp83
Rp84
ag10
(g14
S'\x82\xb6\x95\xc8\x00\x8e6@'
p85
tp86
Rp87
ag10
(g14
S'\xfex\xb6Z7\x185@'
p88
tp89
Rp90
ag10
(g14
S'\x13SZ\xab/15@'
p91
tp92
Rp93
ag10
(g14
S'\x16;\xaf8\xb7n4@'
p94
tp95
Rp96
ag10
(g14
S'Il\xf5}R\xc84@'
p97
tp98
Rp99
ag10
(g14
S'\xc4\xfbg\x806R7@'
p100
tp101
Rp102
ag10
(g14
S'\xb7y\xe6\xd3\\\xdd6@'
p103
tp104
Rp105
ag10
(g14
S':\xdf~\xc1?\x8b7@'
p106
tp107
Rp108
ag10
(g14
S'eu\xaa\xdb\xe4\xa18@'
p109
tp110
Rp111
ag10
(g14
S'`\x16\xd8\xd2b\x845@'
p112
tp113
Rp114
ag10
(g14
S'\x04\xbd\x1fO\x91.6@'
p115
tp116
Rp117
ag10
(g14
S'\x12\x91\xe1\x06pY7@'
p118
tp119
Rp120
ag10
(g14
S'\xc1=\xd1\x8d\xda\x1a8@'
p121
tp122
Rp123
ag10
(g14
S'7=\xaa\x14$\xba6@'
p124
tp125
Rp126
ag10
(g14
S'\xb3X\x95\x12\x9c\xa57@'
p127
tp128
Rp129
ag10
(g14
S'\xbd?\xeb\xe9\xb6\x8b6@'
p130
tp131
Rp132
ag10
(g14
S'\x95x\xc8y\x95$6@'
p133
tp134
Rp135
ag10
(g14
S'_\xe1y\xeb\xc1\x027@'
p136
tp137
Rp138
asssss.