(dp0
S'../Data/sqlite_91.csv'
p1
(dp2
S'../Data/sqlite_61.csv'
p3
(dp4
F0.1
(dp5
S'abs_res'
p6
(dp7
S'bellwether'
p8
(lp9
cnumpy.core.multiarray
scalar
p10
(cnumpy
dtype
p11
(S'f8'
p12
I0
I1
tp13
Rp14
(I3
S'<'
p15
NNNI-1
I-1
I0
tp16
bS'\x17\x83\xc0\n\x9aS&A'
p17
tp18
Rp19
ag10
(g14
S'\x8b%\xbf\x18\xb5G&A'
p20
tp21
Rp22
ag10
(g14
S'1^\xba\xc9\xe7R&A'
p23
tp24
Rp25
ag10
(g14
S'\x82y\xa2~f]&A'
p26
tp27
Rp28
ag10
(g14
S'{\x14\xae\xc7\x94f&A'
p29
tp30
Rp31
ag10
(g14
S'F5^\xfa$`&A'
p32
tp33
Rp34
ag10
(g14
S'\x14-\xb2\x9dvP&A'
p35
tp36
Rp37
ag10
(g14
S'Ib\x10X\x0eL&A'
p38
tp39
Rp40
ag10
(g14
S'\x9d\xc4 \xf06X&A'
p41
tp42
Rp43
ag10
(g14
S'a\xe5\xd0b\x1aN&A'
p44
tp45
Rp46
ag10
(g14
S'w\xa2\xfe\r*Q&A'
p47
tp48
Rp49
ag10
(g14
S'N\xb8\x1e\x05PP&A'
p50
tp51
Rp52
ag10
(g14
S'\xbc\xca\xa1\x85NM&A'
p53
tp54
Rp55
ag10
(g14
S'\x86\xc0\xca\xa1\xc2N&A'
p56
tp57
Rp58
ag10
(g14
S'A5^\xba\xf7X&A'
p59
tp60
Rp61
ag10
(g14
S'`ff&\xaag&A'
p62
tp63
Rp64
ag10
(g14
S'\tX94\xc7?&A'
p65
tp66
Rp67
ag10
(g14
S'Y\xd6\xea\x18\xfce&A'
p68
tp69
Rp70
ag10
(g14
S'\x1c\x92\xa6TKY&A'
p71
tp72
Rp73
ag10
(g14
S'O\xb8\x1e\x05\xadK&A'
p74
tp75
Rp76
asS'target'
p77
(lp78
g10
(g14
S'\x0f\x02+\x87\x16^x@'
p79
tp80
Rp81
ag10
(g14
S'\xc0\x9f\x1a/\xddL{@'
p82
tp83
Rp84
ag10
(g14
S'h\x91\xed|?=u@'
p85
tp86
Rp87
ag10
(g14
S'_\xe5\xd0"\xdb-v@'
p88
tp89
Rp90
ag10
(g14
S'x\xe7\xfb\xa9\xf1\x0e\x82@'
p91
tp92
Rp93
ag10
(g14
S'\x83\xebQ\xb8\x1eGt@'
p94
tp95
Rp96
ag10
(g14
S'\xce\xf7S\xe3\xa5\xa3v@'
p97
tp98
Rp99
ag10
(g14
S'Ud;\xdfO[{@'
p100
tp101
Rp102
ag10
(g14
S'V\x10X9\xb4\\~@'
p103
tp104
Rp105
ag10
(g14
S'\xb3\xf1\xd2Mb\x86}@'
p106
tp107
Rp108
ag10
(g14
S'Lb\x10X9\xee|@'
p109
tp110
Rp111
ag10
(g14
S'\xeeQ\xb8\x1e\x85\x03u@'
p112
tp113
Rp114
ag10
(g14
S'.\xdd$\x06\x81\xf9{@'
p115
tp116
Rp117
ag10
(g14
S'\xdc\xce\xf7S\xe3\x97w@'
p118
tp119
Rp120
ag10
(g14
S'\xa9\xc8v\xbe\x9f\x8c}@'
p121
tp122
Rp123
ag10
(g14
S'M\x0c\x02+\x87Fz@'
p124
tp125
Rp126
ag10
(g14
S'\x1a\xd9\xce\xf7S\tr@'
p127
tp128
Rp129
ag10
(g14
S'\x85\xebQ\xb8\x1e4x@'
p130
tp131
Rp132
ag10
(g14
S'$\xb0rh\x91+w@'
p133
tp134
Rp135
ag10
(g14
S'(1\x08\xac\x1c\xe4s@'
p136
tp137
Rp138
asssss.