(dp0
S'../Data/sqlite_57.csv'
p1
(dp2
S'../Data/sqlite_34.csv'
p3
(dp4
F0.1
(dp5
S'abs_res'
p6
(dp7
S'bellwether'
p8
(lp9
cnumpy.core.multiarray
scalar
p10
(cnumpy
dtype
p11
(S'f8'
p12
I0
I1
tp13
Rp14
(I3
S'<'
p15
NNNI-1
I-1
I0
tp16
bS'\xcfMbt -jA'
p17
tp18
Rp19
ag10
(g14
S'\x1b\xdb\xf9\xfa\xa8.jA'
p20
tp21
Rp22
ag10
(g14
S"\n\xd7\xa3H'+jA"
p23
tp24
Rp25
ag10
(g14
S'\x8b\x16\xd9\xe6\xba*jA'
p26
tp27
Rp28
ag10
(g14
S'\xc7K7-J.jA'
p29
tp30
Rp31
ag10
(g14
S"\x0fZdW\x9d'jA"
p32
tp33
Rp34
ag10
(g14
S'_ff\x0e`)jA'
p35
tp36
Rp37
ag10
(g14
S'1\x08\xac\xb0G)jA'
p38
tp39
Rp40
ag10
(g14
S'\xb3I\x0c\xbe\xa2,jA'
p41
tp42
Rp43
ag10
(g14
S'\x1f\x85\xeb\x85\x0c$jA'
p44
tp45
Rp46
ag10
(g14
S'\xf5S\xe3Ib*jA'
p47
tp48
Rp49
ag10
(g14
S'r\x14\xaec!1jA'
p50
tp51
Rp52
ag10
(g14
S'\x17\xb0rt;-jA'
p53
tp54
Rp55
ag10
(g14
S'\xdeO\x8dSI.jA'
p56
tp57
Rp58
ag10
(g14
S'\x1fZdg\xe8*jA'
p59
tp60
Rp61
ag10
(g14
S"\xa2\x1cZ\xb4\t'jA"
p62
tp63
Rp64
ag10
(g14
S'\\\xe5\xd0\xc2\xcb$jA'
p65
tp66
Rp67
ag10
(g14
S'\x91\x1a/\x01\x05.jA'
p68
tp69
Rp70
ag10
(g14
S'3^\xbaI\t3jA'
p71
tp72
Rp73
ag10
(g14
S'Nb\x10X\x84/jA'
p74
tp75
Rp76
asS'target'
p77
(lp78
g10
(g14
S'\x82\x95C\x8bl3p@'
p79
tp80
Rp81
ag10
(g14
S'\xdcz\x14\xaeG\x01p@'
p82
tp83
Rp84
ag10
(g14
S'\xcd\xcc\xcc\xcc\xcc\xa0l@'
p85
tp86
Rp87
ag10
(g14
S'\xd6\xf7S\xe3\xa59r@'
p88
tp89
Rp90
ag10
(g14
S'offff\xe2o@'
p91
tp92
Rp93
ag10
(g14
S'!\x87\x16\xd9\xce{m@'
p94
tp95
Rp96
ag10
(g14
S'>\xb6\xf3\xfd\xd4\xd8o@'
p97
tp98
Rp99
ag10
(g14
S'\xf6\xd2Mb\x10\xf8k@'
p100
tp101
Rp102
ag10
(g14
S'x\xe9&1\x08\xdej@'
p103
tp104
Rp105
ag10
(g14
S'~\x12\x83\xc0\xca\xbfp@'
p106
tp107
Rp108
ag10
(g14
S'\xc3 \xb0rh5k@'
p109
tp110
Rp111
ag10
(g14
S'\x94\xed|?5\x00p@'
p112
tp113
Rp114
ag10
(g14
S'\xf0\xd2Mb\x10\x1co@'
p115
tp116
Rp117
ag10
(g14
S'\x86\xc2\xf5(\\Oo@'
p118
tp119
Rp120
ag10
(g14
S'{j\xbct\x93Pr@'
p121
tp122
Rp123
ag10
(g14
S'\x18\x06\x81\x95C\xa7m@'
p124
tp125
Rp126
ag10
(g14
S'D7\x89A`\xc9n@'
p127
tp128
Rp129
ag10
(g14
S'r\x93\x18\x04V\xb2m@'
p130
tp131
Rp132
ag10
(g14
S'B7\x89A`Io@'
p133
tp134
Rp135
ag10
(g14
S'+3333Op@'
p136
tp137
Rp138
asssss.