(dp0
S'../Data/sqlite_49.csv'
p1
(dp2
S'../Data/sqlite_4.csv'
p3
(dp4
F0.3
(dp5
S'abs_res'
p6
(dp7
S'bellwether'
p8
(lp9
cnumpy.core.multiarray
scalar
p10
(cnumpy
dtype
p11
(S'f8'
p12
I0
I1
tp13
Rp14
(I3
S'<'
p15
NNNI-1
I-1
I0
tp16
bS'\xe4k.\xe4\xcf*;A'
p17
tp18
Rp19
ag10
(g14
S'\xa1E\xb6\xc3\x0e*;A'
p20
tp21
Rp22
ag10
(g14
S'NFo\x9bj+;A'
p23
tp24
Rp25
ag10
(g14
S'\xae\xf1\xd2m\x02-;A'
p26
tp27
Rp28
ag10
(g14
S'`\x9c}X\x86*;A'
p29
tp30
Rp31
ag10
(g14
S'\xc5g\xd8\x15\x83+;A'
p32
tp33
Rp34
ag10
(g14
S'\x95\xb3\x0f\x0f\xa5,;A'
p35
tp36
Rp37
ag10
(g14
S'\x82\xb1\xe4W\x98,;A'
p38
tp39
Rp40
ag10
(g14
S'\xc5<Q\x7fU,;A'
p41
tp42
Rp43
ag10
(g14
S'S~\xb1d\x08.;A'
p44
tp45
Rp46
ag10
(g14
S'\xa8\rt\x8a\xca*;A'
p47
tp48
Rp49
ag10
(g14
S'\xab)\x15\x07\xa0+;A'
p50
tp51
Rp52
ag10
(g14
S'\xa4p=\x9a\x9a,;A'
p53
tp54
Rp55
ag10
(g14
S'\x16\x83\xc0*U-;A'
p56
tp57
Rp58
ag10
(g14
S'Q\xb8\x1e\xe5\x9c,;A'
p59
tp60
Rp61
ag10
(g14
S'\xec\x98\xe0\xe1l,;A'
p62
tp63
Rp64
ag10
(g14
S'\xa3aW0$,;A'
p65
tp66
Rp67
ag10
(g14
S'4z[f\xa6*;A'
p68
tp69
Rp70
ag10
(g14
S'\xaa\x9b\xc4pU,;A'
p71
tp72
Rp73
ag10
(g14
S'+ku|\x86+;A'
p74
tp75
Rp76
asS'target'
p77
(lp78
g10
(g14
S'\xd1\xcc\xcc\xcc,9\xd0@'
p79
tp80
Rp81
ag10
(g14
S'efff\xe6\xb1\xd0@'
p82
tp83
Rp84
ag10
(g14
S'_fff&\x87\xd0@'
p85
tp86
Rp87
ag10
(g14
S'\x02\x00\x00\x00\xd0t\xd0@'
p88
tp89
Rp90
ag10
(g14
S'afffv\x94\xd0@'
p91
tp92
Rp93
ag10
(g14
S'xfff&\xf7\xcf@'
p94
tp95
Rp96
ag10
(g14
S'03333\x03\xd1@'
p97
tp98
Rp99
ag10
(g14
S'ffffFg\xd0@'
p100
tp101
Rp102
ag10
(g14
S'effff\xc8\xd0@'
p103
tp104
Rp105
ag10
(g14
S'efff\x16\x18\xd0@'
p106
tp107
Rp108
ag10
(g14
S'2333\x83\xb5\xd0@'
p109
tp110
Rp111
ag10
(g14
S'gfff\xa6\xef\xd0@'
p112
tp113
Rp114
ag10
(g14
S'4333\x13\xd5\xd0@'
p115
tp116
Rp117
ag10
(g14
S'ffffvp\xd1@'
p118
tp119
Rp120
ag10
(g14
S'9333SM\xcf@'
p121
tp122
Rp123
ag10
(g14
S'5333S\xf0\xd0@'
p124
tp125
Rp126
ag10
(g14
S'\xcf\xcc\xcc\xcc\xcc\xfc\xd0@'
p127
tp128
Rp129
ag10
(g14
S'\xce\xcc\xcc\xcc<\x11\xd0@'
p130
tp131
Rp132
ag10
(g14
S'1333Sq\xd0@'
p133
tp134
Rp135
ag10
(g14
S'\x06\x00\x00\x00`i\xd0@'
p136
tp137
Rp138
asssss.