(dp0
S'../Data/sqlite_74.csv'
p1
(dp2
S'../Data/sqlite_70.csv'
p3
(dp4
F0.25
(dp5
S'abs_res'
p6
(dp7
S'bellwether'
p8
(lp9
cnumpy.core.multiarray
scalar
p10
(cnumpy
dtype
p11
(S'f8'
p12
I0
I1
tp13
Rp14
(I3
S'<'
p15
NNNI-1
I-1
I0
tp16
bS'\x07\x1e\xccc\xe3ViA'
p17
tp18
Rp19
ag10
(g14
S'h\x91\xed\xcc\xa2niA'
p20
tp21
Rp22
ag10
(g14
S':m\xa0s0_iA'
p23
tp24
Rp25
ag10
(g14
S'\x812z\x1byXiA'
p26
tp27
Rp28
ag10
(g14
S'\xfao\x84\xf2\xb0YiA'
p29
tp30
Rp31
ag10
(g14
S'q\xe9&\xfd~ciA'
p32
tp33
Rp34
ag10
(g14
S'oY\xab\xdb\x81\\iA'
p35
tp36
Rp37
ag10
(g14
S'\xb7\xe6B\xb6\x94diA'
p38
tp39
Rp40
ag10
(g14
S'\xf2\x98\xe0E!biA'
p41
tp42
Rp43
ag10
(g14
S'\xc3v\xbe\x17\x96aiA'
p44
tp45
Rp46
ag10
(g14
S'\xc8/\x96$\xccZiA'
p47
tp48
Rp49
ag10
(g14
S'\x1f\xa1\x8cz\xa0PiA'
p50
tp51
Rp52
ag10
(g14
S'\x1cv\x058\x9feiA'
p53
tp54
Rp55
ag10
(g14
S')$M\x95\xb5XiA'
p56
tp57
Rp58
ag10
(g14
S'\xfc~j8\xb0SiA'
p59
tp60
Rp61
ag10
(g14
S'\x15Zd\xfb\x9cTiA'
p62
tp63
Rp64
ag10
(g14
S'x0O\xac+fiA'
p65
tp66
Rp67
ag10
(g14
S'\xec&1t!ciA'
p68
tp69
Rp70
ag10
(g14
S'%M\xa9$\xa8eiA'
p71
tp72
Rp73
ag10
(g14
S'\x0b+\x87.\xbcZiA'
p74
tp75
Rp76
asS'target'
p77
(lp78
g10
(g14
S'\xc0Mb\x10X)\\@'
p79
tp80
Rp81
ag10
(g14
S'\x0b\x02+\x87\x16A\\@'
p82
tp83
Rp84
ag10
(g14
S'\xc2\xca\xa1E\xb6G\\@'
p85
tp86
Rp87
ag10
(g14
S'\xff*\x87\x16\xd9\x06[@'
p88
tp89
Rp90
ag10
(g14
S'n\x93\x18\x04V~]@'
p91
tp92
Rp93
ag10
(g14
S'D\x0c\x02+\x87v^@'
p94
tp95
Rp96
ag10
(g14
S'\x10\x85\xebQ\xb8~]@'
p97
tp98
Rp99
ag10
(g14
S'\x92n\x12\x83\xc0V]@'
p100
tp101
Rp102
ag10
(g14
S'\x9c\x9b\xc4 \xb0\x8e\\@'
p103
tp104
Rp105
ag10
(g14
S'\xa3\xc8v\xbe\x9fZ^@'
p106
tp107
Rp108
ag10
(g14
S'D\xb6\xf3\xfd\xd4p^@'
p109
tp110
Rp111
ag10
(g14
S'\x02\x00\x00\x00\x00\xe0\\@'
p112
tp113
Rp114
ag10
(g14
S'l\xbe\x9f\x1a/\x91]@'
p115
tp116
Rp117
ag10
(g14
S'\x9f\x9b\xc4 \xb0\xca^@'
p118
tp119
Rp120
ag10
(g14
S'\x9c\x99\x99\x99\x99A]@'
p121
tp122
Rp123
ag10
(g14
S'5\xb2\x9d\xef\xa7F\\@'
p124
tp125
Rp126
ag10
(g14
S'\x00\xac\x1cZdc]@'
p127
tp128
Rp129
ag10
(g14
S'h\x10X9\xb4X]@'
p130
tp131
Rp132
ag10
(g14
S'P7\x89A`\r_@'
p133
tp134
Rp135
ag10
(g14
S'\xce$\x06\x81\x95\xeb]@'
p136
tp137
Rp138
asssss.