(dp0
S'../Data/sqlite_41.csv'
p1
(dp2
S'../Data/sqlite_62.csv'
p3
(dp4
F0.3
(dp5
S'mmre'
p6
(dp7
S'bellwether'
p8
(lp9
cnumpy.core.multiarray
scalar
p10
(cnumpy
dtype
p11
(S'f8'
p12
I0
I1
tp13
Rp14
(I3
S'<'
p15
NNNI-1
I-1
I0
tp16
bS'>\xf4lb\x01G:@'
p17
tp18
Rp19
ag10
(g14
S'\xe8\x8f\x17\xb6\xc8L:@'
p20
tp21
Rp22
ag10
(g14
S'Y|\xd7\x18}R:@'
p23
tp24
Rp25
ag10
(g14
S'\x92Z\xe7\xa3\x99`:@'
p26
tp27
Rp28
ag10
(g14
S'\x807\xe8R3*:@'
p29
tp30
Rp31
ag10
(g14
S'Y_\x8eXb1:@'
p32
tp33
Rp34
ag10
(g14
S'\x92u\x0f\xee\xc1\x0e:@'
p35
tp36
Rp37
ag10
(g14
S',\xbf\x8d7\xac0:@'
p38
tp39
Rp40
ag10
(g14
S'\xb2lz\x94\xc3Z:@'
p41
tp42
Rp43
ag10
(g14
S'R\x7fG*Ug:@'
p44
tp45
Rp46
ag10
(g14
S'.$\x82\x87B8:@'
p47
tp48
Rp49
ag10
(g14
S'#\xafH\xac\xcbD:@'
p50
tp51
Rp52
ag10
(g14
S'\x19E(\xf3\xa8M:@'
p53
tp54
Rp55
ag10
(g14
S'\xa4\xd6n\xf9g\xfa9@'
p56
tp57
Rp58
ag10
(g14
S'b\r\xf5\xf5~ :@'
p59
tp60
Rp61
ag10
(g14
S'\x98\xd1\x8c\x14\xb3\x03:@'
p62
tp63
Rp64
ag10
(g14
S'\xa1\xa4h\xc9\xacJ:@'
p65
tp66
Rp67
ag10
(g14
S'\x97d\xd4\x81A#:@'
p68
tp69
Rp70
ag10
(g14
S'\xc0\xa0\x07U\xce.:@'
p71
tp72
Rp73
ag10
(g14
S'X\xe5z\xc81\x1c:@'
p74
tp75
Rp76
asS'target'
p77
(lp78
g10
(g14
S'\xfaG\x08\x1do\x1a!@'
p79
tp80
Rp81
ag10
(g14
S'\xe6|\x14H\xa1\xb3!@'
p82
tp83
Rp84
ag10
(g14
S'\xd15\xcf\xd0\xd9\xe6 @'
p85
tp86
Rp87
ag10
(g14
S'\xd5\x1d`\x12\xe32!@'
p88
tp89
Rp90
ag10
(g14
S'N3\x86\xe9yP!@'
p91
tp92
Rp93
ag10
(g14
S'j\x02\xfe\xef(<"@'
p94
tp95
Rp96
ag10
(g14
S'\\\xd3\xcc\x1b\xf0\xb7!@'
p97
tp98
Rp99
ag10
(g14
S'\xbfSvsh\xe3 @'
p100
tp101
Rp102
ag10
(g14
S'X\xf2\x99!\x1e3"@'
p103
tp104
Rp105
ag10
(g14
S'\x0fMLG\xc5g!@'
p106
tp107
Rp108
ag10
(g14
S'E\xc0\rg\xb1\x88 @'
p109
tp110
Rp111
ag10
(g14
S'\xbe\x844\xa5\x82\x0e!@'
p112
tp113
Rp114
ag10
(g14
S'_s~\xc0|["@'
p115
tp116
Rp117
ag10
(g14
S'\xd8E\xe1\xa3O\xa6!@'
p118
tp119
Rp120
ag10
(g14
S'\xb0V\xdc*1\x11!@'
p121
tp122
Rp123
ag10
(g14
S'\x9b\x01\x06\xdd\x9e\xe8 @'
p124
tp125
Rp126
ag10
(g14
S'\xff\xdf\xbfbI\x95!@'
p127
tp128
Rp129
ag10
(g14
S'\x7f0\x1e\x9e\xad\x0e"@'
p130
tp131
Rp132
ag10
(g14
S'\xbc*\xd95\xcd\x97 @'
p133
tp134
Rp135
ag10
(g14
S'\xdf\xae2U)a!@'
p136
tp137
Rp138
asssss.