(dp0
S'../Data/sqlite_4.csv'
p1
(dp2
S'../Data/sqlite_37.csv'
p3
(dp4
F0.4
(dp5
S'abs_res'
p6
(dp7
S'bellwether'
p8
(lp9
cnumpy.core.multiarray
scalar
p10
(cnumpy
dtype
p11
(S'f8'
p12
I0
I1
tp13
Rp14
(I3
S'<'
p15
NNNI-1
I-1
I0
tp16
bS'.z[6Kr7A'
p17
tp18
Rp19
ag10
(g14
S'GQ\xff\x06\x9fr7A'
p20
tp21
Rp22
ag10
(g14
S'\x7f\xb1\xe4W\xbdp7A'
p23
tp24
Rp25
ag10
(g14
S'fJ\xc5\x99,s7A'
p26
tp27
Rp28
ag10
(g14
S'\x8d_,\xf9\xd7t7A'
p29
tp30
Rp31
ag10
(g14
S'\xf1(\\\xaf\xe3r7A'
p32
tp33
Rp34
ag10
(g14
S'\xfc\xf0\x196\xbfs7A'
p35
tp36
Rp37
ag10
(g14
S'f\xaf\xb9P;u7A'
p38
tp39
Rp40
ag10
(g14
S'V\x80\xdc\xabRr7A'
p41
tp42
Rp43
ag10
(g14
S"\x0c\x02+'\x89q7A"
p44
tp45
Rp46
ag10
(g14
S'\xa1\rtZ\xefr7A'
p47
tp48
Rp49
ag10
(g14
S'e\x1f>\x83\xfeq7A'
p50
tp51
Rp52
ag10
(g14
S'\xcc\xf7S\xa3\ru7A'
p53
tp54
Rp55
ag10
(g14
S'\x82A`%is7A'
p56
tp57
Rp58
ag10
(g14
S'\x01\x90{\xcdvr7A'
p59
tp60
Rp61
ag10
(g14
S'\xf3S\xe3\x05^s7A'
p62
tp63
Rp64
ag10
(g14
S'\x00\x02+\xa7\xc6s7A'
p65
tp66
Rp67
ag10
(g14
S'\x81\x07\xf3\x84\x11q7A'
p68
tp69
Rp70
ag10
(g14
S'DS*N\xedr7A'
p71
tp72
Rp73
ag10
(g14
S'\x11\xaeG\x01\x1bs7A'
p74
tp75
Rp76
asS'target'
p77
(lp78
g10
(g14
S'effff\xc6G@'
p79
tp80
Rp81
ag10
(g14
S'\x10\xd7\xa3p=bG@'
p82
tp83
Rp84
ag10
(g14
S'+\x87\x16\xd9\xce\xc7F@'
p85
tp86
Rp87
ag10
(g14
S'$1\x08\xac\x1cJH@'
p88
tp89
Rp90
ag10
(g14
S'\xfb\xd4x\xe9&1G@'
p91
tp92
Rp93
ag10
(g14
S'|\xe9&1\x08\x04H@'
p94
tp95
Rp96
ag10
(g14
S'y\x93\x18\x04V~G@'
p97
tp98
Rp99
ag10
(g14
S'\xf7~j\xbctSG@'
p100
tp101
Rp102
ag10
(g14
S'Qb\x10X9$F@'
p103
tp104
Rp105
ag10
(g14
S'\xab\xc6K7\x89aH@'
p106
tp107
Rp108
ag10
(g14
S'A\xb6\xf3\xfd\xd40H@'
p109
tp110
Rp111
ag10
(g14
S'\x8f\xebQ\xb8\x1e\x8dG@'
p112
tp113
Rp114
ag10
(g14
S'\x1b\x04V\x0e-JF@'
p115
tp116
Rp117
ag10
(g14
S'\x10-\xb2\x9d\xef7G@'
p118
tp119
Rp120
ag10
(g14
S'\xd7\xf7S\xe3\xa5\xa3G@'
p121
tp122
Rp123
ag10
(g14
S'\xf5\xa7\xc6K7\x01H@'
p124
tp125
Rp126
ag10
(g14
S'\xfe\xd4x\xe9&yF@'
p127
tp128
Rp129
ag10
(g14
S'\x86\x95C\x8bl\x1fH@'
p130
tp131
Rp132
ag10
(g14
S'i\x91\xed|?UG@'
p133
tp134
Rp135
ag10
(g14
S'~\xc0\xca\xa1E\xf6G@'
p136
tp137
Rp138
asssss.