(dp0
S'../Data/sqlite_35.csv'
p1
(dp2
S'../Data/sqlite_84.csv'
p3
(dp4
F0.05
(dp5
S'mmre'
p6
(dp7
S'bellwether'
p8
(lp9
cnumpy.core.multiarray
scalar
p10
(cnumpy
dtype
p11
(S'f8'
p12
I0
I1
tp13
Rp14
(I3
S'<'
p15
NNNI-1
I-1
I0
tp16
bS'\xe0%\x07\x923.C@'
p17
tp18
Rp19
ag10
(g14
S'\x91\xf4\x83\x17\xe0\x12C@'
p20
tp21
Rp22
ag10
(g14
S'oT6\xef\xff=C@'
p23
tp24
Rp25
ag10
(g14
S'\x89\xce\xe7\xff:DC@'
p26
tp27
Rp28
ag10
(g14
S'\x8eh3E\xe6\x18C@'
p29
tp30
Rp31
ag10
(g14
S'\x8f\x8a\xded\xc0>C@'
p32
tp33
Rp34
ag10
(g14
S'\xfa\x94\x8d:\xb0\rC@'
p35
tp36
Rp37
ag10
(g14
S'\xf5\x19g|mRC@'
p38
tp39
Rp40
ag10
(g14
S'\x00\xec\x1f\xc0\xef(C@'
p41
tp42
Rp43
ag10
(g14
S',4\x1e\xa8 SC@'
p44
tp45
Rp46
ag10
(g14
S' \x93K\x8fi?C@'
p47
tp48
Rp49
ag10
(g14
S'\x9bJnS\xf92C@'
p50
tp51
Rp52
ag10
(g14
S'\xfa\x95\xc7\x1d\x88;C@'
p53
tp54
Rp55
ag10
(g14
S'\x03\xeb\xda\x8fh1C@'
p56
tp57
Rp58
ag10
(g14
S'\xb6\xf5\xf3\xc0\xdf\x1dC@'
p59
tp60
Rp61
ag10
(g14
S'\xa6\xba\xb0\xd0>&C@'
p62
tp63
Rp64
ag10
(g14
S'\xe8@m<P6C@'
p65
tp66
Rp67
ag10
(g14
S'\x8c\x96g\x9d\x90=C@'
p68
tp69
Rp70
ag10
(g14
S'(D\xe1\x88\xd3\x18C@'
p71
tp72
Rp73
ag10
(g14
S'k\xa0Nvr$C@'
p74
tp75
Rp76
asS'target'
p77
(lp78
g10
(g14
S'E1=\x05\xb8\x9dU@'
p79
tp80
Rp81
ag10
(g14
S'\xd1*\x96=|\xa0B@'
p82
tp83
Rp84
ag10
(g14
S'\x17RxsOPU@'
p85
tp86
Rp87
ag10
(g14
S'\xfbT3\x88\x8bIV@'
p88
tp89
Rp90
ag10
(g14
S'B\xaf\t\x87Z\x7fY@'
p91
tp92
Rp93
ag10
(g14
S'\x0fzg\x9d\xf7\xd4T@'
p94
tp95
Rp96
ag10
(g14
S'2a\x17\xee\xbf\x7fO@'
p97
tp98
Rp99
ag10
(g14
S'\xe5V,8\x1d\nI@'
p100
tp101
Rp102
ag10
(g14
S'\xff>\x85\xdeWaS@'
p103
tp104
Rp105
ag10
(g14
S"\xa0Q\xd5\xde'\x98T@"
p106
tp107
Rp108
ag10
(g14
S'\x88tt\xf7\x87iT@'
p109
tp110
Rp111
ag10
(g14
S'\xbfE\x88\xf0#]U@'
p112
tp113
Rp114
ag10
(g14
S'\x11\xd5?c\xb8\xedD@'
p115
tp116
Rp117
ag10
(g14
S'4\xef>\x1f\x06\x8dV@'
p118
tp119
Rp120
ag10
(g14
S'\x19cP\xf7(oT@'
p121
tp122
Rp123
ag10
(g14
S'Z/z\x0c]hS@'
p124
tp125
Rp126
ag10
(g14
S'TU\xfer\xf3\xf5R@'
p127
tp128
Rp129
ag10
(g14
S'\x0e;\xeb0\\\n@@'
p130
tp131
Rp132
ag10
(g14
S'2\xd3\x8c\xfd\xc2\xb5N@'
p133
tp134
Rp135
ag10
(g14
S'\xe8p5\xc9K\x01T@'
p136
tp137
Rp138
asssss.