(dp0
S'../Data/sqlite_56.csv'
p1
(dp2
S'../Data/sqlite_76.csv'
p3
(dp4
F0.15
(dp5
S'mmre'
p6
(dp7
S'bellwether'
p8
(lp9
cnumpy.core.multiarray
scalar
p10
(cnumpy
dtype
p11
(S'f8'
p12
I0
I1
tp13
Rp14
(I3
S'<'
p15
NNNI-1
I-1
I0
tp16
bS'F\x1a\x9b\xbe_*P@'
p17
tp18
Rp19
ag10
(g14
S'\x7fO\x7f\xd0\xe1)P@'
p20
tp21
Rp22
ag10
(g14
S'FV\xfbF8+P@'
p23
tp24
Rp25
ag10
(g14
S'&\xb1\x7f$L+P@'
p26
tp27
Rp28
ag10
(g14
S'\xe0\x9a!7\xf0!P@'
p29
tp30
Rp31
ag10
(g14
S'\xe9\xd1\x07A\x9f)P@'
p32
tp33
Rp34
ag10
(g14
S'Bs0lf,P@'
p35
tp36
Rp37
ag10
(g14
S'x\xfa\xfaK\xb1,P@'
p38
tp39
Rp40
ag10
(g14
S'-\xa0\xda\x88\xe5+P@'
p41
tp42
Rp43
ag10
(g14
S'\x85k\xae\xd2\xa6%P@'
p44
tp45
Rp46
ag10
(g14
S'8s\x92\xf4**P@'
p47
tp48
Rp49
ag10
(g14
S"VYR\x02Y'P@"
p50
tp51
Rp52
ag10
(g14
S"YW7'\xca-P@"
p53
tp54
Rp55
ag10
(g14
S'\x9e\x0cc\xac\x10)P@'
p56
tp57
Rp58
ag10
(g14
S'\x93\xb3\xa9)\xac(P@'
p59
tp60
Rp61
ag10
(g14
S'\x1e X\x06e&P@'
p62
tp63
Rp64
ag10
(g14
S'\xcb\x0f\x1b\xde\xb87P@'
p65
tp66
Rp67
ag10
(g14
S'Q\x94\x927\xbc/P@'
p68
tp69
Rp70
ag10
(g14
S',\xc8\x06w\xab"P@'
p71
tp72
Rp73
ag10
(g14
S'\xa3\x8dR\x12\x053P@'
p74
tp75
Rp76
asS'target'
p77
(lp78
g10
(g14
S'\x93\x1ag=EB1@'
p79
tp80
Rp81
ag10
(g14
S'\x10\x16`\xb4.E1@'
p82
tp83
Rp84
ag10
(g14
S'\xe6\xf2\xdf\x9a\xb4\x0e1@'
p85
tp86
Rp87
ag10
(g14
S'\xe6\xd5K\xc6\x8dM1@'
p88
tp89
Rp90
ag10
(g14
S'\xe0\xef\xcc\xa1\x1d\xb71@'
p91
tp92
Rp93
ag10
(g14
S'6\xe3\x8aj\xe2\xab1@'
p94
tp95
Rp96
ag10
(g14
S'\x16\xec\xc1\x88\xa0,1@'
p97
tp98
Rp99
ag10
(g14
S'@\x87*\xa2\xe9\xe70@'
p100
tp101
Rp102
ag10
(g14
S'\xe4NC\xb3$\x012@'
p103
tp104
Rp105
ag10
(g14
S'\x83K7CUn1@'
p106
tp107
Rp108
ag10
(g14
S'\x98\xc6\xac\x03$E2@'
p109
tp110
Rp111
ag10
(g14
S'\xb7\xac\xed\x9a\x8cT2@'
p112
tp113
Rp114
ag10
(g14
S'i\x91s\x9dqC1@'
p115
tp116
Rp117
ag10
(g14
S'>gvHw\x801@'
p118
tp119
Rp120
ag10
(g14
S'\xef]@\xa6\x87?2@'
p121
tp122
Rp123
ag10
(g14
S'\xbe\x0c\x9dr\x92J1@'
p124
tp125
Rp126
ag10
(g14
S'\xb1\xc5\xae\xac\xac\x9d0@'
p127
tp128
Rp129
ag10
(g14
S'\xb1\xe0\xf98\x86v0@'
p130
tp131
Rp132
ag10
(g14
S'\x0cx2\x99\xb9B2@'
p133
tp134
Rp135
ag10
(g14
S'\xaa3!\xbc[V2@'
p136
tp137
Rp138
asssss.