(dp0
S'../Data/sqlite_37.csv'
p1
(dp2
S'../Data/sqlite_96.csv'
p3
(dp4
F0.1
(dp5
S'mmre'
p6
(dp7
S'bellwether'
p8
(lp9
cnumpy.core.multiarray
scalar
p10
(cnumpy
dtype
p11
(S'f8'
p12
I0
I1
tp13
Rp14
(I3
S'<'
p15
NNNI-1
I-1
I0
tp16
bS'\xdaG\xa9\xc4\xfb:X@'
p17
tp18
Rp19
ag10
(g14
S'\x9fgB\tS;X@'
p20
tp21
Rp22
ag10
(g14
S'X\xd6\x9a\x1e\xe7:X@'
p23
tp24
Rp25
ag10
(g14
S'0\x10[\xa4\xec:X@'
p26
tp27
Rp28
ag10
(g14
S'\xb8\xd7\x11K,;X@'
p29
tp30
Rp31
ag10
(g14
S'\xa8`\xdb\x9cO;X@'
p32
tp33
Rp34
ag10
(g14
S'\xddB\xe8\\\xc1:X@'
p35
tp36
Rp37
ag10
(g14
S'-<!\xb3):X@'
p38
tp39
Rp40
ag10
(g14
S'\xf1\xe6d+n:X@'
p41
tp42
Rp43
ag10
(g14
S'k\x86{\xf8D:X@'
p44
tp45
Rp46
ag10
(g14
S'\xcd\xb9<\xb7\xe9:X@'
p47
tp48
Rp49
ag10
(g14
S'\xd0K\xe8\xa1\x8b:X@'
p50
tp51
Rp52
ag10
(g14
S'\x96\xef\xf0.\x95:X@'
p53
tp54
Rp55
ag10
(g14
S')h\x15.\xdd9X@'
p56
tp57
Rp58
ag10
(g14
S's \x10Lk:X@'
p59
tp60
Rp61
ag10
(g14
S'\xa78\xd4~);X@'
p62
tp63
Rp64
ag10
(g14
S'\xc0\x97\xba,\xb9:X@'
p65
tp66
Rp67
ag10
(g14
S'-~#O\x00;X@'
p68
tp69
Rp70
ag10
(g14
S'Fo=K\xae:X@'
p71
tp72
Rp73
ag10
(g14
S'\xa7Q[\xcb\xe9:X@'
p74
tp75
Rp76
asS'target'
p77
(lp78
g10
(g14
S'\xcbN\xd6\xd1~%J@'
p79
tp80
Rp81
ag10
(g14
S'\x15\x00\xa2\xd7\x82aP@'
p82
tp83
Rp84
ag10
(g14
S'\xd8\x10\xdbl\x10\xc1N@'
p85
tp86
Rp87
ag10
(g14
S'\x8e\x1b\xc0\x058\x86P@'
p88
tp89
Rp90
ag10
(g14
S'\xce;\xa8|\xdc\xb0B@'
p91
tp92
Rp93
ag10
(g14
S'R\x89%\x1e\x18\xb7N@'
p94
tp95
Rp96
ag10
(g14
S')\x91\xa0G<\xfcY@'
p97
tp98
Rp99
ag10
(g14
S"'`Y\xfe\xe13^@"
p100
tp101
Rp102
ag10
(g14
S'zh\x8a\x18&\xfdR@'
p103
tp104
Rp105
ag10
(g14
S'FE\xe0\x92m\xcf_@'
p106
tp107
Rp108
ag10
(g14
S'\xbb\xc6\xa3UA\x80G@'
p109
tp110
Rp111
ag10
(g14
S'\xce\x0bb\x9f\xd5\x11N@'
p112
tp113
Rp114
ag10
(g14
S'!1w\xb4\\\x0eR@'
p115
tp116
Rp117
ag10
(g14
S'\x94TA;\xa4YP@'
p118
tp119
Rp120
ag10
(g14
S'q\xa7\x8f\xb0\x06\xbcM@'
p121
tp122
Rp123
ag10
(g14
S'\x16\xae\x08\x0b\xc3\xe6B@'
p124
tp125
Rp126
ag10
(g14
S'\xfcC\x87}\xd4\xeaG@'
p127
tp128
Rp129
ag10
(g14
S'\x0b\xee\xf9\x9bw\xbcV@'
p130
tp131
Rp132
ag10
(g14
S'\xd6\x01]Y\xf7?W@'
p133
tp134
Rp135
ag10
(g14
S'\x9b\xb3\x0c0\xdc\x86U@'
p136
tp137
Rp138
asssss.