(dp0
S'../Data/sqlite_46.csv'
p1
(dp2
S'../Data/sqlite_27.csv'
p3
(dp4
F0.15
(dp5
S'abs_res'
p6
(dp7
S'bellwether'
p8
(lp9
cnumpy.core.multiarray
scalar
p10
(cnumpy
dtype
p11
(S'f8'
p12
I0
I1
tp13
Rp14
(I3
S'<'
p15
NNNI-1
I-1
I0
tp16
bS'(\xb0r\x18+\n@A'
p17
tp18
Rp19
ag10
(g14
S'\xd8\xa3p\xadr\n@A'
p20
tp21
Rp22
ag10
(g14
S'j=\nG;\n@A'
p23
tp24
Rp25
ag10
(g14
S'v\x93\x18\xb4R\n@A'
p26
tp27
Rp28
ag10
(g14
S'Xd;\x0f\xad\n@A'
p29
tp30
Rp31
ag10
(g14
S'\x84\xebQx\xe0\t@A'
p32
tp33
Rp34
ag10
(g14
S'N7\x89!l\n@A'
p35
tp36
Rp37
ag10
(g14
S'\x9c\xc4 \xb0\xd5\n@A'
p38
tp39
Rp40
ag10
(g14
S'J\xe1z\x84F\n@A'
p41
tp42
Rp43
ag10
(g14
S'\xf8S\xe3\x05\xe5\t@A'
p44
tp45
Rp46
ag10
(g14
S'\xfc\xff\xff\x9fV\n@A'
p47
tp48
Rp49
ag10
(g14
S'\xec&1\xe8\xaf\n@A'
p50
tp51
Rp52
ag10
(g14
S'\xd0"\xdb\xe9\xa9\n@A'
p53
tp54
Rp55
ag10
(g14
S'\x13X9\xb4Q\n@A'
p56
tp57
Rp58
ag10
(g14
S'Qb\x10\xf8]\n@A'
p59
tp60
Rp61
ag10
(g14
S't\x93\x18\xa4`\n@A'
p62
tp63
Rp64
ag10
(g14
S'\x86\x16\xd9\xde\x88\n@A'
p65
tp66
Rp67
ag10
(g14
S'X\x0e-2Z\n@A'
p68
tp69
Rp70
ag10
(g14
S'(\x06\x81\xa5\xda\n@A'
p71
tp72
Rp73
ag10
(g14
S'#\xdb\xf9.\xcd\n@A'
p74
tp75
Rp76
asS'target'
p77
(lp78
g10
(g14
S'\x04V\x0e-r*\x94@'
p79
tp80
Rp81
ag10
(g14
S'\x13-\xb2\x9d\xef0\x92@'
p82
tp83
Rp84
ag10
(g14
S'P\x8d\x97n\x92\xba\x93@'
p85
tp86
Rp87
ag10
(g14
S'\xfb(\\\x8fB\xba\x94@'
p88
tp89
Rp90
ag10
(g14
S't\x93\x18\x04V\xff\x90@'
p91
tp92
Rp93
ag10
(g14
S'j;\xdfO\r\x18\x93@'
p94
tp95
Rp96
ag10
(g14
S'\x0c-\xb2\x9doI\x92@'
p97
tp98
Rp99
ag10
(g14
S'q\xbe\x9f\x1a/j\x95@'
p100
tp101
Rp102
ag10
(g14
S'mfff\xa67\x92@'
p103
tp104
Rp105
ag10
(g14
S']\x10X9\xb44\x92@'
p106
tp107
Rp108
ag10
(g14
S'\x9d\x1a/\xdd$k\x92@'
p109
tp110
Rp111
ag10
(g14
S'\xe5&1\x08,T\x92@'
p112
tp113
Rp114
ag10
(g14
S'Ib\x10X\xb9\x13\x94@'
p115
tp116
Rp117
ag10
(g14
S'H`\xe5\xd0"\xa6\x92@'
p118
tp119
Rp120
ag10
(g14
S'yL\xf0`\x9e\xc9\x92@'
p121
tp122
Rp123
ag10
(g14
S'{=\n\xd7#2\x91@'
p124
tp125
Rp126
ag10
(g14
S'\xc3\xca\xa1E6C\x91@'
p127
tp128
Rp129
ag10
(g14
S'!/\xdd$\x06y\x95@'
p130
tp131
Rp132
ag10
(g14
S'\x11X9\xb4H\xc4\x90@'
p133
tp134
Rp135
ag10
(g14
S'\xef&1\x08,\x10\x92@'
p136
tp137
Rp138
asssss.