(dp0
S'../Data/sqlite_81.csv'
p1
(dp2
S'../Data/sqlite_85.csv'
p3
(dp4
F0.3
(dp5
S'abs_res'
p6
(dp7
S'bellwether'
p8
(lp9
cnumpy.core.multiarray
scalar
p10
(cnumpy
dtype
p11
(S'f8'
p12
I0
I1
tp13
Rp14
(I3
S'<'
p15
NNNI-1
I-1
I0
tp16
bS'\xd1\x06:-\x8a\xf2QA'
p17
tp18
Rp19
ag10
(g14
S'\x9d6\xd0a\x06\x1dRA'
p20
tp21
Rp22
ag10
(g14
S'033\x83\x8dBRA'
p23
tp24
Rp25
ag10
(g14
S'\xb3\x81N\x8b\xd8>RA'
p26
tp27
Rp28
ag10
(g14
S'\x04\x9d6\xb8\xc5HRA'
p29
tp30
Rp31
ag10
(g14
S'g\x03\x9d\xce\xed\x10RA'
p32
tp33
Rp34
ag10
(g14
S'\xc2X\xf2\xb3\xcc\x0cRA'
p35
tp36
Rp37
ag10
(g14
S'\xa3p=\x12\xcc3RA'
p38
tp39
Rp40
ag10
(g14
S'lff\x96\xe3/RA'
p41
tp42
Rp43
ag10
(g14
S'\xa9p=\xe28LRA'
p44
tp45
Rp46
ag10
(g14
S'\x94_,\xc1\xe1\x1bRA'
p47
tp48
Rp49
ag10
(g14
S'r\xda@\xef;?RA'
p50
tp51
Rp52
ag10
(g14
S';m\xa0s\xbezRA'
p53
tp54
Rp55
ag10
(g14
S'8\xd0iKl/RA'
p56
tp57
Rp58
ag10
(g14
S'\x91%\xbf\xb0x\x1cRA'
p59
tp60
Rp61
ag10
(g14
S'@\xa7\r\xbcp\x03RA'
p62
tp63
Rp64
ag10
(g14
S'\xab\xaa\xaa\xd2\x05hRA'
p65
tp66
Rp67
ag10
(g14
S'b\x03\x9d>?\x1bRA'
p68
tp69
Rp70
ag10
(g14
S'U\x8f\xc2=x>RA'
p71
tp72
Rp73
ag10
(g14
S'\xfbb\xc9\xbf.\nRA'
p74
tp75
Rp76
asS'target'
p77
(lp78
g10
(g14
S'j=\n\x17=\xe8>A'
p79
tp80
Rp81
ag10
(g14
S'}\x14\xaeGF1;A'
p82
tp83
Rp84
ag10
(g14
S'\x17\xaeG\xc1\x14\x17<A'
p85
tp86
Rp87
ag10
(g14
S'\xf9(\\\xcf\x86\xf5:A'
p88
tp89
Rp90
ag10
(g14
S'\xaeG\xe1:\xf9\xe3>A'
p91
tp92
Rp93
ag10
(g14
S'\xc0\x1e\x85\xeb`\x97?A'
p94
tp95
Rp96
ag10
(g14
S'\x15\xd7\xa30\x97\xd6<A'
p97
tp98
Rp99
ag10
(g14
S't=\n\x97+\xd29A'
p100
tp101
Rp102
ag10
(g14
S'>\n\xd7\xa3({=A'
p103
tp104
Rp105
ag10
(g14
S'\xacG\xe1\xfa,\x1c>A'
p106
tp107
Rp108
ag10
(g14
S'\x81\x14\xae\x87\x15\xce<A'
p109
tp110
Rp111
ag10
(g14
S'^ff\xe6\xa2\xcd<A'
p112
tp113
Rp114
ag10
(g14
S'Z\x8f\xc2u\xa3\xdc>A'
p115
tp116
Rp117
ag10
(g14
S'B\xe1z\xd4B^>A'
p118
tp119
Rp120
ag10
(g14
S'\xf5(\\O#E=A'
p121
tp122
Rp123
ag10
(g14
S'@\xe1zT\xfer>A'
p124
tp125
Rp126
ag10
(g14
S'$\x85\xeb\x11[\x8e>A'
p127
tp128
Rp129
ag10
(g14
S'E\n\xd7c\x11A<A'
p130
tp131
Rp132
ag10
(g14
S'\xc4\xf5(\x1c1\x7f=A'
p133
tp134
Rp135
ag10
(g14
S'\xc4\xf5(\x9c\x0b\xf1=A'
p136
tp137
Rp138
asssss.