(dp0
S'../Data/sqlite_18.csv'
p1
(dp2
S'../Data/sqlite_36.csv'
p3
(dp4
F0.3
(dp5
S'abs_res'
p6
(dp7
S'bellwether'
p8
(lp9
cnumpy.core.multiarray
scalar
p10
(cnumpy
dtype
p11
(S'f8'
p12
I0
I1
tp13
Rp14
(I3
S'<'
p15
NNNI-1
I-1
I0
tp16
bS'\x99\xe0\xc1\xfcy,;A'
p17
tp18
Rp19
ag10
(g14
S'\xaeG\xe1\xda!.;A'
p20
tp21
Rp22
ag10
(g14
S'2z[\xd6:,;A'
p23
tp24
Rp25
ag10
(g14
S'\xad\x00\xb9\xd7\x8a-;A'
p26
tp27
Rp28
ag10
(g14
S'^,\xf9%a,;A'
p29
tp30
Rp31
ag10
(g14
S"\x8e'\xea\x9fz-;A"
p32
tp33
Rp34
ag10
(g14
S'\xa3\xe2\xec\xe3B.;A'
p35
tp36
Rp37
ag10
(g14
S'\\\xd6\xea\xd8I-;A'
p38
tp39
Rp40
ag10
(g14
S'/33\x93z+;A'
p41
tp42
Rp43
ag10
(g14
S'V\xd6\xea\xf8\xf1*;A'
p44
tp45
Rp46
ag10
(g14
S'!\xb0rh\xd0.;A'
p47
tp48
Rp49
ag10
(g14
S'i;\xdf\x0fC,;A'
p50
tp51
Rp52
ag10
(g14
S'\r<\x98g\xaa-;A'
p53
tp54
Rp55
ag10
(g14
S'0z[\x96\xcb-;A'
p56
tp57
Rp58
ag10
(g14
S'l\xd8\x15`H-;A'
p59
tp60
Rp61
ag10
(g14
S'jY\xab#\xd1.;A'
p62
tp63
Rp64
ag10
(g14
S'\x85\t\x1e\xcc\xf8,;A'
p65
tp66
Rp67
ag10
(g14
S';\xee5\xb77.;A'
p68
tp69
Rp70
ag10
(g14
S'r=\n\x17\xfb*;A'
p71
tp72
Rp73
ag10
(g14
S'}\x95C\x0b\x80,;A'
p74
tp75
Rp76
asS'target'
p77
(lp78
g10
(g14
S'\xdbz\x14\xaeG\xd1S@'
p79
tp80
Rp81
ag10
(g14
S'\xee\xa7\xc6K7aT@'
p82
tp83
Rp84
ag10
(g14
S'I5^\xbaI\x10V@'
p85
tp86
Rp87
ag10
(g14
S'\x87\xebQ\xb8\x1eQU@'
p88
tp89
Rp90
ag10
(g14
S'|\xbe\x9f\x1a/IT@'
p91
tp92
Rp93
ag10
(g14
S'v\x93\x18\x04V6V@'
p94
tp95
Rp96
ag10
(g14
S'\xa6p=\n\xd7\xe3T@'
p97
tp98
Rp99
ag10
(g14
S'\xc4\xca\xa1E\xb6\xebS@'
p100
tp101
Rp102
ag10
(g14
S'\xdf$\x06\x81\x95\x13U@'
p103
tp104
Rp105
ag10
(g14
S'\x13X9\xb4\xc8\xb6S@'
p106
tp107
Rp108
ag10
(g14
S'/\xb2\x9d\xef\xa7nV@'
p109
tp110
Rp111
ag10
(g14
S'\x11 \xf7\x9a\x0b\x19T@'
p112
tp113
Rp114
ag10
(g14
S'\x0f\xd7\xa3p=\x92S@'
p115
tp116
Rp117
ag10
(g14
S'\xe1\xf9~j\xbc4U@'
p118
tp119
Rp120
ag10
(g14
S'\x1f\x04V\x0e-\xa2T@'
p121
tp122
Rp123
ag10
(g14
S'\xb9I\x0c\x02+\xafT@'
p124
tp125
Rp126
ag10
(g14
S',\xb2\x9d\xef\xa7&T@'
p127
tp128
Rp129
ag10
(g14
S'i\x10X9\xb4\xb4T@'
p130
tp131
Rp132
ag10
(g14
S'M7\x89A`]U@'
p133
tp134
Rp135
ag10
(g14
S'\x93\x18\x04V\x0eqS@'
p136
tp137
Rp138
asssss.