(dp0
S'../Data/sqlite_18.csv'
p1
(dp2
S'../Data/sqlite_30.csv'
p3
(dp4
F0.25
(dp5
S'abs_res'
p6
(dp7
S'bellwether'
p8
(lp9
cnumpy.core.multiarray
scalar
p10
(cnumpy
dtype
p11
(S'f8'
p12
I0
I1
tp13
Rp14
(I3
S'<'
p15
NNNI-1
I-1
I0
tp16
bS'4\xce>\\V$=A'
p17
tp18
Rp19
ag10
(g14
S'\x1c"""\xc1\'=A'
p20
tp21
Rp22
ag10
(g14
S"\x86\xcd\x85D '=A"
p23
tp24
Rp25
ag10
(g14
S'@\x89A\xe0\xa3&=A'
p26
tp27
Rp28
ag10
(g14
S'N\x80\xdc\x0b\x93&=A'
p29
tp30
Rp31
ag10
(g14
S'\x8b\x88\x88Hi(=A'
p32
tp33
Rp34
ag10
(g14
S"d\xf4\xb6\x8c\x8a'=A"
p35
tp36
Rp37
ag10
(g14
S'F`\xe5p\x97%=A'
p38
tp39
Rp40
ag10
(g14
S'9\xd0i\xe3\x92%=A'
p41
tp42
Rp43
ag10
(g14
S'c\x91\xed\xbc\x1c$=A'
p44
tp45
Rp46
ag10
(g14
S'\xbf-k5\x82&=A'
p47
tp48
Rp49
ag10
(g14
S'\x95\x18\x04VV%=A'
p50
tp51
Rp52
ag10
(g14
S"x\xbe\x9f\x9a\xa5'=A"
p53
tp54
Rp55
ag10
(g14
S'\xb0\x00\xb97\xa8&=A'
p56
tp57
Rp58
ag10
(g14
S'\xa1}\xf8\x8c\x1f&=A'
p59
tp60
Rp61
ag10
(g14
S'\x96\xb5:\x86\xb2%=A'
p62
tp63
Rp64
ag10
(g14
S'z\xe9&\xd1\xae%=A'
p65
tp66
Rp67
ag10
(g14
S'\x0cISJz&=A'
p68
tp69
Rp70
ag10
(g14
S"\xe6\x17K~\xaa'=A"
p71
tp72
Rp73
ag10
(g14
S'\x15/\xdd\x84\xf1%=A'
p74
tp75
Rp76
asS'target'
p77
(lp78
g10
(g14
S'\r\xd7\xa3p=\x02B@'
p79
tp80
Rp81
ag10
(g14
S'\x9cC\x8bl\xe7\xdbB@'
p82
tp83
Rp84
ag10
(g14
S'\x9c\x99\x99\x99\x99\xd9=@'
p85
tp86
Rp87
ag10
(g14
S'\xa6p=\n\xd7S@@'
p88
tp89
Rp90
ag10
(g14
S'\x87\xebQ\xb8\x1eE=@'
p91
tp92
Rp93
ag10
(g14
S'yh\x91\xed|?D@'
p94
tp95
Rp96
ag10
(g14
S'\x8fl\xe7\xfb\xa9\xe1@@'
p97
tp98
Rp99
ag10
(g14
S'\x13\xaeG\xe1z\xd4<@'
p100
tp101
Rp102
ag10
(g14
S'!\x04V\x0e-\x92C@'
p103
tp104
Rp105
ag10
(g14
S'9^\xbaI\x0cb@@'
p106
tp107
Rp108
ag10
(g14
S'I\xe1z\x14\xaeW@@'
p109
tp110
Rp111
ag10
(g14
S'\xaerh\x91\xed,C@'
p112
tp113
Rp114
ag10
(g14
S'\x80\x95C\x8bl7I@'
p115
tp116
Rp117
ag10
(g14
S'\xa2\x99\x99\x99\x99y?@'
p118
tp119
Rp120
ag10
(g14
S'\x99C\x8bl\xe7\xf3@@'
p121
tp122
Rp123
ag10
(g14
S'\xebQ\xb8\x1e\x85\xeb@@'
p124
tp125
Rp126
ag10
(g14
S'\x9eE\xb6\xf3\xfd|@@'
p127
tp128
Rp129
ag10
(g14
S'c9\xb4\xc8vNC@'
p130
tp131
Rp132
ag10
(g14
S'\xa7p=\n\xd7\xb3A@'
p133
tp134
Rp135
ag10
(g14
S'*\xb2\x9d\xef\xa7\x86?@'
p136
tp137
Rp138
asssss.