(dp0
S'../Data/sqlite_21.csv'
p1
(dp2
S'../Data/sqlite_77.csv'
p3
(dp4
F0.2
(dp5
S'mmre'
p6
(dp7
S'bellwether'
p8
(lp9
cnumpy.core.multiarray
scalar
p10
(cnumpy
dtype
p11
(S'f8'
p12
I0
I1
tp13
Rp14
(I3
S'<'
p15
NNNI-1
I-1
I0
tp16
bS'\xbb\x1b?\x07\xd9\x1dN@'
p17
tp18
Rp19
ag10
(g14
S'\xac\x18{N\xe8AN@'
p20
tp21
Rp22
ag10
(g14
S'@\xf0Ojn=N@'
p23
tp24
Rp25
ag10
(g14
S'\x85\xf1P\xb4\xdd8N@'
p26
tp27
Rp28
ag10
(g14
S'\xda\xcb\xc9\x8dF?N@'
p29
tp30
Rp31
ag10
(g14
S'\x8cy\x1e)\x19<N@'
p32
tp33
Rp34
ag10
(g14
S'\x00,j\xd6\xb5ON@'
p35
tp36
Rp37
ag10
(g14
S"'\xe8y`\x155N@"
p38
tp39
Rp40
ag10
(g14
S'R\x9afu\xe3-N@'
p41
tp42
Rp43
ag10
(g14
S'd\xe6KdmAN@'
p44
tp45
Rp46
ag10
(g14
S'd\xccC>\xce?N@'
p47
tp48
Rp49
ag10
(g14
S'b]\xbc\xfd\x10IN@'
p50
tp51
Rp52
ag10
(g14
S'k\xff/r\xe10N@'
p53
tp54
Rp55
ag10
(g14
S'\x18\xc7\x89n@@N@'
p56
tp57
Rp58
ag10
(g14
S'\x8bj\x82\x9dc\x1aN@'
p59
tp60
Rp61
ag10
(g14
S'D\x06\xccnkMN@'
p62
tp63
Rp64
ag10
(g14
S'\x10s\xaf"\x06SN@'
p65
tp66
Rp67
ag10
(g14
S'\xdd(\xc08SEN@'
p68
tp69
Rp70
ag10
(g14
S'X\xb9\xb0\xe4ZFN@'
p71
tp72
Rp73
ag10
(g14
S'\xdb\xack.\xc2MN@'
p74
tp75
Rp76
asS'target'
p77
(lp78
g10
(g14
S"VsA'\x19(7@"
p79
tp80
Rp81
ag10
(g14
S'\x95m\xf6\x87\n\x0e7@'
p82
tp83
Rp84
ag10
(g14
S'L\x0eO2\x0b\x8d6@'
p85
tp86
Rp87
ag10
(g14
S'L\x7f/\x99T*6@'
p88
tp89
Rp90
ag10
(g14
S'dv\xc2\x8a\xb575@'
p91
tp92
Rp93
ag10
(g14
S'\x16\xec%\xdbB\x845@'
p94
tp95
Rp96
ag10
(g14
S'T4G\xee\xc0\xee5@'
p97
tp98
Rp99
ag10
(g14
S'\xd7\xd9\xbaFAd4@'
p100
tp101
Rp102
ag10
(g14
S'\xb6Hp<\xa6<6@'
p103
tp104
Rp105
ag10
(g14
S'@\x82\xbbq\xd6\x175@'
p106
tp107
Rp108
ag10
(g14
S"\x7f\xca\xd0\xe7'~5@"
p109
tp110
Rp111
ag10
(g14
S'\x9d4{\xb7\xcf\xb45@'
p112
tp113
Rp114
ag10
(g14
S'K\x11\x1b\xb2\xb086@'
p115
tp116
Rp117
ag10
(g14
S'\xa7\xf8\xde\xb0o\xa63@'
p118
tp119
Rp120
ag10
(g14
S'$\xd0/\xe2@\x867@'
p121
tp122
Rp123
ag10
(g14
S'\xf3+\xf6d\xe4\xac6@'
p124
tp125
Rp126
ag10
(g14
S'u&\x80 vX5@'
p127
tp128
Rp129
ag10
(g14
S'\xd5\xabT\xbaR\x8a5@'
p130
tp131
Rp132
ag10
(g14
S'v\xbb\x92\xbc\xe646@'
p133
tp134
Rp135
ag10
(g14
S'\xef\xd3\xa0\xe5=A6@'
p136
tp137
Rp138
asssss.