(dp0
S'../Data/sqlite_71.csv'
p1
(dp2
S'../Data/sqlite_33.csv'
p3
(dp4
F0.05
(dp5
S'abs_res'
p6
(dp7
S'bellwether'
p8
(lp9
cnumpy.core.multiarray
scalar
p10
(cnumpy
dtype
p11
(S'f8'
p12
I0
I1
tp13
Rp14
(I3
S'<'
p15
NNNI-1
I-1
I0
tp16
bS'\x84\x16\xd9B\xb3>pA'
p17
tp18
Rp19
ag10
(g14
S'\x9a\x1a/c\tApA'
p20
tp21
Rp22
ag10
(g14
S',\xdd$~\xa3=pA'
p23
tp24
Rp25
ag10
(g14
S'5\x89A\\\xd8DpA'
p26
tp27
Rp28
ag10
(g14
S'\xd1MbR\xee@pA'
p29
tp30
Rp31
ag10
(g14
S'\xf0\xfd\xd4\x98\xdc>pA'
p32
tp33
Rp34
ag10
(g14
S'\xb5t\x93\xb4\x04?pA'
p35
tp36
Rp37
ag10
(g14
S'\xbd\xf5(\xba\xc3=pA'
p38
tp39
Rp40
ag10
(g14
S'B\x8bl\xe9\xec=pA'
p41
tp42
Rp43
ag10
(g14
S'\x87\x16\xd9\x02\xbbBpA'
p44
tp45
Rp46
ag10
(g14
S'\n-\xb2\xd5\x7fBpA'
p47
tp48
Rp49
ag10
(g14
S'\x0cX9F\xbf;pA'
p50
tp51
Rp52
ag10
(g14
S'_\x10X\x11LBpA'
p53
tp54
Rp55
ag10
(g14
S'\\\xbaI\xc8\xc9@pA'
p56
tp57
Rp58
ag10
(g14
S'\t\xd7\xa3(XBpA'
p59
tp60
Rp61
ag10
(g14
S'\x94C\x8b\x06\xf2ApA'
p62
tp63
Rp64
ag10
(g14
S'<\n\xd7\x1d6ApA'
p65
tp66
Rp67
ag10
(g14
S'\xe8\xee\xee8tApA'
p68
tp69
Rp70
ag10
(g14
S'v[\xd6\n\xa5@pA'
p71
tp72
Rp73
ag10
(g14
S't\xe9&\xe1\x00?pA'
p74
tp75
Rp76
asS'target'
p77
(lp78
g10
(g14
S'y\xbe\x9f\x1a/\xcdO@'
p79
tp80
Rp81
ag10
(g14
S'\x1a-\xb2\x9d\xef\xc7O@'
p82
tp83
Rp84
ag10
(g14
S'\xe6|?5^JO@'
p85
tp86
Rp87
ag10
(g14
S'`\x91\xed|?\x15S@'
p88
tp89
Rp90
ag10
(g14
S'8\xdfO\x8d\x97&P@'
p91
tp92
Rp93
ag10
(g14
S'\xae\x1a/\xdd$VM@'
p94
tp95
Rp96
ag10
(g14
S'L\x8d\x97n\x12\xd3R@'
p97
tp98
Rp99
ag10
(g14
S'\x06\xac\x1cZd[P@'
p100
tp101
Rp102
ag10
(g14
S'\xf0*\x87\x16\xd9\x8eN@'
p103
tp104
Rp105
ag10
(g14
S'\xd3\xce\xf7S\xe3\xc5S@'
p106
tp107
Rp108
ag10
(g14
S'\xb1\x1cZd;\x17P@'
p109
tp110
Rp111
ag10
(g14
S'E\xe1z\x14\xae\xf7N@'
p112
tp113
Rp114
ag10
(g14
S'\xd4\xa5\x9b\xc4 \xc0N@'
p115
tp116
Rp117
ag10
(g14
S'\xa9E\xb6\xf3\xfd,P@'
p118
tp119
Rp120
ag10
(g14
S'\xb2\xf3\xfd\xd4xiM@'
p121
tp122
Rp123
ag10
(g14
S'\x83\x14\xaeG\xe1\xfaL@'
p124
tp125
Rp126
ag10
(g14
S'\xc4E\xb6\xf3\xfd\x94O@'
p127
tp128
Rp129
ag10
(g14
S'd\x91\xed|?EO@'
p130
tp131
Rp132
ag10
(g14
S'\xf0S\xe3\xa5\x9b\\P@'
p133
tp134
Rp135
ag10
(g14
S'\xfc(\\\x8f\xc25M@'
p136
tp137
Rp138
asssss.