(dp0
S'../Data/sqlite_16.csv'
p1
(dp2
S'../Data/sqlite_59.csv'
p3
(dp4
F0.05
(dp5
S'mmre'
p6
(dp7
S'bellwether'
p8
(lp9
cnumpy.core.multiarray
scalar
p10
(cnumpy
dtype
p11
(S'f8'
p12
I0
I1
tp13
Rp14
(I3
S'<'
p15
NNNI-1
I-1
I0
tp16
bS'\xe5\xad\xd172WU@'
p17
tp18
Rp19
ag10
(g14
S'm\xdci\xd5\x84VU@'
p20
tp21
Rp22
ag10
(g14
S'-\x05\xe44gXU@'
p23
tp24
Rp25
ag10
(g14
S'\x8f\x0bh\x90\x97WU@'
p26
tp27
Rp28
ag10
(g14
S'\xb61kg?WU@'
p29
tp30
Rp31
ag10
(g14
S'\xd2\xe2\xf9\x86\xe7VU@'
p32
tp33
Rp34
ag10
(g14
S'\xf9]>\x13(WU@'
p35
tp36
Rp37
ag10
(g14
S'O\xf5\x04\x10\xc8VU@'
p38
tp39
Rp40
ag10
(g14
S']n\x81\xa5\x8bWU@'
p41
tp42
Rp43
ag10
(g14
S'q\x1e\x91&\x1fVU@'
p44
tp45
Rp46
ag10
(g14
S'*\xac\xcc\x0c\xdaWU@'
p47
tp48
Rp49
ag10
(g14
S'\xcf\xedQ\xb2\xfbUU@'
p50
tp51
Rp52
ag10
(g14
S'\xc8\xeaZ\xa2LWU@'
p53
tp54
Rp55
ag10
(g14
S'\xc3D\x07\x0e\xcbVU@'
p56
tp57
Rp58
ag10
(g14
S'\xb8\x95\xad/\\WU@'
p59
tp60
Rp61
ag10
(g14
S'\xa1t\xb2#\xbeVU@'
p62
tp63
Rp64
ag10
(g14
S'D6Oq\x15WU@'
p65
tp66
Rp67
ag10
(g14
S'\x19B9M+VU@'
p68
tp69
Rp70
ag10
(g14
S'\xbd<\xd3XPVU@'
p71
tp72
Rp73
ag10
(g14
S'\xe5\x9c\x8f\x16}VU@'
p74
tp75
Rp76
asS'target'
p77
(lp78
g10
(g14
S'BI\xc43\x85p$@'
p79
tp80
Rp81
ag10
(g14
S'}\x02=<\xcf\xc1%@'
p82
tp83
Rp84
ag10
(g14
S"Z\xc3'\x13u\x92$@"
p85
tp86
Rp87
ag10
(g14
S'\x0eR\x92\xd5%M#@'
p88
tp89
Rp90
ag10
(g14
S"\x9e\xec\xaf\x1c\x1aK'@"
p91
tp92
Rp93
ag10
(g14
S'Y\xf7\x1b\xf7\xc8\xa5$@'
p94
tp95
Rp96
ag10
(g14
S'\xd8\xa7o\x95f\xc0$@'
p97
tp98
Rp99
ag10
(g14
S'\xc7\t\xa7(\xc33&@'
p100
tp101
Rp102
ag10
(g14
S'nj\x11\x89"\x1e#@'
p103
tp104
Rp105
ag10
(g14
S';\x07P\x93\xb6\xfb&@'
p106
tp107
Rp108
ag10
(g14
S'\xed\xdb\xb7\x82&\xc5#@'
p109
tp110
Rp111
ag10
(g14
S'\x0f\x93\xcd\xaa\x0e\xb0%@'
p112
tp113
Rp114
ag10
(g14
S'\\\r+\xc4)G%@'
p115
tp116
Rp117
ag10
(g14
S"#|d1\x93\x1a'@"
p118
tp119
Rp120
ag10
(g14
S' \x11C/\xe6\x98%@'
p121
tp122
Rp123
ag10
(g14
S'\xe5\xf4F?\xbb\xd8$@'
p124
tp125
Rp126
ag10
(g14
S'\xac\xb6\xd6m\x17e$@'
p127
tp128
Rp129
ag10
(g14
S"\x85\xdf\xe7'g\xb0%@"
p130
tp131
Rp132
ag10
(g14
S'[W|\x02\x86\xb5$@'
p133
tp134
Rp135
ag10
(g14
S'\xc4\xb6U.(C#@'
p136
tp137
Rp138
asssss.