(dp0
S'../Data/sqlite_18.csv'
p1
(dp2
S'../Data/sqlite_31.csv'
p3
(dp4
F0.1
(dp5
S'abs_res'
p6
(dp7
S'bellwether'
p8
(lp9
cnumpy.core.multiarray
scalar
p10
(cnumpy
dtype
p11
(S'f8'
p12
I0
I1
tp13
Rp14
(I3
S'<'
p15
NNNI-1
I-1
I0
tp16
bS'\t:mP?cAA'
p17
tp18
Rp19
ag10
(g14
S'\xb4\xc8vNNcAA'
p20
tp21
Rp22
ag10
(g14
S'j\xbct\x03\xbfbAA'
p23
tp24
Rp25
ag10
(g14
S'_\x8f\xc2\xb5\xaebAA'
p26
tp27
Rp28
ag10
(g14
S'\xd0\xf7S\xa3\x93bAA'
p29
tp30
Rp31
ag10
(g14
S'\xd2\xb0+@?cAA'
p32
tp33
Rp34
ag10
(g14
S'\xd3\xce\xf7C\x9ebAA'
p35
tp36
Rp37
ag10
(g14
S'\x95C\x8b\x0c\xdcbAA'
p38
tp39
Rp40
ag10
(g14
S'\xd7x\xe96\xf9bAA'
p41
tp42
Rp43
ag10
(g14
S'.^\xba\xd97cAA'
p44
tp45
Rp46
ag10
(g14
S"E\x8bl'\xfabAA"
p47
tp48
Rp49
ag10
(g14
S'y\xe9&\xb1bcAA'
p50
tp51
Rp52
ag10
(g14
S'\x1e\x85\xebQ_cAA'
p53
tp54
Rp55
ag10
(g14
S'\xc3\xca\xa15icAA'
p56
tp57
Rp58
ag10
(g14
S'\xf2S\xe3e\xccbAA'
p59
tp60
Rp61
ag10
(g14
S'\xeb5\x17\xa2\x05cAA'
p62
tp63
Rp64
ag10
(g14
S'2\xdd$\xd62cAA'
p65
tp66
Rp67
ag10
(g14
S'\xa0\xc4 \x90ebAA'
p68
tp69
Rp70
ag10
(g14
S'\xd3\xa3p\xed;cAA'
p71
tp72
Rp73
ag10
(g14
S'\xd7\\H\xea\xd4bAA'
p74
tp75
Rp76
asS'target'
p77
(lp78
g10
(g14
S'$\xdb\xf9~jXl@'
p79
tp80
Rp81
ag10
(g14
S'\xf5|?5^\xbef@'
p82
tp83
Rp84
ag10
(g14
S'E\xe3\xa5\x9b\xc4\xe4g@'
p85
tp86
Rp87
ag10
(g14
S'\xc1\xa1E\xb6\xf3\x11g@'
p88
tp89
Rp90
ag10
(g14
S'fffff\xd2e@'
p91
tp92
Rp93
ag10
(g14
S'\xf8\xa9\xf1\xd2M\x98e@'
p94
tp95
Rp96
ag10
(g14
S'"\x87\x16\xd9\xceof@'
p97
tp98
Rp99
ag10
(g14
S'~\x14\xaeG\xe1\x96h@'
p100
tp101
Rp102
ag10
(g14
S'\xe0&1\x08\xac\xa0h@'
p103
tp104
Rp105
ag10
(g14
S'N\x0c\x02+\x87.f@'
p106
tp107
Rp108
ag10
(g14
S'\xc6\xf5(\\\x8f\x16i@'
p109
tp110
Rp111
ag10
(g14
S'@b\x10X98h@'
p112
tp113
Rp114
ag10
(g14
S'\x05\x7fj\xbct\rd@'
p115
tp116
Rp117
ag10
(g14
S'S\xb8\x1e\x85\xeb\xedf@'
p118
tp119
Rp120
ag10
(g14
S'\x97\x9b\xc4 \xb0\xfei@'
p121
tp122
Rp123
ag10
(g14
S'\xea\xd2Mb\x10\x14d@'
p124
tp125
Rp126
ag10
(g14
S'\xae\x9d\xef\xa7\xc6\xe3g@'
p127
tp128
Rp129
ag10
(g14
S'k\x12\x83\xc0\xca\x99f@'
p130
tp131
Rp132
ag10
(g14
S'\xb1rh\x91\xedxg@'
p133
tp134
Rp135
ag10
(g14
S'\xdcMb\x10X1g@'
p136
tp137
Rp138
asssss.