(dp0
S'../Data/sqlite_14.csv'
p1
(dp2
S'../Data/sqlite_97.csv'
p3
(dp4
F0.15
(dp5
S'mmre'
p6
(dp7
S'bellwether'
p8
(lp9
cnumpy.core.multiarray
scalar
p10
(cnumpy
dtype
p11
(S'f8'
p12
I0
I1
tp13
Rp14
(I3
S'<'
p15
NNNI-1
I-1
I0
tp16
bS'A\xed3&`-U@'
p17
tp18
Rp19
ag10
(g14
S'\xd7\xa1\xf7\x89\xb4-U@'
p20
tp21
Rp22
ag10
(g14
S'\xb4e\x9a\xb7"2U@'
p23
tp24
Rp25
ag10
(g14
S'!\xee\xd4\x1a\x871U@'
p26
tp27
Rp28
ag10
(g14
S'\x02\xb8\xa4| *U@'
p29
tp30
Rp31
ag10
(g14
S"\x86F\xd3\xb3\xf7'U@"
p32
tp33
Rp34
ag10
(g14
S'b;\x01\x97v+U@'
p35
tp36
Rp37
ag10
(g14
S'ZzS\x8a23U@'
p38
tp39
Rp40
ag10
(g14
S'\x88\xfaLb@7U@'
p41
tp42
Rp43
ag10
(g14
S'\xe4>g\xc5\x8f0U@'
p44
tp45
Rp46
ag10
(g14
S'\x19\xe7E\x14\xbb1U@'
p47
tp48
Rp49
ag10
(g14
S'\xde\xe9\x01\xec>2U@'
p50
tp51
Rp52
ag10
(g14
S'/%\xfc\xe0\xff-U@'
p53
tp54
Rp55
ag10
(g14
S'\x83\xaf\x06\xc541U@'
p56
tp57
Rp58
ag10
(g14
S'\xcc\x7f\xeak_3U@'
p59
tp60
Rp61
ag10
(g14
S'"Y{\xb6b7U@'
p62
tp63
Rp64
ag10
(g14
S'Y\xb1x\x98\x8a5U@'
p65
tp66
Rp67
ag10
(g14
S'Q\xd7R\xc6\x87)U@'
p68
tp69
Rp70
ag10
(g14
S'P\xef\xd0 .4U@'
p71
tp72
Rp73
ag10
(g14
S'\xe7\xe9O\xe1\xde8U@'
p74
tp75
Rp76
asS'target'
p77
(lp78
g10
(g14
S'\xc4&\xe4\x15D\xf9Y@'
p79
tp80
Rp81
ag10
(g14
S'\xd0\xb1y\x8e\x8f9^@'
p82
tp83
Rp84
ag10
(g14
S'\xd1{!\\\xa4VX@'
p85
tp86
Rp87
ag10
(g14
S'\x0c\x82%{\x8e\xd4Y@'
p88
tp89
Rp90
ag10
(g14
S'1\x1a\x98\x91$\xe8]@'
p91
tp92
Rp93
ag10
(g14
S'%yu\xb1#\r\\@'
p94
tp95
Rp96
ag10
(g14
S'\xd3\x1c\x1f\xe9$\xebR@'
p97
tp98
Rp99
ag10
(g14
S'\xa6\x92#\xb8\x0f\x9bO@'
p100
tp101
Rp102
ag10
(g14
S'\x17\xbd\xb7\x13KlQ@'
p103
tp104
Rp105
ag10
(g14
S'X\x1a\xe4o#\x8cO@'
p106
tp107
Rp108
ag10
(g14
S'Q\\\xc6+\\\x9fV@'
p109
tp110
Rp111
ag10
(g14
S'\x91\x98tW`\xa9Q@'
p112
tp113
Rp114
ag10
(g14
S'\xc3\xd8L`-lS@'
p115
tp116
Rp117
ag10
(g14
S'Lv{uZ\xd3Z@'
p118
tp119
Rp120
ag10
(g14
S'\x7f\x11\x02\x00\xd8/F@'
p121
tp122
Rp123
ag10
(g14
S'[\xbc\x96\xff\x9eGF@'
p124
tp125
Rp126
ag10
(g14
S'm.f1h\xbaS@'
p127
tp128
Rp129
ag10
(g14
S'\x98\x98\xe4\xfb\x020Y@'
p130
tp131
Rp132
ag10
(g14
S'\xbe\x1f\xce\xce\x06\xcaQ@'
p133
tp134
Rp135
ag10
(g14
S'\x98;\xadb\x9f\x08Q@'
p136
tp137
Rp138
asssss.