(dp0
S'../Data/sqlite_64.csv'
p1
(dp2
S'../Data/sqlite_77.csv'
p3
(dp4
F0.2
(dp5
S'mmre'
p6
(dp7
S'bellwether'
p8
(lp9
cnumpy.core.multiarray
scalar
p10
(cnumpy
dtype
p11
(S'f8'
p12
I0
I1
tp13
Rp14
(I3
S'<'
p15
NNNI-1
I-1
I0
tp16
bS'\xa5\xd4\xde\xc9\xcaIS@'
p17
tp18
Rp19
ag10
(g14
S'\xf0k,\\lKS@'
p20
tp21
Rp22
ag10
(g14
S'\xb0\xe0\xa2\x82GKS@'
p23
tp24
Rp25
ag10
(g14
S'\x86\xa0\x90\x1b\xd8IS@'
p26
tp27
Rp28
ag10
(g14
S'\x8b$%\x03\x85CS@'
p29
tp30
Rp31
ag10
(g14
S'\x8a\x94.y\x9f=S@'
p32
tp33
Rp34
ag10
(g14
S'l\x02\xc1\xdbiHS@'
p35
tp36
Rp37
ag10
(g14
S'6\xff\x91\xeb\x8cES@'
p38
tp39
Rp40
ag10
(g14
S'\xd8\x1b\xf3\xfcnFS@'
p41
tp42
Rp43
ag10
(g14
S'z\xa7i\x9b\x0bDS@'
p44
tp45
Rp46
ag10
(g14
S'\x01\xe1\x9bo\xf6HS@'
p47
tp48
Rp49
ag10
(g14
S'\x8ca\x07\xf3\x8eBS@'
p50
tp51
Rp52
ag10
(g14
S'2\xbb\xb1\xf9]IS@'
p53
tp54
Rp55
ag10
(g14
S'IB\xf6\xbd(LS@'
p56
tp57
Rp58
ag10
(g14
S'\xb8\xab[\x0b\x15FS@'
p59
tp60
Rp61
ag10
(g14
S'`\xdd\x85\x83\xf0HS@'
p62
tp63
Rp64
ag10
(g14
S'z$Ip\x04GS@'
p65
tp66
Rp67
ag10
(g14
S'\xd4oN\x19\x9dKS@'
p68
tp69
Rp70
ag10
(g14
S'\xbd/4X\xeeES@'
p71
tp72
Rp73
ag10
(g14
S'V\xc2\xea\x1c\xe7PS@'
p74
tp75
Rp76
asS'target'
p77
(lp78
g10
(g14
S'\x06QBm\xa2W6@'
p79
tp80
Rp81
ag10
(g14
S'\xcf6,?\x8e\x7f5@'
p82
tp83
Rp84
ag10
(g14
S'\xae\x94 L\xa3$6@'
p85
tp86
Rp87
ag10
(g14
S'\xa2\x11 \xd0\xd5c6@'
p88
tp89
Rp90
ag10
(g14
S'dYW\xadF\xae5@'
p91
tp92
Rp93
ag10
(g14
S'&\xc2\xb67J\xc65@'
p94
tp95
Rp96
ag10
(g14
S'+y\xbdp\xc3\xa17@'
p97
tp98
Rp99
ag10
(g14
S"'Rm)zl8@"
p100
tp101
Rp102
ag10
(g14
S'!\xc5\x879Z\xaf5@'
p103
tp104
Rp105
ag10
(g14
S'\xca2\x8b\x1d\x90\xb25@'
p106
tp107
Rp108
ag10
(g14
S')\xfe\xc9\\\xfb\x846@'
p109
tp110
Rp111
ag10
(g14
S'\x89n\x92K\xaf\xc94@'
p112
tp113
Rp114
ag10
(g14
S'\xe6]k\xe9P\x0b5@'
p115
tp116
Rp117
ag10
(g14
S'\x98\x016_1\x9d6@'
p118
tp119
Rp120
ag10
(g14
S'\xc6-\x85\x9d\x17\x9e6@'
p121
tp122
Rp123
ag10
(g14
S'F3\xbc\x96\xce\xbb7@'
p124
tp125
Rp126
ag10
(g14
S'\xe8 \xde\xf8\xe2\xa55@'
p127
tp128
Rp129
ag10
(g14
S'\x94\xac\xfb/^]5@'
p130
tp131
Rp132
ag10
(g14
S'xx\xb6\xcb\xa3\x106@'
p133
tp134
Rp135
ag10
(g14
S'V\xee\xce:5\x966@'
p136
tp137
Rp138
asssss.