(dp0
S'../Data/sqlite_96.csv'
p1
(dp2
S'../Data/sqlite_88.csv'
p3
(dp4
F0.3
(dp5
S'mmre'
p6
(dp7
S'bellwether'
p8
(lp9
cnumpy.core.multiarray
scalar
p10
(cnumpy
dtype
p11
(S'f8'
p12
I0
I1
tp13
Rp14
(I3
S'<'
p15
NNNI-1
I-1
I0
tp16
bS'w\xd5\x16\xc1_MX@'
p17
tp18
Rp19
ag10
(g14
S'\x9a\x17\xe8\xbd\x0fZX@'
p20
tp21
Rp22
ag10
(g14
S'\x89\xedQ\x90\xe3gX@'
p23
tp24
Rp25
ag10
(g14
S'\xd7\xdf\xb8\xfd\x8f0X@'
p26
tp27
Rp28
ag10
(g14
S'.n\xb9x\\_X@'
p29
tp30
Rp31
ag10
(g14
S'\xa0\xeb\x9b\xdd\xad?X@'
p32
tp33
Rp34
ag10
(g14
S'uY\xa9\xe0\xeakX@'
p35
tp36
Rp37
ag10
(g14
S'\xee*I6\xddmX@'
p38
tp39
Rp40
ag10
(g14
S'\x01F\xea\x9d\x14`X@'
p41
tp42
Rp43
ag10
(g14
S'`V\xa8\xbc=tX@'
p44
tp45
Rp46
ag10
(g14
S'Q\x03\x0b\xb7CdX@'
p47
tp48
Rp49
ag10
(g14
S'\x8b\x15\xfd\xc8\xefMX@'
p50
tp51
Rp52
ag10
(g14
S'\xb9\xe8\xe3\x90\xc9nX@'
p53
tp54
Rp55
ag10
(g14
S'*"\x92\xd40\\X@'
p56
tp57
Rp58
ag10
(g14
S'\x99|A\xb4%>X@'
p59
tp60
Rp61
ag10
(g14
S'\x80\x83\x9brmiX@'
p62
tp63
Rp64
ag10
(g14
S'w\x85\xb4\xba\xb4UX@'
p65
tp66
Rp67
ag10
(g14
S'N\x90V~\x9dbX@'
p68
tp69
Rp70
ag10
(g14
S'\x83h0#\xbeWX@'
p71
tp72
Rp73
ag10
(g14
S'\xf0)\x8c\x8b\xe7[X@'
p74
tp75
Rp76
asS'target'
p77
(lp78
g10
(g14
S'c\xd7LC\xf3(K@'
p79
tp80
Rp81
ag10
(g14
S'"\xd9\xddr\x91\xeaN@'
p82
tp83
Rp84
ag10
(g14
S'f\x810\xb1\xe6\x8dM@'
p85
tp86
Rp87
ag10
(g14
S'D\xd3\xca\xdb:\xf5M@'
p88
tp89
Rp90
ag10
(g14
S'mi>V\xcf\x9aM@'
p91
tp92
Rp93
ag10
(g14
S'\xb7\x02\x98+\xeayM@'
p94
tp95
Rp96
ag10
(g14
S'\xb8E\x9a2\xbbmM@'
p97
tp98
Rp99
ag10
(g14
S'N\x83\xcb\xe0g\xf5G@'
p100
tp101
Rp102
ag10
(g14
S'\xa5;7g)EP@'
p103
tp104
Rp105
ag10
(g14
S'\r\xe8zq\xe5)J@'
p106
tp107
Rp108
ag10
(g14
S'\x07\xa1Tb4aL@'
p109
tp110
Rp111
ag10
(g14
S'\xddv.K`\xf7I@'
p112
tp113
Rp114
ag10
(g14
S'k\xbd\xbb\xf1J\x15H@'
p115
tp116
Rp117
ag10
(g14
S'\x1cP\x9fq\x08#M@'
p118
tp119
Rp120
ag10
(g14
S'dx\xbaC\xe6\x95N@'
p121
tp122
Rp123
ag10
(g14
S'\x8f\xda\xb4Z\xa1\xe1G@'
p124
tp125
Rp126
ag10
(g14
S'\x9c\xe4\x06\x180\xe8N@'
p127
tp128
Rp129
ag10
(g14
S'\xfe\x96\xac\xef-\x9bH@'
p130
tp131
Rp132
ag10
(g14
S'-lY\xfd\x14\xc3L@'
p133
tp134
Rp135
ag10
(g14
S'C\xd2\xb1b\xdd\x0eN@'
p136
tp137
Rp138
asssss.