(dp0
S'../Data/sqlite_22.csv'
p1
(dp2
S'../Data/sqlite_73.csv'
p3
(dp4
F0.1
(dp5
S'mmre'
p6
(dp7
S'bellwether'
p8
(lp9
cnumpy.core.multiarray
scalar
p10
(cnumpy
dtype
p11
(S'f8'
p12
I0
I1
tp13
Rp14
(I3
S'<'
p15
NNNI-1
I-1
I0
tp16
bS'c\xd5Y\x84.ET@'
p17
tp18
Rp19
ag10
(g14
S':\xb2\xca/JGT@'
p20
tp21
Rp22
ag10
(g14
S'|\xb6\xfd\xc9\xa6IT@'
p23
tp24
Rp25
ag10
(g14
S'\x84-\xa0RvET@'
p26
tp27
Rp28
ag10
(g14
S'\xd7\xae\x8eq\x13ET@'
p29
tp30
Rp31
ag10
(g14
S'\x97\xabZU\xf0ET@'
p32
tp33
Rp34
ag10
(g14
S'\xfa5E\x11\x83GT@'
p35
tp36
Rp37
ag10
(g14
S'Y\xbb\xd0L\x14FT@'
p38
tp39
Rp40
ag10
(g14
S'K\r\xae\x85\xb9FT@'
p41
tp42
Rp43
ag10
(g14
S'p\xa7&\xc3}FT@'
p44
tp45
Rp46
ag10
(g14
S'\x9er\xbe\xa0]HT@'
p47
tp48
Rp49
ag10
(g14
S'~\xb7>a\xb5FT@'
p50
tp51
Rp52
ag10
(g14
S'\xee\xf2\xa6\xf5!GT@'
p53
tp54
Rp55
ag10
(g14
S'\xbf\xe7\x08H\xb8ET@'
p56
tp57
Rp58
ag10
(g14
S'Z\x1a\xbe4\xf6HT@'
p59
tp60
Rp61
ag10
(g14
S'\xb3D$;\\ET@'
p62
tp63
Rp64
ag10
(g14
S'`\xc4e\xd0\x12FT@'
p65
tp66
Rp67
ag10
(g14
S'\xaa.QJ\x80GT@'
p68
tp69
Rp70
ag10
(g14
S'\xff\xda\xad9\xf3ET@'
p71
tp72
Rp73
ag10
(g14
S'\x86X\xbe,pCT@'
p74
tp75
Rp76
asS'target'
p77
(lp78
g10
(g14
S'd\x1b\xbd\x17"\n.@'
p79
tp80
Rp81
ag10
(g14
S'%\xebG\xef\x85\xf6+@'
p82
tp83
Rp84
ag10
(g14
S'M\xd4\xf4\xe3U\xae*@'
p85
tp86
Rp87
ag10
(g14
S'\xf8-\xc7\xc7xQ.@'
p88
tp89
Rp90
ag10
(g14
S'\x8b\xb5\xcc&\xb62-@'
p91
tp92
Rp93
ag10
(g14
S'\xc6f\x8e\xc5\xaf\xfc+@'
p94
tp95
Rp96
ag10
(g14
S'\xc7)@\x19qo+@'
p97
tp98
Rp99
ag10
(g14
S'c\xa6-\xa3k5/@'
p100
tp101
Rp102
ag10
(g14
S'\x11e\xbf\xb6\x12\xdd-@'
p103
tp104
Rp105
ag10
(g14
S'\xa1\xee  \x9f\xe6.@'
p106
tp107
Rp108
ag10
(g14
S'\xce,^\xc1\x1d\t+@'
p109
tp110
Rp111
ag10
(g14
S'\xeec\x1b/N\xca*@'
p112
tp113
Rp114
ag10
(g14
S'\xe7f\xa7\xf4\x9e</@'
p115
tp116
Rp117
ag10
(g14
S' \x1e\xca\x06\xb3|*@'
p118
tp119
Rp120
ag10
(g14
S'J\xeds\xde\x07^-@'
p121
tp122
Rp123
ag10
(g14
S'`\x81\x1d\x06*\xf8-@'
p124
tp125
Rp126
ag10
(g14
S'y`\xf0\xc3E\xfe-@'
p127
tp128
Rp129
ag10
(g14
S'x5\x05]\x8d\xbb+@'
p130
tp131
Rp132
ag10
(g14
S'\x92\xac|l>\x8a+@'
p133
tp134
Rp135
ag10
(g14
S'\x81k\xaa\xc7\xed\xe6+@'
p136
tp137
Rp138
asssss.