(dp0
S'../Data/sqlite_66.csv'
p1
(dp2
S'../Data/sqlite_37.csv'
p3
(dp4
F0.15
(dp5
S'abs_res'
p6
(dp7
S'bellwether'
p8
(lp9
cnumpy.core.multiarray
scalar
p10
(cnumpy
dtype
p11
(S'f8'
p12
I0
I1
tp13
Rp14
(I3
S'<'
p15
NNNI-1
I-1
I0
tp16
bS'F\xe1z\x94\xc6J"A'
p17
tp18
Rp19
ag10
(g14
S'Mb\x10\xd8BJ"A'
p20
tp21
Rp22
ag10
(g14
S'\xda$\x06A:J"A'
p23
tp24
Rp25
ag10
(g14
S'\x13X94HJ"A'
p26
tp27
Rp28
ag10
(g14
S'\xef\xb6\xacU\xbaK"A'
p29
tp30
Rp31
ag10
(g14
S'\x94\xed|?\xa8K"A'
p32
tp33
Rp34
ag10
(g14
S'\xed&1\xc8\x7fJ"A'
p35
tp36
Rp37
ag10
(g14
S'"\x06\x81\xd5bJ"A'
p38
tp39
Rp40
ag10
(g14
S'\xc7/\x96|\xb3K"A'
p41
tp42
Rp43
ag10
(g14
S'7\xb4\xc8\xb6\xffJ"A'
p44
tp45
Rp46
ag10
(g14
S'\xe6\xdd\xdd\x1d\xfcJ"A'
p47
tp48
Rp49
ag10
(g14
S'\xb7I\x0c\xc2\x03K"A'
p50
tp51
Rp52
ag10
(g14
S'\xea\n\x90\xfb\x82J"A'
p53
tp54
Rp55
ag10
(g14
S'\xd8\xa3p=5K"A'
p56
tp57
Rp58
ag10
(g14
S'\xe2$\x06\x01\xc0J"A'
p59
tp60
Rp61
ag10
(g14
S'+\x15g\x9f\xc6J"A'
p62
tp63
Rp64
ag10
(g14
S'\x96C\x8b,\xb5J"A'
p65
tp66
Rp67
ag10
(g14
S'\xfd\xd2M"\xebJ"A'
p68
tp69
Rp70
ag10
(g14
S'\xb0-k5\xe5I"A'
p71
tp72
Rp73
ag10
(g14
S'\x16\x92\xa6T(J"A'
p74
tp75
Rp76
asS'target'
p77
(lp78
g10
(g14
S'K\xe1z\x14\xae\xc7Q@'
p79
tp80
Rp81
ag10
(g14
S'\x04\x81\x95C\x8b\xd8P@'
p82
tp83
Rp84
ag10
(g14
S'"Zd;\xdfoP@'
p85
tp86
Rp87
ag10
(g14
S'\x05+\x87\x16\xd9VQ@'
p88
tp89
Rp90
ag10
(g14
S'2\xb2\x9d\xef\xa7vQ@'
p91
tp92
Rp93
ag10
(g14
S'\x18\xaeG\xe1z\xfcR@'
p94
tp95
Rp96
ag10
(g14
S'\x8eA`\xe5\xd0"P@'
p97
tp98
Rp99
ag10
(g14
S'\xd6x\xe9&18P@'
p100
tp101
Rp102
ag10
(g14
S'uh\x91\xed|\xdfP@'
p103
tp104
Rp105
ag10
(g14
S'\xa7\xf1\xd2Mb\xa8P@'
p106
tp107
Rp108
ag10
(g14
S'\x13\xd7\xa3p=ZO@'
p109
tp110
Rp111
ag10
(g14
S'\x99C\x8bl\xe7\xabP@'
p112
tp113
Rp114
ag10
(g14
S'\x1f\xdb\xf9~j\x94P@'
p115
tp116
Rp117
ag10
(g14
S'Z9\xb4\xc8v>P@'
p118
tp119
Rp120
ag10
(g14
S'\x99\xc4 \xb0r\xa0P@'
p121
tp122
Rp123
ag10
(g14
S')\\\x8f\xc2\xf5pP@'
p124
tp125
Rp126
ag10
(g14
S'%\\\x8f\xc2\xf5\xc8Q@'
p127
tp128
Rp129
ag10
(g14
S'\xba\x1e\x85\xebQ Q@'
p130
tp131
Rp132
ag10
(g14
S'B\xb6\xf3\xfd\xd4HQ@'
p133
tp134
Rp135
ag10
(g14
S'\x1dZd;\xdf\x0fQ@'
p136
tp137
Rp138
asssss.