(dp0
S'../Data/sqlite_62.csv'
p1
(dp2
S'../Data/sqlite_87.csv'
p3
(dp4
F0.25
(dp5
S'mmre'
p6
(dp7
S'bellwether'
p8
(lp9
cnumpy.core.multiarray
scalar
p10
(cnumpy
dtype
p11
(S'f8'
p12
I0
I1
tp13
Rp14
(I3
S'<'
p15
NNNI-1
I-1
I0
tp16
bS'\xe0\x82\xe1\x96\x9b/P@'
p17
tp18
Rp19
ag10
(g14
S'-\x9d\x10R\xe5(P@'
p20
tp21
Rp22
ag10
(g14
S'\xb2\x83Y\x92\xbd?P@'
p23
tp24
Rp25
ag10
(g14
S'\xa3\xb5]\xefK\x11P@'
p26
tp27
Rp28
ag10
(g14
S'\xd1\x9fXRYHP@'
p29
tp30
Rp31
ag10
(g14
S'\xc4\xe0`)\xaaMP@'
p32
tp33
Rp34
ag10
(g14
S'>\x13g\xe22]P@'
p35
tp36
Rp37
ag10
(g14
S"\x03>\xc6'\xc6\x1eP@"
p38
tp39
Rp40
ag10
(g14
S'\x08& A\xa2\xe5O@'
p41
tp42
Rp43
ag10
(g14
S'o\xfb\xec\xb0\x84MP@'
p44
tp45
Rp46
ag10
(g14
S'@2\x1b\x88\xd2;P@'
p47
tp48
Rp49
ag10
(g14
S'\xa0\xaf\xf0L\xcb\xb1P@'
p50
tp51
Rp52
ag10
(g14
S'\xe0w-^\xf5\x05P@'
p53
tp54
Rp55
ag10
(g14
S'\xe6+\xe84\xfe\xcdO@'
p56
tp57
Rp58
ag10
(g14
S'\x8f\x0e\xe2\xde\x85\xd3O@'
p59
tp60
Rp61
ag10
(g14
S':\xa5\xad\xccZ\x0bP@'
p62
tp63
Rp64
ag10
(g14
S'zC\x94\xb8\x94eP@'
p65
tp66
Rp67
ag10
(g14
S'\x7f\x075p|"P@'
p68
tp69
Rp70
ag10
(g14
S'_\xb1.\xa3L$P@'
p71
tp72
Rp73
ag10
(g14
S'_\x07\xfatFfP@'
p74
tp75
Rp76
asS'target'
p77
(lp78
g10
(g14
S'0$L\xfc\x1e\xc7J@'
p79
tp80
Rp81
ag10
(g14
S'\xa7\xd1&Im\xe4J@'
p82
tp83
Rp84
ag10
(g14
S'RE\xc3z\xedNQ@'
p85
tp86
Rp87
ag10
(g14
S'\xf9vV\x1e!dU@'
p88
tp89
Rp90
ag10
(g14
S'\x07\x9f\x0e\x84}\xf3N@'
p91
tp92
Rp93
ag10
(g14
S'\xa1\xc5.\xcf\x82\x01S@'
p94
tp95
Rp96
ag10
(g14
S'u*P\xe7\xfc\xd5P@'
p97
tp98
Rp99
ag10
(g14
S'\xc3\xab\xa6ro\xcdQ@'
p100
tp101
Rp102
ag10
(g14
S'L\x86%\xae\xff\x01G@'
p103
tp104
Rp105
ag10
(g14
S'\xe3\x8caI\xe0)S@'
p106
tp107
Rp108
ag10
(g14
S'4\x944e\xdcqT@'
p109
tp110
Rp111
ag10
(g14
S'\xcd\x95\x06\x1at.K@'
p112
tp113
Rp114
ag10
(g14
S'}\x8aN=R\xeaR@'
p115
tp116
Rp117
ag10
(g14
S'S|J\xe3n\x80O@'
p118
tp119
Rp120
ag10
(g14
S'\x16\x1d\x7f\xf98\x02P@'
p121
tp122
Rp123
ag10
(g14
S'b\xc0-Kf-S@'
p124
tp125
Rp126
ag10
(g14
S'\x9c\xbe\x8e$u\xbfU@'
p127
tp128
Rp129
ag10
(g14
S'\x80O%\xaa9\xa0K@'
p130
tp131
Rp132
ag10
(g14
S'5\xb9K\x0bi\xc0Q@'
p133
tp134
Rp135
ag10
(g14
S's>\xfd\xba\xa7\xfaN@'
p136
tp137
Rp138
asssss.