(dp0
S'../Data/sqlite_44.csv'
p1
(dp2
S'../Data/sqlite_96.csv'
p3
(dp4
F0.35
(dp5
S'mmre'
p6
(dp7
S'bellwether'
p8
(lp9
cnumpy.core.multiarray
scalar
p10
(cnumpy
dtype
p11
(S'f8'
p12
I0
I1
tp13
Rp14
(I3
S'<'
p15
NNNI-1
I-1
I0
tp16
bS'\xc3\xdf\x1e\x98_IW@'
p17
tp18
Rp19
ag10
(g14
S'g\xe4\x10\xb8\xd2KW@'
p20
tp21
Rp22
ag10
(g14
S"`\x04'\xa2BMW@"
p23
tp24
Rp25
ag10
(g14
S'\x1bP\xe7I{KW@'
p26
tp27
Rp28
ag10
(g14
S'\x14v\x18)\xf7JW@'
p29
tp30
Rp31
ag10
(g14
S'\x00\x90=\xd6\x05JW@'
p32
tp33
Rp34
ag10
(g14
S'\xde\rb\xdb:MW@'
p35
tp36
Rp37
ag10
(g14
S'W\xc0\xc0h\xc3HW@'
p38
tp39
Rp40
ag10
(g14
S'\xaa.!\x1b\x11LW@'
p41
tp42
Rp43
ag10
(g14
S'\x8e\x9fm.:OW@'
p44
tp45
Rp46
ag10
(g14
S'\xd3\xd5K4wLW@'
p47
tp48
Rp49
ag10
(g14
S'@\x81\xe8\xb4\xefNW@'
p50
tp51
Rp52
ag10
(g14
S'\x97c\x81\x9d\xadIW@'
p53
tp54
Rp55
ag10
(g14
S',\xe6\xdd\x91gJW@'
p56
tp57
Rp58
ag10
(g14
S',\xff\x9bI\xf6JW@'
p59
tp60
Rp61
ag10
(g14
S'\xb4h\xa8j\x9fPW@'
p62
tp63
Rp64
ag10
(g14
S'\x99\xed\x03bUMW@'
p65
tp66
Rp67
ag10
(g14
S'z\xb1x"BKW@'
p68
tp69
Rp70
ag10
(g14
S'>\xf4Z\xaa\x84LW@'
p71
tp72
Rp73
ag10
(g14
S'\xb2z\x89\n{OW@'
p74
tp75
Rp76
asS'target'
p77
(lp78
g10
(g14
S'\xd8\xcc\x8a\xbc\xd4jW@'
p79
tp80
Rp81
ag10
(g14
S'\xa5\xdd\xd9N\xb4+M@'
p82
tp83
Rp84
ag10
(g14
S'w\x16\x1dI\xf1\x17I@'
p85
tp86
Rp87
ag10
(g14
S'A\xf4s%\x97\x9eT@'
p88
tp89
Rp90
ag10
(g14
S'u?\xd5\xb5\xda&R@'
p91
tp92
Rp93
ag10
(g14
S'*2*\xa8\xcanT@'
p94
tp95
Rp96
ag10
(g14
S't2xz\xf0\x1fW@'
p97
tp98
Rp99
ag10
(g14
S'\xd4\x94&\xb4\x88\xb2T@'
p100
tp101
Rp102
ag10
(g14
S'\\\x107e1\xe4O@'
p103
tp104
Rp105
ag10
(g14
S'\xee\xda\x84\x19\xbb\xb4P@'
p106
tp107
Rp108
ag10
(g14
S'\xb5KR\xfd\xaeyS@'
p109
tp110
Rp111
ag10
(g14
S'\x94$\x96)\xb9\x95N@'
p112
tp113
Rp114
ag10
(g14
S'v\xb1\xf6\r/rM@'
p115
tp116
Rp117
ag10
(g14
S'\xcf\xc6\xb1u\xaf\xecQ@'
p118
tp119
Rp120
ag10
(g14
S'h\xe8}~\xe8\x10X@'
p121
tp122
Rp123
ag10
(g14
S" \xb25'\x0b\x83Q@"
p124
tp125
Rp126
ag10
(g14
S'x\xeeS\x18\xe3+R@'
p127
tp128
Rp129
ag10
(g14
S'\x14\xca\x99\x808\x91P@'
p130
tp131
Rp132
ag10
(g14
S'\xb9(\r-LhK@'
p133
tp134
Rp135
ag10
(g14
S'\xbc\x86\xe4Ld\xabR@'
p136
tp137
Rp138
asssss.