(dp0
S'../Data/sqlite_28.csv'
p1
(dp2
S'../Data/sqlite_90.csv'
p3
(dp4
F0.35
(dp5
S'mmre'
p6
(dp7
S'bellwether'
p8
(lp9
cnumpy.core.multiarray
scalar
p10
(cnumpy
dtype
p11
(S'f8'
p12
I0
I1
tp13
Rp14
(I3
S'<'
p15
NNNI-1
I-1
I0
tp16
bS'*G\x7f\xcf.hW@'
p17
tp18
Rp19
ag10
(g14
S'_/\x8cA\xe6lW@'
p20
tp21
Rp22
ag10
(g14
S'I\xe7\xcd\t4qW@'
p23
tp24
Rp25
ag10
(g14
S'\xfbCC,?fW@'
p26
tp27
Rp28
ag10
(g14
S'\x13\xa1\xd3\xacPaW@'
p29
tp30
Rp31
ag10
(g14
S'\xa2\x9d\x91\xd6\xdcgW@'
p32
tp33
Rp34
ag10
(g14
S'\xacud\x87\xd1pW@'
p35
tp36
Rp37
ag10
(g14
S'\xe7\x11\xa0f0cW@'
p38
tp39
Rp40
ag10
(g14
S'\x85.ux\x87nW@'
p41
tp42
Rp43
ag10
(g14
S'=\n\xa2M\x8d`W@'
p44
tp45
Rp46
ag10
(g14
S"\x9e.'CuhW@"
p47
tp48
Rp49
ag10
(g14
S'\x05\xff\xe4\x9e\x1boW@'
p50
tp51
Rp52
ag10
(g14
S'\x1b\xa7l\xd3LjW@'
p53
tp54
Rp55
ag10
(g14
S'\xa1\x96\xbaX\x84dW@'
p56
tp57
Rp58
ag10
(g14
S'\xe5\xd7t\xf6ItW@'
p59
tp60
Rp61
ag10
(g14
S'>y\xf7\x99\xddtW@'
p62
tp63
Rp64
ag10
(g14
S'\xe5\xffw\x98\xf5\\W@'
p65
tp66
Rp67
ag10
(g14
S'\xa5\xed\xc0\xceY^W@'
p68
tp69
Rp70
ag10
(g14
S'\xca\x9apcd[W@'
p71
tp72
Rp73
ag10
(g14
S'g6\xe8\xc9\x95aW@'
p74
tp75
Rp76
asS'target'
p77
(lp78
g10
(g14
S'\xfb0P\x97x\rA@'
p79
tp80
Rp81
ag10
(g14
S'\xcb\xf4\xc3t\xab\x16A@'
p82
tp83
Rp84
ag10
(g14
S'\xa8)\x98\xd6\xb0\x8b@@'
p85
tp86
Rp87
ag10
(g14
S'hI\xa5\xee>}A@'
p88
tp89
Rp90
ag10
(g14
S'\xcd\xc7\xf2(\xd4KA@'
p91
tp92
Rp93
ag10
(g14
S"J'w\xacg\xce@@"
p94
tp95
Rp96
ag10
(g14
S'-\x1f\xa3\xa6\xd9\x7fA@'
p97
tp98
Rp99
ag10
(g14
S'\xe9eH\xdc\xd13A@'
p100
tp101
Rp102
ag10
(g14
S'\xb8\xaa,?\xbd\xccA@'
p103
tp104
Rp105
ag10
(g14
S'\xa6\xbc\xc7s\xcfp@@'
p106
tp107
Rp108
ag10
(g14
S'\x05T\x11lf\xc0@@'
p109
tp110
Rp111
ag10
(g14
S'44\x05m\xf2\xb3@@'
p112
tp113
Rp114
ag10
(g14
S'\x80\x9f\x99\x14\xfc\x0fB@'
p115
tp116
Rp117
ag10
(g14
S'g=b0{p@@'
p118
tp119
Rp120
ag10
(g14
S'n\x81H\x7f8\xa1?@'
p121
tp122
Rp123
ag10
(g14
S'\x9aF\xfd\x01*\xb6>@'
p124
tp125
Rp126
ag10
(g14
S'\xfb\x87\xff0 \x8aA@'
p127
tp128
Rp129
ag10
(g14
S'R2R\x1b\xd3\xc5@@'
p130
tp131
Rp132
ag10
(g14
S'+\x11\x13nB\xfc@@'
p133
tp134
Rp135
ag10
(g14
S'\xa2\xc85\xcf\xcc\x19B@'
p136
tp137
Rp138
asssss.