(dp0
S'../Data/sqlite_4.csv'
p1
(dp2
S'../Data/sqlite_31.csv'
p3
(dp4
F0.25
(dp5
S'abs_res'
p6
(dp7
S'bellwether'
p8
(lp9
cnumpy.core.multiarray
scalar
p10
(cnumpy
dtype
p11
(S'f8'
p12
I0
I1
tp13
Rp14
(I3
S'<'
p15
NNNI-1
I-1
I0
tp16
bS'\xd4\xdb\xb2\x96^$=A'
p17
tp18
Rp19
ag10
(g14
S'0\xa5\xe2\xac\xcb"=A'
p20
tp21
Rp22
ag10
(g14
S'\xaeG\xe1\xfa\xcf!=A'
p23
tp24
Rp25
ag10
(g14
S"o\xda@'\x88#=A"
p26
tp27
Rp28
ag10
(g14
S'1Q\xff\x86\xc1 =A'
p29
tp30
Rp31
ag10
(g14
S'\xf1\xa7\xc6K\x95#=A'
p32
tp33
Rp34
ag10
(g14
S'\\\xbaIL\x83#=A'
p35
tp36
Rp37
ag10
(g14
S"'^\xbaI\xa6#=A"
p38
tp39
Rp40
ag10
(g14
S'\xb4\xae\x00\xb9P$=A'
p41
tp42
Rp43
ag10
(g14
S'\xcd\x85\xa4\xa9\xe0"=A'
p44
tp45
Rp46
ag10
(g14
S'\x10Zd\xfbQ#=A'
p47
tp48
Rp49
ag10
(g14
S'B\xa7\r\x14r$=A'
p50
tp51
Rp52
ag10
(g14
S'8\xdfO\xed\xfb!=A'
p53
tp54
Rp55
ag10
(g14
S'\x83\xa4)\x95-#=A'
p56
tp57
Rp58
ag10
(g14
S'\x1c\x13<8\xf1"=A'
p59
tp60
Rp61
ag10
(g14
S'\x8b4\xa5b\xe8$=A'
p62
tp63
Rp64
ag10
(g14
S'V\xffFh\xac =A'
p65
tp66
Rp67
ag10
(g14
S'\xa9G\xe1\x1a\xba"=A'
p68
tp69
Rp70
ag10
(g14
S'Rd;\xdf\x15"=A'
p71
tp72
Rp73
ag10
(g14
S'\x87\xa4)U\x83$=A'
p74
tp75
Rp76
asS'target'
p77
(lp78
g10
(g14
S'\xf6(\\\x8f\xc2\xa1c@'
p79
tp80
Rp81
ag10
(g14
S".3333'b@"
p82
tp83
Rp84
ag10
(g14
S'\xe4z\x14\xaeG%d@'
p85
tp86
Rp87
ag10
(g14
S'\x89\x95C\x8bl\x1bd@'
p88
tp89
Rp90
ag10
(g14
S'[d;\xdfO\xe1a@'
p91
tp92
Rp93
ag10
(g14
S'?\xb4\xc8v\xbe\xe5b@'
p94
tp95
Rp96
ag10
(g14
S'\xc0\xf5(\\\x8fhb@'
p97
tp98
Rp99
ag10
(g14
S'\xac\xf1\xd2Mb0a@'
p100
tp101
Rp102
ag10
(g14
S'\xc8v\xbe\x9f\x1a\xcdb@'
p103
tp104
Rp105
ag10
(g14
S'2\xdd$\x06\x81\xbbb@'
p106
tp107
Rp108
ag10
(g14
S'\xccMb\x10X\xcdb@'
p109
tp110
Rp111
ag10
(g14
S'*1\x08\xac\x1cBa@'
p112
tp113
Rp114
ag10
(g14
S'>`\xe5\xd0"\xcbd@'
p115
tp116
Rp117
ag10
(g14
S'\xb8rh\x91\xed\x88d@'
p118
tp119
Rp120
ag10
(g14
S'\t\xac\x1cZd\xafc@'
p121
tp122
Rp123
ag10
(g14
S'\xffS\xe3\xa5\x9b\x88d@'
p124
tp125
Rp126
ag10
(g14
S'\x14\x04V\x0e-\x16c@'
p127
tp128
Rp129
ag10
(g14
S'\xd6x\xe9&1\\d@'
p130
tp131
Rp132
ag10
(g14
S'\x9c\xef\xa7\xc6Kwc@'
p133
tp134
Rp135
ag10
(g14
S'W\x8f\xc2\xf5(\xdeb@'
p136
tp137
Rp138
asssss.