(dp0
S'../Data/sqlite_9.csv'
p1
(dp2
S'../Data/sqlite_59.csv'
p3
(dp4
F0.05
(dp5
S'mmre'
p6
(dp7
S'bellwether'
p8
(lp9
cnumpy.core.multiarray
scalar
p10
(cnumpy
dtype
p11
(S'f8'
p12
I0
I1
tp13
Rp14
(I3
S'<'
p15
NNNI-1
I-1
I0
tp16
bS'\x01e\xc3\xe7,-W@'
p17
tp18
Rp19
ag10
(g14
S',\x7f\xf7\x8c\x0b-W@'
p20
tp21
Rp22
ag10
(g14
S'=\x9f \xdf\xcc,W@'
p23
tp24
Rp25
ag10
(g14
S'YF\xde<\x01.W@'
p26
tp27
Rp28
ag10
(g14
S'Y>+Q\t-W@'
p29
tp30
Rp31
ag10
(g14
S'\xdc\x1e\xcb\xbe\xf2,W@'
p32
tp33
Rp34
ag10
(g14
S'\x08\x8ac:\xfd-W@'
p35
tp36
Rp37
ag10
(g14
S'\xfb^\xed*B-W@'
p38
tp39
Rp40
ag10
(g14
S'\x857\xa2\x01\x11-W@'
p41
tp42
Rp43
ag10
(g14
S'\x90y\x96r\x14-W@'
p44
tp45
Rp46
ag10
(g14
S'i8\x9f3\xc4-W@'
p47
tp48
Rp49
ag10
(g14
S'\xc0G\x7f_\xf0,W@'
p50
tp51
Rp52
ag10
(g14
S'\xd8&:\xaf\xf6,W@'
p53
tp54
Rp55
ag10
(g14
S'?G\xba\xf3\xb0-W@'
p56
tp57
Rp58
ag10
(g14
S'\xcap\\\xd2\x9b-W@'
p59
tp60
Rp61
ag10
(g14
S'\xe3<\x18\xdeJ,W@'
p62
tp63
Rp64
ag10
(g14
S'5"9\xa0H-W@'
p65
tp66
Rp67
ag10
(g14
S'\x94\xea\xe2\x84--W@'
p68
tp69
Rp70
ag10
(g14
S'%\x11)\xd0*-W@'
p71
tp72
Rp73
ag10
(g14
S',\x16\xa3Ji-W@'
p74
tp75
Rp76
asS'target'
p77
(lp78
g10
(g14
S'\x87\xec\xcd\x87\xae\xf3&@'
p79
tp80
Rp81
ag10
(g14
S'\x92?\xba\xc4\x91]*@'
p82
tp83
Rp84
ag10
(g14
S"\xd6\xf7Ni\xee1'@"
p85
tp86
Rp87
ag10
(g14
S'llR\xc5\x0f\xf3"@'
p88
tp89
Rp90
ag10
(g14
S'\x06\xa4\xcc9\xb9\xd3)@'
p91
tp92
Rp93
ag10
(g14
S'\x14f\x16T\xb0\x08)@'
p94
tp95
Rp96
ag10
(g14
S'j\xbb\xcc\xb4P\xc8$@'
p97
tp98
Rp99
ag10
(g14
S'V]\x9f\xfeC\xdc(@'
p100
tp101
Rp102
ag10
(g14
S'\x01\xed\n\xdd`\x9b&@'
p103
tp104
Rp105
ag10
(g14
S'\x83xB\x81"\xb5$@'
p106
tp107
Rp108
ag10
(g14
S'\xc0w=\x11<s%@'
p109
tp110
Rp111
ag10
(g14
S'\xce\x80^\xdc\xc9\xfb$@'
p112
tp113
Rp114
ag10
(g14
S'V\xb2\x9e\xe9{=(@'
p115
tp116
Rp117
ag10
(g14
S'IA\xd5\xa2\xcc\xa2%@'
p118
tp119
Rp120
ag10
(g14
S'l_;\x9f\xf4\x8f$@'
p121
tp122
Rp123
ag10
(g14
S'B\xa2o\xa5>2(@'
p124
tp125
Rp126
ag10
(g14
S"w1\x8c\xdd;\x8a'@"
p127
tp128
Rp129
ag10
(g14
S'\xc6\xc0\x9e\xa2\xd5V$@'
p130
tp131
Rp132
ag10
(g14
S'@\xd3\xda7\\d(@'
p133
tp134
Rp135
ag10
(g14
S'\xb8\xa1\x11\xce\xb7\x83&@'
p136
tp137
Rp138
asssss.