(dp0
S'../Data/sqlite_4.csv'
p1
(dp2
S'../Data/sqlite_65.csv'
p3
(dp4
F0.25
(dp5
S'abs_res'
p6
(dp7
S'bellwether'
p8
(lp9
cnumpy.core.multiarray
scalar
p10
(cnumpy
dtype
p11
(S'f8'
p12
I0
I1
tp13
Rp14
(I3
S'<'
p15
NNNI-1
I-1
I0
tp16
bS'\xe6^s!\x17M=A'
p17
tp18
Rp19
ag10
(g14
S'UFo\x0bGK=A'
p20
tp21
Rp22
ag10
(g14
S'_s!I\xa2L=A'
p23
tp24
Rp25
ag10
(g14
S'\x01\xaa\xf1RhJ=A'
p26
tp27
Rp28
ag10
(g14
S'\x11\x02+\xc7\x84J=A'
p29
tp30
Rp31
ag10
(g14
S'a\x9e\xa8\xff\xd6L=A'
p32
tp33
Rp34
ag10
(g14
S'(\xbfX\xf2\xcbJ=A'
p35
tp36
Rp37
ag10
(g14
S'!Zd\xfb\xf2H=A'
p38
tp39
Rp40
ag10
(g14
S'\x94\xed|_7J=A'
p41
tp42
Rp43
ag10
(g14
S'\xba\x1e\x85\xab\x16L=A'
p44
tp45
Rp46
ag10
(g14
S'W*\xce~xK=A'
p47
tp48
Rp49
ag10
(g14
S'\xe1@\xa7\xed\x8eK=A'
p50
tp51
Rp52
ag10
(g14
S'[*\xce\x9e\x99K=A'
p53
tp54
Rp55
ag10
(g14
S':33S\xb9K=A'
p56
tp57
Rp58
ag10
(g14
S'\x9f6\xd0\t\xeeK=A'
p59
tp60
Rp61
ag10
(g14
S'\x02\xac\x1c\xba\x9bL=A'
p62
tp63
Rp64
ag10
(g14
S'\xd2\xa1E\xd6\xebJ=A'
p65
tp66
Rp67
ag10
(g14
S'\x0b\x02+GCK=A'
p68
tp69
Rp70
ag10
(g14
S'\xe7&1(\x1bJ=A'
p71
tp72
Rp73
ag10
(g14
S'\xa5\xb7em\x1aL=A'
p74
tp75
Rp76
asS'target'
p77
(lp78
g10
(g14
S'B\xb4\xc8v\xbe\x8f]@'
p79
tp80
Rp81
ag10
(g14
S'\x82\x14\xaeG\xe1\x9eY@'
p82
tp83
Rp84
ag10
(g14
S'\x80?5^\xba\xcdX@'
p85
tp86
Rp87
ag10
(g14
S'\x9dC\x8bl\xe7+X@'
p88
tp89
Rp90
ag10
(g14
S'b\xe5\xd0"\xdb\xadY@'
p91
tp92
Rp93
ag10
(g14
S'a\xe5\xd0"\xdbEX@'
p94
tp95
Rp96
ag10
(g14
S'\x9a\x97n\x12\x830Y@'
p97
tp98
Rp99
ag10
(g14
S'\xf8U\x0e-\xb2IX@'
p100
tp101
Rp102
ag10
(g14
S'\x86\xebQ\xb8\x1e\xadU@'
p103
tp104
Rp105
ag10
(g14
S'b\x8f\xc2\xf5(\xd4Y@'
p106
tp107
Rp108
ag10
(g14
S'\x07\x02+\x87\x16%Z@'
p109
tp110
Rp111
ag10
(g14
S'\xea&1\x08\xacdY@'
p112
tp113
Rp114
ag10
(g14
S'@^\xbaI\x0c\x9aU@'
p115
tp116
Rp117
ag10
(g14
S'\x96\xed|?5\xfaY@'
p118
tp119
Rp120
ag10
(g14
S'\x16\xd9\xce\xf7SKX@'
p121
tp122
Rp123
ag10
(g14
S'\xf4\xd2Mb\x10\x08V@'
p124
tp125
Rp126
ag10
(g14
S'I`\xe5\xd0"+[@'
p127
tp128
Rp129
ag10
(g14
S'\xf8\xfd\xd4x\xe9\xceY@'
p130
tp131
Rp132
ag10
(g14
S']\x0e-\xb2\x9d\xf7Y@'
p133
tp134
Rp135
ag10
(g14
S'j\x10X9\xb4\xd4W@'
p136
tp137
Rp138
asssss.