(dp0
S'../Data/sqlite_80.csv'
p1
(dp2
S'../Data/sqlite_88.csv'
p3
(dp4
F0.15
(dp5
S'abs_res'
p6
(dp7
S'bellwether'
p8
(lp9
cnumpy.core.multiarray
scalar
p10
(cnumpy
dtype
p11
(S'f8'
p12
I0
I1
tp13
Rp14
(I3
S'<'
p15
NNNI-1
I-1
I0
tp16
bS'\x00:m\\\x83ObA'
p17
tp18
Rp19
ag10
(g14
S'#\xbfX\x8e\xb9@bA'
p20
tp21
Rp22
ag10
(g14
S'\x9c\x99\x99a@LbA'
p23
tp24
Rp25
ag10
(g14
S'\x81N\x1b\xc4\xacfbA'
p26
tp27
Rp28
ag10
(g14
S'\xbdX\xf2/\xbb5bA'
p29
tp30
Rp31
ag10
(g14
S'\xc9/\x96\x98.\\bA'
p32
tp33
Rp34
ag10
(g14
S'\x03\xd7\xa3\x802=bA'
p35
tp36
Rp37
ag10
(g14
S'\x0e\xaeG\tXObA'
p38
tp39
Rp40
ag10
(g14
S'w\x14\xae#\xb7HbA'
p41
tp42
Rp43
ag10
(g14
S'Y\xf2\x8b\xa9\x9bBbA'
p44
tp45
Rp46
ag10
(g14
S'\xe2z\x14j{<bA'
p47
tp48
Rp49
ag10
(g14
S'\x84\xebQtwQbA'
p50
tp51
Rp52
ag10
(g14
S'dff\x02\x08FbA'
p53
tp54
Rp55
ag10
(g14
S'\xc8i\x03\xe1\x84^bA'
p56
tp57
Rp58
ag10
(g14
S'u\x14\xae\xa3\x0eYbA'
p59
tp60
Rp61
ag10
(g14
S'\x84%\xbf\xf8\xcd]bA'
p62
tp63
Rp64
ag10
(g14
S'\xfd\xff\xffG\xf5HbA'
p65
tp66
Rp67
ag10
(g14
S'q\xda@\x13\x9dNbA'
p68
tp69
Rp70
ag10
(g14
S'\xe3Q\xb8\x8eN]bA'
p71
tp72
Rp73
ag10
(g14
S'3m\xa07aGbA'
p74
tp75
Rp76
asS'target'
p77
(lp78
g10
(g14
S'P\xe1z\x14\xc5s9A'
p79
tp80
Rp81
ag10
(g14
S'o=\n\xd72\x8f-A'
p82
tp83
Rp84
ag10
(g14
S'\xf5(\\O-61A'
p85
tp86
Rp87
ag10
(g14
S'<\n\xd7\xe3i\xe6:A'
p88
tp89
Rp90
ag10
(g14
S'?\n\xd7\xa3\xd1\xaa/A'
p91
tp92
Rp93
ag10
(g14
S'\xe9Q\xb8^\xc7g8A'
p94
tp95
Rp96
ag10
(g14
S'\x12\xaeG\xa1_Q2A'
p97
tp98
Rp99
ag10
(g14
S'\xf3(\\\x8f\x86\xd07A'
p100
tp101
Rp102
ag10
(g14
S'\x13\xaeG\xe1\x07\x7f2A'
p103
tp104
Rp105
ag10
(g14
S'^\x8f\xc2uM\xca4A'
p106
tp107
Rp108
ag10
(g14
S'\xb7\x1e\x85\xab\xaae3A'
p109
tp110
Rp111
ag10
(g14
S'\xadG\xe1:\xb5u3A'
p112
tp113
Rp114
ag10
(g14
S'~\xebQ\xf8\xc0\xe4:A'
p115
tp116
Rp117
ag10
(g14
S'\x1f\x85\xebQ(\xb08A'
p118
tp119
Rp120
ag10
(g14
S'\x1d\x85\xeb\xd1\x85\xc85A'
p121
tp122
Rp123
ag10
(g14
S'\xd3\xcc\xcc\xcc\xa5\xf38A'
p124
tp125
Rp126
ag10
(g14
S'\xfc(\\\x8fX%6A'
p127
tp128
Rp129
ag10
(g14
S'\xf7\xff\xff?@-?A'
p130
tp131
Rp132
ag10
(g14
S'\xddz\x14\xaev\xad2A'
p133
tp134
Rp135
ag10
(g14
S'\x16\xaeG\xe1\x0f\xd74A'
p136
tp137
Rp138
asssss.