(dp0
S'../Data/sqlite_37.csv'
p1
(dp2
S'../Data/sqlite_43.csv'
p3
(dp4
F0.2
(dp5
S'abs_res'
p6
(dp7
S'bellwether'
p8
(lp9
cnumpy.core.multiarray
scalar
p10
(cnumpy
dtype
p11
(S'f8'
p12
I0
I1
tp13
Rp14
(I3
S'<'
p15
NNNI-1
I-1
I0
tp16
bS'~\xebQ\xf8\xb2p>A'
p17
tp18
Rp19
ag10
(g14
S'\xb2\x1cZtSq>A'
p20
tp21
Rp22
ag10
(g14
S'p\xe7\xfb\x99ys>A'
p23
tp24
Rp25
ag10
(g14
S'\xb6\x1e\x85\xab\rq>A'
p26
tp27
Rp28
ag10
(g14
S'd;\xdf\xdfkr>A'
p29
tp30
Rp31
ag10
(g14
S'\xa8G\xe1*Vq>A'
p32
tp33
Rp34
ag10
(g14
S'\xf0\xfb\xa9\x01<q>A'
p35
tp36
Rp37
ag10
(g14
S'6^\xbaysq>A'
p38
tp39
Rp40
ag10
(g14
S'\x95\xed|?\xa9q>A'
p41
tp42
Rp43
ag10
(g14
S'\x17/\xdd\xe4lq>A'
p44
tp45
Rp46
ag10
(g14
S'\xb8t\x93\x08\x8fq>A'
p47
tp48
Rp49
ag10
(g14
S'\x8e\xc2\xf58ir>A'
p50
tp51
Rp52
ag10
(g14
S'4^\xba\x99er>A'
p53
tp54
Rp55
ag10
(g14
S'\xb5rhqcq>A'
p56
tp57
Rp58
ag10
(g14
S'\xd0v\xbe\x8f\xcbr>A'
p59
tp60
Rp61
ag10
(g14
S'oh\x91\x1d\xf1q>A'
p62
tp63
Rp64
ag10
(g14
S'\xdb\xce\xf7\xa36q>A'
p65
tp66
Rp67
ag10
(g14
S'\xa1p=z!s>A'
p68
tp69
Rp70
ag10
(g14
S'\x99n\x12\xd3\xc0q>A'
p71
tp72
Rp73
ag10
(g14
S'\xc6K7\xd9\xadp>A'
p74
tp75
Rp76
asS'target'
p77
(lp78
g10
(g14
S'jffff\xfa\xc4@'
p79
tp80
Rp81
ag10
(g14
S'\xdd\xcc\xcc\xccL9\xc5@'
p82
tp83
Rp84
ag10
(g14
S"\xd2\xcc\xcc\xcc\xec'\xc4@"
p85
tp86
Rp87
ag10
(g14
S'jfff&\x92\xc4@'
p88
tp89
Rp90
ag10
(g14
S'<333\xb3\x83\xc3@'
p91
tp92
Rp93
ag10
(g14
S'jfff\xe6q\xc3@'
p94
tp95
Rp96
ag10
(g14
S'\x04\x00\x00\x00`]\xc3@'
p97
tp98
Rp99
ag10
(g14
S'<3333\x16\xc4@'
p100
tp101
Rp102
ag10
(g14
S'>333s\x14\xc3@'
p103
tp104
Rp105
ag10
(g14
S'\xd1\xcc\xcc\xccL\xcd\xc3@'
p106
tp107
Rp108
ag10
(g14
S'\xc5\xcc\xcc\xccL\xce\xc5@'
p109
tp110
Rp111
ag10
(g14
S'\xd8\xcc\xcc\xcc\xec{\xc4@'
p112
tp113
Rp114
ag10
(g14
S'\xa1\x99\x99\x99\x19F\xc4@'
p115
tp116
Rp117
ag10
(g14
S'\x06\x00\x00\x00\x00\x01\xc5@'
p118
tp119
Rp120
ag10
(g14
S'nfff&\xcd\xc4@'
p121
tp122
Rp123
ag10
(g14
S'93333\xe9\xc4@'
p124
tp125
Rp126
ag10
(g14
S'pfffF\xa1\xc5@'
p127
tp128
Rp129
ag10
(g14
S'\xa4\x99\x99\x99\xb9Y\xc3@'
p130
tp131
Rp132
ag10
(g14
S'B333\x93\xf8\xc4@'
p133
tp134
Rp135
ag10
(g14
S'5333s\xf3\xc5@'
p136
tp137
Rp138
asssss.