(dp0
S'../Data/sqlite_74.csv'
p1
(dp2
S'../Data/sqlite_21.csv'
p3
(dp4
F0.25
(dp5
S'abs_res'
p6
(dp7
S'bellwether'
p8
(lp9
cnumpy.core.multiarray
scalar
p10
(cnumpy
dtype
p11
(S'f8'
p12
I0
I1
tp13
Rp14
(I3
S'<'
p15
NNNI-1
I-1
I0
tp16
bS'#M\xa9p$^iA'
p17
tp18
Rp19
ag10
(g14
S'g.$\xd1\x97[iA'
p20
tp21
Rp22
ag10
(g14
S'\x1c\xcc\x13\xb1raiA'
p23
tp24
Rp25
ag10
(g14
S'\x92{\xcd\xfd\xc8ViA'
p26
tp27
Rp28
ag10
(g14
S'\x19\xbd-\xe7\xcd^iA'
p29
tp30
Rp31
ag10
(g14
S'\xd1\xce\xf7\x03\xa0\\iA'
p32
tp33
Rp34
ag10
(g14
S'\x1d\x83\xc0*\xd9WiA'
p35
tp36
Rp37
ag10
(g14
S'\x16\xf5o\x98+eiA'
p38
tp39
Rp40
ag10
(g14
S'\xfdS\xe3\xcdNYiA'
p41
tp42
Rp43
ag10
(g14
S'*\xce>\x04M\\iA'
p44
tp45
Rp46
ag10
(g14
S'\xc0\xca\xa1m]OiA'
p47
tp48
Rp49
ag10
(g14
S'C\x19\xbd\xd5\xf9QiA'
p50
tp51
Rp52
ag10
(g14
S'\xc5g\xd8\xf1E\\iA'
p53
tp54
Rp55
ag10
(g14
S'i.$\xe1\x8d\\iA'
p56
tp57
Rp58
ag10
(g14
S'\xa9c\x82\x0bYdiA'
p59
tp60
Rp61
ag10
(g14
S'\x8aA`\x19\xec[iA'
p62
tp63
Rp64
ag10
(g14
S'\xd8x\xe9\xfa\xc5OiA'
p65
tp66
Rp67
ag10
(g14
S'\xfc\xb8\xd7\xd8YeiA'
p68
tp69
Rp70
ag10
(g14
S'\xe7mY\x8b\xb6ViA'
p71
tp72
Rp73
ag10
(g14
S'\x05\xc6\x92_\x0f^iA'
p74
tp75
Rp76
asS'target'
p77
(lp78
g10
(g14
S'T7\x89A`\xc3d@'
p79
tp80
Rp81
ag10
(g14
S'\xea|?5^.d@'
p82
tp83
Rp84
ag10
(g14
S'+\xb2\x9d\xef\xa7\xc8d@'
p85
tp86
Rp87
ag10
(g14
S'h;\xdfO\x8d\xafe@'
p88
tp89
Rp90
ag10
(g14
S'A\xdfO\x8d\x978e@'
p91
tp92
Rp93
ag10
(g14
S'l=\n\xd7\xa3\\d@'
p94
tp95
Rp96
ag10
(g14
S'\xdcMb\x10X\xade@'
p97
tp98
Rp99
ag10
(g14
S'\x1b\xd9\xce\xf7S\xcbd@'
p100
tp101
Rp102
ag10
(g14
S'Q\xe1z\x14\xae\x7fd@'
p103
tp104
Rp105
ag10
(g14
S'"Zd;\xdfIf@'
p106
tp107
Rp108
ag10
(g14
S'6\\\x8f\xc2\xf5\xe0d@'
p109
tp110
Rp111
ag10
(g14
S'\x00V\x0e-\xb2\xf9d@'
p112
tp113
Rp114
ag10
(g14
S'\x82\x14\xaeG\xe14f@'
p115
tp116
Rp117
ag10
(g14
S'\xb0G\xe1z\x14\xf6d@'
p118
tp119
Rp120
ag10
(g14
S'~j\xbct\x93\x18f@'
p121
tp122
Rp123
ag10
(g14
S'\x02T\xe3\xa5\x9b\xd0c@'
p124
tp125
Rp126
ag10
(g14
S'\xc8K7\x89A\x92f@'
p127
tp128
Rp129
ag10
(g14
S'A\xb6\xf3\xfd\xd4\xfae@'
p130
tp131
Rp132
ag10
(g14
S')\x06\x81\x95C\xf3e@'
p133
tp134
Rp135
ag10
(g14
S'\x9bC\x8bl\xe73e@'
p136
tp137
Rp138
asssss.