(dp0
S'../Data/sqlite_93.csv'
p1
(dp2
S'../Data/sqlite_90.csv'
p3
(dp4
F0.15
(dp5
S'mmre'
p6
(dp7
S'bellwether'
p8
(lp9
cnumpy.core.multiarray
scalar
p10
(cnumpy
dtype
p11
(S'f8'
p12
I0
I1
tp13
Rp14
(I3
S'<'
p15
NNNI-1
I-1
I0
tp16
bS'\xc9\x9a\xb8\xbe\xa9xX@'
p17
tp18
Rp19
ag10
(g14
S'\xb8\xa2\x91,\xbdtX@'
p20
tp21
Rp22
ag10
(g14
S'\x14\xdb=\x04\xb0vX@'
p23
tp24
Rp25
ag10
(g14
S'\xb9\x12>\x7f;vX@'
p26
tp27
Rp28
ag10
(g14
S'\xe8z-\xb0\x8dvX@'
p29
tp30
Rp31
ag10
(g14
S'\x1e/+\xa4\xf0uX@'
p32
tp33
Rp34
ag10
(g14
S'\xa3<\xf7;\xd1tX@'
p35
tp36
Rp37
ag10
(g14
S'9\xd5L\xcd\xd3vX@'
p38
tp39
Rp40
ag10
(g14
S'7S\xffG\xddvX@'
p41
tp42
Rp43
ag10
(g14
S'\xe5\x90\xcc%\xdeuX@'
p44
tp45
Rp46
ag10
(g14
S'\x9c\xc2\xe9\xdc\xf7}X@'
p47
tp48
Rp49
ag10
(g14
S'\xa6m<OTuX@'
p50
tp51
Rp52
ag10
(g14
S'\xa2?\xdc\xe3cxX@'
p53
tp54
Rp55
ag10
(g14
S'eJ\x11\x03\x80vX@'
p56
tp57
Rp58
ag10
(g14
S'\xf3P{b_sX@'
p59
tp60
Rp61
ag10
(g14
S'\xaa\x18\x9bTqzX@'
p62
tp63
Rp64
ag10
(g14
S'$\x12\xe2a\xfewX@'
p65
tp66
Rp67
ag10
(g14
S'7K\xdb+\x0fwX@'
p68
tp69
Rp70
ag10
(g14
S'\r\x81\xa5\x19\xefvX@'
p71
tp72
Rp73
ag10
(g14
S'Bb~o\xaavX@'
p74
tp75
Rp76
asS'target'
p77
(lp78
g10
(g14
S'*\x99z\x04:\xb6@@'
p79
tp80
Rp81
ag10
(g14
S'\x16\xa8\xd3FR\xe6@@'
p82
tp83
Rp84
ag10
(g14
S'\x0f\xa4\xa3\xcc\x8bHA@'
p85
tp86
Rp87
ag10
(g14
S'\xe7\x83\x96\xf8\xa5\xb5@@'
p88
tp89
Rp90
ag10
(g14
S'\xc4\xa9D\xf9r\x8eA@'
p91
tp92
Rp93
ag10
(g14
S'\x87\xbb\xe3\xe7\x1d&A@'
p94
tp95
Rp96
ag10
(g14
S'\xcci*$\xfaM@@'
p97
tp98
Rp99
ag10
(g14
S'\xf7\x0c\tV\x1f.D@'
p100
tp101
Rp102
ag10
(g14
S'\xed\x0bL\x03_\x8aA@'
p103
tp104
Rp105
ag10
(g14
S'\x9d7\xd66\x10\xc6A@'
p106
tp107
Rp108
ag10
(g14
S'I\xe98\x1dn\x9eA@'
p109
tp110
Rp111
ag10
(g14
S'\x891C\x91-g@@'
p112
tp113
Rp114
ag10
(g14
S'\tXlS\x907A@'
p115
tp116
Rp117
ag10
(g14
S'\xa46\xfc}\xc2\xc4A@'
p118
tp119
Rp120
ag10
(g14
S'?\x93\xb0~r\x92?@'
p121
tp122
Rp123
ag10
(g14
S'I\xdc\xa0\x8f\xaf\xceA@'
p124
tp125
Rp126
ag10
(g14
S'U|\xcf\x94\x1d\x8d@@'
p127
tp128
Rp129
ag10
(g14
S'\xdf\xe1\xd5mT*A@'
p130
tp131
Rp132
ag10
(g14
S'\xc6\xc4R\xb723C@'
p133
tp134
Rp135
ag10
(g14
S'\x93B\xa9\xb4e,B@'
p136
tp137
Rp138
asssss.