(dp0
S'../Data/sqlite_79.csv'
p1
(dp2
S'../Data/sqlite_92.csv'
p3
(dp4
F0.25
(dp5
S'mmre'
p6
(dp7
S'bellwether'
p8
(lp9
cnumpy.core.multiarray
scalar
p10
(cnumpy
dtype
p11
(S'f8'
p12
I0
I1
tp13
Rp14
(I3
S'<'
p15
NNNI-1
I-1
I0
tp16
bS'\xcf\xea\x9b\x14\xd6aI@'
p17
tp18
Rp19
ag10
(g14
S'\xc2(\xf4\xa4^dI@'
p20
tp21
Rp22
ag10
(g14
S'\xe8\xa4^CaKI@'
p23
tp24
Rp25
ag10
(g14
S'M\xf0\xba\xdb\xd9;I@'
p26
tp27
Rp28
ag10
(g14
S'3\xb6\xd0\xbe\xc7NI@'
p29
tp30
Rp31
ag10
(g14
S'7G\xe0Vc!I@'
p32
tp33
Rp34
ag10
(g14
S'\xcd\x8e\x80\xc4\x06\x9cI@'
p35
tp36
Rp37
ag10
(g14
S'X,>\x9d\x18XI@'
p38
tp39
Rp40
ag10
(g14
S'~\xc3#V\n^I@'
p41
tp42
Rp43
ag10
(g14
S' \x0b\xd6\xe6]NI@'
p44
tp45
Rp46
ag10
(g14
S'\x9d,2\x12:FI@'
p47
tp48
Rp49
ag10
(g14
S'\xc9^\xc9E}QI@'
p50
tp51
Rp52
ag10
(g14
S'\x91\xfa"m\xe4JI@'
p53
tp54
Rp55
ag10
(g14
S'\xdd\x8eWijTI@'
p56
tp57
Rp58
ag10
(g14
S'\xa6\xf0H\x9c\x1f&I@'
p59
tp60
Rp61
ag10
(g14
S'(-\xc45\xff>I@'
p62
tp63
Rp64
ag10
(g14
S'\x855\xd8\xfe\xf0\x18I@'
p65
tp66
Rp67
ag10
(g14
S'\xbbl\xd0\x1e{VI@'
p68
tp69
Rp70
ag10
(g14
S'\x83\x83\xfbn\x01<I@'
p71
tp72
Rp73
ag10
(g14
S'\x86|\xc79\x9cTI@'
p74
tp75
Rp76
asS'target'
p77
(lp78
g10
(g14
S'\xdc\x84\xe9\xf7s\rL@'
p79
tp80
Rp81
ag10
(g14
S'h\xda\xf9\xb5\rpT@'
p82
tp83
Rp84
ag10
(g14
S'\x8d*\xa0ha\xc3T@'
p85
tp86
Rp87
ag10
(g14
S'\x1bf?\x93T\xfdV@'
p88
tp89
Rp90
ag10
(g14
S'\x88X\x93OPjP@'
p91
tp92
Rp93
ag10
(g14
S'\xbewT\xd7@\xdcU@'
p94
tp95
Rp96
ag10
(g14
S'b\x91\x137\xb2EJ@'
p97
tp98
Rp99
ag10
(g14
S'\x1d\xaf\n\x9eL\xa8U@'
p100
tp101
Rp102
ag10
(g14
S'\x8a.#\xc6w\xefY@'
p103
tp104
Rp105
ag10
(g14
S'Xn\xb9~\x0c\xceK@'
p106
tp107
Rp108
ag10
(g14
S'b\x96\xecM\x95\xb8X@'
p109
tp110
Rp111
ag10
(g14
S'\x93\xf8mf;\xa7U@'
p112
tp113
Rp114
ag10
(g14
S'\xd4\xb8?\x0f\x85\xefP@'
p115
tp116
Rp117
ag10
(g14
S'\x89\xd6\x97\xd1\xedoU@'
p118
tp119
Rp120
ag10
(g14
S'\xaa\xe5\x0bB:{U@'
p121
tp122
Rp123
ag10
(g14
S'\xba\xa8\xe1.\xf5NQ@'
p124
tp125
Rp126
ag10
(g14
S'#\xb3z=UyT@'
p127
tp128
Rp129
ag10
(g14
S'v\xcd\xcb\xce\xad\xf3T@'
p130
tp131
Rp132
ag10
(g14
S'\x144\xc5\xef\x96\xa3Q@'
p133
tp134
Rp135
ag10
(g14
S'\xf5\xb6\xaa\xdf\xae\xe4L@'
p136
tp137
Rp138
asssss.