(dp0
S'../Data/sqlite_32.csv'
p1
(dp2
S'../Data/sqlite_33.csv'
p3
(dp4
F0.3
(dp5
S'abs_res'
p6
(dp7
S'bellwether'
p8
(lp9
cnumpy.core.multiarray
scalar
p10
(cnumpy
dtype
p11
(S'f8'
p12
I0
I1
tp13
Rp14
(I3
S'<'
p15
NNNI-1
I-1
I0
tp16
bS'\xc7\xf5(\\\x8f$@A'
p17
tp18
Rp19
ag10
(g14
S'\t\x81\x95\x93<#@A'
p20
tp21
Rp22
ag10
(g14
S'\xee&1\xd8\x14&@A'
p23
tp24
Rp25
ag10
(g14
S'^\xe5\xd0\xb2\x13&@A'
p26
tp27
Rp28
ag10
(g14
S'u\xbe\x9f\xda%$@A'
p29
tp30
Rp31
ag10
(g14
S'\xdd\xce\xf7S{#@A'
p32
tp33
Rp34
ag10
(g14
S'xh\x91\xcd\xaa&@A'
p35
tp36
Rp37
ag10
(g14
S'\x8dl\xe7\xcb\x8a&@A'
p38
tp39
Rp40
ag10
(g14
S"633cx'@A"
p41
tp42
Rp43
ag10
(g14
S'.\xb2\x9d\xef%&@A'
p44
tp45
Rp46
ag10
(g14
S'\x94\x97nRn$@A'
p47
tp48
Rp49
ag10
(g14
S'\x89\xebQH\x93#@A'
p50
tp51
Rp52
ag10
(g14
S'\xcd\xa1E\xf6F$@A'
p53
tp54
Rp55
ag10
(g14
S'p\x12\x830o#@A'
p56
tp57
Rp58
ag10
(g14
S"\x10\x02+'\x14%@A"
p59
tp60
Rp61
ag10
(g14
S"V\xe3\xa5;u'@A"
p62
tp63
Rp64
ag10
(g14
S'\xc1\xca\xa1\xb5z$@A'
p65
tp66
Rp67
ag10
(g14
S'+1\x08\xcc>%@A'
p68
tp69
Rp70
ag10
(g14
S'<\x89A\xa0w$@A'
p71
tp72
Rp73
ag10
(g14
S'[9\xb4x\xa3&@A'
p74
tp75
Rp76
asS'target'
p77
(lp78
g10
(g14
S'\xff(\\\x8f\xc2\x15I@'
p79
tp80
Rp81
ag10
(g14
S'\x1b\xb0rh\x91\xe5L@'
p82
tp83
Rp84
ag10
(g14
S'\x90\xc2\xf5(\\/H@'
p85
tp86
Rp87
ag10
(g14
S'\x9dn\x12\x83\xc0\x9aG@'
p88
tp89
Rp90
ag10
(g14
S'\xdc\xa5\x9b\xc4 \x88H@'
p91
tp92
Rp93
ag10
(g14
S'\x0eV\x0e-\xb2=G@'
p94
tp95
Rp96
ag10
(g14
S'\xbbI\x0c\x02+\x0fJ@'
p97
tp98
Rp99
ag10
(g14
S'\xbcI\x0c\x02+\x87H@'
p100
tp101
Rp102
ag10
(g14
S'\xd4\xf7S\xe3\xa5\xbbG@'
p103
tp104
Rp105
ag10
(g14
S'\x10\xd9\xce\xf7S\xebI@'
p106
tp107
Rp108
ag10
(g14
S'y?5^\xba!G@'
p109
tp110
Rp111
ag10
(g14
S'\x08\x00\x00\x00\x00\x08G@'
p112
tp113
Rp114
ag10
(g14
S'\xf8(\\\x8f\xc2=I@'
p115
tp116
Rp117
ag10
(g14
S'\x9b\x1a/\xdd$&F@'
p118
tp119
Rp120
ag10
(g14
S'\x1a\xd9\xce\xf7SsH@'
p121
tp122
Rp123
ag10
(g14
S'\xfa\xa9\xf1\xd2M\xa2F@'
p124
tp125
Rp126
ag10
(g14
S'\x1a\x04V\x0e-\x92G@'
p127
tp128
Rp129
ag10
(g14
S'\x9c\xc2\xf5(\\\xb7J@'
p130
tp131
Rp132
ag10
(g14
S'\n\xaeG\xe1z\x8cF@'
p133
tp134
Rp135
ag10
(g14
S'\xfe~j\xbct+G@'
p136
tp137
Rp138
asssss.