(dp0
S'../Data/sqlite_57.csv'
p1
(dp2
S'../Data/sqlite_75.csv'
p3
(dp4
F0.2
(dp5
S'abs_res'
p6
(dp7
S'bellwether'
p8
(lp9
cnumpy.core.multiarray
scalar
p10
(cnumpy
dtype
p11
(S'f8'
p12
I0
I1
tp13
Rp14
(I3
S'<'
p15
NNNI-1
I-1
I0
tp16
bS'\x1a\x85\xeb\xdd\xbeAgA'
p17
tp18
Rp19
ag10
(g14
S'\x0cX9\xf0\xdbGgA'
p20
tp21
Rp22
ag10
(g14
S'D\xe1z\xe0\xf3BgA'
p23
tp24
Rp25
ag10
(g14
S'\xa9\xc6K\xff\x08CgA'
p26
tp27
Rp28
ag10
(g14
S'\x08\xd7\xa3$^@gA'
p29
tp30
Rp31
ag10
(g14
S'\xc8K7\x8d\x1fMgA'
p32
tp33
Rp34
ag10
(g14
S'J\xe1z\xecHIgA'
p35
tp36
Rp37
ag10
(g14
S' \xdb\xf92[GgA'
p38
tp39
Rp40
ag10
(g14
S'M7\x89-\x95AgA'
p41
tp42
Rp43
ag10
(g14
S't\x14\xae\xd7SCgA'
p44
tp45
Rp46
ag10
(g14
S'\xd0x\xe9*\x1cJgA'
p47
tp48
Rp49
ag10
(g14
S'~\xebQ\x00\x0bAgA'
p50
tp51
Rp52
ag10
(g14
S'\nX9\xa0t;gA'
p53
tp54
Rp55
ag10
(g14
S'\xc0\xca\xa1]TOgA'
p56
tp57
Rp58
ag10
(g14
S'=`\xe5\x14\x90BgA'
p59
tp60
Rp61
ag10
(g14
S'\xc0 \xb0^\xf5BgA'
p62
tp63
Rp64
ag10
(g14
S'\xadG\xe1\x9e\xcfHgA'
p65
tp66
Rp67
ag10
(g14
S'\xf8(\\\xf7\xf4KgA'
p68
tp69
Rp70
ag10
(g14
S'\xc7\xa1E^\xdf9gA'
p71
tp72
Rp73
ag10
(g14
S'\x12\xaeG\x81!EgA'
p74
tp75
Rp76
asS'target'
p77
(lp78
g10
(g14
S'bffff\x06Y@'
p79
tp80
Rp81
ag10
(g14
S'\x0c\x81\x95C\x8b\xacY@'
p82
tp83
Rp84
ag10
(g14
S'Nd;\xdfO\r[@'
p85
tp86
Rp87
ag10
(g14
S'Hb\x10X9TY@'
p88
tp89
Rp90
ag10
(g14
S'L\x0c\x02+\x87FX@'
p91
tp92
Rp93
ag10
(g14
S'\xa9rh\x91\xed\xb0Y@'
p94
tp95
Rp96
ag10
(g14
S'\xc8\xa1E\xb6\xf3\x05Y@'
p97
tp98
Rp99
ag10
(g14
S'l\x12\x83\xc0\xca\xb1Y@'
p100
tp101
Rp102
ag10
(g14
S'\xe5&1\x08\xac\xa4Y@'
p103
tp104
Rp105
ag10
(g14
S'Z\xe3\xa5\x9b\xc4\x18X@'
p106
tp107
Rp108
ag10
(g14
S'\x83\x16\xd9\xce\xf7\x8fY@'
p109
tp110
Rp111
ag10
(g14
S'N\xe3\xa5\x9b\xc4XY@'
p112
tp113
Rp114
ag10
(g14
S'\xcf \xb0rh\xf9X@'
p115
tp116
Rp117
ag10
(g14
S'\xd8Mb\x10X\xf9Y@'
p118
tp119
Rp120
ag10
(g14
S' \x85\xebQ\xb8fZ@'
p121
tp122
Rp123
ag10
(g14
S'\x10\xaeG\xe1zLY@'
p124
tp125
Rp126
ag10
(g14
S'$\x06\x81\x95C\x17Y@'
p127
tp128
Rp129
ag10
(g14
S'\x0c\x02+\x87\x169Z@'
p130
tp131
Rp132
ag10
(g14
S'\xe7\xfb\xa9\xf1\xd2\xddX@'
p133
tp134
Rp135
ag10
(g14
S'\x9d\xc4 \xb0r\xe0Z@'
p136
tp137
Rp138
asssss.