(dp0
S'../Data/sqlite_50.csv'
p1
(dp2
S'../Data/sqlite_76.csv'
p3
(dp4
F0.05
(dp5
S'mmre'
p6
(dp7
S'bellwether'
p8
(lp9
cnumpy.core.multiarray
scalar
p10
(cnumpy
dtype
p11
(S'f8'
p12
I0
I1
tp13
Rp14
(I3
S'<'
p15
NNNI-1
I-1
I0
tp16
bS'\x16\x91\xdf\x11\xa06V@'
p17
tp18
Rp19
ag10
(g14
S'k8,\xbeU6V@'
p20
tp21
Rp22
ag10
(g14
S'\xee\x10\x18$\x886V@'
p23
tp24
Rp25
ag10
(g14
S'E\xb0\x04;F7V@'
p26
tp27
Rp28
ag10
(g14
S'~\x16\xfaad8V@'
p29
tp30
Rp31
ag10
(g14
S'\x98\x94\x12\xf2 7V@'
p32
tp33
Rp34
ag10
(g14
S'\xe3{\xdc\x85\xe75V@'
p35
tp36
Rp37
ag10
(g14
S'\xf7k\x12J\x1f6V@'
p38
tp39
Rp40
ag10
(g14
S'l\x01&\xfas8V@'
p41
tp42
Rp43
ag10
(g14
S'j~%_\xf97V@'
p44
tp45
Rp46
ag10
(g14
S'\x84\xc8\xe2\x9c\xb36V@'
p47
tp48
Rp49
ag10
(g14
S'y!\xfdLv8V@'
p50
tp51
Rp52
ag10
(g14
S'\x99F\xc8\xbf\xa77V@'
p53
tp54
Rp55
ag10
(g14
S'\xbej\xf0\xccD8V@'
p56
tp57
Rp58
ag10
(g14
S',\xa3\xb1[\xaf7V@'
p59
tp60
Rp61
ag10
(g14
S'\xf1\x93\xb8SV6V@'
p62
tp63
Rp64
ag10
(g14
S'\xb6\xba,\x84\xaa5V@'
p65
tp66
Rp67
ag10
(g14
S'*\xf4\x114\xfc6V@'
p68
tp69
Rp70
ag10
(g14
S'$\xdf2\x8a\x156V@'
p71
tp72
Rp73
ag10
(g14
S'\xb0\xe42\x90\xe16V@'
p74
tp75
Rp76
asS'target'
p77
(lp78
g10
(g14
S'\x06a*qy(4@'
p79
tp80
Rp81
ag10
(g14
S'\xd6\xcc)\xea\xf8\xf23@'
p82
tp83
Rp84
ag10
(g14
S'\xc8\xfe\xbe\xc3C\xf54@'
p85
tp86
Rp87
ag10
(g14
S'e\xce/\x015\xcf3@'
p88
tp89
Rp90
ag10
(g14
S'\xe5\xd7\n\x8cA\n2@'
p91
tp92
Rp93
ag10
(g14
S'\xb9\xadw\xed]\x001@'
p94
tp95
Rp96
ag10
(g14
S'\x82\x00\xa8h\x17B3@'
p97
tp98
Rp99
ag10
(g14
S'r:Q\xfe?d1@'
p100
tp101
Rp102
ag10
(g14
S'\xb2n/\x8d`\x8b1@'
p103
tp104
Rp105
ag10
(g14
S'\xa2\\\x1d\x94\xa7\xe8-@'
p106
tp107
Rp108
ag10
(g14
S'V\x8f\xc1\xe8\\f3@'
p109
tp110
Rp111
ag10
(g14
S'eiC\xf1j\xf30@'
p112
tp113
Rp114
ag10
(g14
S'\xbb\x1cf"`=1@'
p115
tp116
Rp117
ag10
(g14
S'2\xda`\xd7\xdc\xbe-@'
p118
tp119
Rp120
ag10
(g14
S'\xc3\xf1\xcc\xb8\xef\x0f1@'
p121
tp122
Rp123
ag10
(g14
S'`\x08\x84\xdf\xe1\xe91@'
p124
tp125
Rp126
ag10
(g14
S'}#I\x0e),5@'
p127
tp128
Rp129
ag10
(g14
S'd\xc8\xae0\xcbp1@'
p130
tp131
Rp132
ag10
(g14
S'\x19\xf4\x03b\xbd/2@'
p133
tp134
Rp135
ag10
(g14
S'Q\xf0\x98\x04\xb6D1@'
p136
tp137
Rp138
asssss.