(dp0
S'../Data/sqlite_38.csv'
p1
(dp2
S'../Data/sqlite_76.csv'
p3
(dp4
F0.15
(dp5
S'mmre'
p6
(dp7
S'bellwether'
p8
(lp9
cnumpy.core.multiarray
scalar
p10
(cnumpy
dtype
p11
(S'f8'
p12
I0
I1
tp13
Rp14
(I3
S'<'
p15
NNNI-1
I-1
I0
tp16
bS'i:9\x07\xebTo@'
p17
tp18
Rp19
ag10
(g14
S'\xb2\xf6D$\xadwo@'
p20
tp21
Rp22
ag10
(g14
S'(\xa3fm\x9bCo@'
p23
tp24
Rp25
ag10
(g14
S'S[\x10\xe94Yo@'
p26
tp27
Rp28
ag10
(g14
S'db\\\xd8f\x87o@'
p29
tp30
Rp31
ag10
(g14
S'^\x03\xa5\x0f\xb4uo@'
p32
tp33
Rp34
ag10
(g14
S'\x00\xa7\xbe\xe0\x8eYo@'
p35
tp36
Rp37
ag10
(g14
S'sUl\x0b$[o@'
p38
tp39
Rp40
ag10
(g14
S'|\xa0\xdcx#2o@'
p41
tp42
Rp43
ag10
(g14
S'\xef\xdc2\xadRqo@'
p44
tp45
Rp46
ag10
(g14
S'\xb1\x98~\x9f\xebqo@'
p47
tp48
Rp49
ag10
(g14
S'~l\xfc\x1f\x86Mo@'
p50
tp51
Rp52
ag10
(g14
S'\xde.\x1fE\x7f>o@'
p53
tp54
Rp55
ag10
(g14
S'\x10p&\xd0tXo@'
p56
tp57
Rp58
ag10
(g14
S'p\x18\xea\x94\xb7Oo@'
p59
tp60
Rp61
ag10
(g14
S'\x14\x94\xb44D7o@'
p62
tp63
Rp64
ag10
(g14
S"\x16'\xd93\x04Bo@"
p65
tp66
Rp67
ag10
(g14
S'!\xf9\x00\xc2\x95fo@'
p68
tp69
Rp70
ag10
(g14
S'\x0b\xd5FV\xbbko@'
p71
tp72
Rp73
ag10
(g14
S')#<\xce\xd5mo@'
p74
tp75
Rp76
asS'target'
p77
(lp78
g10
(g14
S'\x0f9\x82\x93\x9a\xfb0@'
p79
tp80
Rp81
ag10
(g14
S'1\xe8.\\*\x122@'
p82
tp83
Rp84
ag10
(g14
S'\xb4H7,4\xf30@'
p85
tp86
Rp87
ag10
(g14
S"'B\xe3\xacW\xd61@"
p88
tp89
Rp90
ag10
(g14
S'\x8b}\xab/\x9623@'
p91
tp92
Rp93
ag10
(g14
S'\xa0\xc7\xbb\x1c\xac\x841@'
p94
tp95
Rp96
ag10
(g14
S'\x1ahf\x9d\xdb10@'
p97
tp98
Rp99
ag10
(g14
S'^\xe1y\x10\xe101@'
p100
tp101
Rp102
ag10
(g14
S'\xec\x08\xb6\xcf\xfa\x870@'
p103
tp104
Rp105
ag10
(g14
S"'uN\x93\x07B1@"
p106
tp107
Rp108
ag10
(g14
S'\x11-\x8b\x1c\xfa\x9b0@'
p109
tp110
Rp111
ag10
(g14
S'=[\x06-\xdc\x9b1@'
p112
tp113
Rp114
ag10
(g14
S'J{\xe7w%\x850@'
p115
tp116
Rp117
ag10
(g14
S'\xe7\xa3|U\xe9A2@'
p118
tp119
Rp120
ag10
(g14
S'\xb5\xde\x0f\xb6}\x1e0@'
p121
tp122
Rp123
ag10
(g14
S'$\x0c9*\xa1C1@'
p124
tp125
Rp126
ag10
(g14
S'\x17\xba\x14\x08/\xf20@'
p127
tp128
Rp129
ag10
(g14
S'\x80w\xff\x11\xad31@'
p130
tp131
Rp132
ag10
(g14
S'o\xde\xa3BI\x0f1@'
p133
tp134
Rp135
ag10
(g14
S';\x93.\x9c\x96b1@'
p136
tp137
Rp138
asssss.