(dp0
S'../Data/sqlite_70.csv'
p1
(dp2
S'../Data/sqlite_73.csv'
p3
(dp4
F0.3
(dp5
S'mmre'
p6
(dp7
S'bellwether'
p8
(lp9
cnumpy.core.multiarray
scalar
p10
(cnumpy
dtype
p11
(S'f8'
p12
I0
I1
tp13
Rp14
(I3
S'<'
p15
NNNI-1
I-1
I0
tp16
bS'\xc24\x7f\xa3oDE@'
p17
tp18
Rp19
ag10
(g14
S'\x85\x08\x05\xe7\xc8eE@'
p20
tp21
Rp22
ag10
(g14
S'a$\xb5\xa6\r@E@'
p23
tp24
Rp25
ag10
(g14
S'\xc9\xec98pWE@'
p26
tp27
Rp28
ag10
(g14
S'\xc4H,*.BE@'
p29
tp30
Rp31
ag10
(g14
S'>\xc6Gg\xa6iE@'
p32
tp33
Rp34
ag10
(g14
S'\xcf~{]\xc0CE@'
p35
tp36
Rp37
ag10
(g14
S'm\xe9x\x9f\xdd5E@'
p38
tp39
Rp40
ag10
(g14
S'\xcew\xc1\x9f\xd0NE@'
p41
tp42
Rp43
ag10
(g14
S'~\xa6P\xbcG=E@'
p44
tp45
Rp46
ag10
(g14
S'U\xf6\t,\x19lE@'
p47
tp48
Rp49
ag10
(g14
S']\xdaI\x0e\xd1>E@'
p50
tp51
Rp52
ag10
(g14
S'\xf7\x0e\x90\x12\xe3VE@'
p53
tp54
Rp55
ag10
(g14
S'\xd73\x1b\xe4\xecHE@'
p56
tp57
Rp58
ag10
(g14
S'\x16U\xe2\xa3\xe6LE@'
p59
tp60
Rp61
ag10
(g14
S'\xae\x88\x1b\x18\xe5:E@'
p62
tp63
Rp64
ag10
(g14
S'\x00\x1e\xc1#\x86<E@'
p65
tp66
Rp67
ag10
(g14
S'@|\x96\xa5}<E@'
p68
tp69
Rp70
ag10
(g14
S'm\xe0\xa9\xfb\x05GE@'
p71
tp72
Rp73
ag10
(g14
S'\xe2:\x95K\x0e_E@'
p74
tp75
Rp76
asS'target'
p77
(lp78
g10
(g14
S'\x9d\xde`uM\xda+@'
p79
tp80
Rp81
ag10
(g14
S'\x13\xedRW\xefk(@'
p82
tp83
Rp84
ag10
(g14
S'B\nj@8n,@'
p85
tp86
Rp87
ag10
(g14
S'-^v\x06\xd3G*@'
p88
tp89
Rp90
ag10
(g14
S'\x8b\xe73f\xeew,@'
p91
tp92
Rp93
ag10
(g14
S'\t3\xd1\x1b\xe8J-@'
p94
tp95
Rp96
ag10
(g14
S'\x80(\x18WPb+@'
p97
tp98
Rp99
ag10
(g14
S'9\x0e~&\xfb\x9b+@'
p100
tp101
Rp102
ag10
(g14
S'\x0c\xb1\xe1\xdbW\xe6+@'
p103
tp104
Rp105
ag10
(g14
S'\xaf\xeaX6\xaa\x02+@'
p106
tp107
Rp108
ag10
(g14
S'>~><\xd8\xb2+@'
p109
tp110
Rp111
ag10
(g14
S'\xbb\xc1b\x03\x11\xa0+@'
p112
tp113
Rp114
ag10
(g14
S'_\x12\r\xd8\xcf\xd7*@'
p115
tp116
Rp117
ag10
(g14
S'\xe9Ua*\x9b\xef,@'
p118
tp119
Rp120
ag10
(g14
S"\xcf\x9c'\xfcX\xbe*@"
p121
tp122
Rp123
ag10
(g14
S'\xbdNs\xb1\xf8++@'
p124
tp125
Rp126
ag10
(g14
S'\x1aX\xd9\xb6\xff\xfb-@'
p127
tp128
Rp129
ag10
(g14
S'\x1c\xc1s\x8447,@'
p130
tp131
Rp132
ag10
(g14
S'\xd8S\xf5\xc7\x97\x06.@'
p133
tp134
Rp135
ag10
(g14
S'\x82u\xb3L\xe79.@'
p136
tp137
Rp138
asssss.