(dp0
S'../Data/sqlite_29.csv'
p1
(dp2
S'../Data/sqlite_83.csv'
p3
(dp4
F0.35
(dp5
S'abs_res'
p6
(dp7
S'bellwether'
p8
(lp9
cnumpy.core.multiarray
scalar
p10
(cnumpy
dtype
p11
(S'f8'
p12
I0
I1
tp13
Rp14
(I3
S'<'
p15
NNNI-1
I-1
I0
tp16
bS'\x1d/\xddD\xc7s<A'
p17
tp18
Rp19
ag10
(g14
S"8\x98'\xca\x1eu<A"
p20
tp21
Rp22
ag10
(g14
S'\x91l\xe7{)t<A'
p23
tp24
Rp25
ag10
(g14
S'\x06\xf3D]ks<A'
p26
tp27
Rp28
ag10
(g14
S'\x85]\x01R\xc5u<A'
p29
tp30
Rp31
ag10
(g14
S'\x11\x83\xc0*\\t<A'
p32
tp33
Rp34
ag10
(g14
S'AQ\xff\xc6\x9at<A'
p35
tp36
Rp37
ag10
(g14
S'?\xe1z\xb41s<A'
p38
tp39
Rp40
ag10
(g14
S'\x01)\\O\x90t<A'
p41
tp42
Rp43
ag10
(g14
S'\xe7\xc3g\x98}s<A'
p44
tp45
Rp46
ag10
(g14
S'\x1b\xcc\x13\xf5\x9dr<A'
p47
tp48
Rp49
ag10
(g14
S'&\xea\xdf\xe87t<A'
p50
tp51
Rp52
ag10
(g14
S'P\xb6\xf3\xdd\xe9s<A'
p53
tp54
Rp55
ag10
(g14
S'\n\xe4^\x13\xa6r<A'
p56
tp57
Rp58
ag10
(g14
S'h;\xdfoTs<A'
p59
tp60
Rp61
ag10
(g14
S'\x90\xa6T\x1c\nt<A'
p62
tp63
Rp64
ag10
(g14
S'>&x\xd0\x11v<A'
p65
tp66
Rp67
ag10
(g14
S'WH\x9a\x92\x83u<A'
p68
tp69
Rp70
ag10
(g14
S'\x9cE\xb6S\xdat<A'
p71
tp72
Rp73
ag10
(g14
S't!i*\x0ev<A'
p74
tp75
Rp76
asS'target'
p77
(lp78
g10
(g14
S'I5^\xbaIz|@'
p79
tp80
Rp81
ag10
(g14
S'E5^\xbaI\xd6{@'
p82
tp83
Rp84
ag10
(g14
S'\x9f\xed|?5#\x7f@'
p85
tp86
Rp87
ag10
(g14
S'\xbf\x1e\x85\xebQ\x06u@'
p88
tp89
Rp90
ag10
(g14
S'4\x08\xac\x1cZDu@'
p91
tp92
Rp93
ag10
(g14
S'\xd1Mb\x10X<~@'
p94
tp95
Rp96
ag10
(g14
S'\x1e\x04V\x0e-nz@'
p97
tp98
Rp99
ag10
(g14
S'\x04\xd5x\xe9&\x8bw@'
p100
tp101
Rp102
ag10
(g14
S'\x82\xebQ\xb8\x1evz@'
p103
tp104
Rp105
ag10
(g14
S'"/\xdd$\x06ov@'
p106
tp107
Rp108
ag10
(g14
S'\xae\xc8v\xbe\x9f5y@'
p109
tp110
Rp111
ag10
(g14
S'E5^\xbaI\xcbv@'
p112
tp113
Rp114
ag10
(g14
S'\xee|?5^\x86w@'
p115
tp116
Rp117
ag10
(g14
S'\xfc\xfd\xd4x\xe9\x18v@'
p118
tp119
Rp120
ag10
(g14
S'\x94A`\xe5\xd0\x86y@'
p121
tp122
Rp123
ag10
(g14
S'\x10\x02+\x87\x16\x86y@'
p124
tp125
Rp126
ag10
(g14
S'\x97\xc2\xf5(\\ov@'
p127
tp128
Rp129
ag10
(g14
S'\x8dA`\xe5\xd0*\x84@'
p130
tp131
Rp132
ag10
(g14
S'm\xe5\xd0"\xdbWu@'
p133
tp134
Rp135
ag10
(g14
S'\x0e\xac\x1cZd\x07v@'
p136
tp137
Rp138
asssss.