(dp0
S'../Data/sqlite_71.csv'
p1
(dp2
S'../Data/sqlite_34.csv'
p3
(dp4
F0.2
(dp5
S'abs_res'
p6
(dp7
S'bellwether'
p8
(lp9
cnumpy.core.multiarray
scalar
p10
(cnumpy
dtype
p11
(S'f8'
p12
I0
I1
tp13
Rp14
(I3
S'<'
p15
NNNI-1
I-1
I0
tp16
bS'\x1c\x85\xeb]DckA'
p17
tp18
Rp19
ag10
(g14
S'8\x8bl\xd3r_kA'
p20
tp21
Rp22
ag10
(g14
S'K\x8d\x97bhakA'
p23
tp24
Rp25
ag10
(g14
S'\x81\xc0\xca\xe9\x8cikA'
p26
tp27
Rp28
ag10
(g14
S'*\x96\xfc*\xa2bkA'
p29
tp30
Rp31
ag10
(g14
S'\xbd \xb0.\x1fUkA'
p32
tp33
Rp34
ag10
(g14
S'\rg\x1f>\xa2mkA'
p35
tp36
Rp37
ag10
(g14
S'\xdc\xa3p1\x07`kA'
p38
tp39
Rp40
ag10
(g14
S'\xe0\xf9~b\xc7WkA'
p41
tp42
Rp43
ag10
(g14
S'\xff\xd4xU\x85SkA'
p44
tp45
Rp46
ag10
(g14
S'\xeb\n\x90\xfb\x9ebkA'
p47
tp48
Rp49
ag10
(g14
S'0z[\xe6\x15QkA'
p50
tp51
Rp52
ag10
(g14
S'\xca\xd9\x87\x8f\xa3[kA'
p53
tp54
Rp55
ag10
(g14
S'/\xdd$\x12\xad_kA'
p56
tp57
Rp58
ag10
(g14
S'J7\x89E\xdaWkA'
p59
tp60
Rp61
ag10
(g14
S'5\xc3\xae\xf0\xffNkA'
p62
tp63
Rp64
ag10
(g14
S'Z,\xf9eSfkA'
p65
tp66
Rp67
ag10
(g14
S'|\xebQ\x84\xc7]kA'
p68
tp69
Rp70
ag10
(g14
S'\xc4K7\xfd\xe6NkA'
p71
tp72
Rp73
ag10
(g14
S'\x00\xe4^\xa3gWkA'
p74
tp75
Rp76
asS'target'
p77
(lp78
g10
(g14
S'\xdb\xa3p=\n\xf7j@'
p79
tp80
Rp81
ag10
(g14
S'\xc6\xf5(\\\x8f\xbei@'
p82
tp83
Rp84
ag10
(g14
S'7\n\xd7\xa3p#j@'
p85
tp86
Rp87
ag10
(g14
S'F`\xe5\xd0"\xb7p@'
p88
tp89
Rp90
ag10
(g14
S'\xc2t\x93\x18\x04bi@'
p91
tp92
Rp93
ag10
(g14
S'hffff\xd2h@'
p94
tp95
Rp96
ag10
(g14
S'\xad\xc6K7\x89\xfdj@'
p97
tp98
Rp99
ag10
(g14
S'[\x8f\xc2\xf5(\x98k@'
p100
tp101
Rp102
ag10
(g14
S'Z\x0e-\xb2\x9d\xbfj@'
p103
tp104
Rp105
ag10
(g14
S's\xbe\x9f\x1a/Qk@'
p106
tp107
Rp108
ag10
(g14
S'\xa8G\xe1z\x14Vm@'
p109
tp110
Rp111
ag10
(g14
S'\xc6 \xb0rh\xddi@'
p112
tp113
Rp114
ag10
(g14
S'\xa4\x9b\xc4 \xb0\xb8l@'
p115
tp116
Rp117
ag10
(g14
S'\x02\xaa\xf1\xd2M\xe8k@'
p118
tp119
Rp120
ag10
(g14
S'63333\xbdl@'
p121
tp122
Rp123
ag10
(g14
S'}?5^\xba\xc3j@'
p124
tp125
Rp126
ag10
(g14
S"'\x89A`\xe5|k@"
p127
tp128
Rp129
ag10
(g14
S'\x16Zd;\xdf\x8bn@'
p130
tp131
Rp132
ag10
(g14
S'\xf9\xf0\x19v\x05Xj@'
p133
tp134
Rp135
ag10
(g14
S':\n\xd7\xa3p9k@'
p136
tp137
Rp138
asssss.