(dp0
S'../Data/sqlite_65.csv'
p1
(dp2
S'../Data/sqlite_89.csv'
p3
(dp4
F0.3
(dp5
S'mmre'
p6
(dp7
S'bellwether'
p8
(lp9
cnumpy.core.multiarray
scalar
p10
(cnumpy
dtype
p11
(S'f8'
p12
I0
I1
tp13
Rp14
(I3
S'<'
p15
NNNI-1
I-1
I0
tp16
bS'\xe3\xe8\xf3\x08\xa85U@'
p17
tp18
Rp19
ag10
(g14
S'J\xe3n\xb7\x909U@'
p20
tp21
Rp22
ag10
(g14
S'A\xe3<\xe9R2U@'
p23
tp24
Rp25
ag10
(g14
S'\xaeR\x9c\x85\x1e.U@'
p26
tp27
Rp28
ag10
(g14
S"\x85\x16g\xa4'&U@"
p29
tp30
Rp31
ag10
(g14
S'C\x1bZ\xeb\xd14U@'
p32
tp33
Rp34
ag10
(g14
S'\x9cL\x1d\x87\x94)U@'
p35
tp36
Rp37
ag10
(g14
S'\xb5\xe4\x16}$+U@'
p38
tp39
Rp40
ag10
(g14
S'u\xd9\xca\xe3\r0U@'
p41
tp42
Rp43
ag10
(g14
S'\x87\xadVY0)U@'
p44
tp45
Rp46
ag10
(g14
S'8j\xc7l\xfb6U@'
p47
tp48
Rp49
ag10
(g14
S'\xc8\xafnl\x19*U@'
p50
tp51
Rp52
ag10
(g14
S'+\xf2\xac\xe7\xee.U@'
p53
tp54
Rp55
ag10
(g14
S'\x9e\xf8\x9a\xa5m?U@'
p56
tp57
Rp58
ag10
(g14
S'\xf4\xc7\xa5>\xc88U@'
p59
tp60
Rp61
ag10
(g14
S'\x1b\x03\xc1\xda\xce8U@'
p62
tp63
Rp64
ag10
(g14
S'\xa0_\xb2\xf296U@'
p65
tp66
Rp67
ag10
(g14
S'\xd7\xb1\xc6\xb7cBU@'
p68
tp69
Rp70
ag10
(g14
S'\xebA\xfe\xc8\n3U@'
p71
tp72
Rp73
ag10
(g14
S'%\xd6\x0b\x06\xe03U@'
p74
tp75
Rp76
asS'target'
p77
(lp78
g10
(g14
S'`\xea\x99\xc2\x1bcJ@'
p79
tp80
Rp81
ag10
(g14
S'f\xac\xf6\xdeb\xdaR@'
p82
tp83
Rp84
ag10
(g14
S'\x95?\x97%g&O@'
p85
tp86
Rp87
ag10
(g14
S'\x8a\xa5<\xacy\x8fS@'
p88
tp89
Rp90
ag10
(g14
S"\x1d'\xc8\xebP\xdfS@"
p91
tp92
Rp93
ag10
(g14
S'p\xae\x8f\xd0\xa4\x1bR@'
p94
tp95
Rp96
ag10
(g14
S'K\x968E4\x08U@'
p97
tp98
Rp99
ag10
(g14
S'7o9k\xfbNR@'
p100
tp101
Rp102
ag10
(g14
S'^\xfd\xfcd\x10\xdfT@'
p103
tp104
Rp105
ag10
(g14
S'\x95,jxR\xa6R@'
p106
tp107
Rp108
ag10
(g14
S'\xab\x06e\xd1\x13\x0eT@'
p109
tp110
Rp111
ag10
(g14
S'\xaa\x86e\x0cI\x1eP@'
p112
tp113
Rp114
ag10
(g14
S'\xceF\xc9\x15ILQ@'
p115
tp116
Rp117
ag10
(g14
S'\xca\x9e0d\x15\xdfM@'
p118
tp119
Rp120
ag10
(g14
S'9\xa53\x93+\xb0N@'
p121
tp122
Rp123
ag10
(g14
S'\xb4|\x84\xa0\xc9-S@'
p124
tp125
Rp126
ag10
(g14
S'b I\xc7TWQ@'
p127
tp128
Rp129
ag10
(g14
S'\x1c^}\x05\x05WM@'
p130
tp131
Rp132
ag10
(g14
S'b<\x87A\xd5uM@'
p133
tp134
Rp135
ag10
(g14
S'w#)\xba\xd3\xe2U@'
p136
tp137
Rp138
asssss.