(dp0
S'../Data/sqlite_58.csv'
p1
(dp2
S'../Data/sqlite_76.csv'
p3
(dp4
F0.15
(dp5
S'mmre'
p6
(dp7
S'bellwether'
p8
(lp9
cnumpy.core.multiarray
scalar
p10
(cnumpy
dtype
p11
(S'f8'
p12
I0
I1
tp13
Rp14
(I3
S'<'
p15
NNNI-1
I-1
I0
tp16
bS'\xed\x9d\x14\xa1\xc7lU@'
p17
tp18
Rp19
ag10
(g14
S'\xc5\xc8#\xccIoU@'
p20
tp21
Rp22
ag10
(g14
S'B\x14r\x18\xe2nU@'
p23
tp24
Rp25
ag10
(g14
S'\xbe\xd9~\x04\xeblU@'
p26
tp27
Rp28
ag10
(g14
S'UB5\xc6qnU@'
p29
tp30
Rp31
ag10
(g14
S'\xc8\x9eB\r&jU@'
p32
tp33
Rp34
ag10
(g14
S'`)A\x96\x03lU@'
p35
tp36
Rp37
ag10
(g14
S'\x85y\xc0gpkU@'
p38
tp39
Rp40
ag10
(g14
S'\x00@P\xf4\x86oU@'
p41
tp42
Rp43
ag10
(g14
S'\x90\x12\xa5\x95\xe1hU@'
p44
tp45
Rp46
ag10
(g14
S'\xc0\x02\x99V<nU@'
p47
tp48
Rp49
ag10
(g14
S'\xf0K\xd7\xd4\x16lU@'
p50
tp51
Rp52
ag10
(g14
S'Y\xa9\xe1\x18\xa1oU@'
p53
tp54
Rp55
ag10
(g14
S'\x81\xcd\x91\xd5\x11nU@'
p56
tp57
Rp58
ag10
(g14
S' W\x9c=fkU@'
p59
tp60
Rp61
ag10
(g14
S'\xe1\xdc\x1c\xc3HpU@'
p62
tp63
Rp64
ag10
(g14
S'J/\xcb\xb2\xb2hU@'
p65
tp66
Rp67
ag10
(g14
S'e\x95<\xdb\x15lU@'
p68
tp69
Rp70
ag10
(g14
S'\xf1p\xcfC_lU@'
p71
tp72
Rp73
ag10
(g14
S',T\xfb\xd6\xb8lU@'
p74
tp75
Rp76
asS'target'
p77
(lp78
g10
(g14
S'\x18\xeeM\x82r\xd51@'
p79
tp80
Rp81
ag10
(g14
S'u\xe2\xf0\xdbV\xd81@'
p82
tp83
Rp84
ag10
(g14
S'\xef\xf8\x197il1@'
p85
tp86
Rp87
ag10
(g14
S'Y\xbb\xe1r\xf1<1@'
p88
tp89
Rp90
ag10
(g14
S'\x89\xbbhPze1@'
p91
tp92
Rp93
ag10
(g14
S'pn\xaa\xe0\x9en1@'
p94
tp95
Rp96
ag10
(g14
S':m\xfe\xffc\r3@'
p97
tp98
Rp99
ag10
(g14
S'\xd6\xb5\xb7\xcd\xbb\x980@'
p100
tp101
Rp102
ag10
(g14
S'\x03\xad=\x1b^\xa30@'
p103
tp104
Rp105
ag10
(g14
S'7\x14\x7f\x031\xf41@'
p106
tp107
Rp108
ag10
(g14
S'\xe1\x88?P\xc3\x121@'
p109
tp110
Rp111
ag10
(g14
S'\xf7\xad\x14\x95w!1@'
p112
tp113
Rp114
ag10
(g14
S'\xe0\xe8W\x8a*R0@'
p115
tp116
Rp117
ag10
(g14
S's\x03\x16\xd0\xbb\xd71@'
p118
tp119
Rp120
ag10
(g14
S'\xd96\x80v\xee\x941@'
p121
tp122
Rp123
ag10
(g14
S't\x03\x10*\x03\xa4.@'
p124
tp125
Rp126
ag10
(g14
S'\xc3\xd99\xbe\x07\xf21@'
p127
tp128
Rp129
ag10
(g14
S'{\x90\x9fl\xc9K2@'
p130
tp131
Rp132
ag10
(g14
S'\x8ab5\x82\x8831@'
p133
tp134
Rp135
ag10
(g14
S'\xaf<Bk]l0@'
p136
tp137
Rp138
asssss.