(dp0
S'../Data/sqlite_64.csv'
p1
(dp2
S'../Data/sqlite_94.csv'
p3
(dp4
F0.25
(dp5
S'mmre'
p6
(dp7
S'bellwether'
p8
(lp9
cnumpy.core.multiarray
scalar
p10
(cnumpy
dtype
p11
(S'f8'
p12
I0
I1
tp13
Rp14
(I3
S'<'
p15
NNNI-1
I-1
I0
tp16
bS'\xd0,M\xb2\ryX@'
p17
tp18
Rp19
ag10
(g14
S'\x00\xb0O^\xe8xX@'
p20
tp21
Rp22
ag10
(g14
S'!\xac\xc6\xeb\x1eyX@'
p23
tp24
Rp25
ag10
(g14
S'\x1eI\xc1\xac\xd3zX@'
p26
tp27
Rp28
ag10
(g14
S'\x19\x88T\xbd\x96zX@'
p29
tp30
Rp31
ag10
(g14
S'\xb6\xd5\xcd\x9a\x9eyX@'
p32
tp33
Rp34
ag10
(g14
S'o\xedJ\xbd4xX@'
p35
tp36
Rp37
ag10
(g14
S'6F\xb0\x08\xe1yX@'
p38
tp39
Rp40
ag10
(g14
S'\xd7\xc1u\x8e\xd3yX@'
p41
tp42
Rp43
ag10
(g14
S'7\x96\x1e\x99\xc9yX@'
p44
tp45
Rp46
ag10
(g14
S'\xbf/\x82K\xd0xX@'
p47
tp48
Rp49
ag10
(g14
S'`\xbfH\xa54zX@'
p50
tp51
Rp52
ag10
(g14
S'/{\xc3\x8d\\yX@'
p53
tp54
Rp55
ag10
(g14
S'\x92\xd2^;\x8azX@'
p56
tp57
Rp58
ag10
(g14
S'\x1f-|Z\xd2xX@'
p59
tp60
Rp61
ag10
(g14
S'\xcfq\xebA0yX@'
p62
tp63
Rp64
ag10
(g14
S'\xc5\xebQ\xf8\xc9yX@'
p65
tp66
Rp67
ag10
(g14
S'\x86;\xffo\x8axX@'
p68
tp69
Rp70
ag10
(g14
S'\x8f\xdf\x99h\x91zX@'
p71
tp72
Rp73
ag10
(g14
S'Qa\x03\xd6\xfayX@'
p74
tp75
Rp76
asS'target'
p77
(lp78
g10
(g14
S'S>\xf7P\x17IT@'
p79
tp80
Rp81
ag10
(g14
S'\x8f\x07\xfak\xdf\xd1Y@'
p82
tp83
Rp84
ag10
(g14
S'\x1c<\xf3[6\xb7N@'
p85
tp86
Rp87
ag10
(g14
S'b\xf2\xa6\xe1\xe2YI@'
p88
tp89
Rp90
ag10
(g14
S'[\x02q\xe3/\x0cS@'
p91
tp92
Rp93
ag10
(g14
S'\x80\x11mH6NS@'
p94
tp95
Rp96
ag10
(g14
S'\xaf\xf9\x80l\n*R@'
p97
tp98
Rp99
ag10
(g14
S'"K\t2\x97[Q@'
p100
tp101
Rp102
ag10
(g14
S'Q\x84az\x9bOR@'
p103
tp104
Rp105
ag10
(g14
S'\x8d\xd9\x0b\x81\xdd\x1dS@'
p106
tp107
Rp108
ag10
(g14
S'\xeeX\xf4\xe1%\xc4R@'
p109
tp110
Rp111
ag10
(g14
S'\xafJ\x00c_oS@'
p112
tp113
Rp114
ag10
(g14
S'\xd8\xce\xbfR@\xe6Q@'
p115
tp116
Rp117
ag10
(g14
S'\xe40 39qL@'
p118
tp119
Rp120
ag10
(g14
S'\xc9p\xa9^\x97\xcfX@'
p121
tp122
Rp123
ag10
(g14
S'\xcf\xf6\\\xdc\x89\nZ@'
p124
tp125
Rp126
ag10
(g14
S'\xa4D\xbbE\xcd6O@'
p127
tp128
Rp129
ag10
(g14
S'*\xaad\xdf\xec\xa0T@'
p130
tp131
Rp132
ag10
(g14
S'\xba\x0f>F6\xd8I@'
p133
tp134
Rp135
ag10
(g14
S'\x9c\xa3U\xd9i\xbaL@'
p136
tp137
Rp138
asssss.