(dp0
S'../Data/sqlite_71.csv'
p1
(dp2
S'../Data/sqlite_19.csv'
p3
(dp4
F0.2
(dp5
S'abs_res'
p6
(dp7
S'bellwether'
p8
(lp9
cnumpy.core.multiarray
scalar
p10
(cnumpy
dtype
p11
(S'f8'
p12
I0
I1
tp13
Rp14
(I3
S'<'
p15
NNNI-1
I-1
I0
tp16
bS'\xd7\xf7Sk\x86[kA'
p17
tp18
Rp19
ag10
(g14
S'8O\xd4o\xda[kA'
p20
tp21
Rp22
ag10
(g14
S'l\x91\xed@\xea`kA'
p23
tp24
Rp25
ag10
(g14
S'!>\xc3\xe6 bkA'
p26
tp27
Rp28
ag10
(g14
S'<\x17\x92\x96\x01XkA'
p29
tp30
Rp31
ag10
(g14
S'\xf47B\xe5&YkA'
p32
tp33
Rp34
ag10
(g14
S'k\xbct\xa7\xc7dkA'
p35
tp36
Rp37
ag10
(g14
S'\xa8\x1cZ$0ZkA'
p38
tp39
Rp40
ag10
(g14
S'\x17\x83\xc0\xc6\xceekA'
p41
tp42
Rp43
ag10
(g14
S'z\x86]\x91\x07ekA'
p44
tp45
Rp46
ag10
(g14
S'#\x94\xd174TkA'
p47
tp48
Rp49
ag10
(g14
S'\xf9S\xe3eIRkA'
p50
tp51
Rp52
ag10
(g14
S'\xbf\xd9\x87[&bkA'
p53
tp54
Rp55
ag10
(g14
S'$Zd\x87eikA'
p56
tp57
Rp58
ag10
(g14
S'u\xbe\x9f\x92\xe0YkA'
p59
tp60
Rp61
ag10
(g14
S'*\x85\xeb\x95MdkA'
p62
tp63
Rp64
ag10
(g14
S'\xb2\x9d\xef\x7f\x96^kA'
p65
tp66
Rp67
ag10
(g14
S'\xbb\x1e\x85g\xf0TkA'
p68
tp69
Rp70
ag10
(g14
S'\xfa\xd4x\x95-QkA'
p71
tp72
Rp73
ag10
(g14
S'\xe8\xd0"\x87fckA'
p74
tp75
Rp76
asS'target'
p77
(lp78
g10
(g14
S'\xac\x9d\xef\xa7\xc6\xb3W@'
p79
tp80
Rp81
ag10
(g14
S'\x19\x85\xebQ\xb8\x8aU@'
p82
tp83
Rp84
ag10
(g14
S'\x87\xc0\xca\xa1E\xd6U@'
p85
tp86
Rp87
ag10
(g14
S'>3333\x9bV@'
p88
tp89
Rp90
ag10
(g14
S'\xf8\xd2Mb\x10\x90\\@'
p91
tp92
Rp93
ag10
(g14
S'th\x91\xed|\xdfV@'
p94
tp95
Rp96
ag10
(g14
S'$/\xdd$\x06\xf1X@'
p97
tp98
Rp99
ag10
(g14
S'\xc8\xf5(\\\x8f\xb2X@'
p100
tp101
Rp102
ag10
(g14
S"'\xd9\xce\xf7S\xc3V@"
p103
tp104
Rp105
ag10
(g14
S'S\xe3\xa5\x9b\xc4\xe4U@'
p106
tp107
Rp108
ag10
(g14
S'\xa9\x1a/\xdd$\xd6W@'
p109
tp110
Rp111
ag10
(g14
S'\xa0C\x8bl\xe7\xc3W@'
p112
tp113
Rp114
ag10
(g14
S'\xee&1\x08\xac\xb0V@'
p115
tp116
Rp117
ag10
(g14
S'Xd;\xdfO\xbdV@'
p118
tp119
Rp120
ag10
(g14
S'\tV\x0e-\xb2\xc5W@'
p121
tp122
Rp123
ag10
(g14
S'\xe6z\x14\xaeG\xc1U@'
p124
tp125
Rp126
ag10
(g14
S'<\x89A`\xe5 W@'
p127
tp128
Rp129
ag10
(g14
S'j\x10X9\xb4xV@'
p130
tp131
Rp132
ag10
(g14
S'\xba\x1cZd;\x8bW@'
p133
tp134
Rp135
ag10
(g14
S'\xeb&1\x08\xacTX@'
p136
tp137
Rp138
asssss.