(dp0
S'../Data/sqlite_75.csv'
p1
(dp2
S'../Data/sqlite_94.csv'
p3
(dp4
F0.05
(dp5
S'mmre'
p6
(dp7
S'bellwether'
p8
(lp9
cnumpy.core.multiarray
scalar
p10
(cnumpy
dtype
p11
(S'f8'
p12
I0
I1
tp13
Rp14
(I3
S'<'
p15
NNNI-1
I-1
I0
tp16
bS'\xb6M\x89\xf3j4X@'
p17
tp18
Rp19
ag10
(g14
S'q\xdcl}\xa83X@'
p20
tp21
Rp22
ag10
(g14
S'\x00fT\xc1\x0b4X@'
p23
tp24
Rp25
ag10
(g14
S'V$_\x8f\xf83X@'
p26
tp27
Rp28
ag10
(g14
S'W\xa34\xb9\xde3X@'
p29
tp30
Rp31
ag10
(g14
S'\xaa1\t\xcc13X@'
p32
tp33
Rp34
ag10
(g14
S'a+\x80\x1a\x104X@'
p35
tp36
Rp37
ag10
(g14
S'\xb9k7\x19\xcf3X@'
p38
tp39
Rp40
ag10
(g14
S'wOq\xfe\x9f3X@'
p41
tp42
Rp43
ag10
(g14
S'*\xc7S\xb6\x193X@'
p44
tp45
Rp46
ag10
(g14
S'\xc0G\xbeJ\xa93X@'
p47
tp48
Rp49
ag10
(g14
S'\x19#\xda\x0c*4X@'
p50
tp51
Rp52
ag10
(g14
S'9\xf7\n\x1e|3X@'
p53
tp54
Rp55
ag10
(g14
S'\xad\x07\xb2"\xdc2X@'
p56
tp57
Rp58
ag10
(g14
S'\xc1wH\x17\x144X@'
p59
tp60
Rp61
ag10
(g14
S'\xbb\xd6%\\\xc13X@'
p62
tp63
Rp64
ag10
(g14
S'\xcei\xc7\xd9\xfb3X@'
p65
tp66
Rp67
ag10
(g14
S'\xc9\xa9:\xc7H4X@'
p68
tp69
Rp70
ag10
(g14
S'\xf1~Tdo3X@'
p71
tp72
Rp73
ag10
(g14
S'&O\xb6\xa7\xfe3X@'
p74
tp75
Rp76
asS'target'
p77
(lp78
g10
(g14
S'\xe7_\xe5z\xec\x04D@'
p79
tp80
Rp81
ag10
(g14
S']\xab\xad\x90M\xd6U@'
p82
tp83
Rp84
ag10
(g14
S'z)\x85\xe9i\xc1A@'
p85
tp86
Rp87
ag10
(g14
S'\x11,<\x9f\x1e\xe3F@'
p88
tp89
Rp90
ag10
(g14
S'=\x88\xa1\x91\x18\xafH@'
p91
tp92
Rp93
ag10
(g14
S'E\xdbS\xfc\x04\xd2X@'
p94
tp95
Rp96
ag10
(g14
S'A!\xfcozsP@'
p97
tp98
Rp99
ag10
(g14
S'\x93]~u\xde\x99E@'
p100
tp101
Rp102
ag10
(g14
S'\xfa\xc1r\x81\xa8\x7fM@'
p103
tp104
Rp105
ag10
(g14
S'~p\xc3\xd0\xc19Y@'
p106
tp107
Rp108
ag10
(g14
S'\xe0p\x87\xca\xf2]U@'
p109
tp110
Rp111
ag10
(g14
S'ie\xba\xae\xac\x88V@'
p112
tp113
Rp114
ag10
(g14
S'[1\xbd\xcaQ\xfeE@'
p115
tp116
Rp117
ag10
(g14
S'\xf3>\xdd\x13\xee\xd0_@'
p118
tp119
Rp120
ag10
(g14
S'8\x03\xdd\xc0\xf2\x8c@@'
p121
tp122
Rp123
ag10
(g14
S'\xcex\xaf!\xb5\xbcE@'
p124
tp125
Rp126
ag10
(g14
S'\xe2`\xaa|\xf3#C@'
p127
tp128
Rp129
ag10
(g14
S'rL\x8a\xe7Z\xefS@'
p130
tp131
Rp132
ag10
(g14
S'\x01n\x99\xec\xdfeX@'
p133
tp134
Rp135
ag10
(g14
S'\x1e\xdc\xaa\xd1\xc2\xf3F@'
p136
tp137
Rp138
asssss.