(dp0
S'../Data/sqlite_34.csv'
p1
(dp2
S'../Data/sqlite_32.csv'
p3
(dp4
F0.2
(dp5
S'abs_res'
p6
(dp7
S'bellwether'
p8
(lp9
cnumpy.core.multiarray
scalar
p10
(cnumpy
dtype
p11
(S'f8'
p12
I0
I1
tp13
Rp14
(I3
S'<'
p15
NNNI-1
I-1
I0
tp16
bS'\xa9\x1cZ\x84\x03dBA'
p17
tp18
Rp19
ag10
(g14
S'\xdck.\x04\xecbBA'
p20
tp21
Rp22
ag10
(g14
S'&\xdb\xf9\xde\x00dBA'
p23
tp24
Rp25
ag10
(g14
S'H|\x865icBA'
p26
tp27
Rp28
ag10
(g14
S'+x0wSdBA'
p29
tp30
Rp31
ag10
(g14
S'\x01r\xaf\xb1\xd8aBA'
p32
tp33
Rp34
ag10
(g14
S'\xf9\xd2M*(dBA'
p35
tp36
Rp37
ag10
(g14
S'\xfa(\\\x875dBA'
p38
tp39
Rp40
ag10
(g14
S'\xb4\xf3\xfdt\xc4bBA'
p41
tp42
Rp43
ag10
(g14
S'\xd2>|\x16TdBA'
p44
tp45
Rp46
ag10
(g14
S'\xd0\xbf\x11\x82-aBA'
p47
tp48
Rp49
ag10
(g14
S'w\x05\xc8M\x01cBA'
p50
tp51
Rp52
ag10
(g14
S'\x0bIS\x92\x01cBA'
p53
tp54
Rp55
ag10
(g14
S'\x8bl\xe7\x0bUdBA'
p56
tp57
Rp58
ag10
(g14
S'1\x87\x16\x89\xc8bBA'
p59
tp60
Rp61
ag10
(g14
S'<\n\xd7\xc3\x9d`BA'
p62
tp63
Rp64
ag10
(g14
S'P\xfd\x1b)NcBA'
p65
tp66
Rp67
ag10
(g14
S'|\xe9&\x99\xe5`BA'
p68
tp69
Rp70
ag10
(g14
S'\x0b\x02+\xa7bbBA'
p71
tp72
Rp73
ag10
(g14
S'\xd4\xe8m\x89MbBA'
p74
tp75
Rp76
asS'target'
p77
(lp78
g10
(g14
S'fffff\xe1\xd4@'
p79
tp80
Rp81
ag10
(g14
S'dfff&1\xd5@'
p82
tp83
Rp84
ag10
(g14
S'\x96\x99\x99\x99Y\x89\xd5@'
p85
tp86
Rp87
ag10
(g14
S'4333\x93m\xd5@'
p88
tp89
Rp90
ag10
(g14
S'\x07\x00\x00\x00\x80\x87\xd4@'
p91
tp92
Rp93
ag10
(g14
S'\x06\x00\x00\x00\x80\x8f\xd5@'
p94
tp95
Rp96
ag10
(g14
S'`ffffk\xd4@'
p97
tp98
Rp99
ag10
(g14
S',333\x93\xaf\xd5@'
p100
tp101
Rp102
ag10
(g14
S'fffff\x97\xd5@'
p103
tp104
Rp105
ag10
(g14
S'\xd2\xcc\xcc\xcc,S\xd5@'
p106
tp107
Rp108
ag10
(g14
S'\xd0\xcc\xcc\xcc<\xc0\xd7@'
p109
tp110
Rp111
ag10
(g14
S'3333sF\xd6@'
p112
tp113
Rp114
ag10
(g14
S'8333\xb3\xe3\xd4@'
p115
tp116
Rp117
ag10
(g14
S'\xd2\xcc\xcc\xcc\xac\x99\xd6@'
p118
tp119
Rp120
ag10
(g14
S'cfff&\xd1\xd4@'
p121
tp122
Rp123
ag10
(g14
S'*333\xb3\x05\xde@'
p124
tp125
Rp126
ag10
(g14
S'dfff&\xe7\xd5@'
p127
tp128
Rp129
ag10
(g14
S'ffff\xc6\xee\xdf@'
p130
tp131
Rp132
ag10
(g14
S'bfff\x16\xb4\xda@'
p133
tp134
Rp135
ag10
(g14
S'\x02\x00\x00\x00\xa0\xe8\xd4@'
p136
tp137
Rp138
asssss.