(dp0
S'../Data/sqlite_66.csv'
p1
(dp2
S'../Data/sqlite_51.csv'
p3
(dp4
F0.15
(dp5
S'abs_res'
p6
(dp7
S'bellwether'
p8
(lp9
cnumpy.core.multiarray
scalar
p10
(cnumpy
dtype
p11
(S'f8'
p12
I0
I1
tp13
Rp14
(I3
S'<'
p15
NNNI-1
I-1
I0
tp16
bS'x#\x94\x11\xf0H"A'
p17
tp18
Rp19
ag10
(g14
S'`\x9e\xa8\xff\xe1I"A'
p20
tp21
Rp22
ag10
(g14
S'\x11X94\x11I"A'
p23
tp24
Rp25
ag10
(g14
S'\x14<\x98\xa7-J"A'
p26
tp27
Rp28
ag10
(g14
S';\x19\xbd\xed\x00I"A'
p29
tp30
Rp31
ag10
(g14
S'}\xcd\x85$\x93H"A'
p32
tp33
Rp34
ag10
(g14
S'\x98\'\xea\x9f\x9aH"A'
p35
tp36
Rp37
ag10
(g14
S'c\xc9/VXI"A'
p38
tp39
Rp40
ag10
(g14
S'\xe8\xa7\xc6\x0btH"A'
p41
tp42
Rp43
ag10
(g14
S'\xb6\x00\xb9\x17\x8bI"A'
p44
tp45
Rp46
ag10
(g14
S'\x87\xc0\xca\xa1%I"A'
p47
tp48
Rp49
ag10
(g14
S'\x89l\xe7{9I"A'
p50
tp51
Rp52
ag10
(g14
S'\x91PF/@I"A'
p53
tp54
Rp55
ag10
(g14
S'`\xf4\xb6\xec\xe5H"A'
p56
tp57
Rp58
ag10
(g14
S'\xe9Q\xb8\xde&I"A'
p59
tp60
Rp61
ag10
(g14
S'7`\xe5\x10\x1cI"A'
p62
tp63
Rp64
ag10
(g14
S'O\x8d\x97\xae\xdcH"A'
p65
tp66
Rp67
ag10
(g14
S'\xa3\x9b\xc4\xa0\xe0I"A'
p68
tp69
Rp70
ag10
(g14
S'\xb6\xf3\xfd\xd4\xe8I"A'
p71
tp72
Rp73
ag10
(g14
S'\xe8mY\xeb]H"A'
p74
tp75
Rp76
asS'target'
p77
(lp78
g10
(g14
S'Yd;\xdfO\xedB@'
p79
tp80
Rp81
ag10
(g14
S'p;\xdfO\x8d\x97B@'
p82
tp83
Rp84
ag10
(g14
S'\xc0\xca\xa1E\xb6SD@'
p85
tp86
Rp87
ag10
(g14
S'\xcf\xcc\xcc\xcc\xcc\xccA@'
p88
tp89
Rp90
ag10
(g14
S'\xf2|?5^:?@'
p91
tp92
Rp93
ag10
(g14
S'&\x87\x16\xd9\xce\xb7<@'
p94
tp95
Rp96
ag10
(g14
S'\x1c\xdb\xf9~jl>@'
p97
tp98
Rp99
ag10
(g14
S'\xbc\x9f\x1a/\xdd\xa4@@'
p100
tp101
Rp102
ag10
(g14
S'83333\xdbB@'
p103
tp104
Rp105
ag10
(g14
S'\x94\x16\xd9\xce\xf7#I@'
p106
tp107
Rp108
ag10
(g14
S'{?5^\xba\tA@'
p109
tp110
Rp111
ag10
(g14
S'\xec&1\x08\xacl@@'
p112
tp113
Rp114
ag10
(g14
S'<5^\xbaI\xdcC@'
p115
tp116
Rp117
ag10
(g14
S'I5^\xbaI\x1cB@'
p118
tp119
Rp120
ag10
(g14
S'`\xbaI\x0c\x02{C@'
p121
tp122
Rp123
ag10
(g14
S'\x18-\xb2\x9d\xef\x07A@'
p124
tp125
Rp126
ag10
(g14
S'\xda\xce\xf7S\xe3\xa5B@'
p127
tp128
Rp129
ag10
(g14
S'xh\x91\xed|\x8fC@'
p130
tp131
Rp132
ag10
(g14
S'\xfb(\\\x8f\xc2\x85C@'
p133
tp134
Rp135
ag10
(g14
S'\x17/\xdd$\x06q@@'
p136
tp137
Rp138
asssss.