(dp0
S'../Data/sqlite_37.csv'
p1
(dp2
S'../Data/sqlite_23.csv'
p3
(dp4
F0.35
(dp5
S'abs_res'
p6
(dp7
S'bellwether'
p8
(lp9
cnumpy.core.multiarray
scalar
p10
(cnumpy
dtype
p11
(S'f8'
p12
I0
I1
tp13
Rp14
(I3
S'<'
p15
NNNI-1
I-1
I0
tp16
bS'\xd1Mb\x10X)a@'
p17
tp18
Rp19
ag10
(g14
S'\xd3Mb\x10X\xef`@'
p20
tp21
Rp22
ag10
(g14
S'z?5^\xba\x0fa@'
p23
tp24
Rp25
ag10
(g14
S'N\x8d\x97n\x12\x15a@'
p26
tp27
Rp28
ag10
(g14
S'\x01\xd5x\xe9&-a@'
p29
tp30
Rp31
ag10
(g14
S')1\x08\xac\x1c2a@'
p32
tp33
Rp34
ag10
(g14
S'\xf5\xa7\xc6K7\x07a@'
p35
tp36
Rp37
ag10
(g14
S'\x07\xd7\xa3p=:a@'
p38
tp39
Rp40
ag10
(g14
S'\x90\xc2\xf5(\\\x1ba@'
p41
tp42
Rp43
ag10
(g14
S'/\x08\xac\x1cZNa@'
p44
tp45
Rp46
ag10
(g14
S'\x1d\x85\xebQ\xb8:a@'
p47
tp48
Rp49
ag10
(g14
S'K\xe1z\x14\xae\x19a@'
p50
tp51
Rp52
ag10
(g14
S'G\xe1z\x14\xae\xb9`@'
p53
tp54
Rp55
ag10
(g14
S'|?5^\xba#a@'
p56
tp57
Rp58
ag10
(g14
S'\xa0E\xb6\xf3\xfd\xfe`@'
p59
tp60
Rp61
ag10
(g14
S'\xff*\x87\x16\xd9\xf2`@'
p62
tp63
Rp64
ag10
(g14
S'\xd7\xf9~j\xbc\xdc`@'
p65
tp66
Rp67
ag10
(g14
S'!\x85\xebQ\xb8 a@'
p68
tp69
Rp70
ag10
(g14
S'\r-\xb2\x9d\xef!a@'
p71
tp72
Rp73
ag10
(g14
S'\xd7x\xe9&18a@'
p74
tp75
Rp76
asS'target'
p77
(lp78
g10
(g14
S'\xde\xa3p=\nw8@'
p79
tp80
Rp81
ag10
(g14
S'\xdb\xf9~j\xbc\xf47@'
p82
tp83
Rp84
ag10
(g14
S'\xf2(\\\x8f\xc25:@'
p85
tp86
Rp87
ag10
(g14
S'@\xe1z\x14\xaeG<@'
p88
tp89
Rp90
ag10
(g14
S'\xf4|?5^\xca7@'
p91
tp92
Rp93
ag10
(g14
S'\xa2p=\n\xd7s<@'
p94
tp95
Rp96
ag10
(g14
S'X\x0e-\xb2\x9d\x8f8@'
p97
tp98
Rp99
ag10
(g14
S'Gb\x10X9D7@'
p100
tp101
Rp102
ag10
(g14
S'\x0c+\x87\x16\xd9\xee7@'
p103
tp104
Rp105
ag10
(g14
S'G5^\xbaI\\9@'
p106
tp107
Rp108
ag10
(g14
S'\x0b-\xb2\x9d\xef\xb76@'
p109
tp110
Rp111
ag10
(g14
S'E`\xe5\xd0"\x8b9@'
p112
tp113
Rp114
ag10
(g14
S'\xe7z\x14\xaeG\xa18@'
p115
tp116
Rp117
ag10
(g14
S'\xf4\xd2Mb\x10\xb8:@'
p118
tp119
Rp120
ag10
(g14
S'#1\x08\xac\x1c\xda8@'
p121
tp122
Rp123
ag10
(g14
S'v\x14\xaeG\xe1\xba9@'
p124
tp125
Rp126
ag10
(g14
S'\xf4\xa9\xf1\xd2M\xa29@'
p127
tp128
Rp129
ag10
(g14
S'\x8fC\x8bl\xe7[7@'
p130
tp131
Rp132
ag10
(g14
S'\x18\x04V\x0e-"8@'
p133
tp134
Rp135
ag10
(g14
S'.\x08\xac\x1cZ\xf47@'
p136
tp137
Rp138
asssss.