(dp0
S'../Data/sqlite_57.csv'
p1
(dp2
S'../Data/sqlite_31.csv'
p3
(dp4
F0.3
(dp5
S'abs_res'
p6
(dp7
S'bellwether'
p8
(lp9
cnumpy.core.multiarray
scalar
p10
(cnumpy
dtype
p11
(S'f8'
p12
I0
I1
tp13
Rp14
(I3
S'<'
p15
NNNI-1
I-1
I0
tp16
bS'\xa6\x9b\xc4|\xea`dA'
p17
tp18
Rp19
ag10
(g14
S'`\xe5\xd0Z\x0fRdA'
p20
tp21
Rp22
ag10
(g14
S'\xe8\xfb\xa9\x95\x16jdA'
p23
tp24
Rp25
ag10
(g14
S'\x87j\xbcTgZdA'
p26
tp27
Rp28
ag10
(g14
S'%\x06\x81\x1d\xca[dA'
p29
tp30
Rp31
ag10
(g14
S'c\x8f\xc2q\tfdA'
p32
tp33
Rp34
ag10
(g14
S'G7\x89\xb1\x9fUdA'
p35
tp36
Rp37
ag10
(g14
S'\xc3 \xb0\xcep[dA'
p38
tp39
Rp40
ag10
(g14
S'\x03+\x87.\xa6UdA'
p41
tp42
Rp43
ag10
(g14
S'\xdcO\x8d#\x9fMdA'
p44
tp45
Rp46
ag10
(g14
S'\xb3\xc8vN\x9cUdA'
p47
tp48
Rp49
ag10
(g14
S'\x14\xd9\xce\x0b>[dA'
p50
tp51
Rp52
ag10
(g14
S'\x93\x18\x04\x1e\xe2UdA'
p53
tp54
Rp55
ag10
(g14
S'\xa0\x99\x999\xb4[dA'
p56
tp57
Rp58
ag10
(g14
S'!Zd\x136[dA'
p59
tp60
Rp61
ag10
(g14
S'iff.CadA'
p62
tp63
Rp64
ag10
(g14
S'\xe6\xfb\xa9I\x8dadA'
p65
tp66
Rp67
ag10
(g14
S'5\xdfO\xc1nfdA'
p68
tp69
Rp70
ag10
(g14
S'\xe5\xd0"w\x18UdA'
p71
tp72
Rp73
ag10
(g14
S'>`\xe5\x08\x14^dA'
p74
tp75
Rp76
asS'target'
p77
(lp78
g10
(g14
S'\xc1t\x93\x18\x04\xeaa@'
p79
tp80
Rp81
ag10
(g14
S'k\xe7\xfb\xa9\xf1\xee`@'
p82
tp83
Rp84
ag10
(g14
S'a\x91\xed|?1b@'
p85
tp86
Rp87
ag10
(g14
S'k\xbct\x93\x18hb@'
p88
tp89
Rp90
ag10
(g14
S'$\xdb\xf9~j\xc0`@'
p91
tp92
Rp93
ag10
(g14
S'\x1eZd;\xdf\x17b@'
p94
tp95
Rp96
ag10
(g14
S'|j\xbct\x938a@'
p97
tp98
Rp99
ag10
(g14
S'\xdcO\x8d\x97n\x0ec@'
p100
tp101
Rp102
ag10
(g14
S'\x8aA`\xe5\xd0\xdcb@'
p103
tp104
Rp105
ag10
(g14
S'\xf6(\\\x8f\xc2#a@'
p106
tp107
Rp108
ag10
(g14
S'\xe2\xfb\xa9\xf1\xd2sa@'
p109
tp110
Rp111
ag10
(g14
S'E\x0c\x02+\x87\x14b@'
p112
tp113
Rp114
ag10
(g14
S'\x18\xd9\xce\xf7S{a@'
p115
tp116
Rp117
ag10
(g14
S'A\x8bl\xe7\xfb\x89b@'
p118
tp119
Rp120
ag10
(g14
S'^\x8f\xc2\xf5(\x98a@'
p121
tp122
Rp123
ag10
(g14
S'c\x10X9\xb4\xc6a@'
p124
tp125
Rp126
ag10
(g14
S'Q7\x89A`ga@'
p127
tp128
Rp129
ag10
(g14
S'\xae\xf1\xd2Mb\x18`@'
p130
tp131
Rp132
ag10
(g14
S'\xd3"\xdb\xf9~\xb6a@'
p133
tp134
Rp135
ag10
(g14
S'Y\xbaI\x0c\x02\x9ba@'
p136
tp137
Rp138
asssss.