(dp0
S'../Data/sqlite_21.csv'
p1
(dp2
S'../Data/sqlite_89.csv'
p3
(dp4
F0.15
(dp5
S'mmre'
p6
(dp7
S'bellwether'
p8
(lp9
cnumpy.core.multiarray
scalar
p10
(cnumpy
dtype
p11
(S'f8'
p12
I0
I1
tp13
Rp14
(I3
S'<'
p15
NNNI-1
I-1
I0
tp16
bS'\x14)d\x08\x96\x03;@'
p17
tp18
Rp19
ag10
(g14
S'\xf5\x1a\x97W;\xc7:@'
p20
tp21
Rp22
ag10
(g14
S'(\xa3UT\xb2\\;@'
p23
tp24
Rp25
ag10
(g14
S'\xaf\xccq\xda\x18\xe8:@'
p26
tp27
Rp28
ag10
(g14
S'\xf3\xc9\xefGY\xc5:@'
p29
tp30
Rp31
ag10
(g14
S'\x8f\xeb\xe1\x98\xcd\xf5:@'
p32
tp33
Rp34
ag10
(g14
S'\xd6\xe1Q\xc4-\xca:@'
p35
tp36
Rp37
ag10
(g14
S'sT:l|\x10;@'
p38
tp39
Rp40
ag10
(g14
S'tJ\x8a7\xa2D:@'
p41
tp42
Rp43
ag10
(g14
S"\xebc2'\t<;@"
p44
tp45
Rp46
ag10
(g14
S'\x85\xfe\x0cf)";@'
p47
tp48
Rp49
ag10
(g14
S'5\x01nJ\xcc\xdd:@'
p50
tp51
Rp52
ag10
(g14
S'l\x81Cb}e;@'
p53
tp54
Rp55
ag10
(g14
S'G\x7f\xc6w:g:@'
p56
tp57
Rp58
ag10
(g14
S'\xb6\n\t\xb5Y\x1d;@'
p59
tp60
Rp61
ag10
(g14
S'Zo^\xca\x9f\x00;@'
p62
tp63
Rp64
ag10
(g14
S'\xd6r~g\x10\x01;@'
p65
tp66
Rp67
ag10
(g14
S'\xc2\xaf\x17J-\x84;@'
p68
tp69
Rp70
ag10
(g14
S'841l]\xc2:@'
p71
tp72
Rp73
ag10
(g14
S'\xc7\x1cb\tX\xe8:@'
p74
tp75
Rp76
asS'target'
p77
(lp78
g10
(g14
S'\xf5\xec\xfd\x7f\xf5LR@'
p79
tp80
Rp81
ag10
(g14
S'\xf1\x07\x8d\xb2\xacWO@'
p82
tp83
Rp84
ag10
(g14
S'\xce2*\xc6vyK@'
p85
tp86
Rp87
ag10
(g14
S'\xcf\xcd@\x9d$\xc1U@'
p88
tp89
Rp90
ag10
(g14
S'wv\x08\x17\xf0\x82R@'
p91
tp92
Rp93
ag10
(g14
S'w\xc9n\x07c\xdcM@'
p94
tp95
Rp96
ag10
(g14
S'\xbe\xb0fT\xcf\xfdR@'
p97
tp98
Rp99
ag10
(g14
S'^N\x18\xaaofM@'
p100
tp101
Rp102
ag10
(g14
S'v\x1f\xcc\xeac\xb7S@'
p103
tp104
Rp105
ag10
(g14
S'\xba\x01h\t\x0b,J@'
p106
tp107
Rp108
ag10
(g14
S']\xda\x08\xaanRR@'
p109
tp110
Rp111
ag10
(g14
S'/\x16\xc3d\xb9\xcfT@'
p112
tp113
Rp114
ag10
(g14
S'O\xb0\x18V\x18+O@'
p115
tp116
Rp117
ag10
(g14
S'1\xbf5\xc24nU@'
p118
tp119
Rp120
ag10
(g14
S'\xc6\xc1\xde\xd7\x1a\xffN@'
p121
tp122
Rp123
ag10
(g14
S'g\xa8\xc0\xc4\x99\xa9P@'
p124
tp125
Rp126
ag10
(g14
S'\xd7\xbeR\xc1\xbc\xadQ@'
p127
tp128
Rp129
ag10
(g14
S'\x1a6\xe5h\xdf\xbeJ@'
p130
tp131
Rp132
ag10
(g14
S'\x02>CM\xf9\xf3X@'
p133
tp134
Rp135
ag10
(g14
S'S\xa0*\x0ba-T@'
p136
tp137
Rp138
asssss.