(dp0
S'../Data/sqlite_60.csv'
p1
(dp2
S'../Data/sqlite_37.csv'
p3
(dp4
F0.25
(dp5
S'abs_res'
p6
(dp7
S'bellwether'
p8
(lp9
cnumpy.core.multiarray
scalar
p10
(cnumpy
dtype
p11
(S'f8'
p12
I0
I1
tp13
Rp14
(I3
S'<'
p15
NNNI-1
I-1
I0
tp16
bS'\\\xe5\xd0\x02\x90beA'
p17
tp18
Rp19
ag10
(g14
S'\x7fy\xa2\xc2\x01eeA'
p20
tp21
Rp22
ag10
(g14
S'\x13 \xf7V\x83UeA'
p23
tp24
Rp25
ag10
(g14
S'\xe2$\x06\xa9ybeA'
p26
tp27
Rp28
ag10
(g14
S'x\xa2\xfe\xf9\xc3feA'
p29
tp30
Rp31
ag10
(g14
S'\xc9v\xbe;\xf9YeA'
p32
tp33
Rp34
ag10
(g14
S'\xae+@\x0e\x8feeA'
p35
tp36
Rp37
ag10
(g14
S'\x81\x16\xd9:\xed[eA'
p38
tp39
Rp40
ag10
(g14
S'8\xdfO)x`eA'
p41
tp42
Rp43
ag10
(g14
S'\x99Rq\x06\xe3XeA'
p44
tp45
Rp46
ag10
(g14
S'\xfa\x8dPVeZeA'
p47
tp48
Rp49
ag10
(g14
S'\x14\xd7\xa3\x1c>[eA'
p50
tp51
Rp52
ag10
(g14
S'<\xc3\xae\xd4AaeA'
p53
tp54
Rp55
ag10
(g14
S'U\x1d\x13p\x1a\\eA'
p56
tp57
Rp58
ag10
(g14
S'\xd8\xce\xf7\xbb8`eA'
p59
tp60
Rp61
ag10
(g14
S'\x19\xa1\x8c\xca\x9cXeA'
p62
tp63
Rp64
ag10
(g14
S'+\x87\x16}QeeA'
p65
tp66
Rp67
ag10
(g14
S'$\xb0r\xa4\xd2jeA'
p68
tp69
Rp70
ag10
(g14
S'\x1e\xf7\x9a\xc3OReA'
p71
tp72
Rp73
ag10
(g14
S'i\x91\xed`,`eA'
p74
tp75
Rp76
asS'target'
p77
(lp78
g10
(g14
S'\xc9\x9f\x1a/\xdd\xd4N@'
p79
tp80
Rp81
ag10
(g14
S'Kb\x10X9\xb4M@'
p82
tp83
Rp84
ag10
(g14
S'\xc3t\x93\x18\x04\x16N@'
p85
tp86
Rp87
ag10
(g14
S'\xec\xa7\xc6K79M@'
p88
tp89
Rp90
ag10
(g14
S'p?5^\xba\xb1N@'
p91
tp92
Rp93
ag10
(g14
S'\x1bZd;\xdfON@'
p94
tp95
Rp96
ag10
(g14
S'\x0c\xd7\xa3p=*L@'
p97
tp98
Rp99
ag10
(g14
S'\xda\xce\xf7S\xe3\xf5L@'
p100
tp101
Rp102
ag10
(g14
S'\xb7 \xb0rh\xf1M@'
p103
tp104
Rp105
ag10
(g14
S'\x11\x04V\x0e-jL@'
p106
tp107
Rp108
ag10
(g14
S'\xbfI\x0c\x02+\x7fL@'
p109
tp110
Rp111
ag10
(g14
S'nh\x91\xed|\x07N@'
p112
tp113
Rp114
ag10
(g14
S'\xea\xd0"\xdb\xf9>N@'
p115
tp116
Rp117
ag10
(g14
S'L5^\xbaIlL@'
p118
tp119
Rp120
ag10
(g14
S'\x1c\x04V\x0e-\x02N@'
p121
tp122
Rp123
ag10
(g14
S'"\x06\x81\x95CkL@'
p124
tp125
Rp126
ag10
(g14
S'2\x08\xac\x1cZ\xd4L@'
p127
tp128
Rp129
ag10
(g14
S'\xe7\xa5\x9b\xc4 \xa0K@'
p130
tp131
Rp132
ag10
(g14
S'\xa2E\xb6\xf3\xfd\xecN@'
p133
tp134
Rp135
ag10
(g14
S'M\x8d\x97n\x12cO@'
p136
tp137
Rp138
asssss.