(dp0
S'../Data/sqlite_83.csv'
p1
(dp2
S'../Data/sqlite_29.csv'
p3
(dp4
F0.4
(dp5
S'abs_res'
p6
(dp7
S'bellwether'
p8
(lp9
cnumpy.core.multiarray
scalar
p10
(cnumpy
dtype
p11
(S'f8'
p12
I0
I1
tp13
Rp14
(I3
S'<'
p15
NNNI-1
I-1
I0
tp16
bS'\xfaS\xe3\x05\x03F:A'
p17
tp18
Rp19
ag10
(g14
S'fd;/uB:A'
p20
tp21
Rp22
ag10
(g14
S'\xa4p=j\x92D:A'
p23
tp24
Rp25
ag10
(g14
S'\xac\x9b\xc4\xa0\x07D:A'
p26
tp27
Rp28
ag10
(g14
S'\\\xe5\xd0B\x8dD:A'
p29
tp30
Rp31
ag10
(g14
S'R\x0e-\xd2/C:A'
p32
tp33
Rp34
ag10
(g14
S'\xbe\xf5(,\xbfD:A'
p35
tp36
Rp37
ag10
(g14
S'\xf2S\xe3e\xf0C:A'
p38
tp39
Rp40
ag10
(g14
S'\x87\xebQ(\x87D:A'
p41
tp42
Rp43
ag10
(g14
S'L9\xb4\xb8\x1bC:A'
p44
tp45
Rp46
ag10
(g14
S'\\fff!C:A'
p47
tp48
Rp49
ag10
(g14
S'/\xdd$\x86\x91B:A'
p50
tp51
Rp52
ag10
(g14
S'_\xbaIl\x1fG:A'
p53
tp54
Rp55
ag10
(g14
S'<\xdfOm\xffD:A'
p56
tp57
Rp58
ag10
(g14
S'\xf3\xa9\xf1\x02WC:A'
p59
tp60
Rp61
ag10
(g14
S'^9\xb4\xf8xD:A'
p62
tp63
Rp64
ag10
(g14
S'\x1a\xaeG\xa1\x97A:A'
p65
tp66
Rp67
ag10
(g14
S'&\x06\x81\xc5\xf4E:A'
p68
tp69
Rp70
ag10
(g14
S'<\xb4\xc865C:A'
p71
tp72
Rp73
ag10
(g14
S'D`\xe5\xf0\xc3D:A'
p74
tp75
Rp76
asS'target'
p77
(lp78
g10
(g14
S'gfff&q\xcc@'
p79
tp80
Rp81
ag10
(g14
S'\xd4\xcc\xcc\xccLq\xcc@'
p82
tp83
Rp84
ag10
(g14
S'\n\x00\x00\x00@\xb8\xcb@'
p85
tp86
Rp87
ag10
(g14
S'2333\xf3W\xcb@'
p88
tp89
Rp90
ag10
(g14
S'\x90\x99\x99\x99\xb9W\xcb@'
p91
tp92
Rp93
ag10
(g14
S'^fffFT\xca@'
p94
tp95
Rp96
ag10
(g14
S'\xcf\xcc\xcc\xcc\xac6\xcb@'
p97
tp98
Rp99
ag10
(g14
S':333S\x94\xcb@'
p100
tp101
Rp102
ag10
(g14
S'\xd2\xcc\xcc\xcc\x0cp\xcb@'
p103
tp104
Rp105
ag10
(g14
S'\x03\x00\x00\x00@*\xcc@'
p106
tp107
Rp108
ag10
(g14
S"(333\x13'\xcb@"
p109
tp110
Rp111
ag10
(g14
S'\\fff\xc6z\xcc@'
p112
tp113
Rp114
ag10
(g14
S'*3333\x1e\xcc@'
p115
tp116
Rp117
ag10
(g14
S'\xbd\xcc\xcc\xccl\xd5\xcc@'
p118
tp119
Rp120
ag10
(g14
S'\x01\x00\x00\x00\x80f\xcb@'
p121
tp122
Rp123
ag10
(g14
S'\xcb\xcc\xcc\xcc\xcc#\xca@'
p124
tp125
Rp126
ag10
(g14
S'\x07\x00\x00\x00\xc0x\xcc@'
p127
tp128
Rp129
ag10
(g14
S'.3333\xad\xcb@'
p130
tp131
Rp132
ag10
(g14
S'\x98\x99\x99\x99Y\x1b\xcc@'
p133
tp134
Rp135
ag10
(g14
S'dffff\x8f\xcc@'
p136
tp137
Rp138
asssss.