(dp0
S'../Data/sqlite_18.csv'
p1
(dp2
S'../Data/sqlite_5.csv'
p3
(dp4
F0.15
(dp5
S'abs_res'
p6
(dp7
S'bellwether'
p8
(lp9
cnumpy.core.multiarray
scalar
p10
(cnumpy
dtype
p11
(S'f8'
p12
I0
I1
tp13
Rp14
(I3
S'<'
p15
NNNI-1
I-1
I0
tp16
bS'a\xc9/\x06\xd0q@A'
p17
tp18
Rp19
ag10
(g14
S'\xa7\xc6K\xd7\x87q@A'
p20
tp21
Rp22
ag10
(g14
S'\x14\x83\xc0jLq@A'
p23
tp24
Rp25
ag10
(g14
S'\x03\xb9\xd7\\\xe9q@A'
p26
tp27
Rp28
ag10
(g14
S'\xb9-kU]q@A'
p29
tp30
Rp31
ag10
(g14
S'\x00+\x87\x06\xf0p@A'
p32
tp33
Rp34
ag10
(g14
S'\xbe\xca\xa1E0q@A'
p35
tp36
Rp37
ag10
(g14
S'&1\x08<\xecp@A'
p38
tp39
Rp40
ag10
(g14
S'Ws!\x99\x07q@A'
p41
tp42
Rp43
ag10
(g14
S'\xfaS\xe3\xf5eq@A'
p44
tp45
Rp46
ag10
(g14
S'\x05\x02+\xd74q@A'
p47
tp48
Rp49
ag10
(g14
S'H\x9aR\xd1$r@A'
p50
tp51
Rp52
ag10
(g14
S'\xae\x00\xb9\xf7\xd8p@A'
p53
tp54
Rp55
ag10
(g14
S'%\x15g\x9f\xecq@A'
p56
tp57
Rp58
ag10
(g14
S'\xb6\xc8vN(q@A'
p59
tp60
Rp61
ag10
(g14
S'\x8cl\xe7\x0b\xe5p@A'
p62
tp63
Rp64
ag10
(g14
S'\xbd\xd7\\H\xcep@A'
p65
tp66
Rp67
ag10
(g14
S'\xc6 \xb0\x82tp@A'
p68
tp69
Rp70
ag10
(g14
S'>`\xe5\xf0\xa3q@A'
p71
tp72
Rp73
ag10
(g14
S'\x06:m\x90\xb3q@A'
p74
tp75
Rp76
asS'target'
p77
(lp78
g10
(g14
S'\x1a\xd9\xce\xf7S{[@'
p79
tp80
Rp81
ag10
(g14
S'\x12-\xb2\x9d\xef[_@'
p82
tp83
Rp84
ag10
(g14
S'\x9f\xc4 \xb0r \\@'
p85
tp86
Rp87
ag10
(g14
S'5\xb2\x9d\xef\xa7f\\@'
p88
tp89
Rp90
ag10
(g14
S'U7\x89A`\xed[@'
p91
tp92
Rp93
ag10
(g14
S'Pb\x10X9\xec`@'
p94
tp95
Rp96
ag10
(g14
S'\x0c\xd7\xa3p=\x16^@'
p97
tp98
Rp99
ag10
(g14
S'\x8e\xed|?5*a@'
p100
tp101
Rp102
ag10
(g14
S'\xd6\xf9~j\xbc\x1c]@'
p103
tp104
Rp105
ag10
(g14
S'\x83j\xbct\x93D`@'
p106
tp107
Rp108
ag10
(g14
S'\x15/\xdd$\x06\xa5b@'
p109
tp110
Rp111
ag10
(g14
S'\xb5\x9f\x1a/\xdd\x14\\@'
p112
tp113
Rp114
ag10
(g14
S':^\xbaI\x0c\xea[@'
p115
tp116
Rp117
ag10
(g14
S'Nb\x10X9\xa8`@'
p118
tp119
Rp120
ag10
(g14
S'\xd0x\xe9&1\xb0^@'
p121
tp122
Rp123
ag10
(g14
S'\x14/\xdd$\x06\xd1`@'
p124
tp125
Rp126
ag10
(g14
S'C\x8bl\xe7\xfb![@'
p127
tp128
Rp129
ag10
(g14
S'\xe4O\x8d\x97n\x02c@'
p130
tp131
Rp132
ag10
(g14
S'#\\\x8f\xc2\xf5\xfcZ@'
p133
tp134
Rp135
ag10
(g14
S'fffffXa@'
p136
tp137
Rp138
asssss.