(dp0
S'../Data/sqlite_15.csv'
p1
(dp2
S'../Data/sqlite_16.csv'
p3
(dp4
F0.1
(dp5
S'abs_res'
p6
(dp7
S'bellwether'
p8
(lp9
cnumpy.core.multiarray
scalar
p10
(cnumpy
dtype
p11
(S'f8'
p12
I0
I1
tp13
Rp14
(I3
S'<'
p15
NNNI-1
I-1
I0
tp16
bS'z\x95C\xab\t+AA'
p17
tp18
Rp19
ag10
(g14
S'\x8dl\xe7\xfbQ+AA'
p20
tp21
Rp22
ag10
(g14
S'\xc6v\xbe\xcf\x10+AA'
p23
tp24
Rp25
ag10
(g14
S'^\xbaI\x0c,+AA'
p26
tp27
Rp28
ag10
(g14
S'H\x9aR!\x82+AA'
p29
tp30
Rp31
ag10
(g14
S'\x18\x04V\xceX+AA'
p32
tp33
Rp34
ag10
(g14
S'\xdax\xe9\xc6\xb2+AA'
p35
tp36
Rp37
ag10
(g14
S'\x1cZd\x8b\xcf+AA'
p38
tp39
Rp40
ag10
(g14
S')1\x08\xbc\xc6+AA'
p41
tp42
Rp43
ag10
(g14
S'\xe3\xa5\x9b\xe4\x16,AA'
p44
tp45
Rp46
ag10
(g14
S')1\x08\xccU+AA'
p47
tp48
Rp49
ag10
(g14
S'p\xe7\xfb\xe9\xaa+AA'
p50
tp51
Rp52
ag10
(g14
S'n\xe7\xfb\xf9\x96+AA'
p53
tp54
Rp55
ag10
(g14
S'i\xbcts*+AA'
p56
tp57
Rp58
ag10
(g14
S'0\x08\xac\x9c\xa5*AA'
p59
tp60
Rp61
ag10
(g14
S'\x1f\x85\xeb\xa1\x07,AA'
p62
tp63
Rp64
ag10
(g14
S"H\x8bl'7+AA"
p65
tp66
Rp67
ag10
(g14
S'\xc4\xf5(\xac>+AA'
p68
tp69
Rp70
ag10
(g14
S'\xda\xb2V7\x13+AA'
p71
tp72
Rp73
ag10
(g14
S'w\x14\xae\xa7\xf9+AA'
p74
tp75
Rp76
asS'target'
p77
(lp78
g10
(g14
S'\x16X9\xb4\xc8\xe6M@'
p79
tp80
Rp81
ag10
(g14
S"F\xe1z\x14\xae'U@"
p82
tp83
Rp84
ag10
(g14
S'D`\xe5\xd0"3P@'
p85
tp86
Rp87
ag10
(g14
S'\x1eZd;\xdf\xbfN@'
p88
tp89
Rp90
ag10
(g14
S'>\x89A`\xe5\xd0L@'
p91
tp92
Rp93
ag10
(g14
S'\x84j\xbct\x93xQ@'
p94
tp95
Rp96
ag10
(g14
S'0\xb2\x9d\xef\xa7FN@'
p97
tp98
Rp99
ag10
(g14
S'7\x06\x81\x95C[N@'
p100
tp101
Rp102
ag10
(g14
S'\xfeS\xe3\xa5\x9b\x1cQ@'
p103
tp104
Rp105
ag10
(g14
S'D`\xe5\xd0"\xf3P@'
p106
tp107
Rp108
ag10
(g14
S'wffff\x96M@'
p109
tp110
Rp111
ag10
(g14
S'\x1c\xd9\xce\xf7S3M@'
p112
tp113
Rp114
ag10
(g14
S'\x10V\x0e-\xb25Q@'
p115
tp116
Rp117
ag10
(g14
S'<\x89A`\xe5\x80P@'
p118
tp119
Rp120
ag10
(g14
S'\x18\x04V\x0e-\x02M@'
p121
tp122
Rp123
ag10
(g14
S'\xe2\xf9~j\xbcDM@'
p124
tp125
Rp126
ag10
(g14
S'u\x12\x83\xc0\xca\xa1N@'
p127
tp128
Rp129
ag10
(g14
S'O\x0c\x02+\x87\xe6N@'
p130
tp131
Rp132
ag10
(g14
S'\xd7x\xe9&1\xe8Q@'
p133
tp134
Rp135
ag10
(g14
S'\x10\xaeG\xe1z\xdcN@'
p136
tp137
Rp138
asssss.