(dp0
S'../Data/sqlite_74.csv'
p1
(dp2
S'../Data/sqlite_20.csv'
p3
(dp4
F0.1
(dp5
S'abs_res'
p6
(dp7
S'bellwether'
p8
(lp9
cnumpy.core.multiarray
scalar
p10
(cnumpy
dtype
p11
(S'f8'
p12
I0
I1
tp13
Rp14
(I3
S'<'
p15
NNNI-1
I-1
I0
tp16
bS'\xc1K7\xd9\xbafnA'
p17
tp18
Rp19
ag10
(g14
S'C\x89A\xd4\xddinA'
p20
tp21
Rp22
ag10
(g14
S'\\d;[\xe8gnA'
p23
tp24
Rp25
ag10
(g14
S'Y\xb8\x1e\xcd\\nnA'
p26
tp27
Rp28
ag10
(g14
S'5\xdd$\x960nnA'
p29
tp30
Rp31
ag10
(g14
S'9z[\xe2\xa4jnA'
p32
tp33
Rp34
ag10
(g14
S'$\xa1\x8c\xd2}rnA'
p35
tp36
Rp37
ag10
(g14
S"\x9a'\xea/XonA"
p38
tp39
Rp40
ag10
(g14
S'\x1e\xd9\xce\xe7\x88knA'
p41
tp42
Rp43
ag10
(g14
S'\xdax\xe9Z\x8dpnA'
p44
tp45
Rp46
ag10
(g14
S'\xf3\xa7\xc6K\xf9qnA'
p47
tp48
Rp49
ag10
(g14
S'\xfd\xff\xff\xa7\x0cunA'
p50
tp51
Rp52
ag10
(g14
S'}h\x91m\xadpnA'
p53
tp54
Rp55
ag10
(g14
S'@\xb4\xc8\xb6_inA'
p56
tp57
Rp58
ag10
(g14
S'\xfe~j\x9cUmnA'
p59
tp60
Rp61
ag10
(g14
S'\xbc\xf5(\xe0\x90mnA'
p62
tp63
Rp64
ag10
(g14
S'p\xcbZapjnA'
p65
tp66
Rp67
ag10
(g14
S'\x02r\xaf\x99\x99onA'
p68
tp69
Rp70
ag10
(g14
S'\xe8\xf9~j\xa0knA'
p71
tp72
Rp73
ag10
(g14
S';\x89A4\\qnA'
p74
tp75
Rp76
asS'target'
p77
(lp78
g10
(g14
S'\xd5x\xe9&1\x1es@'
p79
tp80
Rp81
ag10
(g14
S'A7\x89A`\xbbr@'
p82
tp83
Rp84
ag10
(g14
S'\xf4(\\\x8f\xc2\xe5t@'
p85
tp86
Rp87
ag10
(g14
S'\x15\x83\xc0\xca\xa1\xe9q@'
p88
tp89
Rp90
ag10
(g14
S'v\x93\x18\x04V\x0et@'
p91
tp92
Rp93
ag10
(g14
S'\xd1\xa1E\xb6\xf3Or@'
p94
tp95
Rp96
ag10
(g14
S'\x8fA`\xe5\xd0ds@'
p97
tp98
Rp99
ag10
(g14
S'"\xdb\xf9~jJr@'
p100
tp101
Rp102
ag10
(g14
S'\xb2\x1cZd;Wr@'
p103
tp104
Rp105
ag10
(g14
S'l\xbct\x93\x18\xb0s@'
p106
tp107
Rp108
ag10
(g14
S'\x9cp=\n\xd7\xf7u@'
p109
tp110
Rp111
ag10
(g14
S'\xdc$\x06\x81\x95\x03u@'
p112
tp113
Rp114
ag10
(g14
S'\xf5|?5^\xa4u@'
p115
tp116
Rp117
ag10
(g14
S'Z\x0e-\xb2\x9d\xa5s@'
p118
tp119
Rp120
ag10
(g14
S'r\xbct\x93\x18\x88s@'
p121
tp122
Rp123
ag10
(g14
S'\x11\xaeG\xe1z$t@'
p124
tp125
Rp126
ag10
(g14
S'z?5^\xba\x80t@'
p127
tp128
Rp129
ag10
(g14
S'H7\x89A`\xb3s@'
p130
tp131
Rp132
ag10
(g14
S'\x02V\x0e-\xb2\x15u@'
p133
tp134
Rp135
ag10
(g14
S'\xd4x\xe9&1\xa0r@'
p136
tp137
Rp138
asssss.