(dp0
S'../Data/sqlite_21.csv'
p1
(dp2
S'../Data/sqlite_96.csv'
p3
(dp4
F0.3
(dp5
S'mmre'
p6
(dp7
S'bellwether'
p8
(lp9
cnumpy.core.multiarray
scalar
p10
(cnumpy
dtype
p11
(S'f8'
p12
I0
I1
tp13
Rp14
(I3
S'<'
p15
NNNI-1
I-1
I0
tp16
bS'W\xf5c\xc4Z2R@'
p17
tp18
Rp19
ag10
(g14
S'\xb2\xdb\xaa`&/R@'
p20
tp21
Rp22
ag10
(g14
S'\xb9b\xe2\x1fC8R@'
p23
tp24
Rp25
ag10
(g14
S'(\xa7+((9R@'
p26
tp27
Rp28
ag10
(g14
S'\xd8\xdf3\rX5R@'
p29
tp30
Rp31
ag10
(g14
S'\xd1\x0fF\xdc;>R@'
p32
tp33
Rp34
ag10
(g14
S'wu\x8d\x8bd(R@'
p35
tp36
Rp37
ag10
(g14
S'\xe6S`0\x964R@'
p38
tp39
Rp40
ag10
(g14
S'\xc2eW\xc4\x9c/R@'
p41
tp42
Rp43
ag10
(g14
S']\x1f\x99zb9R@'
p44
tp45
Rp46
ag10
(g14
S'\xfc_1\xaf:>R@'
p47
tp48
Rp49
ag10
(g14
S'\xb6\xb5k\x80b=R@'
p50
tp51
Rp52
ag10
(g14
S'\xc4\xe6\xae+\xfcDR@'
p53
tp54
Rp55
ag10
(g14
S'c|&Zc9R@'
p56
tp57
Rp58
ag10
(g14
S'\xb1U\xd5\x10\xb3=R@'
p59
tp60
Rp61
ag10
(g14
S'\x9c#\x88WkCR@'
p62
tp63
Rp64
ag10
(g14
S'1\xea\x1d\xc3\xca8R@'
p65
tp66
Rp67
ag10
(g14
S'f)n\xd0^9R@'
p68
tp69
Rp70
ag10
(g14
S'\x0b)]\xaa\x8d#R@'
p71
tp72
Rp73
ag10
(g14
S'A\xb2]\xb1\x15=R@'
p74
tp75
Rp76
asS'target'
p77
(lp78
g10
(g14
S'{\x12b\x9d\xda\xdeS@'
p79
tp80
Rp81
ag10
(g14
S'w\xb0\xde\xd3\xc5\xf3Y@'
p82
tp83
Rp84
ag10
(g14
S']\xcb<\x0eu|L@'
p85
tp86
Rp87
ag10
(g14
S"\xaa\x08'(tzM@"
p88
tp89
Rp90
ag10
(g14
S'\xe5/\xab\x96\xcb\x05]@'
p91
tp92
Rp93
ag10
(g14
S'o3\x9eg\x90dL@'
p94
tp95
Rp96
ag10
(g14
S'\xf5\xae\xbeH\xc8\xa7V@'
p97
tp98
Rp99
ag10
(g14
S'\x1c\xe3\xed\xffC\x1aQ@'
p100
tp101
Rp102
ag10
(g14
S'\xfc\xe3\xc9\xfd\xd4\x8cX@'
p103
tp104
Rp105
ag10
(g14
S'\n\xc5#e?\xc7P@'
p106
tp107
Rp108
ag10
(g14
S'\x10\xec\xc1H\x07mR@'
p109
tp110
Rp111
ag10
(g14
S'\x88\xdb\xcd\xf8s,T@'
p112
tp113
Rp114
ag10
(g14
S'\x96\xc1g\xd44ga@'
p115
tp116
Rp117
ag10
(g14
S'\xb9L\xad\\\xe7\x90I@'
p118
tp119
Rp120
ag10
(g14
S'~\xf2\x00\x07\xe3\xb0U@'
p121
tp122
Rp123
ag10
(g14
S'\x89@g5\x93\tF@'
p124
tp125
Rp126
ag10
(g14
S'\xe5g`(\xdd\x1fM@'
p127
tp128
Rp129
ag10
(g14
S'%\xae\xb8\x18\x85\xc5U@'
p130
tp131
Rp132
ag10
(g14
S'jw;;Jv\\@'
p133
tp134
Rp135
ag10
(g14
S'\xb0l\x8a.\xba\x1dR@'
p136
tp137
Rp138
asssss.