(dp0
S'../Data/sqlite_31.csv'
p1
(dp2
S'../Data/sqlite_77.csv'
p3
(dp4
F0.35
(dp5
S'mmre'
p6
(dp7
S'bellwether'
p8
(lp9
cnumpy.core.multiarray
scalar
p10
(cnumpy
dtype
p11
(S'f8'
p12
I0
I1
tp13
Rp14
(I3
S'<'
p15
NNNI-1
I-1
I0
tp16
bS'\xbf\xce5\x9fH<P@'
p17
tp18
Rp19
ag10
(g14
S'\xfd\x05PV\x19MP@'
p20
tp21
Rp22
ag10
(g14
S'\xf0q\x84\xc9\xbf6P@'
p23
tp24
Rp25
ag10
(g14
S'#M\xa4\x06\xf2;P@'
p26
tp27
Rp28
ag10
(g14
S'#\x1c\xc2u\x03:P@'
p29
tp30
Rp31
ag10
(g14
S'W\x95i\x0eW8P@'
p32
tp33
Rp34
ag10
(g14
S'\xd0\xd1(6\x8e*P@'
p35
tp36
Rp37
ag10
(g14
S'\xeb/a\x1ddEP@'
p38
tp39
Rp40
ag10
(g14
S'\xc9u\xad\xf1\xc9,P@'
p41
tp42
Rp43
ag10
(g14
S'\x19\xba_\t\xe4/P@'
p44
tp45
Rp46
ag10
(g14
S"&\xc9.\x9f'5P@"
p47
tp48
Rp49
ag10
(g14
S'K\x82\x17_\xef0P@'
p50
tp51
Rp52
ag10
(g14
S'\xfd\x1d\x86>\x8e1P@'
p53
tp54
Rp55
ag10
(g14
S'+\x83\xd1a\x13@P@'
p56
tp57
Rp58
ag10
(g14
S'a\x9f!\x05\xff<P@'
p59
tp60
Rp61
ag10
(g14
S'\x0b{95\xba P@'
p62
tp63
Rp64
ag10
(g14
S',&A\x10WPP@'
p65
tp66
Rp67
ag10
(g14
S'\xa6\xa0I3\xbd9P@'
p68
tp69
Rp70
ag10
(g14
S'\x98z\xcea\xc3;P@'
p71
tp72
Rp73
ag10
(g14
S'VZ,\x9b\xedUP@'
p74
tp75
Rp76
asS'target'
p77
(lp78
g10
(g14
S'\x9ep\xd5\xdc\xd6\xdb4@'
p79
tp80
Rp81
ag10
(g14
S'\x10\x8dvB\x7fn5@'
p82
tp83
Rp84
ag10
(g14
S'3~\x96\x0f\xab\x7f5@'
p85
tp86
Rp87
ag10
(g14
S"\xf6^'\x8ac\xa25@"
p88
tp89
Rp90
ag10
(g14
S'\x005@\xb9\x02\xdc5@'
p91
tp92
Rp93
ag10
(g14
S'\x1el\\n\x9c\xb65@'
p94
tp95
Rp96
ag10
(g14
S'\xe3\xbd{\xc7zc6@'
p97
tp98
Rp99
ag10
(g14
S'\xa6\x0cf\xbf1F5@'
p100
tp101
Rp102
ag10
(g14
S'\xab\x92\xfaTA\x9a7@'
p103
tp104
Rp105
ag10
(g14
S"\xb6\xbe'\xb2k\x0f5@"
p106
tp107
Rp108
ag10
(g14
S'1X=\x19\xacN6@'
p109
tp110
Rp111
ag10
(g14
S'\x83U\xea9\xfd\x9d5@'
p112
tp113
Rp114
ag10
(g14
S'\xeb.\x8bso 7@'
p115
tp116
Rp117
ag10
(g14
S'\xc5d\x85\xa4\x82\x9f4@'
p118
tp119
Rp120
ag10
(g14
S'\xed\x9a\xe9\x1c\xf2\x935@'
p121
tp122
Rp123
ag10
(g14
S'+A{B\xd8\xa87@'
p124
tp125
Rp126
ag10
(g14
S'\xca;\xd7\xbf\x1d\x975@'
p127
tp128
Rp129
ag10
(g14
S'!\xd1Sr\xf4\x9e5@'
p130
tp131
Rp132
ag10
(g14
S'\xc5\x901\xa4\xe2\x955@'
p133
tp134
Rp135
ag10
(g14
S'\xf3\xcb\x0cY\xb6L5@'
p136
tp137
Rp138
asssss.