(dp0
S'../Data/sqlite_23.csv'
p1
(dp2
S'../Data/sqlite_63.csv'
p3
(dp4
F0.3
(dp5
S'mmre'
p6
(dp7
S'bellwether'
p8
(lp9
cnumpy.core.multiarray
scalar
p10
(cnumpy
dtype
p11
(S'f8'
p12
I0
I1
tp13
Rp14
(I3
S'<'
p15
NNNI-1
I-1
I0
tp16
bS'\x1c@\x04\xce\xebpW@'
p17
tp18
Rp19
ag10
(g14
S'\xdcs_^\x87pW@'
p20
tp21
Rp22
ag10
(g14
S'cIy\x9d@oW@'
p23
tp24
Rp25
ag10
(g14
S'\xa2\xd3\t\xf0zoW@'
p26
tp27
Rp28
ag10
(g14
S'8\xbaD\xf3:nW@'
p29
tp30
Rp31
ag10
(g14
S'\xd7\xe5\x87\xd4EpW@'
p32
tp33
Rp34
ag10
(g14
S'k\x91M\xd8YpW@'
p35
tp36
Rp37
ag10
(g14
S'f\xb7\xae\xdeppW@'
p38
tp39
Rp40
ag10
(g14
S'\xda\xd2\x7f\x0bnoW@'
p41
tp42
Rp43
ag10
(g14
S'\xc5M\xba\x99\xe0nW@'
p44
tp45
Rp46
ag10
(g14
S'\xdf\\,B\xa1oW@'
p47
tp48
Rp49
ag10
(g14
S" D\t')pW@"
p50
tp51
Rp52
ag10
(g14
S'\xc2r\x8d\xfd\xe4oW@'
p53
tp54
Rp55
ag10
(g14
S'fPK\xf7\xd9pW@'
p56
tp57
Rp58
ag10
(g14
S'\xea\x99\xf9\xce\xe1oW@'
p59
tp60
Rp61
ag10
(g14
S'B\x1d91\xe6oW@'
p62
tp63
Rp64
ag10
(g14
S'ye\xe0z\xe4nW@'
p65
tp66
Rp67
ag10
(g14
S'\xd0\x87\x11\xd5\xc0oW@'
p68
tp69
Rp70
ag10
(g14
S'\x1e}\xe3pzoW@'
p71
tp72
Rp73
ag10
(g14
S'}\xacC\x17\x8boW@'
p74
tp75
Rp76
asS'target'
p77
(lp78
g10
(g14
S'\xe1\xb6 \xe6\x03\x81!@'
p79
tp80
Rp81
ag10
(g14
S'\x01\xa0\x16\xcb\xb2\x9f"@'
p82
tp83
Rp84
ag10
(g14
S')\xd2\x86\xfej\xe4"@'
p85
tp86
Rp87
ag10
(g14
S'.\xb4\nGu\x8a"@'
p88
tp89
Rp90
ag10
(g14
S'\xed\xf4w\xd5y\xf9"@'
p91
tp92
Rp93
ag10
(g14
S'\x941\xbf4@\xe1"@'
p94
tp95
Rp96
ag10
(g14
S'\xe0\x84\x90\xa5\xdd|"@'
p97
tp98
Rp99
ag10
(g14
S'\xb5\xca4C9?"@'
p100
tp101
Rp102
ag10
(g14
S'\x8a\x06Y\xe9\xff\x05"@'
p103
tp104
Rp105
ag10
(g14
S'\xdd\x84\xedzS\xee!@'
p106
tp107
Rp108
ag10
(g14
S'S\xf6\xd9\xbe\x15\xe0!@'
p109
tp110
Rp111
ag10
(g14
S'\xcc\xcc 6`W"@'
p112
tp113
Rp114
ag10
(g14
S'\xaduI3\xa8\x0b"@'
p115
tp116
Rp117
ag10
(g14
S'c\x96\xd8A\x85\x19"@'
p118
tp119
Rp120
ag10
(g14
S'4KC\x04`+#@'
p121
tp122
Rp123
ag10
(g14
S'\\\xfeI\xd1\xd2h#@'
p124
tp125
Rp126
ag10
(g14
S'L\x0e\x1b2M\xe5#@'
p127
tp128
Rp129
ag10
(g14
S'%\xb5H\xd4\xf5E"@'
p130
tp131
Rp132
ag10
(g14
S'\x9b\xa9\xca\xcd\xfd\x92"@'
p133
tp134
Rp135
ag10
(g14
S'\x0b\x81;\x00\x8e-"@'
p136
tp137
Rp138
asssss.