(dp0
S'../Data/sqlite_30.csv'
p1
(dp2
S'../Data/sqlite_73.csv'
p3
(dp4
F0.1
(dp5
S'mmre'
p6
(dp7
S'bellwether'
p8
(lp9
cnumpy.core.multiarray
scalar
p10
(cnumpy
dtype
p11
(S'f8'
p12
I0
I1
tp13
Rp14
(I3
S'<'
p15
NNNI-1
I-1
I0
tp16
bS'\n/\x18\x14\xd1FW@'
p17
tp18
Rp19
ag10
(g14
S'c\x9b\xce\x8c\x96GW@'
p20
tp21
Rp22
ag10
(g14
S'\xd0]\xeet\xecGW@'
p23
tp24
Rp25
ag10
(g14
S'\xd0XZ!\xdcFW@'
p26
tp27
Rp28
ag10
(g14
S'\xe1\xd8l\x0c\x14HW@'
p29
tp30
Rp31
ag10
(g14
S'?M\xd4\xec9GW@'
p32
tp33
Rp34
ag10
(g14
S'\x8f,>8\xc3GW@'
p35
tp36
Rp37
ag10
(g14
S'E{f\xc7@GW@'
p38
tp39
Rp40
ag10
(g14
S'i\xa7\x90\x9f\xf9FW@'
p41
tp42
Rp43
ag10
(g14
S'wSC\x93\xa2GW@'
p44
tp45
Rp46
ag10
(g14
S'\x00\x1dB\xdchFW@'
p47
tp48
Rp49
ag10
(g14
S'\x84\xca\xd1P\xd1FW@'
p50
tp51
Rp52
ag10
(g14
S'j\x84kw\xf6GW@'
p53
tp54
Rp55
ag10
(g14
S' \x02k\t#GW@'
p56
tp57
Rp58
ag10
(g14
S'N\xa0\xc0\xc3\x1aGW@'
p59
tp60
Rp61
ag10
(g14
S'\x0c\xd3\xacp\xd9FW@'
p62
tp63
Rp64
ag10
(g14
S'\x96\xad\xb5\xc6+GW@'
p65
tp66
Rp67
ag10
(g14
S'/n\xbe%\xecGW@'
p68
tp69
Rp70
ag10
(g14
S">\xc3#'\x9bGW@"
p71
tp72
Rp73
ag10
(g14
S'\xd8\x05\\\xd3\xf3GW@'
p74
tp75
Rp76
asS'target'
p77
(lp78
g10
(g14
S'\x82\xa3\x97xf\xf8,@'
p79
tp80
Rp81
ag10
(g14
S'\xcb\x1d\x1eeny.@'
p82
tp83
Rp84
ag10
(g14
S'\x9cZ\xc6\xf2v"+@'
p85
tp86
Rp87
ag10
(g14
S'\xfc9\x04\xf4\xe94.@'
p88
tp89
Rp90
ag10
(g14
S'\xfa\x05\xfb\xe7\xe7\x19*@'
p91
tp92
Rp93
ag10
(g14
S'\x03z\x84R\x89\xdd/@'
p94
tp95
Rp96
ag10
(g14
S"\xf6H']\x91..@"
p97
tp98
Rp99
ag10
(g14
S'\x83\x96\xb9\xbf\xfaM+@'
p100
tp101
Rp102
ag10
(g14
S'\xb5<ZP\xed\x81-@'
p103
tp104
Rp105
ag10
(g14
S'\xf0\x970\xbf\xafp*@'
p106
tp107
Rp108
ag10
(g14
S'\xbe\xab\x9dp\xcb\x1a,@'
p109
tp110
Rp111
ag10
(g14
S'\xa6`\x11\xb2\xf3\x14)@'
p112
tp113
Rp114
ag10
(g14
S'\x8f\xe8\xd4\xd5\\r+@'
p115
tp116
Rp117
ag10
(g14
S'w[S\xf6.*.@'
p118
tp119
Rp120
ag10
(g14
S'\x90j\xf0t\xbd\x8d+@'
p121
tp122
Rp123
ag10
(g14
S'y\xf0\n\x8ag\x1e/@'
p124
tp125
Rp126
ag10
(g14
S'\xb8\xa6\xa84\x9e\x1b+@'
p127
tp128
Rp129
ag10
(g14
S'\xba\xc8\x96\xdb@K,@'
p130
tp131
Rp132
ag10
(g14
S'\xe2\x1az5\x97U2@'
p133
tp134
Rp135
ag10
(g14
S'vXGe@6)@'
p136
tp137
Rp138
asssss.