(dp0
S'../Data/sqlite_66.csv'
p1
(dp2
S'../Data/sqlite_65.csv'
p3
(dp4
F0.05
(dp5
S'abs_res'
p6
(dp7
S'bellwether'
p8
(lp9
cnumpy.core.multiarray
scalar
p10
(cnumpy
dtype
p11
(S'f8'
p12
I0
I1
tp13
Rp14
(I3
S'<'
p15
NNNI-1
I-1
I0
tp16
bS'\xf1|?5\xedg$A'
p17
tp18
Rp19
ag10
(g14
S'!/\xdd\xe4\xdcg$A'
p20
tp21
Rp22
ag10
(g14
S')ku\x0c\x81g$A'
p23
tp24
Rp25
ag10
(g14
S'\xa4E\xb63kh$A'
p26
tp27
Rp28
ag10
(g14
S'\xcf\xf7S\xe3\xb6g$A'
p29
tp30
Rp31
ag10
(g14
S'K\xc5\xd9\x87\xd6g$A'
p32
tp33
Rp34
ag10
(g14
S'\x81\x16\xd9\x8esg$A'
p35
tp36
Rp37
ag10
(g14
S'%\xb2\x9d\xaf\xbeg$A'
p38
tp39
Rp40
ag10
(g14
S'F\xb8\x1e\x85\x96g$A'
p41
tp42
Rp43
ag10
(g14
S'y\xe9&1\xccg$A'
p44
tp45
Rp46
ag10
(g14
S'\xb4\x1e\x85\xab\xf4g$A'
p47
tp48
Rp49
ag10
(g14
S'y\x95C\x0b\x0ch$A'
p50
tp51
Rp52
ag10
(g14
S'\xf2\xd2Mb\xe4g$A'
p53
tp54
Rp55
ag10
(g14
S'_9\xb4H\xe8g$A'
p56
tp57
Rp58
ag10
(g14
S'\x85l\xe7\xbb,h$A'
p59
tp60
Rp61
ag10
(g14
S'\xae\xf1\xd2M\x87g$A'
p62
tp63
Rp64
ag10
(g14
S'\x1a\xe8\xb4A\xfdg$A'
p65
tp66
Rp67
ag10
(g14
S'6\xdfO\x8d\x1eh$A'
p68
tp69
Rp70
ag10
(g14
S'c\x1f>\x03dg$A'
p71
tp72
Rp73
ag10
(g14
S'\xec&1\xc8\xc3g$A'
p74
tp75
Rp76
asS'target'
p77
(lp78
g10
(g14
S'\x1a\x04V\x0e-\x92Y@'
p79
tp80
Rp81
ag10
(g14
S'Z\x0e-\xb2\x9dgg@'
p82
tp83
Rp84
ag10
(g14
S'\xcb\xcc\xcc\xcc\xcc\xa8i@'
p85
tp86
Rp87
ag10
(g14
S'\xc4 \xb0rhad@'
p88
tp89
Rp90
ag10
(g14
S'@\xdfO\x8d\x97\xf6`@'
p91
tp92
Rp93
ag10
(g14
S'R\x8d\x97n\x12/`@'
p94
tp95
Rp96
ag10
(g14
S'dffff>\\@'
p97
tp98
Rp99
ag10
(g14
S'i=\n\xd7\xa3\xd8f@'
p100
tp101
Rp102
ag10
(g14
S'\xb7\x1e\x85\xebQ8[@'
p103
tp104
Rp105
ag10
(g14
S'J7\x89A`)o@'
p106
tp107
Rp108
ag10
(g14
S'\x86\x95C\x8blo`@'
p109
tp110
Rp111
ag10
(g14
S'\xf5Q\xb8\x1e\x85\xe3^@'
p112
tp113
Rp114
ag10
(g14
S'\xfb\xfd\xd4x\xe9\x9ea@'
p115
tp116
Rp117
ag10
(g14
S';\x87\x16\xd9\xce\xb7[@'
p118
tp119
Rp120
ag10
(g14
S'\xd5Mb\x10X\xe1d@'
p121
tp122
Rp123
ag10
(g14
S'kffff\xb2b@'
p124
tp125
Rp126
ag10
(g14
S'\xee\xfb\xa9\xf1\xd2\xe5[@'
p127
tp128
Rp129
ag10
(g14
S'\xa1\x9b\xc4 \xb0\xceb@'
p130
tp131
Rp132
ag10
(g14
S'\x00\xd5x\xe9&Y\\@'
p133
tp134
Rp135
ag10
(g14
S'`\xbaI\x0c\x02\xfbY@'
p136
tp137
Rp138
asssss.