(dp0
S'../Data/sqlite_84.csv'
p1
(dp2
S'../Data/sqlite_87.csv'
p3
(dp4
F0.35
(dp5
S'mmre'
p6
(dp7
S'bellwether'
p8
(lp9
cnumpy.core.multiarray
scalar
p10
(cnumpy
dtype
p11
(S'f8'
p12
I0
I1
tp13
Rp14
(I3
S'<'
p15
NNNI-1
I-1
I0
tp16
bS'/\x8c\xbe\xf4VtH@'
p17
tp18
Rp19
ag10
(g14
S'\xf6\xb3\xc0\xca\x98PH@'
p20
tp21
Rp22
ag10
(g14
S'\x96\x86\xf6\x8f\x1acH@'
p23
tp24
Rp25
ag10
(g14
S'\x93T\x7f\xa0snH@'
p26
tp27
Rp28
ag10
(g14
S'B\xa7\x01*\xd1\xabH@'
p29
tp30
Rp31
ag10
(g14
S'\x8cN\xc0\xa8 |H@'
p32
tp33
Rp34
ag10
(g14
S'\x05\xe2\xd0\x10\xd3SH@'
p35
tp36
Rp37
ag10
(g14
S'Q\x1aH\xe3r@H@'
p38
tp39
Rp40
ag10
(g14
S'\xe5\xf8\xf3]\x9b\x82H@'
p41
tp42
Rp43
ag10
(g14
S'\x1b\x111\xc9iiH@'
p44
tp45
Rp46
ag10
(g14
S'\xbb\xfci\xef\x1f\x82H@'
p47
tp48
Rp49
ag10
(g14
S'\xeag\xb3\xb3<oH@'
p50
tp51
Rp52
ag10
(g14
S'\x9a\xdbD\x00\x8eKH@'
p53
tp54
Rp55
ag10
(g14
S'\xaa\x10\xdb\xd2&yH@'
p56
tp57
Rp58
ag10
(g14
S'z\xea2a\xb7\x94H@'
p59
tp60
Rp61
ag10
(g14
S'\xa2\x1e\x80\x10\xee}H@'
p62
tp63
Rp64
ag10
(g14
S'\xe0\x8d>o\xd2TH@'
p65
tp66
Rp67
ag10
(g14
S'\xea]\xaf\x04@\x8cH@'
p68
tp69
Rp70
ag10
(g14
S'\xc6\xe7\xec\x16a\xa8H@'
p71
tp72
Rp73
ag10
(g14
S'^\xe5R\xb1^jH@'
p74
tp75
Rp76
asS'target'
p77
(lp78
g10
(g14
S'\xc8\x90Q,\x86\x96S@'
p79
tp80
Rp81
ag10
(g14
S'b\xd5\xe2\xb0\xff\xf0I@'
p82
tp83
Rp84
ag10
(g14
S'h\x9a+\xe1\x97\x1bP@'
p85
tp86
Rp87
ag10
(g14
S'.\x17\xc5W\x8f@T@'
p88
tp89
Rp90
ag10
(g14
S'>2]\xfa |M@'
p91
tp92
Rp93
ag10
(g14
S'\xaf\x9b\x9f\xecH\x0bP@'
p94
tp95
Rp96
ag10
(g14
S'@W\r\xb7\r0R@'
p97
tp98
Rp99
ag10
(g14
S"\x85vi\xe9T'L@"
p100
tp101
Rp102
ag10
(g14
S'im\xdc\xa4\x17RN@'
p103
tp104
Rp105
ag10
(g14
S'\xc9\xf2p\xd7\xbdNR@'
p106
tp107
Rp108
ag10
(g14
S"\n\xe6\x15\xaa\x82'S@"
p109
tp110
Rp111
ag10
(g14
S'"0\r\xefAlI@'
p112
tp113
Rp114
ag10
(g14
S'\xd9Pr\xac\xf0XO@'
p115
tp116
Rp117
ag10
(g14
S'^\r}\x9bu\xe3J@'
p118
tp119
Rp120
ag10
(g14
S':\xaf\xe3`\xcf\xa0R@'
p121
tp122
Rp123
ag10
(g14
S'eY\xc6\x14=\xa0R@'
p124
tp125
Rp126
ag10
(g14
S'.\xacJnl~Q@'
p127
tp128
Rp129
ag10
(g14
S'q\x89\xf0]e`K@'
p130
tp131
Rp132
ag10
(g14
S'S2Pd\xee\xb1Q@'
p133
tp134
Rp135
ag10
(g14
S'TQ\xad\n\xb0fN@'
p136
tp137
Rp138
asssss.