(dp0
S'../Data/sqlite_31.csv'
p1
(dp2
S'../Data/sqlite_90.csv'
p3
(dp4
F0.3
(dp5
S'mmre'
p6
(dp7
S'bellwether'
p8
(lp9
cnumpy.core.multiarray
scalar
p10
(cnumpy
dtype
p11
(S'f8'
p12
I0
I1
tp13
Rp14
(I3
S'<'
p15
NNNI-1
I-1
I0
tp16
bS'd\x9c\x8b\xf5\xffaV@'
p17
tp18
Rp19
ag10
(g14
S'\xa1\xc8SmH`V@'
p20
tp21
Rp22
ag10
(g14
S'\xf2\xbe\xc2\xe6J\\V@'
p23
tp24
Rp25
ag10
(g14
S'I\xc8P\x14gjV@'
p26
tp27
Rp28
ag10
(g14
S'\r\x878\xa0\xdceV@'
p29
tp30
Rp31
ag10
(g14
S'`p:\xfe\xaf_V@'
p32
tp33
Rp34
ag10
(g14
S'&6=\xb6\xd0\\V@'
p35
tp36
Rp37
ag10
(g14
S'\xe56h\xae\x11jV@'
p38
tp39
Rp40
ag10
(g14
S'\x14\x88\x87\xda\x94qV@'
p41
tp42
Rp43
ag10
(g14
S'\x18U\xa5\xdd\xc8hV@'
p44
tp45
Rp46
ag10
(g14
S'=m\xa9\x8e\xc8^V@'
p47
tp48
Rp49
ag10
(g14
S'n\xc0|l\xd3jV@'
p50
tp51
Rp52
ag10
(g14
S'bmI\xcf\xa8RV@'
p53
tp54
Rp55
ag10
(g14
S'K\x8dB(\x10aV@'
p56
tp57
Rp58
ag10
(g14
S'\xb8\x8a%\x8f\xccbV@'
p59
tp60
Rp61
ag10
(g14
S'\xfdf\x95m\xcd|V@'
p62
tp63
Rp64
ag10
(g14
S'\xc8\x86\xd9\xd6>]V@'
p65
tp66
Rp67
ag10
(g14
S'2\x9b (\xfdnV@'
p68
tp69
Rp70
ag10
(g14
S'\x10f\xd8\xab\xb7]V@'
p71
tp72
Rp73
ag10
(g14
S'\x15x\xa0\x1bkdV@'
p74
tp75
Rp76
asS'target'
p77
(lp78
g10
(g14
S'o\xe4\xa8v\xe6\tB@'
p79
tp80
Rp81
ag10
(g14
S'I\x9cUS\x94\xb1C@'
p82
tp83
Rp84
ag10
(g14
S'\x91\xcb\xec|?\xc0C@'
p85
tp86
Rp87
ag10
(g14
S'\x9fl w1O@@'
p88
tp89
Rp90
ag10
(g14
S'\x93\x98E\x0f*\xe0A@'
p91
tp92
Rp93
ag10
(g14
S'\x1d\xd2\xa1?\x88\x87C@'
p94
tp95
Rp96
ag10
(g14
S'g\xb1\xf6D\xe9\x85A@'
p97
tp98
Rp99
ag10
(g14
S'\xb7\xfd_q|VA@'
p100
tp101
Rp102
ag10
(g14
S'd)\x96\xc8l\x04@@'
p103
tp104
Rp105
ag10
(g14
S'<?\xd9\xa7\xfc\x07A@'
p106
tp107
Rp108
ag10
(g14
S'_\x13\xdb,/\xd0A@'
p109
tp110
Rp111
ag10
(g14
S'\x18\xe6:\x12o\x1e@@'
p112
tp113
Rp114
ag10
(g14
S'Tl\x9d\x8b0\xaaB@'
p115
tp116
Rp117
ag10
(g14
S'\x8cW\xf4R\n\xf8?@'
p118
tp119
Rp120
ag10
(g14
S'\x06\xc8d\xb0\xa7\x18B@'
p121
tp122
Rp123
ag10
(g14
S'}\x1bI\x8a\xb0p?@'
p124
tp125
Rp126
ag10
(g14
S'\xd6\x8f{\x9a\x02\xd6A@'
p127
tp128
Rp129
ag10
(g14
S'.j\xa2\rN\x88A@'
p130
tp131
Rp132
ag10
(g14
S'\x8b\xde=J\x9d?A@'
p133
tp134
Rp135
ag10
(g14
S'>\xc0\x99.\r\x8a@@'
p136
tp137
Rp138
asssss.