(dp0
S'../Data/sqlite_76.csv'
p1
(dp2
S'../Data/sqlite_95.csv'
p3
(dp4
F0.35
(dp5
S'mmre'
p6
(dp7
S'bellwether'
p8
(lp9
cnumpy.core.multiarray
scalar
p10
(cnumpy
dtype
p11
(S'f8'
p12
I0
I1
tp13
Rp14
(I3
S'<'
p15
NNNI-1
I-1
I0
tp16
bS'q\x88>\x96\x15/X@'
p17
tp18
Rp19
ag10
(g14
S"\x99\xbc\xd4\xd8.'X@"
p20
tp21
Rp22
ag10
(g14
S'\x98\xf3\xfa\xaf\xa9*X@'
p23
tp24
Rp25
ag10
(g14
S'\xd6\xba/\xe2\xf3*X@'
p26
tp27
Rp28
ag10
(g14
S'\xb3$\x18D\xf5)X@'
p29
tp30
Rp31
ag10
(g14
S'T\xf9\xce`\x9a,X@'
p32
tp33
Rp34
ag10
(g14
S'\x0bP\xc3\x85`)X@'
p35
tp36
Rp37
ag10
(g14
S"%\x0f\xedV\xef'X@"
p38
tp39
Rp40
ag10
(g14
S'\xfc4\x85Z5+X@'
p41
tp42
Rp43
ag10
(g14
S"\x86\xa1\x16\xd8L'X@"
p44
tp45
Rp46
ag10
(g14
S"\xff\xba\xe3\x89\xb7'X@"
p47
tp48
Rp49
ag10
(g14
S'\x93:8\xdc&+X@'
p50
tp51
Rp52
ag10
(g14
S'\xac\xad-\x02K.X@'
p53
tp54
Rp55
ag10
(g14
S'\x82\x87yv\xaf*X@'
p56
tp57
Rp58
ag10
(g14
S' \xf5?=\x03+X@'
p59
tp60
Rp61
ag10
(g14
S'\xef\x97\xcd\x0eC-X@'
p62
tp63
Rp64
ag10
(g14
S"g\x13\xf5'\xa4.X@"
p65
tp66
Rp67
ag10
(g14
S'\xb1\x0bH"$)X@'
p68
tp69
Rp70
ag10
(g14
S'8\\\x7f\xdft)X@'
p71
tp72
Rp73
ag10
(g14
S'\xc5\xf0p{$-X@'
p74
tp75
Rp76
asS'target'
p77
(lp78
g10
(g14
S'c\xd9\xe2\xf2\xf2\nA@'
p79
tp80
Rp81
ag10
(g14
S'HKUH\x88:B@'
p82
tp83
Rp84
ag10
(g14
S'\x88\xea\x9d\x8e\xc5\x90A@'
p85
tp86
Rp87
ag10
(g14
S'j\x83["&\x80C@'
p88
tp89
Rp90
ag10
(g14
S'<\x06AAOQA@'
p91
tp92
Rp93
ag10
(g14
S'egM\xec\xb7pB@'
p94
tp95
Rp96
ag10
(g14
S'\x7f\xb2\xcf\xaa7`B@'
p97
tp98
Rp99
ag10
(g14
S'h\x1cu*E\xa1B@'
p100
tp101
Rp102
ag10
(g14
S'\x88+m\x1e\xdc\x0eA@'
p103
tp104
Rp105
ag10
(g14
S'\x12\x0c\xe9\xa9\x84eB@'
p106
tp107
Rp108
ag10
(g14
S'\x1d&\xbdE\x0f\x99A@'
p109
tp110
Rp111
ag10
(g14
S'L\x9c\xbf\xaa\xc1*B@'
p112
tp113
Rp114
ag10
(g14
S'\xecp\xf6\xb5(Q?@'
p115
tp116
Rp117
ag10
(g14
S'A\xae8\x18i\x16A@'
p118
tp119
Rp120
ag10
(g14
S'\xf9\x01 \x85D\x93B@'
p121
tp122
Rp123
ag10
(g14
S'\xe8-4o9\x99B@'
p124
tp125
Rp126
ag10
(g14
S'6\xc3\xbbGs=>@'
p127
tp128
Rp129
ag10
(g14
S'hQU\xc3\x1a\xe1@@'
p130
tp131
Rp132
ag10
(g14
S'i~s\xeb\xe6pE@'
p133
tp134
Rp135
ag10
(g14
S'\x1e\xd1\x9e\x98\xa7m?@'
p136
tp137
Rp138
asssss.