(dp0
S'../Data/sqlite_15.csv'
p1
(dp2
S'../Data/sqlite_23.csv'
p3
(dp4
F0.1
(dp5
S'abs_res'
p6
(dp7
S'bellwether'
p8
(lp9
cnumpy.core.multiarray
scalar
p10
(cnumpy
dtype
p11
(S'f8'
p12
I0
I1
tp13
Rp14
(I3
S'<'
p15
NNNI-1
I-1
I0
tp16
bS'O\xf0`\x1e\xcf/AA'
p17
tp18
Rp19
ag10
(g14
S'\x84\xebQX|/AA'
p20
tp21
Rp22
ag10
(g14
S'\xce\xa1E6\xd0/AA'
p23
tp24
Rp25
ag10
(g14
S'\xd3\xdb\xb2\xd6\xc3/AA'
p26
tp27
Rp28
ag10
(g14
S'\xdf$\x06\xd1\xea/AA'
p29
tp30
Rp31
ag10
(g14
S'\xb2V\xc7\x04\xbf/AA'
p32
tp33
Rp34
ag10
(g14
S'\xd2Mb`\xe4/AA'
p35
tp36
Rp37
ag10
(g14
S'\xc3\x9f\x1a\x1f^/AA'
p38
tp39
Rp40
ag10
(g14
S'\x10-\xb2-,/AA'
p41
tp42
Rp43
ag10
(g14
S";\x98'\xaa\x8a/AA"
p44
tp45
Rp46
ag10
(g14
S'?\n\xd7\xa3\x040AA'
p47
tp48
Rp49
ag10
(g14
S'd\xe5\xd0B(0AA'
p50
tp51
Rp52
ag10
(g14
S'\xba\xd7\\(\x95/AA'
p53
tp54
Rp55
ag10
(g14
S'\r-\xb2\xbd\xd3/AA'
p56
tp57
Rp58
ag10
(g14
S'*\x06\x815^/AA'
p59
tp60
Rp61
ag10
(g14
S'k\xbct\x83\x140AA'
p62
tp63
Rp64
ag10
(g14
S'\x9e\xd3\x06J\xc1/AA'
p65
tp66
Rp67
ag10
(g14
S'\x89\xa4)\xb5\xeb/AA'
p68
tp69
Rp70
ag10
(g14
S'\xdd$\x06q\xd0/AA'
p71
tp72
Rp73
ag10
(g14
S'O\x8d\x97\x1e\xd3/AA'
p74
tp75
Rp76
asS'target'
p77
(lp78
g10
(g14
S'\x98\x18\x04V\x0e\rC@'
p79
tp80
Rp81
ag10
(g14
S'\xd6\xa3p=\n\xe7A@'
p82
tp83
Rp84
ag10
(g14
S'\x04V\x0e-\xb2\xddB@'
p85
tp86
Rp87
ag10
(g14
S'm\x91\xed|?\x95B@'
p88
tp89
Rp90
ag10
(g14
S'\xfe(\\\x8f\xc2\xf5A@'
p91
tp92
Rp93
ag10
(g14
S'\x92\x97n\x12\x83\xd0G@'
p94
tp95
Rp96
ag10
(g14
S'\xe6\xf9~j\xbct@@'
p97
tp98
Rp99
ag10
(g14
S'}\xebQ\xb8\x1e%A@'
p100
tp101
Rp102
ag10
(g14
S'\xd6\xcc\xcc\xcc\xcclB@'
p103
tp104
Rp105
ag10
(g14
S'\xd0\xcc\xcc\xcc\xcc\x8cE@'
p106
tp107
Rp108
ag10
(g14
S'F7\x89A`\xe5D@'
p109
tp110
Rp111
ag10
(g14
S'\xa8rh\x91\xed\\?@'
p112
tp113
Rp114
ag10
(g14
S'A5^\xbaI|A@'
p115
tp116
Rp117
ag10
(g14
S'\x00\x7fj\xbcts?@'
p118
tp119
Rp120
ag10
(g14
S'\xbf\x9d\xef\xa7\xc6\xeb?@'
p121
tp122
Rp123
ag10
(g14
S'\x16\x04V\x0e-\xd2A@'
p124
tp125
Rp126
ag10
(g14
S'\x9fp=\n\xd7sD@'
p127
tp128
Rp129
ag10
(g14
S'\n\x81\x95C\x8b\x1cB@'
p130
tp131
Rp132
ag10
(g14
S'^9\xb4\xc8v.A@'
p133
tp134
Rp135
ag10
(g14
S'\r\xd7\xa3p=\x8aA@'
p136
tp137
Rp138
asssss.