(dp0
S'../Data/sqlite_92.csv'
p1
(dp2
S'../Data/sqlite_96.csv'
p3
(dp4
F0.2
(dp5
S'mmre'
p6
(dp7
S'bellwether'
p8
(lp9
cnumpy.core.multiarray
scalar
p10
(cnumpy
dtype
p11
(S'f8'
p12
I0
I1
tp13
Rp14
(I3
S'<'
p15
NNNI-1
I-1
I0
tp16
bS'\n\xe3\xee\x03\xb93V@'
p17
tp18
Rp19
ag10
(g14
S'Zl\x0e\xc3N2V@'
p20
tp21
Rp22
ag10
(g14
S'4*\x16\x1a\xe41V@'
p23
tp24
Rp25
ag10
(g14
S'\xe1F\xfe:L0V@'
p26
tp27
Rp28
ag10
(g14
S'\xdc\x9fB\xeek3V@'
p29
tp30
Rp31
ag10
(g14
S'"\xed\xa0W\x885V@'
p32
tp33
Rp34
ag10
(g14
S'\xec\x98O\x92\xa37V@'
p35
tp36
Rp37
ag10
(g14
S'\xc1\xe7\x94f\x932V@'
p38
tp39
Rp40
ag10
(g14
S'i\xae<\x03R2V@'
p41
tp42
Rp43
ag10
(g14
S'\x00N\xe36\xb91V@'
p44
tp45
Rp46
ag10
(g14
S'\xceB3(\xe0.V@'
p47
tp48
Rp49
ag10
(g14
S'[j\xf1\x13\xe54V@'
p50
tp51
Rp52
ag10
(g14
S' \x8e\xaf\xe6K/V@'
p53
tp54
Rp55
ag10
(g14
S'\xffd\xc4\xd9\xf50V@'
p56
tp57
Rp58
ag10
(g14
S'\xb5)\xd8\xcbW1V@'
p59
tp60
Rp61
ag10
(g14
S'\x82Y\xb4\xbbb2V@'
p62
tp63
Rp64
ag10
(g14
S'\xfbEB\x90|3V@'
p65
tp66
Rp67
ag10
(g14
S'6\xbf\xf7F 2V@'
p68
tp69
Rp70
ag10
(g14
S'IX\x1a\x0cP0V@'
p71
tp72
Rp73
ag10
(g14
S'\xba\xa5\xe9qr2V@'
p74
tp75
Rp76
asS'target'
p77
(lp78
g10
(g14
S'\xc3\xe4\xe3\xdcR\x06K@'
p79
tp80
Rp81
ag10
(g14
S'Z7H\xb3\xe4&R@'
p82
tp83
Rp84
ag10
(g14
S'\xe8\x1c\x8d(\xbff[@'
p85
tp86
Rp87
ag10
(g14
S'm\x18+#\xce\x85M@'
p88
tp89
Rp90
ag10
(g14
S'y\x9a\x03S\xbc-J@'
p91
tp92
Rp93
ag10
(g14
S'\\\xbc\xd5\x058\xccM@'
p94
tp95
Rp96
ag10
(g14
S'\x00,\xb3L^h_@'
p97
tp98
Rp99
ag10
(g14
S'\x9ec\xbc\x02\x00+^@'
p100
tp101
Rp102
ag10
(g14
S't\x08\x17^\x04\x19Y@'
p103
tp104
Rp105
ag10
(g14
S"V'\x10\xb7\xea\x02W@"
p106
tp107
Rp108
ag10
(g14
S'\xd6\x06L\xd8L\x1d`@'
p109
tp110
Rp111
ag10
(g14
S'\xf8Be\xa3d\xcfW@'
p112
tp113
Rp114
ag10
(g14
S'a\x83\xd8\x7f\x93\xa1`@'
p115
tp116
Rp117
ag10
(g14
S'\x90\xad\x80\xdb~6G@'
p118
tp119
Rp120
ag10
(g14
S'p6p\xcc\xd1v^@'
p121
tp122
Rp123
ag10
(g14
S'6\x8a{\xf9\xc7\x0bW@'
p124
tp125
Rp126
ag10
(g14
S'a\x19\xf8\xae5\x81N@'
p127
tp128
Rp129
ag10
(g14
S'\xf8\x05U\x85H\\P@'
p130
tp131
Rp132
ag10
(g14
S'\x8e\x84\x8e_\x90|V@'
p133
tp134
Rp135
ag10
(g14
S'\x04;\x84c\x8b\x13T@'
p136
tp137
Rp138
asssss.