(dp0
S'../Data/sqlite_4.csv'
p1
(dp2
S'../Data/sqlite_72.csv'
p3
(dp4
F0.4
(dp5
S'abs_res'
p6
(dp7
S'bellwether'
p8
(lp9
cnumpy.core.multiarray
scalar
p10
(cnumpy
dtype
p11
(S'f8'
p12
I0
I1
tp13
Rp14
(I3
S'<'
p15
NNNI-1
I-1
I0
tp16
bS'a\xad\x8e\xc9En7A'
p17
tp18
Rp19
ag10
(g14
S'\\,\xf9\xa5*p7A'
p20
tp21
Rp22
ag10
(g14
S'\xcb\x94\x8a3\x93q7A'
p23
tp24
Rp25
ag10
(g14
S'*\xf9\xc5\xd2\xdbp7A'
p26
tp27
Rp28
ag10
(g14
S'\t\xbb\x02\x84\x94n7A'
p29
tp30
Rp31
ag10
(g14
S'\x00\x0f\xe6I\xb9n7A'
p32
tp33
Rp34
ag10
(g14
S'y\xa2\xfe\r`m7A'
p35
tp36
Rp37
ag10
(g14
S'Q\xb8\x1e\xc5Bl7A'
p38
tp39
Rp40
ag10
(g14
S'\xb0\x8e\t\xfe\xafp7A'
p41
tp42
Rp43
ag10
(g14
S'\xff\x9c6\xf0|m7A'
p44
tp45
Rp46
ag10
(g14
S'SUU5\x06q7A'
p47
tp48
Rp49
ag10
(g14
S"\x94'\xea?@p7A"
p50
tp51
Rp52
ag10
(g14
S'7B\x19\x9doo7A'
p53
tp54
Rp55
ag10
(g14
S'\xfa\xf0\x19\x96\xbcl7A'
p56
tp57
Rp58
ag10
(g14
S'\xa3E\xb6\xf3\xbcn7A'
p59
tp60
Rp61
ag10
(g14
S'\xe7&1h\x85o7A'
p62
tp63
Rp64
ag10
(g14
S'!x0\xef\x87o7A'
p65
tp66
Rp67
ag10
(g14
S'\x8b\x16\xd9\x0e$n7A'
p68
tp69
Rp70
ag10
(g14
S'3\x17\x92f2p7A'
p71
tp72
Rp73
ag10
(g14
S'\xb5-kU\xb6l7A'
p74
tp75
Rp76
asS'target'
p77
(lp78
g10
(g14
S';\xdfO\x8d\x97\xf6I@'
p79
tp80
Rp81
ag10
(g14
S'\x94\xc2\xf5(\\\xc7J@'
p82
tp83
Rp84
ag10
(g14
S'Y7\x89A`\rJ@'
p85
tp86
Rp87
ag10
(g14
S'\r+\x87\x16\xd9VJ@'
p88
tp89
Rp90
ag10
(g14
S'\xe7\xd0"\xdb\xf9NJ@'
p91
tp92
Rp93
ag10
(g14
S'\xcfK7\x89AXJ@'
p94
tp95
Rp96
ag10
(g14
S'/\xdd$\x06\x81UJ@'
p97
tp98
Rp99
ag10
(g14
S'\xd3\xcc\xcc\xcc\xcc\xbcI@'
p100
tp101
Rp102
ag10
(g14
S'$\\\x8f\xc2\xf5\x10J@'
p103
tp104
Rp105
ag10
(g14
S'\x07\x02+\x87\x169I@'
p106
tp107
Rp108
ag10
(g14
S't\xe7\xfb\xa9\xf1\xe2I@'
p109
tp110
Rp111
ag10
(g14
S'\xfd\xfd\xd4x\xe9\xeeJ@'
p112
tp113
Rp114
ag10
(g14
S'\\\xe5\xd0"\xdb\xb9I@'
p115
tp116
Rp117
ag10
(g14
S'\xbc\xc8v\xbe\x9f:K@'
p118
tp119
Rp120
ag10
(g14
S'\xcc\xca\xa1E\xb6\xb3I@'
p121
tp122
Rp123
ag10
(g14
S'43333CJ@'
p124
tp125
Rp126
ag10
(g14
S'\xfd\xa9\xf1\xd2MrH@'
p127
tp128
Rp129
ag10
(g14
S'\xdc\xf9~j\xbc<J@'
p130
tp131
Rp132
ag10
(g14
S'\xbbI\x0c\x02+_J@'
p133
tp134
Rp135
ag10
(g14
S'#\x85\xebQ\xb8\xf6H@'
p136
tp137
Rp138
asssss.