(dp0
S'../Data/sqlite_44.csv'
p1
(dp2
S'../Data/sqlite_97.csv'
p3
(dp4
F0.05
(dp5
S'mmre'
p6
(dp7
S'bellwether'
p8
(lp9
cnumpy.core.multiarray
scalar
p10
(cnumpy
dtype
p11
(S'f8'
p12
I0
I1
tp13
Rp14
(I3
S'<'
p15
NNNI-1
I-1
I0
tp16
bS',8\xe9\xc1\x06yW@'
p17
tp18
Rp19
ag10
(g14
S'[&[\x87\x91{W@'
p20
tp21
Rp22
ag10
(g14
S'\xad\xa9\xd4\x07dzW@'
p23
tp24
Rp25
ag10
(g14
S'~0\xdb9\x82zW@'
p26
tp27
Rp28
ag10
(g14
S'\x86c\xefE\x8fyW@'
p29
tp30
Rp31
ag10
(g14
S'\xca\x95\xf6\xe0D{W@'
p32
tp33
Rp34
ag10
(g14
S'H\xa0\x7fo\x91yW@'
p35
tp36
Rp37
ag10
(g14
S'\x90/\xb54\xe0{W@'
p38
tp39
Rp40
ag10
(g14
S'\xf4)\xf6\xef\xaazW@'
p41
tp42
Rp43
ag10
(g14
S'\x14h\xb2!\xecyW@'
p44
tp45
Rp46
ag10
(g14
S';9-?\xdayW@'
p47
tp48
Rp49
ag10
(g14
S'\xb4\r\x97\xed\xd0zW@'
p50
tp51
Rp52
ag10
(g14
S'\xbd}\xdc\xd6\x9a{W@'
p53
tp54
Rp55
ag10
(g14
S'%A\x14dH{W@'
p56
tp57
Rp58
ag10
(g14
S'\xa8U\x99\xd9GzW@'
p59
tp60
Rp61
ag10
(g14
S'"\xd692+zW@'
p62
tp63
Rp64
ag10
(g14
S'\xb81\xcf\x1fn{W@'
p65
tp66
Rp67
ag10
(g14
S'C\x02\xf68\xbczW@'
p68
tp69
Rp70
ag10
(g14
S'\x12\xd7\xf9dT|W@'
p71
tp72
Rp73
ag10
(g14
S'k\x15\x9d~\xd6zW@'
p74
tp75
Rp76
asS'target'
p77
(lp78
g10
(g14
S'\\\x84\x0c\xf3\xaa\xcf`@'
p79
tp80
Rp81
ag10
(g14
S'\x87\xfd\xc2\xc8\x94gU@'
p82
tp83
Rp84
ag10
(g14
S'\xdf\x9f\x89\xab\xa4\x89]@'
p85
tp86
Rp87
ag10
(g14
S'\n\xf6l\xcdm\x12d@'
p88
tp89
Rp90
ag10
(g14
S'g\x8dj\xfd\x0b\xa7X@'
p91
tp92
Rp93
ag10
(g14
S'zbkIB\xcbc@'
p94
tp95
Rp96
ag10
(g14
S'.\x054o\xfah^@'
p97
tp98
Rp99
ag10
(g14
S'\x15w]\xe8\xbd\xb3@@'
p100
tp101
Rp102
ag10
(g14
S"ao\xf7\x82'\xfaP@"
p103
tp104
Rp105
ag10
(g14
S'8B\x9f!\xf3fQ@'
p106
tp107
Rp108
ag10
(g14
S'\xe8\x98\xd0~\xf2\x8aX@'
p109
tp110
Rp111
ag10
(g14
S'\x02\x91\xd5Pz\xb5a@'
p112
tp113
Rp114
ag10
(g14
S'\xca\x05\x8c\xea4=X@'
p115
tp116
Rp117
ag10
(g14
S'c\xb5\xe3\xb6\xa7MQ@'
p118
tp119
Rp120
ag10
(g14
S'\xad"#W\x04\xd9X@'
p121
tp122
Rp123
ag10
(g14
S'\x9c\xbcb\x8c\t\xdcH@'
p124
tp125
Rp126
ag10
(g14
S'\x88\xfb\xc8\xcf\xd1\xeeC@'
p127
tp128
Rp129
ag10
(g14
S'\x82\xc7\xb9\xae\xb2\xa0E@'
p130
tp131
Rp132
ag10
(g14
S'@`\xd62*\xfaT@'
p133
tp134
Rp135
ag10
(g14
S'Os\x96\xce\xccmX@'
p136
tp137
Rp138
asssss.