(dp0
S'../Data/sqlite_74.csv'
p1
(dp2
S'../Data/sqlite_9.csv'
p3
(dp4
F0.25
(dp5
S'abs_res'
p6
(dp7
S'bellwether'
p8
(lp9
cnumpy.core.multiarray
scalar
p10
(cnumpy
dtype
p11
(S'f8'
p12
I0
I1
tp13
Rp14
(I3
S'<'
p15
NNNI-1
I-1
I0
tp16
bS'NS*rEkiA'
p17
tp18
Rp19
ag10
(g14
S'\xaa\x8e\tf\xa5ciA'
p20
tp21
Rp22
ag10
(g14
S'\xee\xee\xee\x92\t\\iA'
p23
tp24
Rp25
ag10
(g14
S'\xe8\x96\xb5*YaiA'
p26
tp27
Rp28
ag10
(g14
S'\x89\x16\xd9ND^iA'
p29
tp30
Rp31
ag10
(g14
S'\r\x1e\xcc\xef\x18riA'
p32
tp33
Rp34
ag10
(g14
S'\xe03\xec\xfa=jiA'
p35
tp36
Rp37
ag10
(g14
S'\x9d\x1a/\xfd\x8fYiA'
p38
tp39
Rp40
ag10
(g14
S'\xd0\xe8mE\xdbhiA'
p41
tp42
Rp43
ag10
(g14
S'4\xd0i\x9f\x97diA'
p44
tp45
Rp46
ag10
(g14
S'\xb9\x904\xb9%jiA'
p47
tp48
Rp49
ag10
(g14
S';\xb4\xc8\xf6DeiA'
p50
tp51
Rp52
ag10
(g14
S'J~\xb1H\x15fiA'
p53
tp54
Rp55
ag10
(g14
S'\xd4\xf7S\x03\tpiA'
p56
tp57
Rp58
ag10
(g14
S'a9\xb4\xbc\x10]iA'
p59
tp60
Rp61
ag10
(g14
S'\x00\x9d6p\xa8ciA'
p62
tp63
Rp64
ag10
(g14
S'\xc8\x13\xf5;wkiA'
p65
tp66
Rp67
ag10
(g14
S'\xc7\x92_T\xe4biA'
p68
tp69
Rp70
ag10
(g14
S'}[\xd6\x16\tkiA'
p71
tp72
Rp73
ag10
(g14
S'8Q\xff\xf2.aiA'
p74
tp75
Rp76
asS'target'
p77
(lp78
g10
(g14
S'\xe4\xd0"\xdb\xf9\x9eA@'
p79
tp80
Rp81
ag10
(g14
S'8^\xbaI\x0c\xf2A@'
p82
tp83
Rp84
ag10
(g14
S'\xdcMb\x10X\x19>@'
p85
tp86
Rp87
ag10
(g14
S'\xc4\xca\xa1E\xb6#B@'
p88
tp89
Rp90
ag10
(g14
S'\xa5\x9b\xc4 \xb02A@'
p91
tp92
Rp93
ag10
(g14
S'\xf4\xd2Mb\x10\xd8?@'
p94
tp95
Rp96
ag10
(g14
S':^\xbaI\x0c*@@'
p97
tp98
Rp99
ag10
(g14
S'\xd7x\xe9&1\x80C@'
p100
tp101
Rp102
ag10
(g14
S'c\x10X9\xb4\xd0@@'
p103
tp104
Rp105
ag10
(g14
S'\x9a\xc4 \xb0r\x08@@'
p106
tp107
Rp108
ag10
(g14
S'\x0f\xac\x1cZd\xdb>@'
p109
tp110
Rp111
ag10
(g14
S'\x82\xe9&1\x08\xac>@'
p112
tp113
Rp114
ag10
(g14
S'\xac\xc6K7\x89!D@'
p115
tp116
Rp117
ag10
(g14
S'\xb1\xf3\xfd\xd4x\xa9?@'
p118
tp119
Rp120
ag10
(g14
S'\xbc\xf3\xfd\xd4xI@@'
p121
tp122
Rp123
ag10
(g14
S'J\xe1z\x14\xae/@@'
p124
tp125
Rp126
ag10
(g14
S'}?5^\xba\xd9B@'
p127
tp128
Rp129
ag10
(g14
S'\xcav\xbe\x9f\x1a\xb7@@'
p130
tp131
Rp132
ag10
(g14
S'\xf6\xd2Mb\x10H@@'
p133
tp134
Rp135
ag10
(g14
S'\xde\xf9~j\xbcT?@'
p136
tp137
Rp138
asssss.