(dp0
S'../Data/sqlite_16.csv'
p1
(dp2
S'../Data/sqlite_59.csv'
p3
(dp4
F0.3
(dp5
S'mmre'
p6
(dp7
S'bellwether'
p8
(lp9
cnumpy.core.multiarray
scalar
p10
(cnumpy
dtype
p11
(S'f8'
p12
I0
I1
tp13
Rp14
(I3
S'<'
p15
NNNI-1
I-1
I0
tp16
bS';\x93\x10A\x06WU@'
p17
tp18
Rp19
ag10
(g14
S'\xa7\xb5\xd7\xc2xWU@'
p20
tp21
Rp22
ag10
(g14
S'9~M\x930WU@'
p23
tp24
Rp25
ag10
(g14
S'y\xd5\xc2\x8d\xaeUU@'
p26
tp27
Rp28
ag10
(g14
S']\xa4\x06\xd8\xaaYU@'
p29
tp30
Rp31
ag10
(g14
S'\x9e:\rv(VU@'
p32
tp33
Rp34
ag10
(g14
S'\x05\x7f0\x82\xf2WU@'
p35
tp36
Rp37
ag10
(g14
S'\x01O\xb6\x89\xa1WU@'
p38
tp39
Rp40
ag10
(g14
S'\xc5\xad\xfd\x02\xb8VU@'
p41
tp42
Rp43
ag10
(g14
S'\xa4\x7f\xe2\xf4\x10UU@'
p44
tp45
Rp46
ag10
(g14
S'@hI/5WU@'
p47
tp48
Rp49
ag10
(g14
S'\x1e\x10\x88\x1d/WU@'
p50
tp51
Rp52
ag10
(g14
S'\xa3\xce23\xf7XU@'
p53
tp54
Rp55
ag10
(g14
S'u\xa17\x1e\xaeXU@'
p56
tp57
Rp58
ag10
(g14
S'\xda\x80h\x17\x11YU@'
p59
tp60
Rp61
ag10
(g14
S'\t\x93s;\xd4XU@'
p62
tp63
Rp64
ag10
(g14
S'\xe9\x06tMnUU@'
p65
tp66
Rp67
ag10
(g14
S'i<\x93\x15\x04UU@'
p68
tp69
Rp70
ag10
(g14
S"'\xb3~\xa9\xfaVU@"
p71
tp72
Rp73
ag10
(g14
S'x\x89[\xf6\x0cVU@'
p74
tp75
Rp76
asS'target'
p77
(lp78
g10
(g14
S'tb\xd4\x0c\xc4Z&@'
p79
tp80
Rp81
ag10
(g14
S'\xab~,\x8fT\xa9$@'
p82
tp83
Rp84
ag10
(g14
S'\xa1\xea\x7fD\xa5d%@'
p85
tp86
Rp87
ag10
(g14
S'8\xd1\x84\x17\xd2\x87&@'
p88
tp89
Rp90
ag10
(g14
S'Yc\x1a\x14\xefJ%@'
p91
tp92
Rp93
ag10
(g14
S'\x9cD\xcc\xd0I\x16#@'
p94
tp95
Rp96
ag10
(g14
S'G\xb5lc\x1c\xcd%@'
p97
tp98
Rp99
ag10
(g14
S'_\x1a\xb04\xe3H&@'
p100
tp101
Rp102
ag10
(g14
S'\x87\xc0\xf1\x06\x1ac&@'
p103
tp104
Rp105
ag10
(g14
S'W\xa7\x8f!d<%@'
p106
tp107
Rp108
ag10
(g14
S'\x8e\x9a\x9e\xc3O\xfd%@'
p109
tp110
Rp111
ag10
(g14
S'\x88"\x10\xb6|\xbc%@'
p112
tp113
Rp114
ag10
(g14
S'\x9f\x86\x0cPS\x1c$@'
p115
tp116
Rp117
ag10
(g14
S'\xe9h\xe5,u\xbc$@'
p118
tp119
Rp120
ag10
(g14
S'[\xb0\xb8J\x99_&@'
p121
tp122
Rp123
ag10
(g14
S'hG6*\xea\x80$@'
p124
tp125
Rp126
ag10
(g14
S'X\xf3a\xdf\x19Q&@'
p127
tp128
Rp129
ag10
(g14
S'\x00\xa8,aqK%@'
p130
tp131
Rp132
ag10
(g14
S'\xf4\x01\xd5.dG%@'
p133
tp134
Rp135
ag10
(g14
S"\xc4\xfa,\x16Cs'@"
p136
tp137
Rp138
asssss.