(dp0
S'../Data/sqlite_57.csv'
p1
(dp2
S'../Data/sqlite_58.csv'
p3
(dp4
F0.1
(dp5
S'abs_res'
p6
(dp7
S'bellwether'
p8
(lp9
cnumpy.core.multiarray
scalar
p10
(cnumpy
dtype
p11
(S'f8'
p12
I0
I1
tp13
Rp14
(I3
S'<'
p15
NNNI-1
I-1
I0
tp16
bS'f9\xb4\x90\xf47jA'
p17
tp18
Rp19
ag10
(g14
S'\xc7 \xb0\xf6\xcc3jA'
p20
tp21
Rp22
ag10
(g14
S'(1\x08\xd8\xeb3jA'
p23
tp24
Rp25
ag10
(g14
S'!\xdb\xf9\xce\xd6:jA'
p26
tp27
Rp28
ag10
(g14
S'\xdfO\x8d\xc7\x0c4jA'
p29
tp30
Rp31
ag10
(g14
S"\x14\x83\xc0&Y'jA"
p32
tp33
Rp34
ag10
(g14
S'\x84\x95C\x9f*>jA'
p35
tp36
Rp37
ag10
(g14
S'\xdfz\x14B\xe64jA'
p38
tp39
Rp40
ag10
(g14
S'\xf3\xd2M\x16\xe03jA'
p41
tp42
Rp43
ag10
(g14
S'\x17\x83\xc0\x12+/jA'
p44
tp45
Rp46
ag10
(g14
S'_;\xdf;C0jA'
p47
tp48
Rp49
ag10
(g14
S'\xcev\xbeOb:jA'
p50
tp51
Rp52
ag10
(g14
S"'\\\x8f\xea\x9a;jA"
p53
tp54
Rp55
ag10
(g14
S'0\x08\xac\x18J.jA'
p56
tp57
Rp58
ag10
(g14
S'\x15\x04V^\xbe2jA'
p59
tp60
Rp61
ag10
(g14
S'z\x93\x18\xac\xc92jA'
p62
tp63
Rp64
ag10
(g14
S'M7\x89uJ/jA'
p65
tp66
Rp67
ag10
(g14
S'Nb\x10\xcc\x0b-jA'
p68
tp69
Rp70
ag10
(g14
S'\xd3Mb\x84\xb89jA'
p71
tp72
Rp73
ag10
(g14
S'1\xdd$\nN3jA'
p74
tp75
Rp76
asS'target'
p77
(lp78
g10
(g14
S'Fb\x10X9\xc4Z@'
p79
tp80
Rp81
ag10
(g14
S'2\\\x8f\xc2\xf5\x80Z@'
p82
tp83
Rp84
ag10
(g14
S'P`\xe5\xd0"\xa3Y@'
p85
tp86
Rp87
ag10
(g14
S'%\xdb\xf9~jL]@'
p88
tp89
Rp90
ag10
(g14
S'I\x0c\x02+\x87>Z@'
p91
tp92
Rp93
ag10
(g14
S'\xb5\xf5(\\\x8f\x02Y@'
p94
tp95
Rp96
ag10
(g14
S'U\x0e-\xb2\x9d\x87X@'
p97
tp98
Rp99
ag10
(g14
S'\xccv\xbe\x9f\x1aWY@'
p100
tp101
Rp102
ag10
(g14
S'\x8e\x97n\x12\x83\xa0Z@'
p103
tp104
Rp105
ag10
(g14
S'}\x14\xaeG\xe1\xaaY@'
p106
tp107
Rp108
ag10
(g14
S'\x84l\xe7\xfb\xa9a[@'
p109
tp110
Rp111
ag10
(g14
S'73333\xcbX@'
p112
tp113
Rp114
ag10
(g14
S'\xe6\xfb\xa9\xf1\xd2\xddY@'
p115
tp116
Rp117
ag10
(g14
S's\x93\x18\x04V\xfeZ@'
p118
tp119
Rp120
ag10
(g14
S'\xd5Mb\x10X\xa1\\@'
p121
tp122
Rp123
ag10
(g14
S'Q7\x89A`-Z@'
p124
tp125
Rp126
ag10
(g14
S'\xc2I\x0c\x02+\x9f[@'
p127
tp128
Rp129
ag10
(g14
S'G\n\xd7\xa3p\x85[@'
p130
tp131
Rp132
ag10
(g14
S'\x8f\x16\xd9\xce\xf7\xfbZ@'
p133
tp134
Rp135
ag10
(g14
S'V\xe3\xa5\x9b\xc4\xd0[@'
p136
tp137
Rp138
asssss.