(dp0
S'../Data/sqlite_42.csv'
p1
(dp2
S'../Data/sqlite_94.csv'
p3
(dp4
F0.35
(dp5
S'mmre'
p6
(dp7
S'bellwether'
p8
(lp9
cnumpy.core.multiarray
scalar
p10
(cnumpy
dtype
p11
(S'f8'
p12
I0
I1
tp13
Rp14
(I3
S'<'
p15
NNNI-1
I-1
I0
tp16
bS'\xc7$[,\xa4mX@'
p17
tp18
Rp19
ag10
(g14
S'Qj\x92\\\x8cnX@'
p20
tp21
Rp22
ag10
(g14
S'\x10$\xc0\xdd\rmX@'
p23
tp24
Rp25
ag10
(g14
S'\xe5\xcd\xf2\xdc\xd8lX@'
p26
tp27
Rp28
ag10
(g14
S'>\xc8C\xf6\x83lX@'
p29
tp30
Rp31
ag10
(g14
S'\xb9\xd5\xb0`{lX@'
p32
tp33
Rp34
ag10
(g14
S'\xcd\xfd*+\xc1kX@'
p35
tp36
Rp37
ag10
(g14
S'\xed\x8f\xca\x187nX@'
p38
tp39
Rp40
ag10
(g14
S'@\x87\xad\xcdGnX@'
p41
tp42
Rp43
ag10
(g14
S'c\x80Z\xb3\xc7lX@'
p44
tp45
Rp46
ag10
(g14
S'\n_\xd6{=lX@'
p47
tp48
Rp49
ag10
(g14
S'\x97\x89-S\x87mX@'
p50
tp51
Rp52
ag10
(g14
S"\xf4\xc8\xc5'flX@"
p53
tp54
Rp55
ag10
(g14
S'\x93)k\xd8\xf9jX@'
p56
tp57
Rp58
ag10
(g14
S'4\x9c?X\xa9mX@'
p59
tp60
Rp61
ag10
(g14
S'\x14\xf5\x03:\xd4lX@'
p62
tp63
Rp64
ag10
(g14
S'\xcd*Qs\xf2mX@'
p65
tp66
Rp67
ag10
(g14
S'\xbe\xa92\x9cplX@'
p68
tp69
Rp70
ag10
(g14
S'\xd6\xd4h\x92\xf0kX@'
p71
tp72
Rp73
ag10
(g14
S'U1w\x86voX@'
p74
tp75
Rp76
asS'target'
p77
(lp78
g10
(g14
S'\xe8\xf0\t\xd8\xb2sJ@'
p79
tp80
Rp81
ag10
(g14
S'`\xbe\xe3\xf0gfU@'
p82
tp83
Rp84
ag10
(g14
S'\x9b\xde\xca\xe8\x0e\x83S@'
p85
tp86
Rp87
ag10
(g14
S'\x11)\x05\x96\xdd9Q@'
p88
tp89
Rp90
ag10
(g14
S'o\xc0\x05\x14:\xccT@'
p91
tp92
Rp93
ag10
(g14
S'\tY\xecGb\x0fQ@'
p94
tp95
Rp96
ag10
(g14
S'\x06o\xf7\xd3/OS@'
p97
tp98
Rp99
ag10
(g14
S'\xb0g,\xb7:mR@'
p100
tp101
Rp102
ag10
(g14
S'\x82I\x9e\x18\xb2\x1dP@'
p103
tp104
Rp105
ag10
(g14
S'\xa4\xe7\xc2\xf9\x95MP@'
p106
tp107
Rp108
ag10
(g14
S'u\x84\xe5\xdcj"P@'
p109
tp110
Rp111
ag10
(g14
S'>$\xe9G\xb1\x1aP@'
p112
tp113
Rp114
ag10
(g14
S'\xfb9H\xac1\xe8V@'
p115
tp116
Rp117
ag10
(g14
S'\x7f=\x9f\xeb\xd9\xe0R@'
p118
tp119
Rp120
ag10
(g14
S'\x17oz\xe6\x17\xaaP@'
p121
tp122
Rp123
ag10
(g14
S'\xdc;\xb4\xc3\xe0HQ@'
p124
tp125
Rp126
ag10
(g14
S'\x85TV\xe2\x91\xd5R@'
p127
tp128
Rp129
ag10
(g14
S')\xf9\xb7\xa0\x02\x87X@'
p130
tp131
Rp132
ag10
(g14
S'a\x98:?\x14\x81M@'
p133
tp134
Rp135
ag10
(g14
S'W\x7f\xf4\x89B\xe1O@'
p136
tp137
Rp138
asssss.