(dp0
S'../Data/sqlite_46.csv'
p1
(dp2
S'../Data/sqlite_7.csv'
p3
(dp4
F0.05
(dp5
S'abs_res'
p6
(dp7
S'bellwether'
p8
(lp9
cnumpy.core.multiarray
scalar
p10
(cnumpy
dtype
p11
(S'f8'
p12
I0
I1
tp13
Rp14
(I3
S'<'
p15
NNNI-1
I-1
I0
tp16
bS'l\xbcts\xb3JBA'
p17
tp18
Rp19
ag10
(g14
S'\xc4\xca\xa1%\xceJBA'
p20
tp21
Rp22
ag10
(g14
S'1\x89A\xa0\xefJBA'
p23
tp24
Rp25
ag10
(g14
S'\xd4x\xe9\x06NJBA'
p26
tp27
Rp28
ag10
(g14
S'\xb1\x9b\xc4`\\JBA'
p29
tp30
Rp31
ag10
(g14
S'V\x0e-2AJBA'
p32
tp33
Rp34
ag10
(g14
S'\x8b\x97n\xd2\xb7JBA'
p35
tp36
Rp37
ag10
(g14
S'\xa7\x1a/\xcd\xc7JBA'
p38
tp39
Rp40
ag10
(g14
S'$\x06\x81E\xbdJBA'
p41
tp42
Rp43
ag10
(g14
S'5\xb4\xc8&iJBA'
p44
tp45
Rp46
ag10
(g14
S'\x02\xd5x\x99fJBA'
p47
tp48
Rp49
ag10
(g14
S'\x06+\x87\x16IJBA'
p50
tp51
Rp52
ag10
(g14
S'\xb6\xc8vN\x8aJBA'
p53
tp54
Rp55
ag10
(g14
S'\xaerhA\x13JBA'
p56
tp57
Rp58
ag10
(g14
S'\x11-\xb2=\xa0JBA'
p59
tp60
Rp61
ag10
(g14
S'\x1bZd+\x83JBA'
p62
tp63
Rp64
ag10
(g14
S'\xedQ\xb8\x1exJBA'
p65
tp66
Rp67
ag10
(g14
S'\xe9Q\xb8.\x9bJBA'
p68
tp69
Rp70
ag10
(g14
S'h;\xdf\xff\x80JBA'
p71
tp72
Rp73
ag10
(g14
S'\xa0\xef\xa7\x06\x85JBA'
p74
tp75
Rp76
asS'target'
p77
(lp78
g10
(g14
S'2\x89A`\xe5\x90n@'
p79
tp80
Rp81
ag10
(g14
S'\x9b\xed|?5`o@'
p82
tp83
Rp84
ag10
(g14
S'\xc0 \xb0rh\x11o@'
p85
tp86
Rp87
ag10
(g14
S'f=\n\xd7\xa3lo@'
p88
tp89
Rp90
ag10
(g14
S'%\x06\x81\x95C\xefo@'
p91
tp92
Rp93
ag10
(g14
S'\xb4\x1cZd;\xf7k@'
p94
tp95
Rp96
ag10
(g14
S'\xc7K7\x89A\x08m@'
p97
tp98
Rp99
ag10
(g14
S'\xa2\xf1\xd2Mb4k@'
p100
tp101
Rp102
ag10
(g14
S'\xae\x1cZd;\xffn@'
p103
tp104
Rp105
ag10
(g14
S'\x9f\xed|?5>m@'
p106
tp107
Rp108
ag10
(g14
S',3333\xf3l@'
p109
tp110
Rp111
ag10
(g14
S'\x17\xac\x1cZd_o@'
p112
tp113
Rp114
ag10
(g14
S'\xde\xd0"\xdb\xf9\xcah@'
p115
tp116
Rp117
ag10
(g14
S'\x14\xaeG\xe1z\x00p@'
p118
tp119
Rp120
ag10
(g14
S'\x96\xc4 \xb0r\x96q@'
p121
tp122
Rp123
ag10
(g14
S'>\n\xd7\xa3p\x8dt@'
p124
tp125
Rp126
ag10
(g14
S'\xb5\xca\xa1E\xb6/v@'
p127
tp128
Rp129
ag10
(g14
S'|\x14\xaeG\xe1\xcel@'
p130
tp131
Rp132
ag10
(g14
S'\xfb\xff\xff\xff\xff\xebr@'
p133
tp134
Rp135
ag10
(g14
S'h\xbct\x93\x18pp@'
p136
tp137
Rp138
asssss.