(dp0
S'../Data/sqlite_66.csv'
p1
(dp2
S'../Data/sqlite_14.csv'
p3
(dp4
F0.05
(dp5
S'abs_res'
p6
(dp7
S'bellwether'
p8
(lp9
cnumpy.core.multiarray
scalar
p10
(cnumpy
dtype
p11
(S'f8'
p12
I0
I1
tp13
Rp14
(I3
S'<'
p15
NNNI-1
I-1
I0
tp16
bS"\x03\xaa\xf1R\x14'$A"
p17
tp18
Rp19
ag10
(g14
S'\xf1\xa7\xc6\x8bc&$A'
p20
tp21
Rp22
ag10
(g14
S"\xb9\x9f\x1a/\x07'$A"
p23
tp24
Rp25
ag10
(g14
S"\xec\xb6\xac\x15L'$A"
p26
tp27
Rp28
ag10
(g14
S'\xa1\x9b\xc4`\xe7&$A'
p29
tp30
Rp31
ag10
(g14
S'\x14Zd{{&$A'
p32
tp33
Rp34
ag10
(g14
S"{\xe9&\xf1?'$A"
p35
tp36
Rp37
ag10
(g14
S"c;\xdfO\xdb'$A"
p38
tp39
Rp40
ag10
(g14
S"VH\x9a\x12('$A"
p41
tp42
Rp43
ag10
(g14
S"0\x08\xac\xdc,'$A"
p44
tp45
Rp46
ag10
(g14
S"\xeb&1\x88\x16'$A"
p47
tp48
Rp49
ag10
(g14
S"\xff\x0e\xe6\t\x85'$A"
p50
tp51
Rp52
ag10
(g14
S"?\x8bl'\xf4&$A"
p53
tp54
Rp55
ag10
(g14
S'X9\xb4\x08\xf0&$A'
p56
tp57
Rp58
ag10
(g14
S"5\x08\xac\x1cQ'$A"
p59
tp60
Rp61
ag10
(g14
S'"\xdb\xf9\xbe\x1f($A'
p62
tp63
Rp64
ag10
(g14
S's\xbe\x9f\x9a\xb0&$A'
p65
tp66
Rp67
ag10
(g14
S'\x99n\x12\x83\xe2&$A'
p68
tp69
Rp70
ag10
(g14
S'\x84\x97n\x92\xf0&$A'
p71
tp72
Rp73
ag10
(g14
S"\xfc\xa9\xf1RS'$A"
p74
tp75
Rp76
asS'target'
p77
(lp78
g10
(g14
S'\x87\x95C\x8bl+k@'
p79
tp80
Rp81
ag10
(g14
S'\x18\x04V\x0e-fg@'
p82
tp83
Rp84
ag10
(g14
S'\xe9|?5^\xcei@'
p85
tp86
Rp87
ag10
(g14
S'B\xdfO\x8d\x97ng@'
p88
tp89
Rp90
ag10
(g14
S'd9\xb4\xc8v\xbef@'
p91
tp92
Rp93
ag10
(g14
S'\x8c\xc2\xf5(\\\xdfj@'
p94
tp95
Rp96
ag10
(g14
S'\x11\xd9\xce\xf7S\xe7f@'
p97
tp98
Rp99
ag10
(g14
S'3\x08\xac\x1cZ0g@'
p100
tp101
Rp102
ag10
(g14
S'X\x8f\xc2\xf5(4k@'
p103
tp104
Rp105
ag10
(g14
S'\xb3\x9d\xef\xa7\xc6wg@'
p106
tp107
Rp108
ag10
(g14
S'A5^\xbaI\xc0j@'
p109
tp110
Rp111
ag10
(g14
S'\x14\xd9\xce\xf7SAh@'
p112
tp113
Rp114
ag10
(g14
S'\x9a\x1a/\xdd$&i@'
p115
tp116
Rp117
ag10
(g14
S'\xa6p=\n\xd7\x83e@'
p118
tp119
Rp120
ag10
(g14
S'C\xb6\xf3\xfd\xd4\xe0g@'
p121
tp122
Rp123
ag10
(g14
S'\xc2\xf5(\\\x8f\x06g@'
p124
tp125
Rp126
ag10
(g14
S'\xf3|?5^\xbao@'
p127
tp128
Rp129
ag10
(g14
S'\x14\xd7\xa3p=\xe2i@'
p130
tp131
Rp132
ag10
(g14
S'\xda\xf9~j\xbcdh@'
p133
tp134
Rp135
ag10
(g14
S'\xfa\xd2Mb\x10\x94k@'
p136
tp137
Rp138
asssss.