(dp0
S'../Data/sqlite_29.csv'
p1
(dp2
S'../Data/sqlite_28.csv'
p3
(dp4
F0.05
(dp5
S'abs_res'
p6
(dp7
S'bellwether'
p8
(lp9
cnumpy.core.multiarray
scalar
p10
(cnumpy
dtype
p11
(S'f8'
p12
I0
I1
tp13
Rp14
(I3
S'<'
p15
NNNI-1
I-1
I0
tp16
bS'\xa3\xc6K\x87)AEA'
p17
tp18
Rp19
ag10
(g14
S'\xde$\x06\xd1\x89AEA'
p20
tp21
Rp22
ag10
(g14
S',33\x13\xaeAEA'
p23
tp24
Rp25
ag10
(g14
S'\x99\x1a/\r\x03BEA'
p26
tp27
Rp28
ag10
(g14
S'B\x8d\x97N}AEA'
p29
tp30
Rp31
ag10
(g14
S'\x05X9\x14\x1aAEA'
p32
tp33
Rp34
ag10
(g14
S'\xfcS\xe3%\xf3@EA'
p35
tp36
Rp37
ag10
(g14
S'\\,\xf9uqAEA'
p38
tp39
Rp40
ag10
(g14
S'[;\xdf\x7f\xcfAEA'
p41
tp42
Rp43
ag10
(g14
S'Q9\xb4\xa8\x97AEA'
p44
tp45
Rp46
ag10
(g14
S'~\x95C+BAEA'
p47
tp48
Rp49
ag10
(g14
S'\xd3\xf9~\x9a{AEA'
p50
tp51
Rp52
ag10
(g14
S'E\xb6\xf3\x8d\x8fAEA'
p53
tp54
Rp55
ag10
(g14
S'\xf4\xf0\x19\x06AAEA'
p56
tp57
Rp58
ag10
(g14
S'\xf3\xd2M\x82\xde@EA'
p59
tp60
Rp61
ag10
(g14
S'\xa2aW\xd0vAEA'
p62
tp63
Rp64
ag10
(g14
S'C\xfd\x1bA]AEA'
p65
tp66
Rp67
ag10
(g14
S'\x8d\x97n\x92lAEA'
p68
tp69
Rp70
ag10
(g14
S'\x1f""\x02>AEA'
p71
tp72
Rp73
ag10
(g14
S'q!iZtAEA'
p74
tp75
Rp76
asS'target'
p77
(lp78
g10
(g14
S'V\xe3\xa5\x9b\xc4\x00c@'
p79
tp80
Rp81
ag10
(g14
S',\xdd$\x06\x81\x9da@'
p82
tp83
Rp84
ag10
(g14
S'|\x14\xaeG\xe1\x82b@'
p85
tp86
Rp87
ag10
(g14
S'\x1f\xd9\xce\xf7SWd@'
p88
tp89
Rp90
ag10
(g14
S'Fb\x10X9\xd4`@'
p91
tp92
Rp93
ag10
(g14
S'L\x8bl\xe7\xfb\xbdj@'
p94
tp95
Rp96
ag10
(g14
S'\xf0\xa7\xc6K7\xbda@'
p97
tp98
Rp99
ag10
(g14
S's\x91\xed|?\x19b@'
p100
tp101
Rp102
ag10
(g14
S'\xe6$\x06\x81\x95\xe3b@'
p103
tp104
Rp105
ag10
(g14
S'\x81\xc0\xca\xa1E\x92h@'
p106
tp107
Rp108
ag10
(g14
S'5^\xbaI\x0c2j@'
p109
tp110
Rp111
ag10
(g14
S'\xb3\xc8v\xbe\x9f\xbac@'
p112
tp113
Rp114
ag10
(g14
S'\xa9\x9b\xc4 \xb0\xb6a@'
p115
tp116
Rp117
ag10
(g14
S'E\xb6\xf3\xfd\xd4 d@'
p118
tp119
Rp120
ag10
(g14
S'q\x91\xed|?\x8da@'
p121
tp122
Rp123
ag10
(g14
S'\xf1\xd2Mb\x10\xa4c@'
p124
tp125
Rp126
ag10
(g14
S'-1\x08\xac\x1c*b@'
p127
tp128
Rp129
ag10
(g14
S'\xf9\xff\xff\xff\xff3c@'
p130
tp131
Rp132
ag10
(g14
S'K\x8d\x97n\x12\xa7b@'
p133
tp134
Rp135
ag10
(g14
S'\xe6\xfb\xa9\xf1\xd2%c@'
p136
tp137
Rp138
asssss.