(dp0
S'../Data/sqlite_64.csv'
p1
(dp2
S'../Data/sqlite_77.csv'
p3
(dp4
F0.15
(dp5
S'mmre'
p6
(dp7
S'bellwether'
p8
(lp9
cnumpy.core.multiarray
scalar
p10
(cnumpy
dtype
p11
(S'f8'
p12
I0
I1
tp13
Rp14
(I3
S'<'
p15
NNNI-1
I-1
I0
tp16
bS'\x84HdP,@S@'
p17
tp18
Rp19
ag10
(g14
S'\x87C$\xf7YMS@'
p20
tp21
Rp22
ag10
(g14
S'\x83\xc6M4\x97HS@'
p23
tp24
Rp25
ag10
(g14
S'-\nf\xa5\xb3JS@'
p26
tp27
Rp28
ag10
(g14
S'>\x1b!s\x18KS@'
p29
tp30
Rp31
ag10
(g14
S'o\xc8\x9edAJS@'
p32
tp33
Rp34
ag10
(g14
S'N\x9cI\xde\xb0OS@'
p35
tp36
Rp37
ag10
(g14
S'\x869l)`FS@'
p38
tp39
Rp40
ag10
(g14
S'\xf5-1\xf3\xc2GS@'
p41
tp42
Rp43
ag10
(g14
S'\\Hu\xd3\x91@S@'
p44
tp45
Rp46
ag10
(g14
S'?xf\xf6\xcfHS@'
p47
tp48
Rp49
ag10
(g14
S'\xb67\xbf\x04\xe4BS@'
p50
tp51
Rp52
ag10
(g14
S'p\xed\xa6\x9c\xacDS@'
p53
tp54
Rp55
ag10
(g14
S'4\xacU\x88\xb8=S@'
p56
tp57
Rp58
ag10
(g14
S'\x89\xe9\xd2\x1cYIS@'
p59
tp60
Rp61
ag10
(g14
S' 0\x16\xaa\xa2MS@'
p62
tp63
Rp64
ag10
(g14
S'A\xd3\x90n\xd7ES@'
p65
tp66
Rp67
ag10
(g14
S'\xbb{\xff\x0c\x9bHS@'
p68
tp69
Rp70
ag10
(g14
S'/\xbf\x16z\xc4HS@'
p71
tp72
Rp73
ag10
(g14
S'\x0b\xdf\xeb\xcd\xfeHS@'
p74
tp75
Rp76
asS'target'
p77
(lp78
g10
(g14
S'6\xf4\xca\xf7\xa6>8@'
p79
tp80
Rp81
ag10
(g14
S"d9\xba\xed'\x815@"
p82
tp83
Rp84
ag10
(g14
S'X\xe8{\xf3Y\xd54@'
p85
tp86
Rp87
ag10
(g14
S'\x94\x98]?\xfa\xdd5@'
p88
tp89
Rp90
ag10
(g14
S'l[h0\xa9R5@'
p91
tp92
Rp93
ag10
(g14
S'+tq_\xe1S4@'
p94
tp95
Rp96
ag10
(g14
S'\xbeR\xa9\xa0\x14\xb96@'
p97
tp98
Rp99
ag10
(g14
S'\xa0\xf9\xd6:\xb1\xb96@'
p100
tp101
Rp102
ag10
(g14
S'0?\x82\x08\x90\x1e5@'
p103
tp104
Rp105
ag10
(g14
S'\x99\xfc\xaa"T\x937@'
p106
tp107
Rp108
ag10
(g14
S'^p\x17R\x1e\x985@'
p109
tp110
Rp111
ag10
(g14
S'\xb5\x85\xe4\xbb\xae"7@'
p112
tp113
Rp114
ag10
(g14
S'\xd8\xc3\xda\x81\x19\xd14@'
p115
tp116
Rp117
ag10
(g14
S'\xc42\xfb0kI6@'
p118
tp119
Rp120
ag10
(g14
S'\xf8\xd2\xc7\xb3\xebG6@'
p121
tp122
Rp123
ag10
(g14
S'K\xd5=\x9eq\xd56@'
p124
tp125
Rp126
ag10
(g14
S'2\x02Z\x85\xaek5@'
p127
tp128
Rp129
ag10
(g14
S'\xa9\x1cI\x00_i5@'
p130
tp131
Rp132
ag10
(g14
S'l\xba\xa6\xe2\xa9\xb34@'
p133
tp134
Rp135
ag10
(g14
S'\xdf#\\\xc7\xd5\xd46@'
p136
tp137
Rp138
asssss.