(dp0
S'../Data/sqlite_36.csv'
p1
(dp2
S'../Data/sqlite_77.csv'
p3
(dp4
F0.1
(dp5
S'mmre'
p6
(dp7
S'bellwether'
p8
(lp9
cnumpy.core.multiarray
scalar
p10
(cnumpy
dtype
p11
(S'f8'
p12
I0
I1
tp13
Rp14
(I3
S'<'
p15
NNNI-1
I-1
I0
tp16
bS'\xe3\x07gy\xe6[V@'
p17
tp18
Rp19
ag10
(g14
S'\x80\xd6\xf7\x0c\xdf[V@'
p20
tp21
Rp22
ag10
(g14
S'\x1d\xc8\x02+4]V@'
p23
tp24
Rp25
ag10
(g14
S'y4@MW[V@'
p26
tp27
Rp28
ag10
(g14
S'\xf9\x86k\xc1\xba\\V@'
p29
tp30
Rp31
ag10
(g14
S'\xff\xae}M\xe3[V@'
p32
tp33
Rp34
ag10
(g14
S'_\xa3\x8d\xb0.]V@'
p35
tp36
Rp37
ag10
(g14
S'\xc3\t\xb9\x9bs]V@'
p38
tp39
Rp40
ag10
(g14
S'\x1btj\xe7\xc9YV@'
p41
tp42
Rp43
ag10
(g14
S'I5rn\xe8[V@'
p44
tp45
Rp46
ag10
(g14
S'\xb0\x12W\xca,\\V@'
p47
tp48
Rp49
ag10
(g14
S'x\xc1\xfaM\x07\\V@'
p50
tp51
Rp52
ag10
(g14
S'\x81\t76L\\V@'
p53
tp54
Rp55
ag10
(g14
S'}\xa9\x95\xfeD]V@'
p56
tp57
Rp58
ag10
(g14
S'%\xdc\x08g\x82ZV@'
p59
tp60
Rp61
ag10
(g14
S'\xc0\xc5\xbc\x19\x1b^V@'
p62
tp63
Rp64
ag10
(g14
S'\xd5hMyx[V@'
p65
tp66
Rp67
ag10
(g14
S'\x9b\xeaJ\xf7*\\V@'
p68
tp69
Rp70
ag10
(g14
S'\x99j\\HT]V@'
p71
tp72
Rp73
ag10
(g14
S'\xda\x8c\x96\xc7\x0bZV@'
p74
tp75
Rp76
asS'target'
p77
(lp78
g10
(g14
S'.\x80\xc35\xd0S6@'
p79
tp80
Rp81
ag10
(g14
S'\xf8Ly\xe8\xcbB5@'
p82
tp83
Rp84
ag10
(g14
S'\xc2t\xd9B\xa1p5@'
p85
tp86
Rp87
ag10
(g14
S'\x87\x1a\x8c\xaaJ}5@'
p88
tp89
Rp90
ag10
(g14
S'\xfe\xc6A\xf1\xe726@'
p91
tp92
Rp93
ag10
(g14
S'\x0f\x1d+\x94\xca36@'
p94
tp95
Rp96
ag10
(g14
S'>\x000Y\x99\xed4@'
p97
tp98
Rp99
ag10
(g14
S'u-\xb0\xc4h\xe65@'
p100
tp101
Rp102
ag10
(g14
S'@\xeeA\xb7S\xa48@'
p103
tp104
Rp105
ag10
(g14
S'\xa0lQe\xa2D4@'
p106
tp107
Rp108
ag10
(g14
S'\x9c\xca_(.\xd25@'
p109
tp110
Rp111
ag10
(g14
S'\xd7}\xcd\x92,b8@'
p112
tp113
Rp114
ag10
(g14
S'Va\xf8\xc1W\xb25@'
p115
tp116
Rp117
ag10
(g14
S'E\x81-\xf62P4@'
p118
tp119
Rp120
ag10
(g14
S'9\xe0X\xe8\xaf\xc74@'
p121
tp122
Rp123
ag10
(g14
S'_evx\xcc\xba5@'
p124
tp125
Rp126
ag10
(g14
S'\x1d\x8f%\xd2\xc6\xb45@'
p127
tp128
Rp129
ag10
(g14
S'1\x10\x83\x8b\x83\x857@'
p130
tp131
Rp132
ag10
(g14
S'\xdd4 ABC7@'
p133
tp134
Rp135
ag10
(g14
S'y_%\x12\x11\xcb7@'
p136
tp137
Rp138
asssss.