(dp0
S'../Data/sqlite_36.csv'
p1
(dp2
S'../Data/sqlite_89.csv'
p3
(dp4
F0.4
(dp5
S'mmre'
p6
(dp7
S'bellwether'
p8
(lp9
cnumpy.core.multiarray
scalar
p10
(cnumpy
dtype
p11
(S'f8'
p12
I0
I1
tp13
Rp14
(I3
S'<'
p15
NNNI-1
I-1
I0
tp16
bS'\x14k\xce1\x96HS@'
p17
tp18
Rp19
ag10
(g14
S'\x18\xfcqy\x88cS@'
p20
tp21
Rp22
ag10
(g14
S'\x95@iGZYS@'
p23
tp24
Rp25
ag10
(g14
S'\x8f\xe7\x97*\xeb`S@'
p26
tp27
Rp28
ag10
(g14
S'+\x08T\x0e\x89\x81S@'
p29
tp30
Rp31
ag10
(g14
S'o\x14k\x96\xeapS@'
p32
tp33
Rp34
ag10
(g14
S'\xf6(0\xe8\xb1kS@'
p35
tp36
Rp37
ag10
(g14
S')\x1b\xfc\x06\x8cmS@'
p38
tp39
Rp40
ag10
(g14
S";\x1f\xfe#'_S@"
p41
tp42
Rp43
ag10
(g14
S'B\x04\x9d&\xa5jS@'
p44
tp45
Rp46
ag10
(g14
S'Y\x02\xf82\xac}S@'
p47
tp48
Rp49
ag10
(g14
S'\xb0$\x9d\xb62\\S@'
p50
tp51
Rp52
ag10
(g14
S'3\x02q\x87ZeS@'
p53
tp54
Rp55
ag10
(g14
S'\xc8ta\xbewXS@'
p56
tp57
Rp58
ag10
(g14
S'y\xbc\x8e\xf7vcS@'
p59
tp60
Rp61
ag10
(g14
S'O7\xc4\x9c\x0evS@'
p62
tp63
Rp64
ag10
(g14
S'\xa4&\n\xe2\xdc]S@'
p65
tp66
Rp67
ag10
(g14
S'\x1a\xa5\x8e\xb1GaS@'
p68
tp69
Rp70
ag10
(g14
S'\x19j\x9e(|aS@'
p71
tp72
Rp73
ag10
(g14
S'\x16\x8c;\x9cK^S@'
p74
tp75
Rp76
asS'target'
p77
(lp78
g10
(g14
S'YX\x0cnc\xe4S@'
p79
tp80
Rp81
ag10
(g14
S'"&u\x90\xea S@'
p82
tp83
Rp84
ag10
(g14
S'/O\xf0!5\xf2R@'
p85
tp86
Rp87
ag10
(g14
S'\xe1\x11\xc7\x94\x02\x0fO@'
p88
tp89
Rp90
ag10
(g14
S'\xbb\x95l\xd6\xdb\xe8K@'
p91
tp92
Rp93
ag10
(g14
S'\x89\x98\xeb\xc2\xdd9H@'
p94
tp95
Rp96
ag10
(g14
S'\xcf%\xa4\xafc\xceN@'
p97
tp98
Rp99
ag10
(g14
S'\xe4li|\xdbMO@'
p100
tp101
Rp102
ag10
(g14
S'\xf34\xf9Z\xfaGS@'
p103
tp104
Rp105
ag10
(g14
S'\xca\xec~\xfd\xb5!P@'
p106
tp107
Rp108
ag10
(g14
S'?\x99p\x93-\xdfP@'
p109
tp110
Rp111
ag10
(g14
S'>\xb1\x88\x80F@T@'
p112
tp113
Rp114
ag10
(g14
S'\xc89\xcaR\x11\xb3P@'
p115
tp116
Rp117
ag10
(g14
S'\xf0^\xb8rX\xcaS@'
p118
tp119
Rp120
ag10
(g14
S'\xe9\xbd\x1fY\x94^O@'
p121
tp122
Rp123
ag10
(g14
S'\rZ\x1f0\xa1\xedK@'
p124
tp125
Rp126
ag10
(g14
S'\x1e}q\xfa>CP@'
p127
tp128
Rp129
ag10
(g14
S'\xca\x80\x82G<SQ@'
p130
tp131
Rp132
ag10
(g14
S'\xe5Ys/k\xffQ@'
p133
tp134
Rp135
ag10
(g14
S'\x0b\xd0O\xc6\x98\x7fQ@'
p136
tp137
Rp138
asssss.