(dp0
S'../Data/sqlite_32.csv'
p1
(dp2
S'../Data/sqlite_30.csv'
p3
(dp4
F0.25
(dp5
S'abs_res'
p6
(dp7
S'bellwether'
p8
(lp9
cnumpy.core.multiarray
scalar
p10
(cnumpy
dtype
p11
(S'f8'
p12
I0
I1
tp13
Rp14
(I3
S'<'
p15
NNNI-1
I-1
I0
tp16
bS'\xce"\xdb\xd9OWAA'
p17
tp18
Rp19
ag10
(g14
S'\x06\x81\x95\xd3\xe3ZAA'
p20
tp21
Rp22
ag10
(g14
S'u\x93\x18d\xebYAA'
p23
tp24
Rp25
ag10
(g14
S'\x8eC\x8bL\x8cYAA'
p26
tp27
Rp28
ag10
(g14
S'\xa7E\xb6\xe3\xc7[AA'
p29
tp30
Rp31
ag10
(g14
S'\x17\x04V\x9eoWAA'
p32
tp33
Rp34
ag10
(g14
S'o=\n\xc7\x07VAA'
p35
tp36
Rp37
ag10
(g14
S"'1\x08,{YAA"
p38
tp39
Rp40
ag10
(g14
S'\xd8x\xe9\x86\x15[AA'
p41
tp42
Rp43
ag10
(g14
S'\xd8\xa3pM\tWAA'
p44
tp45
Rp46
ag10
(g14
S'\x1f\xb0r8\xb5YAA'
p47
tp48
Rp49
ag10
(g14
S'ph\x91\xfd\tZAA'
p50
tp51
Rp52
ag10
(g14
S'E\x8blW/ZAA'
p53
tp54
Rp55
ag10
(g14
S'x\x14\xae\xe7\x13YAA'
p56
tp57
Rp58
ag10
(g14
S'\xc9K7YJZAA'
p59
tp60
Rp61
ag10
(g14
S'F\x8blGFZAA'
p62
tp63
Rp64
ag10
(g14
S'\x8a\xebQX\xa5VAA'
p65
tp66
Rp67
ag10
(g14
S'\n\xac\x1c\xca-[AA'
p68
tp69
Rp70
ag10
(g14
S'}?5^[ZAA'
p71
tp72
Rp73
ag10
(g14
S'\xcf\xcc\xcc\x9c\x1eZAA'
p74
tp75
Rp76
asS'target'
p77
(lp78
g10
(g14
S'\x9d\x99\x99\x99\x99a@@'
p79
tp80
Rp81
ag10
(g14
S'O7\x89A`E@@'
p82
tp83
Rp84
ag10
(g14
S'V\xe3\xa5\x9b\xc4(@@'
p85
tp86
Rp87
ag10
(g14
S'p\x93\x18\x04V\xbe=@'
p88
tp89
Rp90
ag10
(g14
S'_\xbaI\x0c\x02\x8b<@'
p91
tp92
Rp93
ag10
(g14
S'03333\xf3>@'
p94
tp95
Rp96
ag10
(g14
S'\xf2\xfd\xd4x\xe9\xd6B@'
p97
tp98
Rp99
ag10
(g14
S"'\x06\x81\x95C\xfb@@"
p100
tp101
Rp102
ag10
(g14
S'\xd8\xf9~j\xbc\x14B@'
p103
tp104
Rp105
ag10
(g14
S'{\x14\xaeG\xe1\x9a@@'
p106
tp107
Rp108
ag10
(g14
S'(\x08\xac\x1cZ\xc4A@'
p109
tp110
Rp111
ag10
(g14
S'\x17\x04V\x0e-\xd2:@'
p112
tp113
Rp114
ag10
(g14
S'\xca\xa1E\xb6\xf3\x8dC@'
p115
tp116
Rp117
ag10
(g14
S'\x1b\x85\xebQ\xb8\xae=@'
p118
tp119
Rp120
ag10
(g14
S'J\xe1z\x14\xae\xe7<@'
p121
tp122
Rp123
ag10
(g14
S'@\xb6\xf3\xfd\xd4x;@'
p124
tp125
Rp126
ag10
(g14
S'\xdb\xce\xf7S\xe3U@@'
p127
tp128
Rp129
ag10
(g14
S'\x9c\x1a/\xdd$\x06A@'
p130
tp131
Rp132
ag10
(g14
S'\xcf\xf7S\xe3\xa53@@'
p133
tp134
Rp135
ag10
(g14
S'\xb4\x1e\x85\xebQ\xf8:@'
p136
tp137
Rp138
asssss.