(dp0
S'../Data/sqlite_22.csv'
p1
(dp2
S'../Data/sqlite_59.csv'
p3
(dp4
F0.1
(dp5
S'mmre'
p6
(dp7
S'bellwether'
p8
(lp9
cnumpy.core.multiarray
scalar
p10
(cnumpy
dtype
p11
(S'f8'
p12
I0
I1
tp13
Rp14
(I3
S'<'
p15
NNNI-1
I-1
I0
tp16
bS'e\xba\xe8\x0e\xcd7T@'
p17
tp18
Rp19
ag10
(g14
S'\xf5\x9cy\xacG9T@'
p20
tp21
Rp22
ag10
(g14
S'\xca\xeb\xe1\x14\xdd7T@'
p23
tp24
Rp25
ag10
(g14
S'\xb1q\x9dTk7T@'
p26
tp27
Rp28
ag10
(g14
S'\xba}pI\xdd7T@'
p29
tp30
Rp31
ag10
(g14
S"\x9f\xb0N\xbe'9T@"
p32
tp33
Rp34
ag10
(g14
S'G\x8bQ\xb1y9T@'
p35
tp36
Rp37
ag10
(g14
S'\x91o\x0c(L<T@'
p38
tp39
Rp40
ag10
(g14
S'?T\x8c\x8ek8T@'
p41
tp42
Rp43
ag10
(g14
S'O\xab\xf8\xe8R7T@'
p44
tp45
Rp46
ag10
(g14
S'f`wf\x8a6T@'
p47
tp48
Rp49
ag10
(g14
S'b\xb7\x1c\xed\xb7;T@'
p50
tp51
Rp52
ag10
(g14
S'\x99?S\x81\x079T@'
p53
tp54
Rp55
ag10
(g14
S'M:\xb5\xf0P<T@'
p56
tp57
Rp58
ag10
(g14
S'\x06@@\x9b]:T@'
p59
tp60
Rp61
ag10
(g14
S'0\x80\xaf\x86\x0f8T@'
p62
tp63
Rp64
ag10
(g14
S'J\x0e\xc4\xd6v;T@'
p65
tp66
Rp67
ag10
(g14
S'\x99\xf9\xb8*\xeb6T@'
p68
tp69
Rp70
ag10
(g14
S'\x05Yi\r\x8c:T@'
p71
tp72
Rp73
ag10
(g14
S'\xd1\xd49:\xa2:T@'
p74
tp75
Rp76
asS'target'
p77
(lp78
g10
(g14
S'\x90\xc2\x0f\xc7\xb5%(@'
p79
tp80
Rp81
ag10
(g14
S'\xe2\x85\xb7\xf3\x05#%@'
p82
tp83
Rp84
ag10
(g14
S'\x90\x8d\x0f\x90 t&@'
p85
tp86
Rp87
ag10
(g14
S'\x98\xac\xfd:XR&@'
p88
tp89
Rp90
ag10
(g14
S"\xed\x10\xa4G\xdf\x01'@"
p91
tp92
Rp93
ag10
(g14
S'i\xe0\x7f[1i&@'
p94
tp95
Rp96
ag10
(g14
S"k\xa5\xd9\xf6a '@"
p97
tp98
Rp99
ag10
(g14
S'b\xc9].\xf0\xc1$@'
p100
tp101
Rp102
ag10
(g14
S'\x95\x079e\xc63&@'
p103
tp104
Rp105
ag10
(g14
S'\x13)\x88\x1a+\x9c&@'
p106
tp107
Rp108
ag10
(g14
S'D,\xb3\xb0+\xea%@'
p109
tp110
Rp111
ag10
(g14
S'\xdb\xc9c\xa1#6%@'
p112
tp113
Rp114
ag10
(g14
S'\t\x00w\xc4Um(@'
p115
tp116
Rp117
ag10
(g14
S'\x92\x1d\xd8\x92v\xb6%@'
p118
tp119
Rp120
ag10
(g14
S'vI\x03fch&@'
p121
tp122
Rp123
ag10
(g14
S'-e\x07\x16\x92\x85$@'
p124
tp125
Rp126
ag10
(g14
S'\xc5 \xe8\xc82\x87%@'
p127
tp128
Rp129
ag10
(g14
S'^\xac\xbe\xfc\xa6\xb8$@'
p130
tp131
Rp132
ag10
(g14
S"9\x99\x92\xb0N\x04'@"
p133
tp134
Rp135
ag10
(g14
S'\x11*F\xf7@!%@'
p136
tp137
Rp138
asssss.