(dp0
S'../Data/sqlite_32.csv'
p1
(dp2
S'../Data/sqlite_37.csv'
p3
(dp4
F0.25
(dp5
S'abs_res'
p6
(dp7
S'bellwether'
p8
(lp9
cnumpy.core.multiarray
scalar
p10
(cnumpy
dtype
p11
(S'f8'
p12
I0
I1
tp13
Rp14
(I3
S'<'
p15
NNNI-1
I-1
I0
tp16
bS'\xbe\x1e\x85;\xddWAA'
p17
tp18
Rp19
ag10
(g14
S'\x16\xaeG1?XAA'
p20
tp21
Rp22
ag10
(g14
S'\x08V\x0em\x16ZAA'
p23
tp24
Rp25
ag10
(g14
S'\xefQ\xb8n%[AA'
p26
tp27
Rp28
ag10
(g14
S'h\x10X\x99;ZAA'
p29
tp30
Rp31
ag10
(g14
S'\xa0\x1a/\x8d\x8bXAA'
p32
tp33
Rp34
ag10
(g14
S'6\x08\xacL>ZAA'
p35
tp36
Rp37
ag10
(g14
S'\xf1Q\xb8\xbelZAA'
p38
tp39
Rp40
ag10
(g14
S'\xfd\xa9\xf1\xc2\xcdZAA'
p41
tp42
Rp43
ag10
(g14
S'\xda\xa3p\xfd\xa6ZAA'
p44
tp45
Rp46
ag10
(g14
S'\tV\x0e=\x81WAA'
p47
tp48
Rp49
ag10
(g14
S'\x80\x14\xae\x97hYAA'
p50
tp51
Rp52
ag10
(g14
S'\xfc\xd4x\xe9~ZAA'
p53
tp54
Rp55
ag10
(g14
S'Q7\x89\x81\xd2ZAA'
p56
tp57
Rp58
ag10
(g14
S'\xa5E\xb6\xc3\xd3YAA'
p59
tp60
Rp61
ag10
(g14
S'\x03\xd5xY\x15XAA'
p62
tp63
Rp64
ag10
(g14
S'\xfa\xd2M\x02\xc9ZAA'
p65
tp66
Rp67
ag10
(g14
S'\xc0\x9f\x1a_\xfbYAA'
p68
tp69
Rp70
ag10
(g14
S'\xad\xf1\xd2MyYAA'
p71
tp72
Rp73
ag10
(g14
S'\xdd\xce\xf7c\xf3ZAA'
p74
tp75
Rp76
asS'target'
p77
(lp78
g10
(g14
S'qh\x91\xed|\x7fL@'
p79
tp80
Rp81
ag10
(g14
S'>\xdfO\x8d\x97\xceN@'
p82
tp83
Rp84
ag10
(g14
S'wh\x91\xed|OM@'
p85
tp86
Rp87
ag10
(g14
S'gffff\xa6M@'
p88
tp89
Rp90
ag10
(g14
S'\x1a\x04V\x0e-jL@'
p91
tp92
Rp93
ag10
(g14
S'\xba\x1e\x85\xebQ\xe8N@'
p94
tp95
Rp96
ag10
(g14
S'\xd6\xa3p=\n\x0fM@'
p97
tp98
Rp99
ag10
(g14
S"'\x08\xac\x1cZTN@"
p100
tp101
Rp102
ag10
(g14
S'\xd9\xa3p=\n\xf7M@'
p103
tp104
Rp105
ag10
(g14
S'B\xb4\xc8v\xbe\x1fM@'
p106
tp107
Rp108
ag10
(g14
S'\x7f\xebQ\xb8\x1e%M@'
p109
tp110
Rp111
ag10
(g14
S'Rd;\xdfO]O@'
p112
tp113
Rp114
ag10
(g14
S'51\x08\xac\x1c\nN@'
p115
tp116
Rp117
ag10
(g14
S'\xe1\xf9~j\xbc,N@'
p118
tp119
Rp120
ag10
(g14
S'\xbb\x9f\x1a/\xdd\x94N@'
p121
tp122
Rp123
ag10
(g14
S'!\x85\xebQ\xb8\xdeL@'
p124
tp125
Rp126
ag10
(g14
S'\x8dl\xe7\xfb\xa9\xc1M@'
p127
tp128
Rp129
ag10
(g14
S'\x86\x95C\x8bl\xd7L@'
p130
tp131
Rp132
ag10
(g14
S'T\x0c\x02+\x87\x96M@'
p133
tp134
Rp135
ag10
(g14
S'\xab\x1cZd;\xffN@'
p136
tp137
Rp138
asssss.