(dp0
S'../Data/sqlite_8.csv'
p1
(dp2
S'../Data/sqlite_76.csv'
p3
(dp4
F0.4
(dp5
S'mmre'
p6
(dp7
S'bellwether'
p8
(lp9
cnumpy.core.multiarray
scalar
p10
(cnumpy
dtype
p11
(S'f8'
p12
I0
I1
tp13
Rp14
(I3
S'<'
p15
NNNI-1
I-1
I0
tp16
bS'\x8dp\xee9\x19BV@'
p17
tp18
Rp19
ag10
(g14
S'.\xbf\x8a\x85HBV@'
p20
tp21
Rp22
ag10
(g14
S'l\x8b\x0c\x10\xf6CV@'
p23
tp24
Rp25
ag10
(g14
S'\x06\xe9\x83K\xd5BV@'
p26
tp27
Rp28
ag10
(g14
S'0\xa5\x9do\xd8@V@'
p29
tp30
Rp31
ag10
(g14
S'\xfb2,B\xb6@V@'
p32
tp33
Rp34
ag10
(g14
S'\xc5\xddn\x03i?V@'
p35
tp36
Rp37
ag10
(g14
S'mRW\xdf\x19EV@'
p38
tp39
Rp40
ag10
(g14
S'\x96\x12!u\xc7BV@'
p41
tp42
Rp43
ag10
(g14
S'\x9cD\x15\xc0-GV@'
p44
tp45
Rp46
ag10
(g14
S'\xc0\x92\x0c\x0c\xe2CV@'
p47
tp48
Rp49
ag10
(g14
S'?\xd9\x14\xc8`CV@'
p50
tp51
Rp52
ag10
(g14
S'\xc8^\x04\xcd\xb6BV@'
p53
tp54
Rp55
ag10
(g14
S'\r\x95\x95=\xddEV@'
p56
tp57
Rp58
ag10
(g14
S'}\x18:<\xa4BV@'
p59
tp60
Rp61
ag10
(g14
S'X\xac\x94\x99[DV@'
p62
tp63
Rp64
ag10
(g14
S'\xb5\xab\x93\xcc\x08CV@'
p65
tp66
Rp67
ag10
(g14
S',\x8b=\x0eTCV@'
p68
tp69
Rp70
ag10
(g14
S'\xc8\x8fO\x9b\x95>V@'
p71
tp72
Rp73
ag10
(g14
S'\xd3\xa9\xcd;0AV@'
p74
tp75
Rp76
asS'target'
p77
(lp78
g10
(g14
S'\xebB\xcbO\xa0\xeb0@'
p79
tp80
Rp81
ag10
(g14
S'\xe5\x1b\x8e\xac\x80L1@'
p82
tp83
Rp84
ag10
(g14
S'f7\xe9_\xbfJ2@'
p85
tp86
Rp87
ag10
(g14
S'\x0f\xa0v\x89D\xb30@'
p88
tp89
Rp90
ag10
(g14
S'_\x97\xaa\xb2\xe1\x061@'
p91
tp92
Rp93
ag10
(g14
S'>9\x1brn\xe00@'
p94
tp95
Rp96
ag10
(g14
S'\x8aD\xf6}j\x151@'
p97
tp98
Rp99
ag10
(g14
S'D#\x89\x83~\x880@'
p100
tp101
Rp102
ag10
(g14
S'\x1e\xccpynO1@'
p103
tp104
Rp105
ag10
(g14
S'\xcb5\x97Tp10@'
p106
tp107
Rp108
ag10
(g14
S'^\xe7@\n\xd4\x902@'
p109
tp110
Rp111
ag10
(g14
S'\xb1\xa0QZ\xed\xd80@'
p112
tp113
Rp114
ag10
(g14
S'b\x0f\xfe\x9c\xf6u1@'
p115
tp116
Rp117
ag10
(g14
S'\x7f#jp\x10\x991@'
p118
tp119
Rp120
ag10
(g14
S'\xc9\xfa\x0e\x85\xe4\xae0@'
p121
tp122
Rp123
ag10
(g14
S'\xcf9\r\xdb)\xf32@'
p124
tp125
Rp126
ag10
(g14
S'\t\x84\x8bB\xf1y1@'
p127
tp128
Rp129
ag10
(g14
S'\xe6\xb8:\xfat\xb40@'
p130
tp131
Rp132
ag10
(g14
S'\x88a\xe5\xfe.\x0b2@'
p133
tp134
Rp135
ag10
(g14
S'\xb2t\x96f\x8e"1@'
p136
tp137
Rp138
asssss.