(dp0
S'../Data/sqlite_74.csv'
p1
(dp2
S'../Data/sqlite_65.csv'
p3
(dp4
F0.25
(dp5
S'abs_res'
p6
(dp7
S'bellwether'
p8
(lp9
cnumpy.core.multiarray
scalar
p10
(cnumpy
dtype
p11
(S'f8'
p12
I0
I1
tp13
Rp14
(I3
S'<'
p15
NNNI-1
I-1
I0
tp16
bS'\xab\xb9\x90\x84EYiA'
p17
tp18
Rp19
ag10
(g14
S'v\x842\n!IiA'
p20
tp21
Rp22
ag10
(g14
S'\x13-\xb2iIsiA'
p23
tp24
Rp25
ag10
(g14
S'.z[\x1a\x8coiA'
p26
tp27
Rp28
ag10
(g14
S'\xc4K7\x915diA'
p29
tp30
Rp31
ag10
(g14
S'\xcc\x92_\xf8*UiA'
p32
tp33
Rp34
ag10
(g14
S'\xb5\x9d\xef\xab\x8fiiA'
p35
tp36
Rp37
ag10
(g14
S'\x0b\x02+K-[iA'
p38
tp39
Rp40
ag10
(g14
S'\xda\xc1<\xedf_iA'
p41
tp42
Rp43
ag10
(g14
S'\x01+\x87R\xbbaiA'
p44
tp45
Rp46
ag10
(g14
S'=&x<p]iA'
p47
tp48
Rp49
ag10
(g14
S'\x82\xb1\xe4\x8b\xfeZiA'
p50
tp51
Rp52
ag10
(g14
S'\xe0O\x8d\xe3\xdfiiA'
p53
tp54
Rp55
ag10
(g14
S'\x1b\xb0r\x84\x1aqiA'
p56
tp57
Rp58
ag10
(g14
S'\xd7\xf7S\xd7\xad^iA'
p59
tp60
Rp61
ag10
(g14
S'3\xdd$\x02\xe3hiA'
p62
tp63
Rp64
ag10
(g14
S'\x00\xf1\x19\xae\xefeiA'
p65
tp66
Rp67
ag10
(g14
S'u\xe9&IAXiA'
p68
tp69
Rp70
ag10
(g14
S'\x11\xd7\xa3\x14,giA'
p71
tp72
Rp73
ag10
(g14
S'\xdck.h@^iA'
p74
tp75
Rp76
asS'target'
p77
(lp78
g10
(g14
S'\x08\x00\x00\x00\x00pX@'
p79
tp80
Rp81
ag10
(g14
S'\x92l\xe7\xfb\xa9\xd5Y@'
p82
tp83
Rp84
ag10
(g14
S'?3333#V@'
p85
tp86
Rp87
ag10
(g14
S'\xc6v\xbe\x9f\x1a\x0fX@'
p88
tp89
Rp90
ag10
(g14
S'\xea\xfb\xa9\xf1\xd2=W@'
p91
tp92
Rp93
ag10
(g14
S'\xde"\xdb\xf9~JW@'
p94
tp95
Rp96
ag10
(g14
S'K7\x89A`YW@'
p97
tp98
Rp99
ag10
(g14
S'\x03\x81\x95C\x8b\xbcU@'
p100
tp101
Rp102
ag10
(g14
S'S\x0c\x02+\x87\xe2W@'
p103
tp104
Rp105
ag10
(g14
S'D\n\xd7\xa3p1V@'
p106
tp107
Rp108
ag10
(g14
S'\xd4\xa1E\xb6\xf3eX@'
p109
tp110
Rp111
ag10
(g14
S'\x12X9\xb4\xc8\x0eX@'
p112
tp113
Rp114
ag10
(g14
S'\x13X9\xb4\xc8jW@'
p115
tp116
Rp117
ag10
(g14
S'\x04\xfe\xd4x\xe92X@'
p118
tp119
Rp120
ag10
(g14
S'f;\xdfO\x8d#Y@'
p121
tp122
Rp123
ag10
(g14
S'\xceK7\x89AHY@'
p124
tp125
Rp126
ag10
(g14
S'5\x87\x16\xd9\xce7X@'
p127
tp128
Rp129
ag10
(g14
S'\x13\x02+\x87\x16\x99V@'
p130
tp131
Rp132
ag10
(g14
S'H7\x89A`}X@'
p133
tp134
Rp135
ag10
(g14
S'\xf5\xfd\xd4x\xe9FX@'
p136
tp137
Rp138
asssss.