(dp0
S'../Data/sqlite_22.csv'
p1
(dp2
S'../Data/sqlite_87.csv'
p3
(dp4
F0.1
(dp5
S'mmre'
p6
(dp7
S'bellwether'
p8
(lp9
cnumpy.core.multiarray
scalar
p10
(cnumpy
dtype
p11
(S'f8'
p12
I0
I1
tp13
Rp14
(I3
S'<'
p15
NNNI-1
I-1
I0
tp16
bS'\xcbL\xd1T\x9efS@'
p17
tp18
Rp19
ag10
(g14
S'ZU\x0b\x19FhS@'
p20
tp21
Rp22
ag10
(g14
S'7\x8c\xe5\xe8\xeaiS@'
p23
tp24
Rp25
ag10
(g14
S'\x0f>De\xafeS@'
p26
tp27
Rp28
ag10
(g14
S'^\xc3\x03\xce\x90cS@'
p29
tp30
Rp31
ag10
(g14
S'\x9c\x9a\xbb\x7f]gS@'
p32
tp33
Rp34
ag10
(g14
S'@\x97\x91\x88\xd8gS@'
p35
tp36
Rp37
ag10
(g14
S'e\xea\xf7\x85\x99hS@'
p38
tp39
Rp40
ag10
(g14
S'\xa5\xafi\x17\xa5hS@'
p41
tp42
Rp43
ag10
(g14
S'\xe7\xd7\xae\x9d8fS@'
p44
tp45
Rp46
ag10
(g14
S'\xbb\x18\x11\xafXlS@'
p47
tp48
Rp49
ag10
(g14
S'J\xb6#\n,cS@'
p50
tp51
Rp52
ag10
(g14
S')\x06>\xe3\xabcS@'
p53
tp54
Rp55
ag10
(g14
S'\x1c^\\E#mS@'
p56
tp57
Rp58
ag10
(g14
S's\x89\xa4\x9e\xb8eS@'
p59
tp60
Rp61
ag10
(g14
S'}\x1a\xa9(\xf6bS@'
p62
tp63
Rp64
ag10
(g14
S'\x0f\x9d\xc3&JhS@'
p65
tp66
Rp67
ag10
(g14
S'\xf7\xc8\xc8\x83G^S@'
p68
tp69
Rp70
ag10
(g14
S'^I\x84R\xe8ZS@'
p71
tp72
Rp73
ag10
(g14
S'\xb2\xecApscS@'
p74
tp75
Rp76
asS'target'
p77
(lp78
g10
(g14
S'@\xc7\xa0\\o.M@'
p79
tp80
Rp81
ag10
(g14
S'\x9b&\xa7\xac\xee\x96P@'
p82
tp83
Rp84
ag10
(g14
S"\x88Ow\x81'\x7fC@"
p85
tp86
Rp87
ag10
(g14
S'\xa3\xbc\xdd\xd3\xfc\xffQ@'
p88
tp89
Rp90
ag10
(g14
S'V\x1fY\x84\x97<I@'
p91
tp92
Rp93
ag10
(g14
S'\x17F\xd3\x11\x97\x06V@'
p94
tp95
Rp96
ag10
(g14
S'V\x0c3(\xf7fG@'
p97
tp98
Rp99
ag10
(g14
S'\x97\xf1[\xf9\xdc\xbbQ@'
p100
tp101
Rp102
ag10
(g14
S'\x9f\x15\xcafR\xebK@'
p103
tp104
Rp105
ag10
(g14
S'\xa1_\xfa\xae\x18\x9dL@'
p106
tp107
Rp108
ag10
(g14
S'7z&D\xbb\xc6E@'
p109
tp110
Rp111
ag10
(g14
S'\x90D\x7f\xf4\xbe\xe8H@'
p112
tp113
Rp114
ag10
(g14
S'\xa0\xe6\xe0\xc0l7G@'
p115
tp116
Rp117
ag10
(g14
S'qg\xf4\xa9h\x92W@'
p118
tp119
Rp120
ag10
(g14
S'\xdb\x07\x90Bi\x18K@'
p121
tp122
Rp123
ag10
(g14
S'\x85\x83\xc8L\xdfGN@'
p124
tp125
Rp126
ag10
(g14
S'Sp2\x89L\nU@'
p127
tp128
Rp129
ag10
(g14
S'\xd4\x11\x19uKjY@'
p130
tp131
Rp132
ag10
(g14
S'YQ\xbf;\x1c\xb9^@'
p133
tp134
Rp135
ag10
(g14
S'~O\x1f#u\xd3R@'
p136
tp137
Rp138
asssss.