(dp0
S'../Data/sqlite_71.csv'
p1
(dp2
S'../Data/sqlite_14.csv'
p3
(dp4
F0.2
(dp5
S'abs_res'
p6
(dp7
S'bellwether'
p8
(lp9
cnumpy.core.multiarray
scalar
p10
(cnumpy
dtype
p11
(S'f8'
p12
I0
I1
tp13
Rp14
(I3
S'<'
p15
NNNI-1
I-1
I0
tp16
bS"^\x1f>'H\\kA"
p17
tp18
Rp19
ag10
(g14
S'\xf0mY\xbf`TkA'
p20
tp21
Rp22
ag10
(g14
S'\xf8S\xe3)\x1dSkA'
p23
tp24
Rp25
ag10
(g14
S'l;\xdf\x0b{XkA'
p26
tp27
Rp28
ag10
(g14
S'N\xc5\xd9\x83\xd8kkA'
p29
tp30
Rp31
ag10
(g14
S'\xc0\xd7\\L\x84bkA'
p32
tp33
Rp34
ag10
(g14
S'\x0e\xac\x1c\x1e\x84^kA'
p35
tp36
Rp37
ag10
(g14
S'x\x95C\x9b@ikA'
p38
tp39
Rp40
ag10
(g14
S'5\x08\xac\x80:XkA'
p41
tp42
Rp43
ag10
(g14
S'\xdb\x08exl^kA'
p44
tp45
Rp46
ag10
(g14
S'3\xdd$bpkkA'
p47
tp48
Rp49
ag10
(g14
S'\xf3Q\xb8>\xc3akA'
p50
tp51
Rp52
ag10
(g14
S's\x842b\xaaakA'
p53
tp54
Rp55
ag10
(g14
S'\xcdg\xd85VZkA'
p56
tp57
Rp58
ag10
(g14
S'\xde\xb2V\xaf\xe5]kA'
p59
tp60
Rp61
ag10
(g14
S'\xfcS\xe3\t"_kA'
p62
tp63
Rp64
ag10
(g14
S"H\x98':\xc5gkA"
p65
tp66
Rp67
ag10
(g14
S'^\xe5\xd0\xce\xfaWkA'
p68
tp69
Rp70
ag10
(g14
S'\xda\xce\xf7\x9bplkA'
p71
tp72
Rp73
ag10
(g14
S'\\d;Ku^kA'
p74
tp75
Rp76
asS'target'
p77
(lp78
g10
(g14
S'q\x93\x18\x04Vnd@'
p79
tp80
Rp81
ag10
(g14
S'\xa9\xc6K7\x89Ac@'
p82
tp83
Rp84
ag10
(g14
S'\x0e\x00\x00\x00\x00\xbcd@'
p85
tp86
Rp87
ag10
(g14
S'\xbft\x93\x18\x04\x86b@'
p88
tp89
Rp90
ag10
(g14
S'\x96n\x12\x83\xc0\x9ab@'
p91
tp92
Rp93
ag10
(g14
S'9\xb4\xc8v\xbe\xb1c@'
p94
tp95
Rp96
ag10
(g14
S'\xda$\x06\x81\x95ee@'
p97
tp98
Rp99
ag10
(g14
S':3333\xd3e@'
p100
tp101
Rp102
ag10
(g14
S'\xf1Q\xb8\x1e\x85\xf3b@'
p103
tp104
Rp105
ag10
(g14
S"k;\xdfO\x8d'd@"
p106
tp107
Rp108
ag10
(g14
S'\xd7"\xdb\xf9~\x9ab@'
p109
tp110
Rp111
ag10
(g14
S'\xa0\x9b\xc4 \xb0nd@'
p112
tp113
Rp114
ag10
(g14
S'\xbe\x9f\x1a/\xdd\xead@'
p115
tp116
Rp117
ag10
(g14
S'\x01V\x0e-\xb29d@'
p118
tp119
Rp120
ag10
(g14
S'Gb\x10X9|c@'
p121
tp122
Rp123
ag10
(g14
S'\xc0 \xb0rh\x03d@'
p124
tp125
Rp126
ag10
(g14
S'\x83\x97n\x12\x83`c@'
p127
tp128
Rp129
ag10
(g14
S'Od;\xdfOid@'
p130
tp131
Rp132
ag10
(g14
S'\xceMb\x10XCf@'
p133
tp134
Rp135
ag10
(g14
S'\xdfO\x8d\x97n\xbac@'
p136
tp137
Rp138
asssss.