(dp0
S'../Data/sqlite_65.csv'
p1
(dp2
S'../Data/sqlite_89.csv'
p3
(dp4
F0.25
(dp5
S'mmre'
p6
(dp7
S'bellwether'
p8
(lp9
cnumpy.core.multiarray
scalar
p10
(cnumpy
dtype
p11
(S'f8'
p12
I0
I1
tp13
Rp14
(I3
S'<'
p15
NNNI-1
I-1
I0
tp16
bS'\xbf\x11k\xa0:3U@'
p17
tp18
Rp19
ag10
(g14
S'\xcb\xe4\xf2w\xd9.U@'
p20
tp21
Rp22
ag10
(g14
S'\x80H\xf6\xb1t8U@'
p23
tp24
Rp25
ag10
(g14
S'@\x12\xd2\xa4\xcb,U@'
p26
tp27
Rp28
ag10
(g14
S'\xab<\x88\xdd\xc10U@'
p29
tp30
Rp31
ag10
(g14
S'\xea\x93\xcd\x94E-U@'
p32
tp33
Rp34
ag10
(g14
S'\xfc\x94\x13\xe61.U@'
p35
tp36
Rp37
ag10
(g14
S'\xcc\x8a\xda1\xae+U@'
p38
tp39
Rp40
ag10
(g14
S"'\xd9S\xa0\xd1)U@"
p41
tp42
Rp43
ag10
(g14
S'\x86#\xfas\xb62U@'
p44
tp45
Rp46
ag10
(g14
S'\x03\x9f\xe0\x1as,U@'
p47
tp48
Rp49
ag10
(g14
S'u\xf1\x0f"{\'U@'
p50
tp51
Rp52
ag10
(g14
S'u\x9a\xc5\xd8\t&U@'
p53
tp54
Rp55
ag10
(g14
S'\x983<\xac*)U@'
p56
tp57
Rp58
ag10
(g14
S'8\xe3\x9a\x80r.U@'
p59
tp60
Rp61
ag10
(g14
S'\x00]%g\xca2U@'
p62
tp63
Rp64
ag10
(g14
S'w!\x0f\xd7\xdb,U@'
p65
tp66
Rp67
ag10
(g14
S'\x86\x7f1\x0es*U@'
p68
tp69
Rp70
ag10
(g14
S'M\x10\xe9\xaf\xb9:U@'
p71
tp72
Rp73
ag10
(g14
S'\xf3\x90\x99\xe9\xdb1U@'
p74
tp75
Rp76
asS'target'
p77
(lp78
g10
(g14
S'\x04\x93pW\xfe\xa2M@'
p79
tp80
Rp81
ag10
(g14
S'\x82!\x1f\x03S\x18R@'
p82
tp83
Rp84
ag10
(g14
S'\x9a\xc6\xa8F\xb6\xd1L@'
p85
tp86
Rp87
ag10
(g14
S'\x06\xae\xf7\xe8\xf3&P@'
p88
tp89
Rp90
ag10
(g14
S'\xa9c\xb5\xcf_\xf3P@'
p91
tp92
Rp93
ag10
(g14
S"\xb9m'a\xdc\xffN@"
p94
tp95
Rp96
ag10
(g14
S'\xa6\xe8\xae\xf8\x83\x0eR@'
p97
tp98
Rp99
ag10
(g14
S'\xb9(n>kIU@'
p100
tp101
Rp102
ag10
(g14
S'c\xa7n\xee\xf9\x1bS@'
p103
tp104
Rp105
ag10
(g14
S';qnx\xb3qQ@'
p106
tp107
Rp108
ag10
(g14
S'0\x96f\x94\xe0WT@'
p109
tp110
Rp111
ag10
(g14
S'\x13\x8bqg\xfe\x0bT@'
p112
tp113
Rp114
ag10
(g14
S'i<p:\x7fEQ@'
p115
tp116
Rp117
ag10
(g14
S'\xcf\xd2z\xd8E+V@'
p118
tp119
Rp120
ag10
(g14
S'\x8e\xb7\xack\xc8\x8dT@'
p121
tp122
Rp123
ag10
(g14
S'/\xb7*a\xce?Q@'
p124
tp125
Rp126
ag10
(g14
S'Ig\xaa%U\x1cP@'
p127
tp128
Rp129
ag10
(g14
S'~\xb9\xc6\x15(\xecN@'
p130
tp131
Rp132
ag10
(g14
S'"\xcd1\xf7\x06+R@'
p133
tp134
Rp135
ag10
(g14
S'(W*pB\x96R@'
p136
tp137
Rp138
asssss.