(dp0
S'../Data/sqlite_71.csv'
p1
(dp2
S'../Data/sqlite_58.csv'
p3
(dp4
F0.2
(dp5
S'abs_res'
p6
(dp7
S'bellwether'
p8
(lp9
cnumpy.core.multiarray
scalar
p10
(cnumpy
dtype
p11
(S'f8'
p12
I0
I1
tp13
Rp14
(I3
S'<'
p15
NNNI-1
I-1
I0
tp16
bS'\xcf\xa1E\x8eA_kA'
p17
tp18
Rp19
ag10
(g14
S'v[\xd6BL]kA'
p20
tp21
Rp22
ag10
(g14
S'X9\xb4\x90\x01akA'
p23
tp24
Rp25
ag10
(g14
S'\x88l\xe7\x9bS_kA'
p26
tp27
Rp28
ag10
(g14
S'\x97_,\x1d\xa3bkA'
p29
tp30
Rp31
ag10
(g14
S'h!i\x96\x8cakA'
p32
tp33
Rp34
ag10
(g14
S'T\x9c}`7^kA'
p35
tp36
Rp37
ag10
(g14
S'\x80N\x1b\xe0\x93ZkA'
p38
tp39
Rp40
ag10
(g14
S'\x1e\x85\xeb\x015fkA'
p41
tp42
Rp43
ag10
(g14
S'O\x1b\xe8\xac\xf0bkA'
p44
tp45
Rp46
ag10
(g14
S'\xe6\xdf\x08\xb9rikA'
p47
tp48
Rp49
ag10
(g14
S'e;\xdfO\xa9UkA'
p50
tp51
Rp52
ag10
(g14
S':\n\xd7\xc39bkA'
p53
tp54
Rp55
ag10
(g14
S'\xe53\xec\x86\x80]kA'
p56
tp57
Rp58
ag10
(g14
S'\xbfg\xd8]\x7fekA'
p59
tp60
Rp61
ag10
(g14
S'\x8d%\xbf\x90\xd1VkA'
p62
tp63
Rp64
ag10
(g14
S'\xee\xe1348^kA'
p65
tp66
Rp67
ag10
(g14
S'\xc2\xd7\\\xb4\xabfkA'
p68
tp69
Rp70
ag10
(g14
S'\x98_,\xc1\x82[kA'
p71
tp72
Rp73
ag10
(g14
S'x#\x94\xed\xb9gkA'
p74
tp75
Rp76
asS'target'
p77
(lp78
g10
(g14
S'>\n\xd7\xa3p5V@'
p79
tp80
Rp81
ag10
(g14
S'\xb7I\x0c\x02+\xb7V@'
p82
tp83
Rp84
ag10
(g14
S'\x9d\x18\x04V\x0e\x8dV@'
p85
tp86
Rp87
ag10
(g14
S'\x12\xac\x1cZd\xdfV@'
p88
tp89
Rp90
ag10
(g14
S'm=\n\xd7\xa3\xa8T@'
p91
tp92
Rp93
ag10
(g14
S'1\n\xd7\xa3p9X@'
p94
tp95
Rp96
ag10
(g14
S'\xf4\xa9\xf1\xd2M\xa2U@'
p97
tp98
Rp99
ag10
(g14
S'\xe3\xa5\x9b\xc4 \xa8U@'
p100
tp101
Rp102
ag10
(g14
S'\xb2rh\x91\xeddV@'
p103
tp104
Rp105
ag10
(g14
S'\xcc\xf7S\xe3\xa5\x13V@'
p106
tp107
Rp108
ag10
(g14
S'V\x0e-\xb2\x9dWV@'
p109
tp110
Rp111
ag10
(g14
S'\xc1\x9f\x1a/\xdd U@'
p112
tp113
Rp114
ag10
(g14
S'\x8bC\x8bl\xe7\x0bW@'
p115
tp116
Rp117
ag10
(g14
S'\xf5Q\xb8\x1e\x85KW@'
p118
tp119
Rp120
ag10
(g14
S'oh\x91\xed|GU@'
p121
tp122
Rp123
ag10
(g14
S'\xc6\xca\xa1E\xb6\xbbU@'
p124
tp125
Rp126
ag10
(g14
S'\xf0\xd2Mb\x10TV@'
p127
tp128
Rp129
ag10
(g14
S'\x04V\x0e-\xb2\xc5V@'
p130
tp131
Rp132
ag10
(g14
S'\xc4 \xb0rh\xc9V@'
p133
tp134
Rp135
ag10
(g14
S'\xf1\xa7\xc6K7\xfdT@'
p136
tp137
Rp138
asssss.