(dp0
S'../Data/sqlite_1.csv'
p1
(dp2
S'../Data/sqlite_21.csv'
p3
(dp4
F0.1
(dp5
S'abs_res'
p6
(dp7
S'bellwether'
p8
(lp9
cnumpy.core.multiarray
scalar
p10
(cnumpy
dtype
p11
(S'f8'
p12
I0
I1
tp13
Rp14
(I3
S'<'
p15
NNNI-1
I-1
I0
tp16
bS'S\x8f\xc2e\x18*AA'
p17
tp18
Rp19
ag10
(g14
S')\xb2\x9d\x1f\xbc)AA'
p20
tp21
Rp22
ag10
(g14
S' \x85\xebq\xf9)AA'
p23
tp24
Rp25
ag10
(g14
S'V\xbaI\xec\xc5)AA'
p26
tp27
Rp28
ag10
(g14
S'\xcfMb \xe0*AA'
p29
tp30
Rp31
ag10
(g14
S'\xdd\xec\xc3\x97)*AA'
p32
tp33
Rp34
ag10
(g14
S'\x97n\x12\x83\x87)AA'
p35
tp36
Rp37
ag10
(g14
S'o\xbe\x9f\x1a\xdf)AA'
p38
tp39
Rp40
ag10
(g14
S']\x10X\xb9\x9b)AA'
p41
tp42
Rp43
ag10
(g14
S' \xdb\xf9\x8e\xe0)AA'
p44
tp45
Rp46
ag10
(g14
S'\x17\x85\xeba\x91)AA'
p47
tp48
Rp49
ag10
(g14
S'\xb6t\x93\x88!*AA'
p50
tp51
Rp52
ag10
(g14
S'C\x8bl\x17\xe9)AA'
p53
tp54
Rp55
ag10
(g14
S'\xd7\xf9~Z\xec)AA'
p56
tp57
Rp58
ag10
(g14
S';\xa7\rd\x0e*AA'
p59
tp60
Rp61
ag10
(g14
S'\xa8c\x82\x17\xb2)AA'
p62
tp63
Rp64
ag10
(g14
S'\\\x10X\x99/)AA'
p65
tp66
Rp67
ag10
(g14
S'\xb1\xc8v^R*AA'
p68
tp69
Rp70
ag10
(g14
S'\xe8\x98\xe0Q\xd0)AA'
p71
tp72
Rp73
ag10
(g14
S'\xb0G\xe1\xea\xd2)AA'
p74
tp75
Rp76
asS'target'
p77
(lp78
g10
(g14
S';\n\xd7\xa3p\xb1k@'
p79
tp80
Rp81
ag10
(g14
S'#\x04V\x0e-Ji@'
p82
tp83
Rp84
ag10
(g14
S'\x1c\xd9\xce\xf7S\xf3h@'
p85
tp86
Rp87
ag10
(g14
S';3333Wi@'
p88
tp89
Rp90
ag10
(g14
S'\xe3Mb\x10X\xc5j@'
p91
tp92
Rp93
ag10
(g14
S'\x8e\x95C\x8bl\x97h@'
p94
tp95
Rp96
ag10
(g14
S'y\xe9&1\x08\xf0f@'
p97
tp98
Rp99
ag10
(g14
S'th\x91\xed|\xfbh@'
p100
tp101
Rp102
ag10
(g14
S'\xcb\xf9~j\xbc\xc4j@'
p103
tp104
Rp105
ag10
(g14
S'\x1eZd;\xdf\xb3h@'
p106
tp107
Rp108
ag10
(g14
S'Sb\x10X9\xc4i@'
p109
tp110
Rp111
ag10
(g14
S'\xec\xa7\xc6K7)h@'
p112
tp113
Rp114
ag10
(g14
S'\x15\xaeG\xe1z8k@'
p115
tp116
Rp117
ag10
(g14
S'\xe7\xd0"\xdb\xf9fh@'
p118
tp119
Rp120
ag10
(g14
S'\x9c\x99\x99\x99\x99\x89h@'
p121
tp122
Rp123
ag10
(g14
S'\xdb\xa3p=\n\x13i@'
p124
tp125
Rp126
ag10
(g14
S'^\x8f\xc2\xf5(`j@'
p127
tp128
Rp129
ag10
(g14
S'\xae\xc6K7\x899j@'
p130
tp131
Rp132
ag10
(g14
S'\xc4 \xb0rh\xfdh@'
p133
tp134
Rp135
ag10
(g14
S'\xf0|?5^Ji@'
p136
tp137
Rp138
asssss.