(dp0
S'../Data/sqlite_1.csv'
p1
(dp2
S'../Data/sqlite_28.csv'
p3
(dp4
F0.15
(dp5
S'abs_res'
p6
(dp7
S'bellwether'
p8
(lp9
cnumpy.core.multiarray
scalar
p10
(cnumpy
dtype
p11
(S'f8'
p12
I0
I1
tp13
Rp14
(I3
S'<'
p15
NNNI-1
I-1
I0
tp16
bS'[d;?\x93D@A'
p17
tp18
Rp19
ag10
(g14
S'\xee\xd2M\xe2\x04E@A'
p20
tp21
Rp22
ag10
(g14
S'+\xce>\x1cSD@A'
p23
tp24
Rp25
ag10
(g14
S'RUU\x95\xb4D@A'
p26
tp27
Rp28
ag10
(g14
S'A5^zDD@A'
p29
tp30
Rp31
ag10
(g14
S'2O\xd4\x8fzD@A'
p32
tp33
Rp34
ag10
(g14
S'$\xdb\xf9\x0e\xcdC@A'
p35
tp36
Rp37
ag10
(g14
S',\xdd$\x16ZD@A'
p38
tp39
Rp40
ag10
(g14
S'|?5\xbe\x99D@A'
p41
tp42
Rp43
ag10
(g14
S'f\x91\xed\xccBE@A'
p44
tp45
Rp46
ag10
(g14
S'B\xb6\xf3=\rD@A'
p47
tp48
Rp49
ag10
(g14
S'\xd5\x15 \xd7\xd5C@A'
p50
tp51
Rp52
ag10
(g14
S'\xb7e\xad\xee\x1bD@A'
p53
tp54
Rp55
ag10
(g14
S'^\x10X\x89iD@A'
p56
tp57
Rp58
ag10
(g14
S'\xb7t\x93\x88QD@A'
p59
tp60
Rp61
ag10
(g14
S'7\xb4\xc8VwD@A'
p62
tp63
Rp64
ag10
(g14
S'+\x87\x16\x19oD@A'
p65
tp66
Rp67
ag10
(g14
S'\xf3S\xe3\x85"D@A'
p68
tp69
Rp70
ag10
(g14
S'\xd5\xa3p=fD@A'
p71
tp72
Rp73
ag10
(g14
S'\x9d\x0bI\xe3\x01E@A'
p74
tp75
Rp76
asS'target'
p77
(lp78
g10
(g14
S'\x12/\xdd$\x06\xadb@'
p79
tp80
Rp81
ag10
(g14
S'\xb2\x9d\xef\xa7\xc6wa@'
p82
tp83
Rp84
ag10
(g14
S'[\x0e-\xb2\x9d\xa7`@'
p85
tp86
Rp87
ag10
(g14
S'\xfd\xa9\xf1\xd2M\xd2b@'
p88
tp89
Rp90
ag10
(g14
S'.\x08\xac\x1cZ\xfcb@'
p91
tp92
Rp93
ag10
(g14
S'>`\xe5\xd0"\xf5`@'
p94
tp95
Rp96
ag10
(g14
S'\x82j\xbct\x93\x04b@'
p97
tp98
Rp99
ag10
(g14
S'R9\xb4\xc8vvd@'
p100
tp101
Rp102
ag10
(g14
S'\xa8\xf1\xd2MbNb@'
p103
tp104
Rp105
ag10
(g14
S'\xf1\xa7\xc6K7qc@'
p106
tp107
Rp108
ag10
(g14
S'\xc6 \xb0rh\x11c@'
p109
tp110
Rp111
ag10
(g14
S'\xb1\x9d\xef\xa7\xc6{`@'
p112
tp113
Rp114
ag10
(g14
S'X\x8f\xc2\xf5(\xecb@'
p115
tp116
Rp117
ag10
(g14
S'S\xe3\xa5\x9b\xc4\xd8c@'
p118
tp119
Rp120
ag10
(g14
S'\xb2G\xe1z\x14\xe2b@'
p121
tp122
Rp123
ag10
(g14
S'\xa1\x1cZd;\xa3b@'
p124
tp125
Rp126
ag10
(g14
S'\xfa*\x87\x16\xd9^c@'
p127
tp128
Rp129
ag10
(g14
S'\x9a\x99\x99\x99\x99\xe1c@'
p130
tp131
Rp132
ag10
(g14
S'.\x06\x81\x95Cgb@'
p133
tp134
Rp135
ag10
(g14
S'\xc5\xca\xa1E\xb6\xffa@'
p136
tp137
Rp138
asssss.