(dp0
S'../Data/sqlite_29.csv'
p1
(dp2
S'../Data/sqlite_14.csv'
p3
(dp4
F0.05
(dp5
S'abs_res'
p6
(dp7
S'bellwether'
p8
(lp9
cnumpy.core.multiarray
scalar
p10
(cnumpy
dtype
p11
(S'f8'
p12
I0
I1
tp13
Rp14
(I3
S'<'
p15
NNNI-1
I-1
I0
tp16
bS'vj\xbcdR>EA'
p17
tp18
Rp19
ag10
(g14
S'\xa7\xf1\xd2m4>EA'
p20
tp21
Rp22
ag10
(g14
S'\x94\xef\xa7F\x07>EA'
p23
tp24
Rp25
ag10
(g14
S'\x80\xc0\xca\xa1\xc5>EA'
p26
tp27
Rp28
ag10
(g14
S'#\\\x8f\x92C>EA'
p29
tp30
Rp31
ag10
(g14
S')\xb2\x9d\xefb>EA'
p32
tp33
Rp34
ag10
(g14
S'\x93\x99\x99\t\x19>EA'
p35
tp36
Rp37
ag10
(g14
S'\xb2:&\x18X>EA'
p38
tp39
Rp40
ag10
(g14
S'\x9dn\x12\xf3o>EA'
p41
tp42
Rp43
ag10
(g14
S'$1\x08\xec\x08>EA'
p44
tp45
Rp46
ag10
(g14
S'/\x89A\xe0\xa1>EA'
p47
tp48
Rp49
ag10
(g14
S'\xfbU\x0e-\xa5>EA'
p50
tp51
Rp52
ag10
(g14
S'Td;_F>EA'
p53
tp54
Rp55
ag10
(g14
S'\xa9G\xe1\xda)>EA'
p56
tp57
Rp58
ag10
(g14
S'\xf0S\xe3\x05\xb9>EA'
p59
tp60
Rp61
ag10
(g14
S'J\xa98\xbbK>EA'
p62
tp63
Rp64
ag10
(g14
S'q\x93\x18\x14\xa4>EA'
p65
tp66
Rp67
ag10
(g14
S'\x8c\xde\x96%%>EA'
p68
tp69
Rp70
ag10
(g14
S'\xc1v\xbe\xaff>EA'
p71
tp72
Rp73
ag10
(g14
S'3\xfb\xf0\xa9p>EA'
p74
tp75
Rp76
asS'target'
p77
(lp78
g10
(g14
S'\x14-\xb2\x9d\xef\xbbi@'
p79
tp80
Rp81
ag10
(g14
S'\xda\xa1E\xb6\xf3mh@'
p82
tp83
Rp84
ag10
(g14
S'\x03+\x87\x16\xd9\x8af@'
p85
tp86
Rp87
ag10
(g14
S'\xe0\xa5\x9b\xc4 \xd4l@'
p88
tp89
Rp90
ag10
(g14
S':\xb4\xc8v\xbeSl@'
p91
tp92
Rp93
ag10
(g14
S'\x8d\xc2\xf5(\\\xe7l@'
p94
tp95
Rp96
ag10
(g14
S'%\xb0rh\x91\xf9d@'
p97
tp98
Rp99
ag10
(g14
S'\xa5\xc8v\xbe\x9f^g@'
p100
tp101
Rp102
ag10
(g14
S'\xdbMb\x10Xej@'
p103
tp104
Rp105
ag10
(g14
S'|j\xbct\x93\xeci@'
p106
tp107
Rp108
ag10
(g14
S'\xabG\xe1z\x14\xa2o@'
p109
tp110
Rp111
ag10
(g14
S'\xcb\xcc\xcc\xcc\xcc\xcae@'
p112
tp113
Rp114
ag10
(g14
S'\xcd\xf7S\xe3\xa5\x03k@'
p115
tp116
Rp117
ag10
(g14
S'\x01\xd5x\xe9&\x19g@'
p118
tp119
Rp120
ag10
(g14
S'\xa8\x1cZd;#h@'
p121
tp122
Rp123
ag10
(g14
S'_\xbaI\x0c\x02\xb7h@'
p124
tp125
Rp126
ag10
(g14
S'\xb3\x1cZd;Oh@'
p127
tp128
Rp129
ag10
(g14
S'j\x91\xed|?ej@'
p130
tp131
Rp132
ag10
(g14
S'r\xbe\x9f\x1a/-h@'
p133
tp134
Rp135
ag10
(g14
S'N\xbaI\x0c\x02\x07i@'
p136
tp137
Rp138
asssss.