(dp0
S'../Data/sqlite_66.csv'
p1
(dp2
S'../Data/sqlite_8.csv'
p3
(dp4
F0.15
(dp5
S'abs_res'
p6
(dp7
S'bellwether'
p8
(lp9
cnumpy.core.multiarray
scalar
p10
(cnumpy
dtype
p11
(S'f8'
p12
I0
I1
tp13
Rp14
(I3
S'<'
p15
NNNI-1
I-1
I0
tp16
bS'\xdez\x14\xee\xab."A'
p17
tp18
Rp19
ag10
(g14
S'\x0eX94\xd6."A'
p20
tp21
Rp22
ag10
(g14
S'\xb7I\x0cBm/"A'
p23
tp24
Rp25
ag10
(g14
S'\xb4\x1e\x85\xab\xf1/"A'
p26
tp27
Rp28
ag10
(g14
S'\xb2\xc8v>\xb0/"A'
p29
tp30
Rp31
ag10
(g14
S'\x07\xf3D}\x9a/"A'
p32
tp33
Rp34
ag10
(g14
S'\'\xb2\x9d\xafO/"A'
p35
tp36
Rp37
ag10
(g14
S'\xa1E\xb6s/0"A'
p38
tp39
Rp40
ag10
(g14
S'\x9a\xa8\x7fc\xb2/"A'
p41
tp42
Rp43
ag10
(g14
S'\xff\xd6\xa3\xf0\x81."A'
p44
tp45
Rp46
ag10
(g14
S'K\x0c\x02\xab\xf5/"A'
p47
tp48
Rp49
ag10
(g14
S'\x00\x8eP\xc6\xcf."A'
p50
tp51
Rp52
ag10
(g14
S'\'@\xee\xb5\x9d/"A'
p53
tp54
Rp55
ag10
(g14
S'\xd3\xa3p\xbd\x0c/"A'
p56
tp57
Rp58
ag10
(g14
S'\xbcX\xf2\x8bH/"A'
p59
tp60
Rp61
ag10
(g14
S'vL\xf0\xe0\x1e0"A'
p62
tp63
Rp64
ag10
(g14
S'C\xe1zT\x89/"A'
p65
tp66
Rp67
ag10
(g14
S'C\xe1z\x14\x15/"A'
p68
tp69
Rp70
ag10
(g14
S'\xc0\x11\xcahb0"A'
p71
tp72
Rp73
ag10
(g14
S'F\xb6\xf3}\x08/"A'
p74
tp75
Rp76
asS'target'
p77
(lp78
g10
(g14
S'9\x89A`\xe5h[@'
p79
tp80
Rp81
ag10
(g14
S'$\x06\x81\x95C\xc3X@'
p82
tp83
Rp84
ag10
(g14
S'\x85j\xbct\x93\x08Z@'
p85
tp86
Rp87
ag10
(g14
S'\xf0Q\xb8\x1e\x85\x0b^@'
p88
tp89
Rp90
ag10
(g14
S'73333SX@'
p91
tp92
Rp93
ag10
(g14
S'\xa0E\xb6\xf3\xfd\\]@'
p94
tp95
Rp96
ag10
(g14
S'>\xb4\xc8v\xbe\xf7X@'
p97
tp98
Rp99
ag10
(g14
S'7\x89A`\xe5\x0c\\@'
p100
tp101
Rp102
ag10
(g14
S'[9\xb4\xc8v\xfe_@'
p103
tp104
Rp105
ag10
(g14
S'\x0f\xd7\xa3p=2_@'
p106
tp107
Rp108
ag10
(g14
S'\xea\xa5\x9b\xc4 PZ@'
p109
tp110
Rp111
ag10
(g14
S'\xbdI\x0c\x02+GX@'
p112
tp113
Rp114
ag10
(g14
S'\x15\xaeG\xe1ztZ@'
p115
tp116
Rp117
ag10
(g14
S';\n\xd7\xa3p\xc5Y@'
p118
tp119
Rp120
ag10
(g14
S'\xf1\xa7\xc6K7\x17`@'
p121
tp122
Rp123
ag10
(g14
S'/\xb2\x9d\xef\xa7\xd6_@'
p124
tp125
Rp126
ag10
(g14
S'`d;\xdfO%[@'
p127
tp128
Rp129
ag10
(g14
S'/\xb4\xc8v\xbe\xdfZ@'
p130
tp131
Rp132
ag10
(g14
S'\x7f?5^\xba]\\@'
p133
tp134
Rp135
ag10
(g14
S'\xcbv\xbe\x9f\x1a\x07X@'
p136
tp137
Rp138
asssss.