(dp0
S'../Data/sqlite_1.csv'
p1
(dp2
S'../Data/sqlite_70.csv'
p3
(dp4
F0.15
(dp5
S'abs_res'
p6
(dp7
S'bellwether'
p8
(lp9
cnumpy.core.multiarray
scalar
p10
(cnumpy
dtype
p11
(S'f8'
p12
I0
I1
tp13
Rp14
(I3
S'<'
p15
NNNI-1
I-1
I0
tp16
bS'\xe9\xfb\xa9\xd1&6@A'
p17
tp18
Rp19
ag10
(g14
S'\x8f\t\x1e<\x0c6@A'
p20
tp21
Rp22
ag10
(g14
S'\x05+\x87f}5@A'
p23
tp24
Rp25
ag10
(g14
S'\xdbz\x14\x9e\x846@A'
p26
tp27
Rp28
ag10
(g14
S'\x9a\x0bIsV6@A'
p29
tp30
Rp31
ag10
(g14
S'Rb\x10\xa8\x876@A'
p32
tp33
Rp34
ag10
(g14
S'a\x01r\xdf\x915@A'
p35
tp36
Rp37
ag10
(g14
S'Y\xd6\xeah56@A'
p38
tp39
Rp40
ag10
(g14
S'x0O$\xc54@A'
p41
tp42
Rp43
ag10
(g14
S'\x03V\x0e\xcd35@A'
p44
tp45
Rp46
ag10
(g14
S'\xbd\xca\xa1%\xea5@A'
p47
tp48
Rp49
ag10
(g14
S'rL\xf0\x90\xfd5@A'
p50
tp51
Rp52
ag10
(g14
S'\x9b\x0bI\xf3\xa35@A'
p53
tp54
Rp55
ag10
(g14
S'\x82\xc0\xcaA|5@A'
p56
tp57
Rp58
ag10
(g14
S'\xb7t\x93(\xa95@A'
p59
tp60
Rp61
ag10
(g14
S' >\xc3.\r6@A'
p62
tp63
Rp64
ag10
(g14
S'\x95n\x12\xc3\xe55@A'
p65
tp66
Rp67
ag10
(g14
S'\xa68\xfbp\xf25@A'
p68
tp69
Rp70
ag10
(g14
S'\x8cA`\x85&6@A'
p71
tp72
Rp73
ag10
(g14
S'Q\xb8\x1e\xc5\xb15@A'
p74
tp75
Rp76
asS'target'
p77
(lp78
g10
(g14
S'\xe0x\xe9&10`@'
p79
tp80
Rp81
ag10
(g14
S'\xac\xf1\xd2Mb@a@'
p82
tp83
Rp84
ag10
(g14
S'\xaf\x9d\xef\xa7\xc6[`@'
p85
tp86
Rp87
ag10
(g14
S'z\xbe\x9f\x1a/\xada@'
p88
tp89
Rp90
ag10
(g14
S'o\xbct\x93\x18<`@'
p91
tp92
Rp93
ag10
(g14
S'\x9dn\x12\x83\xc0N`@'
p94
tp95
Rp96
ag10
(g14
S'\x1d\xdb\xf9~j\xc4`@'
p97
tp98
Rp99
ag10
(g14
S'\x05\x81\x95C\x8b\xac`@'
p100
tp101
Rp102
ag10
(g14
S'23333\xef`@'
p103
tp104
Rp105
ag10
(g14
S':\xdfO\x8d\x97*`@'
p106
tp107
Rp108
ag10
(g14
S'\xfb*\x87\x16\xd9"b@'
p109
tp110
Rp111
ag10
(g14
S'\x1d\x04V\x0e-\x08a@'
p112
tp113
Rp114
ag10
(g14
S'\x97C\x8bl\xe7\xdb`@'
p115
tp116
Rp117
ag10
(g14
S':\x8bl\xe7\xfbEa@'
p118
tp119
Rp120
ag10
(g14
S'\xf1\xd0"\xdb\xf9\xde`@'
p121
tp122
Rp123
ag10
(g14
S'\x0e-\xb2\x9d\xef)`@'
p124
tp125
Rp126
ag10
(g14
S'\xdbz\x14\xaeG\xed`@'
p127
tp128
Rp129
ag10
(g14
S'I\xb6\xf3\xfd\xd4h]@'
p130
tp131
Rp132
ag10
(g14
S'X9\xb4\xc8v\xf2`@'
p133
tp134
Rp135
ag10
(g14
S'\xde$\x06\x81\x95w`@'
p136
tp137
Rp138
asssss.