(dp0
S'../Data/sqlite_21.csv'
p1
(dp2
S'../Data/sqlite_89.csv'
p3
(dp4
F0.4
(dp5
S'mmre'
p6
(dp7
S'bellwether'
p8
(lp9
cnumpy.core.multiarray
scalar
p10
(cnumpy
dtype
p11
(S'f8'
p12
I0
I1
tp13
Rp14
(I3
S'<'
p15
NNNI-1
I-1
I0
tp16
bS'\xf2\xf8Ez\x9f$;@'
p17
tp18
Rp19
ag10
(g14
S'u\x95RRQr;@'
p20
tp21
Rp22
ag10
(g14
S'\xbb\\qK\xb2\x7f;@'
p23
tp24
Rp25
ag10
(g14
S'\xe0\xb0\xa0\xdd\xfc\xe0:@'
p26
tp27
Rp28
ag10
(g14
S'\x16\x9a\x1fe0J;@'
p29
tp30
Rp31
ag10
(g14
S'\xee\xd0\xba\xfe`F:@'
p32
tp33
Rp34
ag10
(g14
S'\x12,?\xa9b\xab9@'
p35
tp36
Rp37
ag10
(g14
S'~\xeb\x18X*\xcf:@'
p38
tp39
Rp40
ag10
(g14
S'`\x02\xd5\x98\x11\xf6:@'
p41
tp42
Rp43
ag10
(g14
S'\x9d\xe5\x9bQ\x02\xc5:@'
p44
tp45
Rp46
ag10
(g14
S'~Eq\xbcg-:@'
p47
tp48
Rp49
ag10
(g14
S'9i\xa3\xa9r\xda:@'
p50
tp51
Rp52
ag10
(g14
S'j=g\x9e\x8c\x819@'
p53
tp54
Rp55
ag10
(g14
S'\xfb=\xb6\xca\xd5\x9e;@'
p56
tp57
Rp58
ag10
(g14
S'\x8f0-\xce\xc7\xad:@'
p59
tp60
Rp61
ag10
(g14
S'g\x0b\xdcE\xb0\x1b;@'
p62
tp63
Rp64
ag10
(g14
S'u\x0fFO\xa0\xd8:@'
p65
tp66
Rp67
ag10
(g14
S'\xf0F\xd2\xb9\xa8^;@'
p68
tp69
Rp70
ag10
(g14
S'\xd1\x8c/Y\x08E;@'
p71
tp72
Rp73
ag10
(g14
S'{\x99\x1aQy\xf6:@'
p74
tp75
Rp76
asS'target'
p77
(lp78
g10
(g14
S'H\x07\xcfbA\xfbK@'
p79
tp80
Rp81
ag10
(g14
S'\\\x0bYYD\x8aS@'
p82
tp83
Rp84
ag10
(g14
S'p\xe8%\xb9G\xe6O@'
p85
tp86
Rp87
ag10
(g14
S'i\xea\x83\x1e\xd5\x8fP@'
p88
tp89
Rp90
ag10
(g14
S'>\xa7W3\xed-P@'
p91
tp92
Rp93
ag10
(g14
S'\xd3*s?\xad\x02T@'
p94
tp95
Rp96
ag10
(g14
S'_Mv{\xa2\tQ@'
p97
tp98
Rp99
ag10
(g14
S'f\xe1\x13\x16=\x16Q@'
p100
tp101
Rp102
ag10
(g14
S'\x85-\x9av\xfa\x92R@'
p103
tp104
Rp105
ag10
(g14
S'\xaeCL\xf9\x03(K@'
p106
tp107
Rp108
ag10
(g14
S' y\x91\x9bg8V@'
p109
tp110
Rp111
ag10
(g14
S'\xc60A\x10\xb2ZW@'
p112
tp113
Rp114
ag10
(g14
S'TP\x8c\xca\x8b\x93V@'
p115
tp116
Rp117
ag10
(g14
S'\xfd\xe9\xff\x92\xaa\\P@'
p118
tp119
Rp120
ag10
(g14
S'K\x9d\xf2_ADQ@'
p121
tp122
Rp123
ag10
(g14
S'\xef\x85xQA0R@'
p124
tp125
Rp126
ag10
(g14
S'\x88[\r\xbe\xa6\x18S@'
p127
tp128
Rp129
ag10
(g14
S'\xb9r/F\xdcMQ@'
p130
tp131
Rp132
ag10
(g14
S'!\xd6It~\x1bS@'
p133
tp134
Rp135
ag10
(g14
S'*i\xed\xdb\xd1~O@'
p136
tp137
Rp138
asssss.