(dp0
S'../Data/sqlite_67.csv'
p1
(dp2
S'../Data/sqlite_20.csv'
p3
(dp4
F0.05
(dp5
S'abs_res'
p6
(dp7
S'bellwether'
p8
(lp9
cnumpy.core.multiarray
scalar
p10
(cnumpy
dtype
p11
(S'f8'
p12
I0
I1
tp13
Rp14
(I3
S'<'
p15
NNNI-1
I-1
I0
tp16
bS'\xdc\xa5\x9bDh\x0e$A'
p17
tp18
Rp19
ag10
(g14
S'`fff\xe9\r$A'
p20
tp21
Rp22
ag10
(g14
S'\x8e\x99\x99Y\x06\r$A'
p23
tp24
Rp25
ag10
(g14
S'\xb9\x9f\x1aoF\x0e$A'
p26
tp27
Rp28
ag10
(g14
S'[9\xb4H\xdb\r$A'
p29
tp30
Rp31
ag10
(g14
S'D7\x89\x81\xc3\r$A'
p32
tp33
Rp34
ag10
(g14
S'M7\x89\x01\xff\r$A'
p35
tp36
Rp37
ag10
(g14
S'\x0e\xd7\xa3p\x1d\r$A'
p38
tp39
Rp40
ag10
(g14
S'\xc9\xa1E6\x96\r$A'
p41
tp42
Rp43
ag10
(g14
S'yj\xbc4\x9d\r$A'
p44
tp45
Rp46
ag10
(g14
S'\xdf1\xc1C\x9b\r$A'
p47
tp48
Rp49
ag10
(g14
S'\xc8"\xdby4\x0e$A'
p50
tp51
Rp52
ag10
(g14
S'\x16\xe8\xb4\x81\xbe\r$A'
p53
tp54
Rp55
ag10
(g14
S'\xcc"\xdby\xb4\r$A'
p56
tp57
Rp58
ag10
(g14
S'\xb7\x9d\xefgG\x0e$A'
p59
tp60
Rp61
ag10
(g14
S'\xf6\xa7\xc6\x0b\xc7\r$A'
p62
tp63
Rp64
ag10
(g14
S'\xcf\xcc\xcc\x0c\xae\r$A'
p65
tp66
Rp67
ag10
(g14
S'\xfc\xb6\xacU-\r$A'
p68
tp69
Rp70
ag10
(g14
S'\xac\x7f#T\xe2\r$A'
p71
tp72
Rp73
ag10
(g14
S'\xefQ\xb8^\x89\r$A'
p74
tp75
Rp76
asS'target'
p77
(lp78
g10
(g14
S'z\x95C\x8bl\x85t@'
p79
tp80
Rp81
ag10
(g14
S'~\x14\xaeG\xe1\xeat@'
p82
tp83
Rp84
ag10
(g14
S'Lb\x10X90t@'
p85
tp86
Rp87
ag10
(g14
S'\xce \xb0rh\xe3q@'
p88
tp89
Rp90
ag10
(g14
S'dd;\xdfOAt@'
p91
tp92
Rp93
ag10
(g14
S'\xb0G\xe1z\x14\nt@'
p94
tp95
Rp96
ag10
(g14
S'\xbb\x9d\xef\xa7\xc6Kv@'
p97
tp98
Rp99
ag10
(g14
S'\xac\x1cZd;\xe5t@'
p100
tp101
Rp102
ag10
(g14
S'I\xb8\x1e\x85\xeb+s@'
p103
tp104
Rp105
ag10
(g14
S',3333+u@'
p106
tp107
Rp108
ag10
(g14
S'"\\\x8f\xc2\xf5hx@'
p109
tp110
Rp111
ag10
(g14
S'\xa7\x9b\xc4 \xb0\xa8t@'
p112
tp113
Rp114
ag10
(g14
S'\xec\xd0"\xdb\xf9ps@'
p115
tp116
Rp117
ag10
(g14
S'\xd3\xf7S\xe3\xa5]s@'
p118
tp119
Rp120
ag10
(g14
S'\x91l\xe7\xfb\xa9\x07v@'
p121
tp122
Rp123
ag10
(g14
S'9\n\xd7\xa3p]s@'
p124
tp125
Rp126
ag10
(g14
S'\xf0$\x06\x81\x95\xf5t@'
p127
tp128
Rp129
ag10
(g14
S'\xb8G\xe1z\x144u@'
p130
tp131
Rp132
ag10
(g14
S'\x04\x81\x95C\x8b\x8ew@'
p133
tp134
Rp135
ag10
(g14
S'!1\x08\xac\x1c\x84t@'
p136
tp137
Rp138
asssss.