(dp0
S'../Data/sqlite_20.csv'
p1
(dp2
S'../Data/sqlite_59.csv'
p3
(dp4
F0.35
(dp5
S'mmre'
p6
(dp7
S'bellwether'
p8
(lp9
cnumpy.core.multiarray
scalar
p10
(cnumpy
dtype
p11
(S'f8'
p12
I0
I1
tp13
Rp14
(I3
S'<'
p15
NNNI-1
I-1
I0
tp16
bS'\xees L\x91R>@'
p17
tp18
Rp19
ag10
(g14
S't\x99\x88T\xd6\r>@'
p20
tp21
Rp22
ag10
(g14
S'h\xfc\xb53P6>@'
p23
tp24
Rp25
ag10
(g14
S'a\xd55\x10\x1f4>@'
p26
tp27
Rp28
ag10
(g14
S'\x91C\xa6%\xe7c>@'
p29
tp30
Rp31
ag10
(g14
S'\xe3\xa30\xac\xfb\x08>@'
p32
tp33
Rp34
ag10
(g14
S'\xb8\x913\x96\xe6Y>@'
p35
tp36
Rp37
ag10
(g14
S'i\xc2\xebz\n#>@'
p38
tp39
Rp40
ag10
(g14
S'`\x9bG\xdd\x1c\x0b>@'
p41
tp42
Rp43
ag10
(g14
S'\xcc\x91[X\x8d\x80>@'
p44
tp45
Rp46
ag10
(g14
S'\xba\xb02\x1bQ\xf3=@'
p47
tp48
Rp49
ag10
(g14
S'3\\\xe1,,\x0e>@'
p50
tp51
Rp52
ag10
(g14
S'\x92\xca\xac]\x87<>@'
p53
tp54
Rp55
ag10
(g14
S'Vn\xbe-,q>@'
p56
tp57
Rp58
ag10
(g14
S'\x8c\xa7\xf7e0\\>@'
p59
tp60
Rp61
ag10
(g14
S'D\x8c\xd6BSG>@'
p62
tp63
Rp64
ag10
(g14
S'\xcc\xcc\xae\x075\x19>@'
p65
tp66
Rp67
ag10
(g14
S'w\x8d\x8b\xb3\x88S>@'
p68
tp69
Rp70
ag10
(g14
S'\xbd\xc6\xa0\xc6\x80$>@'
p71
tp72
Rp73
ag10
(g14
S'a\x8c\xdcq_Z>@'
p74
tp75
Rp76
asS'target'
p77
(lp78
g10
(g14
S'HrLb\x80\xa5&@'
p79
tp80
Rp81
ag10
(g14
S'\xfc\x12/8u!%@'
p82
tp83
Rp84
ag10
(g14
S'\xc0P\xf0\x8a+\xd7$@'
p85
tp86
Rp87
ag10
(g14
S'7s\xb4=\xed\xf6&@'
p88
tp89
Rp90
ag10
(g14
S'g\x1b\xe7\xdc\x875&@'
p91
tp92
Rp93
ag10
(g14
S'\xd6\\\x97\xf7"\xa9%@'
p94
tp95
Rp96
ag10
(g14
S"\x8a\xdf\x85}f\x06'@"
p97
tp98
Rp99
ag10
(g14
S'y\xfb&[\xaf\x96%@'
p100
tp101
Rp102
ag10
(g14
S'\xd4\x9dV\x9b\xa5B&@'
p103
tp104
Rp105
ag10
(g14
S'\xaa\xc0\xc0\xc5{\xe5%@'
p106
tp107
Rp108
ag10
(g14
S'\xc2~\x03`%?&@'
p109
tp110
Rp111
ag10
(g14
S'{\xac\xa5\x13g\x81&@'
p112
tp113
Rp114
ag10
(g14
S'\xc2\x82\x87e\xd9M%@'
p115
tp116
Rp117
ag10
(g14
S'O|:\xee\x19y%@'
p118
tp119
Rp120
ag10
(g14
S'\xacV.I\xf1\x0c$@'
p121
tp122
Rp123
ag10
(g14
S'\xd1\x16\xa0\xdf\xbe\x08&@'
p124
tp125
Rp126
ag10
(g14
S'\\\x9c\xe4\x83Ty$@'
p127
tp128
Rp129
ag10
(g14
S'T\xf1f\x06\xab\x9a&@'
p130
tp131
Rp132
ag10
(g14
S'{\xc0\r\x9f\xbaz&@'
p133
tp134
Rp135
ag10
(g14
S'Gp\x81\xc5[\x9b$@'
p136
tp137
Rp138
asssss.