(dp0
S'../Data/sqlite_29.csv'
p1
(dp2
S'../Data/sqlite_61.csv'
p3
(dp4
F0.05
(dp5
S'abs_res'
p6
(dp7
S'bellwether'
p8
(lp9
cnumpy.core.multiarray
scalar
p10
(cnumpy
dtype
p11
(S'f8'
p12
I0
I1
tp13
Rp14
(I3
S'<'
p15
NNNI-1
I-1
I0
tp16
bS'E\x8d\x97N\x0e.EA'
p17
tp18
Rp19
ag10
(g14
S'\x1a\x85\xebQ\x18.EA'
p20
tp21
Rp22
ag10
(g14
S'\xba\xca\xa1%\\.EA'
p23
tp24
Rp25
ag10
(g14
S'\xbbv\xbe_\x0b.EA'
p26
tp27
Rp28
ag10
(g14
S'\xb9I\x0c\xa2o.EA'
p29
tp30
Rp31
ag10
(g14
S'y[\xd6\x9a\x05.EA'
p32
tp33
Rp34
ag10
(g14
S'\xd7\xa5\x9b\xf4\x9c.EA'
p35
tp36
Rp37
ag10
(g14
S'\xa9\x9b\xc4\x10X.EA'
p38
tp39
Rp40
ag10
(g14
S'v\x95C;\x0e.EA'
p41
tp42
Rp43
ag10
(g14
S"'M\xa9\x18\xd8-EA"
p44
tp45
Rp46
ag10
(g14
S'\xf0F(\xd3a.EA'
p47
tp48
Rp49
ag10
(g14
S'vh\x91M;.EA'
p50
tp51
Rp52
ag10
(g14
S'\xa8G\xe1\xdan.EA'
p53
tp54
Rp55
ag10
(g14
S"'x0\x9f6.EA"
p56
tp57
Rp58
ag10
(g14
S'\xff\xff\xff\xff4.EA'
p59
tp60
Rp61
ag10
(g14
S'D5^j\xfc-EA'
p62
tp63
Rp64
ag10
(g14
S'\x02X94\x00.EA'
p65
tp66
Rp67
ag10
(g14
S'g.$m\xd5.EA'
p68
tp69
Rp70
ag10
(g14
S'\x83\xebQ\xe8\x1d.EA'
p71
tp72
Rp73
ag10
(g14
S't\x95C;\x1b.EA'
p74
tp75
Rp76
asS'target'
p77
(lp78
g10
(g14
S'\xa4\x1a/\xdd$j\x83@'
p79
tp80
Rp81
ag10
(g14
S'U\xe3\xa5\x9b\xc4\xa8o@'
p82
tp83
Rp84
ag10
(g14
S'U9\xb4\xc8vH\x82@'
p85
tp86
Rp87
ag10
(g14
S'\xf8\xa7\xc6K7\xc0\x85@'
p88
tp89
Rp90
ag10
(g14
S'/\xb2\x9d\xef\xa7\x14~@'
p91
tp92
Rp93
ag10
(g14
S'{\x93\x18\x04V"v@'
p94
tp95
Rp96
ag10
(g14
S'\xa6\xf1\xd2Mbp}@'
p97
tp98
Rp99
ag10
(g14
S'xh\x91\xed|)s@'
p100
tp101
Rp102
ag10
(g14
S'\xde\xa5\x9b\xc4 \x16z@'
p103
tp104
Rp105
ag10
(g14
S'i\x12\x83\xc0\xcaG|@'
p106
tp107
Rp108
ag10
(g14
S'\xb3\x9d\xef\xa7\xc6\xbdp@'
p109
tp110
Rp111
ag10
(g14
S'\xcb\xf7S\xe3\xa5\x83{@'
p112
tp113
Rp114
ag10
(g14
S'*\x87\x16\xd9\xce\xf3\x80@'
p115
tp116
Rp117
ag10
(g14
S'\x1f\xdb\xf9~j\xc8t@'
p118
tp119
Rp120
ag10
(g14
S'g\x10X9\xb4@z@'
p121
tp122
Rp123
ag10
(g14
S'\xd0Mb\x10Xl\x80@'
p124
tp125
Rp126
ag10
(g14
S'\n\xd7\xa3p=\xc0\x81@'
p127
tp128
Rp129
ag10
(g14
S'I\xe1z\x14\xae[o@'
p130
tp131
Rp132
ag10
(g14
S'Pb\x10X9c\x83@'
p133
tp134
Rp135
ag10
(g14
S'\x02\xd5x\xe9&\xfc\x84@'
p136
tp137
Rp138
asssss.