(dp0
S'../Data/sqlite_6.csv'
p1
(dp2
S'../Data/sqlite_15.csv'
p3
(dp4
F0.25
(dp5
S'abs_res'
p6
(dp7
S'bellwether'
p8
(lp9
cnumpy.core.multiarray
scalar
p10
(cnumpy
dtype
p11
(S'f8'
p12
I0
I1
tp13
Rp14
(I3
S'<'
p15
NNNI-1
I-1
I0
tp16
bS'\xbeI\x0c\xe2\x14h<A'
p17
tp18
Rp19
ag10
(g14
S'\xae\xb9\x90\x04nj<A'
p20
tp21
Rp22
ag10
(g14
S'\xca\x85\xa4yOf<A'
p23
tp24
Rp25
ag10
(g14
S"\xdc\xb2V'\x99f<A"
p26
tp27
Rp28
ag10
(g14
S'R\xf0`\x8e\xe2h<A'
p29
tp30
Rp31
ag10
(g14
S'\x07c\xc9\x7f\xa6h<A'
p32
tp33
Rp34
ag10
(g14
S'\xfa\xd2M2?i<A'
p35
tp36
Rp37
ag10
(g14
S'VFoK5g<A'
p38
tp39
Rp40
ag10
(g14
S'\x1e>\xc3\xde\xc0g<A'
p41
tp42
Rp43
ag10
(g14
S'\xce/\x96l\x00h<A'
p44
tp45
Rp46
ag10
(g14
S'j\xc9/\xa6\x90i<A'
p47
tp48
Rp49
ag10
(g14
S'EB\x19\xcd5h<A'
p50
tp51
Rp52
ag10
(g14
S'Zd;\xcf\rg<A'
p53
tp54
Rp55
ag10
(g14
S"\x9d'\xea\x9fEh<A"
p56
tp57
Rp58
ag10
(g14
S'\xba\x1e\x85{\xfaf<A'
p59
tp60
Rp61
ag10
(g14
S'u\xcbZ\xed4h<A'
p62
tp63
Rp64
ag10
(g14
S'\xf1(\\O\xafg<A'
p65
tp66
Rp67
ag10
(g14
S't\x91\xed\xecYh<A'
p68
tp69
Rp70
ag10
(g14
S'$\xb0r\xd8ah<A'
p71
tp72
Rp73
ag10
(g14
S'$>\xc3\xbeUi<A'
p74
tp75
Rp76
asS'target'
p77
(lp78
g10
(g14
S'\xf2\xff\xff\xff\x7f\xfb\xce@'
p79
tp80
Rp81
ag10
(g14
S'\xc1\xcc\xcc\xcc\xecO\xce@'
p82
tp83
Rp84
ag10
(g14
S'hfff\xc6\xf1\xcf@'
p85
tp86
Rp87
ag10
(g14
S'gfff\xe6*\xd0@'
p88
tp89
Rp90
ag10
(g14
S'2333sG\xcd@'
p91
tp92
Rp93
ag10
(g14
S'2333C\xa0\xd0@'
p94
tp95
Rp96
ag10
(g14
S'\xfc\xff\xff\xff\x1fq\xd0@'
p97
tp98
Rp99
ag10
(g14
S'>3333q\xcf@'
p100
tp101
Rp102
ag10
(g14
S'\xc9\xcc\xcc\xccL\xd7\xcd@'
p103
tp104
Rp105
ag10
(g14
S'\x00\x00\x00\x00\x00U\xcf@'
p106
tp107
Rp108
ag10
(g14
S'\x96\x99\x99\x99\xf9j\xcf@'
p109
tp110
Rp111
ag10
(g14
S'jfff&7\xce@'
p112
tp113
Rp114
ag10
(g14
S'/333\xb3C\xd0@'
p115
tp116
Rp117
ag10
(g14
S'afff\xe6L\xce@'
p118
tp119
Rp120
ag10
(g14
S'jfff\xe6\xf2\xcd@'
p121
tp122
Rp123
ag10
(g14
S'`fff\xa6\xc5\xcf@'
p124
tp125
Rp126
ag10
(g14
S'\x94\x99\x99\x99Y\xa1\xcd@'
p127
tp128
Rp129
ag10
(g14
S'\xc5\xcc\xcc\xccLt\xcf@'
p130
tp131
Rp132
ag10
(g14
S'\xf9\xff\xff\xff_\xea\xcd@'
p133
tp134
Rp135
ag10
(g14
S'.333s\x18\xd0@'
p136
tp137
Rp138
asssss.