(dp0
S'../Data/sqlite_48.csv'
p1
(dp2
S'../Data/sqlite_84.csv'
p3
(dp4
F0.2
(dp5
S'mmre'
p6
(dp7
S'bellwether'
p8
(lp9
cnumpy.core.multiarray
scalar
p10
(cnumpy
dtype
p11
(S'f8'
p12
I0
I1
tp13
Rp14
(I3
S'<'
p15
NNNI-1
I-1
I0
tp16
bS'\xda\x9am*_iQ@'
p17
tp18
Rp19
ag10
(g14
S'\x98/\x16\x1d}\x88Q@'
p20
tp21
Rp22
ag10
(g14
S'`\xd2\xf1\xf7\xb75Q@'
p23
tp24
Rp25
ag10
(g14
S'.0\xce\x9c\xe2QQ@'
p26
tp27
Rp28
ag10
(g14
S'\x04\xc0\xf1R\x019Q@'
p29
tp30
Rp31
ag10
(g14
S'T\x89\x0f\xaa\x98\x1dQ@'
p32
tp33
Rp34
ag10
(g14
S'\xae4P\xee\xf2kQ@'
p35
tp36
Rp37
ag10
(g14
S'3\xf6i\xa6\x81-Q@'
p38
tp39
Rp40
ag10
(g14
S'y\x87\x14yH\x1dQ@'
p41
tp42
Rp43
ag10
(g14
S'\xafA\x9d\nh\x82Q@'
p44
tp45
Rp46
ag10
(g14
S'\xb4\x9a\x1f7`KQ@'
p47
tp48
Rp49
ag10
(g14
S'Z\xccK\x01\x07CQ@'
p50
tp51
Rp52
ag10
(g14
S'\xe9T5\xae\xa39Q@'
p53
tp54
Rp55
ag10
(g14
S'^\xa0.\xc1>>Q@'
p56
tp57
Rp58
ag10
(g14
S'\xf8\xcb3tSKQ@'
p59
tp60
Rp61
ag10
(g14
S'\xea\x00\xbb%uzQ@'
p62
tp63
Rp64
ag10
(g14
S'y\x888\xdbAfQ@'
p65
tp66
Rp67
ag10
(g14
S'\x8ev\xe4\xaa\x8fQQ@'
p68
tp69
Rp70
ag10
(g14
S'\xa2d[d\xe57Q@'
p71
tp72
Rp73
ag10
(g14
S'j@\x8c\xb1\xb28Q@'
p74
tp75
Rp76
asS'target'
p77
(lp78
g10
(g14
S'\\\xd3\xa6Oa\xc4S@'
p79
tp80
Rp81
ag10
(g14
S'qf\x8c\x10S\xd6M@'
p82
tp83
Rp84
ag10
(g14
S'\xe9Mm\xc3T\xbbK@'
p85
tp86
Rp87
ag10
(g14
S'\x00\x94;\x8c\x1d\xd6I@'
p88
tp89
Rp90
ag10
(g14
S'4\xf8\xeaZ`\x8eX@'
p91
tp92
Rp93
ag10
(g14
S'\x8a\xb2\xcc/\xba\xa4Q@'
p94
tp95
Rp96
ag10
(g14
S'\x0c\xc6\xa4\x85\x86#T@'
p97
tp98
Rp99
ag10
(g14
S'<^\xd0l\xe0\x85T@'
p100
tp101
Rp102
ag10
(g14
S'\xe2>\\\xed\xa7:R@'
p103
tp104
Rp105
ag10
(g14
S'\xbd\xbfF\tE\x86L@'
p106
tp107
Rp108
ag10
(g14
S'\x1f2\x88\x07\r\x04S@'
p109
tp110
Rp111
ag10
(g14
S'\xdb1^d\xb1`W@'
p112
tp113
Rp114
ag10
(g14
S'\x04\n\x96\xd6$\x15T@'
p115
tp116
Rp117
ag10
(g14
S'\xf4c%\xfd^NR@'
p118
tp119
Rp120
ag10
(g14
S'\xc6!J\x84\x9d\x10R@'
p121
tp122
Rp123
ag10
(g14
S'\xba\xbe6|W\x02Q@'
p124
tp125
Rp126
ag10
(g14
S'\xa4\xbbZ\x8b\x95AK@'
p127
tp128
Rp129
ag10
(g14
S'\x9b\x8e\x8d\xd3\xb1\xd5J@'
p130
tp131
Rp132
ag10
(g14
S'J\xe7\xf0\xf4\xe6FP@'
p133
tp134
Rp135
ag10
(g14
S'\xc4\xe9oG3\x06Z@'
p136
tp137
Rp138
asssss.