(dp0
S'../Data/sqlite_69.csv'
p1
(dp2
S'../Data/sqlite_59.csv'
p3
(dp4
F0.4
(dp5
S'mmre'
p6
(dp7
S'bellwether'
p8
(lp9
cnumpy.core.multiarray
scalar
p10
(cnumpy
dtype
p11
(S'f8'
p12
I0
I1
tp13
Rp14
(I3
S'<'
p15
NNNI-1
I-1
I0
tp16
bS'\xb4aMnf*r@'
p17
tp18
Rp19
ag10
(g14
S'\xee\xe1s\x14\xea%r@'
p20
tp21
Rp22
ag10
(g14
S'\xb0\x01\x85&\x91Rr@'
p23
tp24
Rp25
ag10
(g14
S'\x0bv;%\xc7Br@'
p26
tp27
Rp28
ag10
(g14
S'\x02<}u9^r@'
p29
tp30
Rp31
ag10
(g14
S'9vj\xac\x82Cr@'
p32
tp33
Rp34
ag10
(g14
S'S\xd7\x0f\xab\xd2:r@'
p35
tp36
Rp37
ag10
(g14
S'\xaa\xfa\xdf-\xaa1r@'
p38
tp39
Rp40
ag10
(g14
S"3\xa4z\xc8\xca'r@"
p41
tp42
Rp43
ag10
(g14
S"[\\r\xa7\xdc'r@"
p44
tp45
Rp46
ag10
(g14
S'\xbbt\xf8\xc899r@'
p47
tp48
Rp49
ag10
(g14
S'\xa5}\xf3O\xa89r@'
p50
tp51
Rp52
ag10
(g14
S'L ?NxLr@'
p53
tp54
Rp55
ag10
(g14
S'|\xbe\xd9y8"r@'
p56
tp57
Rp58
ag10
(g14
S'\xc0\xa2\x1cbm r@'
p59
tp60
Rp61
ag10
(g14
S'C@W0\nVr@'
p62
tp63
Rp64
ag10
(g14
S'\xb6\xaf\x82\x01\xb6\x1dr@'
p65
tp66
Rp67
ag10
(g14
S'T\xb5\xe2\x95y<r@'
p68
tp69
Rp70
ag10
(g14
S'CJ\xa4\xec\x15Wr@'
p71
tp72
Rp73
ag10
(g14
S'\x98W\xbfw*)r@'
p74
tp75
Rp76
asS'target'
p77
(lp78
g10
(g14
S'S\xde\xe105\xe4$@'
p79
tp80
Rp81
ag10
(g14
S";p\xd1\xef\x170'@"
p82
tp83
Rp84
ag10
(g14
S'\xab\xe0\xd7\x80\xa5\xe7%@'
p85
tp86
Rp87
ag10
(g14
S"2j\x83\xe4J\x87'@"
p88
tp89
Rp90
ag10
(g14
S'\xedt\xe5\n\x82\xd6&@'
p91
tp92
Rp93
ag10
(g14
S'\x18-]\xca\x1eE%@'
p94
tp95
Rp96
ag10
(g14
S'\xef\x954,\xd9\x88&@'
p97
tp98
Rp99
ag10
(g14
S'\xa4~\n\t\x9e\x90%@'
p100
tp101
Rp102
ag10
(g14
S'\x00#\x19\xe3+\xb0%@'
p103
tp104
Rp105
ag10
(g14
S'\xb3\x88\xbf\xbc\xe1\xa4%@'
p106
tp107
Rp108
ag10
(g14
S'#{\x1e~\x00v&@'
p109
tp110
Rp111
ag10
(g14
S"]\x80O\xc1\xd8\xf9'@"
p112
tp113
Rp114
ag10
(g14
S'u\xa3{\xb4@\x03%@'
p115
tp116
Rp117
ag10
(g14
S'@|\xdd5h\xb1$@'
p118
tp119
Rp120
ag10
(g14
S'\xe7\x04\x06\x92\xda(%@'
p121
tp122
Rp123
ag10
(g14
S'e\t\xba9\x87\xd0&@'
p124
tp125
Rp126
ag10
(g14
S'\xa5\x1a\x94$\xdf\x9e&@'
p127
tp128
Rp129
ag10
(g14
S'\xda\x04\xe2\xcf\x1f\xe1&@'
p130
tp131
Rp132
ag10
(g14
S'M\nl\x94M|&@'
p133
tp134
Rp135
ag10
(g14
S'<\xc4\x8bV4~%@'
p136
tp137
Rp138
asssss.