(dp0
S'../Data/sqlite_17.csv'
p1
(dp2
S'../Data/sqlite_59.csv'
p3
(dp4
F0.4
(dp5
S'mmre'
p6
(dp7
S'bellwether'
p8
(lp9
cnumpy.core.multiarray
scalar
p10
(cnumpy
dtype
p11
(S'f8'
p12
I0
I1
tp13
Rp14
(I3
S'<'
p15
NNNI-1
I-1
I0
tp16
bS'\x87\x9bQ\xbf\xb2(E@'
p17
tp18
Rp19
ag10
(g14
S'\x19\x80N\xfez5E@'
p20
tp21
Rp22
ag10
(g14
S'\xeb`-\xd2\xce4E@'
p23
tp24
Rp25
ag10
(g14
S'\x16\xe82T\xdd4E@'
p26
tp27
Rp28
ag10
(g14
S'\xcb\x02h\xa9D#E@'
p29
tp30
Rp31
ag10
(g14
S'.\xab\\\xf4\xe9%E@'
p32
tp33
Rp34
ag10
(g14
S'\x864\xf6\x8c\xc9-E@'
p35
tp36
Rp37
ag10
(g14
S'2\xbaw\x91\r,E@'
p38
tp39
Rp40
ag10
(g14
S'2\xd3W#V0E@'
p41
tp42
Rp43
ag10
(g14
S'3\xb6dk\xbe.E@'
p44
tp45
Rp46
ag10
(g14
S'\x9bs\xcb\xba\x0b"E@'
p47
tp48
Rp49
ag10
(g14
S';w\x1c\x806,E@'
p50
tp51
Rp52
ag10
(g14
S'<\x90D\xfe\xc6<E@'
p53
tp54
Rp55
ag10
(g14
S'\xcc\x95\x16\x00uFE@'
p56
tp57
Rp58
ag10
(g14
S's\xaf2V*!E@'
p59
tp60
Rp61
ag10
(g14
S'=\xf9uG\xb1\x16E@'
p62
tp63
Rp64
ag10
(g14
S'=\x91\xc7vn\x16E@'
p65
tp66
Rp67
ag10
(g14
S'f\x1e\x0c\xe1\x0b\x1eE@'
p68
tp69
Rp70
ag10
(g14
S'\x0f\xe7\x8e\n\x13GE@'
p71
tp72
Rp73
ag10
(g14
S'\xb3\xf0\x9c\x96LIE@'
p74
tp75
Rp76
asS'target'
p77
(lp78
g10
(g14
S'\x1e!I\xb5\xcc}%@'
p79
tp80
Rp81
ag10
(g14
S'H\xeaC\xb0\xceC&@'
p82
tp83
Rp84
ag10
(g14
S'P\xac\t\xe4%\xfa%@'
p85
tp86
Rp87
ag10
(g14
S'\xa2\x04\x0c\xd8\xca_%@'
p88
tp89
Rp90
ag10
(g14
S'v\xb9\xab\xe9o\x1c%@'
p91
tp92
Rp93
ag10
(g14
S'B\xbdl\xddo~&@'
p94
tp95
Rp96
ag10
(g14
S':\xa0\xce\xc7\x96\xa2&@'
p97
tp98
Rp99
ag10
(g14
S'\xc5\x10\xe1s)a%@'
p100
tp101
Rp102
ag10
(g14
S'*tv\xf0\xea%&@'
p103
tp104
Rp105
ag10
(g14
S'\xedW\xf5\xd1W\xbd$@'
p106
tp107
Rp108
ag10
(g14
S'x\xb4M\xe5#\xa6&@'
p109
tp110
Rp111
ag10
(g14
S'\x9f\xba\xc1\xbb\x0e\x18&@'
p112
tp113
Rp114
ag10
(g14
S'\xee\xe9\x03s$\xa4%@'
p115
tp116
Rp117
ag10
(g14
S'\x96\x18\xca\x14\xc1\xc2%@'
p118
tp119
Rp120
ag10
(g14
S'%\x94\xd5Sqz%@'
p121
tp122
Rp123
ag10
(g14
S'\xe7i:\xa4#\xf9%@'
p124
tp125
Rp126
ag10
(g14
S'\x0e\xa9}v\x96\xc5&@'
p127
tp128
Rp129
ag10
(g14
S'i\xb6\xe7\xc0s\xe0&@'
p130
tp131
Rp132
ag10
(g14
S'\xa9si\xb0A\x19&@'
p133
tp134
Rp135
ag10
(g14
S'+\xe4\x7fT\x16V%@'
p136
tp137
Rp138
asssss.