(dp0
S'../Data/sqlite_91.csv'
p1
(dp2
S'../Data/sqlite_14.csv'
p3
(dp4
F0.35
(dp5
S'abs_res'
p6
(dp7
S'bellwether'
p8
(lp9
cnumpy.core.multiarray
scalar
p10
(cnumpy
dtype
p11
(S'f8'
p12
I0
I1
tp13
Rp14
(I3
S'<'
p15
NNNI-1
I-1
I0
tp16
bS'b\x9e\xa8?\xd9B A'
p17
tp18
Rp19
ag10
(g14
S'\x89\xebQx\xebg A'
p20
tp21
Rp22
ag10
(g14
S'!\xb0rh\x88; A'
p23
tp24
Rp25
ag10
(g14
S'^H\x9aR\x82D A'
p26
tp27
Rp28
ag10
(g14
S'V\xe3\xa5\x9b\xa3B A'
p29
tp30
Rp31
ag10
(g14
S'=\x89A\xa0\xd77 A'
p32
tp33
Rp34
ag10
(g14
S'\x81\x95CK\xa2Z A'
p35
tp36
Rp37
ag10
(g14
S'\x90\xa6T\\+* A'
p38
tp39
Rp40
ag10
(g14
S'6333\xcf\x86 A'
p41
tp42
Rp43
ag10
(g14
S'\x12\x83\xc0J\x9f/ A'
p44
tp45
Rp46
ag10
(g14
S'p\xe7\xfbiL5 A'
p47
tp48
Rp49
ag10
(g14
S'\x04\xe4^3k, A'
p50
tp51
Rp52
ag10
(g14
S'\xa1\xd3\x06:\xa0r A'
p53
tp54
Rp55
ag10
(g14
S'\xda\xf9~\xea\x9d. A'
p56
tp57
Rp58
ag10
(g14
S'\x99\xd1\xdb2;b A'
p59
tp60
Rp61
ag10
(g14
S'a\xe5\xd0brM A'
p62
tp63
Rp64
ag10
(g14
S'\xdd\xa3p\xbd8[ A'
p65
tp66
Rp67
ag10
(g14
S'\xe8\xa5\x9b\xc49W A'
p68
tp69
Rp70
ag10
(g14
S'\x9c\xfcb\xc9KC A'
p71
tp72
Rp73
ag10
(g14
S'\x80N\x1b\xe8\xeb` A'
p74
tp75
Rp76
asS'target'
p77
(lp78
g10
(g14
S'\xa3p=\n\xd7m`@'
p79
tp80
Rp81
ag10
(g14
S'/\x96\xfcb\xc9\xe9`@'
p82
tp83
Rp84
ag10
(g14
S"\x11<\x98'\xea/a@"
p85
tp86
Rp87
ag10
(g14
S'\xd5Mb\x10XE`@'
p88
tp89
Rp90
ag10
(g14
S'\x93n\x12\x83\xc0\x10a@'
p91
tp92
Rp93
ag10
(g14
S'X\xb8\x1e\x85\xeb\x1d_@'
p94
tp95
Rp96
ag10
(g14
S'\xf8~j\xbct\xa3^@'
p97
tp98
Rp99
ag10
(g14
S'\xc8\xf5(\\\x8fj`@'
p100
tp101
Rp102
ag10
(g14
S'\x83\x95C\x8bl\xaf]@'
p103
tp104
Rp105
ag10
(g14
S'\x0e\xaeG\xe1z\xd4^@'
p106
tp107
Rp108
ag10
(g14
S'.\xb2\x9d\xef\xa72`@'
p109
tp110
Rp111
ag10
(g14
S'\x15-\xb2\x9d\xef\xc7`@'
p112
tp113
Rp114
ag10
(g14
S'?\xdfO\x8d\x97\xb6`@'
p115
tp116
Rp117
ag10
(g14
S'\xd7Mb\x10X\x17`@'
p118
tp119
Rp120
ag10
(g14
S'\xe8Q\xb8\x1e\x85\x8b^@'
p121
tp122
Rp123
ag10
(g14
S'\x9ap=\n\xd7\xd3_@'
p124
tp125
Rp126
ag10
(g14
S'\xcdK7\x89A\xa8`@'
p127
tp128
Rp129
ag10
(g14
S'\xb4\x9d\xef\xa7\xc6k`@'
p130
tp131
Rp132
ag10
(g14
S'\x92\xc2\xf5(\\\x1da@'
p133
tp134
Rp135
ag10
(g14
S'\x0e\xac\x1cZd{_@'
p136
tp137
Rp138
asssss.