(dp0
S'../Data/sqlite_68.csv'
p1
(dp2
S'../Data/sqlite_29.csv'
p3
(dp4
F0.05
(dp5
S'abs_res'
p6
(dp7
S'bellwether'
p8
(lp9
cnumpy.core.multiarray
scalar
p10
(cnumpy
dtype
p11
(S'f8'
p12
I0
I1
tp13
Rp14
(I3
S'<'
p15
NNNI-1
I-1
I0
tp16
bS'#\x85\xebAIkDA'
p17
tp18
Rp19
ag10
(g14
S'h=\ngRkDA'
p20
tp21
Rp22
ag10
(g14
S'hffFRkDA'
p23
tp24
Rp25
ag10
(g14
S'\xe6Q\xb8NRkDA'
p26
tp27
Rp28
ag10
(g14
S'\xf2(\\\x8f_kDA'
p29
tp30
Rp31
ag10
(g14
S'\x1f\x85\xeb!\x1ekDA'
p32
tp33
Rp34
ag10
(g14
S'\xf9(\\_skDA'
p35
tp36
Rp37
ag10
(g14
S'\x89%\xbfhpjDA'
p38
tp39
Rp40
ag10
(g14
S'[\xf2\x8bEQkDA'
p41
tp42
Rp43
ag10
(g14
S'\xe6z\x14\xee\xa1kDA'
p44
tp45
Rp46
ag10
(g14
S'\x1a\x85\xeb\xf1ckDA'
p47
tp48
Rp49
ag10
(g14
S'\xa4p=\xfaykDA'
p50
tp51
Rp52
ag10
(g14
S'\xf3\x8b%\xef\xcajDA'
p53
tp54
Rp55
ag10
(g14
S'\xff\xff\xff?\x7fkDA'
p56
tp57
Rp58
ag10
(g14
S";\n\xd7\xe3'lDA"
p59
tp60
Rp61
ag10
(g14
S'\x1e\x85\xebQJkDA'
p62
tp63
Rp64
ag10
(g14
S'\x14\xaeG\x01\xf6jDA'
p65
tp66
Rp67
ag10
(g14
S'L\xe1zdNkDA'
p68
tp69
Rp70
ag10
(g14
S'\x96\xc2\xf5HXkDA'
p71
tp72
Rp73
ag10
(g14
S'j=\n\x07)kDA'
p74
tp75
Rp76
asS'target'
p77
(lp78
g10
(g14
S'tfff\xe62\xd4@'
p79
tp80
Rp81
ag10
(g14
S'gfff\x86\xf1\xd5@'
p82
tp83
Rp84
ag10
(g14
S'8333\x13\xe3\xd4@'
p85
tp86
Rp87
ag10
(g14
S'\n\x00\x00\x00`v\xd5@'
p88
tp89
Rp90
ag10
(g14
S'\x99\x99\x99\x999-\xd6@'
p91
tp92
Rp93
ag10
(g14
S'\x97\x99\x99\x99\xd9?\xd5@'
p94
tp95
Rp96
ag10
(g14
S'cfff\xc6\x04\xd5@'
p97
tp98
Rp99
ag10
(g14
S'\xf7\xff\xff\xff\xbf\x97\xd8@'
p100
tp101
Rp102
ag10
(g14
S'cfff\x86~\xd6@'
p103
tp104
Rp105
ag10
(g14
S'\t\x00\x00\x00\x00x\xd4@'
p106
tp107
Rp108
ag10
(g14
S'\xd4\xcc\xcc\xcc,\x88\xd7@'
p109
tp110
Rp111
ag10
(g14
S'\xa6\x99\x99\x99\x99\xf6\xd7@'
p112
tp113
Rp114
ag10
(g14
S'<333\xb3(\xd6@'
p115
tp116
Rp117
ag10
(g14
S'\t\x00\x00\x00@O\xd4@'
p118
tp119
Rp120
ag10
(g14
S'\x04\x00\x00\x00\xa0\xbe\xd5@'
p121
tp122
Rp123
ag10
(g14
S'\xc8\xcc\xcc\xcc,\xc6\xd5@'
p124
tp125
Rp126
ag10
(g14
S'\x00\x00\x00\x00\xe0f\xdc@'
p127
tp128
Rp129
ag10
(g14
S'4333sQ\xd7@'
p130
tp131
Rp132
ag10
(g14
S';333\xf35\xd5@'
p133
tp134
Rp135
ag10
(g14
S'$333s\x94\xd4@'
p136
tp137
Rp138
asssss.