(dp0
S'../Data/sqlite_60.csv'
p1
(dp2
S'../Data/sqlite_2.csv'
p3
(dp4
F0.2
(dp5
S'abs_res'
p6
(dp7
S'bellwether'
p8
(lp9
cnumpy.core.multiarray
scalar
p10
(cnumpy
dtype
p11
(S'f8'
p12
I0
I1
tp13
Rp14
(I3
S'<'
p15
NNNI-1
I-1
I0
tp16
bS'C\xe1z0S\xc5fA'
p17
tp18
Rp19
ag10
(g14
S'\xbb-k-{\xd3fA'
p20
tp21
Rp22
ag10
(g14
S'\xed\xfb\xa9e\x99\xccfA'
p23
tp24
Rp25
ag10
(g14
S'|?5\xeeG\xc8fA'
p26
tp27
Rp28
ag10
(g14
S'S9\xb4\xf8\xe4\xcafA'
p29
tp30
Rp31
ag10
(g14
S'\x1c>\xc3\nW\xc5fA'
p32
tp33
Rp34
ag10
(g14
S'\x1d>\xc3\x0e\xf3\xccfA'
p35
tp36
Rp37
ag10
(g14
S'\x93\xa6T\xccH\xcafA'
p38
tp39
Rp40
ag10
(g14
S'\x10\xf5oh\xb6\xccfA'
p41
tp42
Rp43
ag10
(g14
S'n!i.\x81\xcdfA'
p44
tp45
Rp46
ag10
(g14
S'^\xc9/**\xc3fA'
p47
tp48
Rp49
ag10
(g14
S'\x19Zdk"\xc3fA'
p50
tp51
Rp52
ag10
(g14
S'\x9e\xd51\x19\xc1\xc7fA'
p53
tp54
Rp55
ag10
(g14
S'&^\xba\xcd\x91\xc8fA'
p56
tp57
Rp58
ag10
(g14
S'\x89\x97n^3\xbcfA'
p59
tp60
Rp61
ag10
(g14
S'\xdb\x08e4H\xc7fA'
p62
tp63
Rp64
ag10
(g14
S'\xad8\xfb|\xa5\xcafA'
p65
tp66
Rp67
ag10
(g14
S'}wwo@\xcbfA'
p68
tp69
Rp70
ag10
(g14
S'[\xe5\xd0\x82]\xc7fA'
p71
tp72
Rp73
ag10
(g14
S'\x0b\xac\x1c\x1a\xce\xc7fA'
p74
tp75
Rp76
asS'target'
p77
(lp78
g10
(g14
S'Tb\x10X9xQ@'
p79
tp80
Rp81
ag10
(g14
S'Kb\x10X9\x8cR@'
p82
tp83
Rp84
ag10
(g14
S'A\n\xd7\xa3p-P@'
p85
tp86
Rp87
ag10
(g14
S'g\x91\xed|?\xc1P@'
p88
tp89
Rp90
ag10
(g14
S'\xbe\x9f\x1a/\xdd$P@'
p91
tp92
Rp93
ag10
(g14
S'D\n\xd7\xa3p=R@'
p94
tp95
Rp96
ag10
(g14
S'c\xe5\xd0"\xdbiN@'
p97
tp98
Rp99
ag10
(g14
S'C7\x89A`\x15M@'
p100
tp101
Rp102
ag10
(g14
S'1\xb2\x9d\xef\xa7\xaeQ@'
p103
tp104
Rp105
ag10
(g14
S'\xbct\x93\x18\x04NQ@'
p106
tp107
Rp108
ag10
(g14
S'^\x10X9\xb4HR@'
p109
tp110
Rp111
ag10
(g14
S'\x90\xed|?5\x12R@'
p112
tp113
Rp114
ag10
(g14
S'\x06V\x0e-\xb2\x9dQ@'
p115
tp116
Rp117
ag10
(g14
S' /\xdd$\x06AQ@'
p118
tp119
Rp120
ag10
(g14
S'\xa1\xf1\xd2MbPQ@'
p121
tp122
Rp123
ag10
(g14
S'\xbe\x9f\x1a/\xdd\xe4R@'
p124
tp125
Rp126
ag10
(g14
S'/\x08\xac\x1cZ@Q@'
p127
tp128
Rp129
ag10
(g14
S'\x0c\x81\x95C\x8b\xbcQ@'
p130
tp131
Rp132
ag10
(g14
S'\x9f\x99\x99\x99\x99qR@'
p133
tp134
Rp135
ag10
(g14
S'\x0cX9\xb4\xc8\xbeQ@'
p136
tp137
Rp138
asssss.