(dp0
S'../Data/sqlite_93.csv'
p1
(dp2
S'../Data/sqlite_92.csv'
p3
(dp4
F0.1
(dp5
S'mmre'
p6
(dp7
S'bellwether'
p8
(lp9
cnumpy.core.multiarray
scalar
p10
(cnumpy
dtype
p11
(S'f8'
p12
I0
I1
tp13
Rp14
(I3
S'<'
p15
NNNI-1
I-1
I0
tp16
bS'\xd6\xbd^\xc8\xc1IO@'
p17
tp18
Rp19
ag10
(g14
S'`\x15G\xf3\x8dIO@'
p20
tp21
Rp22
ag10
(g14
S'\xae\xf2n\xafoEO@'
p23
tp24
Rp25
ag10
(g14
S'\x13\x88\x824\x8aMO@'
p26
tp27
Rp28
ag10
(g14
S'\xea\xb9\x06\xc1\xaeLO@'
p29
tp30
Rp31
ag10
(g14
S']\xd4\rzvLO@'
p32
tp33
Rp34
ag10
(g14
S'\x88.\x9c*\xd5SO@'
p35
tp36
Rp37
ag10
(g14
S'\x11g\xff\xdc\xb9KO@'
p38
tp39
Rp40
ag10
(g14
S'\xe4v\xe0\x13\x95LO@'
p41
tp42
Rp43
ag10
(g14
S'\x08<TV\\HO@'
p44
tp45
Rp46
ag10
(g14
S'\x9d\xbek=\xdcBO@'
p47
tp48
Rp49
ag10
(g14
S'Y\xc3\xdc\xe7\xa7PO@'
p50
tp51
Rp52
ag10
(g14
S'\xab\x9a1TmNO@'
p53
tp54
Rp55
ag10
(g14
S'+\xa4"YMPO@'
p56
tp57
Rp58
ag10
(g14
S'\x07\xef\xb6\xf5\x03JO@'
p59
tp60
Rp61
ag10
(g14
S'\xe98K\xc4LMO@'
p62
tp63
Rp64
ag10
(g14
S'2C\x15\xf0\x1aQO@'
p65
tp66
Rp67
ag10
(g14
S'\xf7$\xc9\xaf5EO@'
p68
tp69
Rp70
ag10
(g14
S'\xe8]\xf7XKSO@'
p71
tp72
Rp73
ag10
(g14
S'N\xd9\xd5<\x96NO@'
p74
tp75
Rp76
asS'target'
p77
(lp78
g10
(g14
S'\xd9)j\xef\xba\x19P@'
p79
tp80
Rp81
ag10
(g14
S"E:\xcf\xee\xf4'^@"
p82
tp83
Rp84
ag10
(g14
S'\xbfQ>\xe9H\xc4Q@'
p85
tp86
Rp87
ag10
(g14
S'\x1c\xcc\n\xe7\xfeN_@'
p88
tp89
Rp90
ag10
(g14
S'"_\xdc\xa3t\xbdL@'
p91
tp92
Rp93
ag10
(g14
S's\xf7\xa9m\x1fLP@'
p94
tp95
Rp96
ag10
(g14
S'n\xf28vt\xc5P@'
p97
tp98
Rp99
ag10
(g14
S'\x0f\xa4\xb7\x94\x07\xdeC@'
p100
tp101
Rp102
ag10
(g14
S"\x1e\xc3\r:\x8f'\\@"
p103
tp104
Rp105
ag10
(g14
S'B\x8c\xac\x08\xb6>\\@'
p106
tp107
Rp108
ag10
(g14
S'\xec\xb6\xb5\x8f-JP@'
p109
tp110
Rp111
ag10
(g14
S'\x80a\x9bp\xcb6M@'
p112
tp113
Rp114
ag10
(g14
S'\x9b\xf1\x18\xaf\xabPX@'
p115
tp116
Rp117
ag10
(g14
S'z\x9f9\x162]I@'
p118
tp119
Rp120
ag10
(g14
S'}\xcc\xceHM\xa1P@'
p121
tp122
Rp123
ag10
(g14
S'\xa0T8\x15\xb45U@'
p124
tp125
Rp126
ag10
(g14
S'\xdd\x1eH\xf6\xe1"L@'
p127
tp128
Rp129
ag10
(g14
S'\\"Z\xac\xda\x00K@'
p130
tp131
Rp132
ag10
(g14
S'\xcb\xfd\xb3\x8c\x14\x81B@'
p133
tp134
Rp135
ag10
(g14
S'\x817ZkI\xd1Y@'
p136
tp137
Rp138
asssss.