(dp0
S'../Data/sqlite_3.csv'
p1
(dp2
S'../Data/sqlite_96.csv'
p3
(dp4
F0.2
(dp5
S'mmre'
p6
(dp7
S'bellwether'
p8
(lp9
cnumpy.core.multiarray
scalar
p10
(cnumpy
dtype
p11
(S'f8'
p12
I0
I1
tp13
Rp14
(I3
S'<'
p15
NNNI-1
I-1
I0
tp16
bS'\xfbr\x8a1\xb5ER@'
p17
tp18
Rp19
ag10
(g14
S'xOpK\\OR@'
p20
tp21
Rp22
ag10
(g14
S'S\xb7\xce\xbcYNR@'
p23
tp24
Rp25
ag10
(g14
S'\xc0\xb9.JgQR@'
p26
tp27
Rp28
ag10
(g14
S'HXb\x92\x11VR@'
p29
tp30
Rp31
ag10
(g14
S']\x07\x18\x7f\x1aJR@'
p32
tp33
Rp34
ag10
(g14
S'\xcc\xe6\x9f\xcc\x0cHR@'
p35
tp36
Rp37
ag10
(g14
S'\xae\x11{\xf3\xa8FR@'
p38
tp39
Rp40
ag10
(g14
S'zK\x88\xa9\xe0LR@'
p41
tp42
Rp43
ag10
(g14
S'\x87)\x18\xa0\x15>R@'
p44
tp45
Rp46
ag10
(g14
S'/X\x02\x18{OR@'
p47
tp48
Rp49
ag10
(g14
S'\xf2\x16\xc30\xbcPR@'
p50
tp51
Rp52
ag10
(g14
S'\x8a\x8ca\x85xSR@'
p53
tp54
Rp55
ag10
(g14
S'_\x1a99BSR@'
p56
tp57
Rp58
ag10
(g14
S'\x18\xc8dj\xc1RR@'
p59
tp60
Rp61
ag10
(g14
S'4\x1e]6|IR@'
p62
tp63
Rp64
ag10
(g14
S'\x02.h\xaf\xa4GR@'
p65
tp66
Rp67
ag10
(g14
S'W\x17\xcc\xaffKR@'
p68
tp69
Rp70
ag10
(g14
S'\x0c/\x0b\x11\xcaWR@'
p71
tp72
Rp73
ag10
(g14
S'\xf1\x95\xcay\xceIR@'
p74
tp75
Rp76
asS'target'
p77
(lp78
g10
(g14
S'\xa9\x91uY\xad\xf1U@'
p79
tp80
Rp81
ag10
(g14
S')Y^\xe0\x0f\xbcR@'
p82
tp83
Rp84
ag10
(g14
S'\x90um\xc7\n\rC@'
p85
tp86
Rp87
ag10
(g14
S'_X\x8b\x9a\xeb\x0eH@'
p88
tp89
Rp90
ag10
(g14
S'|6Q\x91\x80\x16P@'
p91
tp92
Rp93
ag10
(g14
S'\xf4\xb4\x14i\x1fRK@'
p94
tp95
Rp96
ag10
(g14
S'\xbd\xa72#|\xa3P@'
p97
tp98
Rp99
ag10
(g14
S'\xf0\xc4\xb4\xbf#\xefP@'
p100
tp101
Rp102
ag10
(g14
S'\x96\xff\xbf\xe3U;Q@'
p103
tp104
Rp105
ag10
(g14
S'cd\x94I\xa0\x11a@'
p106
tp107
Rp108
ag10
(g14
S'2\xe5\x98=\x0f\x00W@'
p109
tp110
Rp111
ag10
(g14
S'T\xd4\xb4\xbf8_W@'
p112
tp113
Rp114
ag10
(g14
S"\xc1fR/'\xa4U@"
p115
tp116
Rp117
ag10
(g14
S'\x98\xf3Wi-\xa9K@'
p118
tp119
Rp120
ag10
(g14
S'\xbf}\xca\x08\x1a#Q@'
p121
tp122
Rp123
ag10
(g14
S'Z\xa3\x93\x07\xb5KL@'
p124
tp125
Rp126
ag10
(g14
S'\x9crb\xb4]\xa4G@'
p127
tp128
Rp129
ag10
(g14
S'N\xfa\xd4\xf3R\xa2W@'
p130
tp131
Rp132
ag10
(g14
S'\xaa\xe8\\\xb6\x82>W@'
p133
tp134
Rp135
ag10
(g14
S'\xed\\T\xe8p\x11O@'
p136
tp137
Rp138
asssss.