(dp0
S'../Data/sqlite_53.csv'
p1
(dp2
S'../Data/sqlite_85.csv'
p3
(dp4
F0.1
(dp5
S'abs_res'
p6
(dp7
S'bellwether'
p8
(lp9
cnumpy.core.multiarray
scalar
p10
(cnumpy
dtype
p11
(S'f8'
p12
I0
I1
tp13
Rp14
(I3
S'<'
p15
NNNI-1
I-1
I0
tp16
bS'Y,\xf9eOjWA'
p17
tp18
Rp19
ag10
(g14
S'jffn9HWA'
p20
tp21
Rp22
ag10
(g14
S'\xa7p=b\x00<WA'
p23
tp24
Rp25
ag10
(g14
S'\x18\xaeGi\xc8IWA'
p26
tp27
Rp28
ag10
(g14
S'\xd3i\x03]K[WA'
p29
tp30
Rp31
ag10
(g14
S'v=\n\x07]gWA'
p32
tp33
Rp34
ag10
(g14
S'\xbbG\xe1jLmWA'
p35
tp36
Rp37
ag10
(g14
S'aff\x06\x18SWA'
p38
tp39
Rp40
ag10
(g14
S'|\xb1\xe4\x8f\xf6CWA'
p41
tp42
Rp43
ag10
(g14
S'}\x14\xae\xe7\x08>WA'
p44
tp45
Rp46
ag10
(g14
S'b\xc9/\x0e\x073WA'
p47
tp48
Rp49
ag10
(g14
S'\x1b\xaeG\xa1!\x89WA'
p50
tp51
Rp52
ag10
(g14
S'=\n\xd7[\x12PWA'
p53
tp54
Rp55
ag10
(g14
S'\xc2\xf5(\x9c\xe1;WA'
p56
tp57
Rp58
ag10
(g14
S'E\xa7\r<\xc9\x80WA'
p59
tp60
Rp61
ag10
(g14
S'5m\xa0\xa3,xWA'
p62
tp63
Rp64
ag10
(g14
S'w=\nO|FWA'
p65
tp66
Rp67
ag10
(g14
S"\xe9z\x14nE'WA"
p68
tp69
Rp70
ag10
(g14
S'\xf9(\\G\xc1tWA'
p71
tp72
Rp73
ag10
(g14
S'|\xebQ\xa0\xb1`WA'
p74
tp75
Rp76
asS'target'
p77
(lp78
g10
(g14
S'\x05\x00\x00`s2DA'
p79
tp80
Rp81
ag10
(g14
S'\xa1\x99\x99y23BA'
p82
tp83
Rp84
ag10
(g14
S'\x01\x00\x00\x80\xaa\x16DA'
p85
tp86
Rp87
ag10
(g14
S'\xd0\xa3p\xddPIBA'
p88
tp89
Rp90
ag10
(g14
S'+\\\x8fBh\x90@A'
p91
tp92
Rp93
ag10
(g14
S'\x16\xd7\xa30x^CA'
p94
tp95
Rp96
ag10
(g14
S'v=\n\x17\xd1LDA'
p97
tp98
Rp99
ag10
(g14
S'\xa4p=\x8ah\x86@A'
p100
tp101
Rp102
ag10
(g14
S'Y\x8f\xc2\xb5\xfa\xd3HA'
p103
tp104
Rp105
ag10
(g14
S'-333\x82mBA'
p106
tp107
Rp108
ag10
(g14
S'\xa5G\xe1\xbaO\xefEA'
p109
tp110
Rp111
ag10
(g14
S'\x84\x14\xae\xa7\xb6\xd8EA'
p112
tp113
Rp114
ag10
(g14
S'gffFv!CA'
p115
tp116
Rp117
ag10
(g14
S'\x89\xebQX\xc7bBA'
p118
tp119
Rp120
ag10
(g14
S']ff\xe6\x17\xecBA'
p121
tp122
Rp123
ag10
(g14
S'\xda\xa3p\x9d\xd5%EA'
p124
tp125
Rp126
ag10
(g14
S'733s\x86\x17BA'
p127
tp128
Rp129
ag10
(g14
S'\xa2\x99\x99\x99$_EA'
p130
tp131
Rp132
ag10
(g14
S'r\x14\xae\xc7\\\x97DA'
p133
tp134
Rp135
ag10
(g14
S' \x85\xeb1jB@A'
p136
tp137
Rp138
asssss.