(dp0
S'../Data/sqlite_9.csv'
p1
(dp2
S'../Data/sqlite_59.csv'
p3
(dp4
F0.2
(dp5
S'mmre'
p6
(dp7
S'bellwether'
p8
(lp9
cnumpy.core.multiarray
scalar
p10
(cnumpy
dtype
p11
(S'f8'
p12
I0
I1
tp13
Rp14
(I3
S'<'
p15
NNNI-1
I-1
I0
tp16
bS'0\xfc\xf6\xfb[-W@'
p17
tp18
Rp19
ag10
(g14
S'\x15\xc4\xc5\x81\xd9-W@'
p20
tp21
Rp22
ag10
(g14
S'b\nK\xecW,W@'
p23
tp24
Rp25
ag10
(g14
S'\xa1\xe7\xd9\x99(-W@'
p26
tp27
Rp28
ag10
(g14
S'\x83\xb0\x86\xe14,W@'
p29
tp30
Rp31
ag10
(g14
S'V\x0c>X\x00.W@'
p32
tp33
Rp34
ag10
(g14
S'\x18\x8f8\xcb\x8f,W@'
p35
tp36
Rp37
ag10
(g14
S'\xe6\xaf\xa8\xbc0,W@'
p38
tp39
Rp40
ag10
(g14
S'\xa9+\xd3\x85\x0b,W@'
p41
tp42
Rp43
ag10
(g14
S"\xea\x8e\xf9'(-W@"
p44
tp45
Rp46
ag10
(g14
S'\x94 \x02\xf4\x07/W@'
p47
tp48
Rp49
ag10
(g14
S'0/\xf5E\x85,W@'
p50
tp51
Rp52
ag10
(g14
S'F*\x95\x93\xa5-W@'
p53
tp54
Rp55
ag10
(g14
S'`P6\x00\x98,W@'
p56
tp57
Rp58
ag10
(g14
S'!\x85\x87\xcb_.W@'
p59
tp60
Rp61
ag10
(g14
S'\xdb]e\xfc\x9f,W@'
p62
tp63
Rp64
ag10
(g14
S'E\xf4r{U-W@'
p65
tp66
Rp67
ag10
(g14
S'*8\xfb\x98\xdf,W@'
p68
tp69
Rp70
ag10
(g14
S'T\x88z\x10\xa1,W@'
p71
tp72
Rp73
ag10
(g14
S'\xae\xaf\xc0,P-W@'
p74
tp75
Rp76
asS'target'
p77
(lp78
g10
(g14
S'\xdf\xce\xfd\x1emk%@'
p79
tp80
Rp81
ag10
(g14
S'8{\n\x07TS%@'
p82
tp83
Rp84
ag10
(g14
S'\x8e<\xde\xe7\x87\x82&@'
p85
tp86
Rp87
ag10
(g14
S'd\xc4\x92N\xd7+*@'
p88
tp89
Rp90
ag10
(g14
S'L\x1c\x84]\xa8(%@'
p91
tp92
Rp93
ag10
(g14
S'\x89\xa1OJ\xeb-$@'
p94
tp95
Rp96
ag10
(g14
S"\xd3\x02\x8d\x93\xcc\xbc'@"
p97
tp98
Rp99
ag10
(g14
S"&\x18\xc5\xa2\xa4j'@"
p100
tp101
Rp102
ag10
(g14
S";7-\xfe\xc5('@"
p103
tp104
Rp105
ag10
(g14
S'u\xeb8\x0f\x1d\xd7%@'
p106
tp107
Rp108
ag10
(g14
S'\xae\xc6xY\xa3\xa6#@'
p109
tp110
Rp111
ag10
(g14
S'p\x18.\xdf0F%@'
p112
tp113
Rp114
ag10
(g14
S'\xde\xe7\x94\x00@\x91&@'
p115
tp116
Rp117
ag10
(g14
S'\x17g\x9e\xc7\xf11%@'
p118
tp119
Rp120
ag10
(g14
S'g\xf8\x96S\t\xb1$@'
p121
tp122
Rp123
ag10
(g14
S'\xce\xa0\x01/W\xda&@'
p124
tp125
Rp126
ag10
(g14
S'\xa8b\xbb:\x8d\xa8%@'
p127
tp128
Rp129
ag10
(g14
S'$jt\x03N\xc8)@'
p130
tp131
Rp132
ag10
(g14
S'\xa2\x0c\x83\xc1\x8e9%@'
p133
tp134
Rp135
ag10
(g14
S'z\xb3\x15\xf7.\xbf&@'
p136
tp137
Rp138
asssss.