(dp0
S'../Data/sqlite_97.csv'
p1
(dp2
S'../Data/sqlite_43.csv'
p3
(dp4
F0.2
(dp5
S'abs_res'
p6
(dp7
S'bellwether'
p8
(lp9
cnumpy.core.multiarray
scalar
p10
(cnumpy
dtype
p11
(S'f8'
p12
I0
I1
tp13
Rp14
(I3
S'<'
p15
NNNI-1
I-1
I0
tp16
bS'\xabe\xad^p/=A'
p17
tp18
Rp19
ag10
(g14
S'\xa4+@n\xb5.=A'
p20
tp21
Rp22
ag10
(g14
S'\xbf \xb0b\xa96=A'
p23
tp24
Rp25
ag10
(g14
S'\x84\x16\xd9NN*=A'
p26
tp27
Rp28
ag10
(g14
S'\xc1\xae\x00\xf9-,=A'
p29
tp30
Rp31
ag10
(g14
S'\xde1\xc1\xa3p7=A'
p32
tp33
Rp34
ag10
(g14
S'\x0bt\xda`\xe2\x1c=A'
p35
tp36
Rp37
ag10
(g14
S'\xe6Q\xb8\xbe\xba3=A'
p38
tp39
Rp40
ag10
(g14
S'|\xcbZ\xdd\x8c$=A'
p41
tp42
Rp43
ag10
(g14
S'i\xa0\xd3\xb6\x06-=A'
p44
tp45
Rp46
ag10
(g14
S'Z\x9e\xa8O\xa9;=A'
p47
tp48
Rp49
ag10
(g14
S'\x8cPF\xbf\xd5*=A'
p50
tp51
Rp52
ag10
(g14
S'\xd0\xf7S\xf3\xb4+=A'
p53
tp54
Rp55
ag10
(g14
S'M\xfd\x1b1\xd0.=A'
p56
tp57
Rp58
ag10
(g14
S'x0O\xf4m-=A'
p59
tp60
Rp61
ag10
(g14
S'\xe9(\\\xcf\x9b\x1c=A'
p62
tp63
Rp64
ag10
(g14
S';DDDW/=A'
p65
tp66
Rp67
ag10
(g14
S'\xe1^s\xa1/$=A'
p68
tp69
Rp70
ag10
(g14
S'P\xb8\x1e\xf5\x93$=A'
p71
tp72
Rp73
ag10
(g14
S'\xa0p=*\x878=A'
p74
tp75
Rp76
asS'target'
p77
(lp78
g10
(g14
S':333\xd3"\xc3@'
p79
tp80
Rp81
ag10
(g14
S'\xd6\xcc\xcc\xcc\x0c\xa2\xc4@'
p82
tp83
Rp84
ag10
(g14
S'\xf4\xff\xff\xff\xff\xeb\xc3@'
p85
tp86
Rp87
ag10
(g14
S'.333\xb3\xee\xc3@'
p88
tp89
Rp90
ag10
(g14
S'\\fff\xc6\x83\xc3@'
p91
tp92
Rp93
ag10
(g14
S'\x91\x99\x99\x99\x19b\xc3@'
p94
tp95
Rp96
ag10
(g14
S'0333s\x85\xc4@'
p97
tp98
Rp99
ag10
(g14
S';333se\xc3@'
p100
tp101
Rp102
ag10
(g14
S'\n\x00\x00\x00\x00I\xc4@'
p103
tp104
Rp105
ag10
(g14
S'sffff5\xc5@'
p106
tp107
Rp108
ag10
(g14
S'afff&:\xc5@'
p109
tp110
Rp111
ag10
(g14
S'<333\xf3C\xc5@'
p112
tp113
Rp114
ag10
(g14
S"'333s\xe0\xc3@"
p115
tp116
Rp117
ag10
(g14
S'\x9d\x99\x99\x99\xd9|\xc3@'
p118
tp119
Rp120
ag10
(g14
S'mfff\xe6^\xc4@'
p121
tp122
Rp123
ag10
(g14
S'lfff&\x10\xc5@'
p124
tp125
Rp126
ag10
(g14
S'\xa5\x99\x99\x99Y\x06\xc4@'
p127
tp128
Rp129
ag10
(g14
S'(33330\xc5@'
p130
tp131
Rp132
ag10
(g14
S';333s\\\xc3@'
p133
tp134
Rp135
ag10
(g14
S'\x9e\x99\x99\x99\x19\x8b\xc5@'
p136
tp137
Rp138
asssss.