(dp0
S'../Data/sqlite_71.csv'
p1
(dp2
S'../Data/sqlite_47.csv'
p3
(dp4
F0.05
(dp5
S'abs_res'
p6
(dp7
S'bellwether'
p8
(lp9
cnumpy.core.multiarray
scalar
p10
(cnumpy
dtype
p11
(S'f8'
p12
I0
I1
tp13
Rp14
(I3
S'<'
p15
NNNI-1
I-1
I0
tp16
bS'6\xdfO\x01\xa0;pA'
p17
tp18
Rp19
ag10
(g14
S'f;\xdf\xd1\xc2@pA'
p20
tp21
Rp22
ag10
(g14
S'Pb\x10\x04\xa9?pA'
p23
tp24
Rp25
ag10
(g14
S'I\xe1z^\xac?pA'
p26
tp27
Rp28
ag10
(g14
S'\x93\x97n\xf8\xad?pA'
p29
tp30
Rp31
ag10
(g14
S'\xe5\xa5\x9b\xd2s?pA'
p32
tp33
Rp34
ag10
(g14
S'+1\x08\xe6\xf2BpA'
p35
tp36
Rp37
ag10
(g14
S'\x88]\x01R#>pA'
p38
tp39
Rp40
ag10
(g14
S'\xa3\xc4 n\x83ApA'
p41
tp42
Rp43
ag10
(g14
S'K\xb6\xf3\xaf\xab?pA'
p44
tp45
Rp46
ag10
(g14
S'\xdc$\x06\x13\x05@pA'
p47
tp48
Rp49
ag10
(g14
S'\xa7\xc6K\xdfpApA'
p50
tp51
Rp52
ag10
(g14
S'\xf1\xa7\xc6\x91NApA'
p53
tp54
Rp55
ag10
(g14
S'\xe1z\x14\xd6uBpA'
p56
tp57
Rp58
ag10
(g14
S"j;\xdf'\xc8CpA"
p59
tp60
Rp61
ag10
(g14
S'$\x06\x81\xf1h;pA'
p62
tp63
Rp64
ag10
(g14
S"'\x87\x16\xdbd=pA"
p65
tp66
Rp67
ag10
(g14
S'\xf0|?\xcd\xca?pA'
p68
tp69
Rp70
ag10
(g14
S'\xefQ\xb8F\x17@pA'
p71
tp72
Rp73
ag10
(g14
S'\x8bA`\xffX>pA'
p74
tp75
Rp76
asS'target'
p77
(lp78
g10
(g14
S'\xf2\xfd\xd4x\xe9>_@'
p79
tp80
Rp81
ag10
(g14
S'\xaf\xf3\xfd\xd4x\xd1`@'
p82
tp83
Rp84
ag10
(g14
S'\xa2\xf1\xd2Mb\xe8^@'
p85
tp86
Rp87
ag10
(g14
S'D7\x89A`\x9d[@'
p88
tp89
Rp90
ag10
(g14
S'M7\x89A`\xe9`@'
p91
tp92
Rp93
ag10
(g14
S'\xb7I\x0c\x02+\x8f]@'
p94
tp95
Rp96
ag10
(g14
S'43333#e@'
p97
tp98
Rp99
ag10
(g14
S"'\x06\x81\x95C\xa7`@"
p100
tp101
Rp102
ag10
(g14
S'P\xb8\x1e\x85\xeb\x11a@'
p103
tp104
Rp105
ag10
(g14
S'*\xdd$\x06\x81\xddY@'
p106
tp107
Rp108
ag10
(g14
S'\xe1$\x06\x81\x95c]@'
p109
tp110
Rp111
ag10
(g14
S'\x87A`\xe5\xd0\x8a\\@'
p112
tp113
Rp114
ag10
(g14
S'D\xe3\xa5\x9b\xc4\x18\\@'
p115
tp116
Rp117
ag10
(g14
S' /\xdd$\x069[@'
p118
tp119
Rp120
ag10
(g14
S'\x1c\x85\xebQ\xb8\x92a@'
p121
tp122
Rp123
ag10
(g14
S'W7\x89A`\xfd[@'
p124
tp125
Rp126
ag10
(g14
S'\xfc\xd4x\xe9&\xe5a@'
p127
tp128
Rp129
ag10
(g14
S'4^\xbaI\x0c*^@'
p130
tp131
Rp132
ag10
(g14
S'\xe9\xa7\xc6K7y\\@'
p133
tp134
Rp135
ag10
(g14
S'P\x0c\x02+\x87\xd2`@'
p136
tp137
Rp138
asssss.