(dp0
S'../Data/sqlite_46.csv'
p1
(dp2
S'../Data/sqlite_95.csv'
p3
(dp4
F0.05
(dp5
S'abs_res'
p6
(dp7
S'bellwether'
p8
(lp9
cnumpy.core.multiarray
scalar
p10
(cnumpy
dtype
p11
(S'f8'
p12
I0
I1
tp13
Rp14
(I3
S'<'
p15
NNNI-1
I-1
I0
tp16
bS'\xf2(\\\x0f\x936&A'
p17
tp18
Rp19
ag10
(g14
S'r\x14\xaeGm-&A'
p20
tp21
Rp22
ag10
(g14
S'\xe5z\x14\xae\xe8?&A'
p23
tp24
Rp25
ag10
(g14
S'\xadG\xe1\xfaXd&A'
p26
tp27
Rp28
ag10
(g14
S'\xd4\xa3p=\xd6)&A'
p29
tp30
Rp31
ag10
(g14
S'\x97\x99\x99\x99j^&A'
p32
tp33
Rp34
ag10
(g14
S's\x14\xae\xc7|W&A'
p35
tp36
Rp37
ag10
(g14
S'\xa0p=\x8a/H&A'
p38
tp39
Rp40
ag10
(g14
S'\xb0G\xe1z\x96x&A'
p41
tp42
Rp43
ag10
(g14
S'6\n\xd7\xa3$U&A'
p44
tp45
Rp46
ag10
(g14
S'\xfb\xff\xff\x7f\x8fK&A'
p47
tp48
Rp49
ag10
(g14
S'\x80\xebQ\xb8TB&A'
p50
tp51
Rp52
ag10
(g14
S'w\x14\xaeG\x1e\x84&A'
p53
tp54
Rp55
ag10
(g14
S'(\\\x8fB\x82b&A'
p56
tp57
Rp58
ag10
(g14
S'5\n\xd7#gj&A'
p59
tp60
Rp61
ag10
(g14
S'I\xe1z\x94rL&A'
p62
tp63
Rp64
ag10
(g14
S'N\xb8\x1e\x85#5&A'
p65
tp66
Rp67
ag10
(g14
S'\xed(\\\x8f(5&A'
p68
tp69
Rp70
ag10
(g14
S'\xff\xff\xff\x7f\xd2\x1c&A'
p71
tp72
Rp73
ag10
(g14
S'Y\x8f\xc2u\xd6X&A'
p74
tp75
Rp76
asS'target'
p77
(lp78
g10
(g14
S'\x96\x99\x99\x19\x08z"A'
p79
tp80
Rp81
ag10
(g14
S'\xe5z\x14\xae\x19\xc3"A'
p82
tp83
Rp84
ag10
(g14
S'\x82\x14\xaeG+\xbb&A'
p85
tp86
Rp87
ag10
(g14
S'\x17\xaeG\xe1J\xd7#A'
p88
tp89
Rp90
ag10
(g14
S'\xf0(\\\x0fd\x80#A'
p91
tp92
Rp93
ag10
(g14
S'n=\n\xd7\xbf.\x1eA'
p94
tp95
Rp96
ag10
(g14
S'93335\xa3"A'
p97
tp98
Rp99
ag10
(g14
S'\xaaG\xe1\xfa?\x05"A'
p100
tp101
Rp102
ag10
(g14
S'@\n\xd7\xa3\xe4\x01\x1cA'
p103
tp104
Rp105
ag10
(g14
S'\x08\x00\x00\x80\xee\x17&A'
p106
tp107
Rp108
ag10
(g14
S'\xcd\xcc\xcc\xcc\x11M"A'
p109
tp110
Rp111
ag10
(g14
S'"\\\x8f\xc2\xd0"\'A'
p112
tp113
Rp114
ag10
(g14
S'#\\\x8f\xc2E<\x16A'
p115
tp116
Rp117
ag10
(g14
S'E\xe1z\x14\xeb$#A'
p118
tp119
Rp120
ag10
(g14
S'\xeaQ\xb8\x1e\xdd\xfb&A'
p121
tp122
Rp123
ag10
(g14
S'x\x14\xae\xc7\xdc\xc3 A'
p124
tp125
Rp126
ag10
(g14
S'\xf9(\\\x8f\x96.!A'
p127
tp128
Rp129
ag10
(g14
S"/333'(!A"
p130
tp131
Rp132
ag10
(g14
S'B\xe1z\x14\xd8\x9e*A'
p133
tp134
Rp135
ag10
(g14
S'7333\xdb\x82#A'
p136
tp137
Rp138
asssss.