(dp0
S'../Data/sqlite_15.csv'
p1
(dp2
S'../Data/sqlite_42.csv'
p3
(dp4
F0.2
(dp5
S'abs_res'
p6
(dp7
S'bellwether'
p8
(lp9
cnumpy.core.multiarray
scalar
p10
(cnumpy
dtype
p11
(S'f8'
p12
I0
I1
tp13
Rp14
(I3
S'<'
p15
NNNI-1
I-1
I0
tp16
bS':\xfb\xf09\x87m>A'
p17
tp18
Rp19
ag10
(g14
S'\xd3\x94\x8a\xd3\x99o>A'
p20
tp21
Rp22
ag10
(g14
S"Zd;\x7f'p>A"
p23
tp24
Rp25
ag10
(g14
S'X\xffF\xe8Bm>A'
p26
tp27
Rp28
ag10
(g14
S'\xa3\xa8\x7fCbo>A'
p29
tp30
Rp31
ag10
(g14
S'\x0eV\x0e\r\xe0n>A'
p32
tp33
Rp34
ag10
(g14
S'\xc7-k5\x16o>A'
p35
tp36
Rp37
ag10
(g14
S'-\\\x8f\xc2Ap>A'
p38
tp39
Rp40
ag10
(g14
S'\xda\xa3p]lm>A'
p41
tp42
Rp43
ag10
(g14
S'X\x01r\xefJn>A'
p44
tp45
Rp46
ag10
(g14
S'`\x10X\xd9/n>A'
p47
tp48
Rp49
ag10
(g14
S'\x15-\xb2\xdd\xd7o>A'
p50
tp51
Rp52
ag10
(g14
S'ZW\x80\x1c\x1eo>A'
p53
tp54
Rp55
ag10
(g14
S'\xa5\xb7e\xcdwn>A'
p56
tp57
Rp58
ag10
(g14
S'$\xdb\xf9\x1e8o>A'
p59
tp60
Rp61
ag10
(g14
S'\xbd\x1e\x85\xcbQn>A'
p62
tp63
Rp64
ag10
(g14
S'\x02\xd7\xa3\x10un>A'
p65
tp66
Rp67
ag10
(g14
S'\x99C\x8bl\xd4o>A'
p68
tp69
Rp70
ag10
(g14
S'f\x8f\xc2u_n>A'
p71
tp72
Rp73
ag10
(g14
S'\x98\xe0\xc1\xbc\xebn>A'
p74
tp75
Rp76
asS'target'
p77
(lp78
g10
(g14
S'\xd3"\xdb\xf9~\xd4h@'
p79
tp80
Rp81
ag10
(g14
S'\xef\xfd\xd4x\xe9\xb2g@'
p82
tp83
Rp84
ag10
(g14
S'\x08\x81\x95C\x8b\xe8g@'
p85
tp86
Rp87
ag10
(g14
S'\xe5&1\x08\xac\xe8f@'
p88
tp89
Rp90
ag10
(g14
S'\x1a\xd9\xce\xf7S\x0fi@'
p91
tp92
Rp93
ag10
(g14
S'\xafrh\x91\xed8g@'
p94
tp95
Rp96
ag10
(g14
S'\xd0\xf7S\xe3\xa5\xfbf@'
p97
tp98
Rp99
ag10
(g14
S'\x80\x16\xd9\xce\xf7\xd7d@'
p100
tp101
Rp102
ag10
(g14
S'"Zd;\xdf\xcfd@'
p103
tp104
Rp105
ag10
(g14
S'\\d;\xdfOYf@'
p106
tp107
Rp108
ag10
(g14
S'O7\x89A`\xc1h@'
p109
tp110
Rp111
ag10
(g14
S'-\xb2\x9d\xef\xa7\x14g@'
p112
tp113
Rp114
ag10
(g14
S',\\\x8f\xc2\xf5\x90g@'
p115
tp116
Rp117
ag10
(g14
S'\xfb(\\\x8f\xc2\x11g@'
p118
tp119
Rp120
ag10
(g14
S'\x88A`\xe5\xd0\xcei@'
p121
tp122
Rp123
ag10
(g14
S'8^\xbaI\x0c\xf8f@'
p124
tp125
Rp126
ag10
(g14
S'\x1b\x04V\x0e-\x1eg@'
p127
tp128
Rp129
ag10
(g14
S'\xaf\x1cZd;\xa7f@'
p130
tp131
Rp132
ag10
(g14
S'kffffRg@'
p133
tp134
Rp135
ag10
(g14
S'\xf9\xff\xff\xff\xff\xe7e@'
p136
tp137
Rp138
asssss.