(dp0
S'../Data/sqlite_43.csv'
p1
(dp2
S'../Data/sqlite_85.csv'
p3
(dp4
F0.15
(dp5
S'mmre'
p6
(dp7
S'bellwether'
p8
(lp9
cnumpy.core.multiarray
scalar
p10
(cnumpy
dtype
p11
(S'f8'
p12
I0
I1
tp13
Rp14
(I3
S'<'
p15
NNNI-1
I-1
I0
tp16
bS'jd\x9c\x9d\xee\xafQ@'
p17
tp18
Rp19
ag10
(g14
S'X\x1c\x94\xb4\x11\xd7Q@'
p20
tp21
Rp22
ag10
(g14
S'\x98\xa0<\x00c\xbdQ@'
p23
tp24
Rp25
ag10
(g14
S'|*ao_\xb0Q@'
p26
tp27
Rp28
ag10
(g14
S'\xa4\x16/\x18:\x94Q@'
p29
tp30
Rp31
ag10
(g14
S'\x1a\x90\xfa\xcc\xca\x96Q@'
p32
tp33
Rp34
ag10
(g14
S':\xb8Y<\xe2\xa1Q@'
p35
tp36
Rp37
ag10
(g14
S'Q\x1f)B\xca\xa9Q@'
p38
tp39
Rp40
ag10
(g14
S'\xafs\xe3g\xaf\xb4Q@'
p41
tp42
Rp43
ag10
(g14
S'\xe2-\xc4v\x80\xbfQ@'
p44
tp45
Rp46
ag10
(g14
S'\x82\x9dIoY\xc0Q@'
p47
tp48
Rp49
ag10
(g14
S'\x04Mn$K\xc6Q@'
p50
tp51
Rp52
ag10
(g14
S'\xa6\xc7b]]\xb6Q@'
p53
tp54
Rp55
ag10
(g14
S'3n\x80\xbb+\xb5Q@'
p56
tp57
Rp58
ag10
(g14
S'\xf1r\xd5(\xf5\xbfQ@'
p59
tp60
Rp61
ag10
(g14
S'\x85:\xad\xe4E\xb5Q@'
p62
tp63
Rp64
ag10
(g14
S'DV\xf1\xcb]\xa6Q@'
p65
tp66
Rp67
ag10
(g14
S'\xf1\xaf<<C\xd5Q@'
p68
tp69
Rp70
ag10
(g14
S'+z.\xecy\x8dQ@'
p71
tp72
Rp73
ag10
(g14
S'\x8aE\xdf\x8cc\xc0Q@'
p74
tp75
Rp76
asS'target'
p77
(lp78
g10
(g14
S'\x14\x1e\xb3\xce\xab\xa5Q@'
p79
tp80
Rp81
ag10
(g14
S'\xdeA\xbc\xa6 \x98S@'
p82
tp83
Rp84
ag10
(g14
S'\x08\x142)\x98\x88S@'
p85
tp86
Rp87
ag10
(g14
S'B\xd2\xe4Bg\xe9R@'
p88
tp89
Rp90
ag10
(g14
S"'lm\xe5\xe5\xbaS@"
p91
tp92
Rp93
ag10
(g14
S'\xda)@^V`S@'
p94
tp95
Rp96
ag10
(g14
S'`\x1d\x95G\xb4,Q@'
p97
tp98
Rp99
ag10
(g14
S'\xb1Y-\xcaw5R@'
p100
tp101
Rp102
ag10
(g14
S'q\x97v[\xd2:T@'
p103
tp104
Rp105
ag10
(g14
S'n\xfd\t\x0cvER@'
p106
tp107
Rp108
ag10
(g14
S'k\xb5\x16:\xb1yT@'
p109
tp110
Rp111
ag10
(g14
S'\x07u\x0e*XgT@'
p112
tp113
Rp114
ag10
(g14
S'x\xd7@g\xdcKU@'
p115
tp116
Rp117
ag10
(g14
S'+\x9cY\xd3 \xdcQ@'
p118
tp119
Rp120
ag10
(g14
S'\x07\xf6\x88Qp\xe8R@'
p121
tp122
Rp123
ag10
(g14
S'H\x1f\xf2\x01e\xc7S@'
p124
tp125
Rp126
ag10
(g14
S'\x1e4\x11\xd7\xc0/S@'
p127
tp128
Rp129
ag10
(g14
S';\xe9\xfd\x12\r-T@'
p130
tp131
Rp132
ag10
(g14
S'\xd5<\x1b1\x15\x93W@'
p133
tp134
Rp135
ag10
(g14
S'\xc6\xea1M,\x93S@'
p136
tp137
Rp138
asssss.