(dp0
S'../Data/sqlite_16.csv'
p1
(dp2
S'../Data/sqlite_73.csv'
p3
(dp4
F0.05
(dp5
S'mmre'
p6
(dp7
S'bellwether'
p8
(lp9
cnumpy.core.multiarray
scalar
p10
(cnumpy
dtype
p11
(S'f8'
p12
I0
I1
tp13
Rp14
(I3
S'<'
p15
NNNI-1
I-1
I0
tp16
bS'\x1cI\xa3\x19K_U@'
p17
tp18
Rp19
ag10
(g14
S'\xdaZ0\xa5\x9faU@'
p20
tp21
Rp22
ag10
(g14
S'\xdf{88haU@'
p23
tp24
Rp25
ag10
(g14
S'vo\n\xfe\xcdaU@'
p26
tp27
Rp28
ag10
(g14
S'P\xc9\xf5\xa9\x94`U@'
p29
tp30
Rp31
ag10
(g14
S'\x8e\xc8\xe1\xf6=`U@'
p32
tp33
Rp34
ag10
(g14
S'c\xda\x925[aU@'
p35
tp36
Rp37
ag10
(g14
S'O\xe6\xd3O>`U@'
p38
tp39
Rp40
ag10
(g14
S'!\x13\xeb`\x87`U@'
p41
tp42
Rp43
ag10
(g14
S'\x16D$\xbd+aU@'
p44
tp45
Rp46
ag10
(g14
S'F\x8dj\xa5\x84`U@'
p47
tp48
Rp49
ag10
(g14
S'@?\x97f\xfa`U@'
p50
tp51
Rp52
ag10
(g14
S'\x18\xb4\xec\x81IaU@'
p53
tp54
Rp55
ag10
(g14
S'\xce\x0bn1\x8e`U@'
p56
tp57
Rp58
ag10
(g14
S'\x983\x84\xf4\xefaU@'
p59
tp60
Rp61
ag10
(g14
S'D\xe3\xe8\xaf\x8a`U@'
p62
tp63
Rp64
ag10
(g14
S'\xe0\xa6\x1cce`U@'
p65
tp66
Rp67
ag10
(g14
S'EV\xfd\xc7z`U@'
p68
tp69
Rp70
ag10
(g14
S'\x89\x9b\xe5\x87\xaeaU@'
p71
tp72
Rp73
ag10
(g14
S'M\xc0\xec>\xf8aU@'
p74
tp75
Rp76
asS'target'
p77
(lp78
g10
(g14
S'N\xe0I\xbd\x1a\xa3/@'
p79
tp80
Rp81
ag10
(g14
S'\xc5\xab.\x06\xbd[(@'
p82
tp83
Rp84
ag10
(g14
S'\x84\xf5\x940\x92\xcc0@'
p85
tp86
Rp87
ag10
(g14
S'\x18c\x9358\x8a(@'
p88
tp89
Rp90
ag10
(g14
S'\xda\xeb\x1cE\xcd\xa0,@'
p91
tp92
Rp93
ag10
(g14
S'{\xfc\x06\x7fR\xcf/@'
p94
tp95
Rp96
ag10
(g14
S'\xa5X\xcd7\x86{+@'
p97
tp98
Rp99
ag10
(g14
S'\nv\x8e\xbb\r\xfa,@'
p100
tp101
Rp102
ag10
(g14
S'\xae\x88\x03\xbd\xe0#5@'
p103
tp104
Rp105
ag10
(g14
S'_&.\xe7\x9e\xe1,@'
p106
tp107
Rp108
ag10
(g14
S'!\x1b.\x94\xc0\xe5+@'
p109
tp110
Rp111
ag10
(g14
S'p\xfa>j\xa1\xe4+@'
p112
tp113
Rp114
ag10
(g14
S'\xf7=*:\x85y*@'
p115
tp116
Rp117
ag10
(g14
S'\xaf\x1dX\xb7\x98\xb4*@'
p118
tp119
Rp120
ag10
(g14
S'M\xa5\xf1xdQ(@'
p121
tp122
Rp123
ag10
(g14
S'1nqH\xdd\xbf+@'
p124
tp125
Rp126
ag10
(g14
S'/\x80\n\x9f\xcd[+@'
p127
tp128
Rp129
ag10
(g14
S'\xceAp\x80PM/@'
p130
tp131
Rp132
ag10
(g14
S'U\x91z\x88/\x06*@'
p133
tp134
Rp135
ag10
(g14
S'\xae\x9e\xdc{\xd9\x06,@'
p136
tp137
Rp138
asssss.