(dp0
S'../Data/sqlite_50.csv'
p1
(dp2
S'../Data/sqlite_73.csv'
p3
(dp4
F0.25
(dp5
S'mmre'
p6
(dp7
S'bellwether'
p8
(lp9
cnumpy.core.multiarray
scalar
p10
(cnumpy
dtype
p11
(S'f8'
p12
I0
I1
tp13
Rp14
(I3
S'<'
p15
NNNI-1
I-1
I0
tp16
bS'\xed >\x1d\xf89T@'
p17
tp18
Rp19
ag10
(g14
S'~hrOI;T@'
p20
tp21
Rp22
ag10
(g14
S'\x98\xfc[3\x185T@'
p23
tp24
Rp25
ag10
(g14
S'\xc1P\x13MJ5T@'
p26
tp27
Rp28
ag10
(g14
S'\x8f\r\x99\x0f\xc63T@'
p29
tp30
Rp31
ag10
(g14
S'\xb5\to\x97\xd3:T@'
p32
tp33
Rp34
ag10
(g14
S'\xeb\xf8\xbe\\\xa27T@'
p35
tp36
Rp37
ag10
(g14
S'P\xff-\xcc\xe08T@'
p38
tp39
Rp40
ag10
(g14
S'y]y\x16?5T@'
p41
tp42
Rp43
ag10
(g14
S'\xf2\x12\x7f\xc9\xc83T@'
p44
tp45
Rp46
ag10
(g14
S'\x00NZ\xb3\xbb4T@'
p47
tp48
Rp49
ag10
(g14
S'\xdf\rj\xc5g0T@'
p50
tp51
Rp52
ag10
(g14
S'0\x83\xe2\x13\xd82T@'
p53
tp54
Rp55
ag10
(g14
S'\x7f/!A\xf13T@'
p56
tp57
Rp58
ag10
(g14
S'u\xbb5\xd5m4T@'
p59
tp60
Rp61
ag10
(g14
S'\xb4\xab\xda\x8f\x863T@'
p62
tp63
Rp64
ag10
(g14
S'5\xd3\x1d\xc3\x834T@'
p65
tp66
Rp67
ag10
(g14
S'1\xf0\xf8\x94\xf11T@'
p68
tp69
Rp70
ag10
(g14
S'\x80\x82M\x08\xc39T@'
p71
tp72
Rp73
ag10
(g14
S'\x80#z[f4T@'
p74
tp75
Rp76
asS'target'
p77
(lp78
g10
(g14
S'\xb6\x91}A\xd9\x8e*@'
p79
tp80
Rp81
ag10
(g14
S'\xa2)*\xec+\x19,@'
p82
tp83
Rp84
ag10
(g14
S'sG^\x16.\x8a)@'
p85
tp86
Rp87
ag10
(g14
S'\xd9\xb4\x8em\x01\xdc*@'
p88
tp89
Rp90
ag10
(g14
S'z\xe7\x86\xbc\xf6\x95+@'
p91
tp92
Rp93
ag10
(g14
S'\x91\x19>\xa0\xe4\x8f+@'
p94
tp95
Rp96
ag10
(g14
S'K\x95\xe0\x994\x08-@'
p97
tp98
Rp99
ag10
(g14
S'Y\xaf\xf9\xd3\xba\xe7+@'
p100
tp101
Rp102
ag10
(g14
S'\xcd\xe6E:\x94X+@'
p103
tp104
Rp105
ag10
(g14
S'\x86oS\x86P*-@'
p106
tp107
Rp108
ag10
(g14
S'\xd0\x9b,zGc*@'
p109
tp110
Rp111
ag10
(g14
S'D\xd2\x8fD;\xda,@'
p112
tp113
Rp114
ag10
(g14
S'\xc4\x18\x11\x81Q(*@'
p115
tp116
Rp117
ag10
(g14
S'\x88\xf9\xceQL\xe7*@'
p118
tp119
Rp120
ag10
(g14
S'\x8f\xa0\xdb\xebQ\xf9*@'
p121
tp122
Rp123
ag10
(g14
S'RUfK\x13\x13+@'
p124
tp125
Rp126
ag10
(g14
S'\x88t\xf3\xe7\xbb\x94,@'
p127
tp128
Rp129
ag10
(g14
S'D\x1en\xd4\x8e\xdd-@'
p130
tp131
Rp132
ag10
(g14
S'H\x8es\xf6Dc*@'
p133
tp134
Rp135
ag10
(g14
S'\xf41J!\xdcU,@'
p136
tp137
Rp138
asssss.