(dp0
S'../Data/sqlite_62.csv'
p1
(dp2
S'../Data/sqlite_15.csv'
p3
(dp4
F0.35
(dp5
S'abs_res'
p6
(dp7
S'bellwether'
p8
(lp9
cnumpy.core.multiarray
scalar
p10
(cnumpy
dtype
p11
(S'f8'
p12
I0
I1
tp13
Rp14
(I3
S'<'
p15
NNNI-1
I-1
I0
tp16
bS'\x12\xaeG!ri8A'
p17
tp18
Rp19
ag10
(g14
S',\xf9\xc5\xe2\x16j8A'
p20
tp21
Rp22
ag10
(g14
S'\xeb\xb4\x81^\x8dh8A'
p23
tp24
Rp25
ag10
(g14
S'\xfb\xc5\x92\x9f\x80i8A'
p26
tp27
Rp28
ag10
(g14
S'F(\xa3\xa7\xd5j8A'
p29
tp30
Rp31
ag10
(g14
S'\xe8\xb4\x81\xdeYi8A'
p32
tp33
Rp34
ag10
(g14
S'r\x05\xc8\xcd\xa0k8A'
p35
tp36
Rp37
ag10
(g14
S'/B\x19]\x97l8A'
p38
tp39
Rp40
ag10
(g14
S'\x80\x86]1\xb5h8A'
p41
tp42
Rp43
ag10
(g14
S'\xc7\xb0+P\xefh8A'
p44
tp45
Rp46
ag10
(g14
S'\xfdb\xc9oxi8A'
p47
tp48
Rp49
ag10
(g14
S'K\x19\xbdM+i8A'
p50
tp51
Rp52
ag10
(g14
S'r\xe9&Q\x17i8A'
p53
tp54
Rp55
ag10
(g14
S'\xbc\xe6B\xb2dj8A'
p56
tp57
Rp58
ag10
(g14
S";\x98'\x9a)h8A"
p59
tp60
Rp61
ag10
(g14
S'\xdd3\xec\xfaAi8A'
p62
tp63
Rp64
ag10
(g14
S'\xf5\x8b%O2j8A'
p65
tp66
Rp67
ag10
(g14
S'Qq\xf6\x01]h8A'
p68
tp69
Rp70
ag10
(g14
S'h\x03\x9dVTg8A'
p71
tp72
Rp73
ag10
(g14
S'\xcbi\x03\x8d\xbei8A'
p74
tp75
Rp76
asS'target'
p77
(lp78
g10
(g14
S'NDDD\x84z\xc9@'
p79
tp80
Rp81
ag10
(g14
S'ffff& \xcb@'
p82
tp83
Rp84
ag10
(g14
S'_fff&\x1c\xcb@'
p85
tp86
Rp87
ag10
(g14
S'2333\x13W\xcb@'
p88
tp89
Rp90
ag10
(g14
S'`fff&\x14\xcb@'
p91
tp92
Rp93
ag10
(g14
S'73333d\xca@'
p94
tp95
Rp96
ag10
(g14
S'\xc9\xcc\xcc\xcc\x8c\x84\xc9@'
p97
tp98
Rp99
ag10
(g14
S'gfff\xa6"\xcb@'
p100
tp101
Rp102
ag10
(g14
S'\x02\x00\x00\x00\xc0\x9e\xcb@'
p103
tp104
Rp105
ag10
(g14
S'mfff\xc6U\xcc@'
p106
tp107
Rp108
ag10
(g14
S'\x9f\x99\x99\x99\xd9\x1b\xcc@'
p109
tp110
Rp111
ag10
(g14
S'\xc1\xcc\xcc\xcc\xcc\xfd\xc9@'
p112
tp113
Rp114
ag10
(g14
S'\xc5\xcc\xcc\xcc\x0c\xa4\xca@'
p115
tp116
Rp117
ag10
(g14
S'\x9a\x99\x99\x99\xd9\xbf\xca@'
p118
tp119
Rp120
ag10
(g14
S'efff\xe6S\xca@'
p121
tp122
Rp123
ag10
(g14
S']fffF|\xca@'
p124
tp125
Rp126
ag10
(g14
S'\xd6\xcc\xcc\xcc\x0c\xae\xca@'
p127
tp128
Rp129
ag10
(g14
S'-333s!\xcb@'
p130
tp131
Rp132
ag10
(g14
S'*333s@\xca@'
p133
tp134
Rp135
ag10
(g14
S'[fff\x86O\xca@'
p136
tp137
Rp138
asssss.