(dp0
S'../Data/sqlite_94.csv'
p1
(dp2
S'../Data/sqlite_34.csv'
p3
(dp4
F0.05
(dp5
S'abs_res'
p6
(dp7
S'bellwether'
p8
(lp9
cnumpy.core.multiarray
scalar
p10
(cnumpy
dtype
p11
(S'f8'
p12
I0
I1
tp13
Rp14
(I3
S'<'
p15
NNNI-1
I-1
I0
tp16
bS'\xc1K7\tq\x05#A'
p17
tp18
Rp19
ag10
(g14
S'[9\xb4\xc8\x18-#A'
p20
tp21
Rp22
ag10
(g14
S'|\xebQ8v\n#A'
p23
tp24
Rp25
ag10
(g14
S'\x04V\x0e-}\xba"A'
p26
tp27
Rp28
ag10
(g14
S'\xa4\xc6K\xb7\xab7#A'
p29
tp30
Rp31
ag10
(g14
S'\xde\xa5\x9b\xc4\xbb/#A'
p32
tp33
Rp34
ag10
(g14
S'?\xb6\xf3=S*#A'
p35
tp36
Rp37
ag10
(g14
S'\'\x06\x81\x15E\xe8"A'
p38
tp39
Rp40
ag10
(g14
S'\xa2p=\n<\xfa"A'
p41
tp42
Rp43
ag10
(g14
S'"\x85\xebQ\xb4\x1c#A'
p44
tp45
Rp46
ag10
(g14
S'\xff\xff\xff?u\x15#A'
p47
tp48
Rp49
ag10
(g14
S'^d;_^\x06#A'
p50
tp51
Rp52
ag10
(g14
S'\x9d\x9b\xc4\xa0Y\xa9"A'
p53
tp54
Rp55
ag10
(g14
S'\xbbt\x93XQ\xfd"A'
p56
tp57
Rp58
ag10
(g14
S')\x87\x16\xd9\xc1\x04#A'
p59
tp60
Rp61
ag10
(g14
S'X\x0e-\xf2\x84\x07#A'
p62
tp63
Rp64
ag10
(g14
S'\xab\xc8v\xbe:\x9e"A'
p65
tp66
Rp67
ag10
(g14
S'\xb0\xc8v~\xa4"#A'
p68
tp69
Rp70
ag10
(g14
S'O\xe3\xa5\xdbE\x07#A'
p71
tp72
Rp73
ag10
(g14
S'\x85\xebQ\xb8\x98\x9d"A'
p74
tp75
Rp76
asS'target'
p77
(lp78
g10
(g14
S'>7\x89A`\xa5o@'
p79
tp80
Rp81
ag10
(g14
S'\xcb\x9f\x1a/\xdd\xaco@'
p82
tp83
Rp84
ag10
(g14
S'0^\xbaI\x0c\x9an@'
p85
tp86
Rp87
ag10
(g14
S'\xc2K7\x89A|m@'
p88
tp89
Rp90
ag10
(g14
S'f;\xdfO\x8d]q@'
p91
tp92
Rp93
ag10
(g14
S'\xbb\x1e\x85\xebQ\xc4o@'
p94
tp95
Rp96
ag10
(g14
S'\\d;\xdfO\xb5p@'
p97
tp98
Rp99
ag10
(g14
S'\x12\xd9\xce\xf7S\xf3m@'
p100
tp101
Rp102
ag10
(g14
S'\x85?5^\xba\xf9k@'
p103
tp104
Rp105
ag10
(g14
S'\xdez\x14\xaeG\xe3q@'
p106
tp107
Rp108
ag10
(g14
S'\x8cC\x8bl\xe7?o@'
p109
tp110
Rp111
ag10
(g14
S'\xf5~j\xbct\xdfp@'
p112
tp113
Rp114
ag10
(g14
S'\x02\x00\x00\x00\x00\x8ap@'
p115
tp116
Rp117
ag10
(g14
S'\xff\xff\xff\xff\xffcm@'
p118
tp119
Rp120
ag10
(g14
S'A`\xe5\xd0"1r@'
p121
tp122
Rp123
ag10
(g14
S'\r\x81\x95C\x8b\xa4o@'
p124
tp125
Rp126
ag10
(g14
S'~?5^\xbaQq@'
p127
tp128
Rp129
ag10
(g14
S'\xed|?5^\x96r@'
p130
tp131
Rp132
ag10
(g14
S'\xcc\xf5(\\\x8fZr@'
p133
tp134
Rp135
ag10
(g14
S'\xe0\xf9~j\xbc\x12s@'
p136
tp137
Rp138
asssss.