(dp0
S'../Data/sqlite_36.csv'
p1
(dp2
S'../Data/sqlite_77.csv'
p3
(dp4
F0.3
(dp5
S'mmre'
p6
(dp7
S'bellwether'
p8
(lp9
cnumpy.core.multiarray
scalar
p10
(cnumpy
dtype
p11
(S'f8'
p12
I0
I1
tp13
Rp14
(I3
S'<'
p15
NNNI-1
I-1
I0
tp16
bS'\x1f\xfc{\n\x8a]V@'
p17
tp18
Rp19
ag10
(g14
S'\xec\xf3\xdf\x9fZ_V@'
p20
tp21
Rp22
ag10
(g14
S'>\x86*\xe6\x92`V@'
p23
tp24
Rp25
ag10
(g14
S'\xb9@b\xfa\x02WV@'
p26
tp27
Rp28
ag10
(g14
S'<\x106q\xff]V@'
p29
tp30
Rp31
ag10
(g14
S'Z\xed5\xc7\x02]V@'
p32
tp33
Rp34
ag10
(g14
S'\x19\xec\xcc\xd1,^V@'
p35
tp36
Rp37
ag10
(g14
S'~\xdd\xc4\xcf\xb4YV@'
p38
tp39
Rp40
ag10
(g14
S'\xb0\xe58\xc6/WV@'
p41
tp42
Rp43
ag10
(g14
S'\x89;>\x93sVV@'
p44
tp45
Rp46
ag10
(g14
S'\xf4\x89s\xdb\xab^V@'
p47
tp48
Rp49
ag10
(g14
S'I\xf3\xe2\\\xc7YV@'
p50
tp51
Rp52
ag10
(g14
S'jk*0\xb9^V@'
p53
tp54
Rp55
ag10
(g14
S'\xc0^\xb2{&ZV@'
p56
tp57
Rp58
ag10
(g14
S'\xc2:\xe8\xac\x03`V@'
p59
tp60
Rp61
ag10
(g14
S'\x16\xbb\x02f\x8dYV@'
p62
tp63
Rp64
ag10
(g14
S'ZR\xb2\xaf\x19YV@'
p65
tp66
Rp67
ag10
(g14
S'\x87F\x1c.D[V@'
p68
tp69
Rp70
ag10
(g14
S'\xbb0\xcf\x03\xa7\\V@'
p71
tp72
Rp73
ag10
(g14
S'\xe0d\xb6!\xb9ZV@'
p74
tp75
Rp76
asS'target'
p77
(lp78
g10
(g14
S'\x9e\x0b\xd6\x9fM\r7@'
p79
tp80
Rp81
ag10
(g14
S'\xf7\xc0+\x9d>\xf94@'
p82
tp83
Rp84
ag10
(g14
S'`@\xaa\x9d+\x9b4@'
p85
tp86
Rp87
ag10
(g14
S'\x7f\xc4\xa0\xa2\xbd/4@'
p88
tp89
Rp90
ag10
(g14
S'\x94\xf9C\xdd\xefA6@'
p91
tp92
Rp93
ag10
(g14
S'\xae\xc9j\xf4f\xe45@'
p94
tp95
Rp96
ag10
(g14
S'\xe9\x8f\x8a$\x94p4@'
p97
tp98
Rp99
ag10
(g14
S'\xc6*\x93\x01\xed\xd67@'
p100
tp101
Rp102
ag10
(g14
S'\xe5W\x05v\x00\xf65@'
p103
tp104
Rp105
ag10
(g14
S'u\xb1\xcbpU\xe37@'
p106
tp107
Rp108
ag10
(g14
S'N\xa4v\xb7\x15\x075@'
p109
tp110
Rp111
ag10
(g14
S'\xd8~\xc6v\xf0\xc95@'
p112
tp113
Rp114
ag10
(g14
S'>\xafX@?45@'
p115
tp116
Rp117
ag10
(g14
S'\x04\xd1]9\xc0l5@'
p118
tp119
Rp120
ag10
(g14
S'\xd7+-\xff\xc5f6@'
p121
tp122
Rp123
ag10
(g14
S'\x00\x9c5gd\xff5@'
p124
tp125
Rp126
ag10
(g14
S'D\xc30\xa5\x88\xec5@'
p127
tp128
Rp129
ag10
(g14
S'$1\xcf!\xb6\x825@'
p130
tp131
Rp132
ag10
(g14
S'\xdbq\x19\xeb\xbd\x866@'
p133
tp134
Rp135
ag10
(g14
S'%h\x9ch!\xc35@'
p136
tp137
Rp138
asssss.