(dp0
S'../Data/sqlite_21.csv'
p1
(dp2
S'../Data/sqlite_77.csv'
p3
(dp4
F0.1
(dp5
S'mmre'
p6
(dp7
S'bellwether'
p8
(lp9
cnumpy.core.multiarray
scalar
p10
(cnumpy
dtype
p11
(S'f8'
p12
I0
I1
tp13
Rp14
(I3
S'<'
p15
NNNI-1
I-1
I0
tp16
bS'&jMi\x1bGN@'
p17
tp18
Rp19
ag10
(g14
S'\x93\x02]\x8d\xecGN@'
p20
tp21
Rp22
ag10
(g14
S'rq\x02{zGN@'
p23
tp24
Rp25
ag10
(g14
S'O\xf6\xf2\x94\xe47N@'
p26
tp27
Rp28
ag10
(g14
S'\x9c\xb6\xa5\xeb05N@'
p29
tp30
Rp31
ag10
(g14
S'\x08\x00\x97\xc3\x89XN@'
p32
tp33
Rp34
ag10
(g14
S'R\xe2&\x85CFN@'
p35
tp36
Rp37
ag10
(g14
S'\x87\xfe\xcaN\xcc9N@'
p38
tp39
Rp40
ag10
(g14
S'u5<\xfew;N@'
p41
tp42
Rp43
ag10
(g14
S'/\xaaP\xc4mDN@'
p44
tp45
Rp46
ag10
(g14
S'\xdd\xec\xe5=\xe3?N@'
p47
tp48
Rp49
ag10
(g14
S'^ iGz:N@'
p50
tp51
Rp52
ag10
(g14
S'\xcb\xb8\xbb\x81M8N@'
p53
tp54
Rp55
ag10
(g14
S'8\x03\xd2v\xf0-N@'
p56
tp57
Rp58
ag10
(g14
S'\x89e\x92\xc3\xbeKN@'
p59
tp60
Rp61
ag10
(g14
S'\x19~\xf8S\xff@N@'
p62
tp63
Rp64
ag10
(g14
S'\x81\x15K\xeeU-N@'
p65
tp66
Rp67
ag10
(g14
S'\xcff%\x1fD8N@'
p68
tp69
Rp70
ag10
(g14
S'\x05P/\xc6T=N@'
p71
tp72
Rp73
ag10
(g14
S'\xe7\t\xba\xbft=N@'
p74
tp75
Rp76
asS'target'
p77
(lp78
g10
(g14
S'\xd9&B\x0e\xca\xf56@'
p79
tp80
Rp81
ag10
(g14
S'\xa3\xe1\xf9{\x05L8@'
p82
tp83
Rp84
ag10
(g14
S'_\xe2\x8a\x1f\xa7\xa74@'
p85
tp86
Rp87
ag10
(g14
S'vMw\x10#a6@'
p88
tp89
Rp90
ag10
(g14
S'\xf5n\xb8h#\x0f6@'
p91
tp92
Rp93
ag10
(g14
S'n\x07jQ\x82\x026@'
p94
tp95
Rp96
ag10
(g14
S'\xdf\x94vE\xd4{5@'
p97
tp98
Rp99
ag10
(g14
S'LUT\x13E\xeb5@'
p100
tp101
Rp102
ag10
(g14
S'\x10\xf7\x0b}\xe3\xee6@'
p103
tp104
Rp105
ag10
(g14
S'\x01F\xf8\xa5g\xad5@'
p106
tp107
Rp108
ag10
(g14
S'\x9dD\xae]\xab\xe15@'
p109
tp110
Rp111
ag10
(g14
S'&\xa5\xe5%\xafx5@'
p112
tp113
Rp114
ag10
(g14
S'\xff\xc2!\x93\xf5z5@'
p115
tp116
Rp117
ag10
(g14
S'\xb3\xbb\xc5N\x97k7@'
p118
tp119
Rp120
ag10
(g14
S'\xaa\xa3\xf7\xe5\x8a\x065@'
p121
tp122
Rp123
ag10
(g14
S'\xcbCI\xf7\xc5~6@'
p124
tp125
Rp126
ag10
(g14
S'\x9a\xda\xf1\x85\xff86@'
p127
tp128
Rp129
ag10
(g14
S'\x8b\xed7TM\xb64@'
p130
tp131
Rp132
ag10
(g14
S'\x88qH.\xd0\xd93@'
p133
tp134
Rp135
ag10
(g14
S'\xd7\x07R\xcf\xda\xc76@'
p136
tp137
Rp138
asssss.