(dp0
S'../Data/sqlite_93.csv'
p1
(dp2
S'../Data/sqlite_76.csv'
p3
(dp4
F0.35
(dp5
S'mmre'
p6
(dp7
S'bellwether'
p8
(lp9
cnumpy.core.multiarray
scalar
p10
(cnumpy
dtype
p11
(S'f8'
p12
I0
I1
tp13
Rp14
(I3
S'<'
p15
NNNI-1
I-1
I0
tp16
bS'f?;\x9f\x94SW@'
p17
tp18
Rp19
ag10
(g14
S'!\xe3:\xfd\xd8EW@'
p20
tp21
Rp22
ag10
(g14
S'o\x86\xc0\x1a#XW@'
p23
tp24
Rp25
ag10
(g14
S'J}\xba\x17IPW@'
p26
tp27
Rp28
ag10
(g14
S'R\x9d\x19\xe8xLW@'
p29
tp30
Rp31
ag10
(g14
S'\xc6H\xce\xbcXaW@'
p32
tp33
Rp34
ag10
(g14
S'\xf9\xa8R\xa0\x87\\W@'
p35
tp36
Rp37
ag10
(g14
S'v\xb4j uCW@'
p38
tp39
Rp40
ag10
(g14
S'\x18\x93X\x92\xd4TW@'
p41
tp42
Rp43
ag10
(g14
S'\xbd0\x81\x89\xb1_W@'
p44
tp45
Rp46
ag10
(g14
S'\x8a\xc8\x11D\\RW@'
p47
tp48
Rp49
ag10
(g14
S'\x8e\x10|\x803GW@'
p50
tp51
Rp52
ag10
(g14
S'\xc0B\x96x>fW@'
p53
tp54
Rp55
ag10
(g14
S'\xb6\xb7N\x88RSW@'
p56
tp57
Rp58
ag10
(g14
S'\x9a\xb3\x1dO\xbfWW@'
p59
tp60
Rp61
ag10
(g14
S'\xe6\\\x01\xf1\xdfIW@'
p62
tp63
Rp64
ag10
(g14
S'\xa2b\x1e\xbb&[W@'
p65
tp66
Rp67
ag10
(g14
S'0[\xa3\xe4\xaaUW@'
p68
tp69
Rp70
ag10
(g14
S'\x1b\x12i\x87"_W@'
p71
tp72
Rp73
ag10
(g14
S'\xa8\x8dc\xa4deW@'
p74
tp75
Rp76
asS'target'
p77
(lp78
g10
(g14
S'PC:\xd1\xff\x951@'
p79
tp80
Rp81
ag10
(g14
S'\xe6&\x97d5g0@'
p82
tp83
Rp84
ag10
(g14
S'\x7fhX\xbb\x0f\xdd1@'
p85
tp86
Rp87
ag10
(g14
S'\x11\xedo\xb4\x0c\xb70@'
p88
tp89
Rp90
ag10
(g14
S'a*\xe8\x85\xcbq0@'
p91
tp92
Rp93
ag10
(g14
S'\xc5}\xac\xdd\xe9\xbe1@'
p94
tp95
Rp96
ag10
(g14
S'\x16\x1f\x1b\xfb\xb6\xa70@'
p97
tp98
Rp99
ag10
(g14
S'\xdf\xe7\x8c\x8eWa0@'
p100
tp101
Rp102
ag10
(g14
S'sV\xb9l\xa7\xff/@'
p103
tp104
Rp105
ag10
(g14
S'\x8e\xe3x\xe9:w1@'
p106
tp107
Rp108
ag10
(g14
S"]'\xd8k1\x132@"
p109
tp110
Rp111
ag10
(g14
S'\x18\n\xd2\xdd\xe5\xf82@'
p112
tp113
Rp114
ag10
(g14
S'X\xeam\xc5D\xfc0@'
p115
tp116
Rp117
ag10
(g14
S'\xa0G\t\xb4j\xc01@'
p118
tp119
Rp120
ag10
(g14
S'9\x16\x81\xbdC\x972@'
p121
tp122
Rp123
ag10
(g14
S'\xbb\xf3\xdf\xd8\xd4\xd50@'
p124
tp125
Rp126
ag10
(g14
S'~\xd2Pnq%1@'
p127
tp128
Rp129
ag10
(g14
S'yA^G"\x851@'
p130
tp131
Rp132
ag10
(g14
S'q\xb9b\x8b\xa4\xab0@'
p133
tp134
Rp135
ag10
(g14
S'c\x14\xfe,\x04V3@'
p136
tp137
Rp138
asssss.