(dp0
S'../Data/sqlite_14.csv'
p1
(dp2
S'../Data/sqlite_90.csv'
p3
(dp4
F0.25
(dp5
S'mmre'
p6
(dp7
S'bellwether'
p8
(lp9
cnumpy.core.multiarray
scalar
p10
(cnumpy
dtype
p11
(S'f8'
p12
I0
I1
tp13
Rp14
(I3
S'<'
p15
NNNI-1
I-1
I0
tp16
bS'\xcc\xd5\x8d&\xd1$W@'
p17
tp18
Rp19
ag10
(g14
S'\xc0#\xaf\xa6$1W@'
p20
tp21
Rp22
ag10
(g14
S'o\xb1M\xa5_0W@'
p23
tp24
Rp25
ag10
(g14
S'\xaf<4D\xda"W@'
p26
tp27
Rp28
ag10
(g14
S'.0\xf1Pd\x1fW@'
p29
tp30
Rp31
ag10
(g14
S"\xc95p\xef\xd0'W@"
p32
tp33
Rp34
ag10
(g14
S'\x85\xd2\x08%v8W@'
p35
tp36
Rp37
ag10
(g14
S'\xbaJ\xc9\xa1\x8a#W@'
p38
tp39
Rp40
ag10
(g14
S'N\x97?K\x8e!W@'
p41
tp42
Rp43
ag10
(g14
S'\xe0\xfc\xecp\x94$W@'
p44
tp45
Rp46
ag10
(g14
S'\xb0\xd2\x9f%\xa5$W@'
p47
tp48
Rp49
ag10
(g14
S'\xc2\x00\xee\x93\xdb&W@'
p50
tp51
Rp52
ag10
(g14
S'\xf7\xeaF\xb8\x972W@'
p53
tp54
Rp55
ag10
(g14
S'}\xf7wK#&W@'
p56
tp57
Rp58
ag10
(g14
S"\x8f\xeeX\x1b\x06'W@"
p59
tp60
Rp61
ag10
(g14
S'\x18!p1\xb9)W@'
p62
tp63
Rp64
ag10
(g14
S'\xb9\x03\xd88\n2W@'
p65
tp66
Rp67
ag10
(g14
S'MfI\xb7W,W@'
p68
tp69
Rp70
ag10
(g14
S"\x81\xfeLt\xf2'W@"
p71
tp72
Rp73
ag10
(g14
S'\x04\x0c\xf9\x0c\xda$W@'
p74
tp75
Rp76
asS'target'
p77
(lp78
g10
(g14
S'\x97\x96AQJ\x01A@'
p79
tp80
Rp81
ag10
(g14
S'4"=\xe88\x0bA@'
p82
tp83
Rp84
ag10
(g14
S'\xc7\x12I0\xf57?@'
p85
tp86
Rp87
ag10
(g14
S'$\x10\xb6c\xaf)A@'
p88
tp89
Rp90
ag10
(g14
S'\x13\xab-\xc2\x9f\xb6A@'
p91
tp92
Rp93
ag10
(g14
S'@\x0b\x85E\xe9eB@'
p94
tp95
Rp96
ag10
(g14
S'\xcb2\t\xefq\xda@@'
p97
tp98
Rp99
ag10
(g14
S'z\xc9,\x1f\xa3dA@'
p100
tp101
Rp102
ag10
(g14
S'\xa0~5q\xe3\xcc@@'
p103
tp104
Rp105
ag10
(g14
S'X\x15\x85\x8b\x13\x04A@'
p106
tp107
Rp108
ag10
(g14
S'!HA \xaaPA@'
p109
tp110
Rp111
ag10
(g14
S'@?\xef\x99\x99\xdfB@'
p112
tp113
Rp114
ag10
(g14
S';\x16I\x16\x7f\x12A@'
p115
tp116
Rp117
ag10
(g14
S'.F\xce\x8e\x10JA@'
p118
tp119
Rp120
ag10
(g14
S'\xf7|\x0e\x1a\x1bm@@'
p121
tp122
Rp123
ag10
(g14
S'\x17-\x0b\xb7w8B@'
p124
tp125
Rp126
ag10
(g14
S'\x05\x8f\x12\xbd\xcb\xfb@@'
p127
tp128
Rp129
ag10
(g14
S'|[6\xcc8CB@'
p130
tp131
Rp132
ag10
(g14
S'SH\xb6I\x02\xefB@'
p133
tp134
Rp135
ag10
(g14
S'R\xc0\x07\x17\xe3\x06B@'
p136
tp137
Rp138
asssss.