(dp0
S'../Data/sqlite_4.csv'
p1
(dp2
S'../Data/sqlite_35.csv'
p3
(dp4
F0.25
(dp5
S'abs_res'
p6
(dp7
S'bellwether'
p8
(lp9
cnumpy.core.multiarray
scalar
p10
(cnumpy
dtype
p11
(S'f8'
p12
I0
I1
tp13
Rp14
(I3
S'<'
p15
NNNI-1
I-1
I0
tp16
bS'\x0et\xda\x80,"=A'
p17
tp18
Rp19
ag10
(g14
S'~l\xe7\x1b\r!=A'
p20
tp21
Rp22
ag10
(g14
S'\xdf\xd0"\xfbo!=A'
p23
tp24
Rp25
ag10
(g14
S'\x0b\x02+\'\xb6"=A'
p26
tp27
Rp28
ag10
(g14
S'\xe8|?u\x8c =A'
p29
tp30
Rp31
ag10
(g14
S'+\x17\x92F\x82"=A'
p32
tp33
Rp34
ag10
(g14
S'\x11\xd9\xce7\x99!=A'
p35
tp36
Rp37
ag10
(g14
S'\xafV\xc7\xc4r!=A'
p38
tp39
Rp40
ag10
(g14
S'\xb8\xac\xd5qr"=A'
p41
tp42
Rp43
ag10
(g14
S'\xf2\xfd\xd4\x18M"=A'
p44
tp45
Rp46
ag10
(g14
S'\xa2\x1a/\xdd\x8d\x1f=A'
p47
tp48
Rp49
ag10
(g14
S'\xab\xf1\xd2-\x18"=A'
p50
tp51
Rp52
ag10
(g14
S'{?5\xfe\x84"=A'
p53
tp54
Rp55
ag10
(g14
S'0Q\xff\x860!=A'
p56
tp57
Rp58
ag10
(g14
S'y\xa4)\xf5\xc9 =A'
p59
tp60
Rp61
ag10
(g14
S'\xec5\x172\x17"=A'
p62
tp63
Rp64
ag10
(g14
S'\xf4~j<\x96"=A'
p65
tp66
Rp67
ag10
(g14
S'\xb5:&\xf8b"=A'
p68
tp69
Rp70
ag10
(g14
S'\xf8\xff\xff\xbf[!=A'
p71
tp72
Rp73
ag10
(g14
S'\xfeb\xc9\xcfu!=A'
p74
tp75
Rp76
asS'target'
p77
(lp78
g10
(g14
S'}j\xbct\x93\xf0^@'
p79
tp80
Rp81
ag10
(g14
S'\x17\x04V\x0e-Z^@'
p82
tp83
Rp84
ag10
(g14
S"\x91'\xea\xdf\x08\xe9\\@"
p85
tp86
Rp87
ag10
(g14
S'\xfcU\x0e-\xb2m^@'
p88
tp89
Rp90
ag10
(g14
S'B\xb6\xf3\xfd\xd4\xf8\\@'
p91
tp92
Rp93
ag10
(g14
S'n\x93\x18\x04V\x86_@'
p94
tp95
Rp96
ag10
(g14
S'\x88\x95C\x8bl;]@'
p97
tp98
Rp99
ag10
(g14
S'\xe1\xfb\xa9\xf1\xd2\xdd]@'
p100
tp101
Rp102
ag10
(g14
S'\x87\xc2\xf5(\\w_@'
p103
tp104
Rp105
ag10
(g14
S'\xb3\x9d\xef\xa7\xc6\x97[@'
p106
tp107
Rp108
ag10
(g14
S'\x99\x9b\xc4 \xb0\xce]@'
p109
tp110
Rp111
ag10
(g14
S's=\n\xd7\xa3<]@'
p112
tp113
Rp114
ag10
(g14
S'?b\x10X9\x14^@'
p115
tp116
Rp117
ag10
(g14
S'I\xe3\xa5\x9b\xc48]@'
p118
tp119
Rp120
ag10
(g14
S'\xd8\xce\xf7S\xe3A^@'
p121
tp122
Rp123
ag10
(g14
S'C5^\xbaIt\\@'
p124
tp125
Rp126
ag10
(g14
S'\xe0\xa3p=\n\xb7^@'
p127
tp128
Rp129
ag10
(g14
S'P9\xb4\xc8v\x1a^@'
p130
tp131
Rp132
ag10
(g14
S'\xcav\xbe\x9f\x1a+`@'
p133
tp134
Rp135
ag10
(g14
S'\xacrh\x91\xed\xc0^@'
p136
tp137
Rp138
asssss.