(dp0
S'../Data/sqlite_15.csv'
p1
(dp2
S'../Data/sqlite_20.csv'
p3
(dp4
F0.2
(dp5
S'abs_res'
p6
(dp7
S'bellwether'
p8
(lp9
cnumpy.core.multiarray
scalar
p10
(cnumpy
dtype
p11
(S'f8'
p12
I0
I1
tp13
Rp14
(I3
S'<'
p15
NNNI-1
I-1
I0
tp16
bS'\x06\xac\x1cZTK>A'
p17
tp18
Rp19
ag10
(g14
S'\xa3\xc6K\x17\xbaK>A'
p20
tp21
Rp22
ag10
(g14
S'\x0f/\xddDAL>A'
p23
tp24
Rp25
ag10
(g14
S'j\x91\xed\xbc\x16K>A'
p26
tp27
Rp28
ag10
(g14
S'Z\xd6\xea\xb8oL>A'
p29
tp30
Rp31
ag10
(g14
S'\x04+\x87\xd6DL>A'
p32
tp33
Rp34
ag10
(g14
S'\xd2Mb\xf0\xffK>A'
p35
tp36
Rp37
ag10
(g14
S'\xd9\xf9~\n4M>A'
p38
tp39
Rp40
ag10
(g14
S'\xa4\x1cZd\xe6L>A'
p41
tp42
Rp43
ag10
(g14
S'\x96\xc4 \x10\xc2M>A'
p44
tp45
Rp46
ag10
(g14
S'i;\xdf\x8f\xefL>A'
p47
tp48
Rp49
ag10
(g14
S'\xf0S\xe3\xa5\xe1M>A'
p50
tp51
Rp52
ag10
(g14
S'P\xe1z\x14\x1aM>A'
p53
tp54
Rp55
ag10
(g14
S'\xda\xa5\x9bd\xf3L>A'
p56
tp57
Rp58
ag10
(g14
S'-\xdd$\xe6\xbaK>A'
p59
tp60
Rp61
ag10
(g14
S'G5^\x9a\x87L>A'
p62
tp63
Rp64
ag10
(g14
S'\x15\x02+\xe7XL>A'
p65
tp66
Rp67
ag10
(g14
S'\xa8\x9b\xc4\x80\xb6L>A'
p68
tp69
Rp70
ag10
(g14
S'\xf9(\\/+M>A'
p71
tp72
Rp73
ag10
(g14
S'+\x06\x81u\xe2M>A'
p74
tp75
Rp76
asS'target'
p77
(lp78
g10
(g14
S'\x80\x95C\x8bl\xdfp@'
p79
tp80
Rp81
ag10
(g14
S'\xd2\xf9~j\xbc\xf5q@'
p82
tp83
Rp84
ag10
(g14
S'\xf6(\\\x8f\xc2Wq@'
p85
tp86
Rp87
ag10
(g14
S'\xda\xce\xf7S\xe3\x02q@'
p88
tp89
Rp90
ag10
(g14
S'\xd0"\xdb\xf9~op@'
p91
tp92
Rp93
ag10
(g14
S'\xf2\xfd\xd4x\xe9\x84q@'
p94
tp95
Rp96
ag10
(g14
S'9\x89A`\xe5\x10q@'
p97
tp98
Rp99
ag10
(g14
S'Q9\xb4\xc8v\x01r@'
p100
tp101
Rp102
ag10
(g14
S'\xdc\xf9~j\xbc\x8eq@'
p103
tp104
Rp105
ag10
(g14
S'\x1b\x04V\x0e-Br@'
p106
tp107
Rp108
ag10
(g14
S'\x16\x04V\x0e-bq@'
p109
tp110
Rp111
ag10
(g14
S'A5^\xbaIdq@'
p112
tp113
Rp114
ag10
(g14
S'%\x06\x81\x95CAq@'
p115
tp116
Rp117
ag10
(g14
S'\x14\xd9\xce\xf7SYq@'
p118
tp119
Rp120
ag10
(g14
S'p=\n\xd7\xa3\xd4q@'
p121
tp122
Rp123
ag10
(g14
S'8\n\xd7\xa3p\xacp@'
p124
tp125
Rp126
ag10
(g14
S'\xcfMb\x10X\x8ap@'
p127
tp128
Rp129
ag10
(g14
S'\xa8\xf1\xd2MbVr@'
p130
tp131
Rp132
ag10
(g14
S'\x9a\x18\x04V\x0e\xbbq@'
p133
tp134
Rp135
ag10
(g14
S'\x92\x18\x04V\x0e!s@'
p136
tp137
Rp138
asssss.