(dp0
S'../Data/sqlite_16.csv'
p1
(dp2
S'../Data/sqlite_73.csv'
p3
(dp4
F0.2
(dp5
S'mmre'
p6
(dp7
S'bellwether'
p8
(lp9
cnumpy.core.multiarray
scalar
p10
(cnumpy
dtype
p11
(S'f8'
p12
I0
I1
tp13
Rp14
(I3
S'<'
p15
NNNI-1
I-1
I0
tp16
bS'RaR\x17\xd3aU@'
p17
tp18
Rp19
ag10
(g14
S'T\xf28\xfa;bU@'
p20
tp21
Rp22
ag10
(g14
S'\xaaD~\xd4q_U@'
p23
tp24
Rp25
ag10
(g14
S'\xce\x9f\xe9\x9a\x10`U@'
p26
tp27
Rp28
ag10
(g14
S'\xa2\x18\xfd\xa4JaU@'
p29
tp30
Rp31
ag10
(g14
S'ry\xbf\x94iaU@'
p32
tp33
Rp34
ag10
(g14
S'l\x1a\xa3\x8fs^U@'
p35
tp36
Rp37
ag10
(g14
S'o\x03\x06Z\x07aU@'
p38
tp39
Rp40
ag10
(g14
S'\xfc\xde{\xfbYdU@'
p41
tp42
Rp43
ag10
(g14
S'<^\xd0\x1e^_U@'
p44
tp45
Rp46
ag10
(g14
S'\x8e6\xe0\xab\x11`U@'
p47
tp48
Rp49
ag10
(g14
S'\x9f\xdb.^\xea^U@'
p50
tp51
Rp52
ag10
(g14
S'\x83\xcc\x8f.6bU@'
p53
tp54
Rp55
ag10
(g14
S'<\xb5\xadB\xd4^U@'
p56
tp57
Rp58
ag10
(g14
S'\xb4\xe9\xc4\xd24bU@'
p59
tp60
Rp61
ag10
(g14
S'\xf2C\x0f~=`U@'
p62
tp63
Rp64
ag10
(g14
S'K\xc3OjMaU@'
p65
tp66
Rp67
ag10
(g14
S'SvH\x8bdaU@'
p68
tp69
Rp70
ag10
(g14
S'R#\xd4\x99\xfb]U@'
p71
tp72
Rp73
ag10
(g14
S'\x01\x9a\x11\xc9\xb0bU@'
p74
tp75
Rp76
asS'target'
p77
(lp78
g10
(g14
S'^\x11\x06\xbdM\xa6,@'
p79
tp80
Rp81
ag10
(g14
S'\xd1g\xb4qb\x90*@'
p82
tp83
Rp84
ag10
(g14
S'\x9aS\xaa\xb5x2,@'
p85
tp86
Rp87
ag10
(g14
S'6\x11\xae\xdb\x8c(+@'
p88
tp89
Rp90
ag10
(g14
S'\xd7aD\xad\xf2\x12+@'
p91
tp92
Rp93
ag10
(g14
S'\xca;p\xf8\x9ak+@'
p94
tp95
Rp96
ag10
(g14
S'\xceW\x13\n\xbc\xbe-@'
p97
tp98
Rp99
ag10
(g14
S'\xb7\x81\x81\x823\xb2+@'
p100
tp101
Rp102
ag10
(g14
S'\xdc\x9d\x8c\xddq\x90)@'
p103
tp104
Rp105
ag10
(g14
S"=\xdb\xed\x9d\xdb',@"
p106
tp107
Rp108
ag10
(g14
S"p5g\x8e-',@"
p109
tp110
Rp111
ag10
(g14
S'\xf5|[5`u*@'
p112
tp113
Rp114
ag10
(g14
S'\xb89\xf5o.\xb2*@'
p115
tp116
Rp117
ag10
(g14
S'\x12\xea\xeb\xca\xd1\x0f.@'
p118
tp119
Rp120
ag10
(g14
S'\xbd\xc9\xe1!\xdf\x88*@'
p121
tp122
Rp123
ag10
(g14
S'h=\xbf7\xd8b+@'
p124
tp125
Rp126
ag10
(g14
S'\xbc\x16\x9c\x11\x87\xea)@'
p127
tp128
Rp129
ag10
(g14
S'\x8eb~_\xfe\xbe+@'
p130
tp131
Rp132
ag10
(g14
S'\xca\x92`\x9bj\xa5/@'
p133
tp134
Rp135
ag10
(g14
S'N\xc4\xf2*\xd7\xf8,@'
p136
tp137
Rp138
asssss.