(dp0
S'../Data/sqlite_46.csv'
p1
(dp2
S'../Data/sqlite_58.csv'
p3
(dp4
F0.15
(dp5
S'abs_res'
p6
(dp7
S'bellwether'
p8
(lp9
cnumpy.core.multiarray
scalar
p10
(cnumpy
dtype
p11
(S'f8'
p12
I0
I1
tp13
Rp14
(I3
S'<'
p15
NNNI-1
I-1
I0
tp16
bS'\xfa~j<\xcap@A'
p17
tp18
Rp19
ag10
(g14
S'(1\x08\x1c\xc1o@A'
p20
tp21
Rp22
ag10
(g14
S'\\9\xb4h7p@A'
p23
tp24
Rp25
ag10
(g14
S'\x0f-\xb2\x9d\x07p@A'
p26
tp27
Rp28
ag10
(g14
S':\n\xd7\x13#p@A'
p29
tp30
Rp31
ag10
(g14
S'W\xe3\xa5\xab\x07p@A'
p32
tp33
Rp34
ag10
(g14
S'\x95C\x8b\\&p@A'
p35
tp36
Rp37
ag10
(g14
S'{\xe9&q-p@A'
p38
tp39
Rp40
ag10
(g14
S'!\xb0rX\x00p@A'
p41
tp42
Rp43
ag10
(g14
S'n\xbct\x03wp@A'
p44
tp45
Rp46
ag10
(g14
S'3\x08\xac\x8c5p@A'
p47
tp48
Rp49
ag10
(g14
S'\xa7E\xb6\x83\xc3p@A'
p50
tp51
Rp52
ag10
(g14
S'733\xa3;p@A'
p53
tp54
Rp55
ag10
(g14
S'\xa6\xc6KW\xd0p@A'
p56
tp57
Rp58
ag10
(g14
S'\x9a\x18\x04v$p@A'
p59
tp60
Rp61
ag10
(g14
S'\xfe~j\x8c\xbep@A'
p62
tp63
Rp64
ag10
(g14
S'\x04\xac\x1c\x8a9p@A'
p65
tp66
Rp67
ag10
(g14
S'\xcaK7y3p@A'
p68
tp69
Rp70
ag10
(g14
S'\x11X9\xa4cp@A'
p71
tp72
Rp73
ag10
(g14
S'X\xbaI\x0c\x1dp@A'
p74
tp75
Rp76
asS'target'
p77
(lp78
g10
(g14
S'\x1f\\\x8f\xc2\xf5xX@'
p79
tp80
Rp81
ag10
(g14
S'\\d;\xdfO\xbdW@'
p82
tp83
Rp84
ag10
(g14
S'\xad\x9d\xef\xa7\xc6\xf3W@'
p85
tp86
Rp87
ag10
(g14
S'sh\x91\xed|\xc7W@'
p88
tp89
Rp90
ag10
(g14
S'\xe3\xa5\x9b\xc4 8X@'
p91
tp92
Rp93
ag10
(g14
S'\xec\xfd\xd4x\xe9"Y@'
p94
tp95
Rp96
ag10
(g14
S'Bb\x10X9\xe4W@'
p97
tp98
Rp99
ag10
(g14
S'\xcfx\xe9&18W@'
p100
tp101
Rp102
ag10
(g14
S'\xff\xab\x1cZd\xa3W@'
p103
tp104
Rp105
ag10
(g14
S')\x85\xebQ\xb8\xd6X@'
p106
tp107
Rp108
ag10
(g14
S'\x0e-\xb2\x9d\xef\x07Y@'
p109
tp110
Rp111
ag10
(g14
S'\xad\x9b\xc4 \xb0\xb2X@'
p112
tp113
Rp114
ag10
(g14
S't?5^\xba\xd1W@'
p115
tp116
Rp117
ag10
(g14
S's\xbct\x93\x18tX@'
p118
tp119
Rp120
ag10
(g14
S'b\xbct\x93\x18LW@'
p121
tp122
Rp123
ag10
(g14
S'\x87\xebQ\xb8\x1e\rY@'
p124
tp125
Rp126
ag10
(g14
S',^\xbaI\x0czY@'
p127
tp128
Rp129
ag10
(g14
S'a\xe3\xa5\x9b\xc4 W@'
p130
tp131
Rp132
ag10
(g14
S'\xfcS\xe3\xa5\x9b\xb4W@'
p133
tp134
Rp135
ag10
(g14
S'\x97\x99\x99\x99\x99\x89X@'
p136
tp137
Rp138
asssss.