(dp0
S'../Data/sqlite_4.csv'
p1
(dp2
S'../Data/sqlite_20.csv'
p3
(dp4
F0.05
(dp5
S'abs_res'
p6
(dp7
S'bellwether'
p8
(lp9
cnumpy.core.multiarray
scalar
p10
(cnumpy
dtype
p11
(S'f8'
p12
I0
I1
tp13
Rp14
(I3
S'<'
p15
NNNI-1
I-1
I0
tp16
bS'\xf4S\xe3\xa5wiBA'
p17
tp18
Rp19
ag10
(g14
S'\x95\x18\x04\x06tiBA'
p20
tp21
Rp22
ag10
(g14
S'\xef&1XgiBA'
p23
tp24
Rp25
ag10
(g14
S'rh\x91MKiBA'
p26
tp27
Rp28
ag10
(g14
S'M\xe1z4\xb2iBA'
p29
tp30
Rp31
ag10
(g14
S'\xb0\x1cZ\xd4\x07iBA'
p32
tp33
Rp34
ag10
(g14
S'\xd2\xf7S\xf3\xffhBA'
p35
tp36
Rp37
ag10
(g14
S'\xc0X\xf2\xdb-iBA'
p38
tp39
Rp40
ag10
(g14
S')\x06\x81\x95\x1eiBA'
p41
tp42
Rp43
ag10
(g14
S'\xdfz\x14.\xb9iBA'
p44
tp45
Rp46
ag10
(g14
S'R\xb8\x1e\xe5fiBA'
p47
tp48
Rp49
ag10
(g14
S'\xc3 \xb0\xc2&iBA'
p50
tp51
Rp52
ag10
(g14
S'c\xe5\xd0\xc2\x05iBA'
p53
tp54
Rp55
ag10
(g14
S'\xb4\xc8vNqiBA'
p56
tp57
Rp58
ag10
(g14
S'\x91\xc2\xf5h-iBA'
p59
tp60
Rp61
ag10
(g14
S'*\\\x8f\xc2FiBA'
p62
tp63
Rp64
ag10
(g14
S'\xd6x\xe9fBiBA'
p65
tp66
Rp67
ag10
(g14
S'^H\x9ar(iBA'
p68
tp69
Rp70
ag10
(g14
S'\x9b\xc4 \xd0AiBA'
p71
tp72
Rp73
ag10
(g14
S'\x02\xac\x1c\xea\xe6hBA'
p74
tp75
Rp76
asS'target'
p77
(lp78
g10
(g14
S'T\xb8\x1e\x85\xeb#t@'
p79
tp80
Rp81
ag10
(g14
S'G\xb6\xf3\xfd\xd4\x8ar@'
p82
tp83
Rp84
ag10
(g14
S'\x0b\x04V\x0e-\x9au@'
p85
tp86
Rp87
ag10
(g14
S'\xfd(\\\x8f\xc2\x93r@'
p88
tp89
Rp90
ag10
(g14
S'\x7f?5^\xba3r@'
p91
tp92
Rp93
ag10
(g14
S'+\xdd$\x06\x81Ax@'
p94
tp95
Rp96
ag10
(g14
S'\xf7*\x87\x16\xd9.w@'
p97
tp98
Rp99
ag10
(g14
S'\xa2\x99\x99\x99\x99\xf5r@'
p100
tp101
Rp102
ag10
(g14
S'\xd3\xce\xf7S\xe3Sv@'
p103
tp104
Rp105
ag10
(g14
S'\xed&1\x08\xac<v@'
p106
tp107
Rp108
ag10
(g14
S'm;\xdfO\x8d\xe3t@'
p109
tp110
Rp111
ag10
(g14
S'\x0f\xaeG\xe1z\xecs@'
p112
tp113
Rp114
ag10
(g14
S'\x0cX9\xb4\xc8"w@'
p115
tp116
Rp117
ag10
(g14
S'\xb2\x1e\x85\xebQvs@'
p118
tp119
Rp120
ag10
(g14
S'\x1b\xd9\xce\xf7S\x87t@'
p121
tp122
Rp123
ag10
(g14
S'n\xe9&1\x08lv@'
p124
tp125
Rp126
ag10
(g14
S'\xb1rh\x91\xedbr@'
p127
tp128
Rp129
ag10
(g14
S'\xe8\xa5\x9b\xc4 2w@'
p130
tp131
Rp132
ag10
(g14
S'r=\n\xd7\xa34u@'
p133
tp134
Rp135
ag10
(g14
S'\x10Zd;\xdfar@'
p136
tp137
Rp138
asssss.