(dp0
S'../Data/sqlite_85.csv'
p1
(dp2
S'../Data/sqlite_9.csv'
p3
(dp4
F0.05
(dp5
S'abs_res'
p6
(dp7
S'bellwether'
p8
(lp9
cnumpy.core.multiarray
scalar
p10
(cnumpy
dtype
p11
(S'f8'
p12
I0
I1
tp13
Rp14
(I3
S'<'
p15
NNNI-1
I-1
I0
tp16
bS'\xac\x9b\xc4\x90_BZA'
p17
tp18
Rp19
ag10
(g14
S'/\xb2\x9d\xd7{ ZA'
p20
tp21
Rp22
ag10
(g14
S'\x98\xc4 `\x0e,ZA'
p23
tp24
Rp25
ag10
(g14
S"\xd3v\xbe'^FZA"
p26
tp27
Rp28
ag10
(g14
S'\xfeU\x0e}\xc5AZA'
p29
tp30
Rp31
ag10
(g14
S'\x82l\xe73J(ZA'
p32
tp33
Rp34
ag10
(g14
S'\xc2\xca\xa1\x15\x81.ZA'
p35
tp36
Rp37
ag10
(g14
S'Y\xf2\x8b\x15\xf7<ZA'
p38
tp39
Rp40
ag10
(g14
S'\x95Rq.)9ZA'
p41
tp42
Rp43
ag10
(g14
S']ff~0=ZA'
p44
tp45
Rp46
ag10
(g14
S'\x12<\x98\x17\x96,ZA'
p47
tp48
Rp49
ag10
(g14
S'\x18\xaeGa\xadVZA'
p50
tp51
Rp52
ag10
(g14
S'y\x93\x18L\xb4@ZA'
p53
tp54
Rp55
ag10
(g14
S'\xfbS\xe3}\x95MZA'
p56
tp57
Rp58
ag10
(g14
S'\xd7\x06:%\xec>ZA'
p59
tp60
Rp61
ag10
(g14
S'\xbct\x93\x90\xa6)ZA'
p62
tp63
Rp64
ag10
(g14
S'\xed\xfb\xa9\xb1\x89EZA'
p65
tp66
Rp67
ag10
(g14
S'\x87A`=\xf22ZA'
p68
tp69
Rp70
ag10
(g14
S'gff\xeeeMZA'
p71
tp72
Rp73
ag10
(g14
S'\x02\r\xbb\xb2*XZA'
p74
tp75
Rp76
asS'target'
p77
(lp78
g10
(g14
S'\xeaMb\x10X9F@'
p79
tp80
Rp81
ag10
(g14
S'>\xdfO\x8d\x97\xbeB@'
p82
tp83
Rp84
ag10
(g14
S'(1\x08\xac\x1c\xbaD@'
p85
tp86
Rp87
ag10
(g14
S'offff\xc6H@'
p88
tp89
Rp90
ag10
(g14
S'W\x8d\x97n\x12\xb3@@'
p91
tp92
Rp93
ag10
(g14
S'\xbd\xf3\xfd\xd4x\xb9M@'
p94
tp95
Rp96
ag10
(g14
S']\x0e-\xb2\x9d\x0fO@'
p97
tp98
Rp99
ag10
(g14
S'|?5^\xba\xa9A@'
p100
tp101
Rp102
ag10
(g14
S'_9\xb4\xc8v\x9e@@'
p103
tp104
Rp105
ag10
(g14
S'b\xb8\x1e\x85\xebaH@'
p106
tp107
Rp108
ag10
(g14
S'\x01)\\\x8f\xc2\x85J@'
p109
tp110
Rp111
ag10
(g14
S'\xaaE\xb6\xf3\xfd$B@'
p112
tp113
Rp114
ag10
(g14
S'\x95C\x8bl\xe7[F@'
p115
tp116
Rp117
ag10
(g14
S'\xed&1\x08\xac\x1cC@'
p118
tp119
Rp120
ag10
(g14
S'\xda$\x06\x81\x95\xc3M@'
p121
tp122
Rp123
ag10
(g14
S'\xac\x9b\xc4 \xb0BF@'
p124
tp125
Rp126
ag10
(g14
S'\xcdK7\x89A`G@'
p127
tp128
Rp129
ag10
(g14
S'Zb\x10X94B@'
p130
tp131
Rp132
ag10
(g14
S'\xd6Mb\x10X\xe9@@'
p133
tp134
Rp135
ag10
(g14
S'\x98\x18\x04V\x0e\xcd@@'
p136
tp137
Rp138
asssss.