(dp0
S'../Data/sqlite_86.csv'
p1
(dp2
S'../Data/sqlite_77.csv'
p3
(dp4
F0.3
(dp5
S'mmre'
p6
(dp7
S'bellwether'
p8
(lp9
cnumpy.core.multiarray
scalar
p10
(cnumpy
dtype
p11
(S'f8'
p12
I0
I1
tp13
Rp14
(I3
S'<'
p15
NNNI-1
I-1
I0
tp16
bS'\xd6\x9d\xa6N\xaa6U@'
p17
tp18
Rp19
ag10
(g14
S'G\xe5"~\x055U@'
p20
tp21
Rp22
ag10
(g14
S'Tk\xf0\x1f\xd8+U@'
p23
tp24
Rp25
ag10
(g14
S'\xc5\x9b\xcf\xcc%8U@'
p26
tp27
Rp28
ag10
(g14
S'p3\x8e`&EU@'
p29
tp30
Rp31
ag10
(g14
S'N\x8d\x85\xe3\xbe6U@'
p32
tp33
Rp34
ag10
(g14
S'y]w\xe9A+U@'
p35
tp36
Rp37
ag10
(g14
S'\x04\xb7\xafzG1U@'
p38
tp39
Rp40
ag10
(g14
S'3z\xc5!\xcc.U@'
p41
tp42
Rp43
ag10
(g14
S' E\x94\x16\xfdBU@'
p44
tp45
Rp46
ag10
(g14
S'\xb6\x83|\x1c\xba=U@'
p47
tp48
Rp49
ag10
(g14
S'7\xca\xc5W\xe0OU@'
p50
tp51
Rp52
ag10
(g14
S'W`\xe9,L;U@'
p53
tp54
Rp55
ag10
(g14
S'`\xe3f\xce\xf77U@'
p56
tp57
Rp58
ag10
(g14
S'\xe9\xfa\xdeh\x9d=U@'
p59
tp60
Rp61
ag10
(g14
S')\xf1Y\xe1\xedQU@'
p62
tp63
Rp64
ag10
(g14
S'N\xb5\xc0\xa0\xc0uU@'
p65
tp66
Rp67
ag10
(g14
S'\x8eup\xbdm\x19U@'
p68
tp69
Rp70
ag10
(g14
S'\xd3Yuz\xedAU@'
p71
tp72
Rp73
ag10
(g14
S'&O\x83\x1c~AU@'
p74
tp75
Rp76
asS'target'
p77
(lp78
g10
(g14
S'A\x85\x1d\x18\xec\x8a7@'
p79
tp80
Rp81
ag10
(g14
S'y| >\x81=7@'
p82
tp83
Rp84
ag10
(g14
S'&\x82)\xbe\xc9\xe25@'
p85
tp86
Rp87
ag10
(g14
S'2<\xfb\xed\x18\xdc5@'
p88
tp89
Rp90
ag10
(g14
S'h\x93x\x01\x80\xcc4@'
p91
tp92
Rp93
ag10
(g14
S'P\xe5\xf7\x0c\xdaY6@'
p94
tp95
Rp96
ag10
(g14
S'\xd0\xa9\x10\xbb\xc1,6@'
p97
tp98
Rp99
ag10
(g14
S'\x84\x97!RO\xe25@'
p100
tp101
Rp102
ag10
(g14
S'\xc8b|(\x02\x835@'
p103
tp104
Rp105
ag10
(g14
S"\x16|'\x8da\x075@"
p106
tp107
Rp108
ag10
(g14
S'\x0f\x7fr!\x9e\x826@'
p109
tp110
Rp111
ag10
(g14
S'.\x8d7\xdc\xe8\x946@'
p112
tp113
Rp114
ag10
(g14
S'E\x93\x88\xc6\xd3\xcb4@'
p115
tp116
Rp117
ag10
(g14
S'\xa2f!\x0eN\xd97@'
p118
tp119
Rp120
ag10
(g14
S'\xb4\xadPC3\x1d6@'
p121
tp122
Rp123
ag10
(g14
S'`\xcdS\x94z\xf33@'
p124
tp125
Rp126
ag10
(g14
S'i\x84\xb1O\x15{6@'
p127
tp128
Rp129
ag10
(g14
S'\xd2\xd0\x12Y\x9d\xc35@'
p130
tp131
Rp132
ag10
(g14
S'C\xeb\x98\xf5Fk4@'
p133
tp134
Rp135
ag10
(g14
S'\xa3\xa6F5\x80\xcd6@'
p136
tp137
Rp138
asssss.