(dp0
S'../Data/sqlite_60.csv'
p1
(dp2
S'../Data/sqlite_37.csv'
p3
(dp4
F0.15
(dp5
S'abs_res'
p6
(dp7
S'bellwether'
p8
(lp9
cnumpy.core.multiarray
scalar
p10
(cnumpy
dtype
p11
(S'f8'
p12
I0
I1
tp13
Rp14
(I3
S'<'
p15
NNNI-1
I-1
I0
tp16
bS'\xef|?y\x0eFhA'
p17
tp18
Rp19
ag10
(g14
S'6\x19\xbd\xc5\xd68hA'
p20
tp21
Rp22
ag10
(g14
S'\xe3O\x8d\x0by1hA'
p23
tp24
Rp25
ag10
(g14
S'E\xe1z\xc8)2hA'
p26
tp27
Rp28
ag10
(g14
S'\xcev\xbe/\x84@hA'
p29
tp30
Rp31
ag10
(g14
S'\x04+\x87\xd2\xe48hA'
p32
tp33
Rp34
ag10
(g14
S'\xd5\xce\xf7\xb7\xb09hA'
p35
tp36
Rp37
ag10
(g14
S'\x9d\xc4 0\x95<hA'
p38
tp39
Rp40
ag10
(g14
S'a\x10X)\xf7;hA'
p41
tp42
Rp43
ag10
(g14
S'\x9c\x1a/\tj5hA'
p44
tp45
Rp46
ag10
(g14
S'\xa5\x7f#\x10\xe0@hA'
p47
tp48
Rp49
ag10
(g14
S'\x1c\xd9\xce{L:hA'
p50
tp51
Rp52
ag10
(g14
S'{\xa4)\xb1E2hA'
p53
tp54
Rp55
ag10
(g14
S'\xaarh\xd5\xf9.hA'
p56
tp57
Rp58
ag10
(g14
S'\x95\x97n\xba\x154hA'
p59
tp60
Rp61
ag10
(g14
S'@5^\xc2 8hA'
p62
tp63
Rp64
ag10
(g14
S'\x98\x99\x99q\x1e+hA'
p65
tp66
Rp67
ag10
(g14
S'\xd6\x06:\xe1t.hA'
p68
tp69
Rp70
ag10
(g14
S'/\x89A\xd4\xc5BhA'
p71
tp72
Rp73
ag10
(g14
S'1\xfb\xf05\x124hA'
p74
tp75
Rp76
asS'target'
p77
(lp78
g10
(g14
S'\x85\xc0\xca\xa1EVO@'
p79
tp80
Rp81
ag10
(g14
S'8^\xbaI\x0c&P@'
p82
tp83
Rp84
ag10
(g14
S'\x8e\xc2\xf5(\\\xefQ@'
p85
tp86
Rp87
ag10
(g14
S'E\xe1z\x14\xae\x17P@'
p88
tp89
Rp90
ag10
(g14
S'\xbd\xf3\xfd\xd4x\x91P@'
p91
tp92
Rp93
ag10
(g14
S'\xf0|?5^\x82P@'
p94
tp95
Rp96
ag10
(g14
S'\x0eX9\xb4\xc8JP@'
p97
tp98
Rp99
ag10
(g14
S'~\x14\xaeG\xe1\x12P@'
p100
tp101
Rp102
ag10
(g14
S'\xaa\x9b\xc4 \xb0\x12O@'
p103
tp104
Rp105
ag10
(g14
S'\xa9\xc6K7\x89YQ@'
p106
tp107
Rp108
ag10
(g14
S'N7\x89A`\x91Q@'
p109
tp110
Rp111
ag10
(g14
S'`ffff\xc6N@'
p112
tp113
Rp114
ag10
(g14
S'\x8bl\xe7\xfb\xa9\x89R@'
p115
tp116
Rp117
ag10
(g14
S'\xb1\xc8v\xbe\x9f\xcaP@'
p118
tp119
Rp120
ag10
(g14
S'\xe1z\x14\xaeG\xd1P@'
p121
tp122
Rp123
ag10
(g14
S'\xa4\xef\xa7\xc6K\x97O@'
p124
tp125
Rp126
ag10
(g14
S'\x1eZd;\xdfgP@'
p127
tp128
Rp129
ag10
(g14
S'\xf3\xfd\xd4x\xe9VQ@'
p130
tp131
Rp132
ag10
(g14
S'\xbf\x1e\x85\xebQ\x08P@'
p133
tp134
Rp135
ag10
(g14
S':\x89A`\xe5\xe0O@'
p136
tp137
Rp138
asssss.