(dp0
S'../Data/sqlite_57.csv'
p1
(dp2
S'../Data/sqlite_3.csv'
p3
(dp4
F0.4
(dp5
S'abs_res'
p6
(dp7
S'bellwether'
p8
(lp9
cnumpy.core.multiarray
scalar
p10
(cnumpy
dtype
p11
(S'f8'
p12
I0
I1
tp13
Rp14
(I3
S'<'
p15
NNNI-1
I-1
I0
tp16
bS'\x99\x1a/q&yaA'
p17
tp18
Rp19
ag10
(g14
S'mh\x91-\xe2taA'
p20
tp21
Rp22
ag10
(g14
S'%1\x08\xd8\xcchaA'
p23
tp24
Rp25
ag10
(g14
S'\xe9&1\xc0c|aA'
p26
tp27
Rp28
ag10
(g14
S'9^\xba)+uaA'
p29
tp30
Rp31
ag10
(g14
S'+\x87\x16\xe9NnaA'
p32
tp33
Rp34
ag10
(g14
S'A\xdfOQ\x0bsaA'
p35
tp36
Rp37
ag10
(g14
S'\t\x81\x95\x97\xf8zaA'
p38
tp39
Rp40
ag10
(g14
S'\x0c\x02+7\x8bnaA'
p41
tp42
Rp43
ag10
(g14
S'\x84\x95Cc$saA'
p44
tp45
Rp46
ag10
(g14
S'\xf0\xd2MjslaA'
p47
tp48
Rp49
ag10
(g14
S'^\x10X)jnaA'
p50
tp51
Rp52
ag10
(g14
S'\xd5"\xdb\x1d\x04zaA'
p53
tp54
Rp55
ag10
(g14
S'\x87\x16\xd9\xf6&paA'
p56
tp57
Rp58
ag10
(g14
S"\xde\xce\xf7'_naA"
p59
tp60
Rp61
ag10
(g14
S'\xb5rh\xbd uaA'
p62
tp63
Rp64
ag10
(g14
S'\x9fC\x8b\xe8&\x84aA'
p65
tp66
Rp67
ag10
(g14
S'\xe1z\x14B\xc7maA'
p68
tp69
Rp70
ag10
(g14
S'w\x93\x18\x08rpaA'
p71
tp72
Rp73
ag10
(g14
S'\xa2\xef\xa7\xd2J\x80aA'
p74
tp75
Rp76
asS'target'
p77
(lp78
g10
(g14
S'[\x8f\xc2\xf5(\xd8d@'
p79
tp80
Rp81
ag10
(g14
S'a\xe5\xd0"\xdb\tf@'
p82
tp83
Rp84
ag10
(g14
S'\nX9\xb4\xc8he@'
p85
tp86
Rp87
ag10
(g14
S'{?5^\xba\xfbe@'
p88
tp89
Rp90
ag10
(g14
S'\xd2\xf7S\xe3\xa5\xd9f@'
p91
tp92
Rp93
ag10
(g14
S'\xb4\xf3\xfd\xd4x\x9bf@'
p94
tp95
Rp96
ag10
(g14
S'\xaarh\x91\xed\xaeg@'
p97
tp98
Rp99
ag10
(g14
S'\x0bX9\xb4\xc8Nd@'
p100
tp101
Rp102
ag10
(g14
S'\x93\x18\x04V\x0e\xc3e@'
p103
tp104
Rp105
ag10
(g14
S'\x19Zd;\xdf\xbbe@'
p106
tp107
Rp108
ag10
(g14
S'n\x91\xed|?\x8bf@'
p109
tp110
Rp111
ag10
(g14
S'\x0b/\xdd$\x06\xe9d@'
p112
tp113
Rp114
ag10
(g14
S'v\xe9&1\x08\xc0f@'
p115
tp116
Rp117
ag10
(g14
S'\xfbU\x0e-\xb2\xd3g@'
p118
tp119
Rp120
ag10
(g14
S'f;\xdfO\x8d%e@'
p121
tp122
Rp123
ag10
(g14
S'r\x14\xaeG\xe1Fg@'
p124
tp125
Rp126
ag10
(g14
S'\x91\x18\x04V\x0e\xabe@'
p127
tp128
Rp129
ag10
(g14
S'\xf7*\x87\x16\xd9\xfee@'
p130
tp131
Rp132
ag10
(g14
S'\x06\x81\x95C\x8b\x94e@'
p133
tp134
Rp135
ag10
(g14
S'\xa9\x9b\xc4 \xb0\xcad@'
p136
tp137
Rp138
asssss.