(dp0
S'../Data/sqlite_6.csv'
p1
(dp2
S'../Data/sqlite_90.csv'
p3
(dp4
F0.3
(dp5
S'mmre'
p6
(dp7
S'bellwether'
p8
(lp9
cnumpy.core.multiarray
scalar
p10
(cnumpy
dtype
p11
(S'f8'
p12
I0
I1
tp13
Rp14
(I3
S'<'
p15
NNNI-1
I-1
I0
tp16
bS"\x15-:'[\x90U@"
p17
tp18
Rp19
ag10
(g14
S'\x85\xbaXF\xe8pU@'
p20
tp21
Rp22
ag10
(g14
S'E\x02gs\r\x8eU@'
p23
tp24
Rp25
ag10
(g14
S'\xc0zK\xac\xcfyU@'
p26
tp27
Rp28
ag10
(g14
S'Gu\xe3 \xec\x89U@'
p29
tp30
Rp31
ag10
(g14
S'\x1bc`\xa0drU@'
p32
tp33
Rp34
ag10
(g14
S'\x008T\r\xcfiU@'
p35
tp36
Rp37
ag10
(g14
S'L\xa7\x15\xdd=rU@'
p38
tp39
Rp40
ag10
(g14
S'\xa9\\E\x1b\xf9bU@'
p41
tp42
Rp43
ag10
(g14
S'\xae\xf7=_}uU@'
p44
tp45
Rp46
ag10
(g14
S'\x86^\xcc\xde@{U@'
p47
tp48
Rp49
ag10
(g14
S'\xde\th,UuU@'
p50
tp51
Rp52
ag10
(g14
S'\x8b\x95\x837WyU@'
p53
tp54
Rp55
ag10
(g14
S'7\xbd\x03+\xe7\x82U@'
p56
tp57
Rp58
ag10
(g14
S'\xd6\xca\xc4\x9d^]U@'
p59
tp60
Rp61
ag10
(g14
S'\xafa\xb7\xb9\x9drU@'
p62
tp63
Rp64
ag10
(g14
S'd\xfd) \x07~U@'
p65
tp66
Rp67
ag10
(g14
S'\x90\xaeC\xa2d\x84U@'
p68
tp69
Rp70
ag10
(g14
S'H\xbd\xf7\xba(uU@'
p71
tp72
Rp73
ag10
(g14
S'u\xd06\xb0\xfbwU@'
p74
tp75
Rp76
asS'target'
p77
(lp78
g10
(g14
S'\xbe\x12\x8b\xba\x07\x91A@'
p79
tp80
Rp81
ag10
(g14
S'\n\x9e\xad\xdd\x14VA@'
p82
tp83
Rp84
ag10
(g14
S'\x18\x99\x8c\xea\xfev@@'
p85
tp86
Rp87
ag10
(g14
S'u\x86\x0b\xc6\xe0@A@'
p88
tp89
Rp90
ag10
(g14
S'\x93\xf6\x90\xd5S\xf2@@'
p91
tp92
Rp93
ag10
(g14
S',\xadR\x8e\xd3\x95A@'
p94
tp95
Rp96
ag10
(g14
S'R],3x\xf9A@'
p97
tp98
Rp99
ag10
(g14
S'\x9aaSif\xb5A@'
p100
tp101
Rp102
ag10
(g14
S'G\xcerfq2D@'
p103
tp104
Rp105
ag10
(g14
S'\xfa\xb7)7vEA@'
p106
tp107
Rp108
ag10
(g14
S'\xb8\xeb2\xbd3RB@'
p109
tp110
Rp111
ag10
(g14
S'\x80iv\xf5\x9f\x9cB@'
p112
tp113
Rp114
ag10
(g14
S'g\t\xa6\x9a@JB@'
p115
tp116
Rp117
ag10
(g14
S'c\xabi:\xd0~@@'
p118
tp119
Rp120
ag10
(g14
S'\x9c8\x83-NHC@'
p121
tp122
Rp123
ag10
(g14
S'H\x80\xd0\x83\x85~A@'
p124
tp125
Rp126
ag10
(g14
S'w19c\x88?B@'
p127
tp128
Rp129
ag10
(g14
S'\xe6\x98p\x99\xe0\x88@@'
p130
tp131
Rp132
ag10
(g14
S'O\x10q\xe4\x90\xbbA@'
p133
tp134
Rp135
ag10
(g14
S'\xf6\x9b\xd9 \xf2\x05B@'
p136
tp137
Rp138
asssss.