(dp0
S'../Data/sqlite_74.csv'
p1
(dp2
S'../Data/sqlite_37.csv'
p3
(dp4
F0.25
(dp5
S'abs_res'
p6
(dp7
S'bellwether'
p8
(lp9
cnumpy.core.multiarray
scalar
p10
(cnumpy
dtype
p11
(S'f8'
p12
I0
I1
tp13
Rp14
(I3
S'<'
p15
NNNI-1
I-1
I0
tp16
bS'\xd4Mbd\xa2[iA'
p17
tp18
Rp19
ag10
(g14
S'\xd0"\xdb\xe1bbiA'
p20
tp21
Rp22
ag10
(g14
S'\xf2\xb6\xac\xed\x1bjiA'
p23
tp24
Rp25
ag10
(g14
S'x\x05\xc8\xc1\x9dmiA'
p26
tp27
Rp28
ag10
(g14
S'#\xa3\xb7YOdiA'
p29
tp30
Rp31
ag10
(g14
S'\xfaD\xfd\x135niA'
p32
tp33
Rp34
ag10
(g14
S'\x86\x16\xd9\xee,iiA'
p35
tp36
Rp37
ag10
(g14
S'\xb5:&d\xf5diA'
p38
tp39
Rp40
ag10
(g14
S'n\x12\x83l\xe5aiA'
p41
tp42
Rp43
ag10
(g14
S'\xac\xb7e\x8d\xf8ciA'
p44
tp45
Rp46
ag10
(g14
S'$\xbfX\x12\xa6XiA'
p47
tp48
Rp49
ag10
(g14
S'\x17K~A\x17^iA'
p50
tp51
Rp52
ag10
(g14
S'\xa1\x9b\xc44hRiA'
p53
tp54
Rp55
ag10
(g14
S'\\\xabc\x9e<YiA'
p56
tp57
Rp58
ag10
(g14
S'\xeb&1\xc0\xc0[iA'
p59
tp60
Rp61
ag10
(g14
S'1\xd0i\x87.miA'
p62
tp63
Rp64
ag10
(g14
S'jh\x91E\x1eXiA'
p65
tp66
Rp67
ag10
(g14
S'm=\n\xdf\xc7diA'
p68
tp69
Rp70
ag10
(g14
S'-\x08\xac\\\x02biA'
p71
tp72
Rp73
ag10
(g14
S'\xdbk.\\ciiA'
p74
tp75
Rp76
asS'target'
p77
(lp78
g10
(g14
S'\xcd\xf5(\\\x8f\xc2M@'
p79
tp80
Rp81
ag10
(g14
S'\x0c-\xb2\x9d\xef\x07M@'
p82
tp83
Rp84
ag10
(g14
S'2\xdd$\x06\x81\xbdL@'
p85
tp86
Rp87
ag10
(g14
S'\xaeG\xe1z\x14nN@'
p88
tp89
Rp90
ag10
(g14
S'[9\xb4\xc8v\x1eN@'
p91
tp92
Rp93
ag10
(g14
S'\xef\xfd\xd4x\xe9&N@'
p94
tp95
Rp96
ag10
(g14
S'\x18Zd;\xdf\x7fL@'
p97
tp98
Rp99
ag10
(g14
S'\xed\xa5\x9b\xc4 PN@'
p100
tp101
Rp102
ag10
(g14
S'\x93\xc2\xf5(\\\x1fM@'
p103
tp104
Rp105
ag10
(g14
S'P7\x89A`uN@'
p106
tp107
Rp108
ag10
(g14
S'/\xb2\x9d\xef\xa7\xd6L@'
p109
tp110
Rp111
ag10
(g14
S'\x9f\xef\xa7\xc6K7M@'
p112
tp113
Rp114
ag10
(g14
S'\x04\x00\x00\x00\x00\x10L@'
p115
tp116
Rp117
ag10
(g14
S'Y\xbaI\x0c\x02\xdbK@'
p118
tp119
Rp120
ag10
(g14
S'm\x93\x18\x04V6M@'
p121
tp122
Rp123
ag10
(g14
S'S9\xb4\xc8v\x8eL@'
p124
tp125
Rp126
ag10
(g14
S'\xc0t\x93\x18\x04\x96N@'
p127
tp128
Rp129
ag10
(g14
S'9\x89A`\xe5PO@'
p130
tp131
Rp132
ag10
(g14
S'\x1e\xaeG\xe1zDL@'
p133
tp134
Rp135
ag10
(g14
S'\x18/\xdd$\x06\xe1N@'
p136
tp137
Rp138
asssss.