(dp0
S'../Data/sqlite_74.csv'
p1
(dp2
S'../Data/sqlite_64.csv'
p3
(dp4
F0.4
(dp5
S'abs_res'
p6
(dp7
S'bellwether'
p8
(lp9
cnumpy.core.multiarray
scalar
p10
(cnumpy
dtype
p11
(S'f8'
p12
I0
I1
tp13
Rp14
(I3
S'<'
p15
NNNI-1
I-1
I0
tp16
bS'\xe3\xec\xc3\xd7$>dA'
p17
tp18
Rp19
ag10
(g14
S'h\xd8\x15,\xb8QdA'
p20
tp21
Rp22
ag10
(g14
S'\xa8E\xb6\xef\x16GdA'
p23
tp24
Rp25
ag10
(g14
S'\xd5>|2OYdA'
p26
tp27
Rp28
ag10
(g14
S'\xc4\xbd\xe6\xde:LdA'
p29
tp30
Rp31
ag10
(g14
S'LS*\x8e\x93UdA'
p32
tp33
Rp34
ag10
(g14
S'M\x8d\x97\xc2\x04EdA'
p35
tp36
Rp37
ag10
(g14
S'\x1c\xe8\xb4]\xc8>dA'
p38
tp39
Rp40
ag10
(g14
S'cW\x808\xe5EdA'
p41
tp42
Rp43
ag10
(g14
S'\t:m\xbc\xf9]dA'
p44
tp45
Rp46
ag10
(g14
S'\x9e\xa8\x7f\xab\x98UdA'
p47
tp48
Rp49
ag10
(g14
S'\xeb\xa7\xc6\xbb\x87RdA'
p50
tp51
Rp52
ag10
(g14
S'\xc3\xf5(\xc8~EdA'
p53
tp54
Rp55
ag10
(g14
S'mJ\xc5i+RdA'
p56
tp57
Rp58
ag10
(g14
S'\xdc\xc1<\xd5\xc1KdA'
p59
tp60
Rp61
ag10
(g14
S'\x16v\x05\xf8]SdA'
p62
tp63
Rp64
ag10
(g14
S'M\x9aR\xc9\xc4?dA'
p65
tp66
Rp67
ag10
(g14
S'>\xee5S\xebDdA'
p68
tp69
Rp70
ag10
(g14
S'\xe5\xc1<\xd1-UdA'
p71
tp72
Rp73
ag10
(g14
S'?5^\x9a5CdA'
p74
tp75
Rp76
asS'target'
p77
(lp78
g10
(g14
S'\xc7\xf5(\\\x8f\xffp@'
p79
tp80
Rp81
ag10
(g14
S'\xce\xa1E\xb6\xf3\xdep@'
p82
tp83
Rp84
ag10
(g14
S']d;\xdfOWq@'
p85
tp86
Rp87
ag10
(g14
S'"\xdb\xf9~j\x93p@'
p88
tp89
Rp90
ag10
(g14
S'\xe6&1\x08\xac\xb3q@'
p91
tp92
Rp93
ag10
(g14
S'\xf7\xd2Mb\x10"q@'
p94
tp95
Rp96
ag10
(g14
S'x?5^\xbaqp@'
p97
tp98
Rp99
ag10
(g14
S'\x1a/\xdd$\x06Tr@'
p100
tp101
Rp102
ag10
(g14
S'\xf4S\xe3\xa5\x9b\xc2p@'
p103
tp104
Rp105
ag10
(g14
S'F5^\xbaI.p@'
p106
tp107
Rp108
ag10
(g14
S'\x05\x00\x00\x00\x00?p@'
p109
tp110
Rp111
ag10
(g14
S'\xd4x\xe9&1oq@'
p112
tp113
Rp114
ag10
(g14
S'Q\xe3\xa5\x9b\xc4hn@'
p115
tp116
Rp117
ag10
(g14
S'\xfc\xd4x\xe9&\x17o@'
p118
tp119
Rp120
ag10
(g14
S'&\x06\x81\x95C\xf7q@'
p121
tp122
Rp123
ag10
(g14
S'I\xe1z\x14\xaeFp@'
p124
tp125
Rp126
ag10
(g14
S'\xb2\xf1\xd2Mb>r@'
p127
tp128
Rp129
ag10
(g14
S'\xd6\xa3p=\n\x8fs@'
p130
tp131
Rp132
ag10
(g14
S'\xd5\xce\xf7S\xe3\xf9p@'
p133
tp134
Rp135
ag10
(g14
S'83333\xf4q@'
p136
tp137
Rp138
asssss.