(dp0
S'../Data/sqlite_9.csv'
p1
(dp2
S'../Data/sqlite_97.csv'
p3
(dp4
F0.15
(dp5
S'mmre'
p6
(dp7
S'bellwether'
p8
(lp9
cnumpy.core.multiarray
scalar
p10
(cnumpy
dtype
p11
(S'f8'
p12
I0
I1
tp13
Rp14
(I3
S'<'
p15
NNNI-1
I-1
I0
tp16
bS'-WT\xe2\xbf?X@'
p17
tp18
Rp19
ag10
(g14
S'\xa3\xcf\xbb\xad\x8f@X@'
p20
tp21
Rp22
ag10
(g14
S';\x05_Z#?X@'
p23
tp24
Rp25
ag10
(g14
S'\xa2?Z3G?X@'
p26
tp27
Rp28
ag10
(g14
S'5K\xa7\x8e\xba@X@'
p29
tp30
Rp31
ag10
(g14
S'\xeb\xbb\xf7(\xa8?X@'
p32
tp33
Rp34
ag10
(g14
S'\x05C\xd8\xdb0?X@'
p35
tp36
Rp37
ag10
(g14
S'\x10U\xcb\x0b\x00>X@'
p38
tp39
Rp40
ag10
(g14
S'\xfc`\x02\t\xf2>X@'
p41
tp42
Rp43
ag10
(g14
S'\x9by\xedc/?X@'
p44
tp45
Rp46
ag10
(g14
S'\xd2m:\xef\xa1@X@'
p47
tp48
Rp49
ag10
(g14
S'\xb3e}1\x19?X@'
p50
tp51
Rp52
ag10
(g14
S'\x9e\x18O\xb5\xa6?X@'
p53
tp54
Rp55
ag10
(g14
S'\r\xaf\x1f2d?X@'
p56
tp57
Rp58
ag10
(g14
S'\x13\\F\xb4\xbd@X@'
p59
tp60
Rp61
ag10
(g14
S'\xef\xdb11[@X@'
p62
tp63
Rp64
ag10
(g14
S'\xd2\x96\x95\x8eF?X@'
p65
tp66
Rp67
ag10
(g14
S'\xcf\x98\xac\xfb\xf0?X@'
p68
tp69
Rp70
ag10
(g14
S'Q\xf8\x87\xd5\xac>X@'
p71
tp72
Rp73
ag10
(g14
S'\xd7=\xd2M\xf8>X@'
p74
tp75
Rp76
asS'target'
p77
(lp78
g10
(g14
S'\xa2[.\xa9\x16_V@'
p79
tp80
Rp81
ag10
(g14
S'\xef\x8c\xb1/[\x82[@'
p82
tp83
Rp84
ag10
(g14
S'\xd83\x92q\xae\x03U@'
p85
tp86
Rp87
ag10
(g14
S'\x96\xa0\xfe\x8f\xed\xd2[@'
p88
tp89
Rp90
ag10
(g14
S'\x8d,\xbb\xf3\x92^J@'
p91
tp92
Rp93
ag10
(g14
S'"p5\xdd\xe8?Q@'
p94
tp95
Rp96
ag10
(g14
S']\x0e\x18\xdf\xb1\xc2R@'
p97
tp98
Rp99
ag10
(g14
S'\x0f\\\x1d~\xa1\xa3Z@'
p100
tp101
Rp102
ag10
(g14
S'\x06u/\x95\x87\xd4P@'
p103
tp104
Rp105
ag10
(g14
S'\x17x\xf7\x8b)NR@'
p106
tp107
Rp108
ag10
(g14
S'"\xe2l\x1cI\xbaG@'
p109
tp110
Rp111
ag10
(g14
S'f\xc1\x9dac\xf7M@'
p112
tp113
Rp114
ag10
(g14
S'c\x9f\xe0\xbaB\xf8`@'
p115
tp116
Rp117
ag10
(g14
S'\xa6\xd5qM\\\x8fb@'
p118
tp119
Rp120
ag10
(g14
S'\xf6"\xad\x16|\tQ@'
p121
tp122
Rp123
ag10
(g14
S'\x7f\xc4\x92$%%F@'
p124
tp125
Rp126
ag10
(g14
S'\xc2;e6\x85\x16]@'
p127
tp128
Rp129
ag10
(g14
S' \x89\xf0.\xb2,\\@'
p130
tp131
Rp132
ag10
(g14
S'\x04<\xa2\xae\xc9\x81W@'
p133
tp134
Rp135
ag10
(g14
S'\xc5\xa7\xea\xabc)c@'
p136
tp137
Rp138
asssss.