(dp0
S'../Data/sqlite_23.csv'
p1
(dp2
S'../Data/sqlite_59.csv'
p3
(dp4
F0.1
(dp5
S'mmre'
p6
(dp7
S'bellwether'
p8
(lp9
cnumpy.core.multiarray
scalar
p10
(cnumpy
dtype
p11
(S'f8'
p12
I0
I1
tp13
Rp14
(I3
S'<'
p15
NNNI-1
I-1
I0
tp16
bS'\x1e\xcf&\xa2\x0f-W@'
p17
tp18
Rp19
ag10
(g14
S'tlZ"R,W@'
p20
tp21
Rp22
ag10
(g14
S'y\xe7y\xde^-W@'
p23
tp24
Rp25
ag10
(g14
S'>\xc0\xf2C\xa5-W@'
p26
tp27
Rp28
ag10
(g14
S'\x04bV\x08\x8d,W@'
p29
tp30
Rp31
ag10
(g14
S'\xe4\x8co\xa6\x14-W@'
p32
tp33
Rp34
ag10
(g14
S'\xd0\xca+\xb0\x92,W@'
p35
tp36
Rp37
ag10
(g14
S'\x8d\x9dmFM.W@'
p38
tp39
Rp40
ag10
(g14
S'$Q"B\xc3-W@'
p41
tp42
Rp43
ag10
(g14
S'0z\x0f\xd5\x8e,W@'
p44
tp45
Rp46
ag10
(g14
S'\xfd\x81l\xde\x88,W@'
p47
tp48
Rp49
ag10
(g14
S'Y5\x07\x88z,W@'
p50
tp51
Rp52
ag10
(g14
S'\xe9\xcc\x96\xbb,-W@'
p53
tp54
Rp55
ag10
(g14
S'`\xba\xecu\xbb,W@'
p56
tp57
Rp58
ag10
(g14
S'<-\xcc\xca{,W@'
p59
tp60
Rp61
ag10
(g14
S'\x9a\xa7I\xfd\xe4,W@'
p62
tp63
Rp64
ag10
(g14
S'\xd7\xf0!\xb3\xc9,W@'
p65
tp66
Rp67
ag10
(g14
S'\xdf]\xc8\xef\xe3,W@'
p68
tp69
Rp70
ag10
(g14
S'2\xabM4\xcb,W@'
p71
tp72
Rp73
ag10
(g14
S'\xe9\xec\xf4\xfa\xb0-W@'
p74
tp75
Rp76
asS'target'
p77
(lp78
g10
(g14
S'\xe4\xb6\x0cR\x16\xeb%@'
p79
tp80
Rp81
ag10
(g14
S'\xfcG\x86S\xa9{&@'
p82
tp83
Rp84
ag10
(g14
S'\x8d<\xca\xda-\x1c#@'
p85
tp86
Rp87
ag10
(g14
S'y\x1eJ\x08\x05\x05&@'
p88
tp89
Rp90
ag10
(g14
S'XGSq\x96\x07)@'
p91
tp92
Rp93
ag10
(g14
S'\xb3\xbdo*\x0eI%@'
p94
tp95
Rp96
ag10
(g14
S"\x8c'\xcb\xf4\x1et%@"
p97
tp98
Rp99
ag10
(g14
S'\xce\xf0\xb8\xe8Q\xbc%@'
p100
tp101
Rp102
ag10
(g14
S'\x1e\xbc3f\x1e3$@'
p103
tp104
Rp105
ag10
(g14
S'\xd2\xd6\xa8\x0b\xcd\xdf$@'
p106
tp107
Rp108
ag10
(g14
S'\xc3tW\xde\t\xbe(@'
p109
tp110
Rp111
ag10
(g14
S'ut\xc0\xf67\x06%@'
p112
tp113
Rp114
ag10
(g14
S'0qf9\x06\x01$@'
p115
tp116
Rp117
ag10
(g14
S'y\xa2\xd6\x88\xc3\xfd$@'
p118
tp119
Rp120
ag10
(g14
S'\xe9u\x1c\x01\x9b\xca%@'
p121
tp122
Rp123
ag10
(g14
S"\xf0\xc9\xfe3\x8dy'@"
p124
tp125
Rp126
ag10
(g14
S'\xdd\x83x^\xab]$@'
p127
tp128
Rp129
ag10
(g14
S'p\xc5\xdc\xdd\xea=)@'
p130
tp131
Rp132
ag10
(g14
S' \r\x0ce#4(@'
p133
tp134
Rp135
ag10
(g14
S"\xff\x80\xe3*7\x19'@"
p136
tp137
Rp138
asssss.