(dp0
S'../Data/sqlite_36.csv'
p1
(dp2
S'../Data/sqlite_96.csv'
p3
(dp4
F0.35
(dp5
S'mmre'
p6
(dp7
S'bellwether'
p8
(lp9
cnumpy.core.multiarray
scalar
p10
(cnumpy
dtype
p11
(S'f8'
p12
I0
I1
tp13
Rp14
(I3
S'<'
p15
NNNI-1
I-1
I0
tp16
bS'\xc3\x96=\xbf\xd6/W@'
p17
tp18
Rp19
ag10
(g14
S'o\x8eWDp0W@'
p20
tp21
Rp22
ag10
(g14
S'\x97\xa1\xc1\x84i2W@'
p23
tp24
Rp25
ag10
(g14
S' \xc9O\xc8\xa6+W@'
p26
tp27
Rp28
ag10
(g14
S'\xee\x83\xe5\x1a\x0f6W@'
p29
tp30
Rp31
ag10
(g14
S'\xdcSe\xcc\xc90W@'
p32
tp33
Rp34
ag10
(g14
S'\xb13\xdb\x18\x081W@'
p35
tp36
Rp37
ag10
(g14
S'D\xd4\xcf\xee\x0c0W@'
p38
tp39
Rp40
ag10
(g14
S'q\xf5U4\x1c-W@'
p41
tp42
Rp43
ag10
(g14
S'\x12\xd2\xb3uz(W@'
p44
tp45
Rp46
ag10
(g14
S'u\x88dY\x150W@'
p47
tp48
Rp49
ag10
(g14
S'\x02\xe4\xe8\x1d\xa62W@'
p50
tp51
Rp52
ag10
(g14
S'1I\x83\xa8\xd00W@'
p53
tp54
Rp55
ag10
(g14
S'\x00z\x1b\xa8Y0W@'
p56
tp57
Rp58
ag10
(g14
S'\xd6\x80w\x03B/W@'
p59
tp60
Rp61
ag10
(g14
S'\xe2m_B6&W@'
p62
tp63
Rp64
ag10
(g14
S'\xf6\xcd^\x8a\xb3/W@'
p65
tp66
Rp67
ag10
(g14
S'\x80~M\xb8\xbe+W@'
p68
tp69
Rp70
ag10
(g14
S"'?B\xc0\x9d-W@"
p71
tp72
Rp73
ag10
(g14
S'\x8a\xe0*\xba3+W@'
p74
tp75
Rp76
asS'target'
p77
(lp78
g10
(g14
S'\x8f:\x11\xd79\xc5Q@'
p79
tp80
Rp81
ag10
(g14
S'\xcb\xad\xf1\x7f\xae\xecU@'
p82
tp83
Rp84
ag10
(g14
S'0S\x92l\x89&S@'
p85
tp86
Rp87
ag10
(g14
S'4\x80*F\xe3\xecV@'
p88
tp89
Rp90
ag10
(g14
S'\x83#\xdb{\x9e\x95Q@'
p91
tp92
Rp93
ag10
(g14
S'\xe4S\xc8!\x02xL@'
p94
tp95
Rp96
ag10
(g14
S'\xdbj\xbfyd\xebI@'
p97
tp98
Rp99
ag10
(g14
S'\xba\x17\xfb\xd3\xfcQT@'
p100
tp101
Rp102
ag10
(g14
S'\x8b\x8e\xef[r\xf2W@'
p103
tp104
Rp105
ag10
(g14
S'Y\xe9Yh\xe5*Q@'
p106
tp107
Rp108
ag10
(g14
S'\x1f\xf0h\xe0C]R@'
p109
tp110
Rp111
ag10
(g14
S'\xc1\x12\x92\n\x898Q@'
p112
tp113
Rp114
ag10
(g14
S'%\x06\xa6\xfe\x95\x13W@'
p115
tp116
Rp117
ag10
(g14
S'm\xc1f~T`H@'
p118
tp119
Rp120
ag10
(g14
S'\xccFm\xbb\x7f\x04V@'
p121
tp122
Rp123
ag10
(g14
S'N]|D\t\x12V@'
p124
tp125
Rp126
ag10
(g14
S'\xe8)\xff[?\xcbU@'
p127
tp128
Rp129
ag10
(g14
S'\x93\x91\x9a{8iQ@'
p130
tp131
Rp132
ag10
(g14
S'k,\xf5E\xf5\xb4M@'
p133
tp134
Rp135
ag10
(g14
S'\xad-\xf8\xa2\x12\x14W@'
p136
tp137
Rp138
asssss.