(dp0
S'../Data/sqlite_62.csv'
p1
(dp2
S'../Data/sqlite_95.csv'
p3
(dp4
F0.2
(dp5
S'mmre'
p6
(dp7
S'bellwether'
p8
(lp9
cnumpy.core.multiarray
scalar
p10
(cnumpy
dtype
p11
(S'f8'
p12
I0
I1
tp13
Rp14
(I3
S'<'
p15
NNNI-1
I-1
I0
tp16
bS'\x1a\xd8\xdcFucX@'
p17
tp18
Rp19
ag10
(g14
S'\x8f\xe7\xde\x1d\xa9`X@'
p20
tp21
Rp22
ag10
(g14
S'\x1c\xcfW\xf2t^X@'
p23
tp24
Rp25
ag10
(g14
S'.\xe4]Vs`X@'
p26
tp27
Rp28
ag10
(g14
S'\x90\xd2\xd7\x7f\xec_X@'
p29
tp30
Rp31
ag10
(g14
S'\xb6~\x08@}^X@'
p32
tp33
Rp34
ag10
(g14
S'\x1af\xf3\xfe\xd4aX@'
p35
tp36
Rp37
ag10
(g14
S':\x08\xf7\xeeT`X@'
p38
tp39
Rp40
ag10
(g14
S'\x84\x14\x13w\xf7`X@'
p41
tp42
Rp43
ag10
(g14
S'\xc8n\x9f\xed\x82_X@'
p44
tp45
Rp46
ag10
(g14
S'\r\xb6\xd0\xc2%aX@'
p47
tp48
Rp49
ag10
(g14
S'\xda!\x07A;aX@'
p50
tp51
Rp52
ag10
(g14
S'B\x9b+\xa6\x9a`X@'
p53
tp54
Rp55
ag10
(g14
S'\x96\x96Kv\x8daX@'
p56
tp57
Rp58
ag10
(g14
S'F\xa1$3@aX@'
p59
tp60
Rp61
ag10
(g14
S'\xe6\xe4d\xbb\xfd^X@'
p62
tp63
Rp64
ag10
(g14
S'p\x12\x06\xa3\x1aaX@'
p65
tp66
Rp67
ag10
(g14
S'\x10K\xe5\xdd\xad_X@'
p68
tp69
Rp70
ag10
(g14
S'\x95\xdbt[S`X@'
p71
tp72
Rp73
ag10
(g14
S'cn\x8f\xf5\x8e^X@'
p74
tp75
Rp76
asS'target'
p77
(lp78
g10
(g14
S'\xa0?Q\xa9N\xa4@@'
p79
tp80
Rp81
ag10
(g14
S'R\xddj\xb6>rA@'
p82
tp83
Rp84
ag10
(g14
S'\t}\xccx:\x7fA@'
p85
tp86
Rp87
ag10
(g14
S'RB\xc2V\x05\xb6>@'
p88
tp89
Rp90
ag10
(g14
S'\x8ao\xc2\x0b\x9c\xc2B@'
p91
tp92
Rp93
ag10
(g14
S'\xe4Nd\xc0\x86\xc4A@'
p94
tp95
Rp96
ag10
(g14
S'\xfa`8p\xef\x13?@'
p97
tp98
Rp99
ag10
(g14
S'\xf7W\x1c\x89\x90#@@'
p100
tp101
Rp102
ag10
(g14
S'6\x07)2t\x90A@'
p103
tp104
Rp105
ag10
(g14
S']yO\xef`d@@'
p106
tp107
Rp108
ag10
(g14
S'\x90\x02\x06\x84P\x81B@'
p109
tp110
Rp111
ag10
(g14
S'\x10\x98\xe7\x03z\x0bA@'
p112
tp113
Rp114
ag10
(g14
S'h\x01\x8c-\x03h@@'
p115
tp116
Rp117
ag10
(g14
S'\xb9\xdbq\x96.;D@'
p118
tp119
Rp120
ag10
(g14
S'\xd2ld\x93\x91\x0f<@'
p121
tp122
Rp123
ag10
(g14
S'\xa0Z\xfbi\xceNB@'
p124
tp125
Rp126
ag10
(g14
S'\xd9\xb9f\x82\xdb\x83@@'
p127
tp128
Rp129
ag10
(g14
S'\x16"]\xdfH\xda@@'
p130
tp131
Rp132
ag10
(g14
S'\x80JZ3\xbd\x96C@'
p133
tp134
Rp135
ag10
(g14
S'\xaf\xd3\xae\x16\xe4"@@'
p136
tp137
Rp138
asssss.