(dp0
S'../Data/sqlite_91.csv'
p1
(dp2
S'../Data/sqlite_37.csv'
p3
(dp4
F0.2
(dp5
S'abs_res'
p6
(dp7
S'bellwether'
p8
(lp9
cnumpy.core.multiarray
scalar
p10
(cnumpy
dtype
p11
(S'f8'
p12
I0
I1
tp13
Rp14
(I3
S'<'
p15
NNNI-1
I-1
I0
tp16
bS'$\xdb\xf9\xfe\x07^$A'
p17
tp18
Rp19
ag10
(g14
S'Rq\xf6\xa1x.$A'
p20
tp21
Rp22
ag10
(g14
S'\xa4E\xb6s\xa6W$A'
p23
tp24
Rp25
ag10
(g14
S'\x19\x83\xc0\xca\xe79$A'
p26
tp27
Rp28
ag10
(g14
S'\x07-\xb2]aK$A'
p29
tp30
Rp31
ag10
(g14
S'\x8bPFo\x11D$A'
p32
tp33
Rp34
ag10
(g14
S'l\x842\xfa\x98P$A'
p35
tp36
Rp37
ag10
(g14
S'\x95n\x12\x83oi$A'
p38
tp39
Rp40
ag10
(g14
S'\x08\x1e\xccS\xe95$A'
p41
tp42
Rp43
ag10
(g14
S'\x12t\xda\x00\x90b$A'
p44
tp45
Rp46
ag10
(g14
S'\xf5\xb6\xacU\x81c$A'
p47
tp48
Rp49
ag10
(g14
S'\x15\xf5oDmU$A'
p50
tp51
Rp52
ag10
(g14
S')@\xee5\x82H$A'
p53
tp54
Rp55
ag10
(g14
S'X\xc9/\xd6;I$A'
p56
tp57
Rp58
ag10
(g14
S'\xb0+@\xae\\Q$A'
p59
tp60
Rp61
ag10
(g14
S'\xb3\xd7\\H\xe1]$A'
p62
tp63
Rp64
ag10
(g14
S'\xb3V\xc7\x04E?$A'
p65
tp66
Rp67
ag10
(g14
S'\n\xaeG\xa10Q$A'
p68
tp69
Rp70
ag10
(g14
S'g\xf6\xe1\xb3\x07Z$A'
p71
tp72
Rp73
ag10
(g14
S'\xd91\xc1\x83\x92Q$A'
p74
tp75
Rp76
asS'target'
p77
(lp78
g10
(g14
S'\xbf\xf5(\\\x8f\x82O@'
p79
tp80
Rp81
ag10
(g14
S'-\xb2\x9d\xef\xa7.P@'
p82
tp83
Rp84
ag10
(g14
S'\x8f\xed|?5\x8eO@'
p85
tp86
Rp87
ag10
(g14
S'\x1a\x04V\x0e-rO@'
p88
tp89
Rp90
ag10
(g14
S'\x06\xd7\xa3p=\xdaN@'
p91
tp92
Rp93
ag10
(g14
S'C\x8bl\xe7\xfb\x01P@'
p94
tp95
Rp96
ag10
(g14
S'\xd2"\xdb\xf9~\x12P@'
p97
tp98
Rp99
ag10
(g14
S'1\x87\x16\xd9\xce\x17L@'
p100
tp101
Rp102
ag10
(g14
S'$\x08\xac\x1cZ\xecN@'
p103
tp104
Rp105
ag10
(g14
S'\x95\xc4 \xb0r\x80O@'
p106
tp107
Rp108
ag10
(g14
S'\xf6\xa7\xc6K7\xb1N@'
p109
tp110
Rp111
ag10
(g14
S'C\x8bl\xe7\xfbAP@'
p112
tp113
Rp114
ag10
(g14
S'7\x08\xac\x1cZ\xc4O@'
p115
tp116
Rp117
ag10
(g14
S'J5^\xbaIlO@'
p118
tp119
Rp120
ag10
(g14
S'\xcc\xf7S\xe3\xa5\xb3O@'
p121
tp122
Rp123
ag10
(g14
S'\xbb\xc8v\xbe\x9f:O@'
p124
tp125
Rp126
ag10
(g14
S'\xa1\xc2\xf5(\\\x8fO@'
p127
tp128
Rp129
ag10
(g14
S'\xd9Mb\x10X\xb1P@'
p130
tp131
Rp132
ag10
(g14
S'\xf4\xd2Mb\x10hO@'
p133
tp134
Rp135
ag10
(g14
S'}h\x91\xed|/M@'
p136
tp137
Rp138
asssss.