(dp0
S'../Data/sqlite_18.csv'
p1
(dp2
S'../Data/sqlite_35.csv'
p3
(dp4
F0.15
(dp5
S'abs_res'
p6
(dp7
S'bellwether'
p8
(lp9
cnumpy.core.multiarray
scalar
p10
(cnumpy
dtype
p11
(S'f8'
p12
I0
I1
tp13
Rp14
(I3
S'<'
p15
NNNI-1
I-1
I0
tp16
bS'\xe5\xdd\xdd\x9d\xc5j@A'
p17
tp18
Rp19
ag10
(g14
S'j\xe7\xfb\x19\xa9k@A'
p20
tp21
Rp22
ag10
(g14
S'\x19v\x05\xe8\xf7i@A'
p23
tp24
Rp25
ag10
(g14
S'\x11-\xb2\x1d\xf4j@A'
p26
tp27
Rp28
ag10
(g14
S'\xc3\x04\x0f\x06\\k@A'
p29
tp30
Rp31
ag10
(g14
S'Eo\xcb\x9a"k@A'
p32
tp33
Rp34
ag10
(g14
S'(\x06\x81\x05\xedj@A'
p35
tp36
Rp37
ag10
(g14
S'\xcc\xf7SCMk@A'
p38
tp39
Rp40
ag10
(g14
S'\xacrh1Ej@A'
p41
tp42
Rp43
ag10
(g14
S'H\x0c\x02\xdb\xbfi@A'
p44
tp45
Rp46
ag10
(g14
S'\xd7\x06:\r\xbaj@A'
p47
tp48
Rp49
ag10
(g14
S'\xd8\xf9~\x9a\xe9j@A'
p50
tp51
Rp52
ag10
(g14
S'FDD\xc4\xf3j@A'
p53
tp54
Rp55
ag10
(g14
S'0\xdd$f\xecj@A'
p56
tp57
Rp58
ag10
(g14
S'uh\x91\x1d\nk@A'
p59
tp60
Rp61
ag10
(g14
S'\xc7\x83y\x02\xb1j@A'
p62
tp63
Rp64
ag10
(g14
S'\xf2`\x9e\x88\xc5j@A'
p65
tp66
Rp67
ag10
(g14
S'\x07V\x0e\x8dQk@A'
p68
tp69
Rp70
ag10
(g14
S'\x9faW`&k@A'
p71
tp72
Rp73
ag10
(g14
S'\xe1\xb2V\xf7pk@A'
p74
tp75
Rp76
asS'target'
p77
(lp78
g10
(g14
S'\xaf\xf1\xd2MbHc@'
p79
tp80
Rp81
ag10
(g14
S'\x16\xdb\xf9~j\xc8`@'
p82
tp83
Rp84
ag10
(g14
S'\xe4z\x14\xaeGia@'
p85
tp86
Rp87
ag10
(g14
S'33333\xa3a@'
p88
tp89
Rp90
ag10
(g14
S'\x1b\xb0rh\x91\xeb`@'
p91
tp92
Rp93
ag10
(g14
S'\xecQ\xb8\x1e\x85\x1ba@'
p94
tp95
Rp96
ag10
(g14
S'Z\x8f\xc2\xf5(\xbea@'
p97
tp98
Rp99
ag10
(g14
S'\xcc"\xdb\xf9~&b@'
p100
tp101
Rp102
ag10
(g14
S'A\xdfO\x8d\x97\xf2b@'
p103
tp104
Rp105
ag10
(g14
S'L\x8bl\xe7\xfbQa@'
p106
tp107
Rp108
ag10
(g14
S'=\xb4\xc8v\xbe-a@'
p109
tp110
Rp111
ag10
(g14
S'\xc7 \xb0rh\xe9a@'
p112
tp113
Rp114
ag10
(g14
S'\xbat\x93\x18\x04\x06c@'
p115
tp116
Rp117
ag10
(g14
S'\x91l\xe7\xfb\xa9Qa@'
p118
tp119
Rp120
ag10
(g14
S'\xd3\xcc\xcc\xcc\xcc\xd0a@'
p121
tp122
Rp123
ag10
(g14
S'\x0cV\x0e-\xb2\x85`@'
p124
tp125
Rp126
ag10
(g14
S'\xf0\xa7\xc6K7yb@'
p127
tp128
Rp129
ag10
(g14
S'\x91n\x12\x83\xc0\xde`@'
p130
tp131
Rp132
ag10
(g14
S'\xb0G\xe1z\x14~b@'
p133
tp134
Rp135
ag10
(g14
S'63333\x97a@'
p136
tp137
Rp138
asssss.