(dp0
S'../Data/sqlite_86.csv'
p1
(dp2
S'../Data/sqlite_63.csv'
p3
(dp4
F0.35
(dp5
S'mmre'
p6
(dp7
S'bellwether'
p8
(lp9
cnumpy.core.multiarray
scalar
p10
(cnumpy
dtype
p11
(S'f8'
p12
I0
I1
tp13
Rp14
(I3
S'<'
p15
NNNI-1
I-1
I0
tp16
bS'\x9aA\xe3\xd9wdT@'
p17
tp18
Rp19
ag10
(g14
S'\x8f\xc2d\x01\x97[T@'
p20
tp21
Rp22
ag10
(g14
S'C\x11\x97\xbfNaT@'
p23
tp24
Rp25
ag10
(g14
S'QjqB\xecdT@'
p26
tp27
Rp28
ag10
(g14
S'G\x06a\xbe\x12lT@'
p29
tp30
Rp31
ag10
(g14
S'y\xb7\x85+&QT@'
p32
tp33
Rp34
ag10
(g14
S'\xee\xf0\x88\xc8-MT@'
p35
tp36
Rp37
ag10
(g14
S'/\xa1R\xb9\x7fkT@'
p38
tp39
Rp40
ag10
(g14
S"{\x8bB\xce'eT@"
p41
tp42
Rp43
ag10
(g14
S'E\x8b\xfb\xee_:T@'
p44
tp45
Rp46
ag10
(g14
S'\xbe\x84w\x9dAxT@'
p47
tp48
Rp49
ag10
(g14
S'Q\x05\xfa:eMT@'
p50
tp51
Rp52
ag10
(g14
S'\xdc\xe7\x84\xd3{ZT@'
p53
tp54
Rp55
ag10
(g14
S'\xd1\x9d\x9f&*^T@'
p56
tp57
Rp58
ag10
(g14
S't\xde\xf4\xebh~T@'
p59
tp60
Rp61
ag10
(g14
S'\x8e\x88\x94\x18\xdcbT@'
p62
tp63
Rp64
ag10
(g14
S'\x02\x1129TXT@'
p65
tp66
Rp67
ag10
(g14
S'\xeb\xf6VRQWT@'
p68
tp69
Rp70
ag10
(g14
S'v\x00?\xc6WlT@'
p71
tp72
Rp73
ag10
(g14
S'\x16\xac\xa4\xdf1{T@'
p74
tp75
Rp76
asS'target'
p77
(lp78
g10
(g14
S'\xcd\xa5g\xab<9#@'
p79
tp80
Rp81
ag10
(g14
S'\xe6\x83\xbc\x0bAa#@'
p82
tp83
Rp84
ag10
(g14
S'DUzNC\\"@'
p85
tp86
Rp87
ag10
(g14
S'RB0\xa3\x00\xb4"@'
p88
tp89
Rp90
ag10
(g14
S'n\xab%/\xe4\x9b"@'
p91
tp92
Rp93
ag10
(g14
S'R\xb6l\xdd\x07X"@'
p94
tp95
Rp96
ag10
(g14
S'\xfe\xc0\x00[\xc5\x97#@'
p97
tp98
Rp99
ag10
(g14
S'\x07\xb2\x07a\x8e\xe6"@'
p100
tp101
Rp102
ag10
(g14
S'\xf5\xe1\x8f\xca&\x11"@'
p103
tp104
Rp105
ag10
(g14
S'\x0bn\xcf\x8fG\xc7!@'
p106
tp107
Rp108
ag10
(g14
S'0\xbc\xa1\x15$\xad"@'
p109
tp110
Rp111
ag10
(g14
S'I]r\x94\xd7\r"@'
p112
tp113
Rp114
ag10
(g14
S'\x99\x99\xab\xd31\x91$@'
p115
tp116
Rp117
ag10
(g14
S'\x8fI\x9d\x0b\xfe\x13#@'
p118
tp119
Rp120
ag10
(g14
S'\x9bl\xa3\x12|b#@'
p121
tp122
Rp123
ag10
(g14
S'\x84\xed\x81P\x7f\x05#@'
p124
tp125
Rp126
ag10
(g14
S':0\x8d-\x00\x0c"@'
p127
tp128
Rp129
ag10
(g14
S'5\xe1/\x91\xcc\xc7!@'
p130
tp131
Rp132
ag10
(g14
S'\x87\xbe^\xbf\x97T"@'
p133
tp134
Rp135
ag10
(g14
S'\x16(9\x8d\x8a\x8d"@'
p136
tp137
Rp138
asssss.