(dp0
S'../Data/sqlite_57.csv'
p1
(dp2
S'../Data/sqlite_31.csv'
p3
(dp4
F0.4
(dp5
S'abs_res'
p6
(dp7
S'bellwether'
p8
(lp9
cnumpy.core.multiarray
scalar
p10
(cnumpy
dtype
p11
(S'f8'
p12
I0
I1
tp13
Rp14
(I3
S'<'
p15
NNNI-1
I-1
I0
tp16
bS'\\d;G\x93qaA'
p17
tp18
Rp19
ag10
(g14
S'\x97\x18\x04\xf6\x1czaA'
p20
tp21
Rp22
ag10
(g14
S'\xd4Mb\xec\xe7vaA'
p23
tp24
Rp25
ag10
(g14
S'\n\x02+g\x04naA'
p26
tp27
Rp28
ag10
(g14
S'\xbdI\x0c\x82\x18\x80aA'
p29
tp30
Rp31
ag10
(g14
S'<\xdfO\xa9\x05raA'
p32
tp33
Rp34
ag10
(g14
S'+\\\x8fv\xb5waA'
p35
tp36
Rp37
ag10
(g14
S'c;\xdf31{aA'
p38
tp39
Rp40
ag10
(g14
S'\x00V\x0e\xd5\xadyaA'
p41
tp42
Rp43
ag10
(g14
S' Zd/\xa3paA'
p44
tp45
Rp46
ag10
(g14
S'<\xdfO=U|aA'
p47
tp48
Rp49
ag10
(g14
S'!\xb0rD\x9ceaA'
p50
tp51
Rp52
ag10
(g14
S'\x13\xaeG\x99\x9dwaA'
p53
tp54
Rp55
ag10
(g14
S'+\x87\x16%<maA'
p56
tp57
Rp58
ag10
(g14
S'\x05V\x0ee/oaA'
p59
tp60
Rp61
ag10
(g14
S'\x99n\x12\x87bnaA'
p62
tp63
Rp64
ag10
(g14
S'\xb4\x1e\x85/\x19{aA'
p65
tp66
Rp67
ag10
(g14
S'\xecQ\xb8\xaa\xdazaA'
p68
tp69
Rp70
ag10
(g14
S'\x08\x81\x95GMyaA'
p71
tp72
Rp73
ag10
(g14
S'\xf2\xa7\xc6k\x9cwaA'
p74
tp75
Rp76
asS'target'
p77
(lp78
g10
(g14
S'\xb0\x1cZd;u`@'
p79
tp80
Rp81
ag10
(g14
S'1^\xbaI\x0c^^@'
p82
tp83
Rp84
ag10
(g14
S'\xf3~j\xbct\xe7^@'
p85
tp86
Rp87
ag10
(g14
S'\xe8&1\x08\xac\x18_@'
p88
tp89
Rp90
ag10
(g14
S'\xa2\xc6K7\x89\xe5]@'
p91
tp92
Rp93
ag10
(g14
S'\x15\x83\xc0\xca\xa1\xc1^@'
p94
tp95
Rp96
ag10
(g14
S'\xda$\x06\x81\x95\xab^@'
p97
tp98
Rp99
ag10
(g14
S'\x90n\x12\x83\xc0\xa2]@'
p100
tp101
Rp102
ag10
(g14
S'\xde\xce\xf7S\xe3\x99_@'
p103
tp104
Rp105
ag10
(g14
S'\x02+\x87\x16\xd9J^@'
p106
tp107
Rp108
ag10
(g14
S'\x8d\xed|?5\x8e^@'
p109
tp110
Rp111
ag10
(g14
S'C\n\xd7\xa3p5]@'
p112
tp113
Rp114
ag10
(g14
S'*\x87\x16\xd9\xce\xbb]@'
p115
tp116
Rp117
ag10
(g14
S'}j\xbct\x93D]@'
p118
tp119
Rp120
ag10
(g14
S'b\x10X9\xb4\x10]@'
p121
tp122
Rp123
ag10
(g14
S'\xd6\xf7S\xe3\xa5g^@'
p124
tp125
Rp126
ag10
(g14
S'\xfb*\x87\x16\xd96\\@'
p127
tp128
Rp129
ag10
(g14
S'\x05\xac\x1cZdG_@'
p130
tp131
Rp132
ag10
(g14
S'0$M\xa98\xd3]@'
p133
tp134
Rp135
ag10
(g14
S'!\\\x8f\xc2\xf5\xdc^@'
p136
tp137
Rp138
asssss.