(dp0
S'../Data/sqlite_29.csv'
p1
(dp2
S'../Data/sqlite_47.csv'
p3
(dp4
F0.05
(dp5
S'abs_res'
p6
(dp7
S'bellwether'
p8
(lp9
cnumpy.core.multiarray
scalar
p10
(cnumpy
dtype
p11
(S'f8'
p12
I0
I1
tp13
Rp14
(I3
S'<'
p15
NNNI-1
I-1
I0
tp16
bS'\xfb\xab\x1c\x9aK;EA'
p17
tp18
Rp19
ag10
(g14
S'G(\xa3\xa7\x9e;EA'
p20
tp21
Rp22
ag10
(g14
S'\x1d1\x08\xbcX;EA'
p23
tp24
Rp25
ag10
(g14
S'\xbc\x1e\x85K\xa6:EA'
p26
tp27
Rp28
ag10
(g14
S'\xd5\xa3p\xad);EA'
p29
tp30
Rp31
ag10
(g14
S'o\xbe\x9fZs;EA'
p32
tp33
Rp34
ag10
(g14
S'^ff\xf6o;EA'
p35
tp36
Rp37
ag10
(g14
S'\xe9|?\x85\xee:EA'
p38
tp39
Rp40
ag10
(g14
S'S9\xb4\x98.;EA'
p41
tp42
Rp43
ag10
(g14
S'\xa4p=\xcaR;EA'
p44
tp45
Rp46
ag10
(g14
S'\xa2\xef\xa7&u;EA'
p47
tp48
Rp49
ag10
(g14
S'\xb3\xf3\xfd\xd4M;EA'
p50
tp51
Rp52
ag10
(g14
S'\x99\xef\xa7v:;EA'
p53
tp54
Rp55
ag10
(g14
S'v\x93\x18\xa4\xa9;EA'
p56
tp57
Rp58
ag10
(g14
S'133\x03+;EA'
p59
tp60
Rp61
ag10
(g14
S'\x8al\xe7;Z;EA'
p62
tp63
Rp64
ag10
(g14
S'\x04\x9d60\xb3:EA'
p65
tp66
Rp67
ag10
(g14
S'\xe5B\xd2\x14P;EA'
p68
tp69
Rp70
ag10
(g14
S'\x01\xd5x\xe9\xdb:EA'
p71
tp72
Rp73
ag10
(g14
S'=\xdfO\x9d\xfd:EA'
p74
tp75
Rp76
asS'target'
p77
(lp78
g10
(g14
S'\xe1\xfb\xa9\xf1\xd2\x15e@'
p79
tp80
Rp81
ag10
(g14
S'\xcdv\xbe\x9f\x1aG\\@'
p82
tp83
Rp84
ag10
(g14
S'\x91\xc2\xf5(\\OZ@'
p85
tp86
Rp87
ag10
(g14
S'\xe5|?5^\xe2^@'
p88
tp89
Rp90
ag10
(g14
S'Eb\x10X9d]@'
p91
tp92
Rp93
ag10
(g14
S'ed;\xdfO\xa5\\@'
p94
tp95
Rp96
ag10
(g14
S'\xce\xa3p=\n[d@'
p97
tp98
Rp99
ag10
(g14
S'\xd7\xf9~j\xbcT\\@'
p100
tp101
Rp102
ag10
(g14
S'\xf6\xa9\xf1\xd2M\xe2^@'
p103
tp104
Rp105
ag10
(g14
S'\xd9\xce\xf7S\xe3\xa9a@'
p106
tp107
Rp108
ag10
(g14
S']9\xb4\xc8v\xf2b@'
p109
tp110
Rp111
ag10
(g14
S'\x07\x81\x95C\x8b\xb4c@'
p112
tp113
Rp114
ag10
(g14
S'\xb7G\xe1z\x14\xce^@'
p115
tp116
Rp117
ag10
(g14
S'\xa1\xc4 \xb0r\xe0^@'
p118
tp119
Rp120
ag10
(g14
S'U\x8d\x97n\x12\x13]@'
p121
tp122
Rp123
ag10
(g14
S'\xa6\xef\xa7\xc6KO^@'
p124
tp125
Rp126
ag10
(g14
S'\xf4\xa7\xc6K7\x1db@'
p127
tp128
Rp129
ag10
(g14
S'\x95C\x8bl\xe7oa@'
p130
tp131
Rp132
ag10
(g14
S'E`\xe5\xd0"S]@'
p133
tp134
Rp135
ag10
(g14
S'\xad\xc8v\xbe\x9f\x12c@'
p136
tp137
Rp138
asssss.