(dp0
S'../Data/sqlite_15.csv'
p1
(dp2
S'../Data/sqlite_35.csv'
p3
(dp4
F0.25
(dp5
S'abs_res'
p6
(dp7
S'bellwether'
p8
(lp9
cnumpy.core.multiarray
scalar
p10
(cnumpy
dtype
p11
(S'f8'
p12
I0
I1
tp13
Rp14
(I3
S'<'
p15
NNNI-1
I-1
I0
tp16
bS'g\xad\x8e\xc9\xecx<A'
p17
tp18
Rp19
ag10
(g14
S'\x8d\xde\x96\x95\x99w<A'
p20
tp21
Rp22
ag10
(g14
S"'\xf7\x9a\xcbVz<A"
p23
tp24
Rp25
ag10
(g14
S'\x83]\x01\x12?x<A'
p26
tp27
Rp28
ag10
(g14
S'\x08IS\x8a\xb6y<A'
p29
tp30
Rp31
ag10
(g14
S'\xb0\x1cZ\x04\x88w<A'
p32
tp33
Rp34
ag10
(g14
S'\xfb\x1b\xa1\xec\x0fw<A'
p35
tp36
Rp37
ag10
(g14
S'N\xe1z\x94\x01x<A'
p38
tp39
Rp40
ag10
(g14
S'rh\x91\x8d\xecw<A'
p41
tp42
Rp43
ag10
(g14
S'~#\x94\x11(v<A'
p44
tp45
Rp46
ag10
(g14
S'\x89\x16\xd9\xce\xcev<A'
p47
tp48
Rp49
ag10
(g14
S'65^\xfa}x<A'
p50
tp51
Rp52
ag10
(g14
S'\x1e\x13<x\xd1w<A'
p53
tp54
Rp55
ag10
(g14
S'H\xe1zT\xaaw<A'
p56
tp57
Rp58
ag10
(g14
S'\xc0\xbb\xbb[Xz<A'
p59
tp60
Rp61
ag10
(g14
S'\xc3K7I\xbbw<A'
p62
tp63
Rp64
ag10
(g14
S'DQ\xff\xe6\xebx<A'
p65
tp66
Rp67
ag10
(g14
S'p\x842\xbaLw<A'
p68
tp69
Rp70
ag10
(g14
S'\x93\xc4 \x10\xc7w<A'
p71
tp72
Rp73
ag10
(g14
S'H~\xb1D\xeew<A'
p74
tp75
Rp76
asS'target'
p77
(lp78
g10
(g14
S'\xbfK7\x89A\x90_@'
p79
tp80
Rp81
ag10
(g14
S'\x82?5^\xba\x81^@'
p82
tp83
Rp84
ag10
(g14
S'\xa6\xf1\xd2Mb\xb8^@'
p85
tp86
Rp87
ag10
(g14
S'9\xdfO\x8d\x97.^@'
p88
tp89
Rp90
ag10
(g14
S'\xcb\xf7S\xe3\xa5\xeb]@'
p91
tp92
Rp93
ag10
(g14
S'\xfc~j\xbctc_@'
p94
tp95
Rp96
ag10
(g14
S'Cd;\xdfO\xad]@'
p97
tp98
Rp99
ag10
(g14
S'P\xe3\xa5\x9b\xc4\x98^@'
p100
tp101
Rp102
ag10
(g14
S'\xea\xd2Mb\x10\x90^@'
p103
tp104
Rp105
ag10
(g14
S'\xbfI\x0c\x02+O_@'
p106
tp107
Rp108
ag10
(g14
S' \x83\xc0\xca\xa1U^@'
p109
tp110
Rp111
ag10
(g14
S'\xc2\xcc\xcc\xcc\xccL\\@'
p112
tp113
Rp114
ag10
(g14
S'gffff\xee]@'
p115
tp116
Rp117
ag10
(g14
S'a\x91\xed|?\xf1]@'
p118
tp119
Rp120
ag10
(g14
S'c\xbaI\x0c\x02c^@'
p121
tp122
Rp123
ag10
(g14
S'$\xdb\xf9~j\xb4]@'
p124
tp125
Rp126
ag10
(g14
S'\xc3\xa1E\xb6\xf3}\\@'
p127
tp128
Rp129
ag10
(g14
S'@\x8bl\xe7\xfb\xbd]@'
p130
tp131
Rp132
ag10
(g14
S'\x1aZd;\xdf\xa3[@'
p133
tp134
Rp135
ag10
(g14
S'\x9a\xc4 \xb0r\x18^@'
p136
tp137
Rp138
asssss.