(dp0
S'../Data/sqlite_15.csv'
p1
(dp2
S'../Data/sqlite_64.csv'
p3
(dp4
F0.2
(dp5
S'abs_res'
p6
(dp7
S'bellwether'
p8
(lp9
cnumpy.core.multiarray
scalar
p10
(cnumpy
dtype
p11
(S'f8'
p12
I0
I1
tp13
Rp14
(I3
S'<'
p15
NNNI-1
I-1
I0
tp16
bS',\xdd$&\x1as>A'
p17
tp18
Rp19
ag10
(g14
S'\x1a\xd9\xcew\xfbq>A'
p20
tp21
Rp22
ag10
(g14
S'\xe8Q\xb8~\xb3s>A'
p23
tp24
Rp25
ag10
(g14
S'E5^zGr>A'
p26
tp27
Rp28
ag10
(g14
S'!\x94\xd1;qr>A'
p29
tp30
Rp31
ag10
(g14
S'\x90_,y-q>A'
p32
tp33
Rp34
ag10
(g14
S'8\xd0i\x03js>A'
p35
tp36
Rp37
ag10
(g14
S'\xb5e\xad\xae\x12q>A'
p38
tp39
Rp40
ag10
(g14
S'\xa7p=\xcaXs>A'
p41
tp42
Rp43
ag10
(g14
S'\x1f"""\xe5q>A'
p44
tp45
Rp46
ag10
(g14
S'\xbb\xbb\xbb[\xdap>A'
p47
tp48
Rp49
ag10
(g14
S'\xeeo\x84\xd26s>A'
p50
tp51
Rp52
ag10
(g14
S'M*\xce\xfe\x93r>A'
p53
tp54
Rp55
ag10
(g14
S'\x95_,\xb9Pq>A'
p56
tp57
Rp58
ag10
(g14
S'\x13t\xda\xa0\xfbp>A'
p59
tp60
Rp61
ag10
(g14
S'\xf0o\x84\xd2\x1es>A'
p62
tp63
Rp64
ag10
(g14
S'\xc6\x92_l>t>A'
p65
tp66
Rp67
ag10
(g14
S'^\xe5\xd0b<r>A'
p68
tp69
Rp70
ag10
(g14
S'\xed&1\x08\x13r>A'
p71
tp72
Rp73
ag10
(g14
S'Q\xe3\xa5{\x01r>A'
p74
tp75
Rp76
asS'target'
p77
(lp78
g10
(g14
S'*\x87\x16\xd9\xce!t@'
p79
tp80
Rp81
ag10
(g14
S'\x8e\xed|?5\x1fw@'
p82
tp83
Rp84
ag10
(g14
S'\x02+\x87\x16\xd9xx@'
p85
tp86
Rp87
ag10
(g14
S'Ob\x10X9\x8eu@'
p88
tp89
Rp90
ag10
(g14
S'\xdd\xf9~j\xbc\xd1w@'
p91
tp92
Rp93
ag10
(g14
S'\xff\xd4x\xe9&\xb0t@'
p94
tp95
Rp96
ag10
(g14
S'c\xbaI\x0c\x02\x03v@'
p97
tp98
Rp99
ag10
(g14
S'V\x8d\x97n\x12)u@'
p100
tp101
Rp102
ag10
(g14
S'Y\xe5\xd0"\xdbAx@'
p103
tp104
Rp105
ag10
(g14
S'\x11\xaeG\xe1z\x0cw@'
p106
tp107
Rp108
ag10
(g14
S'\xae\x1cZd;\x95u@'
p109
tp110
Rp111
ag10
(g14
S'\x17\xb0rh\x91\x81w@'
p112
tp113
Rp114
ag10
(g14
S'R\x8d\x97n\x12\xe3z@'
p115
tp116
Rp117
ag10
(g14
S'\x08\x02+\x87\x16\rt@'
p118
tp119
Rp120
ag10
(g14
S'Qb\x10X9<v@'
p121
tp122
Rp123
ag10
(g14
S'3\xb2\x9d\xef\xa7\x7fx@'
p124
tp125
Rp126
ag10
(g14
S'\xefQ\xb8\x1e\x85ox@'
p127
tp128
Rp129
ag10
(g14
S'Y\x8f\xc2\xf5(\x88w@'
p130
tp131
Rp132
ag10
(g14
S'\xd4\xcc\xcc\xcc\xccjv@'
p133
tp134
Rp135
ag10
(g14
S'\x00V\x0e-\xb2\xdct@'
p136
tp137
Rp138
asssss.