(dp0
S'../Data/sqlite_30.csv'
p1
(dp2
S'../Data/sqlite_96.csv'
p3
(dp4
F0.3
(dp5
S'mmre'
p6
(dp7
S'bellwether'
p8
(lp9
cnumpy.core.multiarray
scalar
p10
(cnumpy
dtype
p11
(S'f8'
p12
I0
I1
tp13
Rp14
(I3
S'<'
p15
NNNI-1
I-1
I0
tp16
bS'\xe8\x0fE\x85#.X@'
p17
tp18
Rp19
ag10
(g14
S'\x92\xbeA\x94\x8f/X@'
p20
tp21
Rp22
ag10
(g14
S'\x1e\xd5N(m0X@'
p23
tp24
Rp25
ag10
(g14
S'\x17\x8c\xdd\x80\xa51X@'
p26
tp27
Rp28
ag10
(g14
S'\x15d\x80w\xc2/X@'
p29
tp30
Rp31
ag10
(g14
S'\xe8\x0b\xf9Rb/X@'
p32
tp33
Rp34
ag10
(g14
S'\xd7\xd0\x07\xc5\x9a/X@'
p35
tp36
Rp37
ag10
(g14
S'2\xd0\xad\x8f\x0f0X@'
p38
tp39
Rp40
ag10
(g14
S'\x80}?\x9c\xa93X@'
p41
tp42
Rp43
ag10
(g14
S'\r\xf5\x9f\xdc\x9c/X@'
p44
tp45
Rp46
ag10
(g14
S'Ie\xd4s\xba1X@'
p47
tp48
Rp49
ag10
(g14
S'e\xd0)\xe3\xed1X@'
p50
tp51
Rp52
ag10
(g14
S'W\xf81\x19l.X@'
p53
tp54
Rp55
ag10
(g14
S'$\xef]l\xd20X@'
p56
tp57
Rp58
ag10
(g14
S'\x98\xcbKio0X@'
p59
tp60
Rp61
ag10
(g14
S'\x0e6\xe9\xa2H0X@'
p62
tp63
Rp64
ag10
(g14
S'\x99\xc9y4\x171X@'
p65
tp66
Rp67
ag10
(g14
S'\xc0{[7a1X@'
p68
tp69
Rp70
ag10
(g14
S'\xde\x03\xb4\xde\r2X@'
p71
tp72
Rp73
ag10
(g14
S'}?X\xa7\x041X@'
p74
tp75
Rp76
asS'target'
p77
(lp78
g10
(g14
S'H\x9aJ#\xb5\xb0[@'
p79
tp80
Rp81
ag10
(g14
S'.b\xf3$\xcf4]@'
p82
tp83
Rp84
ag10
(g14
S'<4\xf2\xfeb\x81T@'
p85
tp86
Rp87
ag10
(g14
S'B%Ne?\x9cI@'
p88
tp89
Rp90
ag10
(g14
S'\x9e\x8c\x1aW\x04,P@'
p91
tp92
Rp93
ag10
(g14
S'\x9bk=\xa9\xa3\xa7M@'
p94
tp95
Rp96
ag10
(g14
S'~x~a\x06]Y@'
p97
tp98
Rp99
ag10
(g14
S'\x169\x06t\x14\xcaY@'
p100
tp101
Rp102
ag10
(g14
S'\x97\x8c\xc5\xa6K\xd0T@'
p103
tp104
Rp105
ag10
(g14
S's\xb3#\xf3\xca\xdaU@'
p106
tp107
Rp108
ag10
(g14
S'npg\xed0\xbaW@'
p109
tp110
Rp111
ag10
(g14
S'\xd4\xddn\x8c\xc8iQ@'
p112
tp113
Rp114
ag10
(g14
S'\x1e%#\x93\xe4\xd1R@'
p115
tp116
Rp117
ag10
(g14
S'\x14\x0b,\xf5%\xe5P@'
p118
tp119
Rp120
ag10
(g14
S'g\xda\x14\x14\x7f\xa5O@'
p121
tp122
Rp123
ag10
(g14
S'\xfbG)\x00b\xbcP@'
p124
tp125
Rp126
ag10
(g14
S'\xd8O\xa2\x1f\xee)R@'
p127
tp128
Rp129
ag10
(g14
S'yE\x07\xcf\xac\xf6Q@'
p130
tp131
Rp132
ag10
(g14
S'\xca\x9d\xbf\xd67\xfbT@'
p133
tp134
Rp135
ag10
(g14
S'\xbc\x8fH\x98\xd4?V@'
p136
tp137
Rp138
asssss.