(dp0
S'../Data/sqlite_4.csv'
p1
(dp2
S'../Data/sqlite_65.csv'
p3
(dp4
F0.4
(dp5
S'abs_res'
p6
(dp7
S'bellwether'
p8
(lp9
cnumpy.core.multiarray
scalar
p10
(cnumpy
dtype
p11
(S'f8'
p12
I0
I1
tp13
Rp14
(I3
S'<'
p15
NNNI-1
I-1
I0
tp16
bS'\xac8\xfbp!o7A'
p17
tp18
Rp19
ag10
(g14
S'4&x\x10\xb0o7A'
p20
tp21
Rp22
ag10
(g14
S'\xec\xc3g\xb8]n7A'
p23
tp24
Rp25
ag10
(g14
S'#g\x1f~\x94p7A'
p26
tp27
Rp28
ag10
(g14
S'F`\xe5PMp7A'
p29
tp30
Rp31
ag10
(g14
S'\x81\x14\xaeg,p7A'
p32
tp33
Rp34
ag10
(g14
S'b\xbaI,zp7A'
p35
tp36
Rp37
ag10
(g14
S'\xd9\xbf\x11\x8a\xdao7A'
p38
tp39
Rp40
ag10
(g14
S'\x0br\xaf\xd93r7A'
p41
tp42
Rp43
ag10
(g14
S'k\xd8\x15\x80|q7A'
p44
tp45
Rp46
ag10
(g14
S'\xddk.\x84#q7A'
p47
tp48
Rp49
ag10
(g14
S'G|\x86=\x94p7A'
p50
tp51
Rp52
ag10
(g14
S'\x12g\x1f^\np7A'
p53
tp54
Rp55
ag10
(g14
S'2&xpbq7A'
p56
tp57
Rp58
ag10
(g14
S'\xa3p=J\x8bp7A'
p59
tp60
Rp61
ag10
(g14
S'o\x842\xfa.p7A'
p62
tp63
Rp64
ag10
(g14
S'\xf7`\x9eH\x9fo7A'
p65
tp66
Rp67
ag10
(g14
S'\x9d\x0bI3\np7A'
p68
tp69
Rp70
ag10
(g14
S'D|\x86\xdd\x8fr7A'
p71
tp72
Rp73
ag10
(g14
S'\xae\xd51\xe1\xa0p7A'
p74
tp75
Rp76
asS'target'
p77
(lp78
g10
(g14
S'b\x10X9\xb48T@'
p79
tp80
Rp81
ag10
(g14
S'\xac\x1cZd;\x93V@'
p82
tp83
Rp84
ag10
(g14
S'e;\xdfO\x8d\xf3S@'
p85
tp86
Rp87
ag10
(g14
S'\n\x02+\x87\x16\xb9S@'
p88
tp89
Rp90
ag10
(g14
S'q=\n\xd7\xa3\x14U@'
p91
tp92
Rp93
ag10
(g14
S'\x80\x14\xaeG\xe1NS@'
p94
tp95
Rp96
ag10
(g14
S'6\x89A`\xe5TS@'
p97
tp98
Rp99
ag10
(g14
S'\x1b/\xdd$\x06\x01R@'
p100
tp101
Rp102
ag10
(g14
S'\x84\xebQ\xb8\x1e\xf1R@'
p103
tp104
Rp105
ag10
(g14
S'S\xb8\x1e\x85\xeb\x91W@'
p106
tp107
Rp108
ag10
(g14
S'I\xb6\xf3\xfd\xd4\x1cT@'
p109
tp110
Rp111
ag10
(g14
S'@5^\xbaItR@'
p112
tp113
Rp114
ag10
(g14
S'\x01\xd5x\xe9&\xbdR@'
p115
tp116
Rp117
ag10
(g14
S'fffff\xaeS@'
p118
tp119
Rp120
ag10
(g14
S'\x9dn\x12\x83\xc0\x02U@'
p121
tp122
Rp123
ag10
(g14
S'\x87\x16\xd9\xce\xf7kS@'
p124
tp125
Rp126
ag10
(g14
S'\x00V\x0e-\xb2\x11T@'
p127
tp128
Rp129
ag10
(g14
S'\xcbv\xbe\x9f\x1a\x7fR@'
p130
tp131
Rp132
ag10
(g14
S'\xf1S\xe3\xa5\x9btR@'
p133
tp134
Rp135
ag10
(g14
S'93333\xfbV@'
p136
tp137
Rp138
asssss.