(dp0
S'../Data/sqlite_79.csv'
p1
(dp2
S'../Data/sqlite_63.csv'
p3
(dp4
F0.1
(dp5
S'mmre'
p6
(dp7
S'bellwether'
p8
(lp9
cnumpy.core.multiarray
scalar
p10
(cnumpy
dtype
p11
(S'f8'
p12
I0
I1
tp13
Rp14
(I3
S'<'
p15
NNNI-1
I-1
I0
tp16
bS'-\x992\x96WyV@'
p17
tp18
Rp19
ag10
(g14
S'\xeb\xccp\x01\xf3xV@'
p20
tp21
Rp22
ag10
(g14
S'\xce\xd2\xe3\xa9yyV@'
p23
tp24
Rp25
ag10
(g14
S'\xf2F(fMzV@'
p26
tp27
Rp28
ag10
(g14
S'=\xed\x11\xc8I|V@'
p29
tp30
Rp31
ag10
(g14
S'\xd0{\xb7>\xf4yV@'
p32
tp33
Rp34
ag10
(g14
S'\x05\x19\x1fw\xd3yV@'
p35
tp36
Rp37
ag10
(g14
S'\x8c\xe7#\xf4\xa0yV@'
p38
tp39
Rp40
ag10
(g14
S'\x0eF\xb0g3xV@'
p41
tp42
Rp43
ag10
(g14
S'\xcbF;\x02}yV@'
p44
tp45
Rp46
ag10
(g14
S'@o\x11\x8d\xefyV@'
p47
tp48
Rp49
ag10
(g14
S't\x9faf7yV@'
p50
tp51
Rp52
ag10
(g14
S'$\xb1S\xd9\xbfyV@'
p53
tp54
Rp55
ag10
(g14
S'\xfd:\xc7\xe9ByV@'
p56
tp57
Rp58
ag10
(g14
S'\x89\x9f2\x19\xf9yV@'
p59
tp60
Rp61
ag10
(g14
S'7\xa9\x03m\xa5{V@'
p62
tp63
Rp64
ag10
(g14
S'\x027\x94\x1a{zV@'
p65
tp66
Rp67
ag10
(g14
S'\x9e\xc5\xdbhr|V@'
p68
tp69
Rp70
ag10
(g14
S'bz\xe0Ph{V@'
p71
tp72
Rp73
ag10
(g14
S'\xb4\xa3E\xf0\xf2xV@'
p74
tp75
Rp76
asS'target'
p77
(lp78
g10
(g14
S'+:p)4B"@'
p79
tp80
Rp81
ag10
(g14
S'g\x9cQ\xeb\xa2\xb6!@'
p82
tp83
Rp84
ag10
(g14
S'\x9c\xcc+\xa81)$@'
p85
tp86
Rp87
ag10
(g14
S'\xfe\xac\xc4\xcdb\x8e!@'
p88
tp89
Rp90
ag10
(g14
S'\x10\xce<X\x86a"@'
p91
tp92
Rp93
ag10
(g14
S'\xc2?\xc9\xcb\x18\x92"@'
p94
tp95
Rp96
ag10
(g14
S'<\x18\xa1\x10\x06\xdb!@'
p97
tp98
Rp99
ag10
(g14
S'\x97\xfe\x05\xe0\xd1\xf9#@'
p100
tp101
Rp102
ag10
(g14
S'[l\x8d\xfd\xcb\x81!@'
p103
tp104
Rp105
ag10
(g14
S'\xf2<\x04:\xb8\x0e$@'
p106
tp107
Rp108
ag10
(g14
S'\x14\x8e\xdd\x08xR"@'
p109
tp110
Rp111
ag10
(g14
S'\xae\x87Zt\xdd\x0c%@'
p112
tp113
Rp114
ag10
(g14
S'E\xca-\xd9rM#@'
p115
tp116
Rp117
ag10
(g14
S'R\xb8\x08\x8c\x14\x89#@'
p118
tp119
Rp120
ag10
(g14
S'\x07: I\x94\xbd @'
p121
tp122
Rp123
ag10
(g14
S'\xef\xd7<w\x1fX!@'
p124
tp125
Rp126
ag10
(g14
S'L\xa0r\xaf\xb6\xe9!@'
p127
tp128
Rp129
ag10
(g14
S'|\x13\xd6\x94\xe3\xd0!@'
p130
tp131
Rp132
ag10
(g14
S'\xca\x87\xfag\xc7+$@'
p133
tp134
Rp135
ag10
(g14
S'\xa6\xb3wgt\\$@'
p136
tp137
Rp138
asssss.