(dp0
S'../Data/sqlite_47.csv'
p1
(dp2
S'../Data/sqlite_84.csv'
p3
(dp4
F0.4
(dp5
S'mmre'
p6
(dp7
S'bellwether'
p8
(lp9
cnumpy.core.multiarray
scalar
p10
(cnumpy
dtype
p11
(S'f8'
p12
I0
I1
tp13
Rp14
(I3
S'<'
p15
NNNI-1
I-1
I0
tp16
bS'\xf9Oz%\xd5\xc07@'
p17
tp18
Rp19
ag10
(g14
S'K\x02y\xd9\xb5\xbe7@'
p20
tp21
Rp22
ag10
(g14
S'xm\xb7\x84\x94]8@'
p23
tp24
Rp25
ag10
(g14
S'=W\xff/\x9f^8@'
p26
tp27
Rp28
ag10
(g14
S'/\xb7\x95\x85\xa058@'
p29
tp30
Rp31
ag10
(g14
S'\x83M\x11\xa9\xda\x018@'
p32
tp33
Rp34
ag10
(g14
S"H'V\xe9\x93?8@"
p35
tp36
Rp37
ag10
(g14
S'\x1c\x95:\xc4\x8b`8@'
p38
tp39
Rp40
ag10
(g14
S'\xe0\x01Ej7U7@'
p41
tp42
Rp43
ag10
(g14
S'\xab\x82+\x80:j8@'
p44
tp45
Rp46
ag10
(g14
S'BI/\t\xc3\xb37@'
p47
tp48
Rp49
ag10
(g14
S'\xc8W\xb7\x8c\x8f\xda7@'
p50
tp51
Rp52
ag10
(g14
S'S\xd3z\xc2\xcbj7@'
p53
tp54
Rp55
ag10
(g14
S'$\x86fe%\xad7@'
p56
tp57
Rp58
ag10
(g14
S'Q\x1b}\xa7C\xbd7@'
p59
tp60
Rp61
ag10
(g14
S'\xe2\x1b\x16I\xde:8@'
p62
tp63
Rp64
ag10
(g14
S'[\x13/\xc3\xfd\xcd7@'
p65
tp66
Rp67
ag10
(g14
S'er\xf9\xe7h+7@'
p68
tp69
Rp70
ag10
(g14
S'\xc2O\xcf\x94\xa8\x947@'
p71
tp72
Rp73
ag10
(g14
S'\x83\xe2z\x00\xc9D8@'
p74
tp75
Rp76
asS'target'
p77
(lp78
g10
(g14
S'\xa2\xfa\x9f\xeb\xd9\xf7K@'
p79
tp80
Rp81
ag10
(g14
S'\xeed4\x9c0*M@'
p82
tp83
Rp84
ag10
(g14
S'\x80\x00\xa4Y\xb5fT@'
p85
tp86
Rp87
ag10
(g14
S'S\x0e\x82\xabw4N@'
p88
tp89
Rp90
ag10
(g14
S'Z\x18\x83\xfd\x1a7M@'
p91
tp92
Rp93
ag10
(g14
S'M>\x88\x16t\xb3S@'
p94
tp95
Rp96
ag10
(g14
S'\x1a\x1ae\xf2\xfc,M@'
p97
tp98
Rp99
ag10
(g14
S'\xa26*\x089\x8aJ@'
p100
tp101
Rp102
ag10
(g14
S'\xecm\xb5)\x83\xa7R@'
p103
tp104
Rp105
ag10
(g14
S'p0Atc\xb9L@'
p106
tp107
Rp108
ag10
(g14
S'Z-\xdc\x02"5X@'
p109
tp110
Rp111
ag10
(g14
S'\xdc\xca\xf8\x9e\x9b\x84P@'
p112
tp113
Rp114
ag10
(g14
S'~9\x88\xecp\xa0O@'
p115
tp116
Rp117
ag10
(g14
S'\xdb\xd0_<\x96\x7fR@'
p118
tp119
Rp120
ag10
(g14
S'\x94\x8e\xcb\x9fh\x00K@'
p121
tp122
Rp123
ag10
(g14
S'\xc6\xf3\xeb:\x8cbT@'
p124
tp125
Rp126
ag10
(g14
S'o~\xfe\xe1Z\xa0P@'
p127
tp128
Rp129
ag10
(g14
S'v5ia4QV@'
p130
tp131
Rp132
ag10
(g14
S'i\xb4F\t\xa9\x13P@'
p133
tp134
Rp135
ag10
(g14
S'Pgc\xa7\x1b\x17J@'
p136
tp137
Rp138
asssss.