(dp0
S'../Data/sqlite_0.csv'
p1
(dp2
S'../Data/sqlite_79.csv'
p3
(dp4
F0.35
(dp5
S'mmre'
p6
(dp7
S'bellwether'
p8
(lp9
cnumpy.core.multiarray
scalar
p10
(cnumpy
dtype
p11
(S'f8'
p12
I0
I1
tp13
Rp14
(I3
S'<'
p15
NNNI-1
I-1
I0
tp16
bS'z;+9\xe4\x1ak@'
p17
tp18
Rp19
ag10
(g14
S'h\xdc\xb6C\xf2ok@'
p20
tp21
Rp22
ag10
(g14
S'#\x19|\xa4z\\k@'
p23
tp24
Rp25
ag10
(g14
S'\xda\xbaY\xad&>k@'
p26
tp27
Rp28
ag10
(g14
S'\x16=\xe2Mx0k@'
p29
tp30
Rp31
ag10
(g14
S'V\xb3\x0b\x14p\x15k@'
p32
tp33
Rp34
ag10
(g14
S'\xdaC\xaa\xd7~`k@'
p35
tp36
Rp37
ag10
(g14
S'ydA\x90\xe1Rk@'
p38
tp39
Rp40
ag10
(g14
S'\xe83\xe6qr_k@'
p41
tp42
Rp43
ag10
(g14
S'\tE\x93?\xeb2k@'
p44
tp45
Rp46
ag10
(g14
S'\x85\xc4\x85\x98\xda@k@'
p47
tp48
Rp49
ag10
(g14
S'\x7f\xfaE\xb2\xb1Ik@'
p50
tp51
Rp52
ag10
(g14
S'\x86\xf1\xf6\xcf\x0fbk@'
p53
tp54
Rp55
ag10
(g14
S'R\xcf\x0cFmQk@'
p56
tp57
Rp58
ag10
(g14
S'\xc6\x8ayv;Ak@'
p59
tp60
Rp61
ag10
(g14
S'\x86\x84\x1bG\x94.k@'
p62
tp63
Rp64
ag10
(g14
S'M\xb4W\x8d\xbe,k@'
p65
tp66
Rp67
ag10
(g14
S'N\x0b\xc1\xb4\xdbuk@'
p68
tp69
Rp70
ag10
(g14
S'\x8a\x9a\x9e\x8bGRk@'
p71
tp72
Rp73
ag10
(g14
S'\x85>\xcdWFHk@'
p74
tp75
Rp76
asS'target'
p77
(lp78
g10
(g14
S'\x88\xf8\xf3~{r\x1c@'
p79
tp80
Rp81
ag10
(g14
S'J\xce\xfe\xbb\xcb\x8d @'
p82
tp83
Rp84
ag10
(g14
S'\x04\x17^\x03$+#@'
p85
tp86
Rp87
ag10
(g14
S'\xa5\xeasj4\x07"@'
p88
tp89
Rp90
ag10
(g14
S'W\r\xa9\xa3i2"@'
p91
tp92
Rp93
ag10
(g14
S'2\x92\x8d\xa2\xfe\xee\x1f@'
p94
tp95
Rp96
ag10
(g14
S'H\xe7\xff\xca\xaa\xf1 @'
p97
tp98
Rp99
ag10
(g14
S'9>u\xc4U\xdc\x1d@'
p100
tp101
Rp102
ag10
(g14
S'CD6\t\xbf\xb3!@'
p103
tp104
Rp105
ag10
(g14
S'6J\xcf\x1a\xaa\xce#@'
p106
tp107
Rp108
ag10
(g14
S'R<L\x15k\xe9%@'
p109
tp110
Rp111
ag10
(g14
S'*}\xc7\xae>\x0f"@'
p112
tp113
Rp114
ag10
(g14
S'/K\xe8\x92&M(@'
p115
tp116
Rp117
ag10
(g14
S'\xb2\xa7?\x06u\x9c#@'
p118
tp119
Rp120
ag10
(g14
S';I1^\x85\x9d!@'
p121
tp122
Rp123
ag10
(g14
S'\x8c\xbdFa\xa7\xe9%@'
p124
tp125
Rp126
ag10
(g14
S'\x8a\x7f\x9b\xd9:r"@'
p127
tp128
Rp129
ag10
(g14
S'\x82D\xdb\x05\xf5\xda$@'
p130
tp131
Rp132
ag10
(g14
S'~\x19\xdd\x13\x16\xde @'
p133
tp134
Rp135
ag10
(g14
S'\xf1i^\xfd\xcfc%@'
p136
tp137
Rp138
asssss.