(dp0
S'../Data/sqlite_29.csv'
p1
(dp2
S'../Data/sqlite_23.csv'
p3
(dp4
F0.35
(dp5
S'abs_res'
p6
(dp7
S'bellwether'
p8
(lp9
cnumpy.core.multiarray
scalar
p10
(cnumpy
dtype
p11
(S'f8'
p12
I0
I1
tp13
Rp14
(I3
S'<'
p15
NNNI-1
I-1
I0
tp16
bS'\xe3\x96\xb5\x9a{,=A'
p17
tp18
Rp19
ag10
(g14
S'bq\xf6\x01\x8e*=A'
p20
tp21
Rp22
ag10
(g14
S'\xa5\xa8\x7f\xc3\xd9*=A'
p23
tp24
Rp25
ag10
(g14
S'\xdf\xec\xc3\xc7\xbf-=A'
p26
tp27
Rp28
ag10
(g14
S'\xd0\xcc\xccl\xc0)=A'
p29
tp30
Rp31
ag10
(g14
S'\x9e\xed|\xffQ,=A'
p32
tp33
Rp34
ag10
(g14
S'o\xaf\xb9\xb0\xb7,=A'
p35
tp36
Rp37
ag10
(g14
S'\xd3\xbf\x11\nO,=A'
p38
tp39
Rp40
ag10
(g14
S'6^\xbai\x01+=A'
p41
tp42
Rp43
ag10
(g14
S'Z\x9c}\x18\xc2*=A'
p44
tp45
Rp46
ag10
(g14
S'\xa0\x8c\xde\x96\xf4*=A'
p47
tp48
Rp49
ag10
(g14
S'\x0f\x9fa\xb7\x81)=A'
p50
tp51
Rp52
ag10
(g14
S'zuL\x10\xa4)=A'
p53
tp54
Rp55
ag10
(g14
S'\xe0$\x06\x01\x90,=A'
p56
tp57
Rp58
ag10
(g14
S'z0OtF)=A'
p59
tp60
Rp61
ag10
(g14
S"C\x98'j7+=A"
p62
tp63
Rp64
ag10
(g14
S'J~\xb1d\xcb+=A'
p65
tp66
Rp67
ag10
(g14
S'\x0e\x04V\xee\x97)=A'
p68
tp69
Rp70
ag10
(g14
S'"iJ\x85\'+=A'
p71
tp72
Rp73
ag10
(g14
S'\xa7\xe2\xec\xa3f)=A'
p74
tp75
Rp76
asS'target'
p77
(lp78
g10
(g14
S'R\x8d\x97n\x12\x838@'
p79
tp80
Rp81
ag10
(g14
S'H\xe1z\x14\xaeW:@'
p82
tp83
Rp84
ag10
(g14
S',\xdd$\x06\x81\x15;@'
p85
tp86
Rp87
ag10
(g14
S'\xc5 \xb0rhQ9@'
p88
tp89
Rp90
ag10
(g14
S'3\xdfO\x8d\x97>7@'
p91
tp92
Rp93
ag10
(g14
S't\xe9&1\x08\xec8@'
p94
tp95
Rp96
ag10
(g14
S'\xe9\xd0"\xdb\xf9~9@'
p97
tp98
Rp99
ag10
(g14
S'\xd5Mb\x10X\xf96@'
p100
tp101
Rp102
ag10
(g14
S'\x94\xa6T\x9c}\xd8:@'
p103
tp104
Rp105
ag10
(g14
S'&\xdb\xf9~j\x8c7@'
p106
tp107
Rp108
ag10
(g14
S"'\xb0rh\x91];@"
p109
tp110
Rp111
ag10
(g14
S'\xc4t\x93\x18\x046:@'
p112
tp113
Rp114
ag10
(g14
S'\xb0\x9d\xef\xa7\xc6+:@'
p115
tp116
Rp117
ag10
(g14
S'\t\xac\x1cZd;9@'
p118
tp119
Rp120
ag10
(g14
S'K\x0c\x02+\x87V;@'
p121
tp122
Rp123
ag10
(g14
S'|\x12\x83\xc0\xca!;@'
p124
tp125
Rp126
ag10
(g14
S'\xa5\x9b\xc4 \xb0\x929@'
p127
tp128
Rp129
ag10
(g14
S'XFo\xcbZ\xdd9@'
p130
tp131
Rp132
ag10
(g14
S'}\xbe\x9f\x1a/M8@'
p133
tp134
Rp135
ag10
(g14
S'\xd5\xce\xf7S\xe3%8@'
p136
tp137
Rp138
asssss.