(dp0
S'../Data/sqlite_81.csv'
p1
(dp2
S'../Data/sqlite_95.csv'
p3
(dp4
F0.35
(dp5
S'mmre'
p6
(dp7
S'bellwether'
p8
(lp9
cnumpy.core.multiarray
scalar
p10
(cnumpy
dtype
p11
(S'f8'
p12
I0
I1
tp13
Rp14
(I3
S'<'
p15
NNNI-1
I-1
I0
tp16
bS'\x13\xd2\xe6\xa4\x1ePS@'
p17
tp18
Rp19
ag10
(g14
S'\x10\xc8r\xbf\xffDS@'
p20
tp21
Rp22
ag10
(g14
S'\xb4\xe4\x05\xef\xf7lS@'
p23
tp24
Rp25
ag10
(g14
S'\n\x89\xb0r`^S@'
p26
tp27
Rp28
ag10
(g14
S'\x0b\x10\xb5\x00\xddQS@'
p29
tp30
Rp31
ag10
(g14
S'\x93C:-\xd3DS@'
p32
tp33
Rp34
ag10
(g14
S'\xfa\xe0B\xb3\xe3bS@'
p35
tp36
Rp37
ag10
(g14
S'x"\xcej.YS@'
p38
tp39
Rp40
ag10
(g14
S'I\x00b$\xbfhS@'
p41
tp42
Rp43
ag10
(g14
S"&\x82\x1b' eS@"
p44
tp45
Rp46
ag10
(g14
S"\xc8W~\xa6'TS@"
p47
tp48
Rp49
ag10
(g14
S'\xa4-{v\x9fjS@'
p50
tp51
Rp52
ag10
(g14
S'\xb5\xe5\x07\r\xf9lS@'
p53
tp54
Rp55
ag10
(g14
S')-i\xd5\x9aeS@'
p56
tp57
Rp58
ag10
(g14
S'\xbdz\xccI\xf0]S@'
p59
tp60
Rp61
ag10
(g14
S'w!\xac}VqS@'
p62
tp63
Rp64
ag10
(g14
S'\x03zV{\xd5^S@'
p65
tp66
Rp67
ag10
(g14
S'lw<7+gS@'
p68
tp69
Rp70
ag10
(g14
S'gT&\x18\x8eAS@'
p71
tp72
Rp73
ag10
(g14
S'\x98\xa5\x11E\xffnS@'
p74
tp75
Rp76
asS'target'
p77
(lp78
g10
(g14
S'\x8dr\xa9U1\xb9A@'
p79
tp80
Rp81
ag10
(g14
S'\xdd\x84\xb4\\\xb0:B@'
p82
tp83
Rp84
ag10
(g14
S'\xc4\xbd8L\x1f\x99?@'
p85
tp86
Rp87
ag10
(g14
S'\xe3(CP\xe1\x14B@'
p88
tp89
Rp90
ag10
(g14
S'\xf7!\x9baX\xa5A@'
p91
tp92
Rp93
ag10
(g14
S'\xe0\x9c\x00\xea\xfd%E@'
p94
tp95
Rp96
ag10
(g14
S'\x11\xd4\xbe\x08&\x99@@'
p97
tp98
Rp99
ag10
(g14
S'U*\r\xdd\xdf\\A@'
p100
tp101
Rp102
ag10
(g14
S'\xbf\x92\x03dN#C@'
p103
tp104
Rp105
ag10
(g14
S'R=W\x81\x84\x19?@'
p106
tp107
Rp108
ag10
(g14
S'@\xc9`h\xb1GD@'
p109
tp110
Rp111
ag10
(g14
S'\xfd\xa0\xce\x9b\xa6\x88=@'
p112
tp113
Rp114
ag10
(g14
S'\xbd\x0e:n\xf1\xa5B@'
p115
tp116
Rp117
ag10
(g14
S'd\xa5\xaa\x9c\n\x99B@'
p118
tp119
Rp120
ag10
(g14
S"\xe9_Ut\x06'A@"
p121
tp122
Rp123
ag10
(g14
S'p\r[+\xa2k=@'
p124
tp125
Rp126
ag10
(g14
S'\xe1\xec\xf8f\xd3\xed@@'
p127
tp128
Rp129
ag10
(g14
S'\xc3\x11,\x1e\x83W@@'
p130
tp131
Rp132
ag10
(g14
S')9\xda\xa0H\xc5E@'
p133
tp134
Rp135
ag10
(g14
S'\x1c\x9e=\x91\xe76A@'
p136
tp137
Rp138
asssss.