(dp0
S'../Data/sqlite_44.csv'
p1
(dp2
S'../Data/sqlite_90.csv'
p3
(dp4
F0.2
(dp5
S'mmre'
p6
(dp7
S'bellwether'
p8
(lp9
cnumpy.core.multiarray
scalar
p10
(cnumpy
dtype
p11
(S'f8'
p12
I0
I1
tp13
Rp14
(I3
S'<'
p15
NNNI-1
I-1
I0
tp16
bS'\xf1\x18L0\xa8EX@'
p17
tp18
Rp19
ag10
(g14
S'E\t<O\xd7DX@'
p20
tp21
Rp22
ag10
(g14
S'\x96\x0b\xb8AtBX@'
p23
tp24
Rp25
ag10
(g14
S'v\xa7\x00\xd8\x92BX@'
p26
tp27
Rp28
ag10
(g14
S'V\xfc\xd8\xc8\xbdEX@'
p29
tp30
Rp31
ag10
(g14
S'\xfe:\x96\x12{FX@'
p32
tp33
Rp34
ag10
(g14
S'\x97,\x1e\xd9\x0bBX@'
p35
tp36
Rp37
ag10
(g14
S'\x0e\xeaQo`DX@'
p38
tp39
Rp40
ag10
(g14
S'6\x18\x0e(h?X@'
p41
tp42
Rp43
ag10
(g14
S'\xb1;\x18C\x0bEX@'
p44
tp45
Rp46
ag10
(g14
S'\xfeLD\xaavEX@'
p47
tp48
Rp49
ag10
(g14
S'\xb4\x0e\xd2x{BX@'
p50
tp51
Rp52
ag10
(g14
S'$\xe4E3\xb3BX@'
p53
tp54
Rp55
ag10
(g14
S'\x8b\x8aR\x80\xadCX@'
p56
tp57
Rp58
ag10
(g14
S'\xf2\x82{a\xcaBX@'
p59
tp60
Rp61
ag10
(g14
S'`\xdc\xd14mDX@'
p62
tp63
Rp64
ag10
(g14
S'\x94q\x9b\x9a"BX@'
p65
tp66
Rp67
ag10
(g14
S'\x0eB\xefH8?X@'
p68
tp69
Rp70
ag10
(g14
S'9\x9b\x06C\xaeCX@'
p71
tp72
Rp73
ag10
(g14
S'\xfc\xb3\xa3^\x98CX@'
p74
tp75
Rp76
asS'target'
p77
(lp78
g10
(g14
S'\xc4\x8fr\x8cP\x1bA@'
p79
tp80
Rp81
ag10
(g14
S'\x8f\t\xad\xb27\xe6A@'
p82
tp83
Rp84
ag10
(g14
S'\xaeVs\x03\x1a]A@'
p85
tp86
Rp87
ag10
(g14
S'\n&\xb7\xbfQ%@@'
p88
tp89
Rp90
ag10
(g14
S"\xdc\xb4'\xec\xd6A@@"
p91
tp92
Rp93
ag10
(g14
S'\x84\x8ba\xf4.\xcdB@'
p94
tp95
Rp96
ag10
(g14
S'\x92\xf2/\xf0,\xcaA@'
p97
tp98
Rp99
ag10
(g14
S'\x02\xc2\x124\xb3\xb6?@'
p100
tp101
Rp102
ag10
(g14
S'\xf8#tl>\x18B@'
p103
tp104
Rp105
ag10
(g14
S'\x07aw\xa8ct?@'
p106
tp107
Rp108
ag10
(g14
S'\xc4\xc7}\xf2\xd7\xbf@@'
p109
tp110
Rp111
ag10
(g14
S'3\xf9\xb7\xe2X\x05B@'
p112
tp113
Rp114
ag10
(g14
S'F\xa9]\x8f\xb3gA@'
p115
tp116
Rp117
ag10
(g14
S'\xc2\xb1\x9eq\x8b2A@'
p118
tp119
Rp120
ag10
(g14
S'<l#\xe7\x1b\xe1B@'
p121
tp122
Rp123
ag10
(g14
S"\xe9\xac\x1f'\xaa\xe1@@"
p124
tp125
Rp126
ag10
(g14
S'\xd5`\xd5l\xf6\xa1A@'
p127
tp128
Rp129
ag10
(g14
S'%\x89\xcb\xe6\x8b!A@'
p130
tp131
Rp132
ag10
(g14
S'<\xa1\x1dz\xd4&B@'
p133
tp134
Rp135
ag10
(g14
S'\xe9n\x8a\xb8\xd4?@@'
p136
tp137
Rp138
asssss.