(dp0
S'../Data/sqlite_63.csv'
p1
(dp2
S'../Data/sqlite_95.csv'
p3
(dp4
F0.1
(dp5
S'mmre'
p6
(dp7
S'bellwether'
p8
(lp9
cnumpy.core.multiarray
scalar
p10
(cnumpy
dtype
p11
(S'f8'
p12
I0
I1
tp13
Rp14
(I3
S'<'
p15
NNNI-1
I-1
I0
tp16
bS')\x99\x7fM\xb5rX@'
p17
tp18
Rp19
ag10
(g14
S'F3l\xc2 sX@'
p20
tp21
Rp22
ag10
(g14
S'\xf0\x04<C\xb4rX@'
p23
tp24
Rp25
ag10
(g14
S'pN_n\xdfrX@'
p26
tp27
Rp28
ag10
(g14
S'\xdf\xb5\xb8\x1ffrX@'
p29
tp30
Rp31
ag10
(g14
S'M\x12F\xb4\x03sX@'
p32
tp33
Rp34
ag10
(g14
S'\x8e\x8fE \x17rX@'
p35
tp36
Rp37
ag10
(g14
S't\xf1rD\xc5qX@'
p38
tp39
Rp40
ag10
(g14
S'\xfbi\xcc\x84\x0bsX@'
p41
tp42
Rp43
ag10
(g14
S'\x9e\x9a\x0b=&rX@'
p44
tp45
Rp46
ag10
(g14
S'\xa7\x12\x82\xc4\xderX@'
p47
tp48
Rp49
ag10
(g14
S'R\xda\xc3\x1d\x91sX@'
p50
tp51
Rp52
ag10
(g14
S'\xa4\xe2\rS7rX@'
p53
tp54
Rp55
ag10
(g14
S'\xea\x1f\x05%\x99sX@'
p56
tp57
Rp58
ag10
(g14
S'\xde5r8\xeerX@'
p59
tp60
Rp61
ag10
(g14
S'\xd5\xa6n\xc3>rX@'
p62
tp63
Rp64
ag10
(g14
S'i\x0b\x02h\xf3rX@'
p65
tp66
Rp67
ag10
(g14
S'(l\xe6\x1b\x8erX@'
p68
tp69
Rp70
ag10
(g14
S'\xc5\x12\x86\xd6\x81sX@'
p71
tp72
Rp73
ag10
(g14
S'C\xe9\x18B\xb4sX@'
p74
tp75
Rp76
asS'target'
p77
(lp78
g10
(g14
S'\x1d\xb6u8~8=@'
p79
tp80
Rp81
ag10
(g14
S'4\xd2\x1dC\xdf\x82B@'
p82
tp83
Rp84
ag10
(g14
S'\xf9_\x90#C\xb7?@'
p85
tp86
Rp87
ag10
(g14
S'\x8c\xf8w\xc5\x0b-E@'
p88
tp89
Rp90
ag10
(g14
S'?\x9eYx\x89\x14A@'
p91
tp92
Rp93
ag10
(g14
S'\xb9\x9e\xdd\xd9VL<@'
p94
tp95
Rp96
ag10
(g14
S'\xd4\xb3\xb6\xc2\xa3ND@'
p97
tp98
Rp99
ag10
(g14
S'%lt\xe6:\xbdD@'
p100
tp101
Rp102
ag10
(g14
S'\x87 "\x7f\x035A@'
p103
tp104
Rp105
ag10
(g14
S"\xfe\x04\x95'8\x1a<@"
p106
tp107
Rp108
ag10
(g14
S'\x01\xed\xba\xe3\xee.?@'
p109
tp110
Rp111
ag10
(g14
S'K\xb3\x13!~\x15B@'
p112
tp113
Rp114
ag10
(g14
S'+\x8a\x88\x99\xdc@@@'
p115
tp116
Rp117
ag10
(g14
S'\xf9\xfe]j\xf7\xcbB@'
p118
tp119
Rp120
ag10
(g14
S'\xa6Y\x07p\xb5\xb6@@'
p121
tp122
Rp123
ag10
(g14
S'{S\xed\xa4\x04\xb6F@'
p124
tp125
Rp126
ag10
(g14
S'c\x08\xc5z\x04::@'
p127
tp128
Rp129
ag10
(g14
S'\x99\x9a\x97\x8bx^D@'
p130
tp131
Rp132
ag10
(g14
S'\x95\xf72\xd7L\x86A@'
p133
tp134
Rp135
ag10
(g14
S's\\p\x01\xa2\x08A@'
p136
tp137
Rp138
asssss.