(dp0
S'../Data/sqlite_30.csv'
p1
(dp2
S'../Data/sqlite_96.csv'
p3
(dp4
F0.25
(dp5
S'mmre'
p6
(dp7
S'bellwether'
p8
(lp9
cnumpy.core.multiarray
scalar
p10
(cnumpy
dtype
p11
(S'f8'
p12
I0
I1
tp13
Rp14
(I3
S'<'
p15
NNNI-1
I-1
I0
tp16
bS'\xf0PY\xd6\x821X@'
p17
tp18
Rp19
ag10
(g14
S'fn\xdd\x03\x7f2X@'
p20
tp21
Rp22
ag10
(g14
S'\x84\xedQ\xe3\x1d1X@'
p23
tp24
Rp25
ag10
(g14
S'\xa6\xfc\x80\xe0\x9a0X@'
p26
tp27
Rp28
ag10
(g14
S'J!C\xb3\xbf1X@'
p29
tp30
Rp31
ag10
(g14
S"w\xe8N\x92'0X@"
p32
tp33
Rp34
ag10
(g14
S'T4/d\xf80X@'
p35
tp36
Rp37
ag10
(g14
S'\xc6\xafd@b1X@'
p38
tp39
Rp40
ag10
(g14
S'\xd6"E\x06\xbc0X@'
p41
tp42
Rp43
ag10
(g14
S'\xef\x10P\xc0N0X@'
p44
tp45
Rp46
ag10
(g14
S'"J\xf8\xaa\xb30X@'
p47
tp48
Rp49
ag10
(g14
S'\x11\x12\x14\xb0\x890X@'
p50
tp51
Rp52
ag10
(g14
S"\x8d\x87'\x96,/X@"
p53
tp54
Rp55
ag10
(g14
S'\xc2\xcf\xa4\xae\xef0X@'
p56
tp57
Rp58
ag10
(g14
S'\x8d\xac\x07T40X@'
p59
tp60
Rp61
ag10
(g14
S'x\xa6\xcbQ\x141X@'
p62
tp63
Rp64
ag10
(g14
S'\xde\x19\xf7$]0X@'
p65
tp66
Rp67
ag10
(g14
S'\xca*y/\xb40X@'
p68
tp69
Rp70
ag10
(g14
S'\xb7A\\\xfa\xc9.X@'
p71
tp72
Rp73
ag10
(g14
S'n\xdd\x7f\xc7\x981X@'
p74
tp75
Rp76
asS'target'
p77
(lp78
g10
(g14
S'<.\x97ZV\xefT@'
p79
tp80
Rp81
ag10
(g14
S'\x0e\xd0G\xec\xeb!Q@'
p82
tp83
Rp84
ag10
(g14
S'\xe9\xdc-\xc5qG[@'
p85
tp86
Rp87
ag10
(g14
S'\x9c\x86\x00w\xc4`N@'
p88
tp89
Rp90
ag10
(g14
S'\x01\xa4\xf0\xdcad[@'
p91
tp92
Rp93
ag10
(g14
S'J\x91!\x91;-[@'
p94
tp95
Rp96
ag10
(g14
S'\xf6\x87[z_\xceT@'
p97
tp98
Rp99
ag10
(g14
S"\xb9'A\x856DW@"
p100
tp101
Rp102
ag10
(g14
S'\x9c\xed\xb7,,\x83O@'
p103
tp104
Rp105
ag10
(g14
S'\x93<:\xd0\x12\xadX@'
p106
tp107
Rp108
ag10
(g14
S'`\x89/\x99\xd71Z@'
p109
tp110
Rp111
ag10
(g14
S'\xc2v\x9e\xf5\x80DU@'
p112
tp113
Rp114
ag10
(g14
S"\xa7[\x8a_'\xbfY@"
p115
tp116
Rp117
ag10
(g14
S'.\xa6\xb8\x91(vR@'
p118
tp119
Rp120
ag10
(g14
S'\x87_\xf5\xf2\t\x1bK@'
p121
tp122
Rp123
ag10
(g14
S'\xc0a\x11\xd2\x9f\x9fY@'
p124
tp125
Rp126
ag10
(g14
S'\xb7\xfcl\xb4f\x83E@'
p127
tp128
Rp129
ag10
(g14
S'\x01\xc6\xa6^\xca\xe1[@'
p130
tp131
Rp132
ag10
(g14
S'w\xd3\xfbC\x89?X@'
p133
tp134
Rp135
ag10
(g14
S'\xe8\xda\x80S\xc6\xb7W@'
p136
tp137
Rp138
asssss.