(dp0
S'../Data/sqlite_28.csv'
p1
(dp2
S'../Data/sqlite_90.csv'
p3
(dp4
F0.3
(dp5
S'mmre'
p6
(dp7
S'bellwether'
p8
(lp9
cnumpy.core.multiarray
scalar
p10
(cnumpy
dtype
p11
(S'f8'
p12
I0
I1
tp13
Rp14
(I3
S'<'
p15
NNNI-1
I-1
I0
tp16
bS'$u\x1f/PjW@'
p17
tp18
Rp19
ag10
(g14
S'\x8e\xe8|\x16*wW@'
p20
tp21
Rp22
ag10
(g14
S'\x07{\xfb\xc3\x15`W@'
p23
tp24
Rp25
ag10
(g14
S'M\x97\x13s\\mW@'
p26
tp27
Rp28
ag10
(g14
S'_\xf5\x1cNInW@'
p29
tp30
Rp31
ag10
(g14
S'>&\x1e\x04MfW@'
p32
tp33
Rp34
ag10
(g14
S'r\xbc\xfd\xfa\x9c\\W@'
p35
tp36
Rp37
ag10
(g14
S'\xce\x88\xd9\x87\x87\\W@'
p38
tp39
Rp40
ag10
(g14
S'I\\\xe4TsaW@'
p41
tp42
Rp43
ag10
(g14
S'RV\x1b\x91GXW@'
p44
tp45
Rp46
ag10
(g14
S'R\xa6\xda\xc5\x01mW@'
p47
tp48
Rp49
ag10
(g14
S'_\xa4\xf5\x18f`W@'
p50
tp51
Rp52
ag10
(g14
S'\x17Y\x9a\xdd\xabbW@'
p53
tp54
Rp55
ag10
(g14
S'\xf4\xa8f\xf74cW@'
p56
tp57
Rp58
ag10
(g14
S'\xb9\x01\x0bB\xfchW@'
p59
tp60
Rp61
ag10
(g14
S'\xa0\x97\x0cw\xf3eW@'
p62
tp63
Rp64
ag10
(g14
S'\xdc\x1dm\\fnW@'
p65
tp66
Rp67
ag10
(g14
S'\xb6\xd9\x17\xc8Z`W@'
p68
tp69
Rp70
ag10
(g14
S'\xa7\x82FF\xa5aW@'
p71
tp72
Rp73
ag10
(g14
S'\x9fQu\xf2\xffaW@'
p74
tp75
Rp76
asS'target'
p77
(lp78
g10
(g14
S'\xf5\xc1>4S\xf6@@'
p79
tp80
Rp81
ag10
(g14
S'\xa4\xba\xc9\xf5/z@@'
p82
tp83
Rp84
ag10
(g14
S'\xfee\xb49\xea\x0bA@'
p85
tp86
Rp87
ag10
(g14
S'\xd2\xa7d\xca\xf6\xcd@@'
p88
tp89
Rp90
ag10
(g14
S'\x87\xf7\xc3\xc6\xf4d@@'
p91
tp92
Rp93
ag10
(g14
S'P\xd7z\xe3\\\xa4A@'
p94
tp95
Rp96
ag10
(g14
S'\x87-\x1b\x04\xf0\xb8A@'
p97
tp98
Rp99
ag10
(g14
S'98\xaf\xf5\xbe\tB@'
p100
tp101
Rp102
ag10
(g14
S'\xf9P\x10\xcf\x17\xd1B@'
p103
tp104
Rp105
ag10
(g14
S'C_=3]DC@'
p106
tp107
Rp108
ag10
(g14
S'\xb7$gF\x17G@@'
p109
tp110
Rp111
ag10
(g14
S'\x07\xcb\xdf\x7f-lB@'
p112
tp113
Rp114
ag10
(g14
S'\x96$hvDHC@'
p115
tp116
Rp117
ag10
(g14
S'iL\xa1\xdb\xba\xa4A@'
p118
tp119
Rp120
ag10
(g14
S'\xa7\xd5\x056j\x91A@'
p121
tp122
Rp123
ag10
(g14
S'\x1e\t$ gWB@'
p124
tp125
Rp126
ag10
(g14
S'\xf7JCO\x9e\xe2?@'
p127
tp128
Rp129
ag10
(g14
S'C\xc6\xa1\xcb\xb7\xf2@@'
p130
tp131
Rp132
ag10
(g14
S'p,\x84BJwA@'
p133
tp134
Rp135
ag10
(g14
S'\xdc\xd9\x8e;\xa4oB@'
p136
tp137
Rp138
asssss.