(dp0
S'../Data/sqlite_28.csv'
p1
(dp2
S'../Data/sqlite_63.csv'
p3
(dp4
F0.35
(dp5
S'mmre'
p6
(dp7
S'bellwether'
p8
(lp9
cnumpy.core.multiarray
scalar
p10
(cnumpy
dtype
p11
(S'f8'
p12
I0
I1
tp13
Rp14
(I3
S'<'
p15
NNNI-1
I-1
I0
tp16
bS"x\x04\xb3b\xc5'R@"
p17
tp18
Rp19
ag10
(g14
S'`\xa7g\x055%R@'
p20
tp21
Rp22
ag10
(g14
S'jB\xd0s\xbe/R@'
p23
tp24
Rp25
ag10
(g14
S'P}gW\xcd)R@'
p26
tp27
Rp28
ag10
(g14
S'\xd6\x94\x90\x17\x1f#R@'
p29
tp30
Rp31
ag10
(g14
S'\xee\x15\x8b\x82\x86)R@'
p32
tp33
Rp34
ag10
(g14
S'\x1f{\xb4]\xbd-R@'
p35
tp36
Rp37
ag10
(g14
S'\x0f\x84\xa5\xb0\x9b%R@'
p38
tp39
Rp40
ag10
(g14
S'\x9fB\xca\x06\x8e0R@'
p41
tp42
Rp43
ag10
(g14
S'\xa0r\xef\xee\xa7(R@'
p44
tp45
Rp46
ag10
(g14
S'\xe3mh\x01\xcc$R@'
p47
tp48
Rp49
ag10
(g14
S'\xc6HO\xbd\xb4&R@'
p50
tp51
Rp52
ag10
(g14
S"\x19\xd5\xdff7'R@"
p53
tp54
Rp55
ag10
(g14
S'\x15E\x05+\xfa+R@'
p56
tp57
Rp58
ag10
(g14
S'zE\xe6\xaa!+R@'
p59
tp60
Rp61
ag10
(g14
S'\xea\xca\x1f\xbc\x0e+R@'
p62
tp63
Rp64
ag10
(g14
S'G-}\xa0\xd5)R@'
p65
tp66
Rp67
ag10
(g14
S'\xeb\x02\xfb\x03r"R@'
p68
tp69
Rp70
ag10
(g14
S"\xb9Q(\x86\x03'R@"
p71
tp72
Rp73
ag10
(g14
S'\xf6\x95\x88I\x17&R@'
p74
tp75
Rp76
asS'target'
p77
(lp78
g10
(g14
S'v&?n!["@'
p79
tp80
Rp81
ag10
(g14
S'%\xd5\xdb\x0eJN"@'
p82
tp83
Rp84
ag10
(g14
S'\xf4FQ^\xb7\xd2"@'
p85
tp86
Rp87
ag10
(g14
S'\t\x8a\xd1\xd5U\xfd"@'
p88
tp89
Rp90
ag10
(g14
S'\xc4\xc4\xc5i\xd5\x9c"@'
p91
tp92
Rp93
ag10
(g14
S'\xe7P\x12\x01F2#@'
p94
tp95
Rp96
ag10
(g14
S'\x85\t\xc2\xb1z-"@'
p97
tp98
Rp99
ag10
(g14
S'xk\xf4\x0e\x1f\xb3!@'
p100
tp101
Rp102
ag10
(g14
S'\xac|\x96\x1e\x90\xff"@'
p103
tp104
Rp105
ag10
(g14
S'/\xe9\xa82\x9a\xf5"@'
p106
tp107
Rp108
ag10
(g14
S'Q\x04f\x85/1#@'
p109
tp110
Rp111
ag10
(g14
S'\x8bfeA\x88:#@'
p112
tp113
Rp114
ag10
(g14
S'\xe1\xd18Yb2"@'
p115
tp116
Rp117
ag10
(g14
S'B\xd7%\xe4\xd6\xa9#@'
p118
tp119
Rp120
ag10
(g14
S'u\n\x12\xceFj"@'
p121
tp122
Rp123
ag10
(g14
S'\xda\xbe\rH\x87U#@'
p124
tp125
Rp126
ag10
(g14
S'\x11\x98C\x07)\x8a"@'
p127
tp128
Rp129
ag10
(g14
S'_\xda;\xd0\xd8\xbe"@'
p130
tp131
Rp132
ag10
(g14
S'\xeb\xe7Vf\xfdm#@'
p133
tp134
Rp135
ag10
(g14
S'4\xb1\xf2\xcd\x86\x19#@'
p136
tp137
Rp138
asssss.