(dp0
S'../Data/sqlite_4.csv'
p1
(dp2
S'../Data/sqlite_70.csv'
p3
(dp4
F0.35
(dp5
S'abs_res'
p6
(dp7
S'bellwether'
p8
(lp9
cnumpy.core.multiarray
scalar
p10
(cnumpy
dtype
p11
(S'f8'
p12
I0
I1
tp13
Rp14
(I3
S'<'
p15
NNNI-1
I-1
I0
tp16
bS'p!ij~<9A'
p17
tp18
Rp19
ag10
(g14
S'Q\xf0`\xbe\x82:9A'
p20
tp21
Rp22
ag10
(g14
S'\xfa~j<7=9A'
p23
tp24
Rp25
ag10
(g14
S'\x16K~q/=9A'
p26
tp27
Rp28
ag10
(g14
S'\x96\x18\x04\xf6!<9A'
p29
tp30
Rp31
ag10
(g14
S'\x04\xf3D]\xc8:9A'
p32
tp33
Rp34
ag10
(g14
S'\xf7\x9a\x0bId<9A'
p35
tp36
Rp37
ag10
(g14
S'\x00r\xafY\xb7:9A'
p38
tp39
Rp40
ag10
(g14
S'\x87]\x012e=9A'
p41
tp42
Rp43
ag10
(g14
S'\xba\x1e\x85\x0b\xd9<9A'
p44
tp45
Rp46
ag10
(g14
S'\xa6\xa8\x7f\xc3\xb599A'
p47
tp48
Rp49
ag10
(g14
S'ZUU\x95\xbe:9A'
p50
tp51
Rp52
ag10
(g14
S'\x832z{u:9A'
p53
tp54
Rp55
ag10
(g14
S'\xca\xf7SC\xe3:9A'
p56
tp57
Rp58
ag10
(g14
S'\x15Zd\x1b\xd0;9A'
p59
tp60
Rp61
ag10
(g14
S'\x96{\xcd\x85\xe4:9A'
p62
tp63
Rp64
ag10
(g14
S"'\xa3\xb7\xc5\x87;9A"
p65
tp66
Rp67
ag10
(g14
S'f\x82\x07\x13\xb999A'
p68
tp69
Rp70
ag10
(g14
S'A\x8blG\x95:9A'
p71
tp72
Rp73
ag10
(g14
S'%z[\x96z<9A'
p74
tp75
Rp76
asS'target'
p77
(lp78
g10
(g14
S'\xc5 \xb0rhQY@'
p79
tp80
Rp81
ag10
(g14
S'h\xbct\x93\x18\xa4Y@'
p82
tp83
Rp84
ag10
(g14
S'n\x91\xed|?\xc5W@'
p85
tp86
Rp87
ag10
(g14
S'U\x8d\x97n\x12\x17X@'
p88
tp89
Rp90
ag10
(g14
S'\x85\x16\xd9\xce\xf7;Y@'
p91
tp92
Rp93
ag10
(g14
S'\x0b\xd7\xa3p=.X@'
p94
tp95
Rp96
ag10
(g14
S'\xa9\xc6K7\x89\xf1Y@'
p97
tp98
Rp99
ag10
(g14
S'\x1c\xdb\xf9~j\xf0W@'
p100
tp101
Rp102
ag10
(g14
S'&\x06\x81\x95C7Y@'
p103
tp104
Rp105
ag10
(g14
S'(\x87\x16\xd9\xce\xcfX@'
p106
tp107
Rp108
ag10
(g14
S'G`\xe5\xd0"sX@'
p109
tp110
Rp111
ag10
(g14
S'\xa4\xf1\xd2Mb8X@'
p112
tp113
Rp114
ag10
(g14
S's=\n\xd7\xa3\x18W@'
p115
tp116
Rp117
ag10
(g14
S'\xdc\xd0"\xdb\xf9fX@'
p118
tp119
Rp120
ag10
(g14
S'\xbb\x9f\x1a/\xddlY@'
p121
tp122
Rp123
ag10
(g14
S'*1\x08\xac\x1c\x1eY@'
p124
tp125
Rp126
ag10
(g14
S'F\x0c\x02+\x87nZ@'
p127
tp128
Rp129
ag10
(g14
S'\x86\xebQ\xb8\x1e\xcdY@'
p130
tp131
Rp132
ag10
(g14
S'\x91\xc2\xf5(\\?Z@'
p133
tp134
Rp135
ag10
(g14
S'O\xb8\x1e\x85\xeb\rZ@'
p136
tp137
Rp138
asssss.