(dp0
S'../Data/sqlite_74.csv'
p1
(dp2
S'../Data/sqlite_5.csv'
p3
(dp4
F0.25
(dp5
S'abs_res'
p6
(dp7
S'bellwether'
p8
(lp9
cnumpy.core.multiarray
scalar
p10
(cnumpy
dtype
p11
(S'f8'
p12
I0
I1
tp13
Rp14
(I3
S'<'
p15
NNNI-1
I-1
I0
tp16
bS'\xd6\x94\x8a\x93\x80^iA'
p17
tp18
Rp19
ag10
(g14
S'cW\x80 \xe2WiA'
p20
tp21
Rp22
ag10
(g14
S'\x8b\xb3\x0f\xab\xd9[iA'
p23
tp24
Rp25
ag10
(g14
S'D5^\xfa\xffWiA'
p26
tp27
Rp28
ag10
(g14
S'~l\xe7\x07\xc5WiA'
p29
tp30
Rp31
ag10
(g14
S'\xdfB\xd2\xa0-^iA'
p32
tp33
Rp34
ag10
(g14
S'\xd4\xbf\x11\xb6\x83aiA'
p35
tp36
Rp37
ag10
(g14
S'z\xbe\x9f\xf6*ZiA'
p38
tp39
Rp40
ag10
(g14
S'\x1dM\xa9(\xf6giA'
p41
tp42
Rp43
ag10
(g14
S'\xf4(\\\xaf\x10OiA'
p44
tp45
Rp46
ag10
(g14
S'~j\xbc\x90VqiA'
p47
tp48
Rp49
ag10
(g14
S'\xd9\xea\x98hmdiA'
p50
tp51
Rp52
ag10
(g14
S'\xb6\xf1\xd2\xb9,[iA'
p53
tp54
Rp55
ag10
(g14
S'S\xd4\xbf1\xe5eiA'
p56
tp57
Rp58
ag10
(g14
S'<\n\xd7KZliA'
p59
tp60
Rp61
ag10
(g14
S'\xee|?%r`iA'
p62
tp63
Rp64
ag10
(g14
S'_,\xf9%\x86[iA'
p65
tp66
Rp67
ag10
(g14
S'\x8f\xb5:\xaekUiA'
p68
tp69
Rp70
ag10
(g14
S'$""\x82\x84XiA'
p71
tp72
Rp73
ag10
(g14
S'\x9e\x1a/YPbiA'
p74
tp75
Rp76
asS'target'
p77
(lp78
g10
(g14
S'\x99C\x8bl\xe7\x13Z@'
p79
tp80
Rp81
ag10
(g14
S'\x8c\x95C\x8bl?W@'
p82
tp83
Rp84
ag10
(g14
S')\\\x8f\xc2\xf5\xb0W@'
p85
tp86
Rp87
ag10
(g14
S'-\xb2\x9d\xef\xa7fX@'
p88
tp89
Rp90
ag10
(g14
S'\x8dl\xe7\xfb\xa9YZ@'
p91
tp92
Rp93
ag10
(g14
S'\x12X9\xb4\xc8\x9aX@'
p94
tp95
Rp96
ag10
(g14
S'\xe6\xd0"\xdb\xf9vX@'
p97
tp98
Rp99
ag10
(g14
S'e\x91\xed|?5Y@'
p100
tp101
Rp102
ag10
(g14
S'B5^\xbaIt]@'
p103
tp104
Rp105
ag10
(g14
S'B\xb6\xf3\xfd\xd4\x98W@'
p106
tp107
Rp108
ag10
(g14
S']\xbaI\x0c\x02{[@'
p109
tp110
Rp111
ag10
(g14
S'\r\x04V\x0e-\xb2Z@'
p112
tp113
Rp114
ag10
(g14
S'\x87?5^\xba\x89[@'
p115
tp116
Rp117
ag10
(g14
S'\xa5\xf1\xd2Mb8Y@'
p118
tp119
Rp120
ag10
(g14
S'\x9dn\x12\x83\xc0\xfeV@'
p121
tp122
Rp123
ag10
(g14
S'\xf8\xfd\xd4x\xe9\x0e^@'
p124
tp125
Rp126
ag10
(g14
S'Zd;\xdfO\x95]@'
p127
tp128
Rp129
ag10
(g14
S'\xe8$\x06\x81\x95\x83\\@'
p130
tp131
Rp132
ag10
(g14
S'/1\x08\xac\x1c\xeaY@'
p133
tp134
Rp135
ag10
(g14
S'\xe0z\x14\xaeG}a@'
p136
tp137
Rp138
asssss.