(dp0
S'../Data/sqlite_32.csv'
p1
(dp2
S'../Data/sqlite_85.csv'
p3
(dp4
F0.2
(dp5
S'abs_res'
p6
(dp7
S'bellwether'
p8
(lp9
cnumpy.core.multiarray
scalar
p10
(cnumpy
dtype
p11
(S'f8'
p12
I0
I1
tp13
Rp14
(I3
S'<'
p15
NNNI-1
I-1
I0
tp16
bS'\xe1z\x14n\xc9\x9aKA'
p17
tp18
Rp19
ag10
(g14
S'\xef(\\/\xc8\xc3KA'
p20
tp21
Rp22
ag10
(g14
S'_fffj\x83KA'
p23
tp24
Rp25
ag10
(g14
S'\xc7\xf5(\x9c\x85SKA'
p26
tp27
Rp28
ag10
(g14
S'L\xb8\x1eeLOKA'
p29
tp30
Rp31
ag10
(g14
S'\xb7\x1e\x85k\x19\x9eKA'
p32
tp33
Rp34
ag10
(g14
S'\x8f\xc2\xf5\xc8\x1b|KA'
p35
tp36
Rp37
ag10
(g14
S'\x12\xaeG!\xde\xa7KA'
p38
tp39
Rp40
ag10
(g14
S'\xd4\xa3p]\x00pKA'
p41
tp42
Rp43
ag10
(g14
S'/33\xf3\xb0\xc0KA'
p44
tp45
Rp46
ag10
(g14
S'I\xb8\x1e%\xa6\xc4KA'
p47
tp48
Rp49
ag10
(g14
S'\x91\xc2\xf5( ^KA'
p50
tp51
Rp52
ag10
(g14
S'\xf8(\\\x0f"\xafKA'
p53
tp54
Rp55
ag10
(g14
S'?\n\xd7\xc3\xaf\xcbKA'
p56
tp57
Rp58
ag10
(g14
S'iff\xa6&\xacKA'
p59
tp60
Rp61
ag10
(g14
S'\xf0Q\xb8\x1eS\xbaKA'
p62
tp63
Rp64
ag10
(g14
S'i=\nW7\x87KA'
p65
tp66
Rp67
ag10
(g14
S'j=\nw\xd4}KA'
p68
tp69
Rp70
ag10
(g14
S'V\x8f\xc2U+\x93KA'
p71
tp72
Rp73
ag10
(g14
S'\xd8z\x14.ZbKA'
p74
tp75
Rp76
asS'target'
p77
(lp78
g10
(g14
S'jff\x86\xe3/@A'
p79
tp80
Rp81
ag10
(g14
S'\xff\xff\xff\x1f\xf3\xeb@A'
p82
tp83
Rp84
ag10
(g14
S'\xdfz\x14N\xb5BAA'
p85
tp86
Rp87
ag10
(g14
S'533\x13\x96kBA'
p88
tp89
Rp90
ag10
(g14
S'dff&\xac-=A'
p91
tp92
Rp93
ag10
(g14
S'\xa5p=J\xf10AA'
p94
tp95
Rp96
ag10
(g14
S'`\x8f\xc2\xb5\xb5\x8aBA'
p97
tp98
Rp99
ag10
(g14
S'hff\xa6[\xe4AA'
p100
tp101
Rp102
ag10
(g14
S'eff\xe6a\xcc>A'
p103
tp104
Rp105
ag10
(g14
S'T\x8f\xc2\x95\xbd\xc7BA'
p106
tp107
Rp108
ag10
(g14
S'\x8b\xebQ\x98\xff\x9f@A'
p109
tp110
Rp111
ag10
(g14
S'\xb8\x1e\x85\xcb;\xe6AA'
p112
tp113
Rp114
ag10
(g14
S'\xecQ\xb8>\xa8H@A'
p115
tp116
Rp117
ag10
(g14
S'\x82\x14\xae\x07\x1c\xaeAA'
p118
tp119
Rp120
ag10
(g14
S'S\xb8\x1e\xa5\x82\xd2@A'
p121
tp122
Rp123
ag10
(g14
S'\xe7z\x14.`\x04CA'
p124
tp125
Rp126
ag10
(g14
S'\xa5p=*\x895@A'
p127
tp128
Rp129
ag10
(g14
S'\x1c\x85\xeb1>y@A'
p130
tp131
Rp132
ag10
(g14
S'\xd3\xcc\xcc,\xf3WBA'
p133
tp134
Rp135
ag10
(g14
S'a\x8f\xc2\xf5B\xa4BA'
p136
tp137
Rp138
asssss.