(dp0
S'../Data/sqlite_9.csv'
p1
(dp2
S'../Data/sqlite_59.csv'
p3
(dp4
F0.3
(dp5
S'mmre'
p6
(dp7
S'bellwether'
p8
(lp9
cnumpy.core.multiarray
scalar
p10
(cnumpy
dtype
p11
(S'f8'
p12
I0
I1
tp13
Rp14
(I3
S'<'
p15
NNNI-1
I-1
I0
tp16
bS'\xe2\xe6\x91\x96\xbb-W@'
p17
tp18
Rp19
ag10
(g14
S'\xc4<\x97wd.W@'
p20
tp21
Rp22
ag10
(g14
S'\xfed\r\x0bH-W@'
p23
tp24
Rp25
ag10
(g14
S'\x88}qDS-W@'
p26
tp27
Rp28
ag10
(g14
S'U\xde9\x16\xcd,W@'
p29
tp30
Rp31
ag10
(g14
S'\xe7\x8a%\x901.W@'
p32
tp33
Rp34
ag10
(g14
S'\x7fna\x86\x17-W@'
p35
tp36
Rp37
ag10
(g14
S'\xa7\xc0;\x8b\x08.W@'
p38
tp39
Rp40
ag10
(g14
S'n\xe9\x85z\xba-W@'
p41
tp42
Rp43
ag10
(g14
S'\x82\x91\x81Wa.W@'
p44
tp45
Rp46
ag10
(g14
S'\xe2D\xf7\xb4 +W@'
p47
tp48
Rp49
ag10
(g14
S'o\xffg\xa1\xf7,W@'
p50
tp51
Rp52
ag10
(g14
S'v\xedw*x.W@'
p53
tp54
Rp55
ag10
(g14
S'\xa5\x82\xc7\xa2\xd5*W@'
p56
tp57
Rp58
ag10
(g14
S's\x06\x03%\x0b.W@'
p59
tp60
Rp61
ag10
(g14
S"\\\xe3\xf7'=,W@"
p62
tp63
Rp64
ag10
(g14
S'+|\x12\x07X-W@'
p65
tp66
Rp67
ag10
(g14
S'\xd0\xe5\x11A\xb6-W@'
p68
tp69
Rp70
ag10
(g14
S'y\xfe\xe6\x9b\xa5.W@'
p71
tp72
Rp73
ag10
(g14
S'r\x1e\x17\x12\x8f*W@'
p74
tp75
Rp76
asS'target'
p77
(lp78
g10
(g14
S'\xe7`\x96p8\xf2%@'
p79
tp80
Rp81
ag10
(g14
S'h\xf0[\xae\xb2D%@'
p82
tp83
Rp84
ag10
(g14
S'\x07\xf4\x8a\xa5n\xe5%@'
p85
tp86
Rp87
ag10
(g14
S'U\xa3x\x9c\xfb\xbf&@'
p88
tp89
Rp90
ag10
(g14
S"\x1d\xc6Ru\x9fB'@"
p91
tp92
Rp93
ag10
(g14
S'N\n$g\xa3\xe9&@'
p94
tp95
Rp96
ag10
(g14
S"p\xa7L\xec\x8b\x96'@"
p97
tp98
Rp99
ag10
(g14
S'b\xd5\x9a\x95n7(@'
p100
tp101
Rp102
ag10
(g14
S'iA\xe9P\xf51&@'
p103
tp104
Rp105
ag10
(g14
S'\xb2`\t\xd6\xb7\xdf$@'
p106
tp107
Rp108
ag10
(g14
S'\xb2\xb7\x189\xf6\x81&@'
p109
tp110
Rp111
ag10
(g14
S'\x85\x01\xe6@(5%@'
p112
tp113
Rp114
ag10
(g14
S'\x1e\xad8e*=&@'
p115
tp116
Rp117
ag10
(g14
S'\ty\xe2\xfe 1)@'
p118
tp119
Rp120
ag10
(g14
S'\xf7E\xc4\xed\x00p$@'
p121
tp122
Rp123
ag10
(g14
S'\xdfTi\x07\x17\x10%@'
p124
tp125
Rp126
ag10
(g14
S'7\xe4..\xfc\xba%@'
p127
tp128
Rp129
ag10
(g14
S'\xb7\xdd\xa0\xa13F%@'
p130
tp131
Rp132
ag10
(g14
S'\x97\xf7\xa5\xa4$\x97%@'
p133
tp134
Rp135
ag10
(g14
S'\xe5\x99Yf\xa2\xd3$@'
p136
tp137
Rp138
asssss.