(dp0
S'../Data/sqlite_32.csv'
p1
(dp2
S'../Data/sqlite_14.csv'
p3
(dp4
F0.3
(dp5
S'abs_res'
p6
(dp7
S'bellwether'
p8
(lp9
cnumpy.core.multiarray
scalar
p10
(cnumpy
dtype
p11
(S'f8'
p12
I0
I1
tp13
Rp14
(I3
S'<'
p15
NNNI-1
I-1
I0
tp16
bS'[\x0e-b\x85%@A'
p17
tp18
Rp19
ag10
(g14
S'\xf9(\\ov$@A'
p20
tp21
Rp22
ag10
(g14
S'\xc4\xf5(\xec\x0f%@A'
p23
tp24
Rp25
ag10
(g14
S'\x92C\x8b\xcc\xb7$@A'
p26
tp27
Rp28
ag10
(g14
S'r=\n\xc7\t%@A'
p29
tp30
Rp31
ag10
(g14
S'\x8cl\xe7K($@A'
p32
tp33
Rp34
ag10
(g14
S'`\x10XY@%@A'
p35
tp36
Rp37
ag10
(g14
S')\\\x8f\xe2\xd4 @A'
p38
tp39
Rp40
ag10
(g14
S'\xa8\xf1\xd2m*"@A'
p41
tp42
Rp43
ag10
(g14
S'\xa0\x1a/\xed\x04%@A'
p44
tp45
Rp46
ag10
(g14
S'\xf2\xd2M\xf2\xdf#@A'
p47
tp48
Rp49
ag10
(g14
S's\x93\x18\x14\xed#@A'
p50
tp51
Rp52
ag10
(g14
S'\xb6\xc8v~/%@A'
p53
tp54
Rp55
ag10
(g14
S'\xf0\xa7\xc6\xcb\x11"@A'
p56
tp57
Rp58
ag10
(g14
S'+1\x08\x1c\xfd#@A'
p59
tp60
Rp61
ag10
(g14
S'o\x12\x83\xe0\xe6#@A'
p62
tp63
Rp64
ag10
(g14
S'(\xdb\xf9N\xce#@A'
p65
tp66
Rp67
ag10
(g14
S'\xbbI\x0cB\xa6#@A'
p68
tp69
Rp70
ag10
(g14
S'H\x0c\x02[\x7f @A'
p71
tp72
Rp73
ag10
(g14
S'P7\x89\x91\xd1%@A'
p74
tp75
Rp76
asS'target'
p77
(lp78
g10
(g14
S"Q7\x89A`'a@"
p79
tp80
Rp81
ag10
(g14
S'}?5^\xbaUa@'
p82
tp83
Rp84
ag10
(g14
S'\xf9~j\xbct\xff`@'
p85
tp86
Rp87
ag10
(g14
S'^d;\xdfO\x1bb@'
p88
tp89
Rp90
ag10
(g14
S'%\\\x8f\xc2\xf5\xa6`@'
p91
tp92
Rp93
ag10
(g14
S'\xc0I\x0c\x02+7b@'
p94
tp95
Rp96
ag10
(g14
S'\x1cZd;\xdf\x1fa@'
p97
tp98
Rp99
ag10
(g14
S'\xb0rh\x91\xed\xbc^@'
p100
tp101
Rp102
ag10
(g14
S'\xfbo\x842z\xdf`@'
p103
tp104
Rp105
ag10
(g14
S'{\xe9&1\x08\xbca@'
p106
tp107
Rp108
ag10
(g14
S'\xbc\x1e\x85\xebQP`@'
p109
tp110
Rp111
ag10
(g14
S'\x0f\x02+\x87\x16\xe5a@'
p112
tp113
Rp114
ag10
(g14
S'\x8el\xe7\xfb\xa91a@'
p115
tp116
Rp117
ag10
(g14
S'\xbd\xf3\xfd\xd4x\x95c@'
p118
tp119
Rp120
ag10
(g14
S'\xae\x1cZd;\xa1a@'
p121
tp122
Rp123
ag10
(g14
S'\xa0\x9b\xc4 \xb0\xdca@'
p124
tp125
Rp126
ag10
(g14
S'\xea&1\x08\xac$a@'
p127
tp128
Rp129
ag10
(g14
S'u\x93\x18\x04VVa@'
p130
tp131
Rp132
ag10
(g14
S'\xf9\xa9\xf1\xd2M\x12a@'
p133
tp134
Rp135
ag10
(g14
S'\xaa\x9b\xc4 \xb0zc@'
p136
tp137
Rp138
asssss.