(dp0
S'../Data/sqlite_55.csv'
p1
(dp2
S'../Data/sqlite_85.csv'
p3
(dp4
F0.25
(dp5
S'abs_res'
p6
(dp7
S'bellwether'
p8
(lp9
cnumpy.core.multiarray
scalar
p10
(cnumpy
dtype
p11
(S'f8'
p12
I0
I1
tp13
Rp14
(I3
S'<'
p15
NNNI-1
I-1
I0
tp16
bS'2\xdd$Z\xcd~TA'
p17
tp18
Rp19
ag10
(g14
S'!Zd\x1fsTTA'
p20
tp21
Rp22
ag10
(g14
S'\xa9\x8e\t&(eTA'
p23
tp24
Rp25
ag10
(g14
S'\x19\xaeG\xf5\xa1\x81TA'
p26
tp27
Rp28
ag10
(g14
S'6\xa5\xe2\xd4]\x8fTA'
p29
tp30
Rp31
ag10
(g14
S'\xb5\xac\xd5]UbTA'
p32
tp33
Rp34
ag10
(g14
S'\x0b\xf3D\xa1\xd1}TA'
p35
tp36
Rp37
ag10
(g14
S'\xaf\xf1\xd2\xd5\x1c\xb1TA'
p38
tp39
Rp40
ag10
(g14
S'\xa6\x1cZ\x84\x17\x86TA'
p41
tp42
Rp43
ag10
(g14
S']\x03\x9d\x86DjTA'
p44
tp45
Rp46
ag10
(g14
S'\xfd7B\xc5+\xc1TA'
p47
tp48
Rp49
ag10
(g14
S'\xd3>|\xde\xbawTA'
p50
tp51
Rp52
ag10
(g14
S'\xd7\xa1E\xa6\x83uTA'
p53
tp54
Rp55
ag10
(g14
S'\xc3\xf5(\xe0|UTA'
p56
tp57
Rp58
ag10
(g14
S'\xd8\x94\x8a\xe3\x12kTA'
p59
tp60
Rp61
ag10
(g14
S'\xa4)\x15\x87\xf3sTA'
p62
tp63
Rp64
ag10
(g14
S'\xcf"\xdb\x05\xa8TTA'
p65
tp66
Rp67
ag10
(g14
S'\\\x01r\xf7\xbfzTA'
p68
tp69
Rp70
ag10
(g14
S'\xa8\rt&%gTA'
p71
tp72
Rp73
ag10
(g14
S'I\x0c\x02Wl\xc5TA'
p74
tp75
Rp76
asS'target'
p77
(lp78
g10
(g14
S'\xc0\xf5(\\z)@A'
p79
tp80
Rp81
ag10
(g14
S'tww7\x9c7BA'
p82
tp83
Rp84
ag10
(g14
S'\x80\x14\xae\x87F\x9d>A'
p85
tp86
Rp87
ag10
(g14
S'\xa7p=J3N@A'
p88
tp89
Rp90
ag10
(g14
S'\x9a\x99\x999|\x01BA'
p91
tp92
Rp93
ag10
(g14
S'\xdez\x14.\x11\xba<A'
p94
tp95
Rp96
ag10
(g14
S'Q\xb8\x1e\x05x?>A'
p97
tp98
Rp99
ag10
(g14
S'\xfd(\\\x0fb/=A'
p100
tp101
Rp102
ag10
(g14
S'\xfa\xff\xff\x7fX(>A'
p103
tp104
Rp105
ag10
(g14
S'\r\xd7\xa30cl?A'
p106
tp107
Rp108
ag10
(g14
S'^\x8f\xc2\xb5\x92J>A'
p109
tp110
Rp111
ag10
(g14
S'k=\n\x17\x12f?A'
p112
tp113
Rp114
ag10
(g14
S'kfff_\x95?A'
p115
tp116
Rp117
ag10
(g14
S'\xfd\xff\xff\xbf\x1ff<A'
p118
tp119
Rp120
ag10
(g14
S'+\\\x8f\x82\xc4c@A'
p121
tp122
Rp123
ag10
(g14
S'\xbc\x1e\x85k\xe0\x01=A'
p124
tp125
Rp126
ag10
(g14
S'\x90\xc2\xf5\xa8\xa7S@A'
p127
tp128
Rp129
ag10
(g14
S'C\n\xd7\x03\xcd)@A'
p130
tp131
Rp132
ag10
(g14
S'\x14\xaeG\xe1\xa9\x90>A'
p133
tp134
Rp135
ag10
(g14
S'K\xe1z\xf4&>@A'
p136
tp137
Rp138
asssss.