(dp0
S'../Data/sqlite_58.csv'
p1
(dp2
S'../Data/sqlite_62.csv'
p3
(dp4
F0.1
(dp5
S'mmre'
p6
(dp7
S'bellwether'
p8
(lp9
cnumpy.core.multiarray
scalar
p10
(cnumpy
dtype
p11
(S'f8'
p12
I0
I1
tp13
Rp14
(I3
S'<'
p15
NNNI-1
I-1
I0
tp16
bS'\xda$\xf5\x93%FT@'
p17
tp18
Rp19
ag10
(g14
S'\xa5l\x0c\x88HHT@'
p20
tp21
Rp22
ag10
(g14
S'\x16\x15\x87-\xabFT@'
p23
tp24
Rp25
ag10
(g14
S'\xae~\x11\x89\xa4HT@'
p26
tp27
Rp28
ag10
(g14
S'\xc8\x02\x85Q\xe0GT@'
p29
tp30
Rp31
ag10
(g14
S'%4-B)GT@'
p32
tp33
Rp34
ag10
(g14
S'\xee~\xeb\xd9CFT@'
p35
tp36
Rp37
ag10
(g14
S'^i\\#\xbeGT@'
p38
tp39
Rp40
ag10
(g14
S'b\xe8\xd3x\xaeHT@'
p41
tp42
Rp43
ag10
(g14
S'\td\x91\xd0CGT@'
p44
tp45
Rp46
ag10
(g14
S'\x99\x8flB\x1fHT@'
p47
tp48
Rp49
ag10
(g14
S'2\x0b ;\x81GT@'
p50
tp51
Rp52
ag10
(g14
S' \x93^*\x8fFT@'
p53
tp54
Rp55
ag10
(g14
S"\xf3/\xec';GT@"
p56
tp57
Rp58
ag10
(g14
S'\x9c\xdf/\xe4ZGT@'
p59
tp60
Rp61
ag10
(g14
S'\xd7\x06\x02>\x0eIT@'
p62
tp63
Rp64
ag10
(g14
S'u\xdb}\xa4dGT@'
p65
tp66
Rp67
ag10
(g14
S't\x12\xcc\xf2\xb8FT@'
p68
tp69
Rp70
ag10
(g14
S'_\xacy\x05`GT@'
p71
tp72
Rp73
ag10
(g14
S'\xd04\xef.\x91HT@'
p74
tp75
Rp76
asS'target'
p77
(lp78
g10
(g14
S'\xa0\xcf\xa4\x84\xb9\xf1 @'
p79
tp80
Rp81
ag10
(g14
S'\xd1\xf1\xb7\xf1\xce\xaa @'
p82
tp83
Rp84
ag10
(g14
S'\xee\xcb\xbe2\xd4\xe6"@'
p85
tp86
Rp87
ag10
(g14
S'\xa7\xb6\xe4\x97\x84\xb4 @'
p88
tp89
Rp90
ag10
(g14
S'\x87\xfc\xc9\xccq\x1c"@'
p91
tp92
Rp93
ag10
(g14
S'\x9an\x17l\xce\x80"@'
p94
tp95
Rp96
ag10
(g14
S'\x9a\xda\x90\xe7yl#@'
p97
tp98
Rp99
ag10
(g14
S'\xb7Z%~E\xa0#@'
p100
tp101
Rp102
ag10
(g14
S'\x0e\nC\xc1\xd9-!@'
p103
tp104
Rp105
ag10
(g14
S'[\x81c31\x1b"@'
p106
tp107
Rp108
ag10
(g14
S'\x02g\xb2\xda\xe1\x8e @'
p109
tp110
Rp111
ag10
(g14
S'\xfe\xa6p\xc8na @'
p112
tp113
Rp114
ag10
(g14
S'YG \t\x8f\x86"@'
p115
tp116
Rp117
ag10
(g14
S'\x82RB\x8b\x0e&"@'
p118
tp119
Rp120
ag10
(g14
S'\xf0=_\xf8\xea\x84"@'
p121
tp122
Rp123
ag10
(g14
S'\x7fZ\xf5\xb0\xa2\xe7\x1f@'
p124
tp125
Rp126
ag10
(g14
S'<\xf3I\xf94z"@'
p127
tp128
Rp129
ag10
(g14
S'B\x9bR\xcb\xfeC"@'
p130
tp131
Rp132
ag10
(g14
S'U\xdbE\n\x07\x0f"@'
p133
tp134
Rp135
ag10
(g14
S'U\x1e0\t\xe6q#@'
p136
tp137
Rp138
asssss.