(dp0
S'../Data/sqlite_49.csv'
p1
(dp2
S'../Data/sqlite_63.csv'
p3
(dp4
F0.3
(dp5
S'mmre'
p6
(dp7
S'bellwether'
p8
(lp9
cnumpy.core.multiarray
scalar
p10
(cnumpy
dtype
p11
(S'f8'
p12
I0
I1
tp13
Rp14
(I3
S'<'
p15
NNNI-1
I-1
I0
tp16
bS'c\xf9\xaf|\xd1\x83H@'
p17
tp18
Rp19
ag10
(g14
S'\xc7\x95\xf8\xc8\ryH@'
p20
tp21
Rp22
ag10
(g14
S'\xf0<7\x90ktH@'
p23
tp24
Rp25
ag10
(g14
S'e\xe366\x94rH@'
p26
tp27
Rp28
ag10
(g14
S',-\xf7\x1a\x15pH@'
p29
tp30
Rp31
ag10
(g14
S'\xc2\x0fb\x02\xb7rH@'
p32
tp33
Rp34
ag10
(g14
S'\xd1ri\xdd\xa7lH@'
p35
tp36
Rp37
ag10
(g14
S'~\xca5+\xffyH@'
p38
tp39
Rp40
ag10
(g14
S'\xc7s;<\xd5gH@'
p41
tp42
Rp43
ag10
(g14
S'9\xc1%e\x02tH@'
p44
tp45
Rp46
ag10
(g14
S'\xb9\x9c\xd8\xe6>wH@'
p47
tp48
Rp49
ag10
(g14
S'\xcdn\xd7\xd9Z{H@'
p50
tp51
Rp52
ag10
(g14
S'\xf21\xb6\xba2xH@'
p53
tp54
Rp55
ag10
(g14
S'+T\n"\xb3\x8dH@'
p56
tp57
Rp58
ag10
(g14
S'iQ\xd5;\xa1\x8aH@'
p59
tp60
Rp61
ag10
(g14
S'K\xe0\x826\x9exH@'
p62
tp63
Rp64
ag10
(g14
S'\xc7\x12\x87bT\x85H@'
p65
tp66
Rp67
ag10
(g14
S'\xa7\xfb\xb2z\xd2zH@'
p68
tp69
Rp70
ag10
(g14
S'\xbf\xday\xf9Y\x7fH@'
p71
tp72
Rp73
ag10
(g14
S'\xed\x06\xfd\x08gvH@'
p74
tp75
Rp76
asS'target'
p77
(lp78
g10
(g14
S't#B\xb8\xc2\x11#@'
p79
tp80
Rp81
ag10
(g14
S'\x12!\xb8k\x97l"@'
p82
tp83
Rp84
ag10
(g14
S'\\Q&G\xdb\x93$@'
p85
tp86
Rp87
ag10
(g14
S'\xad\x8d\x1aY\x1av"@'
p88
tp89
Rp90
ag10
(g14
S'\xf9\xee\x10\x07\xc9\xd7"@'
p91
tp92
Rp93
ag10
(g14
S'\x0cj\x0c\x96\xa7J"@'
p94
tp95
Rp96
ag10
(g14
S'ZM\x12B\xfbU"@'
p97
tp98
Rp99
ag10
(g14
S'\xec\xd3\tC\r*#@'
p100
tp101
Rp102
ag10
(g14
S'\xd0\xb4sAg\xa2"@'
p103
tp104
Rp105
ag10
(g14
S'\xfa;TOn\xe5"@'
p106
tp107
Rp108
ag10
(g14
S'\x02\xee\x05\x17\x8d\x9f"@'
p109
tp110
Rp111
ag10
(g14
S'\x80X\xd6\xd9(\xd8#@'
p112
tp113
Rp114
ag10
(g14
S'\x07\x1d\x84\x88 7#@'
p115
tp116
Rp117
ag10
(g14
S'\x02\x15\x1a \xd0\x86!@'
p118
tp119
Rp120
ag10
(g14
S'n=\x7f\xa9\xfb\x01#@'
p121
tp122
Rp123
ag10
(g14
S'DM\x16\x05s\xb1"@'
p124
tp125
Rp126
ag10
(g14
S'X\xc9C\xd2\xc6\xff!@'
p127
tp128
Rp129
ag10
(g14
S'\xf7\xca!qAP#@'
p130
tp131
Rp132
ag10
(g14
S'0>t\xfa\x051#@'
p133
tp134
Rp135
ag10
(g14
S'\x82\xe5\x1f\xa9 R#@'
p136
tp137
Rp138
asssss.