(dp0
S'../Data/sqlite_5.csv'
p1
(dp2
S'../Data/sqlite_73.csv'
p3
(dp4
F0.3
(dp5
S'mmre'
p6
(dp7
S'bellwether'
p8
(lp9
cnumpy.core.multiarray
scalar
p10
(cnumpy
dtype
p11
(S'f8'
p12
I0
I1
tp13
Rp14
(I3
S'<'
p15
NNNI-1
I-1
I0
tp16
bS'>\x94\xa2\x99X.M@'
p17
tp18
Rp19
ag10
(g14
S'|\x03\x07\x04\xeb<M@'
p20
tp21
Rp22
ag10
(g14
S'B\xa5z(\xda6M@'
p23
tp24
Rp25
ag10
(g14
S'\xca\x99^3K=M@'
p26
tp27
Rp28
ag10
(g14
S'\x02xLdEEM@'
p29
tp30
Rp31
ag10
(g14
S'67|\x92\r5M@'
p32
tp33
Rp34
ag10
(g14
S'\xf2\xf2|\xbc\xbbFM@'
p35
tp36
Rp37
ag10
(g14
S'7\xde\xcam\x9aBM@'
p38
tp39
Rp40
ag10
(g14
S'\xb0,.\xeexOM@'
p41
tp42
Rp43
ag10
(g14
S"*9\xd7n'-M@"
p44
tp45
Rp46
ag10
(g14
S'yA\xed\xe3\x8fKM@'
p47
tp48
Rp49
ag10
(g14
S'\xbb\x1d\xbc\xcc\xd8BM@'
p50
tp51
Rp52
ag10
(g14
S'8\x1a{\xf1\x7fKM@'
p53
tp54
Rp55
ag10
(g14
S'c\x84Qq\xd8QM@'
p56
tp57
Rp58
ag10
(g14
S'b\xa7\xc6E\xb78M@'
p59
tp60
Rp61
ag10
(g14
S'rj\x1b!\xc7?M@'
p62
tp63
Rp64
ag10
(g14
S'\xda\xec\xac\xcd_HM@'
p65
tp66
Rp67
ag10
(g14
S'9o\xdc\x89\xd19M@'
p68
tp69
Rp70
ag10
(g14
S'j\x94\x15\xc3_CM@'
p71
tp72
Rp73
ag10
(g14
S'BE\xa6\x9e/?M@'
p74
tp75
Rp76
asS'target'
p77
(lp78
g10
(g14
S'0~f\xc9\xcd]+@'
p79
tp80
Rp81
ag10
(g14
S'\xb2\x9c\x82\xc06\xd2-@'
p82
tp83
Rp84
ag10
(g14
S'\xce\xe3\xec\x87\xf1\xa9,@'
p85
tp86
Rp87
ag10
(g14
S"\x17N\x18':\x9c*@"
p88
tp89
Rp90
ag10
(g14
S'\x00x.\\\x05\x8f*@'
p91
tp92
Rp93
ag10
(g14
S'/\x8d\xde\x9cK\xe8,@'
p94
tp95
Rp96
ag10
(g14
S'%\xcc5\xa1\xe9T(@'
p97
tp98
Rp99
ag10
(g14
S'\xe9/\xd4+\xfc\x7f,@'
p100
tp101
Rp102
ag10
(g14
S'\xa7~\x84\xde\xd3r)@'
p103
tp104
Rp105
ag10
(g14
S"6\x102\x005'+@"
p106
tp107
Rp108
ag10
(g14
S'I\xde\xfb{\xa4\xd0*@'
p109
tp110
Rp111
ag10
(g14
S'\x1a\xb3\x83\xc5\x18\xff)@'
p112
tp113
Rp114
ag10
(g14
S'\x83\xf8\x92\x81n\xf5)@'
p115
tp116
Rp117
ag10
(g14
S'\xc8\xbf\xaf\x98\xaa\xf2+@'
p118
tp119
Rp120
ag10
(g14
S'\xf5\xe2\xb0Ol?,@'
p121
tp122
Rp123
ag10
(g14
S'd\xc9\x84w!\xe3,@'
p124
tp125
Rp126
ag10
(g14
S'\xd5F\t3\xd6\xc7+@'
p127
tp128
Rp129
ag10
(g14
S'\x00\xb6\xfb\xa2N\xcd*@'
p130
tp131
Rp132
ag10
(g14
S'\xec\xe4#gM\xa7,@'
p133
tp134
Rp135
ag10
(g14
S'\x1eM5\xb3\xb4\xcd-@'
p136
tp137
Rp138
asssss.