(dp0
S'../Data/sqlite_75.csv'
p1
(dp2
S'../Data/sqlite_67.csv'
p3
(dp4
F0.15
(dp5
S'mmre'
p6
(dp7
S'bellwether'
p8
(lp9
cnumpy.core.multiarray
scalar
p10
(cnumpy
dtype
p11
(S'f8'
p12
I0
I1
tp13
Rp14
(I3
S'<'
p15
NNNI-1
I-1
I0
tp16
bS'-\xb7\xb7dUgX@'
p17
tp18
Rp19
ag10
(g14
S'e\xc2\x907IgX@'
p20
tp21
Rp22
ag10
(g14
S'\xdai\x94\xd4DgX@'
p23
tp24
Rp25
ag10
(g14
S'\xfd\xeam\x1akgX@'
p26
tp27
Rp28
ag10
(g14
S'\x10\\o\xe4bgX@'
p29
tp30
Rp31
ag10
(g14
S'I`-QXgX@'
p32
tp33
Rp34
ag10
(g14
S'1\xb1\xdbpWgX@'
p35
tp36
Rp37
ag10
(g14
S'\xb7\xaci\xc0ggX@'
p38
tp39
Rp40
ag10
(g14
S'\xc0\xaaL;HgX@'
p41
tp42
Rp43
ag10
(g14
S']\x08\xfalWgX@'
p44
tp45
Rp46
ag10
(g14
S'\xb7\xc5\xa5\xeaPgX@'
p47
tp48
Rp49
ag10
(g14
S'\x84\xb7A\xe4SgX@'
p50
tp51
Rp52
ag10
(g14
S'\xf9\x16n?WgX@'
p53
tp54
Rp55
ag10
(g14
S'"\x0c\xd2\xe7<gX@'
p56
tp57
Rp58
ag10
(g14
S'\xabd\xc1\x0bKgX@'
p59
tp60
Rp61
ag10
(g14
S'\x8f\x184\xdbjgX@'
p62
tp63
Rp64
ag10
(g14
S'\x86o.\xe5UgX@'
p65
tp66
Rp67
ag10
(g14
S'\x04\xf91\x1bDgX@'
p68
tp69
Rp70
ag10
(g14
S'"\xe4\xf6\xe8kgX@'
p71
tp72
Rp73
ag10
(g14
S'x\x86\xe6\xc7MgX@'
p74
tp75
Rp76
asS'target'
p77
(lp78
g10
(g14
S'\x9d\x9e\x0e\x9e\x97B\xed?'
p79
tp80
Rp81
ag10
(g14
S'\xec:q5\xb1\xfa\xea?'
p82
tp83
Rp84
ag10
(g14
S'q\x88\xb6r\x87\xa5\xeb?'
p85
tp86
Rp87
ag10
(g14
S'*\x85}\x82Y"\xe9?'
p88
tp89
Rp90
ag10
(g14
S'\x11\xda\xa1\xb7)\\\xec?'
p91
tp92
Rp93
ag10
(g14
S'\xd2J\xa78\xa4\xe9\xea?'
p94
tp95
Rp96
ag10
(g14
S'j\x81_\xe7/\x8d\xed?'
p97
tp98
Rp99
ag10
(g14
S'\xd7=\xbf\xeba\xe8\xea?'
p100
tp101
Rp102
ag10
(g14
S'\xc5^#t\xe9\x9d\xeb?'
p103
tp104
Rp105
ag10
(g14
S'$\x9aYye2\xea?'
p106
tp107
Rp108
ag10
(g14
S'6t.\xa4\xfa\x12\xe9?'
p109
tp110
Rp111
ag10
(g14
S'\xd0A\xb9\x82\xb4\x97\xec?'
p112
tp113
Rp114
ag10
(g14
S'8\xad\xa9gc:\xea?'
p115
tp116
Rp117
ag10
(g14
S'\n2\x04\xd9\x93\x9f\xee?'
p118
tp119
Rp120
ag10
(g14
S'\r\x99\x8f\xa7\x1cH\xee?'
p121
tp122
Rp123
ag10
(g14
S'\x14w\xd5?a\xd9\xea?'
p124
tp125
Rp126
ag10
(g14
S'\x9cy\xb5\xc4`[\xeb?'
p127
tp128
Rp129
ag10
(g14
S' ^\xce*er\xe9?'
p130
tp131
Rp132
ag10
(g14
S'frCl\xce\xaa\xea?'
p133
tp134
Rp135
ag10
(g14
S'\x00 \x02\xbe+y\xea?'
p136
tp137
Rp138
asssss.