(dp0
S'../Data/sqlite_55.csv'
p1
(dp2
S'../Data/sqlite_7.csv'
p3
(dp4
F0.05
(dp5
S'abs_res'
p6
(dp7
S'bellwether'
p8
(lp9
cnumpy.core.multiarray
scalar
p10
(cnumpy
dtype
p11
(S'f8'
p12
I0
I1
tp13
Rp14
(I3
S'<'
p15
NNNI-1
I-1
I0
tp16
bS'\xbd\xca\xa1E\x18X\xe7@'
p17
tp18
Rp19
ag10
(g14
S'\xf9F(\xa39[\xe7@'
p20
tp21
Rp22
ag10
(g14
S'\xacG\xe1z.Z\xe7@'
p23
tp24
Rp25
ag10
(g14
S'\xb3p=\n3W\xe7@'
p26
tp27
Rp28
ag10
(g14
S'\x97C\x8bl\x07W\xe7@'
p29
tp30
Rp31
ag10
(g14
S'\x90n\x12\x83"Y\xe7@'
p32
tp33
Rp34
ag10
(g14
S'\xe1$\x06\x81\xe1Y\xe7@'
p35
tp36
Rp37
ag10
(g14
S'\x14Zd;\xa7S\xe7@'
p38
tp39
Rp40
ag10
(g14
S'"\xdb\xf9~FV\xe7@'
p41
tp42
Rp43
ag10
(g14
S'{?5^|Y\xe7@'
p44
tp45
Rp46
ag10
(g14
S'#/\xdd$4U\xe7@'
p47
tp48
Rp49
ag10
(g14
S'\xcf\xcc\xcc\xcc\x88X\xe7@'
p50
tp51
Rp52
ag10
(g14
S' 1\x08\xac~Y\xe7@'
p53
tp54
Rp55
ag10
(g14
S's\xe9&1FY\xe7@'
p56
tp57
Rp58
ag10
(g14
S'k\x12\x83\xc0\xd8[\xe7@'
p59
tp60
Rp61
ag10
(g14
S'9333\xb3Y\xe7@'
p62
tp63
Rp64
ag10
(g14
S'\xd4"\xdb\xf9\xeeZ\xe7@'
p65
tp66
Rp67
ag10
(g14
S'\x82?5^~[\xe7@'
p68
tp69
Rp70
ag10
(g14
S'\xcd\xf7S\xe3#Y\xe7@'
p71
tp72
Rp73
ag10
(g14
S'|\xe9&1lY\xe7@'
p74
tp75
Rp76
asS'target'
p77
(lp78
g10
(g14
S'\x0e\x02+\x87\x16\xb5h@'
p79
tp80
Rp81
ag10
(g14
S'\xff\xd6\xa3p=\nn@'
p82
tp83
Rp84
ag10
(g14
S'\x83\x95C\x8blGk@'
p85
tp86
Rp87
ag10
(g14
S'~\xe9&1\x08\nk@'
p88
tp89
Rp90
ag10
(g14
S'\xbe\xc8v\xbe\x9f\xean@'
p91
tp92
Rp93
ag10
(g14
S'\x90C\x8bl\xe7\xd5q@'
p94
tp95
Rp96
ag10
(g14
S'\xc3\xf5(\\\x8f0p@'
p97
tp98
Rp99
ag10
(g14
S'\x1e\x06\x81\x95CCk@'
p100
tp101
Rp102
ag10
(g14
S'=\x8bl\xe7\xfb1o@'
p103
tp104
Rp105
ag10
(g14
S'\xab\xf1\xd2Mb\x04u@'
p106
tp107
Rp108
ag10
(g14
S'\x8d\x95C\x8blEo@'
p109
tp110
Rp111
ag10
(g14
S'\x1e\x06\x81\x95CSn@'
p112
tp113
Rp114
ag10
(g14
S'^ffff\xfcj@'
p115
tp116
Rp117
ag10
(g14
S'\xfb\xa9\xf1\xd2M^m@'
p118
tp119
Rp120
ag10
(g14
S'\xa8E\xb6\xf3\xfdzs@'
p121
tp122
Rp123
ag10
(g14
S'\x84\xed|?5\x06l@'
p124
tp125
Rp126
ag10
(g14
S'\xfc~j\xbctkp@'
p127
tp128
Rp129
ag10
(g14
S'\xaeG\xe1z\x14rm@'
p130
tp131
Rp132
ag10
(g14
S'\xee\xfd\xd4x\xe9\x86o@'
p133
tp134
Rp135
ag10
(g14
S'\xc6K7\x89A2p@'
p136
tp137
Rp138
asssss.