(dp0
S'../Data/sqlite_24.csv'
p1
(dp2
S'../Data/sqlite_46.csv'
p3
(dp4
F0.15
(dp5
S'abs_res'
p6
(dp7
S'bellwether'
p8
(lp9
cnumpy.core.multiarray
scalar
p10
(cnumpy
dtype
p11
(S'f8'
p12
I0
I1
tp13
Rp14
(I3
S'<'
p15
NNNI-1
I-1
I0
tp16
bS'y\x14\xae\x87\t/;A'
p17
tp18
Rp19
ag10
(g14
S"'\\\x8f\x02\xf4.;A"
p20
tp21
Rp22
ag10
(g14
S'\xd0\xcc\xcc\x0c6/;A'
p23
tp24
Rp25
ag10
(g14
S'\xf0Q\xb8\x9e"0;A'
p26
tp27
Rp28
ag10
(g14
S'833\x939/;A'
p29
tp30
Rp31
ag10
(g14
S'%\\\x8fB\xed.;A'
p32
tp33
Rp34
ag10
(g14
S'}\x14\xae\xa7\xff.;A'
p35
tp36
Rp37
ag10
(g14
S'}\x14\xae\xa7\xe7.;A'
p38
tp39
Rp40
ag10
(g14
S'\xe7z\x14\x8eG/;A'
p41
tp42
Rp43
ag10
(g14
S'\xc5\x1e\x85k\x150;A'
p44
tp45
Rp46
ag10
(g14
S'333\x13g/;A'
p47
tp48
Rp49
ag10
(g14
S'\xad\x1e\x85\xeb\xb6/;A'
p50
tp51
Rp52
ag10
(g14
S'>33\xb3\x86.;A'
p53
tp54
Rp55
ag10
(g14
S'\xb5G\xe1z\x82/;A'
p56
tp57
Rp58
ag10
(g14
S'\x9f\x99\x99\x99\x99-;A'
p59
tp60
Rp61
ag10
(g14
S'933\x13\xb10;A'
p62
tp63
Rp64
ag10
(g14
S'z=\nw\x7f.;A'
p65
tp66
Rp67
ag10
(g14
S'\xd5\xa3p\xbd\x9f1;A'
p68
tp69
Rp70
ag10
(g14
S'mff\x86\xb6/;A'
p71
tp72
Rp73
ag10
(g14
S':\n\xd7#/0;A'
p74
tp75
Rp76
asS'target'
p77
(lp78
g10
(g14
S'\xc8\xcc\xcc\xcc\x0c\xff\xc7@'
p79
tp80
Rp81
ag10
(g14
S'\x9e\x99\x99\x99Y\xfd\xc6@'
p82
tp83
Rp84
ag10
(g14
S'nfffF\xcc\xca@'
p85
tp86
Rp87
ag10
(g14
S'Xfff\xe6\xd4\xca@'
p88
tp89
Rp90
ag10
(g14
S';333\xf3\xb2\xca@'
p91
tp92
Rp93
ag10
(g14
S'\xea\xcc\xcc\xccLE\xcb@'
p94
tp95
Rp96
ag10
(g14
S'bfff&l\xca@'
p97
tp98
Rp99
ag10
(g14
S'\xa8\x99\x99\x99YO\xca@'
p100
tp101
Rp102
ag10
(g14
S'kfff\xa6=\xcc@'
p103
tp104
Rp105
ag10
(g14
S'\xd7\xcc\xcc\xcc\xac\xc8\xca@'
p106
tp107
Rp108
ag10
(g14
S'<333sj\xc7@'
p109
tp110
Rp111
ag10
(g14
S'D333\xb3X\xc9@'
p112
tp113
Rp114
ag10
(g14
S'\xcf\xcc\xcc\xccL\xb1\xca@'
p115
tp116
Rp117
ag10
(g14
S'5333\xf3\x92\xcb@'
p118
tp119
Rp120
ag10
(g14
S'wfff\xe6\x91\xc9@'
p121
tp122
Rp123
ag10
(g14
S'0333\xb3\x1a\xc8@'
p124
tp125
Rp126
ag10
(g14
S'@333\xf3\xfa\xc9@'
p127
tp128
Rp129
ag10
(g14
S'jfff&\xb4\xc9@'
p130
tp131
Rp132
ag10
(g14
S'\x00\x00\x00\x00\x00\x9f\xc7@'
p133
tp134
Rp135
ag10
(g14
S'>333\xb3\xaa\xc7@'
p136
tp137
Rp138
asssss.