(dp0
S'../Data/sqlite_43.csv'
p1
(dp2
S'../Data/sqlite_28.csv'
p3
(dp4
F0.2
(dp5
S'abs_res'
p6
(dp7
S'bellwether'
p8
(lp9
cnumpy.core.multiarray
scalar
p10
(cnumpy
dtype
p11
(S'f8'
p12
I0
I1
tp13
Rp14
(I3
S'<'
p15
NNNI-1
I-1
I0
tp16
bS'D7\x89\x81{W>A'
p17
tp18
Rp19
ag10
(g14
S'\x17/\xdd\xc4\tW>A'
p20
tp21
Rp22
ag10
(g14
S'I\x0c\x02k\xecW>A'
p23
tp24
Rp25
ag10
(g14
S'\xa1E\xb6s\x99V>A'
p26
tp27
Rp28
ag10
(g14
S'n\x12\x83\xc0\xafW>A'
p29
tp30
Rp31
ag10
(g14
S'=`\xe5peX>A'
p32
tp33
Rp34
ag10
(g14
S'`W\x80\xbc\xecU>A'
p35
tp36
Rp37
ag10
(g14
S'\xae\x9d\xef\xc7wW>A'
p38
tp39
Rp40
ag10
(g14
S'\x12\x11\x11\xf1\xfaV>A'
p41
tp42
Rp43
ag10
(g14
S'BS*\xae\xa5W>A'
p44
tp45
Rp46
ag10
(g14
S'\xa9\x8c\xde6\x95W>A'
p47
tp48
Rp49
ag10
(g14
S'\xf8S\xe3%\x9cV>A'
p50
tp51
Rp52
ag10
(g14
S'V\x8f\xc2U\xaeV>A'
p53
tp54
Rp55
ag10
(g14
S't\xe9&q\x9eW>A'
p56
tp57
Rp58
ag10
(g14
S'1\xdd$F\xfbW>A'
p59
tp60
Rp61
ag10
(g14
S'$\xb2\x9do\x87W>A'
p62
tp63
Rp64
ag10
(g14
S'$$MI\x97W>A'
p65
tp66
Rp67
ag10
(g14
S'\xe3\x98\xe0\xa1\x0cW>A'
p68
tp69
Rp70
ag10
(g14
S'\xa9G\xe1:JV>A'
p71
tp72
Rp73
ag10
(g14
S'\x16\x85\xeb\xf1#W>A'
p74
tp75
Rp76
asS'target'
p77
(lp78
g10
(g14
S'\x92\x1a/\xdd$\xd6^@'
p79
tp80
Rp81
ag10
(g14
S'@\n\xd7\xa3p\xadc@'
p82
tp83
Rp84
ag10
(g14
S'\xa4\xc6K7\x89-c@'
p85
tp86
Rp87
ag10
(g14
S'\x9d\xef\xa7\xc6Koa@'
p88
tp89
Rp90
ag10
(g14
S'\x0bX9\xb4\xc82a@'
p91
tp92
Rp93
ag10
(g14
S'\x04\xd7\xa3p=r`@'
p94
tp95
Rp96
ag10
(g14
S'\xdd\xa3p=\n\x1f^@'
p97
tp98
Rp99
ag10
(g14
S'\xb9\x1e\x85\xebQ\xb8`@'
p100
tp101
Rp102
ag10
(g14
S'W\xe3\xa5\x9b\xc48b@'
p103
tp104
Rp105
ag10
(g14
S'q\xbe\x9f\x1a/s`@'
p106
tp107
Rp108
ag10
(g14
S'j\xe7\xfb\xa9\xf1\xf2`@'
p109
tp110
Rp111
ag10
(g14
S'\xf5(\\\x8f\xc2\xeb`@'
p112
tp113
Rp114
ag10
(g14
S'\x1c\x04V\x0e-$a@'
p115
tp116
Rp117
ag10
(g14
S'D\x8bl\xe7\xfb\x01c@'
p118
tp119
Rp120
ag10
(g14
S'G\xe1z\x14\xae\xe3`@'
p121
tp122
Rp123
ag10
(g14
S'\xef\xa7\xc6K7Ec@'
p124
tp125
Rp126
ag10
(g14
S'\x9c\xc4 \xb0r\x88b@'
p127
tp128
Rp129
ag10
(g14
S'r\x93\x18\x04VRd@'
p130
tp131
Rp132
ag10
(g14
S'\xcbv\xbe\x9f\x1a\x8fb@'
p133
tp134
Rp135
ag10
(g14
S'\x1b\xb0rh\x91\x05a@'
p136
tp137
Rp138
asssss.