(dp0
S'../Data/sqlite_71.csv'
p1
(dp2
S'../Data/sqlite_56.csv'
p3
(dp4
F0.35
(dp5
S'abs_res'
p6
(dp7
S'bellwether'
p8
(lp9
cnumpy.core.multiarray
scalar
p10
(cnumpy
dtype
p11
(S'f8'
p12
I0
I1
tp13
Rp14
(I3
S'<'
p15
NNNI-1
I-1
I0
tp16
bS'\xf6\xe13|\xcf9fA'
p17
tp18
Rp19
ag10
(g14
S'\xe4\xa5\x9b\x94\xb2EfA'
p20
tp21
Rp22
ag10
(g14
S'3\xf9\xc5\xa6\xc5:fA'
p23
tp24
Rp25
ag10
(g14
S'U\xf0`\xb6\xcf?fA'
p26
tp27
Rp28
ag10
(g14
S'\x92\xde\x96\xc9\xbdDfA'
p29
tp30
Rp31
ag10
(g14
S'\x87j\xbc\xfc\x042fA'
p32
tp33
Rp34
ag10
(g14
S'D\xb6\xf3e\x8d9fA'
p35
tp36
Rp37
ag10
(g14
S"2O\xd4CB'fA"
p38
tp39
Rp40
ag10
(g14
S'\xd2\xb0+\xe4]?fA'
p41
tp42
Rp43
ag10
(g14
S'J\x0c\x02\xf3\xe69fA'
p44
tp45
Rp46
ag10
(g14
S'0@\xeeu\x95BfA'
p47
tp48
Rp49
ag10
(g14
S'\xa8\xb7e\x85\x12<fA'
p50
tp51
Rp52
ag10
(g14
S'\xd7\xf9~\x9ev3fA'
p53
tp54
Rp55
ag10
(g14
S'B\xb4\xc8\xf2\x181fA'
p56
tp57
Rp58
ag10
(g14
S'\xed\xdf\x08\xe1w5fA'
p59
tp60
Rp61
ag10
(g14
S'\x0e\xe4^\x7f\x98?fA'
p62
tp63
Rp64
ag10
(g14
S'"iJU\xee9fA'
p65
tp66
Rp67
ag10
(g14
S'<B\x19\xe5%>fA'
p68
tp69
Rp70
ag10
(g14
S'\xf1\xdf\x08\xfdk?fA'
p71
tp72
Rp73
ag10
(g14
S'\x1b>\xc3\xba\xe45fA'
p74
tp75
Rp76
asS'target'
p77
(lp78
g10
(g14
S'O\x0c\x02+\x87~Y@'
p79
tp80
Rp81
ag10
(g14
S'\xf6\xd4x\xe9&mZ@'
p82
tp83
Rp84
ag10
(g14
S'\x80\xe9&1\x08tZ@'
p85
tp86
Rp87
ag10
(g14
S'\x8a\xc2\xf5(\\sY@'
p88
tp89
Rp90
ag10
(g14
S'\x82\xebQ\xb8\x1e\x85Y@'
p91
tp92
Rp93
ag10
(g14
S':^\xbaI\x0crX@'
p94
tp95
Rp96
ag10
(g14
S"'1\x08\xac\x1cFY@"
p97
tp98
Rp99
ag10
(g14
S'1\xb2\x9d\xef\xa7.Y@'
p100
tp101
Rp102
ag10
(g14
S'oh\x91\xed|\xa3Y@'
p103
tp104
Rp105
ag10
(g14
S'J5^\xbaI\xf8X@'
p106
tp107
Rp108
ag10
(g14
S'\xc3v\xbe\x9f\x1aGX@'
p109
tp110
Rp111
ag10
(g14
S'\x19\xb0rh\x91\xb5Z@'
p112
tp113
Rp114
ag10
(g14
S'\xd3"\xdb\xf9~\xe2Y@'
p115
tp116
Rp117
ag10
(g14
S'\x9d\xc6K7\x89uY@'
p118
tp119
Rp120
ag10
(g14
S'g\x10X9\xb4\xfcX@'
p121
tp122
Rp123
ag10
(g14
S'73333\x97X@'
p124
tp125
Rp126
ag10
(g14
S'\x0e\x02+\x87\x16yY@'
p127
tp128
Rp129
ag10
(g14
S'nh\x91\xed|G[@'
p130
tp131
Rp132
ag10
(g14
S'\xfdU\x0e-\xb2\x19Z@'
p133
tp134
Rp135
ag10
(g14
S'\x8cA`\xe5\xd06Y@'
p136
tp137
Rp138
asssss.