(dp0
S'../Data/sqlite_60.csv'
p1
(dp2
S'../Data/sqlite_45.csv'
p3
(dp4
F0.15
(dp5
S'abs_res'
p6
(dp7
S'bellwether'
p8
(lp9
cnumpy.core.multiarray
scalar
p10
(cnumpy
dtype
p11
(S'f8'
p12
I0
I1
tp13
Rp14
(I3
S'<'
p15
NNNI-1
I-1
I0
tp16
bS'\x87\xa4)\xe5C6hA'
p17
tp18
Rp19
ag10
(g14
S'\xb9I\x0c\x82\x86*hA'
p20
tp21
Rp22
ag10
(g14
S'\x82\xbe\x9f>\xcb-hA'
p23
tp24
Rp25
ag10
(g14
S'&\xdb\xf9\x12\x86!hA'
p26
tp27
Rp28
ag10
(g14
S'433789hA'
p29
tp30
Rp31
ag10
(g14
S'!\xb0r\x08u4hA'
p32
tp33
Rp34
ag10
(g14
S'3^\xba}\x946hA'
p35
tp36
Rp37
ag10
(g14
S'\x94\x97n&\x144hA'
p38
tp39
Rp40
ag10
(g14
S'e\x91\xed\xa0\x13*hA'
p41
tp42
Rp43
ag10
(g14
S'\xebQ\xb8r\xaa)hA'
p44
tp45
Rp46
ag10
(g14
S'0@\xeei|6hA'
p47
tp48
Rp49
ag10
(g14
S'\xc8Mb(84hA'
p50
tp51
Rp52
ag10
(g14
S'\xd9\xf9~\x82H+hA'
p53
tp54
Rp55
ag10
(g14
S'\xd2/\x96 \x0f2hA'
p56
tp57
Rp58
ag10
(g14
S'\xb4\xbb\xbb\xff\xa7/hA'
p59
tp60
Rp61
ag10
(g14
S'\xb4G\xe1Z$+hA'
p62
tp63
Rp64
ag10
(g14
S'\xafrh!]3hA'
p65
tp66
Rp67
ag10
(g14
S'*\x87\x16]\x937hA'
p68
tp69
Rp70
ag10
(g14
S'\xf57B\xcd04hA'
p71
tp72
Rp73
ag10
(g14
S'\xb5\xf3\xfdX\x031hA'
p74
tp75
Rp76
asS'target'
p77
(lp78
g10
(g14
S'\x9f\xc4 \xb0r\xc0m@'
p79
tp80
Rp81
ag10
(g14
S'9^\xbaI\x0c\xa4q@'
p82
tp83
Rp84
ag10
(g14
S'\xed\xd2Mb\x108n@'
p85
tp86
Rp87
ag10
(g14
S' \x85\xebQ\xb8Bq@'
p88
tp89
Rp90
ag10
(g14
S'\xcb\xa1E\xb6\xf3\xadn@'
p91
tp92
Rp93
ag10
(g14
S'\xb0\x1cZd;Ap@'
p94
tp95
Rp96
ag10
(g14
S'\xc4\xf5(\\\x8f<p@'
p97
tp98
Rp99
ag10
(g14
S'P\xe3\xa5\x9b\xc4\x84o@'
p100
tp101
Rp102
ag10
(g14
S'\xd4Mb\x10X\xddn@'
p103
tp104
Rp105
ag10
(g14
S'\x19\xb0rh\x91\xe1m@'
p106
tp107
Rp108
ag10
(g14
S'\xf7\xd2Mb\x10\x00q@'
p109
tp110
Rp111
ag10
(g14
S'\xf7\xff\xff\xff\xff\x99p@'
p112
tp113
Rp114
ag10
(g14
S'Zd;\xdfO\x06q@'
p115
tp116
Rp117
ag10
(g14
S'~\xc0\xca\xa1E\x88p@'
p118
tp119
Rp120
ag10
(g14
S'\xd2Mb\x10X$p@'
p121
tp122
Rp123
ag10
(g14
S'J\x0c\x02+\x87xp@'
p124
tp125
Rp126
ag10
(g14
S'\xe3\xd2Mb\x10\xc6q@'
p127
tp128
Rp129
ag10
(g14
S'\x08\x81\x95C\x8b6m@'
p130
tp131
Rp132
ag10
(g14
S'\xd9\xf9~j\xbc<o@'
p133
tp134
Rp135
ag10
(g14
S'F\x0c\x02+\x87\xd6l@'
p136
tp137
Rp138
asssss.