(dp0
S'../Data/sqlite_7.csv'
p1
(dp2
S'../Data/sqlite_77.csv'
p3
(dp4
F0.2
(dp5
S'mmre'
p6
(dp7
S'bellwether'
p8
(lp9
cnumpy.core.multiarray
scalar
p10
(cnumpy
dtype
p11
(S'f8'
p12
I0
I1
tp13
Rp14
(I3
S'<'
p15
NNNI-1
I-1
I0
tp16
bS'p\xc0\xaa\x80f<N@'
p17
tp18
Rp19
ag10
(g14
S'\x86\xf9\xd9\xcb\x90UN@'
p20
tp21
Rp22
ag10
(g14
S"7\xe3\xe25\xc2'N@"
p23
tp24
Rp25
ag10
(g14
S'v3\xedd\x91@N@'
p26
tp27
Rp28
ag10
(g14
S'\xbc\xb7%s\xa7EN@'
p29
tp30
Rp31
ag10
(g14
S'\xdd<\x8a\xa7\xb45N@'
p32
tp33
Rp34
ag10
(g14
S'\x9bC^\xb1SMN@'
p35
tp36
Rp37
ag10
(g14
S'n\x05*\x86\xbbBN@'
p38
tp39
Rp40
ag10
(g14
S'\xbe\x9e\xf7\x90kYN@'
p41
tp42
Rp43
ag10
(g14
S'k\xc6Vii@N@'
p44
tp45
Rp46
ag10
(g14
S'\xe6\xd3-W\x8aNN@'
p47
tp48
Rp49
ag10
(g14
S'\xa5%\x05\xe3}PN@'
p50
tp51
Rp52
ag10
(g14
S'\x95\x07\xf5\x06c6N@'
p53
tp54
Rp55
ag10
(g14
S'\x8eZ_\xddzDN@'
p56
tp57
Rp58
ag10
(g14
S'\x9d\xf5\x9c\x17\xe0)N@'
p59
tp60
Rp61
ag10
(g14
S':\xc1\xd2\x9906N@'
p62
tp63
Rp64
ag10
(g14
S'\x16|\xd6\xecpFN@'
p65
tp66
Rp67
ag10
(g14
S'\x8at>h\xbcKN@'
p68
tp69
Rp70
ag10
(g14
S"t\x12'\x87\xf4XN@"
p71
tp72
Rp73
ag10
(g14
S'\xcc:F\xdf\xfbAN@'
p74
tp75
Rp76
asS'target'
p77
(lp78
g10
(g14
S'3\x97\xd2W@W6@'
p79
tp80
Rp81
ag10
(g14
S'\x99\xc2\xc5\x86\xa8H5@'
p82
tp83
Rp84
ag10
(g14
S',<\x92\x9a\xd8\xa36@'
p85
tp86
Rp87
ag10
(g14
S'\xba\xc7C\xca\x0cm6@'
p88
tp89
Rp90
ag10
(g14
S'\x96F3\x0e\x96\xe35@'
p91
tp92
Rp93
ag10
(g14
S'r\xf6\xc1\x82\x07E5@'
p94
tp95
Rp96
ag10
(g14
S'\xbce#z~\x875@'
p97
tp98
Rp99
ag10
(g14
S'\x80O\xf9\xecr\xe46@'
p100
tp101
Rp102
ag10
(g14
S'zZG\xb5X\xfd5@'
p103
tp104
Rp105
ag10
(g14
S':\xb65\xaa&\xb04@'
p106
tp107
Rp108
ag10
(g14
S'p\xdc\x1fz\xcd:6@'
p109
tp110
Rp111
ag10
(g14
S'Y+\xa1\xb0\xee\xb65@'
p112
tp113
Rp114
ag10
(g14
S'\xe2\xea\xcbd-\x8f6@'
p115
tp116
Rp117
ag10
(g14
S'\xb6\x17Z\xc7\xdeK5@'
p118
tp119
Rp120
ag10
(g14
S'\x0c*|\xaew\xc16@'
p121
tp122
Rp123
ag10
(g14
S'n\x8d\x1b\xe65\xf85@'
p124
tp125
Rp126
ag10
(g14
S'0\x94\xd2,\x04\xde4@'
p127
tp128
Rp129
ag10
(g14
S'\x06\xa5\x87\xc9\xcf=4@'
p130
tp131
Rp132
ag10
(g14
S'\x94\xd5\xb8\x08~g6@'
p133
tp134
Rp135
ag10
(g14
S'\xa9B"8\xe5e5@'
p136
tp137
Rp138
asssss.