(dp0
S'../Data/sqlite_8.csv'
p1
(dp2
S'../Data/sqlite_50.csv'
p3
(dp4
F0.35
(dp5
S'abs_res'
p6
(dp7
S'bellwether'
p8
(lp9
cnumpy.core.multiarray
scalar
p10
(cnumpy
dtype
p11
(S'f8'
p12
I0
I1
tp13
Rp14
(I3
S'<'
p15
NNNI-1
I-1
I0
tp16
bS'\xe1\xa5\x9b\xc4 \x14X@'
p17
tp18
Rp19
ag10
(g14
S'>5^\xbaI\x08W@'
p20
tp21
Rp22
ag10
(g14
S'z!iJ\xc5\x01W@'
p23
tp24
Rp25
ag10
(g14
S'\xe0\x87\xcf\xb0+PW@'
p26
tp27
Rp28
ag10
(g14
S"\x1e\x13<\x98'FW@"
p29
tp30
Rp31
ag10
(g14
S'_\x1d\x13<\x98wV@'
p32
tp33
Rp34
ag10
(g14
S'\x94\xfcb\xc9/jW@'
p35
tp36
Rp37
ag10
(g14
S'q\x93\x18\x04V^W@'
p38
tp39
Rp40
ag10
(g14
S'\xf77B\x19\xbd\x99W@'
p41
tp42
Rp43
ag10
(g14
S'^s!iJuW@'
p44
tp45
Rp46
ag10
(g14
S'\x0e\xac\x1cZd\xffV@'
p47
tp48
Rp49
ag10
(g14
S'\ne\xf4\xb6\xaceW@'
p50
tp51
Rp52
ag10
(g14
S'\x98\xfcb\xc9/>W@'
p53
tp54
Rp55
ag10
(g14
S'\xd2\x87\xcf\xb0+\xe8W@'
p56
tp57
Rp58
ag10
(g14
S'\xa4E\xb6\xf3\xfd\x04W@'
p59
tp60
Rp61
ag10
(g14
S'yL\xf0`\x9e\xc4V@'
p62
tp63
Rp64
ag10
(g14
S'\x18 \xf7\x9a\x0b\rW@'
p65
tp66
Rp67
ag10
(g14
S')\xce>|\x865W@'
p68
tp69
Rp70
ag10
(g14
S'\x1bZd;\xdf\xe3W@'
p71
tp72
Rp73
ag10
(g14
S'~\xa2\xfe\x8dP\xf2W@'
p74
tp75
Rp76
asS'target'
p77
(lp78
g10
(g14
S'\xeb\xa5\x9b\xc4 \xd4U@'
p79
tp80
Rp81
ag10
(g14
S'&\x06\x81\x95C\x93U@'
p82
tp83
Rp84
ag10
(g14
S'\xd3"\xdb\xf9~nS@'
p85
tp86
Rp87
ag10
(g14
S'\xd9\xa3p=\nST@'
p88
tp89
Rp90
ag10
(g14
S' Zd;\xdf\xc3S@'
p91
tp92
Rp93
ag10
(g14
S'\xb7rh\x91\xed\xc8T@'
p94
tp95
Rp96
ag10
(g14
S'\xdc\xce\xf7S\xe3QU@'
p97
tp98
Rp99
ag10
(g14
S'wh\x91\xed|wT@'
p100
tp101
Rp102
ag10
(g14
S'\xef\xa7\xc6K7YU@'
p103
tp104
Rp105
ag10
(g14
S'\xfc\xff\xff\xff\xff\xebS@'
p106
tp107
Rp108
ag10
(g14
S'\xd6"\xdb\xf9~^U@'
p109
tp110
Rp111
ag10
(g14
S'\xb1\x1cZd;\x13S@'
p112
tp113
Rp114
ag10
(g14
S'=^\xbaI\x0c"U@'
p115
tp116
Rp117
ag10
(g14
S'\x88\xebQ\xb8\x1e%T@'
p118
tp119
Rp120
ag10
(g14
S' Zd;\xdfGV@'
p121
tp122
Rp123
ag10
(g14
S'\x01\xaa\xf1\xd2M\xa6U@'
p124
tp125
Rp126
ag10
(g14
S'\xb0I\x0c\x02+KV@'
p127
tp128
Rp129
ag10
(g14
S'\xd1\xa1E\xb6\xf3\xd9T@'
p130
tp131
Rp132
ag10
(g14
S'\xc8\xca\xa1E\xb6kT@'
p133
tp134
Rp135
ag10
(g14
S'\xc6K7\x89A\xacS@'
p136
tp137
Rp138
asssss.