(dp0
S'../Data/sqlite_37.csv'
p1
(dp2
S'../Data/sqlite_79.csv'
p3
(dp4
F0.2
(dp5
S'mmre'
p6
(dp7
S'bellwether'
p8
(lp9
cnumpy.core.multiarray
scalar
p10
(cnumpy
dtype
p11
(S'f8'
p12
I0
I1
tp13
Rp14
(I3
S'<'
p15
NNNI-1
I-1
I0
tp16
bS'\xd0,o\xf7\xac]E@'
p17
tp18
Rp19
ag10
(g14
S'\x98\xd0V\x07xYE@'
p20
tp21
Rp22
ag10
(g14
S'Y\xb8\x9c\xd85ZE@'
p23
tp24
Rp25
ag10
(g14
S'\xa2U\x9f\x92EWE@'
p26
tp27
Rp28
ag10
(g14
S'Uz\xf3 <GE@'
p29
tp30
Rp31
ag10
(g14
S'\xd8\xc45\xca\x0eWE@'
p32
tp33
Rp34
ag10
(g14
S't\x93\xc9*\x84gE@'
p35
tp36
Rp37
ag10
(g14
S'\xa2<\xf1K\xa3VE@'
p38
tp39
Rp40
ag10
(g14
S'@\xdcKf\x0cQE@'
p41
tp42
Rp43
ag10
(g14
S'._\x10\xe1f_E@'
p44
tp45
Rp46
ag10
(g14
S'm@O\xf0^TE@'
p47
tp48
Rp49
ag10
(g14
S'\xa22\x05\x8d0YE@'
p50
tp51
Rp52
ag10
(g14
S'\xe0<8\xb0\nPE@'
p53
tp54
Rp55
ag10
(g14
S'\x88wM\xdc\xb8`E@'
p56
tp57
Rp58
ag10
(g14
S'MC]{%OE@'
p59
tp60
Rp61
ag10
(g14
S'\x0c\x942k\xc7NE@'
p62
tp63
Rp64
ag10
(g14
S'\x96\x8c\xef\xb8\x83WE@'
p65
tp66
Rp67
ag10
(g14
S'H\xd7\x16\x93R\\E@'
p68
tp69
Rp70
ag10
(g14
S'|0_M\x82LE@'
p71
tp72
Rp73
ag10
(g14
S'2\x14_\x9a\xc1QE@'
p74
tp75
Rp76
asS'target'
p77
(lp78
g10
(g14
S'8\xf9\x95\xf2\xd67 @'
p79
tp80
Rp81
ag10
(g14
S'\xb2V\xeb\x8e=\xae"@'
p82
tp83
Rp84
ag10
(g14
S'\xc7?]\x9e\xdb\\\x1f@'
p85
tp86
Rp87
ag10
(g14
S"\xe2\xe2\xfd\xef\xe8\xef'@"
p88
tp89
Rp90
ag10
(g14
S'f\xfc\x8b\xa2s, @'
p91
tp92
Rp93
ag10
(g14
S';6\x18\xe9\xd9^#@'
p94
tp95
Rp96
ag10
(g14
S'J\xe7\x0c|\x8b\xe7\x1b@'
p97
tp98
Rp99
ag10
(g14
S'\x0b.|OI\xd2\x1b@'
p100
tp101
Rp102
ag10
(g14
S'U/\xddpy\xad!@'
p103
tp104
Rp105
ag10
(g14
S'\xc1\x9f\x1c^\xeba\x1f@'
p106
tp107
Rp108
ag10
(g14
S'\xe9v4\x0f3>$@'
p109
tp110
Rp111
ag10
(g14
S'\x98\xcc\r\xd2\x10\x99"@'
p112
tp113
Rp114
ag10
(g14
S'\x92\xf9\xfc\xa9}; @'
p115
tp116
Rp117
ag10
(g14
S'\xe6\n\x95#X\xc5 @'
p118
tp119
Rp120
ag10
(g14
S'i\xfe\xbbp*\xe4#@'
p121
tp122
Rp123
ag10
(g14
S'\x9a\xc7HR\xee\xa6%@'
p124
tp125
Rp126
ag10
(g14
S'Z/\xf906\x91"@'
p127
tp128
Rp129
ag10
(g14
S'\xfav\xca\x91\xa8U\x1d@'
p130
tp131
Rp132
ag10
(g14
S'\xc4\x87\xe6|\xc4\xba\x1f@'
p133
tp134
Rp135
ag10
(g14
S'\xec\xc7\x1c+\xe6\x05&@'
p136
tp137
Rp138
asssss.