(dp0
S'../Data/sqlite_66.csv'
p1
(dp2
S'../Data/sqlite_2.csv'
p3
(dp4
F0.1
(dp5
S'abs_res'
p6
(dp7
S'bellwether'
p8
(lp9
cnumpy.core.multiarray
scalar
p10
(cnumpy
dtype
p11
(S'f8'
p12
I0
I1
tp13
Rp14
(I3
S'<'
p15
NNNI-1
I-1
I0
tp16
bS'\x0b\xaeG!\xfbJ#A'
p17
tp18
Rp19
ag10
(g14
S'p=\n\x97\x1bK#A'
p20
tp21
Rp22
ag10
(g14
S'kww\xf7\xcaJ#A'
p23
tp24
Rp25
ag10
(g14
S'W\xf4\xb6,\xfcI#A'
p26
tp27
Rp28
ag10
(g14
S'I\xf0`\x1e\xdaJ#A'
p29
tp30
Rp31
ag10
(g14
S'N\x0e-2\x9aJ#A'
p32
tp33
Rp34
ag10
(g14
S'\xddO\x8dW\x95J#A'
p35
tp36
Rp37
ag10
(g14
S'8\xd2\x94J\xa4K#A'
p38
tp39
Rp40
ag10
(g14
S'y?5\x9esK#A'
p41
tp42
Rp43
ag10
(g14
S'\xe9\xdf\x08\xe5\xc4J#A'
p44
tp45
Rp46
ag10
(g14
S'\x8cC\x8b,PK#A'
p47
tp48
Rp49
ag10
(g14
S'\xb3\x1e\x85+.K#A'
p50
tp51
Rp52
ag10
(g14
S'\xd2\xa5\x9bD=K#A'
p53
tp54
Rp55
ag10
(g14
S'Hq\xf6\xe1\xd6J#A'
p56
tp57
Rp58
ag10
(g14
S'\xa1\x1a/\x1d(K#A'
p59
tp60
Rp61
ag10
(g14
S'\xf3\xfd\xd4\xb8\x11K#A'
p62
tp63
Rp64
ag10
(g14
S'X\xe5\xd0\xa2\xa1K#A'
p65
tp66
Rp67
ag10
(g14
S'\x19\\\x8f\xc2\xb7K#A'
p68
tp69
Rp70
ag10
(g14
S'mww\xb7\\K#A'
p71
tp72
Rp73
ag10
(g14
S'\xca\xa3p\xfd\xabK#A'
p74
tp75
Rp76
asS'target'
p77
(lp78
g10
(g14
S'\xab\xf1\xd2Mb\x88Q@'
p79
tp80
Rp81
ag10
(g14
S'\xaa\x1a/\xdd$\xe6U@'
p82
tp83
Rp84
ag10
(g14
S'<\x89A`\xe5\xe8X@'
p85
tp86
Rp87
ag10
(g14
S'&\xb0rh\x91uT@'
p88
tp89
Rp90
ag10
(g14
S'n\xbct\x93\x184U@'
p91
tp92
Rp93
ag10
(g14
S'\xc9\xa1E\xb6\xf3\xedQ@'
p94
tp95
Rp96
ag10
(g14
S'\xdax\xe9&1\xa8S@'
p97
tp98
Rp99
ag10
(g14
S'G\n\xd7\xa3p]V@'
p100
tp101
Rp102
ag10
(g14
S'\x80h\x91\xed|?U@'
p103
tp104
Rp105
ag10
(g14
S'\xec\xd0"\xdb\xf9\xaeV@'
p106
tp107
Rp108
ag10
(g14
S'\xa7\x1cZd;\x07R@'
p109
tp110
Rp111
ag10
(g14
S'\x1aZd;\xdfwY@'
p112
tp113
Rp114
ag10
(g14
S'\xe6$\x06\x81\x95\xc3Q@'
p115
tp116
Rp117
ag10
(g14
S'\x9d\x1a/\xdd$\xdeR@'
p118
tp119
Rp120
ag10
(g14
S'\xb6\xc8v\xbe\x9f\x1aR@'
p121
tp122
Rp123
ag10
(g14
S'B5^\xbaI\xe0R@'
p124
tp125
Rp126
ag10
(g14
S'X\xe3\xa5\x9b\xc4(P@'
p127
tp128
Rp129
ag10
(g14
S'\xc7K7\x89AhT@'
p130
tp131
Rp132
ag10
(g14
S'k;\xdfO\x8dgT@'
p133
tp134
Rp135
ag10
(g14
S'\xf1\xd0"\xdb\xf9\xdeS@'
p136
tp137
Rp138
asssss.