(dp0
S'../Data/sqlite_39.csv'
p1
(dp2
S'../Data/sqlite_76.csv'
p3
(dp4
F0.25
(dp5
S'mmre'
p6
(dp7
S'bellwether'
p8
(lp9
cnumpy.core.multiarray
scalar
p10
(cnumpy
dtype
p11
(S'f8'
p12
I0
I1
tp13
Rp14
(I3
S'<'
p15
NNNI-1
I-1
I0
tp16
bS'\xab4\xe8\x93\x9e\x86o@'
p17
tp18
Rp19
ag10
(g14
S'\xf3IM\xef\xa3mo@'
p20
tp21
Rp22
ag10
(g14
S'\xca|\x96&&ro@'
p23
tp24
Rp25
ag10
(g14
S'm\xaf\x1d\x80e\xbao@'
p26
tp27
Rp28
ag10
(g14
S'\xfc\x11\x07\xd5\x89Do@'
p29
tp30
Rp31
ag10
(g14
S'_/\xf1\x00\x9cio@'
p32
tp33
Rp34
ag10
(g14
S'\xd48\xe0f?8o@'
p35
tp36
Rp37
ag10
(g14
S'\x93s\x0cs\x0e=o@'
p38
tp39
Rp40
ag10
(g14
S'\xc3C\n\x11{ho@'
p41
tp42
Rp43
ag10
(g14
S' h\x93\x08\x95Oo@'
p44
tp45
Rp46
ag10
(g14
S'\x80\xe4\x84p<\x97o@'
p47
tp48
Rp49
ag10
(g14
S'-\xe7eI\x84io@'
p50
tp51
Rp52
ag10
(g14
S'\x14\xef8\xcf\xe47o@'
p53
tp54
Rp55
ag10
(g14
S'\xa2C\x18\\R\x81o@'
p56
tp57
Rp58
ag10
(g14
S'\xd5\xb1~2\xe8do@'
p59
tp60
Rp61
ag10
(g14
S'2\x92a\x1fUno@'
p62
tp63
Rp64
ag10
(g14
S"\x18H'\x94\xac\x87o@"
p65
tp66
Rp67
ag10
(g14
S'\xfe\xac\x11$glo@'
p68
tp69
Rp70
ag10
(g14
S'\n\xc054\xab[o@'
p71
tp72
Rp73
ag10
(g14
S"\xaf'\xa1 \xbaJo@"
p74
tp75
Rp76
asS'target'
p77
(lp78
g10
(g14
S'f\x81\x8fK>\xec0@'
p79
tp80
Rp81
ag10
(g14
S'\x8f5\xa4\x86~&1@'
p82
tp83
Rp84
ag10
(g14
S"C\xfaQ\x9a'<2@"
p85
tp86
Rp87
ag10
(g14
S't\xe4\xd4\x03\xe5+2@'
p88
tp89
Rp90
ag10
(g14
S'\x18`\x7f\xa7D\xea0@'
p91
tp92
Rp93
ag10
(g14
S'kh\xe9\xa5\x93\x802@'
p94
tp95
Rp96
ag10
(g14
S'\x87.\xe1iVM1@'
p97
tp98
Rp99
ag10
(g14
S'{O\xaa\xe32\xb10@'
p100
tp101
Rp102
ag10
(g14
S'WP&\xb8:\xa71@'
p103
tp104
Rp105
ag10
(g14
S"'3\xee\xae\xc6\xf40@"
p106
tp107
Rp108
ag10
(g14
S'\x1bMMh\x07u2@'
p109
tp110
Rp111
ag10
(g14
S'\x83H~\xe2~m0@'
p112
tp113
Rp114
ag10
(g14
S'\xd9\xdd[a\xac\xeb1@'
p115
tp116
Rp117
ag10
(g14
S'\x95\x06T\xc0,$1@'
p118
tp119
Rp120
ag10
(g14
S"'\xd7\xc4\xc2ZC1@"
p121
tp122
Rp123
ag10
(g14
S'9\x94\x00no\xe90@'
p124
tp125
Rp126
ag10
(g14
S'\xd3\xb7Q\xe6QG3@'
p127
tp128
Rp129
ag10
(g14
S'\x9b\xbf\xdc\x84\xd3%2@'
p130
tp131
Rp132
ag10
(g14
S'\xb5\x06\xd7\xa9\x8f\x132@'
p133
tp134
Rp135
ag10
(g14
S'\x0e\x0e\x00\x0c\x00`1@'
p136
tp137
Rp138
asssss.