(dp0
S'../Data/sqlite_2.csv'
p1
(dp2
S'../Data/sqlite_90.csv'
p3
(dp4
F0.2
(dp5
S'mmre'
p6
(dp7
S'bellwether'
p8
(lp9
cnumpy.core.multiarray
scalar
p10
(cnumpy
dtype
p11
(S'f8'
p12
I0
I1
tp13
Rp14
(I3
S'<'
p15
NNNI-1
I-1
I0
tp16
bS'\xaa\xc1\xf8\xbfqGX@'
p17
tp18
Rp19
ag10
(g14
S'R\xf7K\xae\x0bBX@'
p20
tp21
Rp22
ag10
(g14
S'\x84p\xf6,\xbeBX@'
p23
tp24
Rp25
ag10
(g14
S'\x9d\x95e0\x0bBX@'
p26
tp27
Rp28
ag10
(g14
S'\xa8\xfe\xc1\xb8\xa1AX@'
p29
tp30
Rp31
ag10
(g14
S'R\x12\x84\xf0\x05AX@'
p32
tp33
Rp34
ag10
(g14
S'[S\x7f\r\xf4BX@'
p35
tp36
Rp37
ag10
(g14
S'\x8a\x03id\xddDX@'
p38
tp39
Rp40
ag10
(g14
S'\xe1\xad"+lBX@'
p41
tp42
Rp43
ag10
(g14
S'\xf8\x82\xc3#a@X@'
p44
tp45
Rp46
ag10
(g14
S'\xaa#>\xbcJAX@'
p47
tp48
Rp49
ag10
(g14
S'k\x00\x7f\xe7\rEX@'
p50
tp51
Rp52
ag10
(g14
S'\xf0abD4AX@'
p53
tp54
Rp55
ag10
(g14
S'[\x16`\x16\x12@X@'
p56
tp57
Rp58
ag10
(g14
S'8Mm\xfb4CX@'
p59
tp60
Rp61
ag10
(g14
S'\x04\xc1z+qBX@'
p62
tp63
Rp64
ag10
(g14
S'|\xe28]!DX@'
p65
tp66
Rp67
ag10
(g14
S'\xca\xb3\xeb\xa8wIX@'
p68
tp69
Rp70
ag10
(g14
S'\x80wmC\xf7@X@'
p71
tp72
Rp73
ag10
(g14
S'\xb8\x00\xf0\xa3\x87BX@'
p74
tp75
Rp76
asS'target'
p77
(lp78
g10
(g14
S'f-\x89\xff|cA@'
p79
tp80
Rp81
ag10
(g14
S'0wN\x96hj@@'
p82
tp83
Rp84
ag10
(g14
S'\xb6>g\x14<TC@'
p85
tp86
Rp87
ag10
(g14
S'\xd5a\xfa\x11\x1a\x98A@'
p88
tp89
Rp90
ag10
(g14
S'\xa0\\\xa1\xb3\\/A@'
p91
tp92
Rp93
ag10
(g14
S'\\\xd2Ib\x9c\xf6A@'
p94
tp95
Rp96
ag10
(g14
S'\xe0\xe1\xbf|\x83\xa3?@'
p97
tp98
Rp99
ag10
(g14
S'`3\x1b2^cB@'
p100
tp101
Rp102
ag10
(g14
S'\xb2\xf1\xff\xe9\x18\xbdA@'
p103
tp104
Rp105
ag10
(g14
S'\xe6\x80\xbf\xde\xac\xf9A@'
p106
tp107
Rp108
ag10
(g14
S'\x94\xd8v\xeb\xab\xacC@'
p109
tp110
Rp111
ag10
(g14
S'\x7f\x14?p\xf6\x1aA@'
p112
tp113
Rp114
ag10
(g14
S'5\xa9\xa8_\xda\tA@'
p115
tp116
Rp117
ag10
(g14
S'\xb9\x80\xab\x07\x99\xd8C@'
p118
tp119
Rp120
ag10
(g14
S'fG\xd2\xd3\xc5HA@'
p121
tp122
Rp123
ag10
(g14
S'\xa8\xafu\xb0\xea\xa1A@'
p124
tp125
Rp126
ag10
(g14
S'\x18\xc4\xd2\xf00\x89A@'
p127
tp128
Rp129
ag10
(g14
S"\xaf\xef6O\xdc'A@"
p130
tp131
Rp132
ag10
(g14
S'SI\xf0(\xf6\xbaA@'
p133
tp134
Rp135
ag10
(g14
S' /,\x98\x82X@@'
p136
tp137
Rp138
asssss.