(dp0
S'../Data/sqlite_1.csv'
p1
(dp2
S'../Data/sqlite_65.csv'
p3
(dp4
F0.1
(dp5
S'abs_res'
p6
(dp7
S'bellwether'
p8
(lp9
cnumpy.core.multiarray
scalar
p10
(cnumpy
dtype
p11
(S'f8'
p12
I0
I1
tp13
Rp14
(I3
S'<'
p15
NNNI-1
I-1
I0
tp16
bS'\x82\x95C\x9b\x8eFAA'
p17
tp18
Rp19
ag10
(g14
S'\x00\xc6\x92\x0f\xf6EAA'
p20
tp21
Rp22
ag10
(g14
S'\xf0\x98\xe0\xc1HEAA'
p23
tp24
Rp25
ag10
(g14
S'I\x0c\x02\xab\xc4EAA'
p26
tp27
Rp28
ag10
(g14
S'[\xe3\xa5kHFAA'
p29
tp30
Rp31
ag10
(g14
S'o=\nw\nFAA'
p32
tp33
Rp34
ag10
(g14
S'?&x\xd0\xdeEAA'
p35
tp36
Rp37
ag10
(g14
S'\xa1}\xf8\xec\xa1EAA'
p38
tp39
Rp40
ag10
(g14
S'\x90l\xe7\xdb\x0eFAA'
p41
tp42
Rp43
ag10
(g14
S'B\xd2\x94\xca\xbdEAA'
p44
tp45
Rp46
ag10
(g14
S'=\n\xd73\xa8EAA'
p47
tp48
Rp49
ag10
(g14
S'Rb\x10\xf8\xffEAA'
p50
tp51
Rp52
ag10
(g14
S'E\x8bl7yEAA'
p53
tp54
Rp55
ag10
(g14
S'+$M\xa9\xdaEAA'
p56
tp57
Rp58
ag10
(g14
S'I\xe1z\xb4\xf9EAA'
p59
tp60
Rp61
ag10
(g14
S'"\xb0r\xf8\x86EAA'
p62
tp63
Rp64
ag10
(g14
S'SS*\xdesEAA'
p65
tp66
Rp67
ag10
(g14
S'\x96C\x8b\x9c;FAA'
p68
tp69
Rp70
ag10
(g14
S'&Zdk\xe8EAA'
p71
tp72
Rp73
ag10
(g14
S'\xab\x9b\xc4@\xa6EAA'
p74
tp75
Rp76
asS'target'
p77
(lp78
g10
(g14
S'\xd1"\xdb\xf9~\xc2^@'
p79
tp80
Rp81
ag10
(g14
S'\x89\xebQ\xb8\x1e\xe5X@'
p82
tp83
Rp84
ag10
(g14
S'\xe4\xa5\x9b\xc4 \xa8_@'
p85
tp86
Rp87
ag10
(g14
S'\xaeG\xe1z\x14V^@'
p88
tp89
Rp90
ag10
(g14
S'\xe3z\x14\xaeG\x19`@'
p91
tp92
Rp93
ag10
(g14
S'f\x0e-\xb2\x9d/_@'
p94
tp95
Rp96
ag10
(g14
S'\x11\x02+\x87\x16\xd1\\@'
p97
tp98
Rp99
ag10
(g14
S'3\x08\xac\x1cZ\xf2`@'
p100
tp101
Rp102
ag10
(g14
S'\xd8x\xe9&1(X@'
p103
tp104
Rp105
ag10
(g14
S'\xa5\xc4 \xb0r0Z@'
p106
tp107
Rp108
ag10
(g14
S'\xf3Q\xb8\x1e\x85C\\@'
p109
tp110
Rp111
ag10
(g14
S'\xf0Q\xb8\x1e\x85\xb7b@'
p112
tp113
Rp114
ag10
(g14
S'x\x14\xaeG\xe1JY@'
p115
tp116
Rp117
ag10
(g14
S'\xa3\x1a/\xdd$.\\@'
p118
tp119
Rp120
ag10
(g14
S';3333KY@'
p121
tp122
Rp123
ag10
(g14
S'\x9en\x12\x83\xc0\xba[@'
p124
tp125
Rp126
ag10
(g14
S'\x91\xc2\xf5(\\\xaba@'
p127
tp128
Rp129
ag10
(g14
S'\xaf\xc6K7\x89!Z@'
p130
tp131
Rp132
ag10
(g14
S'm\x91\xed|?}Z@'
p133
tp134
Rp135
ag10
(g14
S'a\xe5\xd0"\xdb)[@'
p136
tp137
Rp138
asssss.