(dp0
S'../Data/sqlite_49.csv'
p1
(dp2
S'../Data/sqlite_82.csv'
p3
(dp4
F0.35
(dp5
S'abs_res'
p6
(dp7
S'bellwether'
p8
(lp9
cnumpy.core.multiarray
scalar
p10
(cnumpy
dtype
p11
(S'f8'
p12
I0
I1
tp13
Rp14
(I3
S'<'
p15
NNNI-1
I-1
I0
tp16
bS'\xed\n\x90{q7\xe3@'
p17
tp18
Rp19
ag10
(g14
S'\x9f\xc4 \xb0\xe4:\xe3@'
p20
tp21
Rp22
ag10
(g14
S'#>\xc3\xae\x809\xe3@'
p23
tp24
Rp25
ag10
(g14
S'\x82?5^R9\xe3@'
p26
tp27
Rp28
ag10
(g14
S'\x1fiJ\xc5\x05;\xe3@'
p29
tp30
Rp31
ag10
(g14
S'6\xec\n\x907;\xe3@'
p32
tp33
Rp34
ag10
(g14
S't\xbe\x9f\x1a\xa7;\xe3@'
p35
tp36
Rp37
ag10
(g14
S'\x7fj\xbct):\xe3@'
p38
tp39
Rp40
ag10
(g14
S':\x89A`\x059\xe3@'
p41
tp42
Rp43
ag10
(g14
S'\x9aRq\xf61>\xe3@'
p44
tp45
Rp46
ag10
(g14
S'\x9aRq\xf69?\xe3@'
p47
tp48
Rp49
ag10
(g14
S'a\x01r\xaf\xed:\xe3@'
p50
tp51
Rp52
ag10
(g14
S'=m\xa0\xd3F=\xe3@'
p53
tp54
Rp55
ag10
(g14
S'\xe3\x17K~w;\xe3@'
p56
tp57
Rp58
ag10
(g14
S'4\xec\n\x90w:\xe3@'
p59
tp60
Rp61
ag10
(g14
S',\x15g\x1f\xdc:\xe3@'
p62
tp63
Rp64
ag10
(g14
S'\x06\x90{\xcd\x8d7\xe3@'
p65
tp66
Rp67
ag10
(g14
S'x\xf6\xe13D8\xe3@'
p68
tp69
Rp70
ag10
(g14
S'#\x94\xd1\xdbz<\xe3@'
p71
tp72
Rp73
ag10
(g14
S'\xcf\x85\xa4)I:\xe3@'
p74
tp75
Rp76
asS'target'
p77
(lp78
g10
(g14
S'E\x8d\x97n\x12\x03z@'
p79
tp80
Rp81
ag10
(g14
S'\x16\xd9\xce\xf7S6t@'
p82
tp83
Rp84
ag10
(g14
S'{?5^\xba\x92s@'
p85
tp86
Rp87
ag10
(g14
S'\x0b\xbd-kutu@'
p88
tp89
Rp90
ag10
(g14
S'\xbd\xca\xa1E\xb61u@'
p91
tp92
Rp93
ag10
(g14
S'\xd3\xa3p=\n|r@'
p94
tp95
Rp96
ag10
(g14
S'-\x89A`\xe5\x85v@'
p97
tp98
Rp99
ag10
(g14
S'$\xb2\x9d\xef\xa7<q@'
p100
tp101
Rp102
ag10
(g14
S'\x96\xf1\xd2Mb!y@'
p103
tp104
Rp105
ag10
(g14
S'\x8c\xc2\xf5(\\;t@'
p106
tp107
Rp108
ag10
(g14
S'\xef\xa7\xc6K7ss@'
p109
tp110
Rp111
ag10
(g14
S'\xc9K7\x89A\xa0z@'
p112
tp113
Rp114
ag10
(g14
S'\x02)\\\x8f\xc2%t@'
p115
tp116
Rp117
ag10
(g14
S't\x91\xed|?\x7fv@'
p118
tp119
Rp120
ag10
(g14
S'\xc0"\xdb\xf9~Nw@'
p121
tp122
Rp123
ag10
(g14
S'K9\xb4\xc8v$w@'
p124
tp125
Rp126
ag10
(g14
S'\xd8z\x14\xaeG\x9dz@'
p127
tp128
Rp129
ag10
(g14
S'\xedQ\xb8\x1e\x85\x10v@'
p130
tp131
Rp132
ag10
(g14
S'\x82\xed|?5\xbcx@'
p133
tp134
Rp135
ag10
(g14
S'\xd7\xf9~j\xbcd{@'
p136
tp137
Rp138
asssss.