(dp0
S'../Data/sqlite_66.csv'
p1
(dp2
S'../Data/sqlite_85.csv'
p3
(dp4
F0.15
(dp5
S'abs_res'
p6
(dp7
S'bellwether'
p8
(lp9
cnumpy.core.multiarray
scalar
p10
(cnumpy
dtype
p11
(S'f8'
p12
I0
I1
tp13
Rp14
(I3
S'<'
p15
NNNI-1
I-1
I0
tp16
bS'\xd0\xa3p5\r UA'
p17
tp18
Rp19
ag10
(g14
S'\x9b\x99\x991[-UA'
p20
tp21
Rp22
ag10
(g14
S'\xc5i\x03\x9d\xfa/UA'
p23
tp24
Rp25
ag10
(g14
S'\x08\xd7\xa3\x08;TUA'
p26
tp27
Rp28
ag10
(g14
S'=\xe1z\xb4\x9d.UA'
p29
tp30
Rp31
ag10
(g14
S'O\xb8\x1e%+8UA'
p32
tp33
Rp34
ag10
(g14
S'?\n\xd7\xcb\x9e\x06UA'
p35
tp36
Rp37
ag10
(g14
S'>\n\xd7S\xe58UA'
p38
tp39
Rp40
ag10
(g14
S'\xc8\xcc\xccL\xf3\xf0TA'
p41
tp42
Rp43
ag10
(g14
S'<\n\xd7\xbb\x98\xe7TA'
p44
tp45
Rp46
ag10
(g14
S'\xcd/\x96\xccl\xe9TA'
p47
tp48
Rp49
ag10
(g14
S'\x92%\xbf\x80\x14ZUA'
p50
tp51
Rp52
ag10
(g14
S'\xadG\xe1*\x9d0UA'
p53
tp54
Rp55
ag10
(g14
S'fff\x8e\x164UA'
p56
tp57
Rp58
ag10
(g14
S'H\xe1z\xa4,7UA'
p59
tp60
Rp61
ag10
(g14
S'?DDt=/UA'
p62
tp63
Rp64
ag10
(g14
S'\x8e\xc2\xf5\xc8g#UA'
p65
tp66
Rp67
ag10
(g14
S'M\x1b\xe8,\\\x06UA'
p68
tp69
Rp70
ag10
(g14
S'\x83N\x1b \x1b\x1bUA'
p71
tp72
Rp73
ag10
(g14
S'\xa6p=\nsAUA'
p74
tp75
Rp76
asS'target'
p77
(lp78
g10
(g14
S'\xd0\xcc\xcc\x0c{>@A'
p79
tp80
Rp81
ag10
(g14
S'v=\n\x97_qAA'
p82
tp83
Rp84
ag10
(g14
S'b\x8f\xc2\xf5\xe4\x88?A'
p85
tp86
Rp87
ag10
(g14
S'\x08\xd7\xa3\xb0\xed\xc0BA'
p88
tp89
Rp90
ag10
(g14
S'\xc5\xf5(\\\x17!CA'
p91
tp92
Rp93
ag10
(g14
S'\xd6\xa3p\xdd\xe0\xdeAA'
p94
tp95
Rp96
ag10
(g14
S'-33s\x89\xea?A'
p97
tp98
Rp99
ag10
(g14
S'w=\nwJiBA'
p100
tp101
Rp102
ag10
(g14
S'`\x8f\xc2\xf5\xc6\xe3>A'
p103
tp104
Rp105
ag10
(g14
S'\xe4\xa3p}B*>A'
p106
tp107
Rp108
ag10
(g14
S'3\\\x8f\x02\t\x1eFA'
p109
tp110
Rp111
ag10
(g14
S's=\n\xd7\x08jAA'
p112
tp113
Rp114
ag10
(g14
S'@\n\xd7#o\xcbAA'
p115
tp116
Rp117
ag10
(g14
S'\xe2z\x14\xae\xa6\xb9?A'
p118
tp119
Rp120
ag10
(g14
S'\xe9Q\xb8\xfec\xf4@A'
p121
tp122
Rp123
ag10
(g14
S'>\n\xd7\xc3\xed\xad@A'
p124
tp125
Rp126
ag10
(g14
S'\xf4(\\\xcf\x88XBA'
p127
tp128
Rp129
ag10
(g14
S'\xacG\xe1\x8a\x0b)AA'
p130
tp131
Rp132
ag10
(g14
S'033\x13\x8c`CA'
p133
tp134
Rp135
ag10
(g14
S')\\\x8f\x02b)@A'
p136
tp137
Rp138
asssss.