(dp0
S'../Data/sqlite_27.csv'
p1
(dp2
S'../Data/sqlite_1.csv'
p3
(dp4
F0.25
(dp5
S'mmre'
p6
(dp7
S'bellwether'
p8
(lp9
cnumpy.core.multiarray
scalar
p10
(cnumpy
dtype
p11
(S'f8'
p12
I0
I1
tp13
Rp14
(I3
S'<'
p15
NNNI-1
I-1
I0
tp16
bS'f\xcd\xf3\xb1dOX@'
p17
tp18
Rp19
ag10
(g14
S'\xb7\xd3\x01yOOX@'
p20
tp21
Rp22
ag10
(g14
S'\x8d\xe7\x8b\xc8aOX@'
p23
tp24
Rp25
ag10
(g14
S'\x03\xbd\xf0\x0cTOX@'
p26
tp27
Rp28
ag10
(g14
S'm\x1c>FIOX@'
p29
tp30
Rp31
ag10
(g14
S'\xabT%\xa9qOX@'
p32
tp33
Rp34
ag10
(g14
S'O\x00@\xc2\\OX@'
p35
tp36
Rp37
ag10
(g14
S'\x9a$tioOX@'
p38
tp39
Rp40
ag10
(g14
S'Ne\xf9\\UOX@'
p41
tp42
Rp43
ag10
(g14
S'^\xe8\xb6\x90DOX@'
p44
tp45
Rp46
ag10
(g14
S'\xe8)\x03c=OX@'
p47
tp48
Rp49
ag10
(g14
S'&-02qOX@'
p50
tp51
Rp52
ag10
(g14
S'$ \x85\xd6IOX@'
p53
tp54
Rp55
ag10
(g14
S'\xc0A\x0c6VOX@'
p56
tp57
Rp58
ag10
(g14
S'I\xc1\xf4\x8bCOX@'
p59
tp60
Rp61
ag10
(g14
S'\x89<\xa9\xaf_OX@'
p62
tp63
Rp64
ag10
(g14
S'\x07}R\xe4XOX@'
p65
tp66
Rp67
ag10
(g14
S'i\x83\xe0P\\OX@'
p68
tp69
Rp70
ag10
(g14
S'\x0b\xd8\x15N\x80OX@'
p71
tp72
Rp73
ag10
(g14
S'\xa3\xf3\\\x99LOX@'
p74
tp75
Rp76
asS'target'
p77
(lp78
g10
(g14
S')\xffC\xb48\xc5\xea?'
p79
tp80
Rp81
ag10
(g14
S'}z\xe1\xc3\tr\xec?'
p82
tp83
Rp84
ag10
(g14
S'B\x0e\xa9o\xe9\xd8\xec?'
p85
tp86
Rp87
ag10
(g14
S'G\x90\xfcT\x89b\xec?'
p88
tp89
Rp90
ag10
(g14
S'_\x0f\x8a\xa5\x8f\x9e\xee?'
p91
tp92
Rp93
ag10
(g14
S'\x9e\xbd}1(w\xeb?'
p94
tp95
Rp96
ag10
(g14
S'\xf0\xa3\xe5\xa4\xb4]\xec?'
p97
tp98
Rp99
ag10
(g14
S'?iv,\xff\x82\xec?'
p100
tp101
Rp102
ag10
(g14
S',\x9b\xf2y\xa4H\xec?'
p103
tp104
Rp105
ag10
(g14
S'\xc3\xf1\x8cA\xca\xbf\xeb?'
p106
tp107
Rp108
ag10
(g14
S'\xd3]&\r\xc03\xef?'
p109
tp110
Rp111
ag10
(g14
S'e\xf0w\xc7P{\xed?'
p112
tp113
Rp114
ag10
(g14
S'\xd8\x1a@1\xf7\xa0\xec?'
p115
tp116
Rp117
ag10
(g14
S'\x1fA\xd3J\x1c\x1b\xec?'
p118
tp119
Rp120
ag10
(g14
S'P\xf5\x98S\xf7%\xed?'
p121
tp122
Rp123
ag10
(g14
S' \xfeAd\xa0\xf9\xec?'
p124
tp125
Rp126
ag10
(g14
S'\xc6`\x00\x8a\xe6\xe4\xec?'
p127
tp128
Rp129
ag10
(g14
S'\xc0%\x8cu\x15"\xeb?'
p130
tp131
Rp132
ag10
(g14
S'\xc9\xf7\x8bB\xf4u\xed?'
p133
tp134
Rp135
ag10
(g14
S'\x86<[l\x0cf\xeb?'
p136
tp137
Rp138
asssss.