(dp0
S'../Data/sqlite_0.csv'
p1
(dp2
S'../Data/sqlite_94.csv'
p3
(dp4
F0.15
(dp5
S'mmre'
p6
(dp7
S'bellwether'
p8
(lp9
cnumpy.core.multiarray
scalar
p10
(cnumpy
dtype
p11
(S'f8'
p12
I0
I1
tp13
Rp14
(I3
S'<'
p15
NNNI-1
I-1
I0
tp16
bS'T\xa7\x00,!nX@'
p17
tp18
Rp19
ag10
(g14
S'\x88\xee\x11\xca\x8cmX@'
p20
tp21
Rp22
ag10
(g14
S'\xe7:$\xd21mX@'
p23
tp24
Rp25
ag10
(g14
S'\xba\xe5g\xca!mX@'
p26
tp27
Rp28
ag10
(g14
S'\x9dk\xcd\xf5mmX@'
p29
tp30
Rp31
ag10
(g14
S'\xfc\nO\xba\xc8nX@'
p32
tp33
Rp34
ag10
(g14
S'\xfe=\xcc,zmX@'
p35
tp36
Rp37
ag10
(g14
S'\xad\xf3\x04d\x91mX@'
p38
tp39
Rp40
ag10
(g14
S'\xceZ\x05\x7f\xbbmX@'
p41
tp42
Rp43
ag10
(g14
S'\xae\xd3\x13\xd2\xf2lX@'
p44
tp45
Rp46
ag10
(g14
S'}\xb1\xd3\xb2\x8dmX@'
p47
tp48
Rp49
ag10
(g14
S'+\xcf\xea\x1f=mX@'
p50
tp51
Rp52
ag10
(g14
S'\xb0h\xe7\xfd@mX@'
p53
tp54
Rp55
ag10
(g14
S'\xf2.\xc9#\xbbnX@'
p56
tp57
Rp58
ag10
(g14
S'\xb6\x9b\x9cMUmX@'
p59
tp60
Rp61
ag10
(g14
S'\xd3\x90\x03\x18\x13lX@'
p62
tp63
Rp64
ag10
(g14
S'\xc56u\xe1&mX@'
p65
tp66
Rp67
ag10
(g14
S'\xa0\xb7\xd3\xcevmX@'
p68
tp69
Rp70
ag10
(g14
S':\xd2\xf5!VmX@'
p71
tp72
Rp73
ag10
(g14
S'\xb2\xd3\\\xb2\x19lX@'
p74
tp75
Rp76
asS'target'
p77
(lp78
g10
(g14
S'A8\xbd\x9c\xa0\xe9R@'
p79
tp80
Rp81
ag10
(g14
S'\xb125\x0b!nF@'
p82
tp83
Rp84
ag10
(g14
S'9\xf8#u>@R@'
p85
tp86
Rp87
ag10
(g14
S'\x9f\xf9k\xa0\x8a\x9ab@'
p88
tp89
Rp90
ag10
(g14
S'\xc1\x1b\x07\xb5\xe5|N@'
p91
tp92
Rp93
ag10
(g14
S'\xab\x83\x94*b2K@'
p94
tp95
Rp96
ag10
(g14
S'\xc8\xf3Hs"SR@'
p97
tp98
Rp99
ag10
(g14
S'f\x02\x96\xf0\x1b\x11L@'
p100
tp101
Rp102
ag10
(g14
S'\x88\x1b8\x8byMP@'
p103
tp104
Rp105
ag10
(g14
S'tR\x86)OMR@'
p106
tp107
Rp108
ag10
(g14
S'\xda1\x02;\xc8zN@'
p109
tp110
Rp111
ag10
(g14
S'\x98-s\x11U?Q@'
p112
tp113
Rp114
ag10
(g14
S'g\xf1\xbc\xdb`\xc7Y@'
p115
tp116
Rp117
ag10
(g14
S'\xcf[\x8e\xfd\xc1\x1bG@'
p118
tp119
Rp120
ag10
(g14
S'<h*\x05\xa8{L@'
p121
tp122
Rp123
ag10
(g14
S'\xbf\xd0\x18\x8a\x10\xe1Y@'
p124
tp125
Rp126
ag10
(g14
S'W\xcaa\xda\xa6\\R@'
p127
tp128
Rp129
ag10
(g14
S"\xd1\x0e\xba\xe9'[H@"
p130
tp131
Rp132
ag10
(g14
S'B\x02M\xe7\x95\\Q@'
p133
tp134
Rp135
ag10
(g14
S"\xd3[\xf8\xaf'z`@"
p136
tp137
Rp138
asssss.