(dp0
S'../Data/sqlite_8.csv'
p1
(dp2
S'../Data/sqlite_62.csv'
p3
(dp4
F0.35
(dp5
S'mmre'
p6
(dp7
S'bellwether'
p8
(lp9
cnumpy.core.multiarray
scalar
p10
(cnumpy
dtype
p11
(S'f8'
p12
I0
I1
tp13
Rp14
(I3
S'<'
p15
NNNI-1
I-1
I0
tp16
bS'\xfb\xe1A*\xcdcU@'
p17
tp18
Rp19
ag10
(g14
S'\xe8[\xa0\x01\x90bU@'
p20
tp21
Rp22
ag10
(g14
S'e\xc3\xef\xc3\xa1bU@'
p23
tp24
Rp25
ag10
(g14
S'\xf9d@\xe13_U@'
p26
tp27
Rp28
ag10
(g14
S'{M\xce\xc6?cU@'
p29
tp30
Rp31
ag10
(g14
S'\xd7\x12D\xb2\xecaU@'
p32
tp33
Rp34
ag10
(g14
S'\x11e\xe0\xa5\x0cbU@'
p35
tp36
Rp37
ag10
(g14
S'\xb6b\x06,\xde^U@'
p38
tp39
Rp40
ag10
(g14
S'\x84\xfb\x95=BcU@'
p41
tp42
Rp43
ag10
(g14
S'\x91;\xb6\x88\x1a`U@'
p44
tp45
Rp46
ag10
(g14
S'm\xef\xd1c\xa1^U@'
p47
tp48
Rp49
ag10
(g14
S'\x08m\xb4\xa8\x02aU@'
p50
tp51
Rp52
ag10
(g14
S'&\x9cSc\xdd_U@'
p53
tp54
Rp55
ag10
(g14
S'#@\x98\x7f\xf3cU@'
p56
tp57
Rp58
ag10
(g14
S'\x0cm\xfd<(_U@'
p59
tp60
Rp61
ag10
(g14
S'\\e\xac\xec\xcabU@'
p62
tp63
Rp64
ag10
(g14
S'\x13\xb9\x91qDaU@'
p65
tp66
Rp67
ag10
(g14
S'\xb4C\xa0\xd7\xc4^U@'
p68
tp69
Rp70
ag10
(g14
S'\xc2O(\xa7\xebaU@'
p71
tp72
Rp73
ag10
(g14
S'\x86\x11n\xf7 cU@'
p74
tp75
Rp76
asS'target'
p77
(lp78
g10
(g14
S'\x8f?\xfa\xa0\xf9\x9a!@'
p79
tp80
Rp81
ag10
(g14
S'\x90k/\xb6\xe7\xa0 @'
p82
tp83
Rp84
ag10
(g14
S'\x17\xc4\xeb1\xcd5$@'
p85
tp86
Rp87
ag10
(g14
S'\xc2\xd5(\x82\xb6e @'
p88
tp89
Rp90
ag10
(g14
S'\xa2bc\xa0\x8cK!@'
p91
tp92
Rp93
ag10
(g14
S'\\\xb9S\x05\x81\x99!@'
p94
tp95
Rp96
ag10
(g14
S'\x92\x1b\x9f\xe0\xc6#!@'
p97
tp98
Rp99
ag10
(g14
S'\xads|\x8e\xb1\\!@'
p100
tp101
Rp102
ag10
(g14
S'Y]gp\xe9\xf6!@'
p103
tp104
Rp105
ag10
(g14
S'\x84\xc9\xed+\x0c}!@'
p106
tp107
Rp108
ag10
(g14
S'\x0b\xea{\xf1O\xc0!@'
p109
tp110
Rp111
ag10
(g14
S'+-\xc2\x1a|&!@'
p112
tp113
Rp114
ag10
(g14
S'o\x16ZL\xbe\x87!@'
p115
tp116
Rp117
ag10
(g14
S'Mj\xa2\xfb\xa7\xd2 @'
p118
tp119
Rp120
ag10
(g14
S'F\xa0o\x14g\x04#@'
p121
tp122
Rp123
ag10
(g14
S'P\x94\x96384!@'
p124
tp125
Rp126
ag10
(g14
S'\xa9\xd8\x06<\xf6<!@'
p127
tp128
Rp129
ag10
(g14
S'\xf1al\xe0\x8eo"@'
p130
tp131
Rp132
ag10
(g14
S'\x80\x9e9\xa1\xf8\t"@'
p133
tp134
Rp135
ag10
(g14
S'k9R~M\x95"@'
p136
tp137
Rp138
asssss.