(dp0
S'../Data/sqlite_29.csv'
p1
(dp2
S'../Data/sqlite_33.csv'
p3
(dp4
F0.1
(dp5
S'abs_res'
p6
(dp7
S'bellwether'
p8
(lp9
cnumpy.core.multiarray
scalar
p10
(cnumpy
dtype
p11
(S'f8'
p12
I0
I1
tp13
Rp14
(I3
S'<'
p15
NNNI-1
I-1
I0
tp16
bS'\x976\xd0Is#DA'
p17
tp18
Rp19
ag10
(g14
S'I\xe1z\xe4\x0c"DA'
p20
tp21
Rp22
ag10
(g14
S'\xa7\xb7e-\xaf"DA'
p23
tp24
Rp25
ag10
(g14
S'\xca\xcc\xcc\xcc$"DA'
p26
tp27
Rp28
ag10
(g14
S'\x17 \xf7\x1a\xc9"DA'
p29
tp30
Rp31
ag10
(g14
S'\x14X9\xe4\xae"DA'
p32
tp33
Rp34
ag10
(g14
S'\x13/\xdd\x04\x1f"DA'
p35
tp36
Rp37
ag10
(g14
S'f\xcbZ\r?"DA'
p38
tp39
Rp40
ag10
(g14
S'u0Ode"DA'
p41
tp42
Rp43
ag10
(g14
S'3\x89A0\x83"DA'
p44
tp45
Rp46
ag10
(g14
S'\xc6K79\xf5"DA'
p47
tp48
Rp49
ag10
(g14
S'\xfc(\\\x1f%#DA'
p50
tp51
Rp52
ag10
(g14
S'\xeaz\x14\xae\xe8"DA'
p53
tp54
Rp55
ag10
(g14
S'\xfa\xa9\xf12\xc8"DA'
p56
tp57
Rp58
ag10
(g14
S'C`\xe5\x90\x9f"DA'
p59
tp60
Rp61
ag10
(g14
S'\xd9x\xe9f3"DA'
p62
tp63
Rp64
ag10
(g14
S'\x16\x83\xc0\xaak"DA'
p65
tp66
Rp67
ag10
(g14
S'T\xabc\xd2\xfb"DA'
p68
tp69
Rp70
ag10
(g14
S'\x7f\xb1\xe4g\x13#DA'
p71
tp72
Rp73
ag10
(g14
S'Q9\xb4\x88\x86"DA'
p74
tp75
Rp76
asS'target'
p77
(lp78
g10
(g14
S'W\x8d\x97n\x12SM@'
p79
tp80
Rp81
ag10
(g14
S'\xb6\x9d\xef\xa7\xc6\x03Q@'
p82
tp83
Rp84
ag10
(g14
S'\xbcI\x0c\x02+\xafP@'
p85
tp86
Rp87
ag10
(g14
S'73333\x83L@'
p88
tp89
Rp90
ag10
(g14
S'\x8e\xc0\xca\xa1E\xc6O@'
p91
tp92
Rp93
ag10
(g14
S'b\xbaI\x0c\x02\x9bN@'
p94
tp95
Rp96
ag10
(g14
S'w?5^\xba)P@'
p97
tp98
Rp99
ag10
(g14
S'&/\xdd$\x06YO@'
p100
tp101
Rp102
ag10
(g14
S'\x19\xd9\xce\xf7S\x93P@'
p103
tp104
Rp105
ag10
(g14
S'V\xb8\x1e\x85\xeb!M@'
p106
tp107
Rp108
ag10
(g14
S'7\xdd$\x06\x81}R@'
p109
tp110
Rp111
ag10
(g14
S'\xc1\x9f\x1a/\xddDO@'
p112
tp113
Rp114
ag10
(g14
S'`\x10X9\xb48N@'
p115
tp116
Rp117
ag10
(g14
S"\x01'1\x08\xac\xacN@"
p118
tp119
Rp120
ag10
(g14
S'[ffff\xf6N@'
p121
tp122
Rp123
ag10
(g14
S'K\xe3\xa5\x9b\xc4@P@'
p124
tp125
Rp126
ag10
(g14
S'\xb7\x1cZd;OQ@'
p127
tp128
Rp129
ag10
(g14
S'\xf7\xff\xff\xff\xff\xc7P@'
p130
tp131
Rp132
ag10
(g14
S'?\x89A`\xe5\xf0O@'
p133
tp134
Rp135
ag10
(g14
S'\x01)\\\x8f\xc2\x8dP@'
p136
tp137
Rp138
asssss.