(dp0
S'../Data/sqlite_75.csv'
p1
(dp2
S'../Data/sqlite_90.csv'
p3
(dp4
F0.25
(dp5
S'mmre'
p6
(dp7
S'bellwether'
p8
(lp9
cnumpy.core.multiarray
scalar
p10
(cnumpy
dtype
p11
(S'f8'
p12
I0
I1
tp13
Rp14
(I3
S'<'
p15
NNNI-1
I-1
I0
tp16
bS'\x91\x920y~lV@'
p17
tp18
Rp19
ag10
(g14
S'\xd6\xfa\xcb\xcc\x8chV@'
p20
tp21
Rp22
ag10
(g14
S'\xf316\x0e\x94nV@'
p23
tp24
Rp25
ag10
(g14
S'\x0bV\xbf@yiV@'
p26
tp27
Rp28
ag10
(g14
S'"|\x92M\x02}V@'
p29
tp30
Rp31
ag10
(g14
S'v\\V\xba\xf6pV@'
p32
tp33
Rp34
ag10
(g14
S'\x8e\xa4h*=rV@'
p35
tp36
Rp37
ag10
(g14
S'\xe6\xa8Hd\xdauV@'
p38
tp39
Rp40
ag10
(g14
S'7.~&\x01`V@'
p41
tp42
Rp43
ag10
(g14
S'\x89\xd6\xbdu#jV@'
p44
tp45
Rp46
ag10
(g14
S'u"}u\x03wV@'
p47
tp48
Rp49
ag10
(g14
S'j\xdb\x13\xcf\xa3qV@'
p50
tp51
Rp52
ag10
(g14
S'H\xe1\xf31\xackV@'
p53
tp54
Rp55
ag10
(g14
S'\xa0:ELQlV@'
p56
tp57
Rp58
ag10
(g14
S'\xd0h\xc1d;\\V@'
p59
tp60
Rp61
ag10
(g14
S'\xc8Cp\xfb\xc9\x7fV@'
p62
tp63
Rp64
ag10
(g14
S'\xd39_\xef1dV@'
p65
tp66
Rp67
ag10
(g14
S'(|\xe6%\xe3dV@'
p68
tp69
Rp70
ag10
(g14
S'-!\x9d\xd9fmV@'
p71
tp72
Rp73
ag10
(g14
S'\r\x7f\x0e\xa8\xaelV@'
p74
tp75
Rp76
asS'target'
p77
(lp78
g10
(g14
S'\xc0\x17jmL\x81A@'
p79
tp80
Rp81
ag10
(g14
S'F\xea\xaekr\x0e?@'
p82
tp83
Rp84
ag10
(g14
S'\xa6JTE\x1c\xf8@@'
p85
tp86
Rp87
ag10
(g14
S'\x18\xe3\xedR\x12S@@'
p88
tp89
Rp90
ag10
(g14
S'FO\xf6\xeb(\xf5@@'
p91
tp92
Rp93
ag10
(g14
S'X \x9e\x05c\x9d@@'
p94
tp95
Rp96
ag10
(g14
S'O\xb0\xb1Rv\xa5>@'
p97
tp98
Rp99
ag10
(g14
S'zK\x1e\xad\x8d\x96A@'
p100
tp101
Rp102
ag10
(g14
S'\xe4\n\r\x85\xa2\x94A@'
p103
tp104
Rp105
ag10
(g14
S'\xd5\x12g\x861\\A@'
p106
tp107
Rp108
ag10
(g14
S'\xda\x93\xd0\x8f\x0c\xed@@'
p109
tp110
Rp111
ag10
(g14
S')\xf4\t\xe0!/A@'
p112
tp113
Rp114
ag10
(g14
S'<\xc6L(8GA@'
p115
tp116
Rp117
ag10
(g14
S'\x82H\x02cd\xe0@@'
p118
tp119
Rp120
ag10
(g14
S'\xea\xf5+\x95FIB@'
p121
tp122
Rp123
ag10
(g14
S'\xa1\x9f\x08vMg>@'
p124
tp125
Rp126
ag10
(g14
S'\x84\x05\xa7\xc6a\x8f@@'
p127
tp128
Rp129
ag10
(g14
S'X$\xf5\x8f\x9f\x0bB@'
p130
tp131
Rp132
ag10
(g14
S'\xa0jqu\xad\xd1A@'
p133
tp134
Rp135
ag10
(g14
S'`v\xdf\x16e\x95A@'
p136
tp137
Rp138
asssss.