(dp0
S'../Data/sqlite_4.csv'
p1
(dp2
S'../Data/sqlite_58.csv'
p3
(dp4
F0.25
(dp5
S'abs_res'
p6
(dp7
S'bellwether'
p8
(lp9
cnumpy.core.multiarray
scalar
p10
(cnumpy
dtype
p11
(S'f8'
p12
I0
I1
tp13
Rp14
(I3
S'<'
p15
NNNI-1
I-1
I0
tp16
bS'\x00\xc6\x92\x9f7==A'
p17
tp18
Rp19
ag10
(g14
S'\x04\xd7\xa30\xd8==A'
p20
tp21
Rp22
ag10
(g14
S'\x05\x02+g|==A'
p23
tp24
Rp25
ag10
(g14
S'r\x14\xae\xa7}?=A'
p26
tp27
Rp28
ag10
(g14
S'\\W\x80\xfc\xbb==A'
p29
tp30
Rp31
ag10
(g14
S'$$M)\xc1==A'
p32
tp33
Rp34
ag10
(g14
S'\xffU\x0e-\x9d==A'
p35
tp36
Rp37
ag10
(g14
S'[\x1d\x13\xdc\xaa==A'
p38
tp39
Rp40
ag10
(g14
S'\x01\x9d6\xb0\xb1>=A'
p41
tp42
Rp43
ag10
(g14
S'U,\xf9\x05e>=A'
p44
tp45
Rp46
ag10
(g14
S'A\xb6\xf3\x1d\x88>=A'
p47
tp48
Rp49
ag10
(g14
S'\x18\x04V\xce\xac>=A'
p50
tp51
Rp52
ag10
(g14
S'\xa4E\xb6\x93\x96<=A'
p53
tp54
Rp55
ag10
(g14
S'b.$m\x92==A'
p56
tp57
Rp58
ag10
(g14
S'h=\n\xb7\x88<=A'
p59
tp60
Rp61
ag10
(g14
S'\n\xd9\xce\xd7\x00>=A'
p62
tp63
Rp64
ag10
(g14
S'\xc3v\xbe\x7f\x9c>=A'
p65
tp66
Rp67
ag10
(g14
S'\xc8\x94\x8aS\xd3>=A'
p68
tp69
Rp70
ag10
(g14
S'r\xb1\xe47\xd5<=A'
p71
tp72
Rp73
ag10
(g14
S'\xfb\xc7\xbdf8>=A'
p74
tp75
Rp76
asS'target'
p77
(lp78
g10
(g14
S'wh\x91\xed|\xc7U@'
p79
tp80
Rp81
ag10
(g14
S'\r\x02+\x87\x16QU@'
p82
tp83
Rp84
ag10
(g14
S'K7\x89A`\xadV@'
p85
tp86
Rp87
ag10
(g14
S'\xfc\xd4x\xe9&\xf1U@'
p88
tp89
Rp90
ag10
(g14
S'\x1e/\xdd$\x06\tT@'
p91
tp92
Rp93
ag10
(g14
S'o\x91\xed|?\xedT@'
p94
tp95
Rp96
ag10
(g14
S'\x9b\x99\x99\x99\x99\xd5T@'
p97
tp98
Rp99
ag10
(g14
S'\xfa\xfd\xd4x\xe9\xc2T@'
p100
tp101
Rp102
ag10
(g14
S'\x95\xc4 \xb0r\x98S@'
p103
tp104
Rp105
ag10
(g14
S'\x7f\x95C\x8bl\xefS@'
p106
tp107
Rp108
ag10
(g14
S'Zd;\xdfO\x8dT@'
p109
tp110
Rp111
ag10
(g14
S']d;\xdfO!W@'
p112
tp113
Rp114
ag10
(g14
S'*\x08\xac\x1cZ\x98T@'
p115
tp116
Rp117
ag10
(g14
S'{j\xbct\x93\x88T@'
p118
tp119
Rp120
ag10
(g14
S'\xb7rh\x91\xed\xfcT@'
p121
tp122
Rp123
ag10
(g14
S'p\xe7\xfb\xa9\xf1\x12U@'
p124
tp125
Rp126
ag10
(g14
S'Qb\x10X9xV@'
p127
tp128
Rp129
ag10
(g14
S'\x7f\x16\xd9\xce\xf7\x07V@'
p130
tp131
Rp132
ag10
(g14
S'L\x8d\x97n\x12\xd3T@'
p133
tp134
Rp135
ag10
(g14
S'[9\xb4\xc8vRS@'
p136
tp137
Rp138
asssss.