(dp0
S'../Data/sqlite_71.csv'
p1
(dp2
S'../Data/sqlite_3.csv'
p3
(dp4
F0.35
(dp5
S'abs_res'
p6
(dp7
S'bellwether'
p8
(lp9
cnumpy.core.multiarray
scalar
p10
(cnumpy
dtype
p11
(S'f8'
p12
I0
I1
tp13
Rp14
(I3
S'<'
p15
NNNI-1
I-1
I0
tp16
bS'\x04+\x87\xca\x97FfA'
p17
tp18
Rp19
ag10
(g14
S'=\xb4\xc8\xeeg>fA'
p20
tp21
Rp22
ag10
(g14
S'\x12X9\xe0\xca6fA'
p23
tp24
Rp25
ag10
(g14
S'LS**\x99NfA'
p26
tp27
Rp28
ag10
(g14
S'\xc2t\x93d\x8c5fA'
p29
tp30
Rp31
ag10
(g14
S'v\x14\xae\xf3\x1bNfA'
p32
tp33
Rp34
ag10
(g14
S'\xdd\xec\xc3\xa7%2fA'
p35
tp36
Rp37
ag10
(g14
S'\x8f_,\x15\xceEfA'
p38
tp39
Rp40
ag10
(g14
S'\xd31\xc1;\xae3fA'
p41
tp42
Rp43
ag10
(g14
S'\xc8>|>/AfA'
p44
tp45
Rp46
ag10
(g14
S'u\x93\x18\x8c@9fA'
p47
tp48
Rp49
ag10
(g14
S'Ib\x10h\x03&fA'
p50
tp51
Rp52
ag10
(g14
S'k\xd8\x15T\x13-fA'
p53
tp54
Rp55
ag10
(g14
S'v0O|\xadEfA'
p56
tp57
Rp58
ag10
(g14
S'\xfa\xc5\x92\xbbK3fA'
p59
tp60
Rp61
ag10
(g14
S'%\xf7\x9aWF4fA'
p62
tp63
Rp64
ag10
(g14
S'\x8d\x16\xd9\x0e\x88/fA'
p65
tp66
Rp67
ag10
(g14
S'Y\xf2\x8bEJ=fA'
p68
tp69
Rp70
ag10
(g14
S'\x07:m\\~4fA'
p71
tp72
Rp73
ag10
(g14
S'\xd4\xe8m\xb1\x8c>fA'
p74
tp75
Rp76
asS'target'
p77
(lp78
g10
(g14
S'\xed\xa7\xc6K7\x0fh@'
p79
tp80
Rp81
ag10
(g14
S'\xe8\xd2Mb\x10xg@'
p82
tp83
Rp84
ag10
(g14
S'\x0c+\x87\x16\xd92h@'
p85
tp86
Rp87
ag10
(g14
S'\x9c\x1a/\xdd$\x10g@'
p88
tp89
Rp90
ag10
(g14
S'&\xdb\xf9~j\xa4g@'
p91
tp92
Rp93
ag10
(g14
S'T\x8d\x97n\x12\x17f@'
p94
tp95
Rp96
ag10
(g14
S'\x02\x02+\x87\x16=j@'
p97
tp98
Rp99
ag10
(g14
S'c;\xdfO\x8d\x8dh@'
p100
tp101
Rp102
ag10
(g14
S'9\xdfO\x8d\x97\x92f@'
p103
tp104
Rp105
ag10
(g14
S'\xdd\xd0"\xdb\xf9\xc2g@'
p106
tp107
Rp108
ag10
(g14
S'\xfd*\x87\x16\xd9"g@'
p109
tp110
Rp111
ag10
(g14
S'\xe9\xd2Mb\x10\x12k@'
p112
tp113
Rp114
ag10
(g14
S'\xfc\xfd\xd4x\xe9dh@'
p115
tp116
Rp117
ag10
(g14
S'b;\xdfO\x8d\xa5f@'
p118
tp119
Rp120
ag10
(g14
S'l\x93\x18\x04V`g@'
p121
tp122
Rp123
ag10
(g14
S'f\x91\xed|?\x7fg@'
p124
tp125
Rp126
ag10
(g14
S'\x93\x1a/\xdd$\ni@'
p127
tp128
Rp129
ag10
(g14
S'\xbat\x93\x18\x04\xeag@'
p130
tp131
Rp132
ag10
(g14
S'\xcb\xf7S\xe3\xa5_g@'
p133
tp134
Rp135
ag10
(g14
S'\n\xd7\xa3p=Zh@'
p136
tp137
Rp138
asssss.