(dp0
S'../Data/sqlite_8.csv'
p1
(dp2
S'../Data/sqlite_73.csv'
p3
(dp4
F0.1
(dp5
S'mmre'
p6
(dp7
S'bellwether'
p8
(lp9
cnumpy.core.multiarray
scalar
p10
(cnumpy
dtype
p11
(S'f8'
p12
I0
I1
tp13
Rp14
(I3
S'<'
p15
NNNI-1
I-1
I0
tp16
bS'\x17t\x8c\x06\x8bJT@'
p17
tp18
Rp19
ag10
(g14
S'\xe9\x05\xbc\x97gHT@'
p20
tp21
Rp22
ag10
(g14
S'n\xc3\x97\xba>IT@'
p23
tp24
Rp25
ag10
(g14
S'\xb0\xb95\x1doKT@'
p26
tp27
Rp28
ag10
(g14
S"\xe8M\xac'\x7fHT@"
p29
tp30
Rp31
ag10
(g14
S'W\xea*\xfe\xfeIT@'
p32
tp33
Rp34
ag10
(g14
S'pTvSGFT@'
p35
tp36
Rp37
ag10
(g14
S'eZ\xc0\xa8aIT@'
p38
tp39
Rp40
ag10
(g14
S'\x02\xf0e\xee\x86KT@'
p41
tp42
Rp43
ag10
(g14
S'{U\x8a\x7fPJT@'
p44
tp45
Rp46
ag10
(g14
S'8\x01\xc3\x9e\x85GT@'
p47
tp48
Rp49
ag10
(g14
S'\xea\x89"j\xa0JT@'
p50
tp51
Rp52
ag10
(g14
S'f\xca;\x88;JT@'
p53
tp54
Rp55
ag10
(g14
S'J\xe4\x15\x88XJT@'
p56
tp57
Rp58
ag10
(g14
S'\xf5,\xc1\xfb\x0cJT@'
p59
tp60
Rp61
ag10
(g14
S'4%\x9d\x8b=HT@'
p62
tp63
Rp64
ag10
(g14
S'b~H\x17\x9bJT@'
p65
tp66
Rp67
ag10
(g14
S'\x92\xba\xfa}\xe5KT@'
p68
tp69
Rp70
ag10
(g14
S'}\xba\xb6\xed\xf4HT@'
p71
tp72
Rp73
ag10
(g14
S'\x81\xb9\\X\xb2JT@'
p74
tp75
Rp76
asS'target'
p77
(lp78
g10
(g14
S'\x80\x9b\xed\xa7\xd2c+@'
p79
tp80
Rp81
ag10
(g14
S'\xf0\xdbh\x10c\xf4,@'
p82
tp83
Rp84
ag10
(g14
S'\xd9\xdc\xc9\x98\x15Z.@'
p85
tp86
Rp87
ag10
(g14
S'\x18v`S9\xd4(@'
p88
tp89
Rp90
ag10
(g14
S'\x84]f\xd4d\xc5-@'
p91
tp92
Rp93
ag10
(g14
S"y'\xa1\xe0\x85\xb5)@"
p94
tp95
Rp96
ag10
(g14
S'\xcf\x83\x8e\xf7\xd7\x1b*@'
p97
tp98
Rp99
ag10
(g14
S'\xa6E"\xd5\xc0A,@'
p100
tp101
Rp102
ag10
(g14
S'\xac\xaaSz~Z+@'
p103
tp104
Rp105
ag10
(g14
S'Tn\x17\x90\xefb(@'
p106
tp107
Rp108
ag10
(g14
S'zBe\xa4mn0@'
p109
tp110
Rp111
ag10
(g14
S'"\xa4\x0fN\xecX0@'
p112
tp113
Rp114
ag10
(g14
S'\xd1C/\xb7\xccK.@'
p115
tp116
Rp117
ag10
(g14
S'8\x94\xacjC\xba*@'
p118
tp119
Rp120
ag10
(g14
S'\x8c\xeb\x15\xaf\xf3\xb8+@'
p121
tp122
Rp123
ag10
(g14
S'\xc3U\x06\xd1\xb3X.@'
p124
tp125
Rp126
ag10
(g14
S'\x83\xe1*\x1d\xcfN-@'
p127
tp128
Rp129
ag10
(g14
S'J\xbd\xfb\x81q\xf4+@'
p130
tp131
Rp132
ag10
(g14
S'L\xbd\xd3\x8bv\xb4+@'
p133
tp134
Rp135
ag10
(g14
S'1\xa8\xa3\x9b(k)@'
p136
tp137
Rp138
asssss.