(dp0
S'../Data/sqlite_74.csv'
p1
(dp2
S'../Data/sqlite_61.csv'
p3
(dp4
F0.25
(dp5
S'abs_res'
p6
(dp7
S'bellwether'
p8
(lp9
cnumpy.core.multiarray
scalar
p10
(cnumpy
dtype
p11
(S'f8'
p12
I0
I1
tp13
Rp14
(I3
S'<'
p15
NNNI-1
I-1
I0
tp16
bS'\xb0rh\x01\xf7OiA'
p17
tp18
Rp19
ag10
(g14
S';Q\xff>\xe6WiA'
p20
tp21
Rp22
ag10
(g14
S'+\xea\xdfP\x98_iA'
p23
tp24
Rp25
ag10
(g14
S'\xe6\x17K\xce\t[iA'
p26
tp27
Rp28
ag10
(g14
S'\xcei\x03\x01\xfdRiA'
p29
tp30
Rp31
ag10
(g14
S'\x8aC\x8bx\xe0XiA'
p32
tp33
Rp34
ag10
(g14
S'f\xe7\xfbI\xb6_iA'
p35
tp36
Rp37
ag10
(g14
S'D\xc5\xd9\x87dZiA'
p38
tp39
Rp40
ag10
(g14
S'\x87A`u\x1bNiA'
p41
tp42
Rp43
ag10
(g14
S'\x07\xf3D\xfdEUiA'
p44
tp45
Rp46
ag10
(g14
S'\xe6Q\xb8\x9a\x80]iA'
p47
tp48
Rp49
ag10
(g14
S'/\xee5cwXiA'
p50
tp51
Rp52
ag10
(g14
S'\x96\xc4 D `iA'
p53
tp54
Rp55
ag10
(g14
S'\xbat\x93\xf8\xe2jiA'
p56
tp57
Rp58
ag10
(g14
S'\xab\x00\xb9\x17\x87^iA'
p59
tp60
Rp61
ag10
(g14
S'\xc6\x13\xf5\xbf\x0eMiA'
p62
tp63
Rp64
ag10
(g14
S'\x0et\xda(hTiA'
p65
tp66
Rp67
ag10
(g14
S'G\xd2\x94Z\x81\\iA'
p68
tp69
Rp70
ag10
(g14
S'nh\x911I^iA'
p71
tp72
Rp73
ag10
(g14
S'\x13v\x05PtZiA'
p74
tp75
Rp76
asS'target'
p77
(lp78
g10
(g14
S'D\xe1z\x14\xae\xe4p@'
p79
tp80
Rp81
ag10
(g14
S'\xab\xf1\xd2Mb\x08r@'
p82
tp83
Rp84
ag10
(g14
S'\x1eZd;\xdf9t@'
p85
tp86
Rp87
ag10
(g14
S'\x81\x16\xd9\xce\xf7\xfby@'
p88
tp89
Rp90
ag10
(g14
S'_\xe5\xd0"\xdb\x10v@'
p91
tp92
Rp93
ag10
(g14
S'D\xb6\xf3\xfd\xd4\x86x@'
p94
tp95
Rp96
ag10
(g14
S'\x0f-\xb2\x9d\xef\xcct@'
p97
tp98
Rp99
ag10
(g14
S'\x16/\xdd$\x06]w@'
p100
tp101
Rp102
ag10
(g14
S'?5^\xbaI\xffs@'
p103
tp104
Rp105
ag10
(g14
S'I\xe1z\x14\xae\x91p@'
p106
tp107
Rp108
ag10
(g14
S'\x01\x00\x00\x00\x00qv@'
p109
tp110
Rp111
ag10
(g14
S'%\xb0rh\x91@v@'
p112
tp113
Rp114
ag10
(g14
S'|j\xbct\x93\xf6u@'
p115
tp116
Rp117
ag10
(g14
S'\r\xd7\xa3p=Ru@'
p118
tp119
Rp120
ag10
(g14
S'N7\x89A`\x8cz@'
p121
tp122
Rp123
ag10
(g14
S'\x04\x81\x95C\x8bmv@'
p124
tp125
Rp126
ag10
(g14
S'\x9d\x1a/\xdd$\x0ct@'
p127
tp128
Rp129
ag10
(g14
S'\x16\xd9\xce\xf7SQu@'
p130
tp131
Rp132
ag10
(g14
S'T\xb8\x1e\x85\xeb\x01v@'
p133
tp134
Rp135
ag10
(g14
S'f\xe5\xd0"\xdb\x8bw@'
p136
tp137
Rp138
asssss.