(dp0
S'../Data/sqlite_33.csv'
p1
(dp2
S'../Data/sqlite_76.csv'
p3
(dp4
F0.25
(dp5
S'mmre'
p6
(dp7
S'bellwether'
p8
(lp9
cnumpy.core.multiarray
scalar
p10
(cnumpy
dtype
p11
(S'f8'
p12
I0
I1
tp13
Rp14
(I3
S'<'
p15
NNNI-1
I-1
I0
tp16
bS'\x97G\xc3\xe4YaT@'
p17
tp18
Rp19
ag10
(g14
S'\xb7\x17\xc2"3[T@'
p20
tp21
Rp22
ag10
(g14
S'b\xa5{\x81\xeeYT@'
p23
tp24
Rp25
ag10
(g14
S'\xa7\x18\xf5\xc0YUT@'
p26
tp27
Rp28
ag10
(g14
S'\x12\xf8\xee\xa2\x08[T@'
p29
tp30
Rp31
ag10
(g14
S'7\x0c\xcfL\x84WT@'
p32
tp33
Rp34
ag10
(g14
S'o\xb9ip"RT@'
p35
tp36
Rp37
ag10
(g14
S'\x96\xe3 \xa6\xc1WT@'
p38
tp39
Rp40
ag10
(g14
S'X{\xee\xe3\xc8WT@'
p41
tp42
Rp43
ag10
(g14
S'\xdcUs\xf9dTT@'
p44
tp45
Rp46
ag10
(g14
S'\x0e\xe4\x03\x8d\x10VT@'
p47
tp48
Rp49
ag10
(g14
S'\xf4Wa\xebdYT@'
p50
tp51
Rp52
ag10
(g14
S'\xbb\x13\x83\x8f\nTT@'
p53
tp54
Rp55
ag10
(g14
S'\xe2\x053K\x97YT@'
p56
tp57
Rp58
ag10
(g14
S'\x9737=\xbcYT@'
p59
tp60
Rp61
ag10
(g14
S'H\xd7uf\xacUT@'
p62
tp63
Rp64
ag10
(g14
S'\xc8-\x95\x8d\xd5^T@'
p65
tp66
Rp67
ag10
(g14
S'\xf1DO\xa3kTT@'
p68
tp69
Rp70
ag10
(g14
S']d\xb0S\xb9XT@'
p71
tp72
Rp73
ag10
(g14
S'K\xa8\xe4\x8dUUT@'
p74
tp75
Rp76
asS'target'
p77
(lp78
g10
(g14
S'\xfa\x18Y\x04\xf6\xa30@'
p79
tp80
Rp81
ag10
(g14
S'mu\xa2\xb8Q\xb50@'
p82
tp83
Rp84
ag10
(g14
S'\x8e]\x97\xc3t\x040@'
p85
tp86
Rp87
ag10
(g14
S'|wT\xff8\x001@'
p88
tp89
Rp90
ag10
(g14
S'%\xc1\xed\x1c?\xd10@'
p91
tp92
Rp93
ag10
(g14
S'wP\x87)\x11\x9b0@'
p94
tp95
Rp96
ag10
(g14
S'\x8c\x0c\xd6\xd6\xa6\x123@'
p97
tp98
Rp99
ag10
(g14
S'&\xd3\xe1\xecj\xbf1@'
p100
tp101
Rp102
ag10
(g14
S'\xaa_2\x88\xcf\x1e1@'
p103
tp104
Rp105
ag10
(g14
S'\xc1\xeec\x9ak 2@'
p106
tp107
Rp108
ag10
(g14
S'\x9c\x92=\xa1\x89\xf32@'
p109
tp110
Rp111
ag10
(g14
S'Z\xde\xad\xa1U\x1b1@'
p112
tp113
Rp114
ag10
(g14
S'{<\xc4;\xda\xf70@'
p115
tp116
Rp117
ag10
(g14
S'>N\xf1&mI0@'
p118
tp119
Rp120
ag10
(g14
S'\xf7ksd\xf2\xef0@'
p121
tp122
Rp123
ag10
(g14
S'*\x06C\x88\x0e%3@'
p124
tp125
Rp126
ag10
(g14
S'\x8bx\xdbR\x8dp1@'
p127
tp128
Rp129
ag10
(g14
S'\xf3U\xed\x88tH2@'
p130
tp131
Rp132
ag10
(g14
S'\x00\xff\xe9q\x1a\xaa1@'
p133
tp134
Rp135
ag10
(g14
S'\x8c\x98\xf1\x98*\x840@'
p136
tp137
Rp138
asssss.