(dp0
S'../Data/sqlite_91.csv'
p1
(dp2
S'../Data/sqlite_16.csv'
p3
(dp4
F0.15
(dp5
S'abs_res'
p6
(dp7
S'bellwether'
p8
(lp9
cnumpy.core.multiarray
scalar
p10
(cnumpy
dtype
p11
(S'f8'
p12
I0
I1
tp13
Rp14
(I3
S'<'
p15
NNNI-1
I-1
I0
tp16
bS'c\x9e\xa8?\xb1~%A'
p17
tp18
Rp19
ag10
(g14
S'|\xa2\xfe\r\xb6}%A'
p20
tp21
Rp22
ag10
(g14
S'\xb8\xc8v>\xadt%A'
p23
tp24
Rp25
ag10
(g14
S'\x1d\x04V\x8e_y%A'
p26
tp27
Rp28
ag10
(g14
S'\xa9\xf1\xd2\r\xb0z%A'
p29
tp30
Rp31
ag10
(g14
S'\x18Zd;\xeas%A'
p32
tp33
Rp34
ag10
(g14
S'\x8ay\xa2\xbe\x8cq%A'
p35
tp36
Rp37
ag10
(g14
S'\x86\x16\xd9\x8e$p%A'
p38
tp39
Rp40
ag10
(g14
S'#\x87\x16\xd9\x15\x8d%A'
p41
tp42
Rp43
ag10
(g14
S'\xe3\x17K~\xdb\x85%A'
p44
tp45
Rp46
ag10
(g14
S'\x0fX9\xb4\xd9n%A'
p47
tp48
Rp49
ag10
(g14
S"?\x98'*+\x8c%A"
p50
tp51
Rp52
ag10
(g14
S'{\x14\xae\xc7Iu%A'
p53
tp54
Rp55
ag10
(g14
S'nuL0\t\x8c%A'
p56
tp57
Rp58
ag10
(g14
S'\xb5\xf3\xfd\x14jp%A'
p59
tp60
Rp61
ag10
(g14
S'!\xdb\xf9\xbe\xfb\x84%A'
p62
tp63
Rp64
ag10
(g14
S'"\xdb\xf9\xbe(\x85%A'
p65
tp66
Rp67
ag10
(g14
S'v?5\xde\nr%A'
p68
tp69
Rp70
ag10
(g14
S'I5^\xbaN]%A'
p71
tp72
Rp73
ag10
(g14
S'}N\x1b\xe8\xaez%A'
p74
tp75
Rp76
asS'target'
p77
(lp78
g10
(g14
S'\xa4\x1a/\xdd$\x86O@'
p79
tp80
Rp81
ag10
(g14
S'~?5^\xba\xf9J@'
p82
tp83
Rp84
ag10
(g14
S'\x84j\xbct\x93\x18K@'
p85
tp86
Rp87
ag10
(g14
S'\xeez\x14\xaeG\x11K@'
p88
tp89
Rp90
ag10
(g14
S'\x88j\xbct\x938M@'
p91
tp92
Rp93
ag10
(g14
S'\xbeI\x0c\x02+\x97P@'
p94
tp95
Rp96
ag10
(g14
S'u=\n\xd7\xa3PQ@'
p97
tp98
Rp99
ag10
(g14
S'\xaf\x1cZd;\xbfO@'
p100
tp101
Rp102
ag10
(g14
S'\xb1\xc6K7\x89\x99L@'
p103
tp104
Rp105
ag10
(g14
S'\xdf\xa5\x9b\xc4 \xe0Q@'
p106
tp107
Rp108
ag10
(g14
S'\xda\xf9~j\xbc\x14P@'
p109
tp110
Rp111
ag10
(g14
S'\xb6\xf5(\\\x8f\xf2J@'
p112
tp113
Rp114
ag10
(g14
S'\x8e\x16\xd9\xce\xf7sP@'
p115
tp116
Rp117
ag10
(g14
S'l;\xdfO\x8d\x07O@'
p118
tp119
Rp120
ag10
(g14
S'\xb0\x1cZd;wR@'
p121
tp122
Rp123
ag10
(g14
S'\xd2\xf7S\xe3\xa5\xc3P@'
p124
tp125
Rp126
ag10
(g14
S'\xea$\x06\x81\x95#L@'
p127
tp128
Rp129
ag10
(g14
S'\x9fC\x8bl\xe7{L@'
p130
tp131
Rp132
ag10
(g14
S'jffff\x86N@'
p133
tp134
Rp135
ag10
(g14
S'\x1b\x04V\x0e-bN@'
p136
tp137
Rp138
asssss.