(dp0
S'../Data/sqlite_39.csv'
p1
(dp2
S'../Data/sqlite_88.csv'
p3
(dp4
F0.15
(dp5
S'mmre'
p6
(dp7
S'bellwether'
p8
(lp9
cnumpy.core.multiarray
scalar
p10
(cnumpy
dtype
p11
(S'f8'
p12
I0
I1
tp13
Rp14
(I3
S'<'
p15
NNNI-1
I-1
I0
tp16
bS'\xdb1\x8c\xe48[X@'
p17
tp18
Rp19
ag10
(g14
S' F\xe5H\x0f_X@'
p20
tp21
Rp22
ag10
(g14
S'\x92\xf1\xc29\x1b\\X@'
p23
tp24
Rp25
ag10
(g14
S'\xfej\xcfnY_X@'
p26
tp27
Rp28
ag10
(g14
S'@+\x138fcX@'
p29
tp30
Rp31
ag10
(g14
S'Q\xebm\xfc^^X@'
p32
tp33
Rp34
ag10
(g14
S'\x8c\xb9\xf8\xf7\x18^X@'
p35
tp36
Rp37
ag10
(g14
S'\x9c]\x16\xb1\x9a]X@'
p38
tp39
Rp40
ag10
(g14
S'A\xcffP\x89cX@'
p41
tp42
Rp43
ag10
(g14
S'O\x97Z\x06?`X@'
p44
tp45
Rp46
ag10
(g14
S'\xb75d\xfe\xbaaX@'
p47
tp48
Rp49
ag10
(g14
S'`\x89\xbf]m`X@'
p50
tp51
Rp52
ag10
(g14
S'\xff,\xaf\xaftdX@'
p53
tp54
Rp55
ag10
(g14
S'c\xa1I\xd5\xb4]X@'
p56
tp57
Rp58
ag10
(g14
S'/|\xe1\x88\xd5_X@'
p59
tp60
Rp61
ag10
(g14
S'G`\x1c\xba\x12^X@'
p62
tp63
Rp64
ag10
(g14
S'\x13^\xdd\xe0\x94^X@'
p65
tp66
Rp67
ag10
(g14
S'\xc0\xb6\x9ci\x99bX@'
p68
tp69
Rp70
ag10
(g14
S'\x8f$\x96/~_X@'
p71
tp72
Rp73
ag10
(g14
S'%y~\x11\xfb^X@'
p74
tp75
Rp76
asS'target'
p77
(lp78
g10
(g14
S'+P\xa0\x8a\xdb\x86L@'
p79
tp80
Rp81
ag10
(g14
S'\xa6\xaa\xbf\x00\xd8\xa3J@'
p82
tp83
Rp84
ag10
(g14
S'-\xc5\xa1\x16A3L@'
p85
tp86
Rp87
ag10
(g14
S'\xe0\x1f\xe3\xb8\x04\xaaJ@'
p88
tp89
Rp90
ag10
(g14
S'\x1d|${o\xdfJ@'
p91
tp92
Rp93
ag10
(g14
S'v\n!\xe7-$M@'
p94
tp95
Rp96
ag10
(g14
S'M\xfd\xdc\x8f\xc0\xdeL@'
p97
tp98
Rp99
ag10
(g14
S'\x8e\x9a\xbfy\xf9\xe4K@'
p100
tp101
Rp102
ag10
(g14
S'h+\xea[}\x9bJ@'
p103
tp104
Rp105
ag10
(g14
S'\x01\xf4\xb7\xae<\xdcJ@'
p106
tp107
Rp108
ag10
(g14
S'\xbc\xaf\xea6t\x1eN@'
p109
tp110
Rp111
ag10
(g14
S'\xd5\x96\xb3mJ\x9bM@'
p112
tp113
Rp114
ag10
(g14
S'b\x0e\x162BzL@'
p115
tp116
Rp117
ag10
(g14
S'K\x8a\xd1P\xb2\x8aK@'
p118
tp119
Rp120
ag10
(g14
S'X\x10\x0f\xe3\xafbM@'
p121
tp122
Rp123
ag10
(g14
S'\x0c\xf2\x8c\x9d\x9c\xf2N@'
p124
tp125
Rp126
ag10
(g14
S'x\xd5o\xce\xc0ZO@'
p127
tp128
Rp129
ag10
(g14
S'HF\x03\xe5\xb1\x8fJ@'
p130
tp131
Rp132
ag10
(g14
S'\x93`\xc7\x13O\xa8K@'
p133
tp134
Rp135
ag10
(g14
S'BGB\ry\x1aL@'
p136
tp137
Rp138
asssss.