(dp0
S'../Data/sqlite_4.csv'
p1
(dp2
S'../Data/sqlite_42.csv'
p3
(dp4
F0.25
(dp5
S'abs_res'
p6
(dp7
S'bellwether'
p8
(lp9
cnumpy.core.multiarray
scalar
p10
(cnumpy
dtype
p11
(S'f8'
p12
I0
I1
tp13
Rp14
(I3
S'<'
p15
NNNI-1
I-1
I0
tp16
bS'\x9f\xb7e\x8dh1=A'
p17
tp18
Rp19
ag10
(g14
S'\x15Zd\xbb`1=A'
p20
tp21
Rp22
ag10
(g14
S'\nISJ,1=A'
p23
tp24
Rp25
ag10
(g14
S'\xd4Mb\xb0\xfd1=A'
p26
tp27
Rp28
ag10
(g14
S'\xc6\xae\x00\xb992=A'
p29
tp30
Rp31
ag10
(g14
S'\xbdg\xd8\xd5\x8c2=A'
p32
tp33
Rp34
ag10
(g14
S'\xb5:&8\xc20=A'
p35
tp36
Rp37
ag10
(g14
S'L~\xb1D<1=A'
p38
tp39
Rp40
ag10
(g14
S'Z\xf2\x8b\xc5\x074=A'
p41
tp42
Rp43
ag10
(g14
S'\x05+\x87\x16U0=A'
p44
tp45
Rp46
ag10
(g14
S"'\xa3\xb7\xa5u1=A"
p47
tp48
Rp49
ag10
(g14
S'\xef\xa7\xc6+K2=A'
p50
tp51
Rp52
ag10
(g14
S'833\x13F0=A'
p53
tp54
Rp55
ag10
(g14
S'\xc3v\xbe\x7f\xd81=A'
p56
tp57
Rp58
ag10
(g14
S'A\x19\xbd\x8d\x103=A'
p59
tp60
Rp61
ag10
(g14
S'\xcb\x94\x8a\xd3-3=A'
p62
tp63
Rp64
ag10
(g14
S'n.$-32=A'
p65
tp66
Rp67
ag10
(g14
S'\xb9\x81N\x9b\x1f3=A'
p68
tp69
Rp70
ag10
(g14
S'\xeb\xdf\x08eG1=A'
p71
tp72
Rp73
ag10
(g14
S'9\xb4\xc86\xf81=A'
p74
tp75
Rp76
asS'target'
p77
(lp78
g10
(g14
S'x\xe7\xfb\xa9\xf1\xb4e@'
p79
tp80
Rp81
ag10
(g14
S'\xb8\xf3\xfd\xd4x\x19g@'
p82
tp83
Rp84
ag10
(g14
S'\x08\xac\x1cZd\xc3e@'
p85
tp86
Rp87
ag10
(g14
S'@\xdfO\x8d\x97\xd2d@'
p88
tp89
Rp90
ag10
(g14
S'D7\x89A`ie@'
p91
tp92
Rp93
ag10
(g14
S'\xbft\x93\x18\x04\xbae@'
p94
tp95
Rp96
ag10
(g14
S'\x06\xaa\xf1\xd2M\x1ef@'
p97
tp98
Rp99
ag10
(g14
S'\x89A`\xe5\xd0\x12f@'
p100
tp101
Rp102
ag10
(g14
S'\xf6|?5^\x1ag@'
p103
tp104
Rp105
ag10
(g14
S'N\xb8\x1e\x85\xeb\x05g@'
p106
tp107
Rp108
ag10
(g14
S'\x99\xef\xa7\xc6KKf@'
p109
tp110
Rp111
ag10
(g14
S'\xe0O\x8d\x97nBf@'
p112
tp113
Rp114
ag10
(g14
S'\xf2\xd2Mb\x10\xa0f@'
p115
tp116
Rp117
ag10
(g14
S'\x9fn\x12\x83\xc0*f@'
p118
tp119
Rp120
ag10
(g14
S'\xbb\xf3\xfd\xd4xqf@'
p121
tp122
Rp123
ag10
(g14
S'\x91\x97n\x12\x83\x0ce@'
p124
tp125
Rp126
ag10
(g14
S'!\x85\xebQ\xb8\x0eg@'
p127
tp128
Rp129
ag10
(g14
S'\xa8G\xe1z\x14\x82f@'
p130
tp131
Rp132
ag10
(g14
S'Vd;\xdfO}e@'
p133
tp134
Rp135
ag10
(g14
S'\x0c\xd7\xa3p=\x92f@'
p136
tp137
Rp138
asssss.