(dp0
S'../Data/sqlite_69.csv'
p1
(dp2
S'../Data/sqlite_95.csv'
p3
(dp4
F0.3
(dp5
S'mmre'
p6
(dp7
S'bellwether'
p8
(lp9
cnumpy.core.multiarray
scalar
p10
(cnumpy
dtype
p11
(S'f8'
p12
I0
I1
tp13
Rp14
(I3
S'<'
p15
NNNI-1
I-1
I0
tp16
bS'\xc4j\x84\xe2,$W@'
p17
tp18
Rp19
ag10
(g14
S'\xa2UK\xc9u(W@'
p20
tp21
Rp22
ag10
(g14
S'\x05\x19<\xef\x8d-W@'
p23
tp24
Rp25
ag10
(g14
S'\xab1\x8du\r(W@'
p26
tp27
Rp28
ag10
(g14
S"\xffr'f@%W@"
p29
tp30
Rp31
ag10
(g14
S'\xb9\xa5\xf2\x87G.W@'
p32
tp33
Rp34
ag10
(g14
S'm\x17\xc5\xfb),W@'
p35
tp36
Rp37
ag10
(g14
S'!\x00\\o\xad1W@'
p38
tp39
Rp40
ag10
(g14
S'\x15\xdd\xcf\x17C+W@'
p41
tp42
Rp43
ag10
(g14
S'\x17\xd4;\xd1\xde-W@'
p44
tp45
Rp46
ag10
(g14
S'[\tLd\xa1*W@'
p47
tp48
Rp49
ag10
(g14
S'"Z\r\x8c\xf8*W@'
p50
tp51
Rp52
ag10
(g14
S'\xe7W\x10\xab\xdf)W@'
p53
tp54
Rp55
ag10
(g14
S'g\xb5k\x16\x1b-W@'
p56
tp57
Rp58
ag10
(g14
S'\xd2b\x81\x08\x99"W@'
p59
tp60
Rp61
ag10
(g14
S"q`..d'W@"
p62
tp63
Rp64
ag10
(g14
S'\xf7\xae\xcfkk&W@'
p65
tp66
Rp67
ag10
(g14
S'T\x0fD\xcf\xa4.W@'
p68
tp69
Rp70
ag10
(g14
S'\xa5\xb8,K<$W@'
p71
tp72
Rp73
ag10
(g14
S'V\x94\x8c\xd1\xb6,W@'
p74
tp75
Rp76
asS'target'
p77
(lp78
g10
(g14
S'\xcc\x94<\xcc\xe3\x15E@'
p79
tp80
Rp81
ag10
(g14
S'S\xf0A\xef%\x0eD@'
p82
tp83
Rp84
ag10
(g14
S'\x98nv%\xe8V=@'
p85
tp86
Rp87
ag10
(g14
S'\xf7\x8a\xd4\x18\xf0\xef@@'
p88
tp89
Rp90
ag10
(g14
S'\xc2)\x8f\x9env?@'
p91
tp92
Rp93
ag10
(g14
S'\x10\x0bhg\x03w@@'
p94
tp95
Rp96
ag10
(g14
S'\x1d\xd6q\xec\xc1\xcf@@'
p97
tp98
Rp99
ag10
(g14
S'S\xe8w\r\x89)A@'
p100
tp101
Rp102
ag10
(g14
S'\xbbp\xeb\x1a\xbe2B@'
p103
tp104
Rp105
ag10
(g14
S'l\xf9\x11\xda\x86m?@'
p106
tp107
Rp108
ag10
(g14
S'S>E\xc9\n\xadA@'
p109
tp110
Rp111
ag10
(g14
S'i$\x0c\xf6u\xfeB@'
p112
tp113
Rp114
ag10
(g14
S',Fs\xa5\xac5@@'
p115
tp116
Rp117
ag10
(g14
S'_\xa5_#7WA@'
p118
tp119
Rp120
ag10
(g14
S'\xe2\xb1\xad\x97\x89|D@'
p121
tp122
Rp123
ag10
(g14
S'\xcec\xe4\xfa[\xea=@'
p124
tp125
Rp126
ag10
(g14
S'T]D4\xb1\x9dA@'
p127
tp128
Rp129
ag10
(g14
S'\x9fj\xa5\x06\x13s@@'
p130
tp131
Rp132
ag10
(g14
S'R~\xfa(\xc8->@'
p133
tp134
Rp135
ag10
(g14
S'\x9dLw\xf1\xd6BC@'
p136
tp137
Rp138
asssss.