(dp0
S'../Data/sqlite_72.csv'
p1
(dp2
S'../Data/sqlite_77.csv'
p3
(dp4
F0.35
(dp5
S'mmre'
p6
(dp7
S'bellwether'
p8
(lp9
cnumpy.core.multiarray
scalar
p10
(cnumpy
dtype
p11
(S'f8'
p12
I0
I1
tp13
Rp14
(I3
S'<'
p15
NNNI-1
I-1
I0
tp16
bS'\x13\x0b\nUz\x0bW@'
p17
tp18
Rp19
ag10
(g14
S'\xbe\xcd\xdf\x96(\x0eW@'
p20
tp21
Rp22
ag10
(g14
S'9\xabS\xe2?\x0eW@'
p23
tp24
Rp25
ag10
(g14
S'\x02\xbf\xc5N\xc1\x08W@'
p26
tp27
Rp28
ag10
(g14
S'\xdc\xe3\xec$\x01\x0cW@'
p29
tp30
Rp31
ag10
(g14
S'V\xfd\xd9fO\nW@'
p32
tp33
Rp34
ag10
(g14
S'\x12\xe2,\xf3z\tW@'
p35
tp36
Rp37
ag10
(g14
S'\xb3\xd5=\xfdX\x0fW@'
p38
tp39
Rp40
ag10
(g14
S'\xcf\xc1iy\x05\x0cW@'
p41
tp42
Rp43
ag10
(g14
S'\x9af`Ej\tW@'
p44
tp45
Rp46
ag10
(g14
S'\xceK=\xc7\x97\rW@'
p47
tp48
Rp49
ag10
(g14
S'\xe5cM\xc4\xa7\x0cW@'
p50
tp51
Rp52
ag10
(g14
S'j\n\nY9\x0fW@'
p53
tp54
Rp55
ag10
(g14
S"\xa4\x81'\xf0\x9a\nW@"
p56
tp57
Rp58
ag10
(g14
S'\xfe\x81\x98$\xc6\x0bW@'
p59
tp60
Rp61
ag10
(g14
S'^\xc7ct\xee\x0fW@'
p62
tp63
Rp64
ag10
(g14
S'3\x90\x89\xee\xef\x0bW@'
p65
tp66
Rp67
ag10
(g14
S'\xe86s \xbb\x0fW@'
p68
tp69
Rp70
ag10
(g14
S'[\xd8\x82\xf1\xb1\x0cW@'
p71
tp72
Rp73
ag10
(g14
S'\xb5\xacO\xb2\\\tW@'
p74
tp75
Rp76
asS'target'
p77
(lp78
g10
(g14
S'\xb8\xf1\x98\xfcIS7@'
p79
tp80
Rp81
ag10
(g14
S'\xf7T\x93\x88H\xd14@'
p82
tp83
Rp84
ag10
(g14
S'\x81/\xe4_\xca\xc15@'
p85
tp86
Rp87
ag10
(g14
S'6\x97,0\x11w6@'
p88
tp89
Rp90
ag10
(g14
S'\xea\x88\xbde\xea\xa55@'
p91
tp92
Rp93
ag10
(g14
S'\xb9J\xdbU+\x9d6@'
p94
tp95
Rp96
ag10
(g14
S'EitYg[7@'
p97
tp98
Rp99
ag10
(g14
S'\x94R;\x80\x90}5@'
p100
tp101
Rp102
ag10
(g14
S'\xb1\x18\x00.\xab\x845@'
p103
tp104
Rp105
ag10
(g14
S'\x15\xc9\x9cb:|7@'
p106
tp107
Rp108
ag10
(g14
S'\x80\x82YQ[\xf84@'
p109
tp110
Rp111
ag10
(g14
S'\xa3c&\xa0Sq6@'
p112
tp113
Rp114
ag10
(g14
S'\x16&\xbe\xeec#7@'
p115
tp116
Rp117
ag10
(g14
S'^6(\x9b7B6@'
p118
tp119
Rp120
ag10
(g14
S'\xff\xe1A\t\x9107@'
p121
tp122
Rp123
ag10
(g14
S'\xc0r9\x1d\xbc:4@'
p124
tp125
Rp126
ag10
(g14
S'\x1dqI*\xca\x857@'
p127
tp128
Rp129
ag10
(g14
S'\x99\xf8\xb2\xc5\x9d\x0c7@'
p130
tp131
Rp132
ag10
(g14
S'")\nd\xc7L6@'
p133
tp134
Rp135
ag10
(g14
S"\xc0'k\xf9\xb1u5@"
p136
tp137
Rp138
asssss.