(dp0
S'../Data/sqlite_22.csv'
p1
(dp2
S'../Data/sqlite_76.csv'
p3
(dp4
F0.2
(dp5
S'mmre'
p6
(dp7
S'bellwether'
p8
(lp9
cnumpy.core.multiarray
scalar
p10
(cnumpy
dtype
p11
(S'f8'
p12
I0
I1
tp13
Rp14
(I3
S'<'
p15
NNNI-1
I-1
I0
tp16
bS'\x0e\xb0\xca\x00_>V@'
p17
tp18
Rp19
ag10
(g14
S'\x96tG\xff\x11AV@'
p20
tp21
Rp22
ag10
(g14
S'.bj\xa7RBV@'
p23
tp24
Rp25
ag10
(g14
S'\xa8[_ODAV@'
p26
tp27
Rp28
ag10
(g14
S'\xfc\x93\xbb\x10\xfeAV@'
p29
tp30
Rp31
ag10
(g14
S'\xacZ`\xf2\x1bAV@'
p32
tp33
Rp34
ag10
(g14
S'p6\xban\xbf@V@'
p35
tp36
Rp37
ag10
(g14
S'X\x8c\xc7\xef\xa8?V@'
p38
tp39
Rp40
ag10
(g14
S'c\x888\x8c\x85BV@'
p41
tp42
Rp43
ag10
(g14
S'z23b\xfbCV@'
p44
tp45
Rp46
ag10
(g14
S'b\xd6\xa9\xd2\x88AV@'
p47
tp48
Rp49
ag10
(g14
S'\xa2a;@\x0eAV@'
p50
tp51
Rp52
ag10
(g14
S'\x97\xd2[\x83vAV@'
p53
tp54
Rp55
ag10
(g14
S'\n^\x9fd\xf7AV@'
p56
tp57
Rp58
ag10
(g14
S'\xcc\xc2\x83\x93\x0eEV@'
p59
tp60
Rp61
ag10
(g14
S'\x9e\xc1\r\xdd\x80>V@'
p62
tp63
Rp64
ag10
(g14
S'\xd4\xa6\xbf\x12\xcbAV@'
p65
tp66
Rp67
ag10
(g14
S'\x95M6]\xa8@V@'
p68
tp69
Rp70
ag10
(g14
S'\xda\r<\x074AV@'
p71
tp72
Rp73
ag10
(g14
S'+\x8f<\xf24AV@'
p74
tp75
Rp76
asS'target'
p77
(lp78
g10
(g14
S'\x9el\xf6o\x80\x991@'
p79
tp80
Rp81
ag10
(g14
S'@\x14G\xd4h\xd91@'
p82
tp83
Rp84
ag10
(g14
S'rE\xab&\xe7\x041@'
p85
tp86
Rp87
ag10
(g14
S'\xc2:Tg\xe7W1@'
p88
tp89
Rp90
ag10
(g14
S'|\x99W\xf0\xb5\x060@'
p91
tp92
Rp93
ag10
(g14
S'\x86\xcb\x0c\xdf\xd9e0@'
p94
tp95
Rp96
ag10
(g14
S'\xbb.\xa9\xe5\x9d\xb50@'
p97
tp98
Rp99
ag10
(g14
S'\x13Q\x05\xad\xda\xfb0@'
p100
tp101
Rp102
ag10
(g14
S'\xf20\x11\x9b(J1@'
p103
tp104
Rp105
ag10
(g14
S'\x02qdf7J1@'
p106
tp107
Rp108
ag10
(g14
S'0\x80\xe8\x12`\\0@'
p109
tp110
Rp111
ag10
(g14
S'tBv \x0c\xd71@'
p112
tp113
Rp114
ag10
(g14
S'\x00\xe6\xbfo\x11\x151@'
p115
tp116
Rp117
ag10
(g14
S'G\xe9)e\xfe-1@'
p118
tp119
Rp120
ag10
(g14
S'\xac\xa3\xeb\x18\x1c\xf5/@'
p121
tp122
Rp123
ag10
(g14
S'd!\x9f^H\x191@'
p124
tp125
Rp126
ag10
(g14
S'\xb2\x0e\xfc\x94\xcb\x0c1@'
p127
tp128
Rp129
ag10
(g14
S"\xda'\x02\x07*\xa50@"
p130
tp131
Rp132
ag10
(g14
S'j\xa4\xb0\xf0k\xb91@'
p133
tp134
Rp135
ag10
(g14
S'\xae\x18\xec\xe6\xe8|1@'
p136
tp137
Rp138
asssss.