(dp0
S'../Data/sqlite_0.csv'
p1
(dp2
S'../Data/sqlite_42.csv'
p3
(dp4
F0.3
(dp5
S'abs_res'
p6
(dp7
S'bellwether'
p8
(lp9
cnumpy.core.multiarray
scalar
p10
(cnumpy
dtype
p11
(S'f8'
p12
I0
I1
tp13
Rp14
(I3
S'<'
p15
NNNI-1
I-1
I0
tp16
bS'\x01\xd5x\xe9&)a@'
p17
tp18
Rp19
ag10
(g14
S'0\x08\xac\x1cZ\xb4a@'
p20
tp21
Rp22
ag10
(g14
S'*\xb0rh\x91;a@'
p23
tp24
Rp25
ag10
(g14
S'G\xb6\xf3\xfd\xd4\x0ea@'
p26
tp27
Rp28
ag10
(g14
S'k;\xdfO\x8d\xd5`@'
p29
tp30
Rp31
ag10
(g14
S'c\x10X9\xb4\xa6`@'
p32
tp33
Rp34
ag10
(g14
S'\xfa~j\xbct\xbf`@'
p35
tp36
Rp37
ag10
(g14
S'\xb0G\xe1z\x14.a@'
p38
tp39
Rp40
ag10
(g14
S'\xd5\xce\xf7S\xe3Oa@'
p41
tp42
Rp43
ag10
(g14
S'\x8a\x16\xd9\xce\xf7!a@'
p44
tp45
Rp46
ag10
(g14
S'23333\x1fa@'
p47
tp48
Rp49
ag10
(g14
S'33333\xc5`@'
p50
tp51
Rp52
ag10
(g14
S"'1\x08\xac\x1c\xac`@"
p53
tp54
Rp55
ag10
(g14
S'S7\x89A`\x03a@'
p56
tp57
Rp58
ag10
(g14
S'wh\x91\xed|aa@'
p59
tp60
Rp61
ag10
(g14
S'\xe6z\x14\xaeG\xb9`@'
p62
tp63
Rp64
ag10
(g14
S'X\x0e-\xb2\x9d\x19a@'
p65
tp66
Rp67
ag10
(g14
S'\xb1rh\x91\xed\xda`@'
p68
tp69
Rp70
ag10
(g14
S"H\x8bl\xe7\xfb'a@"
p71
tp72
Rp73
ag10
(g14
S'\xd1 \xb0rh[a@'
p74
tp75
Rp76
asS'target'
p77
(lp78
g10
(g14
S'\xe6\xd0"\xdb\xf98b@'
p79
tp80
Rp81
ag10
(g14
S'4\xdd$\x06\x81Qc@'
p82
tp83
Rp84
ag10
(g14
S'\x89\x97n\x12\x83Hd@'
p85
tp86
Rp87
ag10
(g14
S'"Zd;\xdf\xb9d@'
p88
tp89
Rp90
ag10
(g14
S'\x1a\x85\xebQ\xb8\x96d@'
p91
tp92
Rp93
ag10
(g14
S'|\x95C\x8blSd@'
p94
tp95
Rp96
ag10
(g14
S'\xe9|?5^\xb4d@'
p97
tp98
Rp99
ag10
(g14
S'!\x85\xebQ\xb8\xdad@'
p100
tp101
Rp102
ag10
(g14
S'{\xe9&1\x08`b@'
p103
tp104
Rp105
ag10
(g14
S'\xbct\x93\x18\x04\xb2c@'
p106
tp107
Rp108
ag10
(g14
S'vh\x91\xed|\xa7c@'
p109
tp110
Rp111
ag10
(g14
S'\x9c\x99\x99\x99\x99\xcfd@'
p112
tp113
Rp114
ag10
(g14
S'L\xe1z\x14\xae#c@'
p115
tp116
Rp117
ag10
(g14
S'm=\n\xd7\xa3Ze@'
p118
tp119
Rp120
ag10
(g14
S'V9\xb4\xc8vnd@'
p121
tp122
Rp123
ag10
(g14
S'\x93\x18\x04V\x0e\xb5d@'
p124
tp125
Rp126
ag10
(g14
S'\xb4G\xe1z\x14\xb8d@'
p127
tp128
Rp129
ag10
(g14
S'\xdeO\x8d\x97n\x8ad@'
p130
tp131
Rp132
ag10
(g14
S'\x03+\x87\x16\xd9\xb6d@'
p133
tp134
Rp135
ag10
(g14
S'o\x93\x18\x04V\xcac@'
p136
tp137
Rp138
asssss.