(dp0
S'../Data/sqlite_43.csv'
p1
(dp2
S'../Data/sqlite_48.csv'
p3
(dp4
F0.2
(dp5
S'abs_res'
p6
(dp7
S'bellwether'
p8
(lp9
cnumpy.core.multiarray
scalar
p10
(cnumpy
dtype
p11
(S'f8'
p12
I0
I1
tp13
Rp14
(I3
S'<'
p15
NNNI-1
I-1
I0
tp16
bS'm\x93\x18$\xfb->A'
p17
tp18
Rp19
ag10
(g14
S'\x18\xd9\xce\xf7a.>A'
p20
tp21
Rp22
ag10
(g14
S'rh\x91\xad\xf2.>A'
p23
tp24
Rp25
ag10
(g14
S'\x13-\xb2}O/>A'
p26
tp27
Rp28
ag10
(g14
S'W\x0e-\x12\xd2/>A'
p29
tp30
Rp31
ag10
(g14
S'\tX9Ts/>A'
p32
tp33
Rp34
ag10
(g14
S'k\x03\x9d\x16\x1d/>A'
p35
tp36
Rp37
ag10
(g14
S'.\x08\xac\x1c\xca/>A'
p38
tp39
Rp40
ag10
(g14
S'?5^\xda\xd2.>A'
p41
tp42
Rp43
ag10
(g14
S'\xe2\xc1<\xf14/>A'
p44
tp45
Rp46
ag10
(g14
S'i\xe7\xfbI\x95/>A'
p47
tp48
Rp49
ag10
(g14
S'y\x93\x18\xe4I0>A'
p50
tp51
Rp52
ag10
(g14
S'\x8eA`eY/>A'
p53
tp54
Rp55
ag10
(g14
S'\x81j\xbc\xf4\x0b/>A'
p56
tp57
Rp58
ag10
(g14
S'/\xfb\xf0\x99u/>A'
p59
tp60
Rp61
ag10
(g14
S'\xa2\x1cZ\xa4\xb1.>A'
p62
tp63
Rp64
ag10
(g14
S'\xbdI\x0cbq/>A'
p65
tp66
Rp67
ag10
(g14
S'\xcb\xe8my`/>A'
p68
tp69
Rp70
ag10
(g14
S'\x8d\xb3\x0f_F/>A'
p71
tp72
Rp73
ag10
(g14
S'\xafV\xc7\xe4\xd5/>A'
p74
tp75
Rp76
asS'target'
p77
(lp78
g10
(g14
S'\x07\xd7\xa3p=\xd2s@'
p79
tp80
Rp81
ag10
(g14
S'+\x06\x81\x95C\xeer@'
p82
tp83
Rp84
ag10
(g14
S'\x84\xc0\xca\xa1E\x14r@'
p85
tp86
Rp87
ag10
(g14
S'\xf0|?5^\xceq@'
p88
tp89
Rp90
ag10
(g14
S'\x04+\x87\x16\xd9lq@'
p91
tp92
Rp93
ag10
(g14
S'Y\x8f\xc2\xf5(\xa6r@'
p94
tp95
Rp96
ag10
(g14
S'\xc6\xca\xa1E\xb6\xffq@'
p97
tp98
Rp99
ag10
(g14
S'v\xe7\xfb\xa9\xf1\x81r@'
p100
tp101
Rp102
ag10
(g14
S'\x83\x16\xd9\xce\xf79q@'
p103
tp104
Rp105
ag10
(g14
S'd;\xdfO\x8d5q@'
p106
tp107
Rp108
ag10
(g14
S'@5^\xbaI\xd0q@'
p109
tp110
Rp111
ag10
(g14
S'\xc9K7\x89A\xa4q@'
p112
tp113
Rp114
ag10
(g14
S'\x05\x81\x95C\x8b\x88q@'
p115
tp116
Rp117
ag10
(g14
S'%\xb0rh\x91Sr@'
p118
tp119
Rp120
ag10
(g14
S'\xaa\x9b\xc4 \xb0 r@'
p121
tp122
Rp123
ag10
(g14
S'\xddz\x14\xaeG\xb7q@'
p124
tp125
Rp126
ag10
(g14
S'|\x14\xaeG\xe1\xbeq@'
p127
tp128
Rp129
ag10
(g14
S'yj\xbct\x93\xbar@'
p130
tp131
Rp132
ag10
(g14
S'\x00\xac\x1cZd?s@'
p133
tp134
Rp135
ag10
(g14
S'\xd1\xce\xf7S\xe3ar@'
p136
tp137
Rp138
asssss.