(dp0
S'../Data/sqlite_4.csv'
p1
(dp2
S'../Data/sqlite_34.csv'
p3
(dp4
F0.05
(dp5
S'abs_res'
p6
(dp7
S'bellwether'
p8
(lp9
cnumpy.core.multiarray
scalar
p10
(cnumpy
dtype
p11
(S'f8'
p12
I0
I1
tp13
Rp14
(I3
S'<'
p15
NNNI-1
I-1
I0
tp16
bS'(\xb0r\xf8\xe6kBA'
p17
tp18
Rp19
ag10
(g14
S'3^\xba\xb9\xbckBA'
p20
tp21
Rp22
ag10
(g14
S'\x95\xc4 \xd0\xcekBA'
p23
tp24
Rp25
ag10
(g14
S'533C|kBA'
p26
tp27
Rp28
ag10
(g14
S'8^\xba\xc9\xb6kBA'
p29
tp30
Rp31
ag10
(g14
S'n\x91\xed\xcc\x81kBA'
p32
tp33
Rp34
ag10
(g14
S"\xfc(\\\xbf'kBA"
p35
tp36
Rp37
ag10
(g14
S'\xd3x\xe9\xf6\xffkBA'
p38
tp39
Rp40
ag10
(g14
S'\x9bn\x12#;kBA'
p41
tp42
Rp43
ag10
(g14
S'\xc7\x04\x0f6\nkBA'
p44
tp45
Rp46
ag10
(g14
S'\x84\xebQ\xd83kBA'
p47
tp48
Rp49
ag10
(g14
S'>\xdfO\x9d\x98kBA'
p50
tp51
Rp52
ag10
(g14
S'B`\xe504kBA'
p53
tp54
Rp55
ag10
(g14
S'\xb7I\x0cb\x94kBA'
p56
tp57
Rp58
ag10
(g14
S'!\x85\xeb1\xbakBA'
p59
tp60
Rp61
ag10
(g14
S'\xcf\xa1E\x86\xe3jBA'
p62
tp63
Rp64
ag10
(g14
S'\xa2\x1a/m(kBA'
p65
tp66
Rp67
ag10
(g14
S'\xa7\x9b\xc4PzkBA'
p68
tp69
Rp70
ag10
(g14
S'*\\\x8fB\xa6kBA'
p71
tp72
Rp73
ag10
(g14
S'Wq\xf6\x91}kBA'
p74
tp75
Rp76
asS'target'
p77
(lp78
g10
(g14
S'Y\x0e-\xb2\x9d\x83q@'
p79
tp80
Rp81
ag10
(g14
S'\x98\xc4 \xb0r.p@'
p82
tp83
Rp84
ag10
(g14
S'\xc0K7\x89A\xb2p@'
p85
tp86
Rp87
ag10
(g14
S'6\x89A`\xe5\xaap@'
p88
tp89
Rp90
ag10
(g14
S'\x0f-\xb2\x9d\xef\x1dq@'
p91
tp92
Rp93
ag10
(g14
S'\x18\x04V\x0e-\xbcr@'
p94
tp95
Rp96
ag10
(g14
S'\xfa(\\\x8f\xc2An@'
p97
tp98
Rp99
ag10
(g14
S'h;\xdfO\x8dQq@'
p100
tp101
Rp102
ag10
(g14
S'x=\n\xd7\xa3\\p@'
p103
tp104
Rp105
ag10
(g14
S'\x88C\x8bl\xe7\xcbl@'
p106
tp107
Rp108
ag10
(g14
S'\xaerh\x91\xed\xb0n@'
p109
tp110
Rp111
ag10
(g14
S'\x87\x16\xd9\xce\xf7\x81r@'
p112
tp113
Rp114
ag10
(g14
S'\x19X9\xb4\xc8zl@'
p115
tp116
Rp117
ag10
(g14
S'\xbbI\x0c\x02+_q@'
p118
tp119
Rp120
ag10
(g14
S'\n\xd7\xa3p=\xb4r@'
p121
tp122
Rp123
ag10
(g14
S'\x08\xac\x1cZd\xbbs@'
p124
tp125
Rp126
ag10
(g14
S'vh\x91\xed|3q@'
p127
tp128
Rp129
ag10
(g14
S'\xbb\x9f\x1a/\xdd`o@'
p130
tp131
Rp132
ag10
(g14
S'\x9b\x1a/\xdd$rn@'
p133
tp134
Rp135
ag10
(g14
S'u\x93\x18\x04V\xder@'
p136
tp137
Rp138
asssss.