(dp0
S'../Data/sqlite_22.csv'
p1
(dp2
S'../Data/sqlite_62.csv'
p3
(dp4
F0.4
(dp5
S'mmre'
p6
(dp7
S'bellwether'
p8
(lp9
cnumpy.core.multiarray
scalar
p10
(cnumpy
dtype
p11
(S'f8'
p12
I0
I1
tp13
Rp14
(I3
S'<'
p15
NNNI-1
I-1
I0
tp16
bS'\xaf\x05S\xb6\n]U@'
p17
tp18
Rp19
ag10
(g14
S"\x18E.'OaU@"
p20
tp21
Rp22
ag10
(g14
S'\xee\xe1\xc4\x15_^U@'
p23
tp24
Rp25
ag10
(g14
S'\xf0\xe1X\xfb)cU@'
p26
tp27
Rp28
ag10
(g14
S"\xa9'\x8b\xb2H\\U@"
p29
tp30
Rp31
ag10
(g14
S'\xefo\x95s!_U@'
p32
tp33
Rp34
ag10
(g14
S'\xca/i]:_U@'
p35
tp36
Rp37
ag10
(g14
S'\x16\xbau\xe6I_U@'
p38
tp39
Rp40
ag10
(g14
S'\xef\x86\xf7P\xb4aU@'
p41
tp42
Rp43
ag10
(g14
S'\x98\x9d\xb0\xec\xdf^U@'
p44
tp45
Rp46
ag10
(g14
S'\x86n\xbf\x0c\xda]U@'
p47
tp48
Rp49
ag10
(g14
S'8\xaao\x93(aU@'
p50
tp51
Rp52
ag10
(g14
S'\xe8LQ\xe7W[U@'
p53
tp54
Rp55
ag10
(g14
S'\xd9\xf6\x18r\xc1_U@'
p56
tp57
Rp58
ag10
(g14
S'\xf3\\\x8c,\xa0^U@'
p59
tp60
Rp61
ag10
(g14
S'\xe4\xbc\x19\x0c\x0ecU@'
p62
tp63
Rp64
ag10
(g14
S'+\x9a^\xdc\xd8^U@'
p65
tp66
Rp67
ag10
(g14
S'\xef\xd15\x04\x10]U@'
p68
tp69
Rp70
ag10
(g14
S'\xbajcJ\xb8_U@'
p71
tp72
Rp73
ag10
(g14
S'^\xb1K\xb8\xcc_U@'
p74
tp75
Rp76
asS'target'
p77
(lp78
g10
(g14
S'\xbc+S\x00\n\xc9 @'
p79
tp80
Rp81
ag10
(g14
S'O\x18\x83\x9d?\xa7!@'
p82
tp83
Rp84
ag10
(g14
S'\xff\xdc\x87\xa8g<!@'
p85
tp86
Rp87
ag10
(g14
S'O\xc9\xda(fJ!@'
p88
tp89
Rp90
ag10
(g14
S'"\x11c3\x1b@"@'
p91
tp92
Rp93
ag10
(g14
S'\x86.\x12\x0f\x9b\xb4"@'
p94
tp95
Rp96
ag10
(g14
S'\\\x15\x8cOr\xce @'
p97
tp98
Rp99
ag10
(g14
S'\xa4c\xa9\x9c\xf0\xc6!@'
p100
tp101
Rp102
ag10
(g14
S'\x11\xe2\xd7\n\xca7"@'
p103
tp104
Rp105
ag10
(g14
S'\xe7\x96=\x8b\xf0p!@'
p106
tp107
Rp108
ag10
(g14
S'\x856{\xd0\xb3\x9f @'
p109
tp110
Rp111
ag10
(g14
S'\xa5\xc9\x06\xed\xb1\xb3!@'
p112
tp113
Rp114
ag10
(g14
S';\xc2=e\xe5\xcb @'
p115
tp116
Rp117
ag10
(g14
S'QY4\xf3\x1e\x7f!@'
p118
tp119
Rp120
ag10
(g14
S'\x06\x97\xe6\xc6\xac?!@'
p121
tp122
Rp123
ag10
(g14
S'\x8a(\x85P\x9fn @'
p124
tp125
Rp126
ag10
(g14
S'\x8a\xe7\xcdY\xdf\xfa!@'
p127
tp128
Rp129
ag10
(g14
S'\\\xc3\xb2>\n6"@'
p130
tp131
Rp132
ag10
(g14
S'\xcamb\x14\x8f6!@'
p133
tp134
Rp135
ag10
(g14
S'T$\xb5o\x9cj!@'
p136
tp137
Rp138
asssss.