(dp0
S'../Data/sqlite_3.csv'
p1
(dp2
S'../Data/sqlite_59.csv'
p3
(dp4
F0.25
(dp5
S'mmre'
p6
(dp7
S'bellwether'
p8
(lp9
cnumpy.core.multiarray
scalar
p10
(cnumpy
dtype
p11
(S'f8'
p12
I0
I1
tp13
Rp14
(I3
S'<'
p15
NNNI-1
I-1
I0
tp16
bS'\\\xc6\xbe\x15\xf3&E@'
p17
tp18
Rp19
ag10
(g14
S'E\xbeo\xe7\x8b$E@'
p20
tp21
Rp22
ag10
(g14
S'\x1a\xc8\xbb\x07%(E@'
p23
tp24
Rp25
ag10
(g14
S'+\xa3mZ9$E@'
p26
tp27
Rp28
ag10
(g14
S'\xb7\xc3i$h=E@'
p29
tp30
Rp31
ag10
(g14
S'^2eK\xb2=E@'
p32
tp33
Rp34
ag10
(g14
S'\xad[\x93\xd5\x02$E@'
p35
tp36
Rp37
ag10
(g14
S'\xf8\x95\x1f@\xc6#E@'
p38
tp39
Rp40
ag10
(g14
S'1\x17\x8b\xbfm6E@'
p41
tp42
Rp43
ag10
(g14
S'\xf4\xda\xec\xa7vGE@'
p44
tp45
Rp46
ag10
(g14
S'`\xcf\xe21\x97&E@'
p47
tp48
Rp49
ag10
(g14
S"\xb7,\xa6'\x9c1E@"
p50
tp51
Rp52
ag10
(g14
S'\xf5\xfd~\xb9\x893E@'
p53
tp54
Rp55
ag10
(g14
S'/."\xf2\x13/E@'
p56
tp57
Rp58
ag10
(g14
S'^\x15S\xeb\xc8EE@'
p59
tp60
Rp61
ag10
(g14
S'\xc3y\xee\x0e\xf99E@'
p62
tp63
Rp64
ag10
(g14
S'\x17\x1fR\xb4x3E@'
p65
tp66
Rp67
ag10
(g14
S'\x00\xe9Oe\x919E@'
p68
tp69
Rp70
ag10
(g14
S'\xf9F\x7f\xb2\xd72E@'
p71
tp72
Rp73
ag10
(g14
S'\x07\xefR\xd1\xae@E@'
p74
tp75
Rp76
asS'target'
p77
(lp78
g10
(g14
S'i\x0fU\xd2\xc4F&@'
p79
tp80
Rp81
ag10
(g14
S'"\x16\x0c\x07\x12\xa0%@'
p82
tp83
Rp84
ag10
(g14
S'\xe6\x91\xc3K9,%@'
p85
tp86
Rp87
ag10
(g14
S'~\xf2\x07/\x12\x05(@'
p88
tp89
Rp90
ag10
(g14
S'\xfaA8\x93\xd1\xac%@'
p91
tp92
Rp93
ag10
(g14
S'\xb2)\x00w\xa2?&@'
p94
tp95
Rp96
ag10
(g14
S'\xf8\x04\nw$Z(@'
p97
tp98
Rp99
ag10
(g14
S'-\xec\r9\xd2\xe7%@'
p100
tp101
Rp102
ag10
(g14
S'\xa4\xe1\xd4nc\xb9%@'
p103
tp104
Rp105
ag10
(g14
S'\xe4\xd5\xa4{\xad}$@'
p106
tp107
Rp108
ag10
(g14
S']\x1f\x93y|\xe8%@'
p109
tp110
Rp111
ag10
(g14
S'N?\x8e\xe1h\xf0$@'
p112
tp113
Rp114
ag10
(g14
S'\x03\xc4l\xec\xfbD%@'
p115
tp116
Rp117
ag10
(g14
S"\x98\x99pBy$'@"
p118
tp119
Rp120
ag10
(g14
S'\x88\xf3\xeb7\xfb\x0f&@'
p121
tp122
Rp123
ag10
(g14
S'XM\x99D\xfe\xb1$@'
p124
tp125
Rp126
ag10
(g14
S'\xc1\x1f\xb3\xa1Am$@'
p127
tp128
Rp129
ag10
(g14
S'\n\xa6\xaa\xcb5\xe3$@'
p130
tp131
Rp132
ag10
(g14
S'\xaf\x01\xf8\xea\x80%&@'
p133
tp134
Rp135
ag10
(g14
S'7t\xeb\xd5W_%@'
p136
tp137
Rp138
asssss.