(dp0
S'../Data/sqlite_46.csv'
p1
(dp2
S'../Data/sqlite_50.csv'
p3
(dp4
F0.1
(dp5
S'abs_res'
p6
(dp7
S'bellwether'
p8
(lp9
cnumpy.core.multiarray
scalar
p10
(cnumpy
dtype
p11
(S'f8'
p12
I0
I1
tp13
Rp14
(I3
S'<'
p15
NNNI-1
I-1
I0
tp16
bS'B`\xe5@\xe3jAA'
p17
tp18
Rp19
ag10
(g14
S'6^\xba\x19"kAA'
p20
tp21
Rp22
ag10
(g14
S'<5^Z\xb8kAA'
p23
tp24
Rp25
ag10
(g14
S'\x93\xc2\xf5XTkAA'
p26
tp27
Rp28
ag10
(g14
S'\x04+\x87\xf6\x06kAA'
p29
tp30
Rp31
ag10
(g14
S'\x92C\x8b,/kAA'
p32
tp33
Rp34
ag10
(g14
S'0\xb2\x9d_\xc3jAA'
p35
tp36
Rp37
ag10
(g14
S'd\x91\xed\\\xb3kAA'
p38
tp39
Rp40
ag10
(g14
S'\x15X9\xc4\x8fkAA'
p41
tp42
Rp43
ag10
(g14
S'\x07\xac\x1c\xea\x0fkAA'
p44
tp45
Rp46
ag10
(g14
S'\x93C\x8b\xbc\x02kAA'
p47
tp48
Rp49
ag10
(g14
S'\x8c\xed|\xcf\x11kAA'
p50
tp51
Rp52
ag10
(g14
S'\xb4G\xe1\xda\xbbjAA'
p53
tp54
Rp55
ag10
(g14
S'\x12X9DSkAA'
p56
tp57
Rp58
ag10
(g14
S'\x9bC\x8b\x1cHkAA'
p59
tp60
Rp61
ag10
(g14
S'$\xdb\xf9\xae\x1akAA'
p62
tp63
Rp64
ag10
(g14
S'\xd5\xf7S\xf3PkAA'
p65
tp66
Rp67
ag10
(g14
S'\xf0\xd2Mb\xb5kAA'
p68
tp69
Rp70
ag10
(g14
S'/\x87\x16\x89_kAA'
p71
tp72
Rp73
ag10
(g14
S'\xdd\xa3p]\x06kAA'
p74
tp75
Rp76
asS'target'
p77
(lp78
g10
(g14
S'\x04\x9b\x0bISbX@'
p79
tp80
Rp81
ag10
(g14
S'\xf7|?5^r]@'
p82
tp83
Rp84
ag10
(g14
S'\xf3\xa7\xc6K7!Y@'
p85
tp86
Rp87
ag10
(g14
S't\xe7\xfb\xa9\xf1\x1aY@'
p88
tp89
Rp90
ag10
(g14
S'x=\n\xd7\xa3\xb8\\@'
p91
tp92
Rp93
ag10
(g14
S'(\x06\x81\x95CCZ@'
p94
tp95
Rp96
ag10
(g14
S'\x0f\xd7\xa3p=Ja@'
p97
tp98
Rp99
ag10
(g14
S'u\x93\x18\x04V\xea`@'
p100
tp101
Rp102
ag10
(g14
S'\xfd\xa9\xf1\xd2M&`@'
p103
tp104
Rp105
ag10
(g14
S'\xe6\xf9~j\xbct^@'
p106
tp107
Rp108
ag10
(g14
S'H\xb6\xf3\xfd\xd48\\@'
p109
tp110
Rp111
ag10
(g14
S'}\xbe\x9f\x1a/\xfd^@'
p112
tp113
Rp114
ag10
(g14
S'\xbb\xc8v\xbe\x9f\xa2\\@'
p115
tp116
Rp117
ag10
(g14
S's\x12\x83\xc0\xcayZ@'
p118
tp119
Rp120
ag10
(g14
S'\x8b\xed|?5\xbeX@'
p121
tp122
Rp123
ag10
(g14
S'0\xb2\x9d\xef\xa7\xbe_@'
p124
tp125
Rp126
ag10
(g14
S'l=\n\xd7\xa3 Z@'
p127
tp128
Rp129
ag10
(g14
S'\x03V\x0e-\xb2\xa5]@'
p130
tp131
Rp132
ag10
(g14
S'\xb7\x9d\xef\xa7\xc6\x0b`@'
p133
tp134
Rp135
ag10
(g14
S'\x0c\xd7\xa3p=\x06a@'
p136
tp137
Rp138
asssss.