(dp0
S'../Data/sqlite_32.csv'
p1
(dp2
S'../Data/sqlite_2.csv'
p3
(dp4
F0.2
(dp5
S'abs_res'
p6
(dp7
S'bellwether'
p8
(lp9
cnumpy.core.multiarray
scalar
p10
(cnumpy
dtype
p11
(S'f8'
p12
I0
I1
tp13
Rp14
(I3
S'<'
p15
NNNI-1
I-1
I0
tp16
bS't\x93\x18\xe4\xa1~BA'
p17
tp18
Rp19
ag10
(g14
S'\x92\xc2\xf5Hc}BA'
p20
tp21
Rp22
ag10
(g14
S'(\x08\xac\x0c\xfd~BA'
p23
tp24
Rp25
ag10
(g14
S'+\x08\xac\\g~BA'
p26
tp27
Rp28
ag10
(g14
S'\xb3\x1e\x85\x1b({BA'
p29
tp30
Rp31
ag10
(g14
S'\xe6&1\x88\xc8~BA'
p32
tp33
Rp34
ag10
(g14
S'7^\xba\xe9|}BA'
p35
tp36
Rp37
ag10
(g14
S'\xc2 \xb0R\x85~BA'
p38
tp39
Rp40
ag10
(g14
S'\x13\xaeG1\xad}BA'
p41
tp42
Rp43
ag10
(g14
S'\xcb\xf7SC\xd8{BA'
p44
tp45
Rp46
ag10
(g14
S'\xb5\x1e\x85[\xa8{BA'
p47
tp48
Rp49
ag10
(g14
S'\x12\x83\xc0:\\}BA'
p50
tp51
Rp52
ag10
(g14
S'\x06\x81\x95\x13u{BA'
p53
tp54
Rp55
ag10
(g14
S'\x82\xebQ\xd8\xd9}BA'
p56
tp57
Rp58
ag10
(g14
S'$\xdb\xf9n\xc6~BA'
p59
tp60
Rp61
ag10
(g14
S'B\x8bl\x17\xe5}BA'
p62
tp63
Rp64
ag10
(g14
S'\x16\xaeG\xd1c~BA'
p65
tp66
Rp67
ag10
(g14
S'\x11\xd9\xceW\xd5~BA'
p68
tp69
Rp70
ag10
(g14
S'gffv\xc8}BA'
p71
tp72
Rp73
ag10
(g14
S'\xa2p=z\x95}BA'
p74
tp75
Rp76
asS'target'
p77
(lp78
g10
(g14
S'v\x95C\x8blgN@'
p79
tp80
Rp81
ag10
(g14
S'8\n\xd7\xa3p\x85Q@'
p82
tp83
Rp84
ag10
(g14
S'\xd6\xce\xf7S\xe3\x8dS@'
p85
tp86
Rp87
ag10
(g14
S'Ib\x10X9\x94R@'
p88
tp89
Rp90
ag10
(g14
S'0\x87\x16\xd9\xce\x0fR@'
p91
tp92
Rp93
ag10
(g14
S'Y\xb8\x1e\x85\xeb\xc1Q@'
p94
tp95
Rp96
ag10
(g14
S'\xe9\xa5\x9b\xc4 \x98Q@'
p97
tp98
Rp99
ag10
(g14
S'\x96\xed|?5~S@'
p100
tp101
Rp102
ag10
(g14
S'l\x91\xed|?]P@'
p103
tp104
Rp105
ag10
(g14
S'}\xbe\x9f\x1a/UP@'
p106
tp107
Rp108
ag10
(g14
S'\xcf\xcc\xcc\xcc\xcc\x84R@'
p109
tp110
Rp111
ag10
(g14
S'\xab\xf1\xd2Mb\xacR@'
p112
tp113
Rp114
ag10
(g14
S'~j\xbct\x93\xd0P@'
p115
tp116
Rp117
ag10
(g14
S'u\x93\x18\x04V&S@'
p118
tp119
Rp120
ag10
(g14
S'\xf3\xa7\xc6K7!U@'
p121
tp122
Rp123
ag10
(g14
S'\x85A`\xe5\xd0\xbaR@'
p124
tp125
Rp126
ag10
(g14
S'\xf7~j\xbct\xfbP@'
p127
tp128
Rp129
ag10
(g14
S'C\n\xd7\xa3p=Q@'
p130
tp131
Rp132
ag10
(g14
S'\xf3\xfd\xd4x\xe9\xd6O@'
p133
tp134
Rp135
ag10
(g14
S'o\xe7\xfb\xa9\xf1:P@'
p136
tp137
Rp138
asssss.