(dp0
S'../Data/sqlite_97.csv'
p1
(dp2
S'../Data/sqlite_94.csv'
p3
(dp4
F0.15
(dp5
S'mmre'
p6
(dp7
S'bellwether'
p8
(lp9
cnumpy.core.multiarray
scalar
p10
(cnumpy
dtype
p11
(S'f8'
p12
I0
I1
tp13
Rp14
(I3
S'<'
p15
NNNI-1
I-1
I0
tp16
bS'\x19-M&3-U@'
p17
tp18
Rp19
ag10
(g14
S'K(\xda\xa4k+U@'
p20
tp21
Rp22
ag10
(g14
S'\xd1>~\x10\xdf,U@'
p23
tp24
Rp25
ag10
(g14
S'\x16?\xb1<\x041U@'
p26
tp27
Rp28
ag10
(g14
S'W\xe0\xde\x9c\x0b+U@'
p29
tp30
Rp31
ag10
(g14
S'\xa4\x1ah\xe5\x17+U@'
p32
tp33
Rp34
ag10
(g14
S'\xc2-e>}1U@'
p35
tp36
Rp37
ag10
(g14
S'\x90\xa2x\xcd\xff*U@'
p38
tp39
Rp40
ag10
(g14
S'd\x14ty\xaa-U@'
p41
tp42
Rp43
ag10
(g14
S'\xcdT4\xd9\x91*U@'
p44
tp45
Rp46
ag10
(g14
S'N\x94\xb4\xc5\x1b,U@'
p47
tp48
Rp49
ag10
(g14
S'\xc1\x16W\xf3\x92-U@'
p50
tp51
Rp52
ag10
(g14
S'\xc8\\\x02wF*U@'
p53
tp54
Rp55
ag10
(g14
S'\x8e8\xaa\xbeH,U@'
p56
tp57
Rp58
ag10
(g14
S'\xea\x1f2e\x00+U@'
p59
tp60
Rp61
ag10
(g14
S'\xce<\xbc\xeah1U@'
p62
tp63
Rp64
ag10
(g14
S'[4p\x1fD*U@'
p65
tp66
Rp67
ag10
(g14
S',\xe8\xb3\x84\x02*U@'
p68
tp69
Rp70
ag10
(g14
S' p)vK*U@'
p71
tp72
Rp73
ag10
(g14
S'$\xcf\xe0\xa2\xbe,U@'
p74
tp75
Rp76
asS'target'
p77
(lp78
g10
(g14
S'\xd3\xb0)\x19M\xceW@'
p79
tp80
Rp81
ag10
(g14
S'"S\xe3\x07T\xc8R@'
p82
tp83
Rp84
ag10
(g14
S'<\xa4(\xf9D\xd5V@'
p85
tp86
Rp87
ag10
(g14
S'\x95]A,G0F@'
p88
tp89
Rp90
ag10
(g14
S'\x12\xcfd\xb7\x1e\xadK@'
p91
tp92
Rp93
ag10
(g14
S'cFdP%\x81K@'
p94
tp95
Rp96
ag10
(g14
S'\xc5\x1f-\xf8\xd9\xa6[@'
p97
tp98
Rp99
ag10
(g14
S',\xb4G\xa7\x8e\xa4L@'
p100
tp101
Rp102
ag10
(g14
S'\xff\xcf\xbeD\x9cpS@'
p103
tp104
Rp105
ag10
(g14
S"P'q\xf7\x10\x8bL@"
p106
tp107
Rp108
ag10
(g14
S'\xb2\xb1&\xd6j\xfaK@'
p109
tp110
Rp111
ag10
(g14
S'\x7f(\xccu\xd1\xc0N@'
p112
tp113
Rp114
ag10
(g14
S'\x15\xb8\xdet\xb4fP@'
p115
tp116
Rp117
ag10
(g14
S'mQ7?\x99\xaaV@'
p118
tp119
Rp120
ag10
(g14
S'k\x0b\xaf\x18k\xf2[@'
p121
tp122
Rp123
ag10
(g14
S'\x92\xf5\x10W\x10BU@'
p124
tp125
Rp126
ag10
(g14
S'C\xb0\x08#\xbc\x1fY@'
p127
tp128
Rp129
ag10
(g14
S'\x95\xac\x88\x08=\x13F@'
p130
tp131
Rp132
ag10
(g14
S'\xf3\x98\xed\xb5\x97\xcfH@'
p133
tp134
Rp135
ag10
(g14
S'\xf7\nq\x88\xcfpB@'
p136
tp137
Rp138
asssss.