(dp0
S'../Data/sqlite_23.csv'
p1
(dp2
S'../Data/sqlite_59.csv'
p3
(dp4
F0.4
(dp5
S'mmre'
p6
(dp7
S'bellwether'
p8
(lp9
cnumpy.core.multiarray
scalar
p10
(cnumpy
dtype
p11
(S'f8'
p12
I0
I1
tp13
Rp14
(I3
S'<'
p15
NNNI-1
I-1
I0
tp16
bS's\x0c\x97\xae\xe2.W@'
p17
tp18
Rp19
ag10
(g14
S'\xa8\xda\x99B\xb9,W@'
p20
tp21
Rp22
ag10
(g14
S'H{v#\xdb*W@'
p23
tp24
Rp25
ag10
(g14
S'\x1a\x05\x8a\r\xe2+W@'
p26
tp27
Rp28
ag10
(g14
S'-\xa6c\xc8\xa8*W@'
p29
tp30
Rp31
ag10
(g14
S'\x80\xf5\x7f\x1ed/W@'
p32
tp33
Rp34
ag10
(g14
S'\xbc\x14w\xdd\xa4,W@'
p35
tp36
Rp37
ag10
(g14
S'tf\xc9\xd3\x7f.W@'
p38
tp39
Rp40
ag10
(g14
S'\xd3@}G\xa9+W@'
p41
tp42
Rp43
ag10
(g14
S'\xceN\xeb}\x14-W@'
p44
tp45
Rp46
ag10
(g14
S'\x03O.\xe8m,W@'
p47
tp48
Rp49
ag10
(g14
S'\xd1K\xf20\x11.W@'
p50
tp51
Rp52
ag10
(g14
S'\xe5\xfdU\xa4\xc6/W@'
p53
tp54
Rp55
ag10
(g14
S'\xf9AO4E+W@'
p56
tp57
Rp58
ag10
(g14
S'\xfd\r\x12\tA-W@'
p59
tp60
Rp61
ag10
(g14
S'\x1d$x\x17A,W@'
p62
tp63
Rp64
ag10
(g14
S'\n\x01x\xf9O.W@'
p65
tp66
Rp67
ag10
(g14
S'-\xad\x80\xf7+,W@'
p68
tp69
Rp70
ag10
(g14
S'\xf1\xed\xd5\xc3F,W@'
p71
tp72
Rp73
ag10
(g14
S'\x91\t\x82\xa3\xf8-W@'
p74
tp75
Rp76
asS'target'
p77
(lp78
g10
(g14
S'f|\xc1\x9f\xd1]&@'
p79
tp80
Rp81
ag10
(g14
S'\xc4Wke\xc4&%@'
p82
tp83
Rp84
ag10
(g14
S'\x8a\x07\x8b\x83cY&@'
p85
tp86
Rp87
ag10
(g14
S'\xe13\xac\x13\xd4\t%@'
p88
tp89
Rp90
ag10
(g14
S'h\x07\x85\xd4\x7f\x1d&@'
p91
tp92
Rp93
ag10
(g14
S'\xed0\xddU\xd3\x8b$@'
p94
tp95
Rp96
ag10
(g14
S'~\x1dBw\x02\x0b%@'
p97
tp98
Rp99
ag10
(g14
S'kN\xf0\x16\x84\x94$@'
p100
tp101
Rp102
ag10
(g14
S"\xac{\xec\xc8Mj'@"
p103
tp104
Rp105
ag10
(g14
S'`\xb5\x18\x8e\x1e\x11&@'
p106
tp107
Rp108
ag10
(g14
S'\x1d\xe1U\xb7\x1b\xe9%@'
p109
tp110
Rp111
ag10
(g14
S'\xeaD4\x12\xf0\x02%@'
p112
tp113
Rp114
ag10
(g14
S'\xd5\xa1\xf8b\xef\xfc$@'
p115
tp116
Rp117
ag10
(g14
S'\xe8\xd0(#\x81\xec%@'
p118
tp119
Rp120
ag10
(g14
S'*4\xdf\xdfE\xb6&@'
p121
tp122
Rp123
ag10
(g14
S'\xebX%\x9c\x9f\xd6%@'
p124
tp125
Rp126
ag10
(g14
S'Ef\x04M\xee\xca&@'
p127
tp128
Rp129
ag10
(g14
S'\x9em\xd9\xa9fN&@'
p130
tp131
Rp132
ag10
(g14
S'\x80\xb6\x04\xbf2;&@'
p133
tp134
Rp135
ag10
(g14
S'NYOw\x8dS%@'
p136
tp137
Rp138
asssss.