(dp0
S'../Data/sqlite_54.csv'
p1
(dp2
S'../Data/sqlite_59.csv'
p3
(dp4
F0.05
(dp5
S'mmre'
p6
(dp7
S'bellwether'
p8
(lp9
cnumpy.core.multiarray
scalar
p10
(cnumpy
dtype
p11
(S'f8'
p12
I0
I1
tp13
Rp14
(I3
S'<'
p15
NNNI-1
I-1
I0
tp16
bS'\x1b\xeb\x04\xba\x8eHV@'
p17
tp18
Rp19
ag10
(g14
S'\x14=\nz\x0eDV@'
p20
tp21
Rp22
ag10
(g14
S'8\x0f\xee3\xf8ZV@'
p23
tp24
Rp25
ag10
(g14
S'\xd3\r\xfc\x03\x06XV@'
p26
tp27
Rp28
ag10
(g14
S'WA\x8c\xf8\xcdeV@'
p29
tp30
Rp31
ag10
(g14
S'\xe0\xad\xec\xae\x11WV@'
p32
tp33
Rp34
ag10
(g14
S'0O\x80\xc7I_V@'
p35
tp36
Rp37
ag10
(g14
S'\xe0.\xabC\xbbHV@'
p38
tp39
Rp40
ag10
(g14
S'\xb1Kdm\x98ZV@'
p41
tp42
Rp43
ag10
(g14
S'\xfe\x0e^\xfd3TV@'
p44
tp45
Rp46
ag10
(g14
S':\xc3?\xac\x04XV@'
p47
tp48
Rp49
ag10
(g14
S'\xa5hQ\x02\xebpV@'
p50
tp51
Rp52
ag10
(g14
S'\xe0Z\x1c\t\x0fTV@'
p53
tp54
Rp55
ag10
(g14
S'\x0b\xf16\xc6\xe8KV@'
p56
tp57
Rp58
ag10
(g14
S'\xf8\x8dN7{WV@'
p59
tp60
Rp61
ag10
(g14
S'J\xd9\x1f)@JV@'
p62
tp63
Rp64
ag10
(g14
S'M\x08\n\x01\x8cXV@'
p65
tp66
Rp67
ag10
(g14
S'<A\xbfH\xf4VV@'
p68
tp69
Rp70
ag10
(g14
S'\x1e\xb9\x1d\xf6\x89WV@'
p71
tp72
Rp73
ag10
(g14
S'\x80\n\xb7\x82@GV@'
p74
tp75
Rp76
asS'target'
p77
(lp78
g10
(g14
S'\x81X\xd0\xd4#D"@'
p79
tp80
Rp81
ag10
(g14
S'W2\xe0,}9%@'
p82
tp83
Rp84
ag10
(g14
S'\x12\xfe\xef\xf00T%@'
p85
tp86
Rp87
ag10
(g14
S'\xd1\x9d\xf9H/\xe5(@'
p88
tp89
Rp90
ag10
(g14
S"\xb4,\xd6\x9e\xc4/'@"
p91
tp92
Rp93
ag10
(g14
S'\xef=\x97\xdf\xbaH$@'
p94
tp95
Rp96
ag10
(g14
S"8!\x92^$~'@"
p97
tp98
Rp99
ag10
(g14
S'\xb2J(\xe6\xabS%@'
p100
tp101
Rp102
ag10
(g14
S'\xc98\xb6\xc2\xb46)@'
p103
tp104
Rp105
ag10
(g14
S'\xcb\x88\nY\x87\xe5)@'
p106
tp107
Rp108
ag10
(g14
S'\xebk\r[\x0e\x99$@'
p109
tp110
Rp111
ag10
(g14
S'\x13\xdb\x8a\xeb\xea\xff*@'
p112
tp113
Rp114
ag10
(g14
S'\xa5\xfb\x82\xbb|\x8d%@'
p115
tp116
Rp117
ag10
(g14
S'A9\xc6kE#)@'
p118
tp119
Rp120
ag10
(g14
S'\xed3\xee~@\xdf&@'
p121
tp122
Rp123
ag10
(g14
S'\x07\xc5A{^\xda"@'
p124
tp125
Rp126
ag10
(g14
S"\xb5\x13U\xcd\x13d'@"
p127
tp128
Rp129
ag10
(g14
S'5\x9aU\xd6\xdfY%@'
p130
tp131
Rp132
ag10
(g14
S'*\xb3$,)F(@'
p133
tp134
Rp135
ag10
(g14
S"\x1a\xb5\x15\xcbg6'@"
p136
tp137
Rp138
asssss.