(dp0
S'../Data/sqlite_91.csv'
p1
(dp2
S'../Data/sqlite_70.csv'
p3
(dp4
F0.1
(dp5
S'abs_res'
p6
(dp7
S'bellwether'
p8
(lp9
cnumpy.core.multiarray
scalar
p10
(cnumpy
dtype
p11
(S'f8'
p12
I0
I1
tp13
Rp14
(I3
S'<'
p15
NNNI-1
I-1
I0
tp16
bS'\xa7G\xe1:\xc5\\&A'
p17
tp18
Rp19
ag10
(g14
S'th\x91\xed\x10]&A'
p20
tp21
Rp22
ag10
(g14
S'rh\x91-\x8b}&A'
p23
tp24
Rp25
ag10
(g14
S'\x80\x95C\xcb4Z&A'
p26
tp27
Rp28
ag10
(g14
S'\x16X9\xb4bT&A'
p29
tp30
Rp31
ag10
(g14
S'T\x1b\xe8\xf4#n&A'
p32
tp33
Rp34
ag10
(g14
S'dfff\x89o&A'
p35
tp36
Rp37
ag10
(g14
S'\xe8Q\xb8\xde\xc9R&A'
p38
tp39
Rp40
ag10
(g14
S'C\x19\xbd-\x7fd&A'
p41
tp42
Rp43
ag10
(g14
S'hJ\xc5\x99\xd7g&A'
p44
tp45
Rp46
ag10
(g14
S'\xac\x81N\xdbk[&A'
p47
tp48
Rp49
ag10
(g14
S'\x98\x99\x99Y\x01P&A'
p50
tp51
Rp52
ag10
(g14
S'\x8al\xe7;\r[&A'
p53
tp54
Rp55
ag10
(g14
S'\xe7\xb4\x81\x8e\xf5T&A'
p56
tp57
Rp58
ag10
(g14
S'\xde$\x06\x01\xfa`&A'
p59
tp60
Rp61
ag10
(g14
S"'\x85\xeb\xd1\x8ce&A"
p62
tp63
Rp64
ag10
(g14
S'\xff\xe3^\xb3\xe6U&A'
p65
tp66
Rp67
ag10
(g14
S'u!i\x8a\x85V&A'
p68
tp69
Rp70
ag10
(g14
S"'\xbfX\xf2\xdbi&A"
p71
tp72
Rp73
ag10
(g14
S'\xffU\x0e\xad\xe4]&A'
p74
tp75
Rp76
asS'target'
p77
(lp78
g10
(g14
S'\x01\xaa\xf1\xd2M\x16c@'
p79
tp80
Rp81
ag10
(g14
S'Z\x91\xed|?\tb@'
p82
tp83
Rp84
ag10
(g14
S'cd;\xdfO\xa5b@'
p85
tp86
Rp87
ag10
(g14
S'i=\n\xd7\xa3\x80a@'
p88
tp89
Rp90
ag10
(g14
S'd;\xdfO\x8d\xebb@'
p91
tp92
Rp93
ag10
(g14
S'p=\n\xd7\xa3lb@'
p94
tp95
Rp96
ag10
(g14
S'\xb4K7\x89A(b@'
p97
tp98
Rp99
ag10
(g14
S'Rd;\xdfO\xc9b@'
p100
tp101
Rp102
ag10
(g14
S'\x9aC\x8bl\xe7?a@'
p103
tp104
Rp105
ag10
(g14
S'\x18Zd;\xdfob@'
p106
tp107
Rp108
ag10
(g14
S'\xd7\xce\xf7S\xe3Eb@'
p109
tp110
Rp111
ag10
(g14
S'/\xb4\xc8v\xbe\xd7c@'
p112
tp113
Rp114
ag10
(g14
S'\xe6\xfb\xa9\xf1\xd2\xf1a@'
p115
tp116
Rp117
ag10
(g14
S'~\xbe\x9f\x1a/\xcd`@'
p118
tp119
Rp120
ag10
(g14
S'%\\\x8f\xc2\xf5dc@'
p121
tp122
Rp123
ag10
(g14
S'\xe7Q\xb8\x1e\x85\x7fa@'
p124
tp125
Rp126
ag10
(g14
S'c;\xdfO\x8d\x83b@'
p127
tp128
Rp129
ag10
(g14
S'\xc2\xf5(\\\x8f\xa6`@'
p130
tp131
Rp132
ag10
(g14
S'\xb2\x1e\x85\xebQ\x98b@'
p133
tp134
Rp135
ag10
(g14
S'\x00+\x87\x16\xd9^b@'
p136
tp137
Rp138
asssss.