(dp0
S'../Data/sqlite_50.csv'
p1
(dp2
S'../Data/sqlite_8.csv'
p3
(dp4
F0.1
(dp5
S'abs_res'
p6
(dp7
S'bellwether'
p8
(lp9
cnumpy.core.multiarray
scalar
p10
(cnumpy
dtype
p11
(S'f8'
p12
I0
I1
tp13
Rp14
(I3
S'<'
p15
NNNI-1
I-1
I0
tp16
bS"\x1bZd;\xdf'`@"
p17
tp18
Rp19
ag10
(g14
S'@5^\xbaIZ`@'
p20
tp21
Rp22
ag10
(g14
S'\xadG\xe1z\x14&`@'
p23
tp24
Rp25
ag10
(g14
S'\xc7K7\x89A``@'
p26
tp27
Rp28
ag10
(g14
S'Tb\x10X9b`@'
p29
tp30
Rp31
ag10
(g14
S'\x89l\xe7\xfb\xa9]`@'
p32
tp33
Rp34
ag10
(g14
S"\x05\xe4^s!'`@"
p35
tp36
Rp37
ag10
(g14
S'X9\xb4\xc8vX`@'
p38
tp39
Rp40
ag10
(g14
S"\xcb\xf7S\xe3\xa5'`@"
p41
tp42
Rp43
ag10
(g14
S'V\xb8\x1e\x85\xeb{`@'
p44
tp45
Rp46
ag10
(g14
S'D\n\xd7\xa3p?`@'
p47
tp48
Rp49
ag10
(g14
S'\xcb\xa1E\xb6\xf3%`@'
p50
tp51
Rp52
ag10
(g14
S'\xda\x87\xcf\xb0+\x14`@'
p53
tp54
Rp55
ag10
(g14
S'\x87\xc0\xca\xa1E\n`@'
p56
tp57
Rp58
ag10
(g14
S'\x00\xb9\xd7\\Hh`@'
p59
tp60
Rp61
ag10
(g14
S'\x92\xed|?5H`@'
p62
tp63
Rp64
ag10
(g14
S'\x86y\xa2\xfe\x8dR`@'
p65
tp66
Rp67
ag10
(g14
S'\t\x02+\x87\x16\xf5_@'
p68
tp69
Rp70
ag10
(g14
S'\xe0z\x14\xaeG\x1d`@'
p71
tp72
Rp73
ag10
(g14
S'\x05\x0f\xe6\x89\xfa?`@'
p74
tp75
Rp76
asS'target'
p77
(lp78
g10
(g14
S'a\xbaI\x0c\x02#c@'
p79
tp80
Rp81
ag10
(g14
S'\xda$\x06\x81\x95\xbf`@'
p82
tp83
Rp84
ag10
(g14
S'U\xbaI\x0c\x02\xf7Z@'
p85
tp86
Rp87
ag10
(g14
S'@\n\xd7\xa3p\xad[@'
p88
tp89
Rp90
ag10
(g14
S'\x8a?5^\xba![@'
p91
tp92
Rp93
ag10
(g14
S'\xed\xa7\xc6K7\xb9[@'
p94
tp95
Rp96
ag10
(g14
S'A\xb4\xc8v\xbe\x07_@'
p97
tp98
Rp99
ag10
(g14
S'\x8d\xebQ\xb8\x1e\x05\\@'
p100
tp101
Rp102
ag10
(g14
S'\xd8\xa3p=\n\x07\\@'
p103
tp104
Rp105
ag10
(g14
S'\xde\xf9~j\xbc\xf4Z@'
p106
tp107
Rp108
ag10
(g14
S'\x80?5^\xba]`@'
p109
tp110
Rp111
ag10
(g14
S'R`\xe5\xd0"\xab_@'
p112
tp113
Rp114
ag10
(g14
S'\xb7\xc8v\xbe\x9f6`@'
p115
tp116
Rp117
ag10
(g14
S'K\x0c\x02+\x87~Y@'
p118
tp119
Rp120
ag10
(g14
S'\x0c\xd7\xa3p=\xea\\@'
p121
tp122
Rp123
ag10
(g14
S'\xa0\x18\x04V\x0e\xc5Y@'
p124
tp125
Rp126
ag10
(g14
S'\xe2\xa3p=\n\x0f^@'
p127
tp128
Rp129
ag10
(g14
S'\x14\xaeG\xe1z$_@'
p130
tp131
Rp132
ag10
(g14
S'\x19\xb0rh\x91!`@'
p133
tp134
Rp135
ag10
(g14
S'b;\xdfO\x8do\\@'
p136
tp137
Rp138
asssss.