(dp0
S'../Data/sqlite_59.csv'
p1
(dp2
S'../Data/sqlite_87.csv'
p3
(dp4
F0.3
(dp5
S'mmre'
p6
(dp7
S'bellwether'
p8
(lp9
cnumpy.core.multiarray
scalar
p10
(cnumpy
dtype
p11
(S'f8'
p12
I0
I1
tp13
Rp14
(I3
S'<'
p15
NNNI-1
I-1
I0
tp16
bS'S3%\xf1x+B@'
p17
tp18
Rp19
ag10
(g14
S' N\xfdwLtB@'
p20
tp21
Rp22
ag10
(g14
S'\xe9\xb7\x8d\xf4\xb1\x7fB@'
p23
tp24
Rp25
ag10
(g14
S'\x18\x01\x80\x87d\xcaB@'
p26
tp27
Rp28
ag10
(g14
S'\xc0\xcf=0\x18\x95B@'
p29
tp30
Rp31
ag10
(g14
S'2\x91j\x99\xe6\xa7B@'
p32
tp33
Rp34
ag10
(g14
S'\xd8ov+\xe68B@'
p35
tp36
Rp37
ag10
(g14
S'\xf5SD\x91\x97\x0fB@'
p38
tp39
Rp40
ag10
(g14
S'l\xa1i<\x95\x85B@'
p41
tp42
Rp43
ag10
(g14
S'\xc9\xe5\xad\r:\xa0B@'
p44
tp45
Rp46
ag10
(g14
S'\xa7\xa3q\x96xYB@'
p47
tp48
Rp49
ag10
(g14
S'>\x8f\xf6Df]B@'
p50
tp51
Rp52
ag10
(g14
S'\x02\xbf)\xcd\xdb\xeeB@'
p53
tp54
Rp55
ag10
(g14
S"\x1e\xe5+`B'B@"
p56
tp57
Rp58
ag10
(g14
S'9p\xb78aeB@'
p59
tp60
Rp61
ag10
(g14
S'fc\x9d4\xb0\x15B@'
p62
tp63
Rp64
ag10
(g14
S'\xe6S\xcb\x13\xc3\xa9B@'
p65
tp66
Rp67
ag10
(g14
S'?;\xb4K\x17\x15B@'
p68
tp69
Rp70
ag10
(g14
S'\x8c\\\x9b\x17;\x92B@'
p71
tp72
Rp73
ag10
(g14
S'T\x10\xcf@\xf4oB@'
p74
tp75
Rp76
asS'target'
p77
(lp78
g10
(g14
S'S3\x08R^\x9fP@'
p79
tp80
Rp81
ag10
(g14
S'(\x98&\xa2+\xa3T@'
p82
tp83
Rp84
ag10
(g14
S'+L3Sf&M@'
p85
tp86
Rp87
ag10
(g14
S"a\xe1~-\xb8'P@"
p88
tp89
Rp90
ag10
(g14
S'\x8eq}\xb0\xa4\xdfP@'
p91
tp92
Rp93
ag10
(g14
S'\xbc/\x90\x00l\xb6Q@'
p94
tp95
Rp96
ag10
(g14
S'nj\xb9_\x90pO@'
p97
tp98
Rp99
ag10
(g14
S'\xd7R\x9b\x12\xca\x9bS@'
p100
tp101
Rp102
ag10
(g14
S'U}\xf5\n\xfd\x1eR@'
p103
tp104
Rp105
ag10
(g14
S"u\xdf'k$\xe4S@"
p106
tp107
Rp108
ag10
(g14
S'N\x93\x96\x8eG4O@'
p109
tp110
Rp111
ag10
(g14
S'\xa4\xc2\xe0\x8c/\x1fN@'
p112
tp113
Rp114
ag10
(g14
S'{X\xfe\xeb\x10PP@'
p115
tp116
Rp117
ag10
(g14
S'rZ#\xfc\nAJ@'
p118
tp119
Rp120
ag10
(g14
S'F\xe64\x99$ U@'
p121
tp122
Rp123
ag10
(g14
S'\xec\xc9\x06oxZR@'
p124
tp125
Rp126
ag10
(g14
S'\x1c%\x81?\xf3\xf0P@'
p127
tp128
Rp129
ag10
(g14
S'\x89wV\xf4\x98RU@'
p130
tp131
Rp132
ag10
(g14
S'\xa7\x9d\x80\xe7\xb2\xecP@'
p133
tp134
Rp135
ag10
(g14
S']\xdf\xec\x1c\xf4\xe6L@'
p136
tp137
Rp138
asssss.