(dp0
S'../Data/sqlite_34.csv'
p1
(dp2
S'../Data/sqlite_79.csv'
p3
(dp4
F0.2
(dp5
S'mmre'
p6
(dp7
S'bellwether'
p8
(lp9
cnumpy.core.multiarray
scalar
p10
(cnumpy
dtype
p11
(S'f8'
p12
I0
I1
tp13
Rp14
(I3
S'<'
p15
NNNI-1
I-1
I0
tp16
bS'\xd7D\x0b\x9f\xc9\x83}@'
p17
tp18
Rp19
ag10
(g14
S"S'.Y\xb0u}@"
p20
tp21
Rp22
ag10
(g14
S'nH\x15y\xdc\xa3}@'
p23
tp24
Rp25
ag10
(g14
S'g\x07\xaai\xdb\x94}@'
p26
tp27
Rp28
ag10
(g14
S'\xe7oS\x02ix}@'
p29
tp30
Rp31
ag10
(g14
S'\x18\xaa\x9af7k}@'
p32
tp33
Rp34
ag10
(g14
S"'F+\n]\x96}@"
p35
tp36
Rp37
ag10
(g14
S'\xad\xd2<E\xa1\x80}@'
p38
tp39
Rp40
ag10
(g14
S'\xea~\xbaz)v}@'
p41
tp42
Rp43
ag10
(g14
S'\xde]D8\xf8\x82}@'
p44
tp45
Rp46
ag10
(g14
S'\xce/]\x8b\xabi}@'
p47
tp48
Rp49
ag10
(g14
S' }9M\x97\x91}@'
p50
tp51
Rp52
ag10
(g14
S'\x07`\xc3Y\xffy}@'
p53
tp54
Rp55
ag10
(g14
S'\xf4\x12\xdcp\x13h}@'
p56
tp57
Rp58
ag10
(g14
S'u\xb6w\xb2b|}@'
p59
tp60
Rp61
ag10
(g14
S'\x8e7\xadR5\x92}@'
p62
tp63
Rp64
ag10
(g14
S'\xe3%\x1e\xe2\x03q}@'
p65
tp66
Rp67
ag10
(g14
S'u&j\t?\x84}@'
p68
tp69
Rp70
ag10
(g14
S'\xca\x13\x88\xce\x1c\x87}@'
p71
tp72
Rp73
ag10
(g14
S'\x18\xbb\x10\xfb\xd8v}@'
p74
tp75
Rp76
asS'target'
p77
(lp78
g10
(g14
S'\xa7,\xb9\xa8b\x8b"@'
p79
tp80
Rp81
ag10
(g14
S'{\xeb\xde\xb0\xa8)%@'
p82
tp83
Rp84
ag10
(g14
S'}b\t_\xdeF%@'
p85
tp86
Rp87
ag10
(g14
S'(&1w\xe7\xba\x1f@'
p88
tp89
Rp90
ag10
(g14
S'\xd2[\xcc5\x1a\xc2\x1d@'
p91
tp92
Rp93
ag10
(g14
S'\xdchz\x8b}\xc7!@'
p94
tp95
Rp96
ag10
(g14
S't\xfb\x8a\x10\xc8\xf50@'
p97
tp98
Rp99
ag10
(g14
S'0\x86\x1cKC-!@'
p100
tp101
Rp102
ag10
(g14
S'z%[)OM\x1f@'
p103
tp104
Rp105
ag10
(g14
S'j\x90\x0e7\xad\xcf&@'
p106
tp107
Rp108
ag10
(g14
S'\xcb\xfc29X\xbe\x1d@'
p109
tp110
Rp111
ag10
(g14
S"\xc7\xefP\xe8\xebJ'@"
p112
tp113
Rp114
ag10
(g14
S'\x00u\xc8(bw&@'
p115
tp116
Rp117
ag10
(g14
S'\x10\xa3W1\x9fx"@'
p118
tp119
Rp120
ag10
(g14
S'j\xc5\xdd:;\x9b#@'
p121
tp122
Rp123
ag10
(g14
S'E\x8e/\xa3\x9fa#@'
p124
tp125
Rp126
ag10
(g14
S'\xf2\x11\xd1\x03\xa5U @'
p127
tp128
Rp129
ag10
(g14
S':\x1e\x8e*\xe6I\x1f@'
p130
tp131
Rp132
ag10
(g14
S'lv\xcd\xd1yq(@'
p133
tp134
Rp135
ag10
(g14
S'\x12C\xeb\x96Y\x8a"@'
p136
tp137
Rp138
asssss.