(dp0
S'../Data/sqlite_11.csv'
p1
(dp2
S'../Data/sqlite_1.csv'
p3
(dp4
F0.05
(dp5
S'abs_res'
p6
(dp7
S'bellwether'
p8
(lp9
cnumpy.core.multiarray
scalar
p10
(cnumpy
dtype
p11
(S'f8'
p12
I0
I1
tp13
Rp14
(I3
S'<'
p15
NNNI-1
I-1
I0
tp16
bS'Y\x8f\xc2\x15\x1f7>A'
p17
tp18
Rp19
ag10
(g14
S'\xf9\xff\xff\x1fP7>A'
p20
tp21
Rp22
ag10
(g14
S'k=\n7\r7>A'
p23
tp24
Rp25
ag10
(g14
S'\x80\xebQ\xf8j7>A'
p26
tp27
Rp28
ag10
(g14
S's\x14\xae\x87.7>A'
p29
tp30
Rp31
ag10
(g14
S'hff&\xe46>A'
p32
tp33
Rp34
ag10
(g14
S'Y\x8f\xc2u\x896>A'
p35
tp36
Rp37
ag10
(g14
S'\x83\xebQ\x18\xf46>A'
p38
tp39
Rp40
ag10
(g14
S'P\xe1z\x94)7>A'
p41
tp42
Rp43
ag10
(g14
S'J\xb8\x1e\xc5v7>A'
p44
tp45
Rp46
ag10
(g14
S')\\\x8fB\xf96>A'
p47
tp48
Rp49
ag10
(g14
S'v=\nWy7>A'
p50
tp51
Rp52
ag10
(g14
S'\x1a\x85\xeb\xd197>A'
p53
tp54
Rp55
ag10
(g14
S'\x18\x85\xebQ\x0c8>A'
p56
tp57
Rp58
ag10
(g14
S"\x97\xc2\xf5h'7>A"
p59
tp60
Rp61
ag10
(g14
S'GDD$\x936>A'
p62
tp63
Rp64
ag10
(g14
S'\xc9\xcc\xcc\x0cA7>A'
p65
tp66
Rp67
ag10
(g14
S'\n:m\xc0V7>A'
p68
tp69
Rp70
ag10
(g14
S'\x0c\xd7\xa30.7>A'
p71
tp72
Rp73
ag10
(g14
S'\x92\xc2\xf5\xa8\x847>A'
p74
tp75
Rp76
asS'target'
p77
(lp78
g10
(g14
S'\xcd\xcc\xcc\xcc\xcc\x84\xd2@'
p79
tp80
Rp81
ag10
(g14
S'=333s-\xd3@'
p82
tp83
Rp84
ag10
(g14
S'*333\x13\xe5\xd2@'
p85
tp86
Rp87
ag10
(g14
S'\x8c\x99\x99\x99y>\xd6@'
p88
tp89
Rp90
ag10
(g14
S'\x97\x99\x99\x999\xbb\xd3@'
p91
tp92
Rp93
ag10
(g14
S'hfff&]\xd3@'
p94
tp95
Rp96
ag10
(g14
S'affff\xc5\xd4@'
p97
tp98
Rp99
ag10
(g14
S'-333\xf3\x1d\xd3@'
p100
tp101
Rp102
ag10
(g14
S';333S6\xd4@'
p103
tp104
Rp105
ag10
(g14
S'\x97\x99\x99\x99Y\xf1\xd3@'
p106
tp107
Rp108
ag10
(g14
S'0333sf\xd7@'
p109
tp110
Rp111
ag10
(g14
S'E333\xf3\x1c\xd5@'
p112
tp113
Rp114
ag10
(g14
S'\xca\xcc\xcc\xcc\x8c\xaf\xd5@'
p115
tp116
Rp117
ag10
(g14
S'1333\xf3?\xd7@'
p118
tp119
Rp120
ag10
(g14
S'\x05\x00\x00\x00 j\xd5@'
p121
tp122
Rp123
ag10
(g14
S'3333\x93\x92\xd6@'
p124
tp125
Rp126
ag10
(g14
S'\x05\x00\x00\x00\x00\xb2\xd4@'
p127
tp128
Rp129
ag10
(g14
S'\xd8\xcc\xcc\xcc\xeca\xd3@'
p130
tp131
Rp132
ag10
(g14
S'jfff\xe6\xe1\xd5@'
p133
tp134
Rp135
ag10
(g14
S'cfff&:\xd5@'
p136
tp137
Rp138
asssss.