(dp0
S'../Data/sqlite_1.csv'
p1
(dp2
S'../Data/sqlite_51.csv'
p3
(dp4
F0.05
(dp5
S'abs_res'
p6
(dp7
S'bellwether'
p8
(lp9
cnumpy.core.multiarray
scalar
p10
(cnumpy
dtype
p11
(S'f8'
p12
I0
I1
tp13
Rp14
(I3
S'<'
p15
NNNI-1
I-1
I0
tp16
bS'\x80\xe9&1\x9b=BA'
p17
tp18
Rp19
ag10
(g14
S'N\xb8\x1e\xd5\x7f=BA'
p20
tp21
Rp22
ag10
(g14
S'o\x842\xfa\x00>BA'
p23
tp24
Rp25
ag10
(g14
S'J\xe1ztp=BA'
p26
tp27
Rp28
ag10
(g14
S'i\xbct\x13\x92=BA'
p29
tp30
Rp31
ag10
(g14
S'L\x8bl\xb7\x8a=BA'
p32
tp33
Rp34
ag10
(g14
S'\xe1z\x14>]=BA'
p35
tp36
Rp37
ag10
(g14
S'\xe2\xa5\x9b\x94\xdf=BA'
p38
tp39
Rp40
ag10
(g14
S'r\xe9&\xd1_=BA'
p41
tp42
Rp43
ag10
(g14
S'\x04\xac\x1c:\xfe<BA'
p44
tp45
Rp46
ag10
(g14
S'M\xe3\xa5[G=BA'
p47
tp48
Rp49
ag10
(g14
S'\x99\xe0\xc1<o=BA'
p50
tp51
Rp52
ag10
(g14
S'\x1eZd\xdbc=BA'
p53
tp54
Rp55
ag10
(g14
S'\xb6\xc8v\x1el=BA'
p56
tp57
Rp58
ag10
(g14
S'\xa3\xf1\xd2-\x8f=BA'
p59
tp60
Rp61
ag10
(g14
S'}\xbe\x9fZ\x9b=BA'
p62
tp63
Rp64
ag10
(g14
S'r=\n7\xe0<BA'
p65
tp66
Rp67
ag10
(g14
S'W\xbaI\xec\xc4=BA'
p68
tp69
Rp70
ag10
(g14
S'\x04\x81\x95C^=BA'
p71
tp72
Rp73
ag10
(g14
S'\x07\x81\x95\xb3@=BA'
p74
tp75
Rp76
asS'target'
p77
(lp78
g10
(g14
S'\xfe\xfd\xd4x\xe9&F@'
p79
tp80
Rp81
ag10
(g14
S'Td;\xdfO\x9dD@'
p82
tp83
Rp84
ag10
(g14
S'\n\xac\x1cZd\xebA@'
p85
tp86
Rp87
ag10
(g14
S'\xc4v\xbe\x9f\x1aO@@'
p88
tp89
Rp90
ag10
(g14
S'\x07\xaa\xf1\xd2M\x12E@'
p91
tp92
Rp93
ag10
(g14
S'\xb9\xf3\xfd\xd4xiJ@'
p94
tp95
Rp96
ag10
(g14
S'\x05\x00\x00\x00\x00\xa0A@'
p97
tp98
Rp99
ag10
(g14
S'\xaaE\xb6\xf3\xfdt=@'
p100
tp101
Rp102
ag10
(g14
S'\x8e\xebQ\xb8\x1e\xb5A@'
p103
tp104
Rp105
ag10
(g14
S'\x12\xaeG\xe1z\xb4@@'
p106
tp107
Rp108
ag10
(g14
S'b\xbaI\x0c\x02\x8bD@'
p109
tp110
Rp111
ag10
(g14
S'h\x91\xed|?\xb5@@'
p112
tp113
Rp114
ag10
(g14
S'\x7fh\x91\xed|\x9fC@'
p115
tp116
Rp117
ag10
(g14
S'q\x12\x83\xc0\xcaqE@'
p118
tp119
Rp120
ag10
(g14
S'}\x95C\x8blWC@'
p121
tp122
Rp123
ag10
(g14
S'\x84n\x12\x83\xc0zK@'
p124
tp125
Rp126
ag10
(g14
S'\n\xac\x1cZd[C@'
p127
tp128
Rp129
ag10
(g14
S'\xcat\x93\x18\x04vB@'
p130
tp131
Rp132
ag10
(g14
S'uh\x91\xed|/A@'
p133
tp134
Rp135
ag10
(g14
S'\xb7\xf3\xfd\xd4x\tB@'
p136
tp137
Rp138
asssss.