(dp0
S'../Data/sqlite_48.csv'
p1
(dp2
S'../Data/sqlite_43.csv'
p3
(dp4
F0.3
(dp5
S'abs_res'
p6
(dp7
S'bellwether'
p8
(lp9
cnumpy.core.multiarray
scalar
p10
(cnumpy
dtype
p11
(S'f8'
p12
I0
I1
tp13
Rp14
(I3
S'<'
p15
NNNI-1
I-1
I0
tp16
bS'\xf6\x8b%OOi:A'
p17
tp18
Rp19
ag10
(g14
S'\xc0g\xd8u\xeci:A'
p20
tp21
Rp22
ag10
(g14
S'\xd4$\x06\xe1Mi:A'
p23
tp24
Rp25
ag10
(g14
S'\xb4G\xe1*Nj:A'
p26
tp27
Rp28
ag10
(g14
S'\x9e\xc4  |i:A'
p29
tp30
Rp31
ag10
(g14
S'\x04G(c\xbdh:A'
p32
tp33
Rp34
ag10
(g14
S'b;\xdf\xafWj:A'
p35
tp36
Rp37
ag10
(g14
S'\xf6D\xfd\xab\xa7j:A'
p38
tp39
Rp40
ag10
(g14
S'\n\x02+W\x9ci:A'
p41
tp42
Rp43
ag10
(g14
S';\xfd\x1b\x11\x92h:A'
p44
tp45
Rp46
ag10
(g14
S'"1\x08\x1c\x99j:A'
p47
tp48
Rp49
ag10
(g14
S'\x19g\x1f\xde\xbch:A'
p50
tp51
Rp52
ag10
(g14
S'{[\xd6\xeapi:A'
p53
tp54
Rp55
ag10
(g14
S'\xcfi\x03\xbd\xa2h:A'
p56
tp57
Rp58
ag10
(g14
S'\xf9\xfd\xd4\x98\xb8i:A'
p59
tp60
Rp61
ag10
(g14
S'\xd7Mb\x10hi:A'
p62
tp63
Rp64
ag10
(g14
S'\xf6\xd2M\xa2\xb1h:A'
p65
tp66
Rp67
ag10
(g14
S'\xf35\x17\x02\xdej:A'
p68
tp69
Rp70
ag10
(g14
S'o\x03\x9d\x96\xa2j:A'
p71
tp72
Rp73
ag10
(g14
S'\x1av\x05\x08qi:A'
p74
tp75
Rp76
asS'target'
p77
(lp78
g10
(g14
S'bfff\xa6\x8b\xc1@'
p79
tp80
Rp81
ag10
(g14
S'bfff&\xce\xc1@'
p82
tp83
Rp84
ag10
(g14
S'\xc5\xcc\xcc\xcc\x0c\xd6\xc2@'
p85
tp86
Rp87
ag10
(g14
S'jfff&\xbc\xc1@'
p88
tp89
Rp90
ag10
(g14
S'ffff\xe65\xc2@'
p91
tp92
Rp93
ag10
(g14
S'ifff\xa6\xd5\xc1@'
p94
tp95
Rp96
ag10
(g14
S'\x03\x00\x00\x00\xe0\xb9\xc1@'
p97
tp98
Rp99
ag10
(g14
S'\xce\xcc\xcc\xcc\x0c<\xc1@'
p100
tp101
Rp102
ag10
(g14
S'cffff\xf9\xc0@'
p103
tp104
Rp105
ag10
(g14
S'kffffS\xc1@'
p106
tp107
Rp108
ag10
(g14
S'53333M\xc1@'
p109
tp110
Rp111
ag10
(g14
S'\x99\x99\x99\x99\xf9\x15\xc2@'
p112
tp113
Rp114
ag10
(g14
S'\x98\x99\x99\x99\xd9\xeb\xc1@'
p115
tp116
Rp117
ag10
(g14
S'dfff\xe6}\xc2@'
p118
tp119
Rp120
ag10
(g14
S'\x9f\x99\x99\x99\x99q\xc1@'
p121
tp122
Rp123
ag10
(g14
S'hfff\xe6T\xc1@'
p124
tp125
Rp126
ag10
(g14
S'dfffF\xfa\xc2@'
p127
tp128
Rp129
ag10
(g14
S'ffff\xa6Z\xc1@'
p130
tp131
Rp132
ag10
(g14
S'\xca\xcc\xcc\xccL\x8c\xc1@'
p133
tp134
Rp135
ag10
(g14
S'4333S\x1c\xc1@'
p136
tp137
Rp138
asssss.