(dp0
S'../Data/sqlite_95.csv'
p1
(dp2
S'../Data/sqlite_30.csv'
p3
(dp4
F0.35
(dp5
S'abs_res'
p6
(dp7
S'bellwether'
p8
(lp9
cnumpy.core.multiarray
scalar
p10
(cnumpy
dtype
p11
(S'f8'
p12
I0
I1
tp13
Rp14
(I3
S'<'
p15
NNNI-1
I-1
I0
tp16
bS'\x8cPF\xaf\xfe83A'
p17
tp18
Rp19
ag10
(g14
S'5\x17\x92fxZ3A'
p20
tp21
Rp22
ag10
(g14
S'\x13\xf5o$>\x923A'
p23
tp24
Rp25
ag10
(g14
S'\xae\x9d\xef\xa7#=3A'
p26
tp27
Rp28
ag10
(g14
S'\x12\x9fa\xf7\xd4C3A'
p29
tp30
Rp31
ag10
(g14
S'=\xa7\r4py3A'
p32
tp33
Rp34
ag10
(g14
S'\xe0\x89\xfaw5-3A'
p35
tp36
Rp37
ag10
(g14
S'\xaa\xf1\xd2\xed4\x8f3A'
p38
tp39
Rp40
ag10
(g14
S':|\x86=\xf263A'
p41
tp42
Rp43
ag10
(g14
S'\x08\xe6\x89\xda\x8e@3A'
p44
tp45
Rp46
ag10
(g14
S'\x996\xd0)\x9fZ3A'
p47
tp48
Rp49
ag10
(g14
S'|j\xbc4\xcb>3A'
p50
tp51
Rp52
ag10
(g14
S'\xb9e\xad.\x82\x003A'
p53
tp54
Rp55
ag10
(g14
S'\xd2x\xe9\xc6B[3A'
p56
tp57
Rp58
ag10
(g14
S'B\xa98\x9b.\n3A'
p59
tp60
Rp61
ag10
(g14
S'%\xa3\xb7e>53A'
p62
tp63
Rp64
ag10
(g14
S'\x95\xed|\xbf\xd9Q3A'
p65
tp66
Rp67
ag10
(g14
S'\xc3\xca\xa1\xe5\xb3^3A'
p68
tp69
Rp70
ag10
(g14
S'v\xf8\x0c\x1b\xdeT3A'
p71
tp72
Rp73
ag10
(g14
S'W\x1d\x13<\xff_3A'
p74
tp75
Rp76
asS'target'
p77
(lp78
g10
(g14
S'95^\xbaIL>@'
p79
tp80
Rp81
ag10
(g14
S'H\xb6\xf3\xfd\xd4\xa8<@'
p82
tp83
Rp84
ag10
(g14
S"\x8a\x95C\x8bl'?@"
p85
tp86
Rp87
ag10
(g14
S'/\xb2\x9d\xef\xa7\xb6>@'
p88
tp89
Rp90
ag10
(g14
S'H`\xe5\xd0"\xdb>@'
p91
tp92
Rp93
ag10
(g14
S'\x85\x97n\x12\x83@<@'
p94
tp95
Rp96
ag10
(g14
S'\xfe(\\\x8f\xc2%;@'
p97
tp98
Rp99
ag10
(g14
S'\xa2\xf1\xd2Mb\x90>@'
p100
tp101
Rp102
ag10
(g14
S'\xa5\xf1\xd2Mb\xa0?@'
p103
tp104
Rp105
ag10
(g14
S'\xb4t\x93\x18\x04&;@'
p106
tp107
Rp108
ag10
(g14
S'\x1d\x04V\x0e-2:@'
p109
tp110
Rp111
ag10
(g14
S'\xfe\xd4x\xe9&1=@'
p112
tp113
Rp114
ag10
(g14
S'\xb0\xc6K7\x89a:@'
p115
tp116
Rp117
ag10
(g14
S'\xc5 \xb0rh\x91<@'
p118
tp119
Rp120
ag10
(g14
S'effff\xf6;@'
p121
tp122
Rp123
ag10
(g14
S'/3333C:@'
p124
tp125
Rp126
ag10
(g14
S'7^\xbaI\x0c\xe2<@'
p127
tp128
Rp129
ag10
(g14
S'\xfbS\xe3\xa5\x9bd?@'
p130
tp131
Rp132
ag10
(g14
S'\xa3\xf1\xd2Mb\xa0<@'
p133
tp134
Rp135
ag10
(g14
S'B\xb6\xf3\xfd\xd4\xe8:@'
p136
tp137
Rp138
asssss.