(dp0
S'../Data/sqlite_17.csv'
p1
(dp2
S'../Data/sqlite_96.csv'
p3
(dp4
F0.2
(dp5
S'mmre'
p6
(dp7
S'bellwether'
p8
(lp9
cnumpy.core.multiarray
scalar
p10
(cnumpy
dtype
p11
(S'f8'
p12
I0
I1
tp13
Rp14
(I3
S'<'
p15
NNNI-1
I-1
I0
tp16
bS'"\x88\x8a\xf7\x0eGR@'
p17
tp18
Rp19
ag10
(g14
S'\xd5\xccx\xb6bLR@'
p20
tp21
Rp22
ag10
(g14
S'T\x85\xf9\xa8RKR@'
p23
tp24
Rp25
ag10
(g14
S'\xfe\xfbk\xce6CR@'
p26
tp27
Rp28
ag10
(g14
S'\xb7\xe9\x8d9]HR@'
p29
tp30
Rp31
ag10
(g14
S':\x9a\xbe\x8c\x7fRR@'
p32
tp33
Rp34
ag10
(g14
S'\xda\xde)\xba/SR@'
p35
tp36
Rp37
ag10
(g14
S'=\x01T\xcc\xe4OR@'
p38
tp39
Rp40
ag10
(g14
S"\x1a\xcc_\xcd'DR@"
p41
tp42
Rp43
ag10
(g14
S'\xe0\xc0\xf7\x1d\x83ER@'
p44
tp45
Rp46
ag10
(g14
S'\x00\xc1\x86\x8esQR@'
p47
tp48
Rp49
ag10
(g14
S'<c?\x12\xe6WR@'
p50
tp51
Rp52
ag10
(g14
S'\xb3\x0e:&aBR@'
p53
tp54
Rp55
ag10
(g14
S'\x84\x9d/!\x03SR@'
p56
tp57
Rp58
ag10
(g14
S'm\x90\xfe\r0JR@'
p59
tp60
Rp61
ag10
(g14
S'\xb4\x11f\nlWR@'
p62
tp63
Rp64
ag10
(g14
S'7\xf8kN\t<R@'
p65
tp66
Rp67
ag10
(g14
S'p"\'\xeb\xa4RR@'
p68
tp69
Rp70
ag10
(g14
S'\xa22\xeekWIR@'
p71
tp72
Rp73
ag10
(g14
S'\xd2\x9b\x13J\xc8VR@'
p74
tp75
Rp76
asS'target'
p77
(lp78
g10
(g14
S'\x83h\xe1\xc7\xf8[Q@'
p79
tp80
Rp81
ag10
(g14
S'\x94\xdf9\xfceJM@'
p82
tp83
Rp84
ag10
(g14
S'~\xddw\xef?\xf3[@'
p85
tp86
Rp87
ag10
(g14
S'\xf42\xfdn\xec}U@'
p88
tp89
Rp90
ag10
(g14
S'\xac\x16I%/AV@'
p91
tp92
Rp93
ag10
(g14
S'nQ\xed\xae\xe5iL@'
p94
tp95
Rp96
ag10
(g14
S'\xeb\x17\x89\x88K\xffS@'
p97
tp98
Rp99
ag10
(g14
S'\x98{I\x9b\xa9\x10Q@'
p100
tp101
Rp102
ag10
(g14
S'\xfd\xc3\xebO\\\xb4Y@'
p103
tp104
Rp105
ag10
(g14
S'\xa65Q6\x84BQ@'
p106
tp107
Rp108
ag10
(g14
S'\xdeU\xabj\xc4/R@'
p109
tp110
Rp111
ag10
(g14
S'"i\x0bttxK@'
p112
tp113
Rp114
ag10
(g14
S'o&b\x9d\xcffZ@'
p115
tp116
Rp117
ag10
(g14
S'\xf5\xaa \x10b\x08H@'
p118
tp119
Rp120
ag10
(g14
S'\xce3DuZyP@'
p121
tp122
Rp123
ag10
(g14
S'\xf8\xb6\x05\xce0\xa6P@'
p124
tp125
Rp126
ag10
(g14
S'\xd0s1[\xb3+S@'
p127
tp128
Rp129
ag10
(g14
S'?\xa3\x8e\t\x8d\xd6V@'
p130
tp131
Rp132
ag10
(g14
S'\x0f\xa0\x96\xc2\xb4\xb6F@'
p133
tp134
Rp135
ag10
(g14
S']\x14s)7\xebJ@'
p136
tp137
Rp138
asssss.