(dp0
S'../Data/sqlite_25.csv'
p1
(dp2
S'../Data/sqlite_83.csv'
p3
(dp4
F0.4
(dp5
S'abs_res'
p6
(dp7
S'bellwether'
p8
(lp9
cnumpy.core.multiarray
scalar
p10
(cnumpy
dtype
p11
(S'f8'
p12
I0
I1
tp13
Rp14
(I3
S'<'
p15
NNNI-1
I-1
I0
tp16
bS'#\xa3\xb7e\xe5T\nA'
p17
tp18
Rp19
ag10
(g14
S'1\xec\n\x90\x87V\nA'
p20
tp21
Rp22
ag10
(g14
S'B\xe1z\x14\xc6U\nA'
p23
tp24
Rp25
ag10
(g14
S'Y9\xb4\xc8\xd7U\nA'
p26
tp27
Rp28
ag10
(g14
S'p\xf6\xe13\xc9U\nA'
p29
tp30
Rp31
ag10
(g14
S'\xd1\xa3p=FZ\nA'
p32
tp33
Rp34
ag10
(g14
S'\x8f%\xbfX\xf4U\nA'
p35
tp36
Rp37
ag10
(g14
S'X\xe3\xa5\x9b`[\nA'
p38
tp39
Rp40
ag10
(g14
S'\xf0`\x9e\xa8\x03U\nA'
p41
tp42
Rp43
ag10
(g14
S'\r\x02+\x87\xc6U\nA'
p44
tp45
Rp46
ag10
(g14
S'\xcd"\xdb\xf9XW\nA'
p47
tp48
Rp49
ag10
(g14
S'b\x1f>\xc3\xf4W\nA'
p50
tp51
Rp52
ag10
(g14
S'^fff\xa1W\nA'
p53
tp54
Rp55
ag10
(g14
S"\x90'\xea\xdf\xb5W\nA"
p56
tp57
Rp58
ag10
(g14
S'\x1f\x94\xd1\xdb{U\nA'
p59
tp60
Rp61
ag10
(g14
S'l\x842z\xc3W\nA'
p62
tp63
Rp64
ag10
(g14
S'\x8e4\xa5\xe2+Y\nA'
p65
tp66
Rp67
ag10
(g14
S'\xf6\x8b%\xbf\xa0U\nA'
p68
tp69
Rp70
ag10
(g14
S'\xaa\x81N\x1bLU\nA'
p71
tp72
Rp73
ag10
(g14
S'+z[\xd6\xf9T\nA'
p74
tp75
Rp76
asS'target'
p77
(lp78
g10
(g14
S'\xf8&1\x08\xacIz@'
p79
tp80
Rp81
ag10
(g14
S'\xf2&1\x08\xac\x82\x7f@'
p82
tp83
Rp84
ag10
(g14
S'\xfd~j\xbct]v@'
p85
tp86
Rp87
ag10
(g14
S'\xb6\x1cZd;~~@'
p88
tp89
Rp90
ag10
(g14
S'O\xb6\xf3\xfd\xd4\xf8{@'
p91
tp92
Rp93
ag10
(g14
S's=\n\xd7\xa3tw@'
p94
tp95
Rp96
ag10
(g14
S'\x05\xaa\xf1\xd2M\xd1r@'
p97
tp98
Rp99
ag10
(g14
S'bd;\xdfO}v@'
p100
tp101
Rp102
ag10
(g14
S'\xfc\xfd\xd4x\xe96{@'
p103
tp104
Rp105
ag10
(g14
S'!\x85\xebQ\xb8.x@'
p106
tp107
Rp108
ag10
(g14
S'j\x91\xed|?;|@'
p109
tp110
Rp111
ag10
(g14
S'\x8fl\xe7\xfb\xa9\xb1s@'
p112
tp113
Rp114
ag10
(g14
S'\xae\x1a/\xdd$f}@'
p115
tp116
Rp117
ag10
(g14
S'p\xe7\xfb\xa9\xf1)z@'
p118
tp119
Rp120
ag10
(g14
S'f\xe5\xd0"\xdb\x0fv@'
p121
tp122
Rp123
ag10
(g14
S'{?5^\xba\xdcu@'
p124
tp125
Rp126
ag10
(g14
S'\xec\xfb\xa9\xf1\xd2K\x7f@'
p127
tp128
Rp129
ag10
(g14
S'A^\xbaI\x0cFv@'
p130
tp131
Rp132
ag10
(g14
S'\xd2\xf7S\xe3\xa5\xb3v@'
p133
tp134
Rp135
ag10
(g14
S'\xfc\xff\xff\xff\xffkw@'
p136
tp137
Rp138
asssss.