(dp0
S'../Data/sqlite_67.csv'
p1
(dp2
S'../Data/sqlite_64.csv'
p3
(dp4
F0.1
(dp5
S'abs_res'
p6
(dp7
S'bellwether'
p8
(lp9
cnumpy.core.multiarray
scalar
p10
(cnumpy
dtype
p11
(S'f8'
p12
I0
I1
tp13
Rp14
(I3
S'<'
p15
NNNI-1
I-1
I0
tp16
bS'\xaa\x1a/\xdd:T#A'
p17
tp18
Rp19
ag10
(g14
S'}#\x94Q\xfdS#A'
p20
tp21
Rp22
ag10
(g14
S' /\xddd.T#A'
p23
tp24
Rp25
ag10
(g14
S'\xb1\xc8v\xfe\xf1S#A'
p26
tp27
Rp28
ag10
(g14
S'p=\n\x17QS#A'
p29
tp30
Rp31
ag10
(g14
S'j=\n\x97\xb2S#A'
p32
tp33
Rp34
ag10
(g14
S'\x92l\xe7{\x87T#A'
p35
tp36
Rp37
ag10
(g14
S'\x92{\xcdEeT#A'
p38
tp39
Rp40
ag10
(g14
S'\xe1$\x06\x01WS#A'
p41
tp42
Rp43
ag10
(g14
S'\xabrhQ\x11T#A'
p44
tp45
Rp46
ag10
(g14
S'\x8el\xe7\xfb\x98T#A'
p47
tp48
Rp49
ag10
(g14
S'xww7\xdbR#A'
p50
tp51
Rp52
ag10
(g14
S'>\xfb\xf0\x99\xedS#A'
p53
tp54
Rp55
ag10
(g14
S"'\xb2\x9d\xef\x8dT#A"
p56
tp57
Rp58
ag10
(g14
S'o\x1f>\x032T#A'
p59
tp60
Rp61
ag10
(g14
S'\x90\xa6T\xdc\xccS#A'
p62
tp63
Rp64
ag10
(g14
S'\xe2z\x14n\xd3S#A'
p65
tp66
Rp67
ag10
(g14
S'\xac\xf1\xd2\x8d\x9cS#A'
p68
tp69
Rp70
ag10
(g14
S'2\x17\x92\xe6\x8fS#A'
p71
tp72
Rp73
ag10
(g14
S'!\x94\xd1\x9bAT#A'
p74
tp75
Rp76
asS'target'
p77
(lp78
g10
(g14
S'\x17\xd9\xce\xf7S\xd5y@'
p79
tp80
Rp81
ag10
(g14
S'_ffffl{@'
p82
tp83
Rp84
ag10
(g14
S'\xd5$\x06\x81\x95\xfd|@'
p85
tp86
Rp87
ag10
(g14
S"\xd8$\x06\x81\x95'{@"
p88
tp89
Rp90
ag10
(g14
S'v\x93\x18\x04V.z@'
p91
tp92
Rp93
ag10
(g14
S')\\\x8f\xc2\xf5(\x80@'
p94
tp95
Rp96
ag10
(g14
S'\x88A`\xe5\xd0\xe2x@'
p97
tp98
Rp99
ag10
(g14
S'\x86\x18\x04V\x0e\x83x@'
p100
tp101
Rp102
ag10
(g14
S'T\x0e-\xb2\x9d\xf1x@'
p103
tp104
Rp105
ag10
(g14
S's\x93\x18\x04VFw@'
p106
tp107
Rp108
ag10
(g14
S'3\x87\x16\xd9\xce\xd5w@'
p109
tp110
Rp111
ag10
(g14
S'\xec&1\x08\xacLy@'
p112
tp113
Rp114
ag10
(g14
S'\x01+\x87\x16\xd9\x08~@'
p115
tp116
Rp117
ag10
(g14
S'\xbet\x93\x18\x044y@'
p118
tp119
Rp120
ag10
(g14
S'g\xbct\x93\x18\xc8{@'
p121
tp122
Rp123
ag10
(g14
S'\xb6\xa1E\xb6\xf3Vx@'
p124
tp125
Rp126
ag10
(g14
S'Jb\x10X9\xeaz@'
p127
tp128
Rp129
ag10
(g14
S'\xb6\x9d\xef\xa7\xc6;x@'
p130
tp131
Rp132
ag10
(g14
S'jffff\xe4w@'
p133
tp134
Rp135
ag10
(g14
S'\xcfMb\x10Xww@'
p136
tp137
Rp138
asssss.