(dp0
S'../Data/sqlite_85.csv'
p1
(dp2
S'../Data/sqlite_48.csv'
p3
(dp4
F0.05
(dp5
S'abs_res'
p6
(dp7
S'bellwether'
p8
(lp9
cnumpy.core.multiarray
scalar
p10
(cnumpy
dtype
p11
(S'f8'
p12
I0
I1
tp13
Rp14
(I3
S'<'
p15
NNNI-1
I-1
I0
tp16
bS'a\xe5\xd0*\x180ZA'
p17
tp18
Rp19
ag10
(g14
S'\xf6S\xe3\xbd\xad#ZA'
p20
tp21
Rp22
ag10
(g14
S'o\x93\x18\xf45CZA'
p23
tp24
Rp25
ag10
(g14
S'-\xb2\x9d\xc7W\x17ZA'
p26
tp27
Rp28
ag10
(g14
S'\xa1\x9b\xc40\x1f(ZA'
p29
tp30
Rp31
ag10
(g14
S'\x01+\x87~\xf0 ZA'
p32
tp33
Rp34
ag10
(g14
S'\x08\xac\x1c\xa2\xcf\rZA'
p35
tp36
Rp37
ag10
(g14
S'\xd8$\x06\xa9f9ZA'
p38
tp39
Rp40
ag10
(g14
S'\xfe(\\\xc7\xb5"ZA'
p41
tp42
Rp43
ag10
(g14
S'\xeb&10\xe0*ZA'
p44
tp45
Rp46
ag10
(g14
S'\xe9Q\xb8\xc6k5ZA'
p47
tp48
Rp49
ag10
(g14
S'\xba\xf3\xfdl!\x18ZA'
p50
tp51
Rp52
ag10
(g14
S'\x93\x97n:E%ZA'
p53
tp54
Rp55
ag10
(g14
S'\xbc\x9f\x1a\x8f\xc3\x07ZA'
p56
tp57
Rp58
ag10
(g14
S'\x1f\xdb\xf9~E3ZA'
p59
tp60
Rp61
ag10
(g14
S'C5^z/-ZA'
p62
tp63
Rp64
ag10
(g14
S"\x83l\xe73|'ZA"
p65
tp66
Rp67
ag10
(g14
S'S\x8d\x97\xde\x9e)ZA'
p68
tp69
Rp70
ag10
(g14
S'\x8c\x18\x04\x86D8ZA'
p71
tp72
Rp73
ag10
(g14
S'z=\n\xdf\xe0\x1aZA'
p74
tp75
Rp76
asS'target'
p77
(lp78
g10
(g14
S'\xb8I\x0c\x02+\x0ew@'
p79
tp80
Rp81
ag10
(g14
S'\xdf\xcc\xcc\xcc\xcc\xcct@'
p82
tp83
Rp84
ag10
(g14
S'\x16\xd9\xce\xf7S%s@'
p85
tp86
Rp87
ag10
(g14
S"L\xe1z\x14\xae'r@"
p88
tp89
Rp90
ag10
(g14
S'\x98\x18\x04V\x0eWw@'
p91
tp92
Rp93
ag10
(g14
S'"\xdb\xf9~j\x9cu@'
p94
tp95
Rp96
ag10
(g14
S'E\xb6\xf3\xfd\xd4\xd6v@'
p97
tp98
Rp99
ag10
(g14
S'\x95\xc2\xf5(\\\x19z@'
p100
tp101
Rp102
ag10
(g14
S'4\x08\xac\x1cZJx@'
p103
tp104
Rp105
ag10
(g14
S'g;\xdfO\x8dsr@'
p106
tp107
Rp108
ag10
(g14
S'\xcfK7\x89Alv@'
p109
tp110
Rp111
ag10
(g14
S'q\xbe\x9f\x1a/st@'
p112
tp113
Rp114
ag10
(g14
S'\x05\xd5x\xe9&\x99r@'
p115
tp116
Rp117
ag10
(g14
S'\x96\xed|?5\xdct@'
p118
tp119
Rp120
ag10
(g14
S'\xac\x1a/\xdd$\x14u@'
p121
tp122
Rp123
ag10
(g14
S'y?5^\xba\x1dv@'
p124
tp125
Rp126
ag10
(g14
S'\x82\xe9&1\x08\x12t@'
p127
tp128
Rp129
ag10
(g14
S'\xc9v\xbe\x9f\x1a3s@'
p130
tp131
Rp132
ag10
(g14
S'\x14X9\xb4\xc8Zu@'
p133
tp134
Rp135
ag10
(g14
S'A3333\x81v@'
p136
tp137
Rp138
asssss.