(dp0
S'../Data/sqlite_38.csv'
p1
(dp2
S'../Data/sqlite_76.csv'
p3
(dp4
F0.25
(dp5
S'mmre'
p6
(dp7
S'bellwether'
p8
(lp9
cnumpy.core.multiarray
scalar
p10
(cnumpy
dtype
p11
(S'f8'
p12
I0
I1
tp13
Rp14
(I3
S'<'
p15
NNNI-1
I-1
I0
tp16
bS'\x96L\x02\x86\x05\x83o@'
p17
tp18
Rp19
ag10
(g14
S'\x00R\x95\xe2`\x9co@'
p20
tp21
Rp22
ag10
(g14
S'\xd0.\xa1\x06\x0fUo@'
p23
tp24
Rp25
ag10
(g14
S'\x1e\x18\n\x14Aso@'
p26
tp27
Rp28
ag10
(g14
S'\x06}u\xa1(Yo@'
p29
tp30
Rp31
ag10
(g14
S'\xae\xc2=\xb9\rgo@'
p32
tp33
Rp34
ag10
(g14
S'8\xae\xfb\xc2\xbcbo@'
p35
tp36
Rp37
ag10
(g14
S'\xf1m\xc4v\x80Yo@'
p38
tp39
Rp40
ag10
(g14
S'\xb5\xa9\xa2\xf4\xc4Fo@'
p41
tp42
Rp43
ag10
(g14
S'\xa0M\xb8LlOo@'
p44
tp45
Rp46
ag10
(g14
S'\x87d%]kuo@'
p47
tp48
Rp49
ag10
(g14
S'\x07RTb1Go@'
p50
tp51
Rp52
ag10
(g14
S'@<QB63o@'
p53
tp54
Rp55
ag10
(g14
S's\xf8\x10\xc4\x83Yo@'
p56
tp57
Rp58
ag10
(g14
S'\xb8\xf13E\x13Io@'
p59
tp60
Rp61
ag10
(g14
S'\xea\x11\x117\xb3Zo@'
p62
tp63
Rp64
ag10
(g14
S'\x14\xc7\x9dE\x12]o@'
p65
tp66
Rp67
ag10
(g14
S'd\xf7\x8cddCo@'
p68
tp69
Rp70
ag10
(g14
S'\xa0\xaf\xf3\x1er0o@'
p71
tp72
Rp73
ag10
(g14
S'o\xcb\xed}@ro@'
p74
tp75
Rp76
asS'target'
p77
(lp78
g10
(g14
S'X3\x11\x81\x0f\xe91@'
p79
tp80
Rp81
ag10
(g14
S'\x88\x19[0\xd5\x8e3@'
p82
tp83
Rp84
ag10
(g14
S'\xc5K?&\xc0\xdc1@'
p85
tp86
Rp87
ag10
(g14
S'\xd0\xff.Q\xef/2@'
p88
tp89
Rp90
ag10
(g14
S'If\x9a\x0c*|1@'
p91
tp92
Rp93
ag10
(g14
S'\xfc\xe0\x06$(\x1c1@'
p94
tp95
Rp96
ag10
(g14
S'H?\xf0U\xc8V1@'
p97
tp98
Rp99
ag10
(g14
S'S\xb9F\xea\xbd\x1c1@'
p100
tp101
Rp102
ag10
(g14
S'\xb9\xa3_R\x15=1@'
p103
tp104
Rp105
ag10
(g14
S'\x1b\x18\x01\xd8\x99A1@'
p106
tp107
Rp108
ag10
(g14
S'b\x83\xcf\xbf\xd3\x9f1@'
p109
tp110
Rp111
ag10
(g14
S'>\xeb\xbe\x922\x830@'
p112
tp113
Rp114
ag10
(g14
S'\xce}\x06B7#1@'
p115
tp116
Rp117
ag10
(g14
S'C\xc6&\xe8v\xfc0@'
p118
tp119
Rp120
ag10
(g14
S'uv\xaf\xc8\xac\xaa0@'
p121
tp122
Rp123
ag10
(g14
S'n\x9f\xb7\x9e\xa2g1@'
p124
tp125
Rp126
ag10
(g14
S'(A\x88\x8a\xca\x101@'
p127
tp128
Rp129
ag10
(g14
S'\xc2\xc4q&\xcak1@'
p130
tp131
Rp132
ag10
(g14
S'\x16P\xe8\x91\x9e\xec1@'
p133
tp134
Rp135
ag10
(g14
S'\xad\xf7\xc37[\xe81@'
p136
tp137
Rp138
asssss.