(dp0
S'../Data/sqlite_47.csv'
p1
(dp2
S'../Data/sqlite_73.csv'
p3
(dp4
F0.15
(dp5
S'mmre'
p6
(dp7
S'bellwether'
p8
(lp9
cnumpy.core.multiarray
scalar
p10
(cnumpy
dtype
p11
(S'f8'
p12
I0
I1
tp13
Rp14
(I3
S'<'
p15
NNNI-1
I-1
I0
tp16
bS'_i\xf3\x80o,M@'
p17
tp18
Rp19
ag10
(g14
S'.i\xff\x86C4M@'
p20
tp21
Rp22
ag10
(g14
S'\xbb\x80\x1b0\x17%M@'
p23
tp24
Rp25
ag10
(g14
S'z}\xb0\xb9\xbe6M@'
p26
tp27
Rp28
ag10
(g14
S'\xbc\x85\xca\xffs(M@'
p29
tp30
Rp31
ag10
(g14
S'\x8b\\\x89\x15\xb0)M@'
p32
tp33
Rp34
ag10
(g14
S"\x0e\x9bs1'/M@"
p35
tp36
Rp37
ag10
(g14
S'\x9e\xec\x1e(\xc6+M@'
p38
tp39
Rp40
ag10
(g14
S"\x1bZ\xad\x12\xb3'M@"
p41
tp42
Rp43
ag10
(g14
S'\xe6+\xcb\x9d\xe4@M@'
p44
tp45
Rp46
ag10
(g14
S'b\x01\x08\x93\xa7/M@'
p47
tp48
Rp49
ag10
(g14
S'\x90B\x1c\x1a!1M@'
p50
tp51
Rp52
ag10
(g14
S'}\x03Qh\xde2M@'
p53
tp54
Rp55
ag10
(g14
S'\x05PZ\xad\x959M@'
p56
tp57
Rp58
ag10
(g14
S'\xc0=$\xde\x84$M@'
p59
tp60
Rp61
ag10
(g14
S'\x91\x81\xe5?\xb7+M@'
p62
tp63
Rp64
ag10
(g14
S'\x105f\xfe\xd8%M@'
p65
tp66
Rp67
ag10
(g14
S'@\x8e\xb3\x8d\xde8M@'
p68
tp69
Rp70
ag10
(g14
S'l\xe8)\xdfH/M@'
p71
tp72
Rp73
ag10
(g14
S'^\xaa\xb4\x02\xaa*M@'
p74
tp75
Rp76
asS'target'
p77
(lp78
g10
(g14
S';$\x0fN\xa5\xe5+@'
p79
tp80
Rp81
ag10
(g14
S'\x85Q-\x87oQ+@'
p82
tp83
Rp84
ag10
(g14
S'\xb2D\x17\xd4\xcb\xf0,@'
p85
tp86
Rp87
ag10
(g14
S'\x13te \xaa\xff(@'
p88
tp89
Rp90
ag10
(g14
S'\xf6 \x15],\x9a+@'
p91
tp92
Rp93
ag10
(g14
S'u\x915uG\x8b.@'
p94
tp95
Rp96
ag10
(g14
S'\xea\xa3<\xf9\x863,@'
p97
tp98
Rp99
ag10
(g14
S'{\xaf\xf1\x84*\xd9+@'
p100
tp101
Rp102
ag10
(g14
S'\n\xc8q\xf0.Q+@'
p103
tp104
Rp105
ag10
(g14
S'\xe9\x1b\x03e\xaec*@'
p106
tp107
Rp108
ag10
(g14
S'+7\xee\x12 \x00,@'
p109
tp110
Rp111
ag10
(g14
S'\x80 \x7f\x0e~F+@'
p112
tp113
Rp114
ag10
(g14
S'\xa1H\xfe\xc8|\xb2+@'
p115
tp116
Rp117
ag10
(g14
S'[f\xe2$\xe6\xd5*@'
p118
tp119
Rp120
ag10
(g14
S'H\x9f\xf5\xc0\xde!,@'
p121
tp122
Rp123
ag10
(g14
S'\x89\xd8\xfa\x99ew+@'
p124
tp125
Rp126
ag10
(g14
S'B\xe9\xfc\x7fo\x90-@'
p127
tp128
Rp129
ag10
(g14
S'5\xdd#TG\x1d/@'
p130
tp131
Rp132
ag10
(g14
S'\xecEA\xd1\x9e\x93+@'
p133
tp134
Rp135
ag10
(g14
S'\xa9m*\xb9\xcew,@'
p136
tp137
Rp138
asssss.