(dp0
S'../Data/sqlite_32.csv'
p1
(dp2
S'../Data/sqlite_7.csv'
p3
(dp4
F0.25
(dp5
S'abs_res'
p6
(dp7
S'bellwether'
p8
(lp9
cnumpy.core.multiarray
scalar
p10
(cnumpy
dtype
p11
(S'f8'
p12
I0
I1
tp13
Rp14
(I3
S'<'
p15
NNNI-1
I-1
I0
tp16
bS'\x0cX9\x84\xcc@AA'
p17
tp18
Rp19
ag10
(g14
S'I7\x89\x81\tAAA'
p20
tp21
Rp22
ag10
(g14
S'aff\x86$AAA'
p23
tp24
Rp25
ag10
(g14
S'\x16\xd9\xce\x170BAA'
p26
tp27
Rp28
ag10
(g14
S'\xcd"\xdb\xb9\xdc?AA'
p29
tp30
Rp31
ag10
(g14
S'\x9fE\xb6C\xc3>AA'
p32
tp33
Rp34
ag10
(g14
S'\xacrhA\xd0>AA'
p35
tp36
Rp37
ag10
(g14
S'p\x93\x18\x94\xea@AA'
p38
tp39
Rp40
ag10
(g14
S'qh\x91\xbdf@AA'
p41
tp42
Rp43
ag10
(g14
S'\x12X9\xa4BBAA'
p44
tp45
Rp46
ag10
(g14
S'\xdc\xf9~\xfa\xbfAAA'
p47
tp48
Rp49
ag10
(g14
S'\xe4z\x14^\xcd>AA'
p50
tp51
Rp52
ag10
(g14
S'\xcf"\xdb\xd9p@AA'
p53
tp54
Rp55
ag10
(g14
S'\x9e\x1a/\xbd\x87=AA'
p56
tp57
Rp58
ag10
(g14
S'\xcf\xcc\xcc\xac4AAA'
p59
tp60
Rp61
ag10
(g14
S'\x8d\x97n\xb2\xea=AA'
p62
tp63
Rp64
ag10
(g14
S'`ff\x06\xdaAAA'
p65
tp66
Rp67
ag10
(g14
S'&\\\x8f\x92TAAA'
p68
tp69
Rp70
ag10
(g14
S'\x19Zd;\xde@AA'
p71
tp72
Rp73
ag10
(g14
S'\x86A`\x85\xa5BAA'
p74
tp75
Rp76
asS'target'
p77
(lp78
g10
(g14
S'\x95\xed|?5\x1ch@'
p79
tp80
Rp81
ag10
(g14
S'\xf3|?5^\xa4h@'
p82
tp83
Rp84
ag10
(g14
S'\xbb\xc8v\xbe\x9f\x96i@'
p85
tp86
Rp87
ag10
(g14
S'"\x06\x81\x95C\x8fh@'
p88
tp89
Rp90
ag10
(g14
S'-5^\xbaI\xf0g@'
p91
tp92
Rp93
ag10
(g14
S'\xea\xfb\xa9\xf1\xd2]h@'
p94
tp95
Rp96
ag10
(g14
S'\x0e\xac\x1cZdKf@'
p97
tp98
Rp99
ag10
(g14
S'\x9d\xc4 \xb0r\x84g@'
p100
tp101
Rp102
ag10
(g14
S'\xef(\\\x8f\xc2\x17i@'
p103
tp104
Rp105
ag10
(g14
S'\xc8\xf5(\\\x8f\xc2h@'
p106
tp107
Rp108
ag10
(g14
S'%\x87\x16\xd9\xce\xc1i@'
p109
tp110
Rp111
ag10
(g14
S'\xe0z\x14\xaeG\xd1l@'
p112
tp113
Rp114
ag10
(g14
S'\x1aZd;\xdf/h@'
p115
tp116
Rp117
ag10
(g14
S'O\x0c\x02+\x87\xdai@'
p118
tp119
Rp120
ag10
(g14
S'3\x08\xac\x1cZHh@'
p121
tp122
Rp123
ag10
(g14
S'R9\xb4\xc8v\xa6k@'
p124
tp125
Rp126
ag10
(g14
S'\x9cn\x12\x83\xc0\x1ek@'
p127
tp128
Rp129
ag10
(g14
S'\xee\xfb\xa9\xf1\xd2Ah@'
p130
tp131
Rp132
ag10
(g14
S'\x16\x04V\x0e-Nh@'
p133
tp134
Rp135
ag10
(g14
S'\xb4\xf3\xfd\xd4x}h@'
p136
tp137
Rp138
asssss.