(dp0
S'../Data/sqlite_58.csv'
p1
(dp2
S'../Data/sqlite_76.csv'
p3
(dp4
F0.25
(dp5
S'mmre'
p6
(dp7
S'bellwether'
p8
(lp9
cnumpy.core.multiarray
scalar
p10
(cnumpy
dtype
p11
(S'f8'
p12
I0
I1
tp13
Rp14
(I3
S'<'
p15
NNNI-1
I-1
I0
tp16
bS'\xd1z\xd3\x15\rnU@'
p17
tp18
Rp19
ag10
(g14
S'\x12\x8d\xa5\x0b\xd1lU@'
p20
tp21
Rp22
ag10
(g14
S'17\x1f\xae\xa6lU@'
p23
tp24
Rp25
ag10
(g14
S'\xd6\x1fT\x01(nU@'
p26
tp27
Rp28
ag10
(g14
S'\xd5l\xf6k\x05rU@'
p29
tp30
Rp31
ag10
(g14
S'\xd6OY\xa4\xaeqU@'
p32
tp33
Rp34
ag10
(g14
S'\x99\xef1D\xa3mU@'
p35
tp36
Rp37
ag10
(g14
S'\xb0\xcd]\x85\xbemU@'
p38
tp39
Rp40
ag10
(g14
S'\xcc\xf7+v6kU@'
p41
tp42
Rp43
ag10
(g14
S'\xb7O\r.+oU@'
p44
tp45
Rp46
ag10
(g14
S'\x87\xae\t\xf1wnU@'
p47
tp48
Rp49
ag10
(g14
S'-u{\x81\x01nU@'
p50
tp51
Rp52
ag10
(g14
S'A\xe4\x93B%nU@'
p53
tp54
Rp55
ag10
(g14
S'H\x81\xa6\xb1ulU@'
p56
tp57
Rp58
ag10
(g14
S'3\r\xa6\xe7\xb0iU@'
p59
tp60
Rp61
ag10
(g14
S'h1^\x93\xb5iU@'
p62
tp63
Rp64
ag10
(g14
S'\x0f\x97V\\wkU@'
p65
tp66
Rp67
ag10
(g14
S'\xe2\x88{\xdc\x07rU@'
p68
tp69
Rp70
ag10
(g14
S'5\xd6B\xb4\xd4qU@'
p71
tp72
Rp73
ag10
(g14
S'\xdb\xed\xaf(\x9eoU@'
p74
tp75
Rp76
asS'target'
p77
(lp78
g10
(g14
S'J\xce[\xdf\xaa\x840@'
p79
tp80
Rp81
ag10
(g14
S'L\x89C\xf1\x8a\xd61@'
p82
tp83
Rp84
ag10
(g14
S'<(M\x11\xf2T1@'
p85
tp86
Rp87
ag10
(g14
S'qKaK\n\x9b0@'
p88
tp89
Rp90
ag10
(g14
S'G\xd3\xad[l{2@'
p91
tp92
Rp93
ag10
(g14
S'\xba\x0c)\x86\xe8\x961@'
p94
tp95
Rp96
ag10
(g14
S'H\x0fT\x96R\x951@'
p97
tp98
Rp99
ag10
(g14
S';}\xf6b\x1c\xaf0@'
p100
tp101
Rp102
ag10
(g14
S'\x95\xeezz7\x151@'
p103
tp104
Rp105
ag10
(g14
S'\x93\x17a\xc9\x97\x0b2@'
p106
tp107
Rp108
ag10
(g14
S'\x06\x04\r@\x1e^1@'
p109
tp110
Rp111
ag10
(g14
S'\xfd\x13\x84\xd1\xf2i0@'
p112
tp113
Rp114
ag10
(g14
S'\xd2o\xfb\xf4Q\xaa1@'
p115
tp116
Rp117
ag10
(g14
S'\xb7\xf0"Z\xdbV1@'
p118
tp119
Rp120
ag10
(g14
S'O\x03\x17\xb3\xfee1@'
p121
tp122
Rp123
ag10
(g14
S'\x13\xben\x12\xf9[1@'
p124
tp125
Rp126
ag10
(g14
S'\x02\xf7\xe9\xb5\xdd\x881@'
p127
tp128
Rp129
ag10
(g14
S'\xe1D4\xcb\xee20@'
p130
tp131
Rp132
ag10
(g14
S'b\xadN\xf0(\xf21@'
p133
tp134
Rp135
ag10
(g14
S'\xcb\xd7\x85\xb6\xaeJ1@'
p136
tp137
Rp138
asssss.