(dp0
S'../Data/sqlite_9.csv'
p1
(dp2
S'../Data/sqlite_97.csv'
p3
(dp4
F0.2
(dp5
S'mmre'
p6
(dp7
S'bellwether'
p8
(lp9
cnumpy.core.multiarray
scalar
p10
(cnumpy
dtype
p11
(S'f8'
p12
I0
I1
tp13
Rp14
(I3
S'<'
p15
NNNI-1
I-1
I0
tp16
bS'$v\xa0Gj?X@'
p17
tp18
Rp19
ag10
(g14
S' \x0c\xd1\x153@X@'
p20
tp21
Rp22
ag10
(g14
S'xVi\r9?X@'
p23
tp24
Rp25
ag10
(g14
S'\xa4\xa8\x7fF\xc0?X@'
p26
tp27
Rp28
ag10
(g14
S'kd\xcc\xb1\x98@X@'
p29
tp30
Rp31
ag10
(g14
S't5\x93\xcd\x83@X@'
p32
tp33
Rp34
ag10
(g14
S'\xce\x14\xc2\xd2\xac?X@'
p35
tp36
Rp37
ag10
(g14
S'\x082U$Q@X@'
p38
tp39
Rp40
ag10
(g14
S'\xcbnA\n\x02?X@'
p41
tp42
Rp43
ag10
(g14
S'\xe26\xdb\x13\xe2=X@'
p44
tp45
Rp46
ag10
(g14
S'\xa2\x16:}\x9d>X@'
p47
tp48
Rp49
ag10
(g14
S'\xf8\x0cA@DAX@'
p50
tp51
Rp52
ag10
(g14
S'\x0cVv,\xa6>X@'
p53
tp54
Rp55
ag10
(g14
S'v\xcc\xb6\xcaY>X@'
p56
tp57
Rp58
ag10
(g14
S'\x17\x0ftL]?X@'
p59
tp60
Rp61
ag10
(g14
S'n\xee\xec\xa8Y>X@'
p62
tp63
Rp64
ag10
(g14
S'\n\xa9\x9e\xf6\x05>X@'
p65
tp66
Rp67
ag10
(g14
S'\xee\xb2\xc2{\xa9@X@'
p68
tp69
Rp70
ag10
(g14
S'_\xae\xfa\x13\xe3>X@'
p71
tp72
Rp73
ag10
(g14
S'\xb2\xd8Z*\xa6?X@'
p74
tp75
Rp76
asS'target'
p77
(lp78
g10
(g14
S'"\xe3\xe8\x18\xb4\x96U@'
p79
tp80
Rp81
ag10
(g14
S'\xa0\xe6<\x88\x12eL@'
p82
tp83
Rp84
ag10
(g14
S'\xd6U\x84\xb2\xff\xb7S@'
p85
tp86
Rp87
ag10
(g14
S'0\x1c\x91\xfa\x12\xd5Q@'
p88
tp89
Rp90
ag10
(g14
S'X\xd0O\xec\xf7$T@'
p91
tp92
Rp93
ag10
(g14
S'\xba8d\xb1!EE@'
p94
tp95
Rp96
ag10
(g14
S'\xff\x93R$@qQ@'
p97
tp98
Rp99
ag10
(g14
S'\x7f\x9b\x8b.\xdb\xc1`@'
p100
tp101
Rp102
ag10
(g14
S'\x92#*\tp\x1aW@'
p103
tp104
Rp105
ag10
(g14
S'6U6\xa0\xd6"P@'
p106
tp107
Rp108
ag10
(g14
S'\xdd\xe2\xed7\xe7\xb2^@'
p109
tp110
Rp111
ag10
(g14
S'\x0e@ov\x82\xa8I@'
p112
tp113
Rp114
ag10
(g14
S'\xae\xa3\xe97\rvR@'
p115
tp116
Rp117
ag10
(g14
S'_d\xa4\xday\x98[@'
p118
tp119
Rp120
ag10
(g14
S'\x84\xb7\xc36\x17\xe1Z@'
p121
tp122
Rp123
ag10
(g14
S'\xb0\x13\x9f\x14\xb9X[@'
p124
tp125
Rp126
ag10
(g14
S'\xbe\xc6=I\x95<`@'
p127
tp128
Rp129
ag10
(g14
S'6a%\xb9\xe7\x16S@'
p130
tp131
Rp132
ag10
(g14
S'\xd4}\xc0n\xf0\xb9M@'
p133
tp134
Rp135
ag10
(g14
S'r\xc1\x98\xe9\x98\xcdV@'
p136
tp137
Rp138
asssss.