(dp0
S'../Data/sqlite_23.csv'
p1
(dp2
S'../Data/sqlite_89.csv'
p3
(dp4
F0.1
(dp5
S'mmre'
p6
(dp7
S'bellwether'
p8
(lp9
cnumpy.core.multiarray
scalar
p10
(cnumpy
dtype
p11
(S'f8'
p12
I0
I1
tp13
Rp14
(I3
S'<'
p15
NNNI-1
I-1
I0
tp16
bS'\x18\xdb\xd1"$fV@'
p17
tp18
Rp19
ag10
(g14
S"'\xe5!\xc4\xc7aV@"
p20
tp21
Rp22
ag10
(g14
S'\x8c9\x92m\xd5^V@'
p23
tp24
Rp25
ag10
(g14
S'\xde\xccr\xa7\xe4gV@'
p26
tp27
Rp28
ag10
(g14
S'B<\xb6\xf3KcV@'
p29
tp30
Rp31
ag10
(g14
S'\xd9H\xf2\xc4\xb9eV@'
p32
tp33
Rp34
ag10
(g14
S's\x9c\xac\xc0\xeccV@'
p35
tp36
Rp37
ag10
(g14
S'\xab\x93\xbf\xf7KiV@'
p38
tp39
Rp40
ag10
(g14
S'\x8b\x9b\xba:\xefcV@'
p41
tp42
Rp43
ag10
(g14
S'\x15\xbe\xadGZfV@'
p44
tp45
Rp46
ag10
(g14
S'i,\xa9\x1c\x17cV@'
p47
tp48
Rp49
ag10
(g14
S'\nL\xfb\xa4\xd2bV@'
p50
tp51
Rp52
ag10
(g14
S'\x1bE\xc2\\KgV@'
p53
tp54
Rp55
ag10
(g14
S'\xec\xb1\xd0f(eV@'
p56
tp57
Rp58
ag10
(g14
S'\x07<\xb7\xd3s_V@'
p59
tp60
Rp61
ag10
(g14
S'&[\xd5\xd4\xdddV@'
p62
tp63
Rp64
ag10
(g14
S'\xcc\x07Q\xcd\xcbcV@'
p65
tp66
Rp67
ag10
(g14
S'`\x8dOQpdV@'
p68
tp69
Rp70
ag10
(g14
S'\x85q\xb1\xb6\xbbeV@'
p71
tp72
Rp73
ag10
(g14
S'F\xc6\x82\x9dvgV@'
p74
tp75
Rp76
asS'target'
p77
(lp78
g10
(g14
S'.\t^]\xf2"Q@'
p79
tp80
Rp81
ag10
(g14
S'\xea\xfd\x8b,\xc8\x1bI@'
p82
tp83
Rp84
ag10
(g14
S',\xb7\xc0]\xefhW@'
p85
tp86
Rp87
ag10
(g14
S'Y|\xb1qF\x1aQ@'
p88
tp89
Rp90
ag10
(g14
S'\x80\xd1q\xe9\xf34P@'
p91
tp92
Rp93
ag10
(g14
S'WB\xae^\xf4+Q@'
p94
tp95
Rp96
ag10
(g14
S'\xd6\xd7{\xa7J2T@'
p97
tp98
Rp99
ag10
(g14
S'\x1b,\x16\x9d9\xddF@'
p100
tp101
Rp102
ag10
(g14
S'+\xf1V\xfb\xad\x15K@'
p103
tp104
Rp105
ag10
(g14
S'+!\xa2\r\xda\xe3U@'
p106
tp107
Rp108
ag10
(g14
S'#\xcblI\xda\x83K@'
p109
tp110
Rp111
ag10
(g14
S'\x87\xb6\xeb\xc2\x8a\xabS@'
p112
tp113
Rp114
ag10
(g14
S'\x88\xfc\x1d\xc5\xb7\xddO@'
p115
tp116
Rp117
ag10
(g14
S'G\xfcN\x16Y\x19U@'
p118
tp119
Rp120
ag10
(g14
S'\xf2\xf9\xa6X:BX@'
p121
tp122
Rp123
ag10
(g14
S'82\xbf\xc5\xa5lN@'
p124
tp125
Rp126
ag10
(g14
S'\xd4\xeb\xb2\x10E$H@'
p127
tp128
Rp129
ag10
(g14
S'\x89O@\xe88\xd0S@'
p130
tp131
Rp132
ag10
(g14
S'l\xfb\rQ@DR@'
p133
tp134
Rp135
ag10
(g14
S'\xd6q#\x85d\x92Q@'
p136
tp137
Rp138
asssss.