(dp0
S'../Data/sqlite_57.csv'
p1
(dp2
S'../Data/sqlite_36.csv'
p3
(dp4
F0.4
(dp5
S'abs_res'
p6
(dp7
S'bellwether'
p8
(lp9
cnumpy.core.multiarray
scalar
p10
(cnumpy
dtype
p11
(S'f8'
p12
I0
I1
tp13
Rp14
(I3
S'<'
p15
NNNI-1
I-1
I0
tp16
bS'~\x93\x18\xe0\xa2uaA'
p17
tp18
Rp19
ag10
(g14
S'\xb3G\xe1\xdantaA'
p20
tp21
Rp22
ag10
(g14
S'\xfb\xa9\xf1\xaaZwaA'
p23
tp24
Rp25
ag10
(g14
S'|\xe9&\xdd\xb6paA'
p26
tp27
Rp28
ag10
(g14
S'\xbaI\x0cZ\x14xaA'
p29
tp30
Rp31
ag10
(g14
S'\xad\xf1\xd2\x8d\xf4{aA'
p32
tp33
Rp34
ag10
(g14
S'2\\\x8fb\xb1\x7faA'
p35
tp36
Rp37
ag10
(g14
S';\xb4\xc82draA'
p38
tp39
Rp40
ag10
(g14
S'>`\xe5\x04qxaA'
p41
tp42
Rp43
ag10
(g14
S'\xdax\xe9V\x10\x80aA'
p44
tp45
Rp46
ag10
(g14
S'A\x8blw\x06}aA'
p47
tp48
Rp49
ag10
(g14
S'\x1e\xd9\xceW\xc9xaA'
p50
tp51
Rp52
ag10
(g14
S'*\xb0r\xec8vaA'
p53
tp54
Rp55
ag10
(g14
S'\xc3\xca\xa1%ctaA'
p56
tp57
Rp58
ag10
(g14
S'y\xe9&\xc1DpaA'
p59
tp60
Rp61
ag10
(g14
S'E\x8bl\x9fOxaA'
p62
tp63
Rp64
ag10
(g14
S'h\xbctG\xdc~aA'
p65
tp66
Rp67
ag10
(g14
S'x\xbe\x9f\xdae\x82aA'
p68
tp69
Rp70
ag10
(g14
S"'\x06\x81Q\xcevaA"
p71
tp72
Rp73
ag10
(g14
S'\x1d\x04V\x1aL\x81aA'
p74
tp75
Rp76
asS'target'
p77
(lp78
g10
(g14
S'effffNQ@'
p79
tp80
Rp81
ag10
(g14
S'.1\x08\xac\x1cRQ@'
p82
tp83
Rp84
ag10
(g14
S'`d;\xdfO\x91R@'
p85
tp86
Rp87
ag10
(g14
S'\xef\xa7\xc6K7\xa9R@'
p88
tp89
Rp90
ag10
(g14
S'\xe9&1\x08\xac`R@'
p91
tp92
Rp93
ag10
(g14
S'63333\x07Q@'
p94
tp95
Rp96
ag10
(g14
S'\xf1Q\xb8\x1e\x85\x9bQ@'
p97
tp98
Rp99
ag10
(g14
S'&1\x08\xac\x1c2Q@'
p100
tp101
Rp102
ag10
(g14
S'\xeb\xfb\xa9\xf1\xd2\x05R@'
p103
tp104
Rp105
ag10
(g14
S'<5^\xbaI\xdcR@'
p106
tp107
Rp108
ag10
(g14
S'J7\x89A`eQ@'
p109
tp110
Rp111
ag10
(g14
S'8\x89A`\xe5LP@'
p112
tp113
Rp114
ag10
(g14
S'\xdc\xf9~j\xbcpR@'
p115
tp116
Rp117
ag10
(g14
S'\xf4\xa7\xc6K7yQ@'
p118
tp119
Rp120
ag10
(g14
S'\x87\xc0\xca\xa1EZR@'
p121
tp122
Rp123
ag10
(g14
S'W\xb8\x1e\x85\xeb\xb9Q@'
p124
tp125
Rp126
ag10
(g14
S'~j\xbct\x93`Q@'
p127
tp128
Rp129
ag10
(g14
S'\x17\xd9\xce\xf7S\xdfP@'
p130
tp131
Rp132
ag10
(g14
S'\x86\x16\xd9\xce\xf7\xabP@'
p133
tp134
Rp135
ag10
(g14
S'\x9fp=\n\xd7\xdbR@'
p136
tp137
Rp138
asssss.