(dp0
S'../Data/sqlite_41.csv'
p1
(dp2
S'../Data/sqlite_62.csv'
p3
(dp4
F0.1
(dp5
S'mmre'
p6
(dp7
S'bellwether'
p8
(lp9
cnumpy.core.multiarray
scalar
p10
(cnumpy
dtype
p11
(S'f8'
p12
I0
I1
tp13
Rp14
(I3
S'<'
p15
NNNI-1
I-1
I0
tp16
bS"\xea\xd7'\xc9\xf1T:@"
p17
tp18
Rp19
ag10
(g14
S'*\xf8\xb5D\xbcY:@'
p20
tp21
Rp22
ag10
(g14
S'\xd95\xb9\xccN::@'
p23
tp24
Rp25
ag10
(g14
S'E\x88\xa0\xb2\xcbA:@'
p26
tp27
Rp28
ag10
(g14
S'R\xce\xfeZGF:@'
p29
tp30
Rp31
ag10
(g14
S'6\xb5\xda\xf4\x9e_:@'
p32
tp33
Rp34
ag10
(g14
S'7@\xc4\x99\xd1<:@'
p35
tp36
Rp37
ag10
(g14
S'\x88\x9f/\xf3\xc24:@'
p38
tp39
Rp40
ag10
(g14
S'\xf7\xfc"m\x03M:@'
p41
tp42
Rp43
ag10
(g14
S'\xb7\x95\xdc5#E:@'
p44
tp45
Rp46
ag10
(g14
S'\n!\x9a\x07\xadH:@'
p47
tp48
Rp49
ag10
(g14
S'"\xff:\xda\xbc;:@'
p50
tp51
Rp52
ag10
(g14
S'\x81\x16\xa6"\x03*:@'
p53
tp54
Rp55
ag10
(g14
S'%\x9c`D\x9d5:@'
p56
tp57
Rp58
ag10
(g14
S'\xca/\xe8\x8a\x84E:@'
p59
tp60
Rp61
ag10
(g14
S'G=\xa8\x8f\xc2N:@'
p62
tp63
Rp64
ag10
(g14
S'\x9f\xb0M^\x8eR:@'
p65
tp66
Rp67
ag10
(g14
S'vx3\x9f\x06\x0e:@'
p68
tp69
Rp70
ag10
(g14
S'\n3\xd3a\x1a;:@'
p71
tp72
Rp73
ag10
(g14
S'\x1e\x9b\xe5JJ$:@'
p74
tp75
Rp76
asS'target'
p77
(lp78
g10
(g14
S'\xa0\xbc,r\x91k!@'
p79
tp80
Rp81
ag10
(g14
S'\x93}\xe4\xd9\xf0\xe8"@'
p82
tp83
Rp84
ag10
(g14
S'\x83V\x06\xe3\x14\xbb @'
p85
tp86
Rp87
ag10
(g14
S'\xe8t\xcam\x95k"@'
p88
tp89
Rp90
ag10
(g14
S'\xa4|\xa1\xa6\xaf/"@'
p91
tp92
Rp93
ag10
(g14
S'\xb9\xd8C\x17\x87\xca\x1e@'
p94
tp95
Rp96
ag10
(g14
S'\to\xdb\x99\x0c!"@'
p97
tp98
Rp99
ag10
(g14
S'N\xbc\xac\x14;\x82!@'
p100
tp101
Rp102
ag10
(g14
S'd\xac\x8e\xefc* @'
p103
tp104
Rp105
ag10
(g14
S'\xa0\x11\xa11\r\xfa @'
p106
tp107
Rp108
ag10
(g14
S'\xc9\xb3\xb4\xb6\x1e\x95"@'
p109
tp110
Rp111
ag10
(g14
S'n:*P:\r"@'
p112
tp113
Rp114
ag10
(g14
S'~h\x99k\xa43!@'
p115
tp116
Rp117
ag10
(g14
S"\xb9z\xf7'D !@"
p118
tp119
Rp120
ag10
(g14
S'\'\x8f\xf8)~\x00"@'
p121
tp122
Rp123
ag10
(g14
S'\xadT\x8cF5\x1f!@'
p124
tp125
Rp126
ag10
(g14
S'\xfc+\x07\xbe9@"@'
p127
tp128
Rp129
ag10
(g14
S'0\xb5\xc7F\x17\xfd @'
p130
tp131
Rp132
ag10
(g14
S'\x1b\x9cV\xb2\x8c\xee"@'
p133
tp134
Rp135
ag10
(g14
S"j\r\xa9'`\x81!@"
p136
tp137
Rp138
asssss.