(dp0
S'../Data/sqlite_68.csv'
p1
(dp2
S'../Data/sqlite_63.csv'
p3
(dp4
F0.35
(dp5
S'mmre'
p6
(dp7
S'bellwether'
p8
(lp9
cnumpy.core.multiarray
scalar
p10
(cnumpy
dtype
p11
(S'f8'
p12
I0
I1
tp13
Rp14
(I3
S'<'
p15
NNNI-1
I-1
I0
tp16
bS'\xde}MSHOl@'
p17
tp18
Rp19
ag10
(g14
S'\xc4K\xe0\xf9V\x1el@'
p20
tp21
Rp22
ag10
(g14
S'\x1d\xebe`\x98Ml@'
p23
tp24
Rp25
ag10
(g14
S'^y\xcd\xa3b5l@'
p26
tp27
Rp28
ag10
(g14
S'1\xadv~\x901l@'
p29
tp30
Rp31
ag10
(g14
S'&\xe8#\x91W]l@'
p32
tp33
Rp34
ag10
(g14
S'P\xcb\x01N,0l@'
p35
tp36
Rp37
ag10
(g14
S'\x9e\x0ea\x1f*Il@'
p38
tp39
Rp40
ag10
(g14
S'\x90\x1cp\r\xb0]l@'
p41
tp42
Rp43
ag10
(g14
S'f\xac\xc1\xd8\xd3Al@'
p44
tp45
Rp46
ag10
(g14
S'\xb6Y\x88/\xb6(l@'
p47
tp48
Rp49
ag10
(g14
S'\xba\x9aYTjGl@'
p50
tp51
Rp52
ag10
(g14
S'\xcf\xf9\x8a\x99[Xl@'
p53
tp54
Rp55
ag10
(g14
S'\xde\xec\x8e\xc5\xecJl@'
p56
tp57
Rp58
ag10
(g14
S'\xabp&fZAl@'
p59
tp60
Rp61
ag10
(g14
S'\xc1\x91\x8c\xb2\x01Wl@'
p62
tp63
Rp64
ag10
(g14
S'\x7f\x16\xbdB\x8c l@'
p65
tp66
Rp67
ag10
(g14
S'\xbe\xe1V\x8e\xd2il@'
p68
tp69
Rp70
ag10
(g14
S' \xd4j\xa7)Wl@'
p71
tp72
Rp73
ag10
(g14
S'\x9d\xd3B\x1c\xbdPl@'
p74
tp75
Rp76
asS'target'
p77
(lp78
g10
(g14
S'\xd0\xbbqEr\xa8"@'
p79
tp80
Rp81
ag10
(g14
S'T\xe6d\xf3\x82_#@'
p82
tp83
Rp84
ag10
(g14
S'\x06\xe7\xc6b\x7f\xaa"@'
p85
tp86
Rp87
ag10
(g14
S';\x06\x91)D\x86"@'
p88
tp89
Rp90
ag10
(g14
S'A\xd3D\xbcp\xd3!@'
p91
tp92
Rp93
ag10
(g14
S'\x93\x1e\x7f\x1c|\xee!@'
p94
tp95
Rp96
ag10
(g14
S'A\xf1\x1bR\xde\xc8#@'
p97
tp98
Rp99
ag10
(g14
S',\x9e\xd4M\x99g"@'
p100
tp101
Rp102
ag10
(g14
S"\xad'\x06\xc4\x17Y#@"
p103
tp104
Rp105
ag10
(g14
S'\xf6\xa1\xa7gG\xaf"@'
p106
tp107
Rp108
ag10
(g14
S'\x86\x0f\xe1 P\x16#@'
p109
tp110
Rp111
ag10
(g14
S'\x9d\x93G\x01\xa6&#@'
p112
tp113
Rp114
ag10
(g14
S'\xfe\xa3*"(X#@'
p115
tp116
Rp117
ag10
(g14
S'\t\x83\xb3\xea?\xd7"@'
p118
tp119
Rp120
ag10
(g14
S'_\xbc\xd8\x80\x1f\xc6"@'
p121
tp122
Rp123
ag10
(g14
S'\xae\xa9b\xa7\x03\xfb!@'
p124
tp125
Rp126
ag10
(g14
S's\xffC\xe6P\xd7"@'
p127
tp128
Rp129
ag10
(g14
S'\xa5\x12\x19X\xbde"@'
p130
tp131
Rp132
ag10
(g14
S'RNDtY\xbe#@'
p133
tp134
Rp135
ag10
(g14
S'\xc4F\x915\x8f\x92"@'
p136
tp137
Rp138
asssss.