(dp0
S'../Data/sqlite_82.csv'
p1
(dp2
S'../Data/sqlite_76.csv'
p3
(dp4
F0.4
(dp5
S'mmre'
p6
(dp7
S'bellwether'
p8
(lp9
cnumpy.core.multiarray
scalar
p10
(cnumpy
dtype
p11
(S'f8'
p12
I0
I1
tp13
Rp14
(I3
S'<'
p15
NNNI-1
I-1
I0
tp16
bS'\xa1\x87\xf5m\xbaHC@'
p17
tp18
Rp19
ag10
(g14
S'q_]Em\x99C@'
p20
tp21
Rp22
ag10
(g14
S'C\xdc\xd9?\x0f\xddC@'
p23
tp24
Rp25
ag10
(g14
S'\n"\xc5\xfb\x8f\xeeC@'
p26
tp27
Rp28
ag10
(g14
S'\xb5I \x08\\bC@'
p29
tp30
Rp31
ag10
(g14
S'c\x96_\xc2\x051D@'
p32
tp33
Rp34
ag10
(g14
S'\x01f\x19=\xae\xc6C@'
p35
tp36
Rp37
ag10
(g14
S'\xfc}*\x8bv\xeeC@'
p38
tp39
Rp40
ag10
(g14
S'\x04\xe3$\xf4\x82\xf6C@'
p41
tp42
Rp43
ag10
(g14
S'\x99o\x80EP\xb8C@'
p44
tp45
Rp46
ag10
(g14
S'\xcfQ=\x7fJ\xccC@'
p47
tp48
Rp49
ag10
(g14
S'\xe2\x1c\xd9\x07Z\xadC@'
p50
tp51
Rp52
ag10
(g14
S'~v\x00[\xc1\xbfC@'
p53
tp54
Rp55
ag10
(g14
S'4\xc8\xa4D\xcc\xe7C@'
p56
tp57
Rp58
ag10
(g14
S'\x04p\xc4\xaa\x8d[C@'
p59
tp60
Rp61
ag10
(g14
S'\xca\xa1sP\xb8\x17D@'
p62
tp63
Rp64
ag10
(g14
S'\xfes\xe0/\xcb\xe5C@'
p65
tp66
Rp67
ag10
(g14
S'\xb0bH+%SD@'
p68
tp69
Rp70
ag10
(g14
S'p=IE\t\xd3C@'
p71
tp72
Rp73
ag10
(g14
S'@\xf4~\x93M~C@'
p74
tp75
Rp76
asS'target'
p77
(lp78
g10
(g14
S'H\\\xb5\xbf\xdfh1@'
p79
tp80
Rp81
ag10
(g14
S'g\x82(\x0cg\x031@'
p82
tp83
Rp84
ag10
(g14
S'7hf\x83\xb8\x841@'
p85
tp86
Rp87
ag10
(g14
S'\xaeWm\x9drF1@'
p88
tp89
Rp90
ag10
(g14
S'7Z\xc7dTX2@'
p91
tp92
Rp93
ag10
(g14
S'\xd5\xdd\xfc\xa84 1@'
p94
tp95
Rp96
ag10
(g14
S'\xd0f\xed\xe5\n\x1a1@'
p97
tp98
Rp99
ag10
(g14
S'!\x08\xc8\x97\xc8\xb12@'
p100
tp101
Rp102
ag10
(g14
S'\x89\x1a\xa5\x01\xcat1@'
p103
tp104
Rp105
ag10
(g14
S'\x05IN\x93\xa8\xc90@'
p106
tp107
Rp108
ag10
(g14
S'p\xc7\x1a&\xf2?1@'
p109
tp110
Rp111
ag10
(g14
S'\xec\xba\xf5\xa2{40@'
p112
tp113
Rp114
ag10
(g14
S'\x16\xa3\xba\xdc&\xbf0@'
p115
tp116
Rp117
ag10
(g14
S'\xd1/=\x82~\xf91@'
p118
tp119
Rp120
ag10
(g14
S'\x82\x15w4\xb4>1@'
p121
tp122
Rp123
ag10
(g14
S'\x10\xaa\xef\xc8\xf3\x0b2@'
p124
tp125
Rp126
ag10
(g14
S'U\x83a\xbai\x0c2@'
p127
tp128
Rp129
ag10
(g14
S']\x85\xb2\x83fh1@'
p130
tp131
Rp132
ag10
(g14
S'`\x80\xae_LI0@'
p133
tp134
Rp135
ag10
(g14
S"'\xdd_\xf0Pv0@"
p136
tp137
Rp138
asssss.