(dp0
S'../Data/sqlite_1.csv'
p1
(dp2
S'../Data/sqlite_8.csv'
p3
(dp4
F0.1
(dp5
S'abs_res'
p6
(dp7
S'bellwether'
p8
(lp9
cnumpy.core.multiarray
scalar
p10
(cnumpy
dtype
p11
(S'f8'
p12
I0
I1
tp13
Rp14
(I3
S'<'
p15
NNNI-1
I-1
I0
tp16
bS'b\x10XiOAAA'
p17
tp18
Rp19
ag10
(g14
S'{\x07\xf3\xa4P@AA'
p20
tp21
Rp22
ag10
(g14
S'7^\xba\td@AA'
p23
tp24
Rp25
ag10
(g14
S'\x88\x16\xd9\xfe\x0bAAA'
p26
tp27
Rp28
ag10
(g14
S'\xf3(\\_\xec@AA'
p29
tp30
Rp31
ag10
(g14
S'2\xce>\xbc0AAA'
p32
tp33
Rp34
ag10
(g14
S'7\x89A\xa0LAAA'
p35
tp36
Rp37
ag10
(g14
S'\x0e\x9fa\xd7\xae@AA'
p38
tp39
Rp40
ag10
(g14
S'0\xdd$FP@AA'
p41
tp42
Rp43
ag10
(g14
S'\xb9I\x0c\x82\xec@AA'
p44
tp45
Rp46
ag10
(g14
S'+\xce>\x9c\x0eAAA'
p47
tp48
Rp49
ag10
(g14
S'T\xb8\x1eU\x9d@AA'
p50
tp51
Rp52
ag10
(g14
S'\xd0"\xdb\xb91AAA'
p53
tp54
Rp55
ag10
(g14
S'\x92\xd1\xdb\xb2\xd9@AA'
p56
tp57
Rp58
ag10
(g14
S'\x0b\xd7\xa3\xc0\xb8@AA'
p59
tp60
Rp61
ag10
(g14
S'\x1cZd\xfb\xba@AA'
p62
tp63
Rp64
ag10
(g14
S'\x04\xc8\xbd&\xa0@AA'
p65
tp66
Rp67
ag10
(g14
S'\xcav\xbe\xbf5AAA'
p68
tp69
Rp70
ag10
(g14
S'%x0\xff\xdf@AA'
p71
tp72
Rp73
ag10
(g14
S'\xadc\x82\xc7\xd9@AA'
p74
tp75
Rp76
asS'target'
p77
(lp78
g10
(g14
S'\xf0|?5^^a@'
p79
tp80
Rp81
ag10
(g14
S'.\x85\xebQ\xb8\xf6Y@'
p82
tp83
Rp84
ag10
(g14
S'\x8e\x97n\x12\x83\x98[@'
p85
tp86
Rp87
ag10
(g14
S'\xbe\x9f\x1a/\xdd\x90`@'
p88
tp89
Rp90
ag10
(g14
S'\x84\x14\xaeG\xe1\xf2\\@'
p91
tp92
Rp93
ag10
(g14
S'\xdcMb\x10Xy_@'
p94
tp95
Rp96
ag10
(g14
S'\x1a\x83\xc0\xca\xa1!`@'
p97
tp98
Rp99
ag10
(g14
S'\xf3\xa5\x9b\xc4 \xc8Z@'
p100
tp101
Rp102
ag10
(g14
S'\x9al\xe7\xfb\xa9![@'
p103
tp104
Rp105
ag10
(g14
S't\x12\x83\xc0\xca\x91Y@'
p106
tp107
Rp108
ag10
(g14
S'#\x85\xebQ\xb8\xf6[@'
p109
tp110
Rp111
ag10
(g14
S'm\xe5\xd0"\xdb\xb1Z@'
p112
tp113
Rp114
ag10
(g14
S'2\x89A`\xe5\xf8]@'
p115
tp116
Rp117
ag10
(g14
S'!\xdb\xf9~j\xc4Z@'
p118
tp119
Rp120
ag10
(g14
S'&Zd;\xdf\xa7Y@'
p121
tp122
Rp123
ag10
(g14
S'\xce\xa3p=\n\xafX@'
p124
tp125
Rp126
ag10
(g14
S'+\\\x8f\xc2\xf5\xdc[@'
p127
tp128
Rp129
ag10
(g14
S'\xe9|?5^BX@'
p130
tp131
Rp132
ag10
(g14
S'N\x8d\x97n\x12\x0bX@'
p133
tp134
Rp135
ag10
(g14
S'w\x14\xaeG\xe1\x92]@'
p136
tp137
Rp138
asssss.