(dp0
S'../Data/sqlite_57.csv'
p1
(dp2
S'../Data/sqlite_42.csv'
p3
(dp4
F0.1
(dp5
S'abs_res'
p6
(dp7
S'bellwether'
p8
(lp9
cnumpy.core.multiarray
scalar
p10
(cnumpy
dtype
p11
(S'f8'
p12
I0
I1
tp13
Rp14
(I3
S'<'
p15
NNNI-1
I-1
I0
tp16
bS'U\xb8\x1e-\xc4.jA'
p17
tp18
Rp19
ag10
(g14
S'\xb0\x1cZ\x94\x987jA'
p20
tp21
Rp22
ag10
(g14
S'\xac\xc6K/r4jA'
p23
tp24
Rp25
ag10
(g14
S'[\xb8\x1e}|/jA'
p26
tp27
Rp28
ag10
(g14
S'g;\xdf\xc7\x8e3jA'
p29
tp30
Rp31
ag10
(g14
S'\x99C\x8bPV,jA'
p32
tp33
Rp34
ag10
(g14
S"\xbfI\x0c\xb2'7jA"
p35
tp36
Rp37
ag10
(g14
S'\xcat\x93\x90>0jA'
p38
tp39
Rp40
ag10
(g14
S'\xa4\x1a/\x11@/jA'
p41
tp42
Rp43
ag10
(g14
S'\xbc\x9f\x1aO\xd81jA'
p44
tp45
Rp46
ag10
(g14
S'\xd0K7\xed\xb47jA'
p47
tp48
Rp49
ag10
(g14
S'\x8b\x95C\x9f\xe2+jA'
p50
tp51
Rp52
ag10
(g14
S'x\xbe\x9f^\x890jA'
p53
tp54
Rp55
ag10
(g14
S'\xf5S\xe3\x95\x9c-jA'
p56
tp57
Rp58
ag10
(g14
S'\xa9p=\xdaG2jA'
p59
tp60
Rp61
ag10
(g14
S'O7\x89\xfdD.jA'
p62
tp63
Rp64
ag10
(g14
S'Q\xe1z\xb0$3jA'
p65
tp66
Rp67
ag10
(g14
S'~?5&\x88(jA'
p68
tp69
Rp70
ag10
(g14
S'\x9a\x18\x04:\x062jA'
p71
tp72
Rp73
ag10
(g14
S'\xed\xa5\x9b0\x1f.jA'
p74
tp75
Rp76
asS'target'
p77
(lp78
g10
(g14
S'\x0c\x02+\x87\x16\xd1h@'
p79
tp80
Rp81
ag10
(g14
S'~\xe9&1\x08Th@'
p82
tp83
Rp84
ag10
(g14
S'&\x08\xac\x1cZ<i@'
p85
tp86
Rp87
ag10
(g14
S'\x93\x97n\x12\x83\x84k@'
p88
tp89
Rp90
ag10
(g14
S'`\x91\xed|?ih@'
p91
tp92
Rp93
ag10
(g14
S'\xdb$\x06\x81\x95\x97g@'
p94
tp95
Rp96
ag10
(g14
S'\x1c\x85\xebQ\xb8\xaaj@'
p97
tp98
Rp99
ag10
(g14
S'J\x8bl\xe7\xfb\xf9j@'
p100
tp101
Rp102
ag10
(g14
S'\x89\x95C\x8bl\x0fk@'
p103
tp104
Rp105
ag10
(g14
S'\xb3G\xe1z\x14zi@'
p106
tp107
Rp108
ag10
(g14
S'\x0fZd;\xdfsl@'
p109
tp110
Rp111
ag10
(g14
S'\x19\xd7\xa3p=\xb2m@'
p112
tp113
Rp114
ag10
(g14
S'I9\xb4\xc8v\xb2k@'
p115
tp116
Rp117
ag10
(g14
S'\xed&1\x08\xac<m@'
p118
tp119
Rp120
ag10
(g14
S'\x87\xc0\xca\xa1Eji@'
p121
tp122
Rp123
ag10
(g14
S'\x83\xebQ\xb8\x1e)l@'
p124
tp125
Rp126
ag10
(g14
S'\xe0\xd0"\xdb\xf9"h@'
p127
tp128
Rp129
ag10
(g14
S']\x0e-\xb2\x9d\xcfj@'
p130
tp131
Rp132
ag10
(g14
S'u\xbct\x93\x18hi@'
p133
tp134
Rp135
ag10
(g14
S'\x9d\x99\x99\x99\x99\x11l@'
p136
tp137
Rp138
asssss.