(dp0
S'../Data/sqlite_35.csv'
p1
(dp2
S'../Data/sqlite_79.csv'
p3
(dp4
F0.3
(dp5
S'mmre'
p6
(dp7
S'bellwether'
p8
(lp9
cnumpy.core.multiarray
scalar
p10
(cnumpy
dtype
p11
(S'f8'
p12
I0
I1
tp13
Rp14
(I3
S'<'
p15
NNNI-1
I-1
I0
tp16
bS'B\x02\x0b\xc1z|v@'
p17
tp18
Rp19
ag10
(g14
S'\x00\xb9\x14D\xd8lv@'
p20
tp21
Rp22
ag10
(g14
S'\xd0\xac\x0bq\xaf]v@'
p23
tp24
Rp25
ag10
(g14
S'S\x00\x85.\xbbkv@'
p26
tp27
Rp28
ag10
(g14
S'\x07\x9f\xb9\x94-cv@'
p29
tp30
Rp31
ag10
(g14
S'\xc2\xa0)\x0f\xb4qv@'
p32
tp33
Rp34
ag10
(g14
S's\x97\x0cd\xd7_v@'
p35
tp36
Rp37
ag10
(g14
S'\xe4\xe0VL\x15tv@'
p38
tp39
Rp40
ag10
(g14
S'@\xc8\x03cuZv@'
p41
tp42
Rp43
ag10
(g14
S'\x81&\xa5dajv@'
p44
tp45
Rp46
ag10
(g14
S'\xe6D\xce\xe9\x89jv@'
p47
tp48
Rp49
ag10
(g14
S'\x84\xf8@\xe7nlv@'
p50
tp51
Rp52
ag10
(g14
S'{\xb2\x8f\xa3\xa4ov@'
p53
tp54
Rp55
ag10
(g14
S'\xf6\xdc\x9e\xb6|jv@'
p56
tp57
Rp58
ag10
(g14
S'\xb9\xe7\xb0\x8d\x17kv@'
p59
tp60
Rp61
ag10
(g14
S'{.Mr/jv@'
p62
tp63
Rp64
ag10
(g14
S'\xe0\xd0\xbd]/Vv@'
p65
tp66
Rp67
ag10
(g14
S'Z\xab\x08B"Rv@'
p68
tp69
Rp70
ag10
(g14
S'2\x84\xc4\xe74kv@'
p71
tp72
Rp73
ag10
(g14
S':Mj%U\\v@'
p74
tp75
Rp76
asS'target'
p77
(lp78
g10
(g14
S'#\x8b\x87\x03\x8b@,@'
p79
tp80
Rp81
ag10
(g14
S"\x1f\xc35\x17\xa6='@"
p82
tp83
Rp84
ag10
(g14
S'\x84$r\x98`\x1e!@'
p85
tp86
Rp87
ag10
(g14
S'\xbfD\nNp]%@'
p88
tp89
Rp90
ag10
(g14
S'(\xd3\xb5IK\x9f @'
p91
tp92
Rp93
ag10
(g14
S'`\x85\xc0\x91\x06\xa5"@'
p94
tp95
Rp96
ag10
(g14
S'\xbcF\x93n\xfb\xfa&@'
p97
tp98
Rp99
ag10
(g14
S'\xdf!tu=\x1a @'
p100
tp101
Rp102
ag10
(g14
S'\xce@\xdf\xde\xafF#@'
p103
tp104
Rp105
ag10
(g14
S'\xbf\x08\x8e\xce\xd2:$@'
p106
tp107
Rp108
ag10
(g14
S'\xaa\xda\xf4\x921`$@'
p109
tp110
Rp111
ag10
(g14
S'2O\x8a\x9c=\x1d$@'
p112
tp113
Rp114
ag10
(g14
S'\xefj\xbc\x1e\n{\x1e@'
p115
tp116
Rp117
ag10
(g14
S'bt\xd3N\x1e\x96!@'
p118
tp119
Rp120
ag10
(g14
S'\xa0I0\x9f\x1a\xbe#@'
p121
tp122
Rp123
ag10
(g14
S'W\x81\x84\x81\xb4F#@'
p124
tp125
Rp126
ag10
(g14
S'y\xf6\xe6G\xf1A\x1e@'
p127
tp128
Rp129
ag10
(g14
S'\xb0\xab\x99\xfb\x07b\x1b@'
p130
tp131
Rp132
ag10
(g14
S'\t\xee\xb8UP\x8a @'
p133
tp134
Rp135
ag10
(g14
S'XKyY\xa8Q\x1f@'
p136
tp137
Rp138
asssss.