(dp0
S'../Data/sqlite_74.csv'
p1
(dp2
S'../Data/sqlite_34.csv'
p3
(dp4
F0.4
(dp5
S'abs_res'
p6
(dp7
S'bellwether'
p8
(lp9
cnumpy.core.multiarray
scalar
p10
(cnumpy
dtype
p11
(S'f8'
p12
I0
I1
tp13
Rp14
(I3
S'<'
p15
NNNI-1
I-1
I0
tp16
bS'_\x82\x07\x93dHdA'
p17
tp18
Rp19
ag10
(g14
S'?\x8bl\xe7\x13HdA'
p20
tp21
Rp22
ag10
(g14
S' >\xc3BaKdA'
p23
tp24
Rp25
ag10
(g14
S'/^\xbaU\xedIdA'
p26
tp27
Rp28
ag10
(g14
S'\xf1|?\x01$CdA'
p29
tp30
Rp31
ag10
(g14
S'r\x05\xc81.CdA'
p32
tp33
Rp34
ag10
(g14
S"8\x98'\x9ehNdA"
p35
tp36
Rp37
ag10
(g14
S'\x1bK~\x11zAdA'
p38
tp39
Rp40
ag10
(g14
S'\xaaG\xe1\x92\xbdEdA'
p41
tp42
Rp43
ag10
(g14
S'\xe0\x17K\x16\xa8CdA'
p44
tp45
Rp46
ag10
(g14
S';\x19\xbd\r\xb0XdA'
p47
tp48
Rp49
ag10
(g14
S'\xca\xdb\xb2R\xc7AdA'
p50
tp51
Rp52
ag10
(g14
S'\xf95\x17\x9e\xd9RdA'
p53
tp54
Rp55
ag10
(g14
S'|\xe9&\x95\xcb9dA'
p56
tp57
Rp58
ag10
(g14
S'qww\xab\xedNdA'
p59
tp60
Rp61
ag10
(g14
S'\xa1aW\x18\xe8KdA'
p62
tp63
Rp64
ag10
(g14
S'3\x08\xac\x10/=dA'
p65
tp66
Rp67
ag10
(g14
S'\x914\xa5\xaadKdA'
p68
tp69
Rp70
ag10
(g14
S's\xda@\xbb9TdA'
p71
tp72
Rp73
ag10
(g14
S')ku<\nIdA'
p74
tp75
Rp76
asS'target'
p77
(lp78
g10
(g14
S'\x81\xc0\xca\xa1E\xc8e@'
p79
tp80
Rp81
ag10
(g14
S'\xabG\xe1z\x14Be@'
p82
tp83
Rp84
ag10
(g14
S'O7\x89A`\x11e@'
p85
tp86
Rp87
ag10
(g14
S'.^\xbaI\x0cFe@'
p88
tp89
Rp90
ag10
(g14
S'\xab\xf1\xd2MbXd@'
p91
tp92
Rp93
ag10
(g14
S'\x95n\x12\x83\xc0&d@'
p94
tp95
Rp96
ag10
(g14
S'\xa1p=\n\xd7\x1be@'
p97
tp98
Rp99
ag10
(g14
S'\x9d\x1a/\xdd$de@'
p100
tp101
Rp102
ag10
(g14
S'w\xe9&1\x08\xbcc@'
p103
tp104
Rp105
ag10
(g14
S'j\xbct\x93\x18zd@'
p106
tp107
Rp108
ag10
(g14
S'\x19/\xdd$\x06\xf1e@'
p109
tp110
Rp111
ag10
(g14
S'\xaarh\x91\xed\x82e@'
p112
tp113
Rp114
ag10
(g14
S'W9\xb4\xc8v:d@'
p115
tp116
Rp117
ag10
(g14
S'\x96C\x8bl\xe7\x83d@'
p118
tp119
Rp120
ag10
(g14
S'p\xe9&1\x08\xb8d@'
p121
tp122
Rp123
ag10
(g14
S'\x13\x04V\x0e-\xc4c@'
p124
tp125
Rp126
ag10
(g14
S'\xecQ\xb8\x1e\x85\xc1e@'
p127
tp128
Rp129
ag10
(g14
S';\x89A`\xe5<c@'
p130
tp131
Rp132
ag10
(g14
S'\x0c/\xdd$\x06\x8de@'
p133
tp134
Rp135
ag10
(g14
S'\xc9\xcc\xcc\xcc\xccBd@'
p136
tp137
Rp138
asssss.