(dp0
S'../Data/sqlite_93.csv'
p1
(dp2
S'../Data/sqlite_87.csv'
p3
(dp4
F0.2
(dp5
S'mmre'
p6
(dp7
S'bellwether'
p8
(lp9
cnumpy.core.multiarray
scalar
p10
(cnumpy
dtype
p11
(S'f8'
p12
I0
I1
tp13
Rp14
(I3
S'<'
p15
NNNI-1
I-1
I0
tp16
bS'P<\xcf\x86kEV@'
p17
tp18
Rp19
ag10
(g14
S'&\x1a\x17\xdd\x1dKV@'
p20
tp21
Rp22
ag10
(g14
S'\x9e\x18dy9NV@'
p23
tp24
Rp25
ag10
(g14
S'\xb2O\xc2\xf8\x9fGV@'
p26
tp27
Rp28
ag10
(g14
S'&5\xee;\x98PV@'
p29
tp30
Rp31
ag10
(g14
S'\xea\xbe\xee\xfb\xe3LV@'
p32
tp33
Rp34
ag10
(g14
S'\xe4XY\x90\xbaNV@'
p35
tp36
Rp37
ag10
(g14
S'\x0e@\xcf\r\xc7GV@'
p38
tp39
Rp40
ag10
(g14
S'\xe0{\xef\xe3\x0fOV@'
p41
tp42
Rp43
ag10
(g14
S'X\x95\x8fK9GV@'
p44
tp45
Rp46
ag10
(g14
S'j\xe97\x05\x94HV@'
p47
tp48
Rp49
ag10
(g14
S'0\x18\xcf?TPV@'
p50
tp51
Rp52
ag10
(g14
S'\xb2*\xf4\x13;QV@'
p53
tp54
Rp55
ag10
(g14
S'\xe4w\xccL\xf6JV@'
p56
tp57
Rp58
ag10
(g14
S'4\xeb\x86\x1e\xeaJV@'
p59
tp60
Rp61
ag10
(g14
S':\xe39clJV@'
p62
tp63
Rp64
ag10
(g14
S'\xc6\x9a\xcc\xa2\xebHV@'
p65
tp66
Rp67
ag10
(g14
S'\xc2\t\xde\x0b\xf6NV@'
p68
tp69
Rp70
ag10
(g14
S'\x99\xaa\x00\x101IV@'
p71
tp72
Rp73
ag10
(g14
S':+&\xe3\x9aHV@'
p74
tp75
Rp76
asS'target'
p77
(lp78
g10
(g14
S'\xd0\xf2\x15\x15\xf0\xe3S@'
p79
tp80
Rp81
ag10
(g14
S'F%"\x1a\x9e\x90O@'
p82
tp83
Rp84
ag10
(g14
S'\xf4\x8dpZ\xb3\xacS@'
p85
tp86
Rp87
ag10
(g14
S'\x8c\xa5nJWxP@'
p88
tp89
Rp90
ag10
(g14
S'<\xe2m\xbc- S@'
p91
tp92
Rp93
ag10
(g14
S'\x8f\xd2\xa9b\xe0\xb7M@'
p94
tp95
Rp96
ag10
(g14
S'5+\xb8*\xfb\xb1E@'
p97
tp98
Rp99
ag10
(g14
S'\xe4\xdd\x88GySP@'
p100
tp101
Rp102
ag10
(g14
S'f\x1a\x14B0\x7fH@'
p103
tp104
Rp105
ag10
(g14
S'z\xb2\xf54&\x1bR@'
p106
tp107
Rp108
ag10
(g14
S'u\xf3\x17N\xcc\xcbL@'
p109
tp110
Rp111
ag10
(g14
S'\xb0\xc2\x00\xa9\x13\x9dR@'
p112
tp113
Rp114
ag10
(g14
S'\xa3$\xa2\xac^OP@'
p115
tp116
Rp117
ag10
(g14
S'6\xf9\xfd\x1b\x8b\xe0W@'
p118
tp119
Rp120
ag10
(g14
S'\xb8F*\xe3\xdbzO@'
p121
tp122
Rp123
ag10
(g14
S'V\xf4\xdf,\x10hP@'
p124
tp125
Rp126
ag10
(g14
S'\xb6\xa8lX9US@'
p127
tp128
Rp129
ag10
(g14
S'r\x7fHC/\x8fT@'
p130
tp131
Rp132
ag10
(g14
S'7\xff]\xd6X\xb4M@'
p133
tp134
Rp135
ag10
(g14
S'y\xbf\xf1\x16*\x0fS@'
p136
tp137
Rp138
asssss.