(dp0
S'../Data/sqlite_4.csv'
p1
(dp2
S'../Data/sqlite_17.csv'
p3
(dp4
F0.3
(dp5
S'abs_res'
p6
(dp7
S'bellwether'
p8
(lp9
cnumpy.core.multiarray
scalar
p10
(cnumpy
dtype
p11
(S'f8'
p12
I0
I1
tp13
Rp14
(I3
S'<'
p15
NNNI-1
I-1
I0
tp16
bS'\x812z\x1b\xff+;A'
p17
tp18
Rp19
ag10
(g14
S',^\xbaih+;A'
p20
tp21
Rp22
ag10
(g14
S'b\x1f>C\x0b.;A'
p23
tp24
Rp25
ag10
(g14
S'\xd01\xc1\x03\xdb+;A'
p26
tp27
Rp28
ag10
(g14
S'\ne\xf4\x16N,;A'
p29
tp30
Rp31
ag10
(g14
S'\xad\xd7\\(\x8c-;A'
p32
tp33
Rp34
ag10
(g14
S'\x832z\x1b\xe3,;A'
p35
tp36
Rp37
ag10
(g14
S'{\x88\x88(V-;A'
p38
tp39
Rp40
ag10
(g14
S'~\xb1\xe4\xb75,;A'
p41
tp42
Rp43
ag10
(g14
S'\x9b}\xf8\xec\xa3.;A'
p44
tp45
Rp46
ag10
(g14
S'\xdc\x08e\xd4\xe4-;A'
p47
tp48
Rp49
ag10
(g14
S'#ku\xec\xc3,;A'
p50
tp51
Rp52
ag10
(g14
S'\x83]\x01\xd28-;A'
p53
tp54
Rp55
ag10
(g14
S'\xe4\xc3g8M-;A'
p56
tp57
Rp58
ag10
(g14
S'\xac8\xfb\xf0A-;A'
p59
tp60
Rp61
ag10
(g14
S'95^\x9a\x19+;A'
p62
tp63
Rp64
ag10
(g14
S'\xe1\xd0"\xbb\x9c+;A'
p65
tp66
Rp67
ag10
(g14
S'6\xb4\xc8\x96\x14+;A'
p68
tp69
Rp70
ag10
(g14
S'%\\\x8fb\xf2-;A'
p71
tp72
Rp73
ag10
(g14
S'\xec|?\xb5`.;A'
p74
tp75
Rp76
asS'target'
p77
(lp78
g10
(g14
S'^\x8f\xc2\xf5(\xf8h@'
p79
tp80
Rp81
ag10
(g14
S'v?5^\xba]h@'
p82
tp83
Rp84
ag10
(g14
S'\xb3\x9d\xef\xa7\xc6sf@'
p85
tp86
Rp87
ag10
(g14
S'63333\x17g@'
p88
tp89
Rp90
ag10
(g14
S'\x99\x99\x99\x99\x99\xfde@'
p91
tp92
Rp93
ag10
(g14
S'\x08\x02+\x87\x16\x91g@'
p94
tp95
Rp96
ag10
(g14
S'\x85\xebQ\xb8\x1e\xffe@'
p97
tp98
Rp99
ag10
(g14
S'\xb4\xf3\xfd\xd4x\x95h@'
p100
tp101
Rp102
ag10
(g14
S'gffffFg@'
p103
tp104
Rp105
ag10
(g14
S'\x85A`\xe5\xd0"i@'
p106
tp107
Rp108
ag10
(g14
S'\xcbv\xbe\x9f\x1a\x9bi@'
p109
tp110
Rp111
ag10
(g14
S'\xacG\xe1z\x14\xacf@'
p112
tp113
Rp114
ag10
(g14
S'\xfd~j\xbctwh@'
p115
tp116
Rp117
ag10
(g14
S'\x84\x16\xd9\xce\xf7[f@'
p118
tp119
Rp120
ag10
(g14
S'y\x12\x83\xc0\xca\x07h@'
p121
tp122
Rp123
ag10
(g14
S'>\x8bl\xe7\xfb\xe9h@'
p124
tp125
Rp126
ag10
(g14
S'\t\x00\x00\x00\x00Ri@'
p127
tp128
Rp129
ag10
(g14
S'\xa2\x9b\xc4 \xb0\xceg@'
p130
tp131
Rp132
ag10
(g14
S'g\xbaI\x0c\x02\xadh@'
p133
tp134
Rp135
ag10
(g14
S'\x14\xd7\xa3p=4h@'
p136
tp137
Rp138
asssss.