(dp0
S'../Data/sqlite_90.csv'
p1
(dp2
S'../Data/sqlite_4.csv'
p3
(dp4
F0.3
(dp5
S'abs_res'
p6
(dp7
S'bellwether'
p8
(lp9
cnumpy.core.multiarray
scalar
p10
(cnumpy
dtype
p11
(S'f8'
p12
I0
I1
tp13
Rp14
(I3
S'<'
p15
NNNI-1
I-1
I0
tp16
bS'\xe0O\x8dG\xa7b9A'
p17
tp18
Rp19
ag10
(g14
S'\xd1Mb\xd0`e9A'
p20
tp21
Rp22
ag10
(g14
S',\xb2\x9d\xcf\xb0e9A'
p23
tp24
Rp25
ag10
(g14
S"'\xdd$\xd6\xc1a9A"
p26
tp27
Rp28
ag10
(g14
S'\x13\xd7\xa3\xb0&c9A'
p29
tp30
Rp31
ag10
(g14
S'(\x85\xeb\xe1\xa9c9A'
p32
tp33
Rp34
ag10
(g14
S'x?5\xee\xd9a9A'
p35
tp36
Rp37
ag10
(g14
S'\xcc\xf7S\xe3^d9A'
p38
tp39
Rp40
ag10
(g14
S'\x1b\xb0r\xb8hb9A'
p41
tp42
Rp43
ag10
(g14
S'\xd3\xcc\xccLM`9A'
p44
tp45
Rp46
ag10
(g14
S'\xbd\x1e\x85K\x8ab9A'
p47
tp48
Rp49
ag10
(g14
S'\xb9\x1e\x85\xab0f9A'
p50
tp51
Rp52
ag10
(g14
S'kff\x86\xde`9A'
p53
tp54
Rp55
ag10
(g14
S'6^\xba\xa95b9A'
p56
tp57
Rp58
ag10
(g14
S'\x8a\x16\xd9^4d9A'
p59
tp60
Rp61
ag10
(g14
S'\xb8\xc8v~\x9ac9A'
p62
tp63
Rp64
ag10
(g14
S'\xb0rhq:e9A'
p65
tp66
Rp67
ag10
(g14
S'\xa2\xc4 `\x87a9A'
p68
tp69
Rp70
ag10
(g14
S'\xa2\x1a/\xfdKd9A'
p71
tp72
Rp73
ag10
(g14
S'\xd5Mb\x90\x8c_9A'
p74
tp75
Rp76
asS'target'
p77
(lp78
g10
(g14
S'_fff\xe6Z\xd1@'
p79
tp80
Rp81
ag10
(g14
S'(333s\x99\xcf@'
p82
tp83
Rp84
ag10
(g14
S'-333\x93\x8e\xd0@'
p85
tp86
Rp87
ag10
(g14
S'\x00\x00\x00\x00\x90 \xd1@'
p88
tp89
Rp90
ag10
(g14
S'1333\xd3\x8d\xd0@'
p91
tp92
Rp93
ag10
(g14
S'2333\xf3Q\xd0@'
p94
tp95
Rp96
ag10
(g14
S'1333\x13\x8a\xd0@'
p97
tp98
Rp99
ag10
(g14
S'gfff6\x13\xd1@'
p100
tp101
Rp102
ag10
(g14
S'1333\xc36\xd0@'
p103
tp104
Rp105
ag10
(g14
S'\xfe\xff\xff\xff\x9f*\xcf@'
p106
tp107
Rp108
ag10
(g14
S'"333s\x04\xcf@'
p109
tp110
Rp111
ag10
(g14
S'\x93\x99\x99\x99\x99v\xcf@'
p112
tp113
Rp114
ag10
(g14
S',333\x03h\xd0@'
p115
tp116
Rp117
ag10
(g14
S'\x99\x99\x99\x99)\xd9\xd0@'
p118
tp119
Rp120
ag10
(g14
S'\xcd\xcc\xcc\xcc,\x9d\xd0@'
p121
tp122
Rp123
ag10
(g14
S'ffffV\n\xd0@'
p124
tp125
Rp126
ag10
(g14
S'\xd3\xcc\xcc\xcc\xdc\x02\xd1@'
p127
tp128
Rp129
ag10
(g14
S'\x9b\x99\x99\x99)*\xd1@'
p130
tp131
Rp132
ag10
(g14
S'gffff\x9b\xcf@'
p133
tp134
Rp135
ag10
(g14
S'\xfe\xff\xff\xff\x0f6\xd0@'
p136
tp137
Rp138
asssss.