(dp0
S'../Data/sqlite_5.csv'
p1
(dp2
S'../Data/sqlite_96.csv'
p3
(dp4
F0.05
(dp5
S'mmre'
p6
(dp7
S'bellwether'
p8
(lp9
cnumpy.core.multiarray
scalar
p10
(cnumpy
dtype
p11
(S'f8'
p12
I0
I1
tp13
Rp14
(I3
S'<'
p15
NNNI-1
I-1
I0
tp16
bS'\xae\xb6\xb2\x15T!T@'
p17
tp18
Rp19
ag10
(g14
S'"ie>`!T@'
p20
tp21
Rp22
ag10
(g14
S'\x85S|\x0b\x0b$T@'
p23
tp24
Rp25
ag10
(g14
S'e\t\x18&\x81#T@'
p26
tp27
Rp28
ag10
(g14
S'\xd4Z7Y\x8b\x1eT@'
p29
tp30
Rp31
ag10
(g14
S'\xad\xbaV"\x14"T@'
p32
tp33
Rp34
ag10
(g14
S'}\xc8&W{!T@'
p35
tp36
Rp37
ag10
(g14
S'\xb1f\x8d\xc5\x06%T@'
p38
tp39
Rp40
ag10
(g14
S'\xd7]\xd3\xc4\xdf$T@'
p41
tp42
Rp43
ag10
(g14
S'\xe1\xc5\xdc\xee4%T@'
p44
tp45
Rp46
ag10
(g14
S'|\xd8\xa6)\xe0 T@'
p47
tp48
Rp49
ag10
(g14
S'\xa5\x82\xc0\xb5\xe2 T@'
p50
tp51
Rp52
ag10
(g14
S',\x8e\x93OY&T@'
p53
tp54
Rp55
ag10
(g14
S's\xfdI\x1d\xb8#T@'
p56
tp57
Rp58
ag10
(g14
S'\xe96\xdbJ\xe3 T@'
p59
tp60
Rp61
ag10
(g14
S'\xc3\xb09\x07U\x1dT@'
p62
tp63
Rp64
ag10
(g14
S'\xf7y4=4#T@'
p65
tp66
Rp67
ag10
(g14
S'\x900\x84)\xe8\x1dT@'
p68
tp69
Rp70
ag10
(g14
S'\xb4\x0bG\xa3V\x1dT@'
p71
tp72
Rp73
ag10
(g14
S'B+C6\xfb\x1dT@'
p74
tp75
Rp76
asS'target'
p77
(lp78
g10
(g14
S'[,$\xc7\xcb\xe8Q@'
p79
tp80
Rp81
ag10
(g14
S'\xef\\_T\x99:d@'
p82
tp83
Rp84
ag10
(g14
S'\xf7\xdd\x08\xfa%\x88S@'
p85
tp86
Rp87
ag10
(g14
S'C\xebi\xc7\xb4\xe4`@'
p88
tp89
Rp90
ag10
(g14
S'.R\xa3H-\x10\\@'
p91
tp92
Rp93
ag10
(g14
S'"\xfa\x9f\xb6\xa7+S@'
p94
tp95
Rp96
ag10
(g14
S'~C\x01\xe8\xf3\x8e@@'
p97
tp98
Rp99
ag10
(g14
S'\xb4x\xcc\xb0\x85.W@'
p100
tp101
Rp102
ag10
(g14
S'\xafJ\xb03 \x8e`@'
p103
tp104
Rp105
ag10
(g14
S'7\x9d\xca\x7f4\xddW@'
p106
tp107
Rp108
ag10
(g14
S'\x16m\x81\x10S-Y@'
p109
tp110
Rp111
ag10
(g14
S'\xfd\xf8\xdc#\xe8\xa6S@'
p112
tp113
Rp114
ag10
(g14
S'\x12Z\xbb\xe8\xbfH@@'
p115
tp116
Rp117
ag10
(g14
S'\x99\x81\n\xe7\xe5\x00Y@'
p118
tp119
Rp120
ag10
(g14
S'\x941\xeb\x1a(SB@'
p121
tp122
Rp123
ag10
(g14
S'yj\xc2s\xca\xacY@'
p124
tp125
Rp126
ag10
(g14
S'\x04\xcbj\xe1\x18\xcd?@'
p127
tp128
Rp129
ag10
(g14
S'\xbd>cR\x97\x15^@'
p130
tp131
Rp132
ag10
(g14
S'H\x10@\xe0t\x83]@'
p133
tp134
Rp135
ag10
(g14
S'V\xdc\xdeC[\\U@'
p136
tp137
Rp138
asssss.