(dp0
S'../Data/sqlite_8.csv'
p1
(dp2
S'../Data/sqlite_76.csv'
p3
(dp4
F0.1
(dp5
S'mmre'
p6
(dp7
S'bellwether'
p8
(lp9
cnumpy.core.multiarray
scalar
p10
(cnumpy
dtype
p11
(S'f8'
p12
I0
I1
tp13
Rp14
(I3
S'<'
p15
NNNI-1
I-1
I0
tp16
bS'\xa3\x0cpK\x15EV@'
p17
tp18
Rp19
ag10
(g14
S'\x10\x8ceB3BV@'
p20
tp21
Rp22
ag10
(g14
S'D(\xbbo\x9cCV@'
p23
tp24
Rp25
ag10
(g14
S'\x14\x80\xdd\xecpAV@'
p26
tp27
Rp28
ag10
(g14
S'\x06\x1b\x92a\xb1BV@'
p29
tp30
Rp31
ag10
(g14
S'|\x81g\xc0\xbdBV@'
p32
tp33
Rp34
ag10
(g14
S'~\x03\x94\xef\xd8CV@'
p35
tp36
Rp37
ag10
(g14
S'\x80q\x90\xd7BCV@'
p38
tp39
Rp40
ag10
(g14
S'I\x01\rJ\xbdBV@'
p41
tp42
Rp43
ag10
(g14
S'\xcc\x94\xc8QcAV@'
p44
tp45
Rp46
ag10
(g14
S'\x150\x19\x02\x15BV@'
p47
tp48
Rp49
ag10
(g14
S'\x10\xe3(\xa9\x98CV@'
p50
tp51
Rp52
ag10
(g14
S'\xc07\xfctkCV@'
p53
tp54
Rp55
ag10
(g14
S'\xccA\xdcw\xd8CV@'
p56
tp57
Rp58
ag10
(g14
S'w\xd5Y\xf4\xa8CV@'
p59
tp60
Rp61
ag10
(g14
S'g\xca\xc7\xf1;DV@'
p62
tp63
Rp64
ag10
(g14
S'\xbe\xa6$\x13\xdeCV@'
p65
tp66
Rp67
ag10
(g14
S'\xab\xa7bRg@V@'
p68
tp69
Rp70
ag10
(g14
S'V\x81\x1b\x91\xe6AV@'
p71
tp72
Rp73
ag10
(g14
S'\xfb\xe4\xaf\xa0\xa7BV@'
p74
tp75
Rp76
asS'target'
p77
(lp78
g10
(g14
S'I\xb6B\xe7\xa4\xa21@'
p79
tp80
Rp81
ag10
(g14
S'\x98W|\xd2\x0b\x1c0@'
p82
tp83
Rp84
ag10
(g14
S'\x9du\xffw\x0770@'
p85
tp86
Rp87
ag10
(g14
S'.\xb3T\tXj0@'
p88
tp89
Rp90
ag10
(g14
S'$`)D\xba\xf50@'
p91
tp92
Rp93
ag10
(g14
S'"+\x13!q\xe52@'
p94
tp95
Rp96
ag10
(g14
S'L,4i\x86\xfa0@'
p97
tp98
Rp99
ag10
(g14
S'\xd3\xea\x17#5%1@'
p100
tp101
Rp102
ag10
(g14
S'z\xa3*\xab\x04\xa81@'
p103
tp104
Rp105
ag10
(g14
S'\xd8\xb8P\x8e!\xaa1@'
p106
tp107
Rp108
ag10
(g14
S'y\xd7\xddz@,3@'
p109
tp110
Rp111
ag10
(g14
S'\xf1A\x83~\x94\x840@'
p112
tp113
Rp114
ag10
(g14
S'A\xd0NPU\x042@'
p115
tp116
Rp117
ag10
(g14
S'\xe8t\x0b7\x95\xec1@'
p118
tp119
Rp120
ag10
(g14
S'\xcb\xdd\xaf\t\xb3\xc61@'
p121
tp122
Rp123
ag10
(g14
S'`B\xc4\xff\xb1\x111@'
p124
tp125
Rp126
ag10
(g14
S'u\x05}\xd45\xb51@'
p127
tp128
Rp129
ag10
(g14
S'\x86\xc3\x11\x01;_3@'
p130
tp131
Rp132
ag10
(g14
S'\x89\xac\x7f\xe4\xb2\xa32@'
p133
tp134
Rp135
ag10
(g14
S'n\x7f\x04\xffg\x842@'
p136
tp137
Rp138
asssss.