(dp0
S'../Data/sqlite_33.csv'
p1
(dp2
S'../Data/sqlite_92.csv'
p3
(dp4
F0.1
(dp5
S'mmre'
p6
(dp7
S'bellwether'
p8
(lp9
cnumpy.core.multiarray
scalar
p10
(cnumpy
dtype
p11
(S'f8'
p12
I0
I1
tp13
Rp14
(I3
S'<'
p15
NNNI-1
I-1
I0
tp16
bS'\x89\xa6$\xbftWH@'
p17
tp18
Rp19
ag10
(g14
S'\x88\xc5\xa4y\xab_H@'
p20
tp21
Rp22
ag10
(g14
S'2\xdcX0.\xa0H@'
p23
tp24
Rp25
ag10
(g14
S'J\xfe\xa2\xf9\x1bTH@'
p26
tp27
Rp28
ag10
(g14
S'6?z%\x89aH@'
p29
tp30
Rp31
ag10
(g14
S'\xb3mUR\xe4SH@'
p32
tp33
Rp34
ag10
(g14
S'iiV8*;H@'
p35
tp36
Rp37
ag10
(g14
S'\xb4\xafh\x04\x07}H@'
p38
tp39
Rp40
ag10
(g14
S'+\xd3\x8ac\tvH@'
p41
tp42
Rp43
ag10
(g14
S'y\xe2\xffArkH@'
p44
tp45
Rp46
ag10
(g14
S'Pk\x82\x85\xbf\x80H@'
p47
tp48
Rp49
ag10
(g14
S'\xe6\xa6\x005SeH@'
p50
tp51
Rp52
ag10
(g14
S'~\x89I-\xfeqH@'
p53
tp54
Rp55
ag10
(g14
S'\x9c\xe3|i\x02{H@'
p56
tp57
Rp58
ag10
(g14
S's~\xe7\xf7?IH@'
p59
tp60
Rp61
ag10
(g14
S'n\xfe>\x80\xe4\x8eH@'
p62
tp63
Rp64
ag10
(g14
S'<+\x8e\x81\xf5HH@'
p65
tp66
Rp67
ag10
(g14
S'\xeb/\x82\xa6\t\x8bH@'
p68
tp69
Rp70
ag10
(g14
S'k\x05M\n`RH@'
p71
tp72
Rp73
ag10
(g14
S'y\x96_\t6NH@'
p74
tp75
Rp76
asS'target'
p77
(lp78
g10
(g14
S'\xaf\xc6\xc0{\xf2\x1fS@'
p79
tp80
Rp81
ag10
(g14
S'.M|\xe5H\x04W@'
p82
tp83
Rp84
ag10
(g14
S'\x91Ok?\xfa6I@'
p85
tp86
Rp87
ag10
(g14
S'Z\xe24\xbb0\x0eQ@'
p88
tp89
Rp90
ag10
(g14
S'\x9b\x07\x84\xbd\x11\xd4V@'
p91
tp92
Rp93
ag10
(g14
S'\xb3\x9fu\x92b\xfbV@'
p94
tp95
Rp96
ag10
(g14
S'\n\xc2\xf3 \xd6\x83Q@'
p97
tp98
Rp99
ag10
(g14
S'\x1f\xcc\xee\xfd\xac\x13G@'
p100
tp101
Rp102
ag10
(g14
S'W\xf7\xc9\xe7^\xe1Q@'
p103
tp104
Rp105
ag10
(g14
S'\xc6\t\xa9b\xd14b@'
p106
tp107
Rp108
ag10
(g14
S'\xd8\x0bv\xf7\x031S@'
p109
tp110
Rp111
ag10
(g14
S'j\xe8|8\x15|S@'
p112
tp113
Rp114
ag10
(g14
S'\xb0\xbfOO\xa4{Q@'
p115
tp116
Rp117
ag10
(g14
S'v\xa0\xfd\xe1\x16dM@'
p118
tp119
Rp120
ag10
(g14
S'\x9a\x15\xe7\xf5DU^@'
p121
tp122
Rp123
ag10
(g14
S'.\xb3*M\xcd\x8aF@'
p124
tp125
Rp126
ag10
(g14
S'\xfdk\x1b\x92!\xb3H@'
p127
tp128
Rp129
ag10
(g14
S'M\xc4\x9f\xf6\x0f\x93I@'
p130
tp131
Rp132
ag10
(g14
S'\xfe\xc9\xb6\xd0\xa5\xfdP@'
p133
tp134
Rp135
ag10
(g14
S'~m\xb5 3\xafU@'
p136
tp137
Rp138
asssss.