(dp0
S'../Data/sqlite_83.csv'
p1
(dp2
S'../Data/sqlite_77.csv'
p3
(dp4
F0.25
(dp5
S'mmre'
p6
(dp7
S'bellwether'
p8
(lp9
cnumpy.core.multiarray
scalar
p10
(cnumpy
dtype
p11
(S'f8'
p12
I0
I1
tp13
Rp14
(I3
S'<'
p15
NNNI-1
I-1
I0
tp16
bS'\x03\xb5\x9a\xc5 \x94I@'
p17
tp18
Rp19
ag10
(g14
S'-9%&agI@'
p20
tp21
Rp22
ag10
(g14
S'\xf1Ksg\x8a\x99I@'
p23
tp24
Rp25
ag10
(g14
S"\xb0]\xe30'kI@"
p26
tp27
Rp28
ag10
(g14
S'M\xb0\xbf\xec4\xe4I@'
p29
tp30
Rp31
ag10
(g14
S'\x8f\x9b\x04\xe6\x1aRI@'
p32
tp33
Rp34
ag10
(g14
S'&\x90\xef.\xc3\x02J@'
p35
tp36
Rp37
ag10
(g14
S'$R\x01}%\x89I@'
p38
tp39
Rp40
ag10
(g14
S'\x8b\x93_7p\x8fI@'
p41
tp42
Rp43
ag10
(g14
S'\x03Z\xf4U\x16\x99I@'
p44
tp45
Rp46
ag10
(g14
S'\x97d\xc0\xb7J\xddI@'
p47
tp48
Rp49
ag10
(g14
S'\xb2\xe0\x94\xf2?\xdaI@'
p50
tp51
Rp52
ag10
(g14
S'\\\x91\xc1s\xa6~I@'
p53
tp54
Rp55
ag10
(g14
S'5\x91\xca\x8e!\x8fI@'
p56
tp57
Rp58
ag10
(g14
S'dt\x17bH\xdbI@'
p59
tp60
Rp61
ag10
(g14
S'\xce:\x8e\xdc1\xb3I@'
p62
tp63
Rp64
ag10
(g14
S'\xd9\x8e\xc3|\xd0\xaaI@'
p65
tp66
Rp67
ag10
(g14
S'\xa7\xb9\xab\x1b|\x94I@'
p68
tp69
Rp70
ag10
(g14
S'\xafY}_\x1d\xddI@'
p71
tp72
Rp73
ag10
(g14
S'3*\xd5s\x9f\xe3I@'
p74
tp75
Rp76
asS'target'
p77
(lp78
g10
(g14
S'\x00\xa1\x08\x92\xe5\xf65@'
p79
tp80
Rp81
ag10
(g14
S'\x80H\x18\xea#k7@'
p82
tp83
Rp84
ag10
(g14
S'\xf1J\xafO\xbd\x9b5@'
p85
tp86
Rp87
ag10
(g14
S'\x17<4B\x81\xf95@'
p88
tp89
Rp90
ag10
(g14
S'Rw\xc6\rh$5@'
p91
tp92
Rp93
ag10
(g14
S'-\xe4\x1bb\xa7\xc44@'
p94
tp95
Rp96
ag10
(g14
S'y\xfd\xf9\xd1\x1e\x977@'
p97
tp98
Rp99
ag10
(g14
S'b0`|\x04J6@'
p100
tp101
Rp102
ag10
(g14
S's\xb5p\xa1:\xc05@'
p103
tp104
Rp105
ag10
(g14
S'\xba\x1e\x93\xe3 {7@'
p106
tp107
Rp108
ag10
(g14
S'um1}lG5@'
p109
tp110
Rp111
ag10
(g14
S'\rL}\xecK[5@'
p112
tp113
Rp114
ag10
(g14
S'\xe5}\x08\xfe\xfc\xec6@'
p115
tp116
Rp117
ag10
(g14
S'w\xf72\xe3\xe3\x915@'
p118
tp119
Rp120
ag10
(g14
S'Q\xee,|W\x917@'
p121
tp122
Rp123
ag10
(g14
S'\xef\xe1}\xaf,@5@'
p124
tp125
Rp126
ag10
(g14
S'7\xc0\xde\xc5g\x9c6@'
p127
tp128
Rp129
ag10
(g14
S'\xe7\x0b\xefer\x067@'
p130
tp131
Rp132
ag10
(g14
S'/\xe4h\xdbh@8@'
p133
tp134
Rp135
ag10
(g14
S"u\xa4\x92Y'x5@"
p136
tp137
Rp138
asssss.