(dp0
S'../Data/sqlite_27.csv'
p1
(dp2
S'../Data/sqlite_32.csv'
p3
(dp4
F0.25
(dp5
S'mmre'
p6
(dp7
S'bellwether'
p8
(lp9
cnumpy.core.multiarray
scalar
p10
(cnumpy
dtype
p11
(S'f8'
p12
I0
I1
tp13
Rp14
(I3
S'<'
p15
NNNI-1
I-1
I0
tp16
bS'J\x15<\xf9kmX@'
p17
tp18
Rp19
ag10
(g14
S'3\xa3\xf6\x07TmX@'
p20
tp21
Rp22
ag10
(g14
S'@\xd4\xad+TmX@'
p23
tp24
Rp25
ag10
(g14
S'\x1c\xff\x94jgmX@'
p26
tp27
Rp28
ag10
(g14
S'\x85\xd5_hKmX@'
p29
tp30
Rp31
ag10
(g14
S'\x9c\xe1t\xeacmX@'
p32
tp33
Rp34
ag10
(g14
S'\xf0D\xf1kImX@'
p35
tp36
Rp37
ag10
(g14
S'^m@0jmX@'
p38
tp39
Rp40
ag10
(g14
S'\x95\x93\x12nVmX@'
p41
tp42
Rp43
ag10
(g14
S'\xa3\x7fX"\\mX@'
p44
tp45
Rp46
ag10
(g14
S'H-G!OmX@'
p47
tp48
Rp49
ag10
(g14
S'\xc5^\x9a\xaaRmX@'
p50
tp51
Rp52
ag10
(g14
S'\xcb"n(fmX@'
p53
tp54
Rp55
ag10
(g14
S'\x19\xda\xcb1UmX@'
p56
tp57
Rp58
ag10
(g14
S'#B\xfe\x1fUmX@'
p59
tp60
Rp61
ag10
(g14
S'|\xcc\xf6\x8aYmX@'
p62
tp63
Rp64
ag10
(g14
S'\x98\xc5\xf1\xca\\mX@'
p65
tp66
Rp67
ag10
(g14
S'\xf5-\xca\x90=mX@'
p68
tp69
Rp70
ag10
(g14
S'\x10\x04\r\xe5RmX@'
p71
tp72
Rp73
ag10
(g14
S'\xbe\xf7\xb6-4mX@'
p74
tp75
Rp76
asS'target'
p77
(lp78
g10
(g14
S'H\x96\x89I=)\xec?'
p79
tp80
Rp81
ag10
(g14
S'\x15\xe7T0\x84\xc2\xfc?'
p82
tp83
Rp84
ag10
(g14
S's;^\x16)a\xec?'
p85
tp86
Rp87
ag10
(g14
S'WRCH\x86\xb7\xeb?'
p88
tp89
Rp90
ag10
(g14
S'`F\xd37\x8c\xbb\xf7?'
p91
tp92
Rp93
ag10
(g14
S'\xe9\x89#\x96\x91l\xeb?'
p94
tp95
Rp96
ag10
(g14
S'\xfc\xf3\xda\xf5b\xaf\xf6?'
p97
tp98
Rp99
ag10
(g14
S'*O\xc8\x0eV\xa6\xec?'
p100
tp101
Rp102
ag10
(g14
S'@\xb1K\xf4\x16\x89\xeb?'
p103
tp104
Rp105
ag10
(g14
S'G\x80G\x02\xf1q\xed?'
p106
tp107
Rp108
ag10
(g14
S'\xfa@\xbfP9\xc3\xed?'
p109
tp110
Rp111
ag10
(g14
S'\x91\xca\x14/ox\xec?'
p112
tp113
Rp114
ag10
(g14
S',C6`t\x1a\xec?'
p115
tp116
Rp117
ag10
(g14
S'\x17\x84\xe1\x13\x8e#\xef?'
p118
tp119
Rp120
ag10
(g14
S'"\x7fh\xb1z\xaf\xed?'
p121
tp122
Rp123
ag10
(g14
S'\xf9*\xfcb\x02\xf1\xf4?'
p124
tp125
Rp126
ag10
(g14
S'\xc4B\x11\xca\xeb\x01\xee?'
p127
tp128
Rp129
ag10
(g14
S':bz\xac\xf4\xbb\xf6?'
p130
tp131
Rp132
ag10
(g14
S'W%i\xf3\x84Y\xec?'
p133
tp134
Rp135
ag10
(g14
S'\xa8c\x89\x99\xf4]\xf2?'
p136
tp137
Rp138
asssss.