(dp0
S'../Data/sqlite_31.csv'
p1
(dp2
S'../Data/sqlite_91.csv'
p3
(dp4
F0.4
(dp5
S'mmre'
p6
(dp7
S'bellwether'
p8
(lp9
cnumpy.core.multiarray
scalar
p10
(cnumpy
dtype
p11
(S'f8'
p12
I0
I1
tp13
Rp14
(I3
S'<'
p15
NNNI-1
I-1
I0
tp16
bS'\x80\xd8\\{\xbcFX@'
p17
tp18
Rp19
ag10
(g14
S'9s=n\x878X@'
p20
tp21
Rp22
ag10
(g14
S'\xe4\xb7\xa6\xad\xd08X@'
p23
tp24
Rp25
ag10
(g14
S'\xeff\xd4\xe7\xc60X@'
p26
tp27
Rp28
ag10
(g14
S'\rB\x19mC5X@'
p29
tp30
Rp31
ag10
(g14
S'\x10\xa7\xf3\xfc\n>X@'
p32
tp33
Rp34
ag10
(g14
S't\x1fj\x0f\xa6IX@'
p35
tp36
Rp37
ag10
(g14
S'}L^\x1dv6X@'
p38
tp39
Rp40
ag10
(g14
S'<\\z\x06TFX@'
p41
tp42
Rp43
ag10
(g14
S'.b1\xd7`6X@'
p44
tp45
Rp46
ag10
(g14
S'\xd0yJ\xeb\x127X@'
p47
tp48
Rp49
ag10
(g14
S'\x18H\x94\x9b\x98EX@'
p50
tp51
Rp52
ag10
(g14
S'~\x81\xe1\x13\xbd?X@'
p53
tp54
Rp55
ag10
(g14
S'#F\x9c\xa3\xc3;X@'
p56
tp57
Rp58
ag10
(g14
S'T\xc7\x16*\x1b*X@'
p59
tp60
Rp61
ag10
(g14
S'6lu\xab\xc9AX@'
p62
tp63
Rp64
ag10
(g14
S'\xf8\x83\x00\x1b\x18RX@'
p65
tp66
Rp67
ag10
(g14
S'\x1dL\xf4\xc2\xfb:X@'
p68
tp69
Rp70
ag10
(g14
S'\xa0AMUb4X@'
p71
tp72
Rp73
ag10
(g14
S'\xb74\x0b\xf5\xe9=X@'
p74
tp75
Rp76
asS'target'
p77
(lp78
g10
(g14
S'\xce\xaa\x83\x07\x0b\xbdJ@'
p79
tp80
Rp81
ag10
(g14
S'\xb4\xaa\xaa\t\xbeJN@'
p82
tp83
Rp84
ag10
(g14
S'J!\xb1\x95\xca\xdcN@'
p85
tp86
Rp87
ag10
(g14
S'\x8e \x9fhw\xbdQ@'
p88
tp89
Rp90
ag10
(g14
S'\x07\xd3\xe6@\x9d2Q@'
p91
tp92
Rp93
ag10
(g14
S'\x90iSZ\xb2eP@'
p94
tp95
Rp96
ag10
(g14
S'W\xa1\x8eY\x86\xa4J@'
p97
tp98
Rp99
ag10
(g14
S'\x0fq\x86\xb8\xe8kP@'
p100
tp101
Rp102
ag10
(g14
S'd\xe51Z\x07\xf2J@'
p103
tp104
Rp105
ag10
(g14
S'\x0c+\x17\xfas\x12P@'
p106
tp107
Rp108
ag10
(g14
S'j\x83?V\xe0\x80N@'
p109
tp110
Rp111
ag10
(g14
S'\xa2\xf2$\x04\x8b\x0cL@'
p112
tp113
Rp114
ag10
(g14
S'N\xe63\n{\x82P@'
p115
tp116
Rp117
ag10
(g14
S'/\xbd\x82\xf0\xa8kP@'
p118
tp119
Rp120
ag10
(g14
S'!\xd1\xeb\xf1\x8b`Q@'
p121
tp122
Rp123
ag10
(g14
S'M`\xdf\xf1\xbf:N@'
p124
tp125
Rp126
ag10
(g14
S'\x1c\x8e\x9bQ\xb6\xdbF@'
p127
tp128
Rp129
ag10
(g14
S'p\xf9\xd7\x1fa\xe9O@'
p130
tp131
Rp132
ag10
(g14
S'\xf4kS\xb19\x18P@'
p133
tp134
Rp135
ag10
(g14
S'\xedF\xf4\xc4\n Q@'
p136
tp137
Rp138
asssss.