(dp0
S'../Data/sqlite_18.csv'
p1
(dp2
S'../Data/sqlite_88.csv'
p3
(dp4
F0.2
(dp5
S'abs_res'
p6
(dp7
S'bellwether'
p8
(lp9
cnumpy.core.multiarray
scalar
p10
(cnumpy
dtype
p11
(S'f8'
p12
I0
I1
tp13
Rp14
(I3
S'<'
p15
NNNI-1
I-1
I0
tp16
bS'\xb5\xbb\xbb\x9b\x018\\A'
p17
tp18
Rp19
ag10
(g14
S'\x15\x85\xeb\x81fP\\A'
p20
tp21
Rp22
ag10
(g14
S'\x8b\xfcb\t\xaa:\\A'
p23
tp24
Rp25
ag10
(g14
S'\xa0\rtJLI\\A'
p26
tp27
Rp28
ag10
(g14
S'\x17\xf9\xc5R\x84X\\A'
p29
tp30
Rp31
ag10
(g14
S'\xe5\x8b%\x1fn:\\A'
p32
tp33
Rp34
ag10
(g14
S'\xd4@\xa7\rO\x11\\A'
p35
tp36
Rp37
ag10
(g14
S'8\xd0i39C\\A'
p38
tp39
Rp40
ag10
(g14
S"k\x03\x9d\xe6'\x08\\A"
p41
tp42
Rp43
ag10
(g14
S'\x9a\rt\xdadA\\A'
p44
tp45
Rp46
ag10
(g14
S'~\x88\x88\x08P&\\A'
p47
tp48
Rp49
ag10
(g14
S'\xc6\x06:Mr3\\A'
p50
tp51
Rp52
ag10
(g14
S'T,\xf95?E\\A'
p53
tp54
Rp55
ag10
(g14
S'\xfc\x9c6\x10\xf4-\\A'
p56
tp57
Rp58
ag10
(g14
S'oww\x17\x93?\\A'
p59
tp60
Rp61
ag10
(g14
S'\xfb\x9c6\x00\xc2;\\A'
p62
tp63
Rp64
ag10
(g14
S'\x1e""\xb2A,\\A'
p65
tp66
Rp67
ag10
(g14
S'[\x03\x9d\x96\x87+\\A'
p68
tp69
Rp70
ag10
(g14
S'\xc2i\x03m\xb6K\\A'
p71
tp72
Rp73
ag10
(g14
S'.\xd0i\xb3\xe7[\\A'
p74
tp75
Rp76
asS'target'
p77
(lp78
g10
(g14
S'\xd7\xa3p=\xb8b6A'
p79
tp80
Rp81
ag10
(g14
S'\x92\xc2\xf5(`[6A'
p82
tp83
Rp84
ag10
(g14
S'o=\n\xd7\xea:*A'
p85
tp86
Rp87
ag10
(g14
S'o=\nW\xd8\x810A'
p88
tp89
Rp90
ag10
(g14
S'9\n\xd7\xa3+o3A'
p91
tp92
Rp93
ag10
(g14
S'\xc0\xf5(\xdc!,9A'
p94
tp95
Rp96
ag10
(g14
S'\xa2p=JH\xc73A'
p97
tp98
Rp99
ag10
(g14
S'\xafG\xe1:P\xb75A'
p100
tp101
Rp102
ag10
(g14
S'\x02\x00\x00\x00*\xd1,A'
p103
tp104
Rp105
ag10
(g14
S'\xdfz\x14.\x02S2A'
p106
tp107
Rp108
ag10
(g14
S'\xdbz\x14\xae\x0e\x9c5A'
p109
tp110
Rp111
ag10
(g14
S'\xc6\xf5(\x9c\xcd63A'
p112
tp113
Rp114
ag10
(g14
S'\x12\xaeG!F\x0f3A'
p115
tp116
Rp117
ag10
(g14
S'\x96\x99\x99\x19\xfc\xb5/A'
p118
tp119
Rp120
ag10
(g14
S'\xc3\xf5(\x1c\xc3\x052A'
p121
tp122
Rp123
ag10
(g14
S'\xcb\xcc\xccL\x81\x82,A'
p124
tp125
Rp126
ag10
(g14
S'\x03\x00\x00\x80\x833+A'
p127
tp128
Rp129
ag10
(g14
S'fff\xe6\xc1e.A'
p130
tp131
Rp132
ag10
(g14
S'F\xe1zTk$5A'
p133
tp134
Rp135
ag10
(g14
S'U\xb8\x1eE\xf6}6A'
p136
tp137
Rp138
asssss.