(dp0
S'../Data/sqlite_85.csv'
p1
(dp2
S'../Data/sqlite_22.csv'
p3
(dp4
F0.3
(dp5
S'abs_res'
p6
(dp7
S'bellwether'
p8
(lp9
cnumpy.core.multiarray
scalar
p10
(cnumpy
dtype
p11
(S'f8'
p12
I0
I1
tp13
Rp14
(I3
S'<'
p15
NNNI-1
I-1
I0
tp16
bS'X*\xce&\x14uSA'
p17
tp18
Rp19
ag10
(g14
S'\xfbS\xe3}\x9aPSA'
p20
tp21
Rp22
ag10
(g14
S"'\x06\x81\x8d\xee#SA"
p23
tp24
Rp25
ag10
(g14
S'\xe2\x89\xfaW\x89!SA'
p26
tp27
Rp28
ag10
(g14
S'\xfd\x9a\x0b\xe1)XSA'
p29
tp30
Rp31
ag10
(g14
S"A\x98'\xe2\xdccSA"
p32
tp33
Rp34
ag10
(g14
S'\x17g\x1fN_8SA'
p35
tp36
Rp37
ag10
(g14
S'\xfe\xe13\xbcIpSA'
p38
tp39
Rp40
ag10
(g14
S'\x83\xebQP\xe76SA'
p41
tp42
Rp43
ag10
(g14
S'm\xcbZ\xadlRSA'
p44
tp45
Rp46
ag10
(g14
S'uY\xab\x13\xf0ASA'
p47
tp48
Rp49
ag10
(g14
S'\xc0\xbb\xbb\xeb\xb7+SA'
p50
tp51
Rp52
ag10
(g14
S'x\xbe\x9f\xf2w\x90SA'
p53
tp54
Rp55
ag10
(g14
S'\xcaZ\x1d\x9b<\x89SA'
p56
tp57
Rp58
ag10
(g14
S'\x98\xfcbyu@SA'
p59
tp60
Rp61
ag10
(g14
S'\x84\xf8\x0c{\xce3SA'
p62
tp63
Rp64
ag10
(g14
S'\xfeS\xe3\x85J^SA'
p65
tp66
Rp67
ag10
(g14
S'\xe2O\x8dG}%SA'
p68
tp69
Rp70
ag10
(g14
S'\xba\xf3\xfdtUVSA'
p71
tp72
Rp73
ag10
(g14
S'/\x87\x161\xfcRSA'
p74
tp75
Rp76
asS'target'
p77
(lp78
g10
(g14
S'`\x10X9\xb4lS@'
p79
tp80
Rp81
ag10
(g14
S'3\xb4\xc8v\xbe7T@'
p82
tp83
Rp84
ag10
(g14
S'\xe7\xa5\x9b\xc4 \x18T@'
p85
tp86
Rp87
ag10
(g14
S'hffff\nS@'
p88
tp89
Rp90
ag10
(g14
S'\x95\x18\x04V\x0e\x01U@'
p91
tp92
Rp93
ag10
(g14
S'\xf8S\xe3\xa5\x9b\x00V@'
p94
tp95
Rp96
ag10
(g14
S'=\xb4\xc8v\xbeGT@'
p97
tp98
Rp99
ag10
(g14
S'\x82\x95C\x8bl\xfbT@'
p100
tp101
Rp102
ag10
(g14
S'\xb2rh\x91\xed\xd4T@'
p103
tp104
Rp105
ag10
(g14
S'c\xbaI\x0c\x02[S@'
p106
tp107
Rp108
ag10
(g14
S'\xb9\xc8v\xbe\x9f\x16U@'
p109
tp110
Rp111
ag10
(g14
S'\x94\xed|?5FV@'
p112
tp113
Rp114
ag10
(g14
S'\x05\x02+\x87\x16\xd1S@'
p115
tp116
Rp117
ag10
(g14
S'\x04V\x0e-\xb2\xb1U@'
p118
tp119
Rp120
ag10
(g14
S'z\xe9&1\x08|V@'
p121
tp122
Rp123
ag10
(g14
S'\xd0\xa3p=\n\xa7S@'
p124
tp125
Rp126
ag10
(g14
S'\xe1\xd0"\xdb\xf9\x1aU@'
p127
tp128
Rp129
ag10
(g14
S'\xd4x\xe9&1hT@'
p130
tp131
Rp132
ag10
(g14
S'6\xdfO\x8d\x97\nS@'
p133
tp134
Rp135
ag10
(g14
S'\x1c/\xdd$\x06\xc1R@'
p136
tp137
Rp138
asssss.