(dp0
S'../Data/sqlite_38.csv'
p1
(dp2
S'../Data/sqlite_77.csv'
p3
(dp4
F0.3
(dp5
S'mmre'
p6
(dp7
S'bellwether'
p8
(lp9
cnumpy.core.multiarray
scalar
p10
(cnumpy
dtype
p11
(S'f8'
p12
I0
I1
tp13
Rp14
(I3
S'<'
p15
NNNI-1
I-1
I0
tp16
bS'\x92l5+3ms@'
p17
tp18
Rp19
ag10
(g14
S'\xa9\xfd\xbd\x0e]\x80s@'
p20
tp21
Rp22
ag10
(g14
S's\xc2VD\x93us@'
p23
tp24
Rp25
ag10
(g14
S'\x89i\xc1\xdd3qs@'
p26
tp27
Rp28
ag10
(g14
S'7\xd8\xee\xeb\x0b\x96s@'
p29
tp30
Rp31
ag10
(g14
S'P\xe1\xd4\x89\xc2\x84s@'
p32
tp33
Rp34
ag10
(g14
S'\x8e\xdd\tq\xa9\x97s@'
p35
tp36
Rp37
ag10
(g14
S'G\xbe\xa7\x00\x9cis@'
p38
tp39
Rp40
ag10
(g14
S'\xe2\xb6K\xa8\x10~s@'
p41
tp42
Rp43
ag10
(g14
S'\xae\x1d\x91\xf1\xe8\xb4s@'
p44
tp45
Rp46
ag10
(g14
S'\xe1Y\xd8\xa4~[s@'
p47
tp48
Rp49
ag10
(g14
S')\xd2pB\x13\x9cs@'
p50
tp51
Rp52
ag10
(g14
S'\x84d\xca\xe0\xaaIs@'
p53
tp54
Rp55
ag10
(g14
S'%*Q\x05\xc7ps@'
p56
tp57
Rp58
ag10
(g14
S'\xb4\x84\x04\nSzs@'
p59
tp60
Rp61
ag10
(g14
S'\x05\xb0\xca\x88\xd3\x9bs@'
p62
tp63
Rp64
ag10
(g14
S'E\n\x12\xc3\xeals@'
p65
tp66
Rp67
ag10
(g14
S';\xd7%\x8f(es@'
p68
tp69
Rp70
ag10
(g14
S'\xe9\x11kHuns@'
p71
tp72
Rp73
ag10
(g14
S'\x98\x8fM>\xc4Zs@'
p74
tp75
Rp76
asS'target'
p77
(lp78
g10
(g14
S'\xf7:\xe3\xe2\t\xe74@'
p79
tp80
Rp81
ag10
(g14
S'\xe7\xe5\x8cSZ\xd96@'
p82
tp83
Rp84
ag10
(g14
S'S\xdcsV0\\5@'
p85
tp86
Rp87
ag10
(g14
S'\xda\x9aw:\xce)4@'
p88
tp89
Rp90
ag10
(g14
S'P\xf6YG\x88\x1a5@'
p91
tp92
Rp93
ag10
(g14
S'v\t\xd9\xf4uC5@'
p94
tp95
Rp96
ag10
(g14
S'\xb0^\xc2\xb1\xc1\xd46@'
p97
tp98
Rp99
ag10
(g14
S'y[ocY76@'
p100
tp101
Rp102
ag10
(g14
S'\xe7\x86qnM\x916@'
p103
tp104
Rp105
ag10
(g14
S'-\xcf\xa2^[=6@'
p106
tp107
Rp108
ag10
(g14
S"\xc7#'\t)#6@"
p109
tp110
Rp111
ag10
(g14
S"\xd2'P\xc51\xed5@"
p112
tp113
Rp114
ag10
(g14
S'\xa9\xc1\xa2P\xcf\xbd5@'
p115
tp116
Rp117
ag10
(g14
S'\xe3z\x0f\x15%47@'
p118
tp119
Rp120
ag10
(g14
S'\xf2\xe2w\x87\xa6\xcd5@'
p121
tp122
Rp123
ag10
(g14
S'\xe4\x8aXs\xb1\x8e6@'
p124
tp125
Rp126
ag10
(g14
S'|\xa0\x8c\x84-\x905@'
p127
tp128
Rp129
ag10
(g14
S'0:\xa4LA35@'
p130
tp131
Rp132
ag10
(g14
S'\xf6\x88\xf3\x8dQ\xa06@'
p133
tp134
Rp135
ag10
(g14
S'\xfe\x04O\x08\xcf}5@'
p136
tp137
Rp138
asssss.