(dp0
S'../Data/sqlite_17.csv'
p1
(dp2
S'../Data/sqlite_96.csv'
p3
(dp4
F0.4
(dp5
S'mmre'
p6
(dp7
S'bellwether'
p8
(lp9
cnumpy.core.multiarray
scalar
p10
(cnumpy
dtype
p11
(S'f8'
p12
I0
I1
tp13
Rp14
(I3
S'<'
p15
NNNI-1
I-1
I0
tp16
bS'\xec\xd4c\x16VRR@'
p17
tp18
Rp19
ag10
(g14
S'h@\xf6\x13\xf2CR@'
p20
tp21
Rp22
ag10
(g14
S'\xf3\xb7+\x8e\xc54R@'
p23
tp24
Rp25
ag10
(g14
S'Q\x7f$\xe9S\\R@'
p26
tp27
Rp28
ag10
(g14
S'\xe8\x05#\x04P<R@'
p29
tp30
Rp31
ag10
(g14
S'\xed\xda\xfed\xe5UR@'
p32
tp33
Rp34
ag10
(g14
S'\x98;\xaa\x94\xd0;R@'
p35
tp36
Rp37
ag10
(g14
S'j\x8b\xaa\xe0\xeeUR@'
p38
tp39
Rp40
ag10
(g14
S'\xda\x1a\x0c\xc4)MR@'
p41
tp42
Rp43
ag10
(g14
S'\x01\xb4\xb0\xf4 XR@'
p44
tp45
Rp46
ag10
(g14
S'\x15\x00c\xcf\xa8\\R@'
p47
tp48
Rp49
ag10
(g14
S'\xb2\xfd`>\xbfdR@'
p50
tp51
Rp52
ag10
(g14
S'\xe0f\ro\xfdHR@'
p53
tp54
Rp55
ag10
(g14
S'\x8e&%!\x89iR@'
p56
tp57
Rp58
ag10
(g14
S'<\x80\x9ef\xa0KR@'
p59
tp60
Rp61
ag10
(g14
S'\xc4\t\x9d\x1c\xd7NR@'
p62
tp63
Rp64
ag10
(g14
S'\x97G)\x1c1gR@'
p65
tp66
Rp67
ag10
(g14
S'l\xa5\xcd>\xfeSR@'
p68
tp69
Rp70
ag10
(g14
S'\xe3yV\x82\xacER@'
p71
tp72
Rp73
ag10
(g14
S'I#l#\xbcNR@'
p74
tp75
Rp76
asS'target'
p77
(lp78
g10
(g14
S'\xf2\xc1\xda\x82\x1b\x84S@'
p79
tp80
Rp81
ag10
(g14
S'c\x1d\xc2x|\xd3P@'
p82
tp83
Rp84
ag10
(g14
S'9N(\xc8\x14\x17Y@'
p85
tp86
Rp87
ag10
(g14
S'\xd4\x01_\xa3\x0fjP@'
p88
tp89
Rp90
ag10
(g14
S'\x97\x8fC=4\x87X@'
p91
tp92
Rp93
ag10
(g14
S' W\xc4\xb129R@'
p94
tp95
Rp96
ag10
(g14
S'\xc0LHQt\x08T@'
p97
tp98
Rp99
ag10
(g14
S'\xfd\x05\x7fM\xf7RO@'
p100
tp101
Rp102
ag10
(g14
S'\xa0\x0c\x1f|\xb4\xb8S@'
p103
tp104
Rp105
ag10
(g14
S'\xf9\xe32p_;[@'
p106
tp107
Rp108
ag10
(g14
S'\x8b\xee\xe9\xa4UFP@'
p109
tp110
Rp111
ag10
(g14
S'\x89\x9b\x0e6\x0c)P@'
p112
tp113
Rp114
ag10
(g14
S'\xb2\xb9=\xc5\xe8!P@'
p115
tp116
Rp117
ag10
(g14
S'[!Y\x84A\xaeP@'
p118
tp119
Rp120
ag10
(g14
S'\x10~\xd7R\xb5\x8aS@'
p121
tp122
Rp123
ag10
(g14
S's\xd8\xf6x?zL@'
p124
tp125
Rp126
ag10
(g14
S'\xa7\x88l\x13\xd4=P@'
p127
tp128
Rp129
ag10
(g14
S'\xa9y\xad\xa2\x1a\x9fS@'
p130
tp131
Rp132
ag10
(g14
S'\xc3a\xd20A\x03O@'
p133
tp134
Rp135
ag10
(g14
S'Q}C\x83@\x0e`@'
p136
tp137
Rp138
asssss.