(dp0
S'../Data/sqlite_35.csv'
p1
(dp2
S'../Data/sqlite_59.csv'
p3
(dp4
F0.05
(dp5
S'mmre'
p6
(dp7
S'bellwether'
p8
(lp9
cnumpy.core.multiarray
scalar
p10
(cnumpy
dtype
p11
(S'f8'
p12
I0
I1
tp13
Rp14
(I3
S'<'
p15
NNNI-1
I-1
I0
tp16
bS'n=\xdaJsZG@'
p17
tp18
Rp19
ag10
(g14
S'\x93&G\xf3\nZG@'
p20
tp21
Rp22
ag10
(g14
S'YKc\x1d\xb4_G@'
p23
tp24
Rp25
ag10
(g14
S'\x12\x8d1\xe8r[G@'
p26
tp27
Rp28
ag10
(g14
S'\xc5\xf8\xa2\x1b2_G@'
p29
tp30
Rp31
ag10
(g14
S'\x89\xb0B5?_G@'
p32
tp33
Rp34
ag10
(g14
S'\xfeL\xcc\xd8\xb5YG@'
p35
tp36
Rp37
ag10
(g14
S'~\x82\xe7\xbb\xd5bG@'
p38
tp39
Rp40
ag10
(g14
S'o(j\x8c\x93lG@'
p41
tp42
Rp43
ag10
(g14
S'\r\x04\n\xd1r^G@'
p44
tp45
Rp46
ag10
(g14
S'v\xff\\R\xaa^G@'
p47
tp48
Rp49
ag10
(g14
S'\xab\x89|\x8cEZG@'
p50
tp51
Rp52
ag10
(g14
S'Y\xd9\x19N\xce\\G@'
p53
tp54
Rp55
ag10
(g14
S'L\xfc\x8d\xcb3SG@'
p56
tp57
Rp58
ag10
(g14
S'\xfeA\x00\xb8\x92LG@'
p59
tp60
Rp61
ag10
(g14
S'Kst\x0c\xab\\G@'
p62
tp63
Rp64
ag10
(g14
S'|\xa7\x1b\xe2\xd7\\G@'
p65
tp66
Rp67
ag10
(g14
S'r\x02\xfd\xf2\x84]G@'
p68
tp69
Rp70
ag10
(g14
S'B\x1d\xcfD\xe4XG@'
p71
tp72
Rp73
ag10
(g14
S'\xc41\xbfu\x06]G@'
p74
tp75
Rp76
asS'target'
p77
(lp78
g10
(g14
S'jb~1\xc3\xf3)@'
p79
tp80
Rp81
ag10
(g14
S'\xf2\xdd\x18\x9c\xfd1(@'
p82
tp83
Rp84
ag10
(g14
S'\xeb\x93\xccI\xdd\xaa#@'
p85
tp86
Rp87
ag10
(g14
S'PK-\xc9\xd3\x99$@'
p88
tp89
Rp90
ag10
(g14
S'&d\x9a\xacrD$@'
p91
tp92
Rp93
ag10
(g14
S'[\xac(K^\x18)@'
p94
tp95
Rp96
ag10
(g14
S"\x82W\xc6Y\x08\x19'@"
p97
tp98
Rp99
ag10
(g14
S'\xb1k\x9d\xc2\x9f)$@'
p100
tp101
Rp102
ag10
(g14
S'\xb7\xb8 \xa2\xe9`"@'
p103
tp104
Rp105
ag10
(g14
S'\xd7q\xcd\xe1\xb9\xd1#@'
p106
tp107
Rp108
ag10
(g14
S'\xe3\xe35>\x0b\x04%@'
p109
tp110
Rp111
ag10
(g14
S'\x1cz?\xa2\x0c\xd6%@'
p112
tp113
Rp114
ag10
(g14
S'\xe5\x89 \x9bV\xf4&@'
p115
tp116
Rp117
ag10
(g14
S'j\xfb\x9b6B\xfc)@'
p118
tp119
Rp120
ag10
(g14
S'\x91s\x03"\xc9\xda(@'
p121
tp122
Rp123
ag10
(g14
S"\rb\xb5YR\x14'@"
p124
tp125
Rp126
ag10
(g14
S'1\xadRMI1#@'
p127
tp128
Rp129
ag10
(g14
S"\x1af\xc1\x02`\xc4'@"
p130
tp131
Rp132
ag10
(g14
S'h\xa1\x92V\x9d;%@'
p133
tp134
Rp135
ag10
(g14
S'\x0e\x04\x8e\xa0f\x8e%@'
p136
tp137
Rp138
asssss.