(dp0
S'../Data/sqlite_16.csv'
p1
(dp2
S'../Data/sqlite_62.csv'
p3
(dp4
F0.25
(dp5
S'mmre'
p6
(dp7
S'bellwether'
p8
(lp9
cnumpy.core.multiarray
scalar
p10
(cnumpy
dtype
p11
(S'f8'
p12
I0
I1
tp13
Rp14
(I3
S'<'
p15
NNNI-1
I-1
I0
tp16
bS'\xd3\x81{p\xbe6V@'
p17
tp18
Rp19
ag10
(g14
S'\x02]\x86\xc4C7V@'
p20
tp21
Rp22
ag10
(g14
S'S7V\xa5\x1c8V@'
p23
tp24
Rp25
ag10
(g14
S'i\x02\n\xdcg7V@'
p26
tp27
Rp28
ag10
(g14
S'1\xdd\xff\x1dX7V@'
p29
tp30
Rp31
ag10
(g14
S'\xf4\xe7K\xfd\x0f7V@'
p32
tp33
Rp34
ag10
(g14
S'/\x1b\xdb\xfc\x9e6V@'
p35
tp36
Rp37
ag10
(g14
S'\x82\x9e\xd3\xcf48V@'
p38
tp39
Rp40
ag10
(g14
S'\xbb\xd3\xfb\x19\x8e7V@'
p41
tp42
Rp43
ag10
(g14
S'\xef>f\xe6\x9c6V@'
p44
tp45
Rp46
ag10
(g14
S'D\xb6\xc6\xa3O8V@'
p47
tp48
Rp49
ag10
(g14
S't\xe9\xe8F\xd19V@'
p50
tp51
Rp52
ag10
(g14
S'\xae$\xa8\xce\xf56V@'
p53
tp54
Rp55
ag10
(g14
S'\xd5m}\x83\x938V@'
p56
tp57
Rp58
ag10
(g14
S'\x8b \xe8\x08d7V@'
p59
tp60
Rp61
ag10
(g14
S'\x02\x9caH\x847V@'
p62
tp63
Rp64
ag10
(g14
S'/Y)\xf5\x8b5V@'
p65
tp66
Rp67
ag10
(g14
S'MH\xbf.\\7V@'
p68
tp69
Rp70
ag10
(g14
S'\xbbB\xc0SA7V@'
p71
tp72
Rp73
ag10
(g14
S'-Fq\x0e\xfb8V@'
p74
tp75
Rp76
asS'target'
p77
(lp78
g10
(g14
S'\x847jma\xe4"@'
p79
tp80
Rp81
ag10
(g14
S'\x91\x10\x14\xea{m"@'
p82
tp83
Rp84
ag10
(g14
S'\xe4kI\xfa\xaf5"@'
p85
tp86
Rp87
ag10
(g14
S'\x8aTK\x04\xbem @'
p88
tp89
Rp90
ag10
(g14
S'g0\xb4A\x07\xf8 @'
p91
tp92
Rp93
ag10
(g14
S')o6\xa0\xb7\x13"@'
p94
tp95
Rp96
ag10
(g14
S'\xb1\x9d\xd9\x15]X!@'
p97
tp98
Rp99
ag10
(g14
S'\x82\x10$3D\xf4!@'
p100
tp101
Rp102
ag10
(g14
S'\x9e\xd0\x84<\xbbA!@'
p103
tp104
Rp105
ag10
(g14
S'\xc5u*(\r\x13!@'
p106
tp107
Rp108
ag10
(g14
S'\xf5\xb7\x97\xb4\xfd=!@'
p109
tp110
Rp111
ag10
(g14
S'\xbb\xc6g\xb1\x08\x91!@'
p112
tp113
Rp114
ag10
(g14
S'\xde\xa4\xc3\xa1\x08O"@'
p115
tp116
Rp117
ag10
(g14
S'\x1f\xe2J\xdb\x01\x8c!@'
p118
tp119
Rp120
ag10
(g14
S'O\xd0\x9f\xed\x8fV!@'
p121
tp122
Rp123
ag10
(g14
S'\x1c\xfd\xb3\x93@|!@'
p124
tp125
Rp126
ag10
(g14
S'\x15\x0c\xed\x8f \xa5!@'
p127
tp128
Rp129
ag10
(g14
S"\xd8'\xa2v\xa4\xc1!@"
p130
tp131
Rp132
ag10
(g14
S'1h)\x06\x8a\xa7!@'
p133
tp134
Rp135
ag10
(g14
S'<\xb0\x1b9dm @'
p136
tp137
Rp138
asssss.