(dp0
S'../Data/sqlite_49.csv'
p1
(dp2
S'../Data/sqlite_67.csv'
p3
(dp4
F0.1
(dp5
S'mmre'
p6
(dp7
S'bellwether'
p8
(lp9
cnumpy.core.multiarray
scalar
p10
(cnumpy
dtype
p11
(S'f8'
p12
I0
I1
tp13
Rp14
(I3
S'<'
p15
NNNI-1
I-1
I0
tp16
bS'VJQRcOX@'
p17
tp18
Rp19
ag10
(g14
S'W\xc1:\xe1ROX@'
p20
tp21
Rp22
ag10
(g14
S'sX\\\x02UOX@'
p23
tp24
Rp25
ag10
(g14
S'\x92\x7f,PeOX@'
p26
tp27
Rp28
ag10
(g14
S'\xc4CT=HOX@'
p29
tp30
Rp31
ag10
(g14
S'\r4b\xceZOX@'
p32
tp33
Rp34
ag10
(g14
S'\xf9\xff\x11\xdeYOX@'
p35
tp36
Rp37
ag10
(g14
S'\x1c\xcc\x92\xa4HOX@'
p38
tp39
Rp40
ag10
(g14
S'"\xad\x12\x8fYOX@'
p41
tp42
Rp43
ag10
(g14
S'\x0f8\xc0.ROX@'
p44
tp45
Rp46
ag10
(g14
S'\x82+I7ZOX@'
p47
tp48
Rp49
ag10
(g14
S'\xdc!\x06\xcfUOX@'
p50
tp51
Rp52
ag10
(g14
S'\x06\x12\xcb\xdfEOX@'
p53
tp54
Rp55
ag10
(g14
S'x\xef\xb7\xb7TOX@'
p56
tp57
Rp58
ag10
(g14
S'\x0c\rc\xacYOX@'
p59
tp60
Rp61
ag10
(g14
S'\xf5\x9b\xd3\xebPOX@'
p62
tp63
Rp64
ag10
(g14
S'\x8eZ\x1cteOX@'
p65
tp66
Rp67
ag10
(g14
S'\x98\xb3Pc^OX@'
p68
tp69
Rp70
ag10
(g14
S'\xbe^CUVOX@'
p71
tp72
Rp73
ag10
(g14
S'-\xf9\x1c\x15ROX@'
p74
tp75
Rp76
asS'target'
p77
(lp78
g10
(g14
S'\x83V\xc7$\x1c\x1d\xf1?'
p79
tp80
Rp81
ag10
(g14
S'\x1c\x94\xfc9C\xfb\xeb?'
p82
tp83
Rp84
ag10
(g14
S'\xfd\x90\x1e\x93IC\xea?'
p85
tp86
Rp87
ag10
(g14
S'\xe0c\xc9SC\x15\xed?'
p88
tp89
Rp90
ag10
(g14
S'\x02&\xe5l^\xed\xec?'
p91
tp92
Rp93
ag10
(g14
S'u_>+H\x0e\xeb?'
p94
tp95
Rp96
ag10
(g14
S'x\xdc\xfd\xa2\x18b\xe9?'
p97
tp98
Rp99
ag10
(g14
S'\x18\x02\x125\xdfC\xeb?'
p100
tp101
Rp102
ag10
(g14
S'\xf8d\xc9\xaeWB\xeb?'
p103
tp104
Rp105
ag10
(g14
S'BT0\xe5;\xa7\xeb?'
p106
tp107
Rp108
ag10
(g14
S'yCa\x92\x82\x94\xeb?'
p109
tp110
Rp111
ag10
(g14
S'\xae_\xbc7i\xc8\xe9?'
p112
tp113
Rp114
ag10
(g14
S'M\x86A\xcf\xe3_\xe8?'
p115
tp116
Rp117
ag10
(g14
S'\xbc\x0e\x0c@A\xb0\xeb?'
p118
tp119
Rp120
ag10
(g14
S'W\x01\xbb\xb4\x96\x02\xeb?'
p121
tp122
Rp123
ag10
(g14
S'JwE\x15\xb1\xd5\xec?'
p124
tp125
Rp126
ag10
(g14
S'\x0c\xbcgv\x99\xc6\xea?'
p127
tp128
Rp129
ag10
(g14
S'\xc7\x83\xb9.\xeaJ\xea?'
p130
tp131
Rp132
ag10
(g14
S'\xbbA]t@g\xe9?'
p133
tp134
Rp135
ag10
(g14
S'\xfd}\xd3\xf3x\xd7\xea?'
p136
tp137
Rp138
asssss.