(dp0
S'../Data/sqlite_12.csv'
p1
(dp2
S'../Data/sqlite_87.csv'
p3
(dp4
F0.05
(dp5
S'mmre'
p6
(dp7
S'bellwether'
p8
(lp9
cnumpy.core.multiarray
scalar
p10
(cnumpy
dtype
p11
(S'f8'
p12
I0
I1
tp13
Rp14
(I3
S'<'
p15
NNNI-1
I-1
I0
tp16
bS'\xe9\x1a\xa1k\xff>_@'
p17
tp18
Rp19
ag10
(g14
S'o}\xf5\xc7\xb5\x1d_@'
p20
tp21
Rp22
ag10
(g14
S'Lc\x86i\xb9\x07_@'
p23
tp24
Rp25
ag10
(g14
S's\xae\xc7\xd2?\xff^@'
p26
tp27
Rp28
ag10
(g14
S'Q2\xc1\x13%\x1a_@'
p29
tp30
Rp31
ag10
(g14
S'\x05XEFLL_@'
p32
tp33
Rp34
ag10
(g14
S'\x17\xbd3cZ-_@'
p35
tp36
Rp37
ag10
(g14
S'\x88\xa0\x89FCY_@'
p38
tp39
Rp40
ag10
(g14
S'o\xa6\x8d/DR_@'
p41
tp42
Rp43
ag10
(g14
S'\xb79\x9b\xf2\x82?_@'
p44
tp45
Rp46
ag10
(g14
S'2/e:``_@'
p47
tp48
Rp49
ag10
(g14
S'\x0c\xa3\xefN\xad%_@'
p50
tp51
Rp52
ag10
(g14
S'[\xdb#\x066/_@'
p53
tp54
Rp55
ag10
(g14
S'\xb9\x12L5\x1aV_@'
p56
tp57
Rp58
ag10
(g14
S'b>P\x00\xbb"_@'
p59
tp60
Rp61
ag10
(g14
S'J\x12\xf9H\xc3\x1e_@'
p62
tp63
Rp64
ag10
(g14
S'\xceZF\x9b\xfck_@'
p65
tp66
Rp67
ag10
(g14
S'\x08\x99Y\xb4M{_@'
p68
tp69
Rp70
ag10
(g14
S'e\xa0\x95"\xba:_@'
p71
tp72
Rp73
ag10
(g14
S'\xab\n\xb8 $2_@'
p74
tp75
Rp76
asS'target'
p77
(lp78
g10
(g14
S'WITP\xd9\x19K@'
p79
tp80
Rp81
ag10
(g14
S'\xe9)\x17\xf6\xbdeK@'
p82
tp83
Rp84
ag10
(g14
S'\xd5\x03\xfb\x94\xce`W@'
p85
tp86
Rp87
ag10
(g14
S'\x0c\x88\xac1\xb4oO@'
p88
tp89
Rp90
ag10
(g14
S'\xf9\ru\x13\x15\xe5L@'
p91
tp92
Rp93
ag10
(g14
S'\xba\xf3\x8eoMfX@'
p94
tp95
Rp96
ag10
(g14
S'\xabV\xbd\xe4G\xb3?@'
p97
tp98
Rp99
ag10
(g14
S"\xca\x04'\xda,\xddC@"
p100
tp101
Rp102
ag10
(g14
S'\xb1 A\xe0XGM@'
p103
tp104
Rp105
ag10
(g14
S'\\\xabV\xbc\x1f\x16O@'
p106
tp107
Rp108
ag10
(g14
S'\xcf\x16\x84\xa5\x02\x03W@'
p109
tp110
Rp111
ag10
(g14
S'\xf7\xb4s\xf1\xfbsH@'
p112
tp113
Rp114
ag10
(g14
S'^\xbbk\x18s\xcaU@'
p115
tp116
Rp117
ag10
(g14
S'M\x88\x8c\xcb\xe3\xe1D@'
p118
tp119
Rp120
ag10
(g14
S'9\x16\x00\x8f\xbbME@'
p121
tp122
Rp123
ag10
(g14
S'\x17t5I\xdd\xb7E@'
p124
tp125
Rp126
ag10
(g14
S'\xe2\xael\xebv\x0cR@'
p127
tp128
Rp129
ag10
(g14
S'3\xf7\xfam \xc9Z@'
p130
tp131
Rp132
ag10
(g14
S'\xfd%J\xac\xb6\x0fO@'
p133
tp134
Rp135
ag10
(g14
S'\x93\x9fb\x15\x1d\x9fS@'
p136
tp137
Rp138
asssss.