(dp0
S'../Data/sqlite_71.csv'
p1
(dp2
S'../Data/sqlite_31.csv'
p3
(dp4
F0.05
(dp5
S'abs_res'
p6
(dp7
S'bellwether'
p8
(lp9
cnumpy.core.multiarray
scalar
p10
(cnumpy
dtype
p11
(S'f8'
p12
I0
I1
tp13
Rp14
(I3
S'<'
p15
NNNI-1
I-1
I0
tp16
bS'\x17\xaeG#\xa9>pA'
p17
tp18
Rp19
ag10
(g14
S'a\xe5\xd0\xaa\x9a?pA'
p20
tp21
Rp22
ag10
(g14
S'iffp\x8e<pA'
p23
tp24
Rp25
ag10
(g14
S'\x86\xebQr\xf3>pA'
p26
tp27
Rp28
ag10
(g14
S'\xad\x8e\t\x88u=pA'
p29
tp30
Rp31
ag10
(g14
S'\x13\x83\xc0\xd6\xdf?pA'
p32
tp33
Rp34
ag10
(g14
S'\xf6D\xfd\xcd/ApA'
p35
tp36
Rp37
ag10
(g14
S'Ob\x10\xe6gApA'
p38
tp39
Rp40
ag10
(g14
S'\x01\xaa\xf1T\xa3;pA'
p41
tp42
Rp43
ag10
(g14
S'\x93\xed|\xc9\xc6?pA'
p44
tp45
Rp46
ag10
(g14
S'\xc2\x9f\x1ai\xc5?pA'
p47
tp48
Rp49
ag10
(g14
S'0\xdd$\x0e\xc5=pA'
p50
tp51
Rp52
ag10
(g14
S'\xd0>||T?pA'
p53
tp54
Rp55
ag10
(g14
S'\x8e\t\x1e\\\x98;pA'
p56
tp57
Rp58
ag10
(g14
S'\x05\x81\x95\x81\xa8?pA'
p59
tp60
Rp61
ag10
(g14
S'@|\x86\x83\x85=pA'
p62
tp63
Rp64
ag10
(g14
S'\xfe\xa9\xf1&\xbf>pA'
p65
tp66
Rp67
ag10
(g14
S'Y9\xb4\x1a\x95ApA'
p68
tp69
Rp70
ag10
(g14
S'\xd4\xf7S\xfdK=pA'
p71
tp72
Rp73
ag10
(g14
S'*\xf9\xc5\xecZ>pA'
p74
tp75
Rp76
asS'target'
p77
(lp78
g10
(g14
S'x\xbe\x9f\x1a/Ii@'
p79
tp80
Rp81
ag10
(g14
S'y\xe9&1\x08\xe0g@'
p82
tp83
Rp84
ag10
(g14
S'\x8d\x18\x04V\x0e\x19i@'
p85
tp86
Rp87
ag10
(g14
S'N\x8d\x97n\x12\xafj@'
p88
tp89
Rp90
ag10
(g14
S'\xf1\xd2Mb\x10\x90f@'
p91
tp92
Rp93
ag10
(g14
S'l=\n\xd7\xa3\x10n@'
p94
tp95
Rp96
ag10
(g14
S'\x08X9\xb4\xc8\x12j@'
p97
tp98
Rp99
ag10
(g14
S'\xdc\xa5\x9b\xc4 \xf0f@'
p100
tp101
Rp102
ag10
(g14
S' /\xdd$\x06\x15m@'
p103
tp104
Rp105
ag10
(g14
S'\x11V\x0e-\xb2Ui@'
p106
tp107
Rp108
ag10
(g14
S's=\n\xd7\xa3\xb8c@'
p109
tp110
Rp111
ag10
(g14
S'\x8a\xebQ\xb8\x1eIf@'
p112
tp113
Rp114
ag10
(g14
S'\xc6v\xbe\x9f\x1awi@'
p115
tp116
Rp117
ag10
(g14
S'\xa6G\xe1z\x14\xe6i@'
p118
tp119
Rp120
ag10
(g14
S'\x1c\xd9\xce\xf7S?g@'
p121
tp122
Rp123
ag10
(g14
S'\xab\x1a/\xdd$Rn@'
p124
tp125
Rp126
ag10
(g14
S'\xd0Mb\x10X]h@'
p127
tp128
Rp129
ag10
(g14
S'\xe0$\x06\x81\x95\x83h@'
p130
tp131
Rp132
ag10
(g14
S'G9\xb4\xc8v.j@'
p133
tp134
Rp135
ag10
(g14
S'<\n\xd7\xa3p!h@'
p136
tp137
Rp138
asssss.