(dp0
S'../Data/sqlite_42.csv'
p1
(dp2
S'../Data/sqlite_91.csv'
p3
(dp4
F0.1
(dp5
S'mmre'
p6
(dp7
S'bellwether'
p8
(lp9
cnumpy.core.multiarray
scalar
p10
(cnumpy
dtype
p11
(S'f8'
p12
I0
I1
tp13
Rp14
(I3
S'<'
p15
NNNI-1
I-1
I0
tp16
bS';\x86a\t\x9crX@'
p17
tp18
Rp19
ag10
(g14
S'\xdcH\xcd\x06\xc1qX@'
p20
tp21
Rp22
ag10
(g14
S'W\xaa,\x81\x0bvX@'
p23
tp24
Rp25
ag10
(g14
S'\x9fj\x10\x06\xcasX@'
p26
tp27
Rp28
ag10
(g14
S'g\x1fo\xf3.wX@'
p29
tp30
Rp31
ag10
(g14
S'\xae\xa3&B\xe7qX@'
p32
tp33
Rp34
ag10
(g14
S'k\x1eDY\xfdnX@'
p35
tp36
Rp37
ag10
(g14
S'\xf9\x8fs\xde_yX@'
p38
tp39
Rp40
ag10
(g14
S'\xe2\xd5\x15\x81\x16tX@'
p41
tp42
Rp43
ag10
(g14
S'\\?\x89\x85\xf1qX@'
p44
tp45
Rp46
ag10
(g14
S':\x9ba\x0f\xa9nX@'
p47
tp48
Rp49
ag10
(g14
S'5\x05\xd6\xd8\xabrX@'
p50
tp51
Rp52
ag10
(g14
S'\xe9\xef\xad\xf3\xe5wX@'
p53
tp54
Rp55
ag10
(g14
S'\x90\xb3\xde\x80\xcauX@'
p56
tp57
Rp58
ag10
(g14
S'\x82@p\x84\xc5sX@'
p59
tp60
Rp61
ag10
(g14
S'^\x16"\xffhpX@'
p62
tp63
Rp64
ag10
(g14
S').\xdf\xde\xcetX@'
p65
tp66
Rp67
ag10
(g14
S'|\xd00\xe9\xfaoX@'
p68
tp69
Rp70
ag10
(g14
S'~\x08[g\x00qX@'
p71
tp72
Rp73
ag10
(g14
S'\xe8C\x11?\xaenX@'
p74
tp75
Rp76
asS'target'
p77
(lp78
g10
(g14
S'\xc0\x17\xfd]\xdf\xfdN@'
p79
tp80
Rp81
ag10
(g14
S'\x02e7\xa0\xbe-P@'
p82
tp83
Rp84
ag10
(g14
S'\xebfo5eSP@'
p85
tp86
Rp87
ag10
(g14
S'\xbeC\x13\xe3I=P@'
p88
tp89
Rp90
ag10
(g14
S'\xdc\xb6\t\x15*iN@'
p91
tp92
Rp93
ag10
(g14
S's\xeb4Iu)P@'
p94
tp95
Rp96
ag10
(g14
S'\x95Io\x10z8P@'
p97
tp98
Rp99
ag10
(g14
S'\xea<\xcf7r"N@'
p100
tp101
Rp102
ag10
(g14
S'\xa7m\xa5)_\xc3P@'
p103
tp104
Rp105
ag10
(g14
S'\xc2r\x80yD\x06P@'
p106
tp107
Rp108
ag10
(g14
S'\x15\x84\x10\xe4\xc8vQ@'
p109
tp110
Rp111
ag10
(g14
S'\x1b=\x82\t\xd1>N@'
p112
tp113
Rp114
ag10
(g14
S'\xd2\xbd#\xb3\xba\x8aO@'
p115
tp116
Rp117
ag10
(g14
S'\xcc\r\xc2\t\x87KP@'
p118
tp119
Rp120
ag10
(g14
S'\xe7\x0b:|g\xe6M@'
p121
tp122
Rp123
ag10
(g14
S'\xf6i\xd6rfNP@'
p124
tp125
Rp126
ag10
(g14
S'f\x86Mm\x80\x94N@'
p127
tp128
Rp129
ag10
(g14
S'\xde\xa8\xa5\x8e\xd7\x0bQ@'
p130
tp131
Rp132
ag10
(g14
S'a\x8fT\xbbc\x7fP@'
p133
tp134
Rp135
ag10
(g14
S'\x10=\x03 \xfb7P@'
p136
tp137
Rp138
asssss.