(dp0
S'../Data/sqlite_77.csv'
p1
(dp2
S'../Data/sqlite_96.csv'
p3
(dp4
F0.15
(dp5
S'mmre'
p6
(dp7
S'bellwether'
p8
(lp9
cnumpy.core.multiarray
scalar
p10
(cnumpy
dtype
p11
(S'f8'
p12
I0
I1
tp13
Rp14
(I3
S'<'
p15
NNNI-1
I-1
I0
tp16
bS'1\xca\\\x1f<1?@'
p17
tp18
Rp19
ag10
(g14
S'\xcc\x8f!+~i?@'
p20
tp21
Rp22
ag10
(g14
S'D\xbfo\x05\x8c\x0f?@'
p23
tp24
Rp25
ag10
(g14
S')\x04\xb9\xf7\x83;?@'
p26
tp27
Rp28
ag10
(g14
S'\xe2,p\xed\xf9T?@'
p29
tp30
Rp31
ag10
(g14
S'v\xc03\xda<\xee>@'
p32
tp33
Rp34
ag10
(g14
S'T\xfaVRb\xf3>@'
p35
tp36
Rp37
ag10
(g14
S'\xbd\xd5>hg<?@'
p38
tp39
Rp40
ag10
(g14
S'f\x1c\x8b?\x84\xa9>@'
p41
tp42
Rp43
ag10
(g14
S'\xcc\x02{\x01\x0f$?@'
p44
tp45
Rp46
ag10
(g14
S'\xb3\x92y\x0c\xf4T?@'
p47
tp48
Rp49
ag10
(g14
S'\xed\x0e\x07\x9fF=?@'
p50
tp51
Rp52
ag10
(g14
S'\x11}\x85:\xec\x13?@'
p53
tp54
Rp55
ag10
(g14
S'\xe5y\x18\xa0\x1a*?@'
p56
tp57
Rp58
ag10
(g14
S'\xe5\x86\x9f\x1bS\x92?@'
p59
tp60
Rp61
ag10
(g14
S"\xb1!\xa2V\xc3'?@"
p62
tp63
Rp64
ag10
(g14
S'\xb4\x84\xaam\xb9\x05?@'
p65
tp66
Rp67
ag10
(g14
S'\xee\xee\x1f|wk?@'
p68
tp69
Rp70
ag10
(g14
S'\xe9\xd2\xeb\n\xf8J?@'
p71
tp72
Rp73
ag10
(g14
S'\x90\xbe\x99i\x88E?@'
p74
tp75
Rp76
asS'target'
p77
(lp78
g10
(g14
S'\x88:<\xddMHI@'
p79
tp80
Rp81
ag10
(g14
S'\xac f\xf1\x8d\x18Q@'
p82
tp83
Rp84
ag10
(g14
S"\x07\xbf\x19\x86'\x8dW@"
p85
tp86
Rp87
ag10
(g14
S'\x8b,*ys_^@'
p88
tp89
Rp90
ag10
(g14
S"\x9a\x03u'\\nT@"
p91
tp92
Rp93
ag10
(g14
S'9+ \xe8LAU@'
p94
tp95
Rp96
ag10
(g14
S'>P\xf505-b@'
p97
tp98
Rp99
ag10
(g14
S'\x90-=\xac\x88\xb4O@'
p100
tp101
Rp102
ag10
(g14
S'\xe3j\xc6\x82\x08,W@'
p103
tp104
Rp105
ag10
(g14
S'Rixc7\xa1P@'
p106
tp107
Rp108
ag10
(g14
S'\xc43\xad\xf5\xdbcM@'
p109
tp110
Rp111
ag10
(g14
S'\x18\x0f\t\xed\xc8\xe4b@'
p112
tp113
Rp114
ag10
(g14
S';x\x1f\x05?pT@'
p115
tp116
Rp117
ag10
(g14
S'\xf4\x80\xec\xe0\x96\x9dK@'
p118
tp119
Rp120
ag10
(g14
S'\xd7\xf6\x7f\x10\xaf~F@'
p121
tp122
Rp123
ag10
(g14
S'j!\x82\ty\xf2J@'
p124
tp125
Rp126
ag10
(g14
S'N\x81$?\xe6\xf6Q@'
p127
tp128
Rp129
ag10
(g14
S'\x13\xff]g\xc6\nW@'
p130
tp131
Rp132
ag10
(g14
S'U\xcf\xbc"/\xbbK@'
p133
tp134
Rp135
ag10
(g14
S'\xfd/Z\x12i\x05Y@'
p136
tp137
Rp138
asssss.