(dp0
S'../Data/sqlite_20.csv'
p1
(dp2
S'../Data/sqlite_59.csv'
p3
(dp4
F0.1
(dp5
S'mmre'
p6
(dp7
S'bellwether'
p8
(lp9
cnumpy.core.multiarray
scalar
p10
(cnumpy
dtype
p11
(S'f8'
p12
I0
I1
tp13
Rp14
(I3
S'<'
p15
NNNI-1
I-1
I0
tp16
bS'\x96Nnu\xb7B>@'
p17
tp18
Rp19
ag10
(g14
S'\x88\xb7\xe8\xa9[H>@'
p20
tp21
Rp22
ag10
(g14
S'\xf1_\x8cv\xd94>@'
p23
tp24
Rp25
ag10
(g14
S'kEH\xbf@R>@'
p26
tp27
Rp28
ag10
(g14
S'\xd1\xe1H\xfcPB>@'
p29
tp30
Rp31
ag10
(g14
S'\xe0\x0f6P^N>@'
p32
tp33
Rp34
ag10
(g14
S'\x02l\x96\x88\xa4N>@'
p35
tp36
Rp37
ag10
(g14
S'5\xccb\xac\x06G>@'
p38
tp39
Rp40
ag10
(g14
S'\xa53\xbf\xa1)5>@'
p41
tp42
Rp43
ag10
(g14
S'R\xe8\x97\x11/e>@'
p44
tp45
Rp46
ag10
(g14
S'\x81\x85\x1dF\xb0?>@'
p47
tp48
Rp49
ag10
(g14
S'\xd2$\xc3sqC>@'
p50
tp51
Rp52
ag10
(g14
S'\x95\x94\xd2FQS>@'
p53
tp54
Rp55
ag10
(g14
S'\x98\xc5\x9e\xbde=>@'
p56
tp57
Rp58
ag10
(g14
S'\x07WZ\x02\x80K>@'
p59
tp60
Rp61
ag10
(g14
S'+\xa7\xbb\xfe_6>@'
p62
tp63
Rp64
ag10
(g14
S'\xaf\xfa\x883P:>@'
p65
tp66
Rp67
ag10
(g14
S'\xf5\xee\x06\xae\xedH>@'
p68
tp69
Rp70
ag10
(g14
S'\x99\x9dF\xcc\xea$>@'
p71
tp72
Rp73
ag10
(g14
S'\x0e\x1e\xb89\x0b\x07>@'
p74
tp75
Rp76
asS'target'
p77
(lp78
g10
(g14
S"i\xe5X|J;'@"
p79
tp80
Rp81
ag10
(g14
S'\xfc\x88z\x9b\xd6:&@'
p82
tp83
Rp84
ag10
(g14
S'\x89\r\xb7}\xf8\x87$@'
p85
tp86
Rp87
ag10
(g14
S'\xcd\x8c\xb9\xc8c\xa8&@'
p88
tp89
Rp90
ag10
(g14
S'2HH\xd4S\x9b%@'
p91
tp92
Rp93
ag10
(g14
S'\xab\xb7\x87Z\x81\xd7(@'
p94
tp95
Rp96
ag10
(g14
S'\xb8c;U\x85\xa4)@'
p97
tp98
Rp99
ag10
(g14
S'pW\x8e\x86",%@'
p100
tp101
Rp102
ag10
(g14
S'\xd8D\xab\xd0\xf5\xcc%@'
p103
tp104
Rp105
ag10
(g14
S'\x17\x04\xc0\xbf\xb4%&@'
p106
tp107
Rp108
ag10
(g14
S'\x83\xbe\x06\xc4z\x13%@'
p109
tp110
Rp111
ag10
(g14
S'.B\xdbgPh#@'
p112
tp113
Rp114
ag10
(g14
S"{re'qO%@"
p115
tp116
Rp117
ag10
(g14
S"\x95/\x98Fk_'@"
p118
tp119
Rp120
ag10
(g14
S'8F\xc2\x14f1%@'
p121
tp122
Rp123
ag10
(g14
S'\xcb\xdc\xb0.\xab\xaa(@'
p124
tp125
Rp126
ag10
(g14
S'\xe2\xe1\x87B\xa7\xd3%@'
p127
tp128
Rp129
ag10
(g14
S'\xcf\xfco\xb4\xd6\xb7&@'
p130
tp131
Rp132
ag10
(g14
S'\x8a*I\x1b\x0f\xbc&@'
p133
tp134
Rp135
ag10
(g14
S"%\xc1RI\xe9\x96'@"
p136
tp137
Rp138
asssss.