(dp0
S'../Data/sqlite_11.csv'
p1
(dp2
S'../Data/sqlite_18.csv'
p3
(dp4
F0.4
(dp5
S'abs_res'
p6
(dp7
S'bellwether'
p8
(lp9
cnumpy.core.multiarray
scalar
p10
(cnumpy
dtype
p11
(S'f8'
p12
I0
I1
tp13
Rp14
(I3
S'<'
p15
NNNI-1
I-1
I0
tp16
bS'"""b,[3A'
p17
tp18
Rp19
ag10
(g14
S'f\x8f\xc2ug^3A'
p20
tp21
Rp22
ag10
(g14
S'\xed\xb4\x81.>]3A'
p23
tp24
Rp25
ag10
(g14
S'\xb8\x81N;\xb5]3A'
p26
tp27
Rp28
ag10
(g14
S'q\xa0\xd3\xa6\x1bZ3A'
p29
tp30
Rp31
ag10
(g14
S'%\x85\xeb\xb1\xc6]3A'
p32
tp33
Rp34
ag10
(g14
S'<m\xa0\xb3\xe0[3A'
p35
tp36
Rp37
ag10
(g14
S']\xf2\x8b\x85\xac\\3A'
p38
tp39
Rp40
ag10
(g14
S'+\xf9\xc5RR[3A'
p41
tp42
Rp43
ag10
(g14
S'\x9c\xd3\x06\x1a\x02]3A'
p44
tp45
Rp46
ag10
(g14
S'\xda@\xa7\x8dD[3A'
p47
tp48
Rp49
ag10
(g14
S'\xb7\x81N;t]3A'
p50
tp51
Rp52
ag10
(g14
S'6\xd0iCJ\\3A'
p53
tp54
Rp55
ag10
(g14
S'\xf0Q\xb8^r]3A'
p56
tp57
Rp58
ag10
(g14
S'N\x1b\xe8\x94\x8b\\3A'
p59
tp60
Rp61
ag10
(g14
S',\\\x8f\xe2\xcd[3A'
p62
tp63
Rp64
ag10
(g14
S'\x8eN\x1bH\xf0]3A'
p65
tp66
Rp67
ag10
(g14
S'N~\xb1dD]3A'
p68
tp69
Rp70
ag10
(g14
S't=\n7\x9a\\3A'
p71
tp72
Rp73
ag10
(g14
S'\x8a\xebQx\x97[3A'
p74
tp75
Rp76
asS'target'
p77
(lp78
g10
(g14
S'-333\x933\xcc@'
p79
tp80
Rp81
ag10
(g14
S'\x8e\x99\x99\x99\x99\xb5\xcb@'
p82
tp83
Rp84
ag10
(g14
S'.333\xd3\xbd\xc9@'
p85
tp86
Rp87
ag10
(g14
S'offf\xc6\xf9\xca@'
p88
tp89
Rp90
ag10
(g14
S'2333\xb3\xc7\xc9@'
p91
tp92
Rp93
ag10
(g14
S'\xa6\x99\x99\x99\xd9\xa6\xca@'
p94
tp95
Rp96
ag10
(g14
S'2333\xd3|\xcb@'
p97
tp98
Rp99
ag10
(g14
S'\xce\xcc\xcc\xccL\xcf\xcc@'
p100
tp101
Rp102
ag10
(g14
S'2333\x93h\xc9@'
p103
tp104
Rp105
ag10
(g14
S'83333\xa1\xc8@'
p106
tp107
Rp108
ag10
(g14
S'\xcc\xcc\xcc\xcc\xecI\xcb@'
p109
tp110
Rp111
ag10
(g14
S'\xc8\xcc\xcc\xccL\xd2\xc8@'
p112
tp113
Rp114
ag10
(g14
S'\xd4\xcc\xcc\xcc\xcc?\xc9@'
p115
tp116
Rp117
ag10
(g14
S'\xce\xcc\xcc\xcc,\xa1\xc9@'
p118
tp119
Rp120
ag10
(g14
S'8333\xb3\xa4\xc9@'
p121
tp122
Rp123
ag10
(g14
S'\x9b\x99\x99\x99\x99;\xca@'
p124
tp125
Rp126
ag10
(g14
S'kfff&\xf2\xc9@'
p127
tp128
Rp129
ag10
(g14
S'bfff&,\xca@'
p130
tp131
Rp132
ag10
(g14
S'\x1b"""\xc2\xbe\xc8@'
p133
tp134
Rp135
ag10
(g14
S'mfff\xc6Y\xcb@'
p136
tp137
Rp138
asssss.