(dp0
S'../Data/sqlite_39.csv'
p1
(dp2
S'../Data/sqlite_10.csv'
p3
(dp4
F0.2
(dp5
S'mmre'
p6
(dp7
S'bellwether'
p8
(lp9
cnumpy.core.multiarray
scalar
p10
(cnumpy
dtype
p11
(S'f8'
p12
I0
I1
tp13
Rp14
(I3
S'<'
p15
NNNI-1
I-1
I0
tp16
bS'\xe2g\xb6\xd3\xa1[K@'
p17
tp18
Rp19
ag10
(g14
S'<@G\xbf[ZK@'
p20
tp21
Rp22
ag10
(g14
S'\xce\x11YP\xa5\\K@'
p23
tp24
Rp25
ag10
(g14
S' \xe3\xc5\rfXK@'
p26
tp27
Rp28
ag10
(g14
S'\xfd\x9b\xdb\x1bnZK@'
p29
tp30
Rp31
ag10
(g14
S'V\xbfoeKYK@'
p32
tp33
Rp34
ag10
(g14
S'\x8d\xa7\xe1I\x98ZK@'
p35
tp36
Rp37
ag10
(g14
S'*\x13\xb4\xa1\xc1YK@'
p38
tp39
Rp40
ag10
(g14
S'?\xaau7{[K@'
p41
tp42
Rp43
ag10
(g14
S')\xc2:y8XK@'
p44
tp45
Rp46
ag10
(g14
S'5$6Y\x84XK@'
p47
tp48
Rp49
ag10
(g14
S'uX\x8an\xffZK@'
p50
tp51
Rp52
ag10
(g14
S'\x0c\xfe\xfdV\xd6UK@'
p53
tp54
Rp55
ag10
(g14
S'^K\x19Qa\\K@'
p56
tp57
Rp58
ag10
(g14
S'\x18\\o\xf7\x87[K@'
p59
tp60
Rp61
ag10
(g14
S'\xb3|c\xad\x83ZK@'
p62
tp63
Rp64
ag10
(g14
S'kh\xa3,r[K@'
p65
tp66
Rp67
ag10
(g14
S'\\\xc5[:\xeb[K@'
p68
tp69
Rp70
ag10
(g14
S'-\xd8\xd7\tTZK@'
p71
tp72
Rp73
ag10
(g14
S'\t\xa3T\r}YK@'
p74
tp75
Rp76
asS'target'
p77
(lp78
g10
(g14
S'x\x17\x9eN\x02A\xf4?'
p79
tp80
Rp81
ag10
(g14
S'"\xc8\x11n\xfa\x16\xf3?'
p82
tp83
Rp84
ag10
(g14
S'j\x9b\xf7n\x90c\xf2?'
p85
tp86
Rp87
ag10
(g14
S'~\xae\x8e\xd8OP\xfb?'
p88
tp89
Rp90
ag10
(g14
S'9y{\n\x90\x98\xf3?'
p91
tp92
Rp93
ag10
(g14
S'~|^C\xf7C\xf3?'
p94
tp95
Rp96
ag10
(g14
S'\x93\xc4\xea\x03\xdb\xd6\xf2?'
p97
tp98
Rp99
ag10
(g14
S'\xe7\xe8\xe2N9\x13\xf2?'
p100
tp101
Rp102
ag10
(g14
S'D\xdaOJ\xc0\xfd\xf2?'
p103
tp104
Rp105
ag10
(g14
S'C]z\x8dO\x0e\xf4?'
p106
tp107
Rp108
ag10
(g14
S'\x060M\xfa\x8c\x0f\xf8?'
p109
tp110
Rp111
ag10
(g14
S'\xab\x8a\xa6R\x06>\xfa?'
p112
tp113
Rp114
ag10
(g14
S's\to\x1bxn\xf9?'
p115
tp116
Rp117
ag10
(g14
S"\xb2\x90\xfdL'J\xf3?"
p118
tp119
Rp120
ag10
(g14
S"BZ~U]'\xf1?"
p121
tp122
Rp123
ag10
(g14
S'\xa5\xbc\xf7B\x8fn\xf3?'
p124
tp125
Rp126
ag10
(g14
S'\x85\xe0\xb54q\xd7\xf2?'
p127
tp128
Rp129
ag10
(g14
S'f\x809^\x85\x85\xf2?'
p130
tp131
Rp132
ag10
(g14
S'Z9\xb5\xcfT|\xf2?'
p133
tp134
Rp135
ag10
(g14
S'\xf6\\H\xdat\xf3\xf7?'
p136
tp137
Rp138
asssss.