(dp0
S'../Data/sqlite_74.csv'
p1
(dp2
S'../Data/sqlite_44.csv'
p3
(dp4
F0.25
(dp5
S'abs_res'
p6
(dp7
S'bellwether'
p8
(lp9
cnumpy.core.multiarray
scalar
p10
(cnumpy
dtype
p11
(S'f8'
p12
I0
I1
tp13
Rp14
(I3
S'<'
p15
NNNI-1
I-1
I0
tp16
bS'\xa5\xc6Kg\xd4^iA'
p17
tp18
Rp19
ag10
(g14
S'\x02\x1c\xa1\\\xb2YiA'
p20
tp21
Rp22
ag10
(g14
S'\xd8\xce\xf7\xe3\xf3biA'
p23
tp24
Rp25
ag10
(g14
S'=5^2\x83fiA'
p26
tp27
Rp28
ag10
(g14
S'\x8dl\xe7\x83xZiA'
p29
tp30
Rp31
ag10
(g14
S'\xb0rh\xd1\x9eWiA'
p32
tp33
Rp34
ag10
(g14
S'\xb9\x81N\x83SZiA'
p35
tp36
Rp37
ag10
(g14
S'0\xce>4 ciA'
p38
tp39
Rp40
ag10
(g14
S'\xc5<Q\xeb\xe1biA'
p41
tp42
Rp43
ag10
(g14
S'X\x80\xdc\xd3\x85diA'
p44
tp45
Rp46
ag10
(g14
S"?\x98'\x1a7iiA"
p47
tp48
Rp49
ag10
(g14
S'\xbe\x904Y\xe2_iA'
p50
tp51
Rp52
ag10
(g14
S'\x1fZd\x8b\xfbeiA'
p53
tp54
Rp55
ag10
(g14
S'\xf4S\xe3\xdd~diA'
p56
tp57
Rp58
ag10
(g14
S'\xb2\xb9\x90dtfiA'
p59
tp60
Rp61
ag10
(g14
S'\xf7o\x84F\xa4]iA'
p62
tp63
Rp64
ag10
(g14
S'\x80\x05\xc8\xd5\xdd]iA'
p65
tp66
Rp67
ag10
(g14
S'\xfa~jH\xb9[iA'
p68
tp69
Rp70
ag10
(g14
S'z\x86]\xad{]iA'
p71
tp72
Rp73
ag10
(g14
S'\xd0\x13\xf5s\xc2WiA'
p74
tp75
Rp76
asS'target'
p77
(lp78
g10
(g14
S'\xd0\xce\xf7S\xe3\xe5K@'
p79
tp80
Rp81
ag10
(g14
S'\xf7~j\xbctkL@'
p82
tp83
Rp84
ag10
(g14
S'\xce\xce\xf7S\xe3\rL@'
p85
tp86
Rp87
ag10
(g14
S'\xec\xd2Mb\x10hN@'
p88
tp89
Rp90
ag10
(g14
S'x\x93\x18\x04V\xaeJ@'
p91
tp92
Rp93
ag10
(g14
S'\xa8E\xb6\xf3\xfd\xb4J@'
p94
tp95
Rp96
ag10
(g14
S'jh\x91\xed|?L@'
p97
tp98
Rp99
ag10
(g14
S"\xd8\xa3p=\n'K@"
p100
tp101
Rp102
ag10
(g14
S'\x1c\xb0rh\x91\xe5P@'
p103
tp104
Rp105
ag10
(g14
S'H5^\xbaI\xb4M@'
p106
tp107
Rp108
ag10
(g14
S'03333KN@'
p109
tp110
Rp111
ag10
(g14
S'\x8c\xc4 \xb0r\xf8L@'
p112
tp113
Rp114
ag10
(g14
S'C\x8bl\xe7\xfb\tL@'
p115
tp116
Rp117
ag10
(g14
S'J7\x89A`\x15L@'
p118
tp119
Rp120
ag10
(g14
S'c\x8f\xc2\xf5(\\N@'
p121
tp122
Rp123
ag10
(g14
S'\xc2\xa1E\xb6\xf3\xbdM@'
p124
tp125
Rp126
ag10
(g14
S'\x82A`\xe5\xd0jM@'
p127
tp128
Rp129
ag10
(g14
S'\xc3v\xbe\x9f\x1aWM@'
p130
tp131
Rp132
ag10
(g14
S'\xd0v\xbe\x9f\x1a\x8fM@'
p133
tp134
Rp135
ag10
(g14
S'!\x06\x81\x95C/P@'
p136
tp137
Rp138
asssss.