(dp0
S'../Data/sqlite_0.csv'
p1
(dp2
S'../Data/sqlite_94.csv'
p3
(dp4
F0.2
(dp5
S'mmre'
p6
(dp7
S'bellwether'
p8
(lp9
cnumpy.core.multiarray
scalar
p10
(cnumpy
dtype
p11
(S'f8'
p12
I0
I1
tp13
Rp14
(I3
S'<'
p15
NNNI-1
I-1
I0
tp16
bS'v\xe5\x96)RnX@'
p17
tp18
Rp19
ag10
(g14
S'\x1c\xe7\xb3\x97=lX@'
p20
tp21
Rp22
ag10
(g14
S'\x84W\xd5\xb1\x84lX@'
p23
tp24
Rp25
ag10
(g14
S'\xf4Z\x83\xf9\x8cnX@'
p26
tp27
Rp28
ag10
(g14
S'\x8c\xd4\x9c7\x8amX@'
p29
tp30
Rp31
ag10
(g14
S'f*,!olX@'
p32
tp33
Rp34
ag10
(g14
S'\x1c\x87N\xa9\xb2mX@'
p35
tp36
Rp37
ag10
(g14
S'\xe1\xaex\xeemmX@'
p38
tp39
Rp40
ag10
(g14
S'@\xdb\x8f\xee\x9elX@'
p41
tp42
Rp43
ag10
(g14
S'\x8a96sRlX@'
p44
tp45
Rp46
ag10
(g14
S'F.2\xd6\x86mX@'
p47
tp48
Rp49
ag10
(g14
S't\x8f\xda\xb9\xcfmX@'
p50
tp51
Rp52
ag10
(g14
S':\xa2\xc7M\x02mX@'
p53
tp54
Rp55
ag10
(g14
S"\x9e\xba\xdc'\xabmX@"
p56
tp57
Rp58
ag10
(g14
S'K\xbb\xe9!\xe4lX@'
p59
tp60
Rp61
ag10
(g14
S'Fjlk\xdclX@'
p62
tp63
Rp64
ag10
(g14
S'\x880\xae~uoX@'
p65
tp66
Rp67
ag10
(g14
S'bW\x97\xac\xb4mX@'
p68
tp69
Rp70
ag10
(g14
S'tf\x1d{\xf0kX@'
p71
tp72
Rp73
ag10
(g14
S'\x9a\xd8\xf8^\x87mX@'
p74
tp75
Rp76
asS'target'
p77
(lp78
g10
(g14
S'\xb7\x11\x1a\x17\x02\x88V@'
p79
tp80
Rp81
ag10
(g14
S'|\x8d\x04\x12J9V@'
p82
tp83
Rp84
ag10
(g14
S"8'\xef\xf1\xdc\xcdU@"
p85
tp86
Rp87
ag10
(g14
S'\x05jS\x06\xfd\xb8U@'
p88
tp89
Rp90
ag10
(g14
S')\xafXV\xac\xb3T@'
p91
tp92
Rp93
ag10
(g14
S'x\x12\x91\x1c\xf3\x08V@'
p94
tp95
Rp96
ag10
(g14
S'.\x07\x7f\xc32vS@'
p97
tp98
Rp99
ag10
(g14
S'~\xa0\xbe\x9d\\\xb4P@'
p100
tp101
Rp102
ag10
(g14
S'yVI\x0cO(Y@'
p103
tp104
Rp105
ag10
(g14
S'\xf2J\xee\xcc\xc6\xddZ@'
p106
tp107
Rp108
ag10
(g14
S'b\x11\x8aH\xa3wU@'
p109
tp110
Rp111
ag10
(g14
S'\xa0ja\xbe\xeb1H@'
p112
tp113
Rp114
ag10
(g14
S'\xa2\r?\xb3L\x04P@'
p115
tp116
Rp117
ag10
(g14
S'\xd2\x0c\xc2\xec,\x12G@'
p118
tp119
Rp120
ag10
(g14
S'\x8c\xe9ELa\nT@'
p121
tp122
Rp123
ag10
(g14
S'0m\xc7\x1e\xc0iX@'
p124
tp125
Rp126
ag10
(g14
S'|]\xab\x1e#\xffQ@'
p127
tp128
Rp129
ag10
(g14
S'\x140a\xc5J\x81J@'
p130
tp131
Rp132
ag10
(g14
S'\x82!By \xcbT@'
p133
tp134
Rp135
ag10
(g14
S'\xfe3N\xbc\xcb\x1cO@'
p136
tp137
Rp138
asssss.