(dp0
S'../Data/sqlite_64.csv'
p1
(dp2
S'../Data/sqlite_94.csv'
p3
(dp4
F0.15
(dp5
S'mmre'
p6
(dp7
S'bellwether'
p8
(lp9
cnumpy.core.multiarray
scalar
p10
(cnumpy
dtype
p11
(S'f8'
p12
I0
I1
tp13
Rp14
(I3
S'<'
p15
NNNI-1
I-1
I0
tp16
bS'\xd6\xa9di\xa4xX@'
p17
tp18
Rp19
ag10
(g14
S'JB\x07G\x8bxX@'
p20
tp21
Rp22
ag10
(g14
S'o\x97j\xdaUyX@'
p23
tp24
Rp25
ag10
(g14
S'Kus\xac\x9ayX@'
p26
tp27
Rp28
ag10
(g14
S'\xf8Wx\x99\xb8xX@'
p29
tp30
Rp31
ag10
(g14
S'N\xc2V_kyX@'
p32
tp33
Rp34
ag10
(g14
S"'\x11\xf3\xb1\xbbyX@"
p35
tp36
Rp37
ag10
(g14
S'\x82\x0b\x07\xebXyX@'
p38
tp39
Rp40
ag10
(g14
S'E\xfd\x92\xbb\x0cyX@'
p41
tp42
Rp43
ag10
(g14
S'\xad\xb6\xf5\xe3QyX@'
p44
tp45
Rp46
ag10
(g14
S'\xad\x17u\xd9\x18xX@'
p47
tp48
Rp49
ag10
(g14
S'=d,\xc1\xeexX@'
p50
tp51
Rp52
ag10
(g14
S')lVm\xb4xX@'
p53
tp54
Rp55
ag10
(g14
S'\x0b\x14|\xd0\xc0yX@'
p56
tp57
Rp58
ag10
(g14
S'E\xfd9\xdf\xc2xX@'
p59
tp60
Rp61
ag10
(g14
S'\xc8\xe9$\x85\xdexX@'
p62
tp63
Rp64
ag10
(g14
S'\x80\xebJi\x93yX@'
p65
tp66
Rp67
ag10
(g14
S'\xe37\xbc\x0c:yX@'
p68
tp69
Rp70
ag10
(g14
S'\xd4\x000\x96\xb1yX@'
p71
tp72
Rp73
ag10
(g14
S'\xb3\x007\xd20yX@'
p74
tp75
Rp76
asS'target'
p77
(lp78
g10
(g14
S'\xd5\xdd\x80\xff(\xdeW@'
p79
tp80
Rp81
ag10
(g14
S'\\\xe5#IcJI@'
p82
tp83
Rp84
ag10
(g14
S'\x94q\x88\xd0\xfe\xbeM@'
p85
tp86
Rp87
ag10
(g14
S'\xa00\xe8Mx,S@'
p88
tp89
Rp90
ag10
(g14
S'\xedx\xf9\xd8\xf8\xfaR@'
p91
tp92
Rp93
ag10
(g14
S'\xccV\x83\x94\xcd[N@'
p94
tp95
Rp96
ag10
(g14
S'\xa1Cf\xa8\xb1\x86M@'
p97
tp98
Rp99
ag10
(g14
S'\xcd\xe5\xdb\xf3)^P@'
p100
tp101
Rp102
ag10
(g14
S'v\xd6[\x1fe\x1cN@'
p103
tp104
Rp105
ag10
(g14
S'\xac\x83\xc9\x7fP\xc0S@'
p106
tp107
Rp108
ag10
(g14
S'\xdcX\xe2\xecO\n\\@'
p109
tp110
Rp111
ag10
(g14
S'\x92\\\xfe\xffC\xc2T@'
p112
tp113
Rp114
ag10
(g14
S'\x07\x8d\x9d%\x180[@'
p115
tp116
Rp117
ag10
(g14
S'\xb8\x80\xa5\xfa\xeeLC@'
p118
tp119
Rp120
ag10
(g14
S'i\x17u\xdc\x8egT@'
p121
tp122
Rp123
ag10
(g14
S'/\x8c\xb3\x1c\xd7\xfeS@'
p124
tp125
Rp126
ag10
(g14
S'#C\x1eY:|Z@'
p127
tp128
Rp129
ag10
(g14
S'\xac\xe0f\xaa\x85RT@'
p130
tp131
Rp132
ag10
(g14
S'\xe1h9\x8b[\xf6[@'
p133
tp134
Rp135
ag10
(g14
S'v+\x0e=A}T@'
p136
tp137
Rp138
asssss.