(dp0
S'../Data/sqlite_17.csv'
p1
(dp2
S'../Data/sqlite_90.csv'
p3
(dp4
F0.3
(dp5
S'mmre'
p6
(dp7
S'bellwether'
p8
(lp9
cnumpy.core.multiarray
scalar
p10
(cnumpy
dtype
p11
(S'f8'
p12
I0
I1
tp13
Rp14
(I3
S'<'
p15
NNNI-1
I-1
I0
tp16
bS'\x95\x85\x88\xaeA\rV@'
p17
tp18
Rp19
ag10
(g14
S')\x06%]\xe3+V@'
p20
tp21
Rp22
ag10
(g14
S'\\rY=\xed\x17V@'
p23
tp24
Rp25
ag10
(g14
S'\xfcfq\xcf\xeb\x1aV@'
p26
tp27
Rp28
ag10
(g14
S'\xd4A\xa9\xe5\x90\x06V@'
p29
tp30
Rp31
ag10
(g14
S'\xef\x9f\xb69\xbe\x05V@'
p32
tp33
Rp34
ag10
(g14
S'1\x9c\xc8\xb0[\x16V@'
p35
tp36
Rp37
ag10
(g14
S'\xa2s]l($V@'
p38
tp39
Rp40
ag10
(g14
S'D\x9d\x15\xec\x17\x14V@'
p41
tp42
Rp43
ag10
(g14
S'=&y8\x0e\x1bV@'
p44
tp45
Rp46
ag10
(g14
S'z\xf3[\x91{\x10V@'
p47
tp48
Rp49
ag10
(g14
S'n\r\xef\xac\x94&V@'
p50
tp51
Rp52
ag10
(g14
S'N\xfa\t\xcd&!V@'
p53
tp54
Rp55
ag10
(g14
S'Wfe\x96\xf42V@'
p56
tp57
Rp58
ag10
(g14
S'*A\xddo\x93\x18V@'
p59
tp60
Rp61
ag10
(g14
S'`+y\xec\x95!V@'
p62
tp63
Rp64
ag10
(g14
S'@\xdb\x019\xdf\x18V@'
p65
tp66
Rp67
ag10
(g14
S'\x05\x90\xda\xb7x\x1eV@'
p68
tp69
Rp70
ag10
(g14
S'\x91\x10\xae\x03\x95\x1bV@'
p71
tp72
Rp73
ag10
(g14
S'dN\xd8MH\x19V@'
p74
tp75
Rp76
asS'target'
p77
(lp78
g10
(g14
S'\x80]\xcb5\xaf\x9eA@'
p79
tp80
Rp81
ag10
(g14
S'D\xe1iq\xab\nA@'
p82
tp83
Rp84
ag10
(g14
S'?X\xbcfP\x05A@'
p85
tp86
Rp87
ag10
(g14
S'a\x08\xe2\xf5\x05lA@'
p88
tp89
Rp90
ag10
(g14
S'M{\x0f\xa7W\x83D@'
p91
tp92
Rp93
ag10
(g14
S'\xb9i(5\xcfRA@'
p94
tp95
Rp96
ag10
(g14
S'/\xdf\xce\x87\x85\x1eA@'
p97
tp98
Rp99
ag10
(g14
S'&"\\r\xb1\xce?@'
p100
tp101
Rp102
ag10
(g14
S'+\xa0\xd3\xf9\x94UB@'
p103
tp104
Rp105
ag10
(g14
S'\xe61m0!\x99@@'
p106
tp107
Rp108
ag10
(g14
S's\x95\xc1b\xf2\x9bA@'
p109
tp110
Rp111
ag10
(g14
S'\x9f+\xe2\xc8\x86\xf8@@'
p112
tp113
Rp114
ag10
(g14
S'\xd8\x18V\xd1Z\xea@@'
p115
tp116
Rp117
ag10
(g14
S'}\xa2q\xb2"\xff<@'
p118
tp119
Rp120
ag10
(g14
S'G8/\xf1\xdd_B@'
p121
tp122
Rp123
ag10
(g14
S'\xdb$\x14K\x81dA@'
p124
tp125
Rp126
ag10
(g14
S'\xe0;O\xf5\\\xacA@'
p127
tp128
Rp129
ag10
(g14
S'\xd8XD\xb4\xec\x0f@@'
p130
tp131
Rp132
ag10
(g14
S'\x1a\xe9Td$\xd3@@'
p133
tp134
Rp135
ag10
(g14
S'rd\xd2r\xc2]A@'
p136
tp137
Rp138
asssss.