(dp0
S'../Data/sqlite_23.csv'
p1
(dp2
S'../Data/sqlite_73.csv'
p3
(dp4
F0.15
(dp5
S'mmre'
p6
(dp7
S'bellwether'
p8
(lp9
cnumpy.core.multiarray
scalar
p10
(cnumpy
dtype
p11
(S'f8'
p12
I0
I1
tp13
Rp14
(I3
S'<'
p15
NNNI-1
I-1
I0
tp16
bS'\xa2Hzb\xbf3W@'
p17
tp18
Rp19
ag10
(g14
S'~;\xfc*\xd70W@'
p20
tp21
Rp22
ag10
(g14
S'\x93!AMi2W@'
p23
tp24
Rp25
ag10
(g14
S'\\\xef\x8d\x85"2W@'
p26
tp27
Rp28
ag10
(g14
S'#"\xd6\x1dR1W@'
p29
tp30
Rp31
ag10
(g14
S'\xd5\xd7\x91\xd6Z2W@'
p32
tp33
Rp34
ag10
(g14
S'\x1cR5\xc0\x973W@'
p35
tp36
Rp37
ag10
(g14
S'\x8c\xe1\xc24\x004W@'
p38
tp39
Rp40
ag10
(g14
S'\xb0\xd6\xa7\xf6X2W@'
p41
tp42
Rp43
ag10
(g14
S'\xb3\x8e\x15s\xd62W@'
p44
tp45
Rp46
ag10
(g14
S'w}_d=2W@'
p47
tp48
Rp49
ag10
(g14
S'\xed\x1a\xe7`\xd42W@'
p50
tp51
Rp52
ag10
(g14
S'd5\xd4\xf5s1W@'
p53
tp54
Rp55
ag10
(g14
S'zP\x0b\xb4p2W@'
p56
tp57
Rp58
ag10
(g14
S'\x8e\xc8y\n\xa12W@'
p59
tp60
Rp61
ag10
(g14
S'c\xea\xf8\x82\x992W@'
p62
tp63
Rp64
ag10
(g14
S'\xc8U\x00x\x8a2W@'
p65
tp66
Rp67
ag10
(g14
S'K\xd7\xac\xff\x123W@'
p68
tp69
Rp70
ag10
(g14
S'\xe4\xde!\xe3\xbd1W@'
p71
tp72
Rp73
ag10
(g14
S'\xf8m\xaf\x05B1W@'
p74
tp75
Rp76
asS'target'
p77
(lp78
g10
(g14
S'gt\x81t\xd1}+@'
p79
tp80
Rp81
ag10
(g14
S'9\xfc(\xbe\xf9[0@'
p82
tp83
Rp84
ag10
(g14
S'`>\x9fo\xa2)*@'
p85
tp86
Rp87
ag10
(g14
S'\xfd\xc4\xdc\xee$!+@'
p88
tp89
Rp90
ag10
(g14
S'\xf6\xd8t\xadP~.@'
p91
tp92
Rp93
ag10
(g14
S'B\x84P&/x*@'
p94
tp95
Rp96
ag10
(g14
S'\xeb\x8c\xbc\xa5Or-@'
p97
tp98
Rp99
ag10
(g14
S'E\x89\xba\x00\x8dI,@'
p100
tp101
Rp102
ag10
(g14
S'h\x10j\xd7\xd5\xa7,@'
p103
tp104
Rp105
ag10
(g14
S'\xc3\xbd\xf4\x8d\xab\x82+@'
p106
tp107
Rp108
ag10
(g14
S'\x81\nt=#\t+@'
p109
tp110
Rp111
ag10
(g14
S'\x85\xe7\xb5\x82<\x07+@'
p112
tp113
Rp114
ag10
(g14
S'\x8cH\xcd\xf8\xa3\xfb*@'
p115
tp116
Rp117
ag10
(g14
S'\x1d\x9d\xd0\xa0\xaf\xd0*@'
p118
tp119
Rp120
ag10
(g14
S'\xb0\t\xfcmZ\xa6)@'
p121
tp122
Rp123
ag10
(g14
S'|5/O\x02\xa3*@'
p124
tp125
Rp126
ag10
(g14
S'\xc0(i[\x11\xc9,@'
p127
tp128
Rp129
ag10
(g14
S' {x\xa8[\xc7+@'
p130
tp131
Rp132
ag10
(g14
S'\xd9\n\x89-\xa9\xca+@'
p133
tp134
Rp135
ag10
(g14
S'\xc2}%W{\xdc+@'
p136
tp137
Rp138
asssss.