(dp0
S'../Data/sqlite_56.csv'
p1
(dp2
S'../Data/sqlite_46.csv'
p3
(dp4
F0.1
(dp5
S'abs_res'
p6
(dp7
S'bellwether'
p8
(lp9
cnumpy.core.multiarray
scalar
p10
(cnumpy
dtype
p11
(S'f8'
p12
I0
I1
tp13
Rp14
(I3
S'<'
p15
NNNI-1
I-1
I0
tp16
bS'\x0be\xf4~YRAA'
p17
tp18
Rp19
ag10
(g14
S'ph\x91e\xe6QAA'
p20
tp21
Rp22
ag10
(g14
S'\x8e\x18\x04\xb6\x9fRAA'
p23
tp24
Rp25
ag10
(g14
S'\xea\xd0"C:RAA'
p26
tp27
Rp28
ag10
(g14
S'\xc9\x04\x0f\x86iRAA'
p29
tp30
Rp31
ag10
(g14
S'i!iB\xc1RAA'
p32
tp33
Rp34
ag10
(g14
S'\x86A`eNRAA'
p35
tp36
Rp37
ag10
(g14
S'\x9fE\xb6\x8bLRAA'
p38
tp39
Rp40
ag10
(g14
S'\xa4p=R\xbfRAA'
p41
tp42
Rp43
ag10
(g14
S'\xae\xf1\xd2\xad\xaaRAA'
p44
tp45
Rp46
ag10
(g14
S':\n\xd7[\x86RAA'
p47
tp48
Rp49
ag10
(g14
S'9B\x195}RAA'
p50
tp51
Rp52
ag10
(g14
S'\xa0E\xb6#;RAA'
p53
tp54
Rp55
ag10
(g14
S'\x11<\x98\xffpRAA'
p56
tp57
Rp58
ag10
(g14
S'\xd8O\x8d\x97\x7fRAA'
p59
tp60
Rp61
ag10
(g14
S'e\x91\xed\xe4]RAA'
p62
tp63
Rp64
ag10
(g14
S'L\x8d\x97\x06\xf8QAA'
p65
tp66
Rp67
ag10
(g14
S';\xdfOm.RAA'
p68
tp69
Rp70
ag10
(g14
S'\xd3"\xdb)\x8eRAA'
p71
tp72
Rp73
ag10
(g14
S";\x98'\xfa\xacRAA"
p74
tp75
Rp76
asS'target'
p77
(lp78
g10
(g14
S'\xd8\xcc\xcc\xcc\x0c.\xcb@'
p79
tp80
Rp81
ag10
(g14
S'\xb2\x99\x99\x99\x19*\xca@'
p82
tp83
Rp84
ag10
(g14
S'\x10\x00\x00\x00@\x96\xcc@'
p85
tp86
Rp87
ag10
(g14
S'\x04\x00\x00\x00\x00\x19\xcf@'
p88
tp89
Rp90
ag10
(g14
S'B333s\xc0\xc9@'
p91
tp92
Rp93
ag10
(g14
S'\x94\x99\x99\x99\x19x\xcf@'
p94
tp95
Rp96
ag10
(g14
S'.333\xb3B\xc9@'
p97
tp98
Rp99
ag10
(g14
S'\x97\x99\x99\x99y\xb8\xd1@'
p100
tp101
Rp102
ag10
(g14
S'qfff\x86a\xd0@'
p103
tp104
Rp105
ag10
(g14
S'\xa1\x99\x99\x99Y(\xca@'
p106
tp107
Rp108
ag10
(g14
S'\t\x00\x00\x00\xc0\x00\xcc@'
p109
tp110
Rp111
ag10
(g14
S':333s\\\xcb@'
p112
tp113
Rp114
ag10
(g14
S'^fff&b\xc9@'
p115
tp116
Rp117
ag10
(g14
S';3333o\xcf@'
p118
tp119
Rp120
ag10
(g14
S'effffJ\xcc@'
p121
tp122
Rp123
ag10
(g14
S'@3333R\xca@'
p124
tp125
Rp126
ag10
(g14
S'\x95\x99\x99\x99\x19\xd7\xc9@'
p127
tp128
Rp129
ag10
(g14
S'gfff\xe6\xa0\xc9@'
p130
tp131
Rp132
ag10
(g14
S'offf\xe6u\xcb@'
p133
tp134
Rp135
ag10
(g14
S'\xc4\xcc\xcc\xcc\xcc\xa3\xcc@'
p136
tp137
Rp138
asssss.