(dp0
S'../Data/sqlite_23.csv'
p1
(dp2
S'../Data/sqlite_96.csv'
p3
(dp4
F0.25
(dp5
S'mmre'
p6
(dp7
S'bellwether'
p8
(lp9
cnumpy.core.multiarray
scalar
p10
(cnumpy
dtype
p11
(S'f8'
p12
I0
I1
tp13
Rp14
(I3
S'<'
p15
NNNI-1
I-1
I0
tp16
bS"E\xf0''\t'X@"
p17
tp18
Rp19
ag10
(g14
S'r\xc4&h\x93(X@'
p20
tp21
Rp22
ag10
(g14
S" B\x81K}'X@"
p23
tp24
Rp25
ag10
(g14
S'6\x1e\xfd\x86}(X@'
p26
tp27
Rp28
ag10
(g14
S'\x89\x0em\x7fb(X@'
p29
tp30
Rp31
ag10
(g14
S"6\xbe\x92\x0b2'X@"
p32
tp33
Rp34
ag10
(g14
S"\x92f\xc4\xa2\xfd'X@"
p35
tp36
Rp37
ag10
(g14
S'\xd8\xb44\x0b{)X@'
p38
tp39
Rp40
ag10
(g14
S'b\x1fx\xc9\xe7&X@'
p41
tp42
Rp43
ag10
(g14
S'<\xa4\xad\xaf\x81(X@'
p44
tp45
Rp46
ag10
(g14
S'\xac\nZ\x12\xae(X@'
p47
tp48
Rp49
ag10
(g14
S'E\x90\xdd}\xc3&X@'
p50
tp51
Rp52
ag10
(g14
S'o\xb1v\x84-)X@'
p53
tp54
Rp55
ag10
(g14
S'7\x7f\x0b\xee\x00(X@'
p56
tp57
Rp58
ag10
(g14
S'\xff\xdc\x08\x10s(X@'
p59
tp60
Rp61
ag10
(g14
S'\x91E\x82*\x89&X@'
p62
tp63
Rp64
ag10
(g14
S">(\x00D\xe2'X@"
p65
tp66
Rp67
ag10
(g14
S"\x08L\x98\xa5\x9f'X@"
p68
tp69
Rp70
ag10
(g14
S'\xa0\xaaz</&X@'
p71
tp72
Rp73
ag10
(g14
S'\xa9#\x99\xef^)X@'
p74
tp75
Rp76
asS'target'
p77
(lp78
g10
(g14
S'\xa3\x88B\x0f\x12/S@'
p79
tp80
Rp81
ag10
(g14
S'ey\xba\x8b\xd4\x9fU@'
p82
tp83
Rp84
ag10
(g14
S'\x90j0\x91\xecQT@'
p85
tp86
Rp87
ag10
(g14
S'\xae\xfd,\xe3\xf5\xb4R@'
p88
tp89
Rp90
ag10
(g14
S'Sr\\!j\x96T@'
p91
tp92
Rp93
ag10
(g14
S'\xea\xf9:\x0cY^Q@'
p94
tp95
Rp96
ag10
(g14
S'\xcd\x16X\xa7\xa7\xa0V@'
p97
tp98
Rp99
ag10
(g14
S'\xc6A\xce\xa4u;X@'
p100
tp101
Rp102
ag10
(g14
S'z^yB\xdbTQ@'
p103
tp104
Rp105
ag10
(g14
S'Ss\x15\x92\xa2\xf1Y@'
p106
tp107
Rp108
ag10
(g14
S'\rr\xb14\xdd\x0fS@'
p109
tp110
Rp111
ag10
(g14
S'!\xc3\xb5z_\xe0[@'
p112
tp113
Rp114
ag10
(g14
S"\x08\\\x88'k\xccS@"
p115
tp116
Rp117
ag10
(g14
S'q\x18D\xde\x04bR@'
p118
tp119
Rp120
ag10
(g14
S'V\x17\x9f\xd6T\xa6R@'
p121
tp122
Rp123
ag10
(g14
S'\r{\xff\xc7\n\x1bY@'
p124
tp125
Rp126
ag10
(g14
S'y\xfb\x90$\xb0SR@'
p127
tp128
Rp129
ag10
(g14
S'f\xd1^qx\xdeQ@'
p130
tp131
Rp132
ag10
(g14
S'\xb56\xcb\r\xe8\xccR@'
p133
tp134
Rp135
ag10
(g14
S"L\xecY\xc9'LR@"
p136
tp137
Rp138
asssss.