(dp0
S'../Data/sqlite_80.csv'
p1
(dp2
S'../Data/sqlite_48.csv'
p3
(dp4
F0.4
(dp5
S'abs_res'
p6
(dp7
S'bellwether'
p8
(lp9
cnumpy.core.multiarray
scalar
p10
(cnumpy
dtype
p11
(S'f8'
p12
I0
I1
tp13
Rp14
(I3
S'<'
p15
NNNI-1
I-1
I0
tp16
bS'-333\x94(\nA'
p17
tp18
Rp19
ag10
(g14
S'D\xa7\rt\x92-\nA'
p20
tp21
Rp22
ag10
(g14
S'/m\xa0\xd3\xd8*\nA'
p23
tp24
Rp25
ag10
(g14
S'\x07\x9d6\xd0T(\nA'
p26
tp27
Rp28
ag10
(g14
S'\x92\xb3\x0f\x9f\x0c-\nA'
p29
tp30
Rp31
ag10
(g14
S'\xb2G\xe1z\x1d)\nA'
p32
tp33
Rp34
ag10
(g14
S'\xdf\\H\x9ay,\nA'
p35
tp36
Rp37
ag10
(g14
S'\xf9S\xe3\xa5\xc7*\nA'
p38
tp39
Rp40
ag10
(g14
S'\x0be\xf4\xb67,\nA'
p41
tp42
Rp43
ag10
(g14
S'\x95C\x8bl\x15+\nA'
p44
tp45
Rp46
ag10
(g14
S'\xb5V\xc7\x04M(\nA'
p47
tp48
Rp49
ag10
(g14
S'\x1fv\x05\xc8\xc2+\nA'
p50
tp51
Rp52
ag10
(g14
S'l.$M\xb1-\nA'
p53
tp54
Rp55
ag10
(g14
S'd\xbaI\x0c6+\nA'
p56
tp57
Rp58
ag10
(g14
S'\xc7\xe6B\xd2\xee(\nA'
p59
tp60
Rp61
ag10
(g14
S'\xf45\x17\x92l+\nA'
p62
tp63
Rp64
ag10
(g14
S'5\xb2\x9d\xefq.\nA'
p65
tp66
Rp67
ag10
(g14
S'8\xa5\xe2\xec\xaf,\nA'
p68
tp69
Rp70
ag10
(g14
S']s!i\x9a0\nA'
p71
tp72
Rp73
ag10
(g14
S'o;\xdfO)*\nA'
p74
tp75
Rp76
asS'target'
p77
(lp78
g10
(g14
S'\xa6T\x9c}\xf8\x08i@'
p79
tp80
Rp81
ag10
(g14
S'\xc0 \xb0rh\x19l@'
p82
tp83
Rp84
ag10
(g14
S'\xc9\xf5(\\\x8f\nk@'
p85
tp86
Rp87
ag10
(g14
S'\xe2O\x8d\x97n\xfcj@'
p88
tp89
Rp90
ag10
(g14
S'\xcc \xb0rhyj@'
p91
tp92
Rp93
ag10
(g14
S'\x16\x83\xc0\xca\xa1\xbdm@'
p94
tp95
Rp96
ag10
(g14
S'\x16Zd;\xdf\xa9i@'
p97
tp98
Rp99
ag10
(g14
S'\xe8\xd0"\xdb\xf9\x1ej@'
p100
tp101
Rp102
ag10
(g14
S'\xad\xc8v\xbe\x9f\x04k@'
p103
tp104
Rp105
ag10
(g14
S'Z\xbaI\x0c\x02\x89j@'
p106
tp107
Rp108
ag10
(g14
S'\xfdS\xe3\xa5\x9b\xf4j@'
p109
tp110
Rp111
ag10
(g14
S'[9\xb4\xc8v\xcei@'
p112
tp113
Rp114
ag10
(g14
S'2\xb2\x9d\xef\xa7$k@'
p115
tp116
Rp117
ag10
(g14
S'\x10e\xf4\xb6\xac}j@'
p118
tp119
Rp120
ag10
(g14
S'\x19\x83\xc0\xca\xa1;l@'
p121
tp122
Rp123
ag10
(g14
S'v=\n\xd7\xa3:j@'
p124
tp125
Rp126
ag10
(g14
S't\xcd\x85\xa4)\xcfk@'
p127
tp128
Rp129
ag10
(g14
S'\x19/\xdd$\x06\xe7j@'
p130
tp131
Rp132
ag10
(g14
S'\xf4\xfd\xd4x\xe9\xf4j@'
p133
tp134
Rp135
ag10
(g14
S'\x1d/\xdd$\x06Ck@'
p136
tp137
Rp138
asssss.