(dp0
S'../Data/sqlite_28.csv'
p1
(dp2
S'../Data/sqlite_53.csv'
p3
(dp4
F0.15
(dp5
S'mmre'
p6
(dp7
S'bellwether'
p8
(lp9
cnumpy.core.multiarray
scalar
p10
(cnumpy
dtype
p11
(S'f8'
p12
I0
I1
tp13
Rp14
(I3
S'<'
p15
NNNI-1
I-1
I0
tp16
bS'\x9e\x87\x14y\tdX@'
p17
tp18
Rp19
ag10
(g14
S'\xbaJ\x9brZdX@'
p20
tp21
Rp22
ag10
(g14
S'*\xb3\xfdi\xafdX@'
p23
tp24
Rp25
ag10
(g14
S'v\xdd\x14\x01\ndX@'
p26
tp27
Rp28
ag10
(g14
S'\x0fu\xe2\x10\x0bdX@'
p29
tp30
Rp31
ag10
(g14
S'z\xd2\xab\xeakdX@'
p32
tp33
Rp34
ag10
(g14
S':\xaa\xc9\xcc8dX@'
p35
tp36
Rp37
ag10
(g14
S'Y7M"4dX@'
p38
tp39
Rp40
ag10
(g14
S'\x9e\xcb\xf1\xa7\x03dX@'
p41
tp42
Rp43
ag10
(g14
S'8>6WBdX@'
p44
tp45
Rp46
ag10
(g14
S'V\xf85\x08\xc3cX@'
p47
tp48
Rp49
ag10
(g14
S'\x8bk=#qdX@'
p50
tp51
Rp52
ag10
(g14
S'-\x12l*XdX@'
p53
tp54
Rp55
ag10
(g14
S'[\xc4QD7dX@'
p56
tp57
Rp58
ag10
(g14
S'\x85\xf5\xdf\xca@dX@'
p59
tp60
Rp61
ag10
(g14
S'&\r\xd0\xe9@dX@'
p62
tp63
Rp64
ag10
(g14
S'I\x8f\xe9\x00@dX@'
p65
tp66
Rp67
ag10
(g14
S'\x95\\\xb3_\rdX@'
p68
tp69
Rp70
ag10
(g14
S'!\xc7\xc5y\x86dX@'
p71
tp72
Rp73
ag10
(g14
S'\xeeG\x15}8dX@'
p74
tp75
Rp76
asS'target'
p77
(lp78
g10
(g14
S'\xe45\x89\xfdEy\xf2?'
p79
tp80
Rp81
ag10
(g14
S'"\xe3\xf59\xce\x8b\xeb?'
p82
tp83
Rp84
ag10
(g14
S'/\xd8?j\\u\xf5?'
p85
tp86
Rp87
ag10
(g14
S'd:\xcfn\x9d\xdd\xed?'
p88
tp89
Rp90
ag10
(g14
S'\xc7U=\xa2GZ\xf3?'
p91
tp92
Rp93
ag10
(g14
S'\xe9w\xd2M\xb5\x03\xec?'
p94
tp95
Rp96
ag10
(g14
S'F\xa9\x1d\x92v\n\xec?'
p97
tp98
Rp99
ag10
(g14
S'\x1b\xb6\xc8Pv\x13\xeb?'
p100
tp101
Rp102
ag10
(g14
S'Y\xb2\x9eA\x88\x1e\xf3?'
p103
tp104
Rp105
ag10
(g14
S'@\xecVv\xe0S\xf4?'
p106
tp107
Rp108
ag10
(g14
S'\xa69=`\xd6\x17\x01@'
p109
tp110
Rp111
ag10
(g14
S'\x96W\x9b=fI\xeb?'
p112
tp113
Rp114
ag10
(g14
S'\x05\xf3m\xbb?\xb4\xf7?'
p115
tp116
Rp117
ag10
(g14
S'\xd0\xaak\xae=\xcd\xeb?'
p118
tp119
Rp120
ag10
(g14
S'\x1e|%\xb7Dv\xf1?'
p121
tp122
Rp123
ag10
(g14
S';\xd4\r\\\x9bX\xf4?'
p124
tp125
Rp126
ag10
(g14
S',P\xd6B\xb1w\xf0?'
p127
tp128
Rp129
ag10
(g14
S'O\x1ewt.\x01\xef?'
p130
tp131
Rp132
ag10
(g14
S'i\xe9M\x94\xf1\xbb\xf8?'
p133
tp134
Rp135
ag10
(g14
S'W\x0b\xc5\x11\x1e\xce\xf5?'
p136
tp137
Rp138
asssss.