(dp0
S'../Data/sqlite_30.csv'
p1
(dp2
S'../Data/sqlite_73.csv'
p3
(dp4
F0.05
(dp5
S'mmre'
p6
(dp7
S'bellwether'
p8
(lp9
cnumpy.core.multiarray
scalar
p10
(cnumpy
dtype
p11
(S'f8'
p12
I0
I1
tp13
Rp14
(I3
S'<'
p15
NNNI-1
I-1
I0
tp16
bS'\xf3\xc1\x9d\x86\xcfGW@'
p17
tp18
Rp19
ag10
(g14
S'J\xb4:\x14\xb6GW@'
p20
tp21
Rp22
ag10
(g14
S'5\x9cF\x93\xd1GW@'
p23
tp24
Rp25
ag10
(g14
S'K\x94\xae\xe4oGW@'
p26
tp27
Rp28
ag10
(g14
S'n\x1c!\x93\xcfGW@'
p29
tp30
Rp31
ag10
(g14
S'\xd4\xd8\xccQ\x80GW@'
p32
tp33
Rp34
ag10
(g14
S'`K\xaaI\x07GW@'
p35
tp36
Rp37
ag10
(g14
S'9\xca\xb5\xd3\xd0GW@'
p38
tp39
Rp40
ag10
(g14
S'>\xc8S\xbc\xc2GW@'
p41
tp42
Rp43
ag10
(g14
S'\x8d\xaf\xe1n\x14GW@'
p44
tp45
Rp46
ag10
(g14
S's\xf1}\x1c\xcbFW@'
p47
tp48
Rp49
ag10
(g14
S'\x89X\x17\xea\x0cHW@'
p50
tp51
Rp52
ag10
(g14
S'\xbeW\xa2\x10SGW@'
p53
tp54
Rp55
ag10
(g14
S'\xfc\x9f\xa3\xcaBHW@'
p56
tp57
Rp58
ag10
(g14
S'}\x85\xc6\\OGW@'
p59
tp60
Rp61
ag10
(g14
S'xmpW\x9fGW@'
p62
tp63
Rp64
ag10
(g14
S'\x84\x8a=\xa0\x86GW@'
p65
tp66
Rp67
ag10
(g14
S'\xc8\x86\xeb\xdb%HW@'
p68
tp69
Rp70
ag10
(g14
S'\x9dX*;\xddFW@'
p71
tp72
Rp73
ag10
(g14
S'\xcbb+\x03\x89GW@'
p74
tp75
Rp76
asS'target'
p77
(lp78
g10
(g14
S'|\x89W<\xd2+*@'
p79
tp80
Rp81
ag10
(g14
S'\x12 w\x95\xf2g)@'
p82
tp83
Rp84
ag10
(g14
S"6P8\xb6[\xaf'@"
p85
tp86
Rp87
ag10
(g14
S'\x85\xe1\n\xb0\t\xac)@'
p88
tp89
Rp90
ag10
(g14
S'Q\xe45\xdf=\xf3+@'
p91
tp92
Rp93
ag10
(g14
S'wK\xe1\xb5\x1bz+@'
p94
tp95
Rp96
ag10
(g14
S'\xa2F\xd4\xdc\xb3j0@'
p97
tp98
Rp99
ag10
(g14
S'L\xb89u\xb1\xf6*@'
p100
tp101
Rp102
ag10
(g14
S'c\xef\x19\xf7\xdf\x00+@'
p103
tp104
Rp105
ag10
(g14
S'_\xf5\xd6\x044;)@'
p106
tp107
Rp108
ag10
(g14
S'\xc6\x10\xf0Qac,@'
p109
tp110
Rp111
ag10
(g14
S' \x02\xa9\x19\x85\xab-@'
p112
tp113
Rp114
ag10
(g14
S'=\x80+\xed\xab%2@'
p115
tp116
Rp117
ag10
(g14
S'>G\x0c`n\x8b+@'
p118
tp119
Rp120
ag10
(g14
S'Y\x14\x11\xdd\x8c/*@'
p121
tp122
Rp123
ag10
(g14
S'iC~4u\x91+@'
p124
tp125
Rp126
ag10
(g14
S'V\xf8q*\xfc\xec/@'
p127
tp128
Rp129
ag10
(g14
S'\xc7\x98\x85<\xee\xb1,@'
p130
tp131
Rp132
ag10
(g14
S'j\xd2\xeb\xd9\x82\x8e/@'
p133
tp134
Rp135
ag10
(g14
S'\x07\xb0\xda\x1e5Y1@'
p136
tp137
Rp138
asssss.