(dp0
S'../Data/sqlite_70.csv'
p1
(dp2
S'../Data/sqlite_77.csv'
p3
(dp4
F0.2
(dp5
S'mmre'
p6
(dp7
S'bellwether'
p8
(lp9
cnumpy.core.multiarray
scalar
p10
(cnumpy
dtype
p11
(S'f8'
p12
I0
I1
tp13
Rp14
(I3
S'<'
p15
NNNI-1
I-1
I0
tp16
bS'\xc9\x03s\xcf7`N@'
p17
tp18
Rp19
ag10
(g14
S'C\xa4[Z6YN@'
p20
tp21
Rp22
ag10
(g14
S'\xa4-:\xf4o?N@'
p23
tp24
Rp25
ag10
(g14
S'\xfe\xae\xb5\x1b\x84ON@'
p26
tp27
Rp28
ag10
(g14
S'/\xa9d\xc0\xd2yN@'
p29
tp30
Rp31
ag10
(g14
S'^~\xf4\x13MfN@'
p32
tp33
Rp34
ag10
(g14
S'\x15\to~5\\N@'
p35
tp36
Rp37
ag10
(g14
S'*{}\x1e\x9ckN@'
p38
tp39
Rp40
ag10
(g14
S'J\x97\xe3\xd2\x10PN@'
p41
tp42
Rp43
ag10
(g14
S'\x07D\xe7\x97\x01RN@'
p44
tp45
Rp46
ag10
(g14
S'\n\x0c\x04^StN@'
p47
tp48
Rp49
ag10
(g14
S'w~\xb5\xf4gnN@'
p50
tp51
Rp52
ag10
(g14
S'd<2\xab\x85ZN@'
p53
tp54
Rp55
ag10
(g14
S'\xf6\xe51J\x15PN@'
p56
tp57
Rp58
ag10
(g14
S'\x1bV\x8d\xeeSuN@'
p59
tp60
Rp61
ag10
(g14
S'\x8bu\xb4\xed\xec\\N@'
p62
tp63
Rp64
ag10
(g14
S'V(\t4\x85oN@'
p65
tp66
Rp67
ag10
(g14
S'6p"\xe4\x91=N@'
p68
tp69
Rp70
ag10
(g14
S'V\xa3Q%CkN@'
p71
tp72
Rp73
ag10
(g14
S'#\xc6sNGJN@'
p74
tp75
Rp76
asS'target'
p77
(lp78
g10
(g14
S'D\x13!#\x84\xc16@'
p79
tp80
Rp81
ag10
(g14
S'6F\xd81\xfb\xaf4@'
p82
tp83
Rp84
ag10
(g14
S'\xa4\xe4\xc5u\xfc\xb66@'
p85
tp86
Rp87
ag10
(g14
S'\xb2X}\x01\xa7\x9f6@'
p88
tp89
Rp90
ag10
(g14
S'\x9d6\x1a\xd6\xe5b5@'
p91
tp92
Rp93
ag10
(g14
S'\x8b\x1f\x07\xf97\xb76@'
p94
tp95
Rp96
ag10
(g14
S'\x8e\xc0\x177:a6@'
p97
tp98
Rp99
ag10
(g14
S'j\x1e2\x02\x91\xde5@'
p100
tp101
Rp102
ag10
(g14
S':z{<\x8c\xbe7@'
p103
tp104
Rp105
ag10
(g14
S'1Q4\x04\xdeX7@'
p106
tp107
Rp108
ag10
(g14
S'\xc0\xe5\xce\xeaD\x8b5@'
p109
tp110
Rp111
ag10
(g14
S'\xfe\xa8|\xe5Z\x885@'
p112
tp113
Rp114
ag10
(g14
S'j\x0f\xfa]\xabx6@'
p115
tp116
Rp117
ag10
(g14
S'\x80l\xeeH\xcf16@'
p118
tp119
Rp120
ag10
(g14
S'\x9cf \xb9\xb2\xf44@'
p121
tp122
Rp123
ag10
(g14
S'g\xe10\xaa\xd0t5@'
p124
tp125
Rp126
ag10
(g14
S'jUx\xb4\x82T4@'
p127
tp128
Rp129
ag10
(g14
S'r\x99;6\x0e\xe35@'
p130
tp131
Rp132
ag10
(g14
S'd\xb8-\x9dx\xbe5@'
p133
tp134
Rp135
ag10
(g14
S'\x90\x11\x0f\xe7\x87\xd65@'
p136
tp137
Rp138
asssss.