(dp0
S'../Data/sqlite_13.csv'
p1
(dp2
S'../Data/sqlite_89.csv'
p3
(dp4
F0.35
(dp5
S'mmre'
p6
(dp7
S'bellwether'
p8
(lp9
cnumpy.core.multiarray
scalar
p10
(cnumpy
dtype
p11
(S'f8'
p12
I0
I1
tp13
Rp14
(I3
S'<'
p15
NNNI-1
I-1
I0
tp16
bS'u\x1d3\xa0o\x07i@'
p17
tp18
Rp19
ag10
(g14
S'!\x80`\x05\x05\x10i@'
p20
tp21
Rp22
ag10
(g14
S'- \xb9\x15H\x02i@'
p23
tp24
Rp25
ag10
(g14
S'I5\xff\xd6a\xaei@'
p26
tp27
Rp28
ag10
(g14
S'\xecp3(g\xd1h@'
p29
tp30
Rp31
ag10
(g14
S'\x94\xfe\xf6u\xcdHi@'
p32
tp33
Rp34
ag10
(g14
S'i\xb0\xe2\x0c\xaf5i@'
p35
tp36
Rp37
ag10
(g14
S'\x94\x17o\x1c/\x0ei@'
p38
tp39
Rp40
ag10
(g14
S'\xda\xa7E2BPi@'
p41
tp42
Rp43
ag10
(g14
S'\xc5\xbdhIKDi@'
p44
tp45
Rp46
ag10
(g14
S'\x99qa\xaeI(i@'
p47
tp48
Rp49
ag10
(g14
S'\xc1\xd8\xbd\xb7\x0e\xd3h@'
p50
tp51
Rp52
ag10
(g14
S'V\xe7\x039\xdd\xd3h@'
p53
tp54
Rp55
ag10
(g14
S'{U\xd4\xa8x\x12i@'
p56
tp57
Rp58
ag10
(g14
S'\xf8\xbew\xb2a\xedh@'
p59
tp60
Rp61
ag10
(g14
S'S/\xefO\xf0Ei@'
p62
tp63
Rp64
ag10
(g14
S'\xc9\xf6\r\xe7\xaf0i@'
p65
tp66
Rp67
ag10
(g14
S'p#\xe8\xaa\xbd"i@'
p68
tp69
Rp70
ag10
(g14
S',\x02\xde\x08\xbf.i@'
p71
tp72
Rp73
ag10
(g14
S'\n\x19.\xa5\xcc\xd1h@'
p74
tp75
Rp76
asS'target'
p77
(lp78
g10
(g14
S'\x075]\xd1\xed\x1bS@'
p79
tp80
Rp81
ag10
(g14
S'.\x95!\xe9\xa7VP@'
p82
tp83
Rp84
ag10
(g14
S'\x1b,\xbci\t\xe3O@'
p85
tp86
Rp87
ag10
(g14
S'\x07\x02\xe3OL\xccU@'
p88
tp89
Rp90
ag10
(g14
S'\xa2\xb5\x92h\xf8,M@'
p91
tp92
Rp93
ag10
(g14
S'(\xe3\xdc\x82\xf3\xeeP@'
p94
tp95
Rp96
ag10
(g14
S'\x1bS\xbd<(\xb4O@'
p97
tp98
Rp99
ag10
(g14
S'/3\xf0Ds\x0bU@'
p100
tp101
Rp102
ag10
(g14
S';\x1b\x87\xc5C\xa3T@'
p103
tp104
Rp105
ag10
(g14
S'C\xd7\x9f N\xfaS@'
p106
tp107
Rp108
ag10
(g14
S'@c\t\x07q\x1eR@'
p109
tp110
Rp111
ag10
(g14
S'y5\xa9\xf0\xe5[S@'
p112
tp113
Rp114
ag10
(g14
S'4gY\xefTVP@'
p115
tp116
Rp117
ag10
(g14
S'\x94$kWb\x07M@'
p118
tp119
Rp120
ag10
(g14
S'\x1e\x1b\x05_\x12FN@'
p121
tp122
Rp123
ag10
(g14
S'\xdeJVp\xd1XO@'
p124
tp125
Rp126
ag10
(g14
S'\x9d\n\xfc\xc0\x12SR@'
p127
tp128
Rp129
ag10
(g14
S'\x052\xaa\x06\x05NN@'
p130
tp131
Rp132
ag10
(g14
S'V\xa0\xb3q\xa0_N@'
p133
tp134
Rp135
ag10
(g14
S'\x9b\ri\x81\x94eO@'
p136
tp137
Rp138
asssss.