(dp0
S'../Data/sqlite_32.csv'
p1
(dp2
S'../Data/sqlite_49.csv'
p3
(dp4
F0.2
(dp5
S'abs_res'
p6
(dp7
S'bellwether'
p8
(lp9
cnumpy.core.multiarray
scalar
p10
(cnumpy
dtype
p11
(S'f8'
p12
I0
I1
tp13
Rp14
(I3
S'<'
p15
NNNI-1
I-1
I0
tp16
bS'\xa4p=\x8a\xd7fBA'
p17
tp18
Rp19
ag10
(g14
S'\x9d\x1a/\x1d\xa9gBA'
p20
tp21
Rp22
ag10
(g14
S')\xdd$6\xf2gBA'
p23
tp24
Rp25
ag10
(g14
S'\xaf\x1cZ\xa4\x00gBA'
p26
tp27
Rp28
ag10
(g14
S'\x8f\xc2\xf5\x88\xf2fBA'
p29
tp30
Rp31
ag10
(g14
S'\xaa\xf1\xd2\xdd\x0edBA'
p32
tp33
Rp34
ag10
(g14
S'\x04\xac\x1c*6gBA'
p35
tp36
Rp37
ag10
(g14
S'y?5>\xb9cBA'
p38
tp39
Rp40
ag10
(g14
S'\x18\xb0r(\x87gBA'
p41
tp42
Rp43
ag10
(g14
S'k;\xdf\xaf\xe8fBA'
p44
tp45
Rp46
ag10
(g14
S'u\x14\xae\x17CgBA'
p47
tp48
Rp49
ag10
(g14
S'\xd7$\x06AJgBA'
p50
tp51
Rp52
ag10
(g14
S'\xf4S\xe3\x15TgBA'
p53
tp54
Rp55
ag10
(g14
S'b\xbaI\\:gBA'
p56
tp57
Rp58
ag10
(g14
S'\xe3\xd0"\xeb\xf4fBA'
p59
tp60
Rp61
ag10
(g14
S'\xd8\xf9~\x9avgBA'
p62
tp63
Rp64
ag10
(g14
S'J7\x89A\xbcdBA'
p65
tp66
Rp67
ag10
(g14
S'\xba\xc8v\xeeqgBA'
p68
tp69
Rp70
ag10
(g14
S'2^\xbaicgBA'
p71
tp72
Rp73
ag10
(g14
S'~?5~\xd9fBA'
p74
tp75
Rp76
asS'target'
p77
(lp78
g10
(g14
S'\x85j\xbct\x93\x14f@'
p79
tp80
Rp81
ag10
(g14
S'\xefO\x8d\x97n\xeef@'
p82
tp83
Rp84
ag10
(g14
S'\xad\x9b\xc4 \xb0>f@'
p85
tp86
Rp87
ag10
(g14
S'\xddz\x14\xaeGAf@'
p88
tp89
Rp90
ag10
(g14
S'\xb8\xf3\xfd\xd4x\xf1e@'
p91
tp92
Rp93
ag10
(g14
S'\x13\x02+\x87\x16-f@'
p94
tp95
Rp96
ag10
(g14
S'7^\xbaI\x0c\xcef@'
p97
tp98
Rp99
ag10
(g14
S'Yb\x10X9\xa4f@'
p100
tp101
Rp102
ag10
(g14
S'f\xbct\x93\x18\xd4e@'
p103
tp104
Rp105
ag10
(g14
S'\xc0K7\x89A\x98h@'
p106
tp107
Rp108
ag10
(g14
S'\x19\x06\x81\x95C\xf7e@'
p109
tp110
Rp111
ag10
(g14
S't\x12\x83\xc0\xca\x15f@'
p112
tp113
Rp114
ag10
(g14
S'L\x8d\x97n\x12\xb3f@'
p115
tp116
Rp117
ag10
(g14
S'\r-\xb2\x9d\xef\xebd@'
p118
tp119
Rp120
ag10
(g14
S'vh\x91\xed|\xd3f@'
p121
tp122
Rp123
ag10
(g14
S'^d;\xdfO\x85h@'
p124
tp125
Rp126
ag10
(g14
S'\x1d/\xdd$\x06\xb5f@'
p127
tp128
Rp129
ag10
(g14
S'C\x8bl\xe7\xfb\xf9f@'
p130
tp131
Rp132
ag10
(g14
S'p\xbct\x93\x18\x08g@'
p133
tp134
Rp135
ag10
(g14
S'<\x08\xac\x1cZ4e@'
p136
tp137
Rp138
asssss.