(dp0
S'../Data/sqlite_78.csv'
p1
(dp2
S'../Data/sqlite_4.csv'
p3
(dp4
F0.25
(dp5
S'abs_res'
p6
(dp7
S'bellwether'
p8
(lp9
cnumpy.core.multiarray
scalar
p10
(cnumpy
dtype
p11
(S'f8'
p12
I0
I1
tp13
Rp14
(I3
S'<'
p15
NNNI-1
I-1
I0
tp16
bS'\xd8\xa3pM\xf6/=A'
p17
tp18
Rp19
ag10
(g14
S'{Y\xab\xc3\xc6/=A'
p20
tp21
Rp22
ag10
(g14
S'T\x0e-2J1=A'
p23
tp24
Rp25
ag10
(g14
S'(\xbfX\x825/=A'
p26
tp27
Rp28
ag10
(g14
S'\xeaQ\xb8N\xfe2=A'
p29
tp30
Rp31
ag10
(g14
S'\x19K~ax0=A'
p32
tp33
Rp34
ag10
(g14
S'=\xfb\xf0\x19?1=A'
p35
tp36
Rp37
ag10
(g14
S'\xed\xc3g\xa8\x8e2=A'
p38
tp39
Rp40
ag10
(g14
S']\x10X\x89\xb1/=A'
p41
tp42
Rp43
ag10
(g14
S'\x08\xf3D-\xc51=A'
p44
tp45
Rp46
ag10
(g14
S'\xa2T\x9c\xfd\x840=A'
p47
tp48
Rp49
ag10
(g14
S'G~\xb1\xe460=A'
p50
tp51
Rp52
ag10
(g14
S'W\xe5\xd0\xd2l0=A'
p53
tp54
Rp55
ag10
(g14
S'\xf8q\xaf\xc9\x0c0=A'
p56
tp57
Rp58
ag10
(g14
S'2\\\x8f\xc2e0=A'
p59
tp60
Rp61
ag10
(g14
S'\xc3\xe6B2\xed/=A'
p62
tp63
Rp64
ag10
(g14
S'\xb0\xf1\xd2=T0=A'
p65
tp66
Rp67
ag10
(g14
S'\x9d\x18\x04\xe6\x922=A'
p68
tp69
Rp70
ag10
(g14
S'\xdaMbP\x150=A'
p71
tp72
Rp73
ag10
(g14
S'}\xc0\xca\x11\t0=A'
p74
tp75
Rp76
asS'target'
p77
(lp78
g10
(g14
S'\x05\x00\x00\x00\x808\xd1@'
p79
tp80
Rp81
ag10
(g14
S'jfff\xe6r\xd2@'
p82
tp83
Rp84
ag10
(g14
S'\xa3\x99\x99\x99\x19<\xd2@'
p85
tp86
Rp87
ag10
(g14
S'\x97\x99\x99\x99)8\xd1@'
p88
tp89
Rp90
ag10
(g14
S'cfff\xa65\xd1@'
p91
tp92
Rp93
ag10
(g14
S'2333#F\xd2@'
p94
tp95
Rp96
ag10
(g14
S':333\x13\xd8\xd1@'
p97
tp98
Rp99
ag10
(g14
S']fff\x060\xd2@'
p100
tp101
Rp102
ag10
(g14
S'afff\x06l\xd2@'
p103
tp104
Rp105
ag10
(g14
S'\xfc\xff\xff\xff\x8f\xf6\xd2@'
p106
tp107
Rp108
ag10
(g14
S'\x95\x99\x99\x99)\xdc\xd0@'
p109
tp110
Rp111
ag10
(g14
S'cfff\x86\xc3\xd1@'
p112
tp113
Rp114
ag10
(g14
S'[fff\x96b\xd2@'
p115
tp116
Rp117
ag10
(g14
S'/333S\xec\xd1@'
p118
tp119
Rp120
ag10
(g14
S'cffffU\xd2@'
p121
tp122
Rp123
ag10
(g14
S'-333s\x16\xd1@'
p124
tp125
Rp126
ag10
(g14
S'5333\x83\xed\xd1@'
p127
tp128
Rp129
ag10
(g14
S'gfffv\xbd\xd1@'
p130
tp131
Rp132
ag10
(g14
S'\x9c\x99\x99\x99Y\xc8\xd1@'
p133
tp134
Rp135
ag10
(g14
S'03333\xf7\xd1@'
p136
tp137
Rp138
asssss.