(dp0
S'../Data/sqlite_66.csv'
p1
(dp2
S'../Data/sqlite_94.csv'
p3
(dp4
F0.05
(dp5
S'mmre'
p6
(dp7
S'bellwether'
p8
(lp9
cnumpy.core.multiarray
scalar
p10
(cnumpy
dtype
p11
(S'f8'
p12
I0
I1
tp13
Rp14
(I3
S'<'
p15
NNNI-1
I-1
I0
tp16
bS's\x10pp\xccWF@'
p17
tp18
Rp19
ag10
(g14
S'\xd2\x03\x15\x04g-F@'
p20
tp21
Rp22
ag10
(g14
S'\x1d\xc0\xa4<\x83LF@'
p23
tp24
Rp25
ag10
(g14
S'\x0c\xaa6\xe9\xdfTF@'
p26
tp27
Rp28
ag10
(g14
S'yT\x1e4\x04-F@'
p29
tp30
Rp31
ag10
(g14
S']\x82\xd1\x83eHF@'
p32
tp33
Rp34
ag10
(g14
S'j\xc3s\xceXFF@'
p35
tp36
Rp37
ag10
(g14
S'\xd0\xc5`\x8d\x19\x83F@'
p38
tp39
Rp40
ag10
(g14
S'8\x05\x03z[MF@'
p41
tp42
Rp43
ag10
(g14
S"'*\xeb\x08\xcefF@"
p44
tp45
Rp46
ag10
(g14
S'\x89jPwHAF@'
p47
tp48
Rp49
ag10
(g14
S'\x95s\x00\xa4\xe9jF@'
p50
tp51
Rp52
ag10
(g14
S'\xb6\xcb[\xd3-QF@'
p53
tp54
Rp55
ag10
(g14
S's\xc8\rI?:F@'
p56
tp57
Rp58
ag10
(g14
S'\xa0\xb2A@\xb8fF@'
p59
tp60
Rp61
ag10
(g14
S'\xb6\xa0\xc7\x02\xbbBF@'
p62
tp63
Rp64
ag10
(g14
S'\x97@\x11G\x1aDF@'
p65
tp66
Rp67
ag10
(g14
S'\xf4\x16q\xb9OfF@'
p68
tp69
Rp70
ag10
(g14
S'#}\xcdg\xdfaF@'
p71
tp72
Rp73
ag10
(g14
S'\xb3\xbb}\xe4 ^F@'
p74
tp75
Rp76
asS'target'
p77
(lp78
g10
(g14
S'k\xca_\xb176W@'
p79
tp80
Rp81
ag10
(g14
S'C\xfb\x8fa\xc8\x99W@'
p82
tp83
Rp84
ag10
(g14
S'\x91\x19p\xa6\xfa\x1fD@'
p85
tp86
Rp87
ag10
(g14
S'\x7f\x19\xa2FtoU@'
p88
tp89
Rp90
ag10
(g14
S')\x864\xe7y\xc1U@'
p91
tp92
Rp93
ag10
(g14
S'\x97n\xae\xa3\x08\n[@'
p94
tp95
Rp96
ag10
(g14
S'\xae\xe97\xca\xfe6E@'
p97
tp98
Rp99
ag10
(g14
S'\xd6\x1fG\xd1\x82\xa2`@'
p100
tp101
Rp102
ag10
(g14
S'>\xe5s@:e@@'
p103
tp104
Rp105
ag10
(g14
S'G\xf2\x05L\x89\x99U@'
p106
tp107
Rp108
ag10
(g14
S'\x81\xfd\xafh\x11&T@'
p109
tp110
Rp111
ag10
(g14
S'1Yi:}\xe7V@'
p112
tp113
Rp114
ag10
(g14
S'\xd9c#@\xf6_C@'
p115
tp116
Rp117
ag10
(g14
S'\xfbJ\xf9\xa4\xfa$W@'
p118
tp119
Rp120
ag10
(g14
S'\x8c\x08\xd9\xfdV\xf2L@'
p121
tp122
Rp123
ag10
(g14
S'\x85\x08\x9f\x05\x12\xf8V@'
p124
tp125
Rp126
ag10
(g14
S'\xb2\xb5o6\xaa\x90C@'
p127
tp128
Rp129
ag10
(g14
S'\xcf/\xcb\x1b\xa5RX@'
p130
tp131
Rp132
ag10
(g14
S'\x8d\xe2\xe0\xb1\xfe\xe2O@'
p133
tp134
Rp135
ag10
(g14
S't\x06{\xa2tVW@'
p136
tp137
Rp138
asssss.