(dp0
S'../Data/sqlite_41.csv'
p1
(dp2
S'../Data/sqlite_90.csv'
p3
(dp4
F0.25
(dp5
S'mmre'
p6
(dp7
S'bellwether'
p8
(lp9
cnumpy.core.multiarray
scalar
p10
(cnumpy
dtype
p11
(S'f8'
p12
I0
I1
tp13
Rp14
(I3
S'<'
p15
NNNI-1
I-1
I0
tp16
bS'\xb1\x9f\x03\xef\x96LT@'
p17
tp18
Rp19
ag10
(g14
S'\xf1\x05\rg\x13FT@'
p20
tp21
Rp22
ag10
(g14
S'G\x0e\xe7O\x96^T@'
p23
tp24
Rp25
ag10
(g14
S'\x12\xc9A\xbb|IT@'
p26
tp27
Rp28
ag10
(g14
S'\x19VZ.gcT@'
p29
tp30
Rp31
ag10
(g14
S'\xdb@\xf6\xa1mZT@'
p32
tp33
Rp34
ag10
(g14
S'\x7f\x9c\xeaxiHT@'
p35
tp36
Rp37
ag10
(g14
S'\xfa\xd5>\xb5\xde\\T@'
p38
tp39
Rp40
ag10
(g14
S'\x7f|F\x82\x91JT@'
p41
tp42
Rp43
ag10
(g14
S'o%2\xb6UVT@'
p44
tp45
Rp46
ag10
(g14
S'\x05nr\xe2\x05HT@'
p47
tp48
Rp49
ag10
(g14
S'|\xcf*q\x9b[T@'
p50
tp51
Rp52
ag10
(g14
S'\xd6\xd5\xb1E\x13DT@'
p53
tp54
Rp55
ag10
(g14
S"OVM\x14'CT@"
p56
tp57
Rp58
ag10
(g14
S'iC\n*\x1a@T@'
p59
tp60
Rp61
ag10
(g14
S'^\xe7m\r\xccMT@'
p62
tp63
Rp64
ag10
(g14
S'\xfe \xdb\xeboeT@'
p65
tp66
Rp67
ag10
(g14
S'\xfe\x183\xbe\xf7MT@'
p68
tp69
Rp70
ag10
(g14
S'\xf4\xc1\x8b\xfd\xabMT@'
p71
tp72
Rp73
ag10
(g14
S'\x8dYl\xcb\xd0GT@'
p74
tp75
Rp76
asS'target'
p77
(lp78
g10
(g14
S'\xe6`\x80\xaaK\xeb?@'
p79
tp80
Rp81
ag10
(g14
S"`';~5\xdd@@"
p82
tp83
Rp84
ag10
(g14
S'\xe3\xd3\xa4>G\xf0@@'
p85
tp86
Rp87
ag10
(g14
S'Sa\x82\xb0\xe7\xabA@'
p88
tp89
Rp90
ag10
(g14
S'\xba\xe6k;\xbf\x85@@'
p91
tp92
Rp93
ag10
(g14
S'\xc0\xe4r\xd4,\xeeA@'
p94
tp95
Rp96
ag10
(g14
S'\xefG\x80\x92\xa3\x97A@'
p97
tp98
Rp99
ag10
(g14
S'\x8ck47K\xfa@@'
p100
tp101
Rp102
ag10
(g14
S'\xc3\x02b\x91"\x01A@'
p103
tp104
Rp105
ag10
(g14
S'\xc0\n\xd9\x1b\x10!B@'
p106
tp107
Rp108
ag10
(g14
S'\x8f\x84\xed\xec+\xcfB@'
p109
tp110
Rp111
ag10
(g14
S'\x154\xa3\xae\xb3%@@'
p112
tp113
Rp114
ag10
(g14
S'\xf7\x05bj\x00\x05C@'
p115
tp116
Rp117
ag10
(g14
S'\xc0\x8a\xdf\xfb\x82%A@'
p118
tp119
Rp120
ag10
(g14
S'\xb1\r\xce$\xdfaA@'
p121
tp122
Rp123
ag10
(g14
S'\x19\x91\xe3.\xbd\xe9@@'
p124
tp125
Rp126
ag10
(g14
S'\x1d2c\xbdC|?@'
p127
tp128
Rp129
ag10
(g14
S'"\xc6]x\xf4A@@'
p130
tp131
Rp132
ag10
(g14
S'\x02\xe0\x0b\xday\xd9A@'
p133
tp134
Rp135
ag10
(g14
S',\xac\xc5\xec!(@@'
p136
tp137
Rp138
asssss.