(dp0
S'../Data/sqlite_1.csv'
p1
(dp2
S'../Data/sqlite_23.csv'
p3
(dp4
F0.15
(dp5
S'abs_res'
p6
(dp7
S'bellwether'
p8
(lp9
cnumpy.core.multiarray
scalar
p10
(cnumpy
dtype
p11
(S'f8'
p12
I0
I1
tp13
Rp14
(I3
S'<'
p15
NNNI-1
I-1
I0
tp16
bS'\x89\xfa72\xf5Q@A'
p17
tp18
Rp19
ag10
(g14
S'Y\x8f\xc2\x95JR@A'
p20
tp21
Rp22
ag10
(g14
S'O\x8d\x97\xee"R@A'
p23
tp24
Rp25
ag10
(g14
S'*$M\x99\xdbQ@A'
p26
tp27
Rp28
ag10
(g14
S')1\x08\x1c\xdaQ@A'
p29
tp30
Rp31
ag10
(g14
S'\xba\x1e\x85[<R@A'
p32
tp33
Rp34
ag10
(g14
S'\x0e-\xb2}\x97Q@A'
p35
tp36
Rp37
ag10
(g14
S'\x0c-\xb2-_Q@A'
p38
tp39
Rp40
ag10
(g14
S'H\xf0`n\x1fR@A'
p41
tp42
Rp43
ag10
(g14
S'"\xdb\xf9\xee\xb6Q@A'
p44
tp45
Rp46
ag10
(g14
S'\x8el\xe7;\xe2Q@A'
p47
tp48
Rp49
ag10
(g14
S'\xe6B\xd2\xb4\x84Q@A'
p50
tp51
Rp52
ag10
(g14
S'\x8a\xde\x96\x15,R@A'
p53
tp54
Rp55
ag10
(g14
S'\x1f\xe8\xb4q\x16R@A'
p56
tp57
Rp58
ag10
(g14
S'\xe8\xd0"\xbb\xf3Q@A'
p59
tp60
Rp61
ag10
(g14
S'`\x10X)QQ@A'
p62
tp63
Rp64
ag10
(g14
S'*\x87\x16\xd9\xb1Q@A'
p65
tp66
Rp67
ag10
(g14
S'\x1f\x85\xeb\xd1\x93Q@A'
p68
tp69
Rp70
ag10
(g14
S'\xc7v\xbe_\xccQ@A'
p71
tp72
Rp73
ag10
(g14
S'`W\x80\\?R@A'
p74
tp75
Rp76
asS'target'
p77
(lp78
g10
(g14
S'%\x04V\x0e-\xd2?@'
p79
tp80
Rp81
ag10
(g14
S'~\x95C\x8bl\xc7@@'
p82
tp83
Rp84
ag10
(g14
S'\x8b\x97n\x12\x83(A@'
p85
tp86
Rp87
ag10
(g14
S'\x93\xed|?5^>@'
p88
tp89
Rp90
ag10
(g14
S'\xde$\x06\x81\x95\xa3=@'
p91
tp92
Rp93
ag10
(g14
S'\xf1Q\xb8\x1e\x85\x1b=@'
p94
tp95
Rp96
ag10
(g14
S'\x07\xd5x\xe9&\x11A@'
p97
tp98
Rp99
ag10
(g14
S'\xec|?5^\xba>@'
p100
tp101
Rp102
ag10
(g14
S's\x12\x83\xc0\xca\x91A@'
p103
tp104
Rp105
ag10
(g14
S'\x97\x18\x04V\x0e}B@'
p106
tp107
Rp108
ag10
(g14
S'H7\x89A`\xb5@@'
p109
tp110
Rp111
ag10
(g14
S'03333SA@'
p112
tp113
Rp114
ag10
(g14
S'\\\xbaI\x0c\x02\xb3B@'
p115
tp116
Rp117
ag10
(g14
S'\xd1v\xbe\x9f\x1a/@@'
p118
tp119
Rp120
ag10
(g14
S'\x9aC\x8bl\xe7\xdb?@'
p121
tp122
Rp123
ag10
(g14
S"'\xdb\xf9~j\xfc@@"
p124
tp125
Rp126
ag10
(g14
S';\xdfO\x8d\x97\xbe@@'
p127
tp128
Rp129
ag10
(g14
S'\x83j\xbct\x93x>@'
p130
tp131
Rp132
ag10
(g14
S'\x90\xef\xa7\xc6K\xb7>@'
p133
tp134
Rp135
ag10
(g14
S'\xe9\xfb\xa9\xf1\xd2\xfd=@'
p136
tp137
Rp138
asssss.