(dp0
S'../Data/sqlite_34.csv'
p1
(dp2
S'../Data/sqlite_50.csv'
p3
(dp4
F0.1
(dp5
S'mmre'
p6
(dp7
S'bellwether'
p8
(lp9
cnumpy.core.multiarray
scalar
p10
(cnumpy
dtype
p11
(S'f8'
p12
I0
I1
tp13
Rp14
(I3
S'<'
p15
NNNI-1
I-1
I0
tp16
bS'\xa5^\xb4\x82\x19pn@'
p17
tp18
Rp19
ag10
(g14
S'\xdb\xc2j\n\xd0hn@'
p20
tp21
Rp22
ag10
(g14
S'u_tnLkn@'
p23
tp24
Rp25
ag10
(g14
S'f\xf5\xa9\r\xdfdn@'
p26
tp27
Rp28
ag10
(g14
S'yL\xd6\x90Khn@'
p29
tp30
Rp31
ag10
(g14
S'\x19\xa7\xfd\xf0R`n@'
p32
tp33
Rp34
ag10
(g14
S'\x9a 22$cn@'
p35
tp36
Rp37
ag10
(g14
S'\x08\x17\x14\x0e0nn@'
p38
tp39
Rp40
ag10
(g14
S'\x08d|\xe3\xdchn@'
p41
tp42
Rp43
ag10
(g14
S'\x1fl\x08\xa9B^n@'
p44
tp45
Rp46
ag10
(g14
S'\xebo\xf61+kn@'
p47
tp48
Rp49
ag10
(g14
S'\xcc\xa6\n[\xf2\\n@'
p50
tp51
Rp52
ag10
(g14
S'\xe8\r6\x8dT^n@'
p53
tp54
Rp55
ag10
(g14
S'p\x19`\x99\xb2`n@'
p56
tp57
Rp58
ag10
(g14
S'\xf9%\x0f\xc2\xe7mn@'
p59
tp60
Rp61
ag10
(g14
S'\xf1E\x1a\xb59fn@'
p62
tp63
Rp64
ag10
(g14
S'C]\x10\xb2\x8edn@'
p65
tp66
Rp67
ag10
(g14
S'@c;g\xbedn@'
p68
tp69
Rp70
ag10
(g14
S'\x87C\tR|`n@'
p71
tp72
Rp73
ag10
(g14
S'\x0b5\xa4\x9fzen@'
p74
tp75
Rp76
asS'target'
p77
(lp78
g10
(g14
S'RHnx6\x82\xff?'
p79
tp80
Rp81
ag10
(g14
S'L9\x0e>\xaf\xf5\x02@'
p82
tp83
Rp84
ag10
(g14
S'\x87\x8d%O\xcc\xfb\xff?'
p85
tp86
Rp87
ag10
(g14
S'\xf5\xea\x9c1\xb3\xb8\x00@'
p88
tp89
Rp90
ag10
(g14
S'\x11:YCm~\xff?'
p91
tp92
Rp93
ag10
(g14
S'<k22la\xfe?'
p94
tp95
Rp96
ag10
(g14
S'\xe9\x85\xff\xd5N\x14\x00@'
p97
tp98
Rp99
ag10
(g14
S'"-\xd6\xcfCI\xfe?'
p100
tp101
Rp102
ag10
(g14
S'\xe2\x11D\xbd\x07F\xff?'
p103
tp104
Rp105
ag10
(g14
S'I\xaeA\xdb\x12,\xff?'
p106
tp107
Rp108
ag10
(g14
S'\x9c\x93\x05\x9b\xa3\x8c\xff?'
p109
tp110
Rp111
ag10
(g14
S'T\x99g#\xce\x8a\xfe?'
p112
tp113
Rp114
ag10
(g14
S'I\xbaE^\x08\x12\x00@'
p115
tp116
Rp117
ag10
(g14
S'L\xb7.\x11\xb1^\xfa?'
p118
tp119
Rp120
ag10
(g14
S'\x99Y\xdaC!\x96\x00@'
p121
tp122
Rp123
ag10
(g14
S'uQ\x808m\x7f\x00@'
p124
tp125
Rp126
ag10
(g14
S'[\xb7\xeaK\x84\xb0\x02@'
p127
tp128
Rp129
ag10
(g14
S'2\xba\xd4e\x14\xa8\xff?'
p130
tp131
Rp132
ag10
(g14
S'vs9\x98\xc2c\xfb?'
p133
tp134
Rp135
ag10
(g14
S'u\x8c~k\rS\x01@'
p136
tp137
Rp138
asssss.