(dp0
S'../Data/sqlite_66.csv'
p1
(dp2
S'../Data/sqlite_65.csv'
p3
(dp4
F0.2
(dp5
S'abs_res'
p6
(dp7
S'bellwether'
p8
(lp9
cnumpy.core.multiarray
scalar
p10
(cnumpy
dtype
p11
(S'f8'
p12
I0
I1
tp13
Rp14
(I3
S'<'
p15
NNNI-1
I-1
I0
tp16
bS'1ku\x8c /!A'
p17
tp18
Rp19
ag10
(g14
S'www\xf7\x81/!A'
p20
tp21
Rp22
ag10
(g14
S'\xe1\x17K\xbea/!A'
p23
tp24
Rp25
ag10
(g14
S'\x0b\x11\x11Q\xef-!A'
p26
tp27
Rp28
ag10
(g14
S'\xa0}\xf8\x8c\x91.!A'
p29
tp30
Rp31
ag10
(g14
S'\xb1rh\xd1".!A'
p32
tp33
Rp34
ag10
(g14
S'\xe7\xfb\xa91\x88.!A'
p35
tp36
Rp37
ag10
(g14
S'\x9a\xa8\x7fct.!A'
p38
tp39
Rp40
ag10
(g14
S'\xb1e\xad\x8eN/!A'
p41
tp42
Rp43
ag10
(g14
S'\xf6\x0c\xbb\xc2\x0e/!A'
p44
tp45
Rp46
ag10
(g14
S'\xab\x1cZ\xa4|.!A'
p47
tp48
Rp49
ag10
(g14
S'\xe5\xa7\xc6\x8b\xc4.!A'
p50
tp51
Rp52
ag10
(g14
S'\xfa\xd4xi./!A'
p53
tp54
Rp55
ag10
(g14
S'p\x842\xfaM.!A'
p56
tp57
Rp58
ag10
(g14
S'\x9f\xef\xa7\x06t/!A'
p59
tp60
Rp61
ag10
(g14
S'.\xb2\x9d\xefb/!A'
p62
tp63
Rp64
ag10
(g14
S'M\x1b\xe8t\x02/!A'
p65
tp66
Rp67
ag10
(g14
S',\xbfX29/!A'
p68
tp69
Rp70
ag10
(g14
S'?\x19\xbd\xad\x13/!A'
p71
tp72
Rp73
ag10
(g14
S'\xd4\xa3p\xbdt.!A'
p74
tp75
Rp76
asS'target'
p77
(lp78
g10
(g14
S'9\n\xd7\xa3p\x11Z@'
p79
tp80
Rp81
ag10
(g14
S'\x00\xd5x\xe9&A\\@'
p82
tp83
Rp84
ag10
(g14
S'\xafrh\x91\xedD\\@'
p85
tp86
Rp87
ag10
(g14
S'\xe1O\x8d\x97n\xfa[@'
p88
tp89
Rp90
ag10
(g14
S'\xca\xf5(\\\x8fr^@'
p91
tp92
Rp93
ag10
(g14
S'|\xbe\x9f\x1a/1[@'
p94
tp95
Rp96
ag10
(g14
S'9`\xe5\xd0"c[@'
p97
tp98
Rp99
ag10
(g14
S'\x80\x16\xd9\xce\xf7\x93^@'
p100
tp101
Rp102
ag10
(g14
S'\xe5O\x8d\x97nbW@'
p103
tp104
Rp105
ag10
(g14
S'q\xbct\x93\x18\x8cY@'
p106
tp107
Rp108
ag10
(g14
S'\x0e\xac\x1cZd\xd7Z@'
p109
tp110
Rp111
ag10
(g14
S'G\x8bl\xe7\xfb\xe1Z@'
p112
tp113
Rp114
ag10
(g14
S'o\xbct\x93\x18\x8c]@'
p115
tp116
Rp117
ag10
(g14
S's\x12\x83\xc0\xca\xb5X@'
p118
tp119
Rp120
ag10
(g14
S',1\x08\xac\x1c\x8a_@'
p121
tp122
Rp123
ag10
(g14
S'\xf4\xd2Mb\x10\x00X@'
p124
tp125
Rp126
ag10
(g14
S'93333\xf3Z@'
p127
tp128
Rp129
ag10
(g14
S'\xaarh\x91\xed\x0cX@'
p130
tp131
Rp132
ag10
(g14
S'\xca\xf5(\\\x8f\x16Z@'
p133
tp134
Rp135
ag10
(g14
S'E\n\xd7\xa3p\xbdY@'
p136
tp137
Rp138
asssss.