(dp0
S'../Data/sqlite_3.csv'
p1
(dp2
S'../Data/sqlite_17.csv'
p3
(dp4
F0.3
(dp5
S'abs_res'
p6
(dp7
S'bellwether'
p8
(lp9
cnumpy.core.multiarray
scalar
p10
(cnumpy
dtype
p11
(S'f8'
p12
I0
I1
tp13
Rp14
(I3
S'<'
p15
NNNI-1
I-1
I0
tp16
bS'\x13\xaeG\xe1z0f@'
p17
tp18
Rp19
ag10
(g14
S'2^\xbaI\x0c\nf@'
p20
tp21
Rp22
ag10
(g14
S'\x03\x00\x00\x00\x00\xe2e@'
p23
tp24
Rp25
ag10
(g14
S'|?5^\xba/f@'
p26
tp27
Rp28
ag10
(g14
S'\xcb\xf5(\\\x8f\x1af@'
p29
tp30
Rp31
ag10
(g14
S'\x1aX9\xb4\xc8\xf4f@'
p32
tp33
Rp34
ag10
(g14
S'\xab\xc6K7\x89Uf@'
p35
tp36
Rp37
ag10
(g14
S'm\x91\xed|?ke@'
p38
tp39
Rp40
ag10
(g14
S'\xc3K7\x89A\xcce@'
p41
tp42
Rp43
ag10
(g14
S'\x1b\xdb\xf9~j&g@'
p44
tp45
Rp46
ag10
(g14
S'\xdc\xce\xf7S\xe3Ef@'
p47
tp48
Rp49
ag10
(g14
S'\xb5\x9f\x1a/\xdd~e@'
p50
tp51
Rp52
ag10
(g14
S'\xa2\x1a/\xdd$\x84f@'
p53
tp54
Rp55
ag10
(g14
S'\xb4\x9d\xef\xa7\xc6\xf5e@'
p56
tp57
Rp58
ag10
(g14
S'Wb\x10X9Hf@'
p59
tp60
Rp61
ag10
(g14
S'\x05\xaa\xf1\xd2M\xeae@'
p62
tp63
Rp64
ag10
(g14
S'\xf6|?5^\xacf@'
p65
tp66
Rp67
ag10
(g14
S'<\xdfO\x8d\x97zf@'
p68
tp69
Rp70
ag10
(g14
S'$Zd;\xdf\x97f@'
p71
tp72
Rp73
ag10
(g14
S'(\x06\x81\x95C\xf5e@'
p74
tp75
Rp76
asS'target'
p77
(lp78
g10
(g14
S'Jb\x10X9\x9af@'
p79
tp80
Rp81
ag10
(g14
S';\n\xd7\xa3pik@'
p82
tp83
Rp84
ag10
(g14
S'\x93C\x8bl\xe75h@'
p85
tp86
Rp87
ag10
(g14
S',3333;h@'
p88
tp89
Rp90
ag10
(g14
S'&\x87\x16\xd9\xce\x07g@'
p91
tp92
Rp93
ag10
(g14
S"\x80\xebQ\xb8\x1e'f@"
p94
tp95
Rp96
ag10
(g14
S'\x8fA`\xe5\xd0\x06k@'
p97
tp98
Rp99
ag10
(g14
S'\x08V\x0e-\xb2\tk@'
p100
tp101
Rp102
ag10
(g14
S'\x91\x18\x04V\x0ecg@'
p103
tp104
Rp105
ag10
(g14
S'jffff\x02g@'
p106
tp107
Rp108
ag10
(g14
S'\x96l\xe7\xfb\xa9!g@'
p109
tp110
Rp111
ag10
(g14
S'4\xdd$\x06\x81{g@'
p112
tp113
Rp114
ag10
(g14
S'\xef\xd2Mb\x10\x90g@'
p115
tp116
Rp117
ag10
(g14
S'M\x0e-\xb2\x9dKj@'
p118
tp119
Rp120
ag10
(g14
S'\x08\x83\xc0\xca\xa1ug@'
p121
tp122
Rp123
ag10
(g14
S'8\xb4\xc8v\xbeMj@'
p124
tp125
Rp126
ag10
(g14
S'\xb6G\xe1z\x14\x18h@'
p127
tp128
Rp129
ag10
(g14
S'\x9a\xebQ\xb8\x1eMf@'
p130
tp131
Rp132
ag10
(g14
S'\xef\xa7\xc6K7\x95g@'
p133
tp134
Rp135
ag10
(g14
S'<\xb6\xf3\xfd\xd4\xb0h@'
p136
tp137
Rp138
asssss.