(dp0
S'../Data/sqlite_1.csv'
p1
(dp2
S'../Data/sqlite_2.csv'
p3
(dp4
F0.1
(dp5
S'abs_res'
p6
(dp7
S'bellwether'
p8
(lp9
cnumpy.core.multiarray
scalar
p10
(cnumpy
dtype
p11
(S'f8'
p12
I0
I1
tp13
Rp14
(I3
S'<'
p15
NNNI-1
I-1
I0
tp16
bS'\xd2\xea\x98@\x87BAA'
p17
tp18
Rp19
ag10
(g14
S'\xfb*\x87\xb6nCAA'
p20
tp21
Rp22
ag10
(g14
S'\x87\xebQ\x08hCAA'
p23
tp24
Rp25
ag10
(g14
S']\x01r\x0faCAA'
p26
tp27
Rp28
ag10
(g14
S'\xc6v\xbe?\xd4BAA'
p29
tp30
Rp31
ag10
(g14
S'\xcc>|vQCAA'
p32
tp33
Rp34
ag10
(g14
S'D\xd2\x94Z\x93CAA'
p35
tp36
Rp37
ag10
(g14
S'N\xe3\xa5\xcblCAA'
p38
tp39
Rp40
ag10
(g14
S'Rq\xf6aECAA'
p41
tp42
Rp43
ag10
(g14
S'\x18\xca\xe8M+CAA'
p44
tp45
Rp46
ag10
(g14
S'\x1diJ\xd5ZCAA'
p47
tp48
Rp49
ag10
(g14
S'\xea\x17K\xae\xa7CAA'
p50
tp51
Rp52
ag10
(g14
S'\x96\xed|\xefbCAA'
p53
tp54
Rp55
ag10
(g14
S'h\x91\xed\x9c\xa0CAA'
p56
tp57
Rp58
ag10
(g14
S'\xb1G\xe1\n\x7fCAA'
p59
tp60
Rp61
ag10
(g14
S'^\x8f\xc2U\xb9CAA'
p62
tp63
Rp64
ag10
(g14
S'\xd0"\xdb\xf9\xabCAA'
p65
tp66
Rp67
ag10
(g14
S'\x86A`\x15iCAA'
p68
tp69
Rp70
ag10
(g14
S'\xc7 \xb0\xb2\xdcCAA'
p71
tp72
Rp73
ag10
(g14
S']\xbaI,\xb1CAA'
p74
tp75
Rp76
asS'target'
p77
(lp78
g10
(g14
S'effff\x1eR@'
p79
tp80
Rp81
ag10
(g14
S'\x99C\x8bl\xe7\xcbR@'
p82
tp83
Rp84
ag10
(g14
S'\xc6K7\x89AxP@'
p85
tp86
Rp87
ag10
(g14
S'\x83\x95C\x8bl\xa7S@'
p88
tp89
Rp90
ag10
(g14
S'\xe8Q\xb8\x1e\x85\xfbS@'
p91
tp92
Rp93
ag10
(g14
S'b\x0e-\xb2\x9d\x07Y@'
p94
tp95
Rp96
ag10
(g14
S'\xfb\xff\xff\xff\xff?]@'
p97
tp98
Rp99
ag10
(g14
S'k\x91\xed|?%S@'
p100
tp101
Rp102
ag10
(g14
S'\t\x81\x95C\x8b\xe4R@'
p103
tp104
Rp105
ag10
(g14
S'\x01\xaa\xf1\xd2MZ\\@'
p106
tp107
Rp108
ag10
(g14
S'p;\xdfO\x8d\xa7S@'
p109
tp110
Rp111
ag10
(g14
S'\xcev\xbe\x9f\x1a\x17Z@'
p112
tp113
Rp114
ag10
(g14
S'\xcb\xf7S\xe3\xa5cU@'
p115
tp116
Rp117
ag10
(g14
S'\xbc\x1e\x85\xebQPR@'
p118
tp119
Rp120
ag10
(g14
S'\r\xd7\xa3p=\x1aU@'
p121
tp122
Rp123
ag10
(g14
S'\x04\xac\x1cZd\x7fR@'
p124
tp125
Rp126
ag10
(g14
S'<\xdfO\x8d\x97vV@'
p127
tp128
Rp129
ag10
(g14
S'\x91\x97n\x12\x83hQ@'
p130
tp131
Rp132
ag10
(g14
S'\x97\xed|?5vS@'
p133
tp134
Rp135
ag10
(g14
S'\xa5E\xb6\xf3\xfd\x84R@'
p136
tp137
Rp138
asssss.