(dp0
S'../Data/sqlite_40.csv'
p1
(dp2
S'../Data/sqlite_86.csv'
p3
(dp4
F0.3
(dp5
S'mmre'
p6
(dp7
S'bellwether'
p8
(lp9
cnumpy.core.multiarray
scalar
p10
(cnumpy
dtype
p11
(S'f8'
p12
I0
I1
tp13
Rp14
(I3
S'<'
p15
NNNI-1
I-1
I0
tp16
bS'\xf4Ug\x93Qqz@'
p17
tp18
Rp19
ag10
(g14
S'\xcb\xfecV\x80{z@'
p20
tp21
Rp22
ag10
(g14
S'\x1b\x04\xa6\xa2\xf8*z@'
p23
tp24
Rp25
ag10
(g14
S'\x92\x94\xbf~\xb2fz@'
p26
tp27
Rp28
ag10
(g14
S'\xe3\xc7\xeb\xb7\xed\xdby@'
p29
tp30
Rp31
ag10
(g14
S'm/,\xe1\xce\xcaz@'
p32
tp33
Rp34
ag10
(g14
S'%\xdcM\xbd\x95\xa2z@'
p35
tp36
Rp37
ag10
(g14
S'\xa2\x96b\xa7(uz@'
p38
tp39
Rp40
ag10
(g14
S'\x98\xd2\x86N\xc0Az@'
p41
tp42
Rp43
ag10
(g14
S'L\t\xaf\x11f=z@'
p44
tp45
Rp46
ag10
(g14
S'\x883J\xe4-=z@'
p47
tp48
Rp49
ag10
(g14
S'p\xabf\x9c\xa5Qz@'
p50
tp51
Rp52
ag10
(g14
S'h(\xf2\xc5\x07Vz@'
p53
tp54
Rp55
ag10
(g14
S'E\xb1R\xea\x0c+z@'
p56
tp57
Rp58
ag10
(g14
S'\xb84P!H\x82z@'
p59
tp60
Rp61
ag10
(g14
S'\x8f{C\xaf\xa6|z@'
p62
tp63
Rp64
ag10
(g14
S"'Ke\xd5\xd8\xdfy@"
p65
tp66
Rp67
ag10
(g14
S'\x9d\xbc\xdfq#az@'
p68
tp69
Rp70
ag10
(g14
S'Ix\xaa\x03P7z@'
p71
tp72
Rp73
ag10
(g14
S'\xee\x95\x0f@\xe3$z@'
p74
tp75
Rp76
asS'target'
p77
(lp78
g10
(g14
S'\x08Pz>\xd1\xe3M@'
p79
tp80
Rp81
ag10
(g14
S'`\xf4Xn\x17iV@'
p82
tp83
Rp84
ag10
(g14
S'\x11k\xe2\xecr\xf5L@'
p85
tp86
Rp87
ag10
(g14
S'+}\xaf\xaf9\rT@'
p88
tp89
Rp90
ag10
(g14
S'\x00\xce\xdf\xa3w\xe5I@'
p91
tp92
Rp93
ag10
(g14
S'\xd2Z\xb2\xdf\x9e>M@'
p94
tp95
Rp96
ag10
(g14
S'\x9aV-\xe4\x1c\xc0H@'
p97
tp98
Rp99
ag10
(g14
S'\xab\xfe\x0eD\xd8\x96P@'
p100
tp101
Rp102
ag10
(g14
S'9^\x9e\xe1\x0bUN@'
p103
tp104
Rp105
ag10
(g14
S'\x9b\x82\xde\xb31\xc0Q@'
p106
tp107
Rp108
ag10
(g14
S'|u\xb0V\xed\x96P@'
p109
tp110
Rp111
ag10
(g14
S'\xbbkdu<mM@'
p112
tp113
Rp114
ag10
(g14
S'\xa0cB\xb5Y\xafM@'
p115
tp116
Rp117
ag10
(g14
S'\t\x87\xfd\xe9x\xb2O@'
p118
tp119
Rp120
ag10
(g14
S'QCum\x94\x88O@'
p121
tp122
Rp123
ag10
(g14
S'\x03\xf1\x8fJd\xf0Q@'
p124
tp125
Rp126
ag10
(g14
S'\xc47\xcc\x1fD\xa1E@'
p127
tp128
Rp129
ag10
(g14
S'\x1dJ}I\xad|V@'
p130
tp131
Rp132
ag10
(g14
S'\xe7\xea\\}\xaclM@'
p133
tp134
Rp135
ag10
(g14
S'\x15\xbcQt\xb35O@'
p136
tp137
Rp138
asssss.