(dp0
S'../Data/sqlite_4.csv'
p1
(dp2
S'../Data/sqlite_64.csv'
p3
(dp4
F0.4
(dp5
S'abs_res'
p6
(dp7
S'bellwether'
p8
(lp9
cnumpy.core.multiarray
scalar
p10
(cnumpy
dtype
p11
(S'f8'
p12
I0
I1
tp13
Rp14
(I3
S'<'
p15
NNNI-1
I-1
I0
tp16
bS'7^\xba\xa9$_7A'
p17
tp18
Rp19
ag10
(g14
S'\x08ISj\xf7]7A'
p20
tp21
Rp22
ag10
(g14
S'(\x06\x81u_]7A'
p23
tp24
Rp25
ag10
(g14
S'Z\xffF\x08l[7A'
p26
tp27
Rp28
ag10
(g14
S'\xe6O\x8d\x17\xd3[7A'
p29
tp30
Rp31
ag10
(g14
S';\x17\x92\xc69]7A'
p32
tp33
Rp34
ag10
(g14
S'\x92{\xcd\xa5\xe9\\7A'
p35
tp36
Rp37
ag10
(g14
S'\x0c\x81\x95\x03 _7A'
p38
tp39
Rp40
ag10
(g14
S'\xd8Mb\xd0n\\7A'
p41
tp42
Rp43
ag10
(g14
S'W\x1b\xe8\xb4(_7A'
p44
tp45
Rp46
ag10
(g14
S'rY\xab\x83\xbc_7A'
p47
tp48
Rp49
ag10
(g14
S'\x1a/\xdd\x04I]7A'
p50
tp51
Rp52
ag10
(g14
S'\x17 \xf7\xda\xc7\\7A'
p53
tp54
Rp55
ag10
(g14
S'\x94\xed|_\xbe\\7A'
p56
tp57
Rp58
ag10
(g14
S'h\x1f>\x83;^7A'
p59
tp60
Rp61
ag10
(g14
S'Xs!\t\x1d]7A'
p62
tp63
Rp64
ag10
(g14
S'$\x13<8\x9b\\7A'
p65
tp66
Rp67
ag10
(g14
S'\x99\x8a\xb3/\xbb]7A'
p68
tp69
Rp70
ag10
(g14
S'\x93C\x8bl\xe3^7A'
p71
tp72
Rp73
ag10
(g14
S'*\xcc\x13uh^7A'
p74
tp75
Rp76
asS'target'
p77
(lp78
g10
(g14
S'\xbc\x9f\x1a/\xddwp@'
p79
tp80
Rp81
ag10
(g14
S'\xed\xd2Mb\x10\x8fq@'
p82
tp83
Rp84
ag10
(g14
S'\xc7K7\x89A\x92r@'
p85
tp86
Rp87
ag10
(g14
S'\x0b\xd7\xa3p=\x86p@'
p88
tp89
Rp90
ag10
(g14
S'\xc6 \xb0rhLr@'
p91
tp92
Rp93
ag10
(g14
S'\xa8\xf1\xd2Mb\xd9r@'
p94
tp95
Rp96
ag10
(g14
S'\xf3\xa7\xc6K7\x83r@'
p97
tp98
Rp99
ag10
(g14
S'<\n\xd7\xa3p\xa3p@'
p100
tp101
Rp102
ag10
(g14
S'V\x0e-\xb2\x9d\x9ep@'
p103
tp104
Rp105
ag10
(g14
S'g;\xdfO\x8d\xc5r@'
p106
tp107
Rp108
ag10
(g14
S'\x86\x16\xd9\xce\xf7\x90p@'
p109
tp110
Rp111
ag10
(g14
S'F\xb6\xf3\xfd\xd4\xc1q@'
p112
tp113
Rp114
ag10
(g14
S'Kb\x10X9\xccq@'
p115
tp116
Rp117
ag10
(g14
S'\x11-\xb2\x9d\xef\x15p@'
p118
tp119
Rp120
ag10
(g14
S'\x1e\x85\xebQ\xb8\x9ep@'
p121
tp122
Rp123
ag10
(g14
S'j;\xdfO\x8d\xd7o@'
p124
tp125
Rp126
ag10
(g14
S'?5^\xbaIVq@'
p127
tp128
Rp129
ag10
(g14
S'\x04V\x0e-\xb2\x13r@'
p130
tp131
Rp132
ag10
(g14
S'/\xb2\x9d\xef\xa7\x85q@'
p133
tp134
Rp135
ag10
(g14
S'{\xe9&1\x08\xe8p@'
p136
tp137
Rp138
asssss.