(dp0
S'../Data/sqlite_1.csv'
p1
(dp2
S'../Data/sqlite_72.csv'
p3
(dp4
F0.1
(dp5
S'abs_res'
p6
(dp7
S'bellwether'
p8
(lp9
cnumpy.core.multiarray
scalar
p10
(cnumpy
dtype
p11
(S'f8'
p12
I0
I1
tp13
Rp14
(I3
S'<'
p15
NNNI-1
I-1
I0
tp16
bS'\x03\xd5x\t$EAA'
p17
tp18
Rp19
ag10
(g14
S'v\xbe\x9fj~EAA'
p20
tp21
Rp22
ag10
(g14
S'\x05+\x87\x96\xc2EAA'
p23
tp24
Rp25
ag10
(g14
S'\x96n\x12sbEAA'
p26
tp27
Rp28
ag10
(g14
S'!\xdb\xf9\xce\xecDAA'
p29
tp30
Rp31
ag10
(g14
S'_ffF\x08EAA'
p32
tp33
Rp34
ag10
(g14
S'\x7f\xdck^\xd7EAA'
p35
tp36
Rp37
ag10
(g14
S'u\x93\x18d\xaaDAA'
p38
tp39
Rp40
ag10
(g14
S'*x0\xff|EAA'
p41
tp42
Rp43
ag10
(g14
S']\xd6\xeax6EAA'
p44
tp45
Rp46
ag10
(g14
S'\xabG\xe1ZAEAA'
p47
tp48
Rp49
ag10
(g14
S'\x94\xed|\xaf\x92EAA'
p50
tp51
Rp52
ag10
(g14
S'\x98\x8a\xb3\xef\xe4DAA'
p53
tp54
Rp55
ag10
(g14
S'h\x10X\t~DAA'
p56
tp57
Rp58
ag10
(g14
S'\x9a6\xd0yUDAA'
p59
tp60
Rp61
ag10
(g14
S'\x05\x81\x95s\x08EAA'
p62
tp63
Rp64
ag10
(g14
S'\x1f\xb0rh1EAA'
p65
tp66
Rp67
ag10
(g14
S'\xbae\xad^mEAA'
p68
tp69
Rp70
ag10
(g14
S'\x98n\x12\x13\x03EAA'
p71
tp72
Rp73
ag10
(g14
S'\x13\xf5o\xc4\xfaDAA'
p74
tp75
Rp76
asS'target'
p77
(lp78
g10
(g14
S' Zd;\xdfwX@'
p79
tp80
Rp81
ag10
(g14
S'\xa5E\xb6\xf3\xfd<T@'
p82
tp83
Rp84
ag10
(g14
S'Hb\x10X9lV@'
p85
tp86
Rp87
ag10
(g14
S'\xbc\xf3\xfd\xd4xAS@'
p88
tp89
Rp90
ag10
(g14
S'J5^\xbaI<T@'
p91
tp92
Rp93
ag10
(g14
S'\x08\x81\x95C\x8blV@'
p94
tp95
Rp96
ag10
(g14
S'\xa2\xf1\xd2MbXV@'
p97
tp98
Rp99
ag10
(g14
S'\x85\xc0\xca\xa1EVT@'
p100
tp101
Rp102
ag10
(g14
S'\x17\xd7\xa3p=\xe2U@'
p103
tp104
Rp105
ag10
(g14
S'\xe1z\x14\xaeGYU@'
p106
tp107
Rp108
ag10
(g14
S'\x9c\x99\x99\x99\x99\xc9S@'
p109
tp110
Rp111
ag10
(g14
S'\xaerh\x91\xed\x84U@'
p112
tp113
Rp114
ag10
(g14
S"j;\xdfO\x8d'U@"
p115
tp116
Rp117
ag10
(g14
S'm\xe7\xfb\xa9\xf1BU@'
p118
tp119
Rp120
ag10
(g14
S'H\xe1z\x14\xae\xc7T@'
p121
tp122
Rp123
ag10
(g14
S'\x91l\xe7\xfb\xa9iV@'
p124
tp125
Rp126
ag10
(g14
S'\xc3\xca\xa1E\xb6;T@'
p127
tp128
Rp129
ag10
(g14
S'V\x0c\x02+\x87\xb6T@'
p130
tp131
Rp132
ag10
(g14
S'V7\x89A`]T@'
p133
tp134
Rp135
ag10
(g14
S'\xc5t\x93\x18\x04\x16V@'
p136
tp137
Rp138
asssss.