(dp0
S'../Data/sqlite_16.csv'
p1
(dp2
S'../Data/sqlite_97.csv'
p3
(dp4
F0.4
(dp5
S'mmre'
p6
(dp7
S'bellwether'
p8
(lp9
cnumpy.core.multiarray
scalar
p10
(cnumpy
dtype
p11
(S'f8'
p12
I0
I1
tp13
Rp14
(I3
S'<'
p15
NNNI-1
I-1
I0
tp16
bS'(\x9aj\xa9\xe0|W@'
p17
tp18
Rp19
ag10
(g14
S'\xa6\xcf\x10w\xe5xW@'
p20
tp21
Rp22
ag10
(g14
S'\x80\x93eP\xb7wW@'
p23
tp24
Rp25
ag10
(g14
S'-\x84\xbb[<}W@'
p26
tp27
Rp28
ag10
(g14
S'\x9b\xe4\x83S4~W@'
p29
tp30
Rp31
ag10
(g14
S'\xf8T\xed\x1d=wW@'
p32
tp33
Rp34
ag10
(g14
S'?Q\x89\xf0\x87~W@'
p35
tp36
Rp37
ag10
(g14
S'\x16J\xc4\xdf\xa0}W@'
p38
tp39
Rp40
ag10
(g14
S'\xf7\x19b\xd3Z\x80W@'
p41
tp42
Rp43
ag10
(g14
S'\xd3\xdf\xc4 \x9eyW@'
p44
tp45
Rp46
ag10
(g14
S'\x90\x9b(\x87\xbbwW@'
p47
tp48
Rp49
ag10
(g14
S'\xca\xa6\x18\xb1J\x7fW@'
p50
tp51
Rp52
ag10
(g14
S'\xce h\xf7\xc2|W@'
p53
tp54
Rp55
ag10
(g14
S'\xd3\x07\xa87\xa3wW@'
p56
tp57
Rp58
ag10
(g14
S'\x93\xde]\x86X{W@'
p59
tp60
Rp61
ag10
(g14
S'\xbbGO\xe4ixW@'
p62
tp63
Rp64
ag10
(g14
S'\xb3\xe8w\xe6*\x84W@'
p65
tp66
Rp67
ag10
(g14
S'\x01z:rZ{W@'
p68
tp69
Rp70
ag10
(g14
S'\xe6&81\xd0xW@'
p71
tp72
Rp73
ag10
(g14
S'<\x14\xa1\xcf\xe8zW@'
p74
tp75
Rp76
asS'target'
p77
(lp78
g10
(g14
S'2%<J\x13\xfdM@'
p79
tp80
Rp81
ag10
(g14
S'"`O\x00\xd6jX@'
p82
tp83
Rp84
ag10
(g14
S':f\x8f\xcd 6]@'
p85
tp86
Rp87
ag10
(g14
S'\xdf[\x07\x1a\x1e\xdfP@'
p88
tp89
Rp90
ag10
(g14
S'\xc3\xae\x1a\x06\xd9\x13V@'
p91
tp92
Rp93
ag10
(g14
S'\xfd\xfa1[~\x7fP@'
p94
tp95
Rp96
ag10
(g14
S'\xa9Q\xf6\xcdNBS@'
p97
tp98
Rp99
ag10
(g14
S'`\xfan)o6U@'
p100
tp101
Rp102
ag10
(g14
S'\xa4\xd0G\xed\x0bLX@'
p103
tp104
Rp105
ag10
(g14
S'u\xa3I.\xb5&V@'
p106
tp107
Rp108
ag10
(g14
S'eC.\x1eX\x97U@'
p109
tp110
Rp111
ag10
(g14
S'\xf7\xf7\xd4\x8b\xacnR@'
p112
tp113
Rp114
ag10
(g14
S'\xe8\xb1\x08(\xe7\xf7R@'
p115
tp116
Rp117
ag10
(g14
S'h\xca\xf8.[8U@'
p118
tp119
Rp120
ag10
(g14
S'7P&\xa9\xab+S@'
p121
tp122
Rp123
ag10
(g14
S'\xb3k\xce;Zz^@'
p124
tp125
Rp126
ag10
(g14
S'\x16?hd\x93\xfcO@'
p127
tp128
Rp129
ag10
(g14
S'\xbf\x01\xb9e\x0cQS@'
p130
tp131
Rp132
ag10
(g14
S'\x89\\j\xdc%=S@'
p133
tp134
Rp135
ag10
(g14
S'\xbd\xe5\x8e$\x99JU@'
p136
tp137
Rp138
asssss.