(dp0
S'../Data/sqlite_14.csv'
p1
(dp2
S'../Data/sqlite_92.csv'
p3
(dp4
F0.05
(dp5
S'mmre'
p6
(dp7
S'bellwether'
p8
(lp9
cnumpy.core.multiarray
scalar
p10
(cnumpy
dtype
p11
(S'f8'
p12
I0
I1
tp13
Rp14
(I3
S'<'
p15
NNNI-1
I-1
I0
tp16
bS'9D\xf7z\xca!P@'
p17
tp18
Rp19
ag10
(g14
S'tY2C\xf1DP@'
p20
tp21
Rp22
ag10
(g14
S'c?\xec\xf3\x00MP@'
p23
tp24
Rp25
ag10
(g14
S'4&1K&0P@'
p26
tp27
Rp28
ag10
(g14
S'\xb6\x91\xc0s\xfe>P@'
p29
tp30
Rp31
ag10
(g14
S'\xac\xd9\x81\x93!LP@'
p32
tp33
Rp34
ag10
(g14
S'M\xccM\x81\x99UP@'
p35
tp36
Rp37
ag10
(g14
S'@\x9d?\xf5\x1f\x1bP@'
p38
tp39
Rp40
ag10
(g14
S'#\x81\x81\x18"LP@'
p41
tp42
Rp43
ag10
(g14
S"\x004\xfd\t}'P@"
p44
tp45
Rp46
ag10
(g14
S'yC\xf3\xf5kAP@'
p47
tp48
Rp49
ag10
(g14
S'\x8c\xb8s\x07\xc4>P@'
p50
tp51
Rp52
ag10
(g14
S'Za\xcamc(P@'
p53
tp54
Rp55
ag10
(g14
S'\xcdlV4\xb3%P@'
p56
tp57
Rp58
ag10
(g14
S'(?\xe0\n\x81:P@'
p59
tp60
Rp61
ag10
(g14
S'\xd9\xa7\x10\xfa\x83OP@'
p62
tp63
Rp64
ag10
(g14
S'\xf4[4\xcb\x02@P@'
p65
tp66
Rp67
ag10
(g14
S'\x94a\xfa&z.P@'
p68
tp69
Rp70
ag10
(g14
S'\x84\xfez\xf1\xec(P@'
p71
tp72
Rp73
ag10
(g14
S"'i#\x01\xd15P@"
p74
tp75
Rp76
asS'target'
p77
(lp78
g10
(g14
S'\x91S\nZ4\xcf]@'
p79
tp80
Rp81
ag10
(g14
S'\xd1\x0b\x83\xc9}\x12^@'
p82
tp83
Rp84
ag10
(g14
S'\xfe,\x15a\xfd\xfc[@'
p85
tp86
Rp87
ag10
(g14
S'O\xcf\x03`C*C@'
p88
tp89
Rp90
ag10
(g14
S'/\x87\x85J\xcf>\\@'
p91
tp92
Rp93
ag10
(g14
S'i\x1c\xc0?\x97\xc4[@'
p94
tp95
Rp96
ag10
(g14
S'J\x8dd\xac-U\\@'
p97
tp98
Rp99
ag10
(g14
S'4s\xa0P~0S@'
p100
tp101
Rp102
ag10
(g14
S'\xcf\xec\x03\xe2W\x86H@'
p103
tp104
Rp105
ag10
(g14
S'\x03\x81\x17H\xc0\x9aB@'
p106
tp107
Rp108
ag10
(g14
S'\xc5y\x08\x06\xda\x00S@'
p109
tp110
Rp111
ag10
(g14
S'\xc9\xeb\xb7\xe8\x82\rb@'
p112
tp113
Rp114
ag10
(g14
S'\x88\xaaR\xe2:XR@'
p115
tp116
Rp117
ag10
(g14
S'\x82\xfa\xff\x1abTR@'
p118
tp119
Rp120
ag10
(g14
S'\xb6\xae\xe2\x01\x9c\x00f@'
p121
tp122
Rp123
ag10
(g14
S'\x9c\xe1\x86e\x8e\xf4X@'
p124
tp125
Rp126
ag10
(g14
S'\xf82\xb2\x9e\xb3\x12^@'
p127
tp128
Rp129
ag10
(g14
S'Rh\xe6\x15\x8bGU@'
p130
tp131
Rp132
ag10
(g14
S't\x96\x1b\n\x16<H@'
p133
tp134
Rp135
ag10
(g14
S'VJs\xf4\x94\x82V@'
p136
tp137
Rp138
asssss.