(dp0
S'../Data/sqlite_51.csv'
p1
(dp2
S'../Data/sqlite_97.csv'
p3
(dp4
F0.15
(dp5
S'mmre'
p6
(dp7
S'bellwether'
p8
(lp9
cnumpy.core.multiarray
scalar
p10
(cnumpy
dtype
p11
(S'f8'
p12
I0
I1
tp13
Rp14
(I3
S'<'
p15
NNNI-1
I-1
I0
tp16
bS'\x08B\x05\x1fU<X@'
p17
tp18
Rp19
ag10
(g14
S"\xef\x8d'\xf9@<X@"
p20
tp21
Rp22
ag10
(g14
S'\xc4\xce\x04\xba?=X@'
p23
tp24
Rp25
ag10
(g14
S'K\x9a5\xbfm<X@'
p26
tp27
Rp28
ag10
(g14
S"\x992U\xf5';X@"
p29
tp30
Rp31
ag10
(g14
S',=\xb2\xb25=X@'
p32
tp33
Rp34
ag10
(g14
S'I\x9cq\xf4\xc7;X@'
p35
tp36
Rp37
ag10
(g14
S'\xaf\x9f\x05cb<X@'
p38
tp39
Rp40
ag10
(g14
S')\x1a\xdf_\xb9<X@'
p41
tp42
Rp43
ag10
(g14
S'\xd0\xdd;\x1fv=X@'
p44
tp45
Rp46
ag10
(g14
S'\xa2k\xf1\xa0~<X@'
p47
tp48
Rp49
ag10
(g14
S'`Qn\xe4\xff;X@'
p50
tp51
Rp52
ag10
(g14
S'x\xfd5sf;X@'
p53
tp54
Rp55
ag10
(g14
S'\xd2\xb50\x17\xab<X@'
p56
tp57
Rp58
ag10
(g14
S'\xc9UL\xc7C;X@'
p59
tp60
Rp61
ag10
(g14
S';DL\x9f\xdc<X@'
p62
tp63
Rp64
ag10
(g14
S' \xbbx/\x18=X@'
p65
tp66
Rp67
ag10
(g14
S'\xf1/G\x84\xae;X@'
p68
tp69
Rp70
ag10
(g14
S'\x14\x97\xce\xbc\\<X@'
p71
tp72
Rp73
ag10
(g14
S'\xf1Q\x05\x97\x87:X@'
p74
tp75
Rp76
asS'target'
p77
(lp78
g10
(g14
S'\xef^\xc0OJFU@'
p79
tp80
Rp81
ag10
(g14
S'*\xe8\x0b\x7fs\xf2G@'
p82
tp83
Rp84
ag10
(g14
S'\x02^\xde) dJ@'
p85
tp86
Rp87
ag10
(g14
S'\xe0\x88U\xaeN\x96N@'
p88
tp89
Rp90
ag10
(g14
S'\xaa7T]\x8cu_@'
p91
tp92
Rp93
ag10
(g14
S'\xf9\xe2\x1f-\xb91V@'
p94
tp95
Rp96
ag10
(g14
S'/o\xc9@&\xedR@'
p97
tp98
Rp99
ag10
(g14
S'\xd6\xb8`\x0e\xc1\x1f^@'
p100
tp101
Rp102
ag10
(g14
S'\x1b\xef\xdf\x0f\x18=J@'
p103
tp104
Rp105
ag10
(g14
S'\x96\x0e{KH\xc0C@'
p106
tp107
Rp108
ag10
(g14
S'\x8d\x1cr\xd2\xd0\xaaJ@'
p109
tp110
Rp111
ag10
(g14
S'\xf7\xb2ym\xc5\\Y@'
p112
tp113
Rp114
ag10
(g14
S'(\xac\x9d\xb34h`@'
p115
tp116
Rp117
ag10
(g14
S'P\xe4.\x02&\x1e`@'
p118
tp119
Rp120
ag10
(g14
S'@\xf1+\x1c,\xd7L@'
p121
tp122
Rp123
ag10
(g14
S'\x0bo\x10\xe7\xc9TN@'
p124
tp125
Rp126
ag10
(g14
S'X\x7f\x87\xdc\xd0\xd8N@'
p127
tp128
Rp129
ag10
(g14
S')\\\x98#HZ\\@'
p130
tp131
Rp132
ag10
(g14
S'\x99\x1c\x0b\x03\x9c\x86J@'
p133
tp134
Rp135
ag10
(g14
S'\xb4\xa4\xc5\x99F\xc0\\@'
p136
tp137
Rp138
asssss.