(dp0
S'../Data/sqlite_91.csv'
p1
(dp2
S'../Data/sqlite_72.csv'
p3
(dp4
F0.2
(dp5
S'abs_res'
p6
(dp7
S'bellwether'
p8
(lp9
cnumpy.core.multiarray
scalar
p10
(cnumpy
dtype
p11
(S'f8'
p12
I0
I1
tp13
Rp14
(I3
S'<'
p15
NNNI-1
I-1
I0
tp16
bS'8\xb2\x9d/\x1d.$A'
p17
tp18
Rp19
ag10
(g14
S'\x19\xaeG!\x041$A'
p20
tp21
Rp22
ag10
(g14
S'\x17\xca\xe8\xed\xc6_$A'
p23
tp24
Rp25
ag10
(g14
S',\x15g\x1fkE$A'
p26
tp27
Rp28
ag10
(g14
S'Fb\x10\x98|6$A'
p29
tp30
Rp31
ag10
(g14
S'\xea\xd0"\x9b\x12e$A'
p32
tp33
Rp34
ag10
(g14
S'\x05\xac\x1c\x9a\x83V$A'
p35
tp36
Rp37
ag10
(g14
S'\x10-\xb2\xdd\xacA$A'
p38
tp39
Rp40
ag10
(g14
S'k\x93\x18\x04\xbf%$A'
p41
tp42
Rp43
ag10
(g14
S'\xe1\xa3p}\x82H$A'
p44
tp45
Rp46
ag10
(g14
S'8B\x19=\x80*$A'
p47
tp48
Rp49
ag10
(g14
S'Y\x1d\x13\xbcr7$A'
p50
tp51
Rp52
ag10
(g14
S'\xe6\xfb\xa9\xb1\x8a3$A'
p53
tp54
Rp55
ag10
(g14
S'\xe8\xfb\xa918G$A'
p56
tp57
Rp58
ag10
(g14
S'{N\x1bh\xc39$A'
p59
tp60
Rp61
ag10
(g14
S'R\x80\xdc\xeb\xf8N$A'
p62
tp63
Rp64
ag10
(g14
S'\xb4\xf3\xfdT\xedR$A'
p65
tp66
Rp67
ag10
(g14
S'Tq\xf6a\xedE$A'
p68
tp69
Rp70
ag10
(g14
S'\x17\x83\xc0\nTS$A'
p71
tp72
Rp73
ag10
(g14
S'3\xce>\xbc\x1bV$A'
p74
tp75
Rp76
asS'target'
p77
(lp78
g10
(g14
S"6\xb4\xc8v\xbe'Q@"
p79
tp80
Rp81
ag10
(g14
S't\xbe\x9f\x1a/5P@'
p82
tp83
Rp84
ag10
(g14
S'\xa1\x1a/\xdd$fR@'
p85
tp86
Rp87
ag10
(g14
S'\xab\xf1\xd2MbxR@'
p88
tp89
Rp90
ag10
(g14
S'}?5^\xbamQ@'
p91
tp92
Rp93
ag10
(g14
S']9\xb4\xc8v\xa6R@'
p94
tp95
Rp96
ag10
(g14
S'<^\xbaI\x0c:R@'
p97
tp98
Rp99
ag10
(g14
S'\x82j\xbct\x930Q@'
p100
tp101
Rp102
ag10
(g14
S'\xdbMb\x10XiS@'
p103
tp104
Rp105
ag10
(g14
S'\xf8(\\\x8f\xc2%Q@'
p106
tp107
Rp108
ag10
(g14
S'\xcdv\xbe\x9f\x1aoR@'
p109
tp110
Rp111
ag10
(g14
S'\xad\x1cZd;\xdfQ@'
p112
tp113
Rp114
ag10
(g14
S'3\x08\xac\x1cZ4R@'
p115
tp116
Rp117
ag10
(g14
S'\xac\xf1\xd2Mb\xc8Q@'
p118
tp119
Rp120
ag10
(g14
S'T\xe3\xa5\x9b\xc40R@'
p121
tp122
Rp123
ag10
(g14
S'_\xe5\xd0"\xdb\xb9R@'
p124
tp125
Rp126
ag10
(g14
S')1\x08\xac\x1c\xe2Q@'
p127
tp128
Rp129
ag10
(g14
S'\xd6\xf7S\xe3\xa5\xd3P@'
p130
tp131
Rp132
ag10
(g14
S'\x0cX9\xb4\xc8\x8aR@'
p133
tp134
Rp135
ag10
(g14
S')\xdb\xf9~j\xacQ@'
p136
tp137
Rp138
asssss.