(dp0
S'../Data/sqlite_75.csv'
p1
(dp2
S'../Data/sqlite_67.csv'
p3
(dp4
F0.1
(dp5
S'mmre'
p6
(dp7
S'bellwether'
p8
(lp9
cnumpy.core.multiarray
scalar
p10
(cnumpy
dtype
p11
(S'f8'
p12
I0
I1
tp13
Rp14
(I3
S'<'
p15
NNNI-1
I-1
I0
tp16
bS'\xf7[h*JgX@'
p17
tp18
Rp19
ag10
(g14
S'\xb8\xf4g.WgX@'
p20
tp21
Rp22
ag10
(g14
S'zw,\x92SgX@'
p23
tp24
Rp25
ag10
(g14
S'n@\x02\xeaIgX@'
p26
tp27
Rp28
ag10
(g14
S'P\x88\xbe\x1dNgX@'
p29
tp30
Rp31
ag10
(g14
S'\x10|\x89\xef9gX@'
p32
tp33
Rp34
ag10
(g14
S'\xc0\x11\xd1\xa0^gX@'
p35
tp36
Rp37
ag10
(g14
S'(\xc8\xa8\xa2agX@'
p38
tp39
Rp40
ag10
(g14
S'\xecP\xed\x00OgX@'
p41
tp42
Rp43
ag10
(g14
S'd+5\x88IgX@'
p44
tp45
Rp46
ag10
(g14
S'\xb9\x15R\xd7LgX@'
p47
tp48
Rp49
ag10
(g14
S'\xe2:\xe5pbgX@'
p50
tp51
Rp52
ag10
(g14
S'\xcb\x8d>#DgX@'
p53
tp54
Rp55
ag10
(g14
S'\xc4\x9b\xb5\xf8IgX@'
p56
tp57
Rp58
ag10
(g14
S'>\x02\xcf\x1c>gX@'
p59
tp60
Rp61
ag10
(g14
S'@\x17Y\x94FgX@'
p62
tp63
Rp64
ag10
(g14
S'dw\xf8\xeeQgX@'
p65
tp66
Rp67
ag10
(g14
S'V\x0c:]MgX@'
p68
tp69
Rp70
ag10
(g14
S'\xad\xb1\x9e\x96wgX@'
p71
tp72
Rp73
ag10
(g14
S'\xe7Z\x96:EgX@'
p74
tp75
Rp76
asS'target'
p77
(lp78
g10
(g14
S'\x12P\xc8\xee&"\xe9?'
p79
tp80
Rp81
ag10
(g14
S'\n\x87\x86TD\xb2\xea?'
p82
tp83
Rp84
ag10
(g14
S'\xfd\x03JNC\xf8\xeb?'
p85
tp86
Rp87
ag10
(g14
S'S3A\x0e\x00\xba\xe9?'
p88
tp89
Rp90
ag10
(g14
S'\x92\xf1\xec!\xd7\xec\xe9?'
p91
tp92
Rp93
ag10
(g14
S'/d\xb7ru\x91\xea?'
p94
tp95
Rp96
ag10
(g14
S'\xf1 \t\xcf[\x9f\xea?'
p97
tp98
Rp99
ag10
(g14
S'Xib\xbbp1\xea?'
p100
tp101
Rp102
ag10
(g14
S'\xc7\xe0\xee]\xbf~\xea?'
p103
tp104
Rp105
ag10
(g14
S'\xb40Q\x10\xc1g\xf0?'
p106
tp107
Rp108
ag10
(g14
S'qx\x0e\x1eH\xee\xe9?'
p109
tp110
Rp111
ag10
(g14
S'\xf2C\xc8\xc1*\xba\xeb?'
p112
tp113
Rp114
ag10
(g14
S'e\x9a\xec\x92\x83H\xeb?'
p115
tp116
Rp117
ag10
(g14
S"j\xfc~\x11\xd1'\xee?"
p118
tp119
Rp120
ag10
(g14
S'+\xb0\x9d\xb8\\\xbc\xeb?'
p121
tp122
Rp123
ag10
(g14
S'e$\x83\x128z\xe8?'
p124
tp125
Rp126
ag10
(g14
S'\x0b\xf4\xd4E\x83\x1d\xe9?'
p127
tp128
Rp129
ag10
(g14
S'\x0c\xf1\x11\xa0k\x97\xea?'
p130
tp131
Rp132
ag10
(g14
S'\xf0\xffO~\xb6Q\xf0?'
p133
tp134
Rp135
ag10
(g14
S'y\x85/S\r\x0c\xea?'
p136
tp137
Rp138
asssss.