(dp0
S'../Data/sqlite_85.csv'
p1
(dp2
S'../Data/sqlite_22.csv'
p3
(dp4
F0.05
(dp5
S'abs_res'
p6
(dp7
S'bellwether'
p8
(lp9
cnumpy.core.multiarray
scalar
p10
(cnumpy
dtype
p11
(S'f8'
p12
I0
I1
tp13
Rp14
(I3
S'<'
p15
NNNI-1
I-1
I0
tp16
bS'\xd5Mb\xc0dCZA'
p17
tp18
Rp19
ag10
(g14
S'r\xe7\xfby\x1d%ZA'
p20
tp21
Rp22
ag10
(g14
S'\x87\xc0\xca\x01\x8e$ZA'
p23
tp24
Rp25
ag10
(g14
S'$\\\x8f\x9an3ZA'
p26
tp27
Rp28
ag10
(g14
S'C^\xba)}=ZA'
p29
tp30
Rp31
ag10
(g14
S'\x83\x14\xae\xaf\xd9%ZA'
p32
tp33
Rp34
ag10
(g14
S'\xdc\x06:5\xfcYZA'
p35
tp36
Rp37
ag10
(g14
S'\x1b/\xdd\xdc\xee,ZA'
p38
tp39
Rp40
ag10
(g14
S'\xdex\xe9V=8ZA'
p41
tp42
Rp43
ag10
(g14
S'&\xdb\xf9\x16\xcc>ZA'
p44
tp45
Rp46
ag10
(g14
S'h\x9e\xa8O!\\ZA'
p47
tp48
Rp49
ag10
(g14
S'\x07\xaa\xf1\xcak\x1fZA'
p50
tp51
Rp52
ag10
(g14
S'\x18\x04V\x06?.ZA'
p53
tp54
Rp55
ag10
(g14
S'\x95\x97n\xf2\xed%ZA'
p56
tp57
Rp58
ag10
(g14
S'\xd5"\xdb\xd1\xa94ZA'
p59
tp60
Rp61
ag10
(g14
S'U\xb8\x1e\xed4IZA'
p62
tp63
Rp64
ag10
(g14
S'q;\xdf\xdf\xc5\x1aZA'
p65
tp66
Rp67
ag10
(g14
S"\xc4\xca\xa1m/'ZA"
p68
tp69
Rp70
ag10
(g14
S'\xec\xd0"CcMZA'
p71
tp72
Rp73
ag10
(g14
S';`\xe5`\x1a&ZA'
p74
tp75
Rp76
asS'target'
p77
(lp78
g10
(g14
S'\xbd\x9f\x1a/\xdd8d@'
p79
tp80
Rp81
ag10
(g14
S'+1\x08\xac\x1c\x12\\@'
p82
tp83
Rp84
ag10
(g14
S'\xf5~j\xbct\x03\\@'
p85
tp86
Rp87
ag10
(g14
S'\x04\xd5x\xe9&)\\@'
p88
tp89
Rp90
ag10
(g14
S'~\xc0\xca\xa1Ev]@'
p91
tp92
Rp93
ag10
(g14
S"\xaa\x1cZd;'Y@"
p94
tp95
Rp96
ag10
(g14
S'sh\x91\xed|W`@'
p97
tp98
Rp99
ag10
(g14
S'c\xbaI\x0c\x02K_@'
p100
tp101
Rp102
ag10
(g14
S'_\x10X9\xb4(]@'
p103
tp104
Rp105
ag10
(g14
S'\x1fZd;\xdf+`@'
p106
tp107
Rp108
ag10
(g14
S'\xce\xce\xf7S\xe3\xb5\\@'
p109
tp110
Rp111
ag10
(g14
S'f\x91\xed|?\x9dX@'
p112
tp113
Rp114
ag10
(g14
S'1\x87\x16\xd9\xce\xcf]@'
p115
tp116
Rp117
ag10
(g14
S'\x02V\x0e-\xb2\xb5]@'
p118
tp119
Rp120
ag10
(g14
S'\xf8\xa9\xf1\xd2M\xca\\@'
p121
tp122
Rp123
ag10
(g14
S'?\x8bl\xe7\xfbq[@'
p124
tp125
Rp126
ag10
(g14
S'\xe7\xd0"\xdb\xf9:`@'
p127
tp128
Rp129
ag10
(g14
S'\xa4\xc4 \xb0r0_@'
p130
tp131
Rp132
ag10
(g14
S'\xcf\xf7S\xe3\xa5\x0b`@'
p133
tp134
Rp135
ag10
(g14
S'\xf7*\x87\x16\xd9\xe6_@'
p136
tp137
Rp138
asssss.