(dp0
S'../Data/sqlite_4.csv'
p1
(dp2
S'../Data/sqlite_20.csv'
p3
(dp4
F0.15
(dp5
S'abs_res'
p6
(dp7
S'bellwether'
p8
(lp9
cnumpy.core.multiarray
scalar
p10
(cnumpy
dtype
p11
(S'f8'
p12
I0
I1
tp13
Rp14
(I3
S'<'
p15
NNNI-1
I-1
I0
tp16
bS'cW\x80,Vy@A'
p17
tp18
Rp19
ag10
(g14
S'a\x9e\xa8_Nx@A'
p20
tp21
Rp22
ag10
(g14
S'E\x0c\x02k\xddx@A'
p23
tp24
Rp25
ag10
(g14
S'\x84\xc0\xca\xf1uy@A'
p26
tp27
Rp28
ag10
(g14
S' \x13<8Ey@A'
p29
tp30
Rp31
ag10
(g14
S'\x03G(\xb35y@A'
p32
tp33
Rp34
ag10
(g14
S'\x89\xebQ\x88\x84x@A'
p35
tp36
Rp37
ag10
(g14
S'h\x1f>\x93\xbey@A'
p38
tp39
Rp40
ag10
(g14
S'H\xb6\xf3\xed\xf3x@A'
p41
tp42
Rp43
ag10
(g14
S'\xda1\xc1\xa3%x@A'
p44
tp45
Rp46
ag10
(g14
S'\xd9\x06:\x8d}y@A'
p47
tp48
Rp49
ag10
(g14
S'\xa9\x1cZD\xffy@A'
p50
tp51
Rp52
ag10
(g14
S'`\xc9/&\x8ay@A'
p53
tp54
Rp55
ag10
(g14
S'^\x1d\x13\x1cYx@A'
p56
tp57
Rp58
ag10
(g14
S'\xe6\x08e\xf48y@A'
p59
tp60
Rp61
ag10
(g14
S'/\xb2\x9d\x8f\x12y@A'
p62
tp63
Rp64
ag10
(g14
S'\x7fj\xbcT\x0by@A'
p65
tp66
Rp67
ag10
(g14
S'\x85\x16\xd9\xbe\xcfy@A'
p68
tp69
Rp70
ag10
(g14
S'Td;\x7f+y@A'
p71
tp72
Rp73
ag10
(g14
S'\xff7B\x19ex@A'
p74
tp75
Rp76
asS'target'
p77
(lp78
g10
(g14
S'#\\\x8f\xc2\xf5hr@'
p79
tp80
Rp81
ag10
(g14
S',\x87\x16\xd9\xce\x0bq@'
p82
tp83
Rp84
ag10
(g14
S'@\xdfO\x8d\x97\x1cs@'
p85
tp86
Rp87
ag10
(g14
S'\xff\xff\xff\xff\xff\x1br@'
p88
tp89
Rp90
ag10
(g14
S"$/\xdd$\x06's@"
p91
tp92
Rp93
ag10
(g14
S'@5^\xbaIDs@'
p94
tp95
Rp96
ag10
(g14
S'\x84\x16\xd9\xce\xf7\x87s@'
p97
tp98
Rp99
ag10
(g14
S'\xb9\xca\xa1E\xb6Ir@'
p100
tp101
Rp102
ag10
(g14
S'\x87C\x8bl\xe71r@'
p103
tp104
Rp105
ag10
(g14
S'\xe0\xf9~j\xbc\x94r@'
p106
tp107
Rp108
ag10
(g14
S'\xc2t\x93\x18\x04Nr@'
p109
tp110
Rp111
ag10
(g14
S'ph\x91\xed|\x8dr@'
p112
tp113
Rp114
ag10
(g14
S'\r\x02+\x87\x16\x01t@'
p115
tp116
Rp117
ag10
(g14
S'\xea\xa7\xc6K7\rr@'
p118
tp119
Rp120
ag10
(g14
S'\xb0\xc6K7\x89}q@'
p121
tp122
Rp123
ag10
(g14
S'\xc0\x9f\x1a/\xdd\xccs@'
p124
tp125
Rp126
ag10
(g14
S'\x15X9\xb4\xc8\xe6q@'
p127
tp128
Rp129
ag10
(g14
S'\xf7~j\xbct\x81s@'
p130
tp131
Rp132
ag10
(g14
S'\xde\xd0"\xdb\xf9\x84r@'
p133
tp134
Rp135
ag10
(g14
S'l\xe7\xfb\xa9\xf1\xd8p@'
p136
tp137
Rp138
asssss.