(dp0
S'../Data/sqlite_18.csv'
p1
(dp2
S'../Data/sqlite_19.csv'
p3
(dp4
F0.1
(dp5
S'abs_res'
p6
(dp7
S'bellwether'
p8
(lp9
cnumpy.core.multiarray
scalar
p10
(cnumpy
dtype
p11
(S'f8'
p12
I0
I1
tp13
Rp14
(I3
S'<'
p15
NNNI-1
I-1
I0
tp16
bS'eff\xf6\xcfhAA'
p17
tp18
Rp19
ag10
(g14
S'\x17\xbd-\x1b\xdbhAA'
p20
tp21
Rp22
ag10
(g14
S"'1\x08\xac\x16hAA"
p23
tp24
Rp25
ag10
(g14
S'\xbb\xd7\\\xd8\xa7hAA'
p26
tp27
Rp28
ag10
(g14
S'H\x1b\xe8$\xebhAA'
p29
tp30
Rp31
ag10
(g14
S'HDD4DiAA'
p32
tp33
Rp34
ag10
(g14
S'`\x10X\x89\xcahAA'
p35
tp36
Rp37
ag10
(g14
S'i\xbct\xc3\tiAA'
p38
tp39
Rp40
ag10
(g14
S'\xb1rh1jiAA'
p41
tp42
Rp43
ag10
(g14
S'n=\n\x17\xf4hAA'
p44
tp45
Rp46
ag10
(g14
S'#1\x08\xfc\xd4hAA'
p47
tp48
Rp49
ag10
(g14
S'\n\x81\x95C\xbdhAA'
p50
tp51
Rp52
ag10
(g14
S'p=\nw)iAA'
p53
tp54
Rp55
ag10
(g14
S'X9\xb4\x88\xb5hAA'
p56
tp57
Rp58
ag10
(g14
S'\x92\x97n",iAA'
p59
tp60
Rp61
ag10
(g14
S'X\x0e-\x92>hAA'
p62
tp63
Rp64
ag10
(g14
S'T\xb8\x1e\xc5/iAA'
p65
tp66
Rp67
ag10
(g14
S'\x8fn\x12S\xd0hAA'
p68
tp69
Rp70
ag10
(g14
S'\xff\xd4x\xa9@iAA'
p71
tp72
Rp73
ag10
(g14
S'\xdb\xa5\x9b\xe4\xc5hAA'
p74
tp75
Rp76
asS'target'
p77
(lp78
g10
(g14
S'+\xb0rh\x91\x1dY@'
p79
tp80
Rp81
ag10
(g14
S'y\x93\x18\x04V\xee`@'
p82
tp83
Rp84
ag10
(g14
S'\xe9\xf9~j\xbc\x04Y@'
p85
tp86
Rp87
ag10
(g14
S'\xef|?5^\x82X@'
p88
tp89
Rp90
ag10
(g14
S'd\x10X9\xb4X[@'
p91
tp92
Rp93
ag10
(g14
S'21\x08\xac\x1c\x82Z@'
p94
tp95
Rp96
ag10
(g14
S'\x95\x97n\x12\x83HZ@'
p97
tp98
Rp99
ag10
(g14
S'\xf7$\x06\x81\x95\x1bZ@'
p100
tp101
Rp102
ag10
(g14
S'\xbe\x9f\x1a/\xdd\xa4^@'
p103
tp104
Rp105
ag10
(g14
S'\xa4\xc6K7\x89iX@'
p106
tp107
Rp108
ag10
(g14
S'\x7fA`\xe5\xd0\xdaZ@'
p109
tp110
Rp111
ag10
(g14
S'\x80\x95C\x8bl\xbfV@'
p112
tp113
Rp114
ag10
(g14
S'\x17\x04V\x0e-\xd2W@'
p115
tp116
Rp117
ag10
(g14
S'\xb1\xc8v\xbe\x9f\xe6Z@'
p118
tp119
Rp120
ag10
(g14
S'\xcbx\xe9&1\x90Y@'
p121
tp122
Rp123
ag10
(g14
S'\xd0\xca\xa1E\xb6+_@'
p124
tp125
Rp126
ag10
(g14
S'v\x12\x83\xc0\xca1\\@'
p127
tp128
Rp129
ag10
(g14
S'\xe7\xd0"\xdb\xf9^X@'
p130
tp131
Rp132
ag10
(g14
S' Zd;\xdfoZ@'
p133
tp134
Rp135
ag10
(g14
S'\xc6\xcc\xcc\xcc\xccdX@'
p136
tp137
Rp138
asssss.