(dp0
S'../Data/sqlite_36.csv'
p1
(dp2
S'../Data/sqlite_97.csv'
p3
(dp4
F0.2
(dp5
S'mmre'
p6
(dp7
S'bellwether'
p8
(lp9
cnumpy.core.multiarray
scalar
p10
(cnumpy
dtype
p11
(S'f8'
p12
I0
I1
tp13
Rp14
(I3
S'<'
p15
NNNI-1
I-1
I0
tp16
bS'\xf5\xa7\xedC\x94aW@'
p17
tp18
Rp19
ag10
(g14
S'\x9e\xf4\xf2M\x10cW@'
p20
tp21
Rp22
ag10
(g14
S'\xf3\xe8\x13+\xdfbW@'
p23
tp24
Rp25
ag10
(g14
S't\x8e.A\xabaW@'
p26
tp27
Rp28
ag10
(g14
S'd\x08&\xcdy`W@'
p29
tp30
Rp31
ag10
(g14
S'.\xad\xf0\xf2sdW@'
p32
tp33
Rp34
ag10
(g14
S'`\xb1$w9bW@'
p35
tp36
Rp37
ag10
(g14
S'\x00\x94@\xdeYaW@'
p38
tp39
Rp40
ag10
(g14
S'\x0b\xe9Qu\xb5cW@'
p41
tp42
Rp43
ag10
(g14
S'\xee\x17o5\xaaeW@'
p44
tp45
Rp46
ag10
(g14
S'2\xf6\x06j\x1e`W@'
p47
tp48
Rp49
ag10
(g14
S'\xe2v\x0f\xa4\xa0bW@'
p50
tp51
Rp52
ag10
(g14
S'\xe6\xd8)7\x90eW@'
p53
tp54
Rp55
ag10
(g14
S'\xae`\x8d\xa1\xd2fW@'
p56
tp57
Rp58
ag10
(g14
S'Z};\xca\xea_W@'
p59
tp60
Rp61
ag10
(g14
S'\x9epU\xf5\xc1cW@'
p62
tp63
Rp64
ag10
(g14
S'\xf2\xd4z\x192bW@'
p65
tp66
Rp67
ag10
(g14
S'\xabMy^hbW@'
p68
tp69
Rp70
ag10
(g14
S'\xf8\xc4\xd6\xb4~]W@'
p71
tp72
Rp73
ag10
(g14
S'\xd3\xbf8\xaa,`W@'
p74
tp75
Rp76
asS'target'
p77
(lp78
g10
(g14
S'x\xacW\xf2\xaa}S@'
p79
tp80
Rp81
ag10
(g14
S'\xa2e\xc9\xdaK\xa2G@'
p82
tp83
Rp84
ag10
(g14
S't\xc8\xe1\xcdU\xfbN@'
p85
tp86
Rp87
ag10
(g14
S'r\xc4Hx/iV@'
p88
tp89
Rp90
ag10
(g14
S'\xf6\x1d\xf3t\xb7*T@'
p91
tp92
Rp93
ag10
(g14
S'Ri\x85\xbe\x8f\xd4H@'
p94
tp95
Rp96
ag10
(g14
S'\t\xff\x83\xad\xe4QQ@'
p97
tp98
Rp99
ag10
(g14
S'\xe4\xdcv\xab55X@'
p100
tp101
Rp102
ag10
(g14
S"xC'#\x97\x14I@"
p103
tp104
Rp105
ag10
(g14
S'\xf49;\xfe\x8fCO@'
p106
tp107
Rp108
ag10
(g14
S'\xcc\x96\xbc\xa4t\x14T@'
p109
tp110
Rp111
ag10
(g14
S'&\x99\xcb\xf6\x13\xbeV@'
p112
tp113
Rp114
ag10
(g14
S'h-\x9c\x9b\xe4\xdaR@'
p115
tp116
Rp117
ag10
(g14
S'T?$\xc3oJG@'
p118
tp119
Rp120
ag10
(g14
S'H\x9c=\x1cB\xf2Q@'
p121
tp122
Rp123
ag10
(g14
S'\xc2\xfc\x84\xb0\xc1\xdfS@'
p124
tp125
Rp126
ag10
(g14
S'.D\x92eORQ@'
p127
tp128
Rp129
ag10
(g14
S'\x0f\xfe}p>\xaaU@'
p130
tp131
Rp132
ag10
(g14
S'VpQ\xed\xcc,`@'
p133
tp134
Rp135
ag10
(g14
S'Q\x01m\xf2\xb7a^@'
p136
tp137
Rp138
asssss.