(dp0
S'../Data/sqlite_35.csv'
p1
(dp2
S'../Data/sqlite_94.csv'
p3
(dp4
F0.25
(dp5
S'mmre'
p6
(dp7
S'bellwether'
p8
(lp9
cnumpy.core.multiarray
scalar
p10
(cnumpy
dtype
p11
(S'f8'
p12
I0
I1
tp13
Rp14
(I3
S'<'
p15
NNNI-1
I-1
I0
tp16
bS'o>\xbc\xbd\xe7,X@'
p17
tp18
Rp19
ag10
(g14
S' g\xac\xafw,X@'
p20
tp21
Rp22
ag10
(g14
S'\xcd_\xd0\xb5\x1a-X@'
p23
tp24
Rp25
ag10
(g14
S'\xd9\xb5\xc2\x8d\xe2,X@'
p26
tp27
Rp28
ag10
(g14
S'+\xe2\ne\x02+X@'
p29
tp30
Rp31
ag10
(g14
S'\xa0B32\xf4+X@'
p32
tp33
Rp34
ag10
(g14
S'\xad$\x9028,X@'
p35
tp36
Rp37
ag10
(g14
S'\x02pGB\xe7-X@'
p38
tp39
Rp40
ag10
(g14
S'\xcf\xf5\r[w-X@'
p41
tp42
Rp43
ag10
(g14
S'\xfd@~R\x01-X@'
p44
tp45
Rp46
ag10
(g14
S'l9\x02\xa8[,X@'
p47
tp48
Rp49
ag10
(g14
S'&f\x05*D+X@'
p50
tp51
Rp52
ag10
(g14
S'j\xbf\xde\xa0\xcf-X@'
p53
tp54
Rp55
ag10
(g14
S'5\xa0%kr,X@'
p56
tp57
Rp58
ag10
(g14
S'7\x95\x8b\x95*+X@'
p59
tp60
Rp61
ag10
(g14
S'x\xe0!L\xab-X@'
p62
tp63
Rp64
ag10
(g14
S'\xe6\xae\xb1\xbf\xc4+X@'
p65
tp66
Rp67
ag10
(g14
S'\x9a\xednG).X@'
p68
tp69
Rp70
ag10
(g14
S'bq\x84~\xc0,X@'
p71
tp72
Rp73
ag10
(g14
S'U(\x8b-Y-X@'
p74
tp75
Rp76
asS'target'
p77
(lp78
g10
(g14
S'd\x9e\xb4\xa5\xac[S@'
p79
tp80
Rp81
ag10
(g14
S'|mz\xe6ZzQ@'
p82
tp83
Rp84
ag10
(g14
S'\xb4\x1c\xeb5\\\xf3P@'
p85
tp86
Rp87
ag10
(g14
S'\xdde\x169E\xf6V@'
p88
tp89
Rp90
ag10
(g14
S'V\x0c\xe3\x85g\x80V@'
p91
tp92
Rp93
ag10
(g14
S'\x9c,\r,\xff`X@'
p94
tp95
Rp96
ag10
(g14
S'\xc6-|\x984"U@'
p97
tp98
Rp99
ag10
(g14
S'}L\xab"\xc3\xcdI@'
p100
tp101
Rp102
ag10
(g14
S'&\x89}\xfd\xc8\x9cQ@'
p103
tp104
Rp105
ag10
(g14
S'\xb1f\xb8\xfc\xafRT@'
p106
tp107
Rp108
ag10
(g14
S'$=;\xf5\xf0pP@'
p109
tp110
Rp111
ag10
(g14
S'8\x1c\x02iTVX@'
p112
tp113
Rp114
ag10
(g14
S'\x11\xfd\xad\xc1zPN@'
p115
tp116
Rp117
ag10
(g14
S'/\xdc\xcf\xb4f\xccP@'
p118
tp119
Rp120
ag10
(g14
S'l\x81\x0cT\xd4\xfdQ@'
p121
tp122
Rp123
ag10
(g14
S'1\xa2\xe9[3jU@'
p124
tp125
Rp126
ag10
(g14
S'\xad\xadPw\x19\x1aJ@'
p127
tp128
Rp129
ag10
(g14
S'\xc5\xb7]\xba,\xedO@'
p130
tp131
Rp132
ag10
(g14
S'>\xf8\xd5}\xf3\xeeQ@'
p133
tp134
Rp135
ag10
(g14
S',vA\x8a)\xf4Q@'
p136
tp137
Rp138
asssss.