(dp0
S'../Data/sqlite_4.csv'
p1
(dp2
S'../Data/sqlite_5.csv'
p3
(dp4
F0.35
(dp5
S'abs_res'
p6
(dp7
S'bellwether'
p8
(lp9
cnumpy.core.multiarray
scalar
p10
(cnumpy
dtype
p11
(S'f8'
p12
I0
I1
tp13
Rp14
(I3
S'<'
p15
NNNI-1
I-1
I0
tp16
bS'\x81\xcd\x85$dF9A'
p17
tp18
Rp19
ag10
(g14
S'\x15\xd9\xcew\xb7H9A'
p20
tp21
Rp22
ag10
(g14
S'N7\x89A=J9A'
p23
tp24
Rp25
ag10
(g14
S'\xca\xd9\x87O\xe8I9A'
p26
tp27
Rp28
ag10
(g14
S'd\x82\x07\x13sI9A'
p29
tp30
Rp31
ag10
(g14
S'f;\xdf\xaf\xf8H9A'
p32
tp33
Rp34
ag10
(g14
S'\x99\x8a\xb3\xafIL9A'
p35
tp36
Rp37
ag10
(g14
S'\xf6S\xe3\xa5,G9A'
p38
tp39
Rp40
ag10
(g14
S'R\xd4\xbfQfH9A'
p41
tp42
Rp43
ag10
(g14
S't!i*]K9A'
p44
tp45
Rp46
ag10
(g14
S'\x8b{\xcd\x85BJ9A'
p47
tp48
Rp49
ag10
(g14
S'0B\x19}\x90K9A'
p50
tp51
Rp52
ag10
(g14
S'\x8b\xb3\x0f\x7fGI9A'
p53
tp54
Rp55
ag10
(g14
S'Rb\x10X9I9A'
p56
tp57
Rp58
ag10
(g14
S'\xbd\xf5(\xfc\x07I9A'
p59
tp60
Rp61
ag10
(g14
S'\x1bK~QqI9A'
p62
tp63
Rp64
ag10
(g14
S'*O\xd4_}I9A'
p65
tp66
Rp67
ag10
(g14
S'\x0b\x1e\xcc\xf3\x08I9A'
p68
tp69
Rp70
ag10
(g14
S'\x8a]\x012\xe4J9A'
p71
tp72
Rp73
ag10
(g14
S'q=\nW\x87H9A'
p74
tp75
Rp76
asS'target'
p77
(lp78
g10
(g14
S'\xda\xa5\x9b\xc4 \xbcV@'
p79
tp80
Rp81
ag10
(g14
S'\xc4I\x0c\x02+\xcfV@'
p82
tp83
Rp84
ag10
(g14
S'xj\xbct\x93hV@'
p85
tp86
Rp87
ag10
(g14
S'v\xbe\x9f\x1a/]V@'
p88
tp89
Rp90
ag10
(g14
S'\xc3K7\x89A\xb4S@'
p91
tp92
Rp93
ag10
(g14
S'=\x8bl\xe7\xfb%U@'
p94
tp95
Rp96
ag10
(g14
S')\\\x8f\xc2\xf5\xfcW@'
p97
tp98
Rp99
ag10
(g14
S'\x8c\x18\x04V\x0e\x81U@'
p100
tp101
Rp102
ag10
(g14
S'k\x91\xed|?\x19W@'
p103
tp104
Rp105
ag10
(g14
S'N\x0c\x02+\x87\xbeT@'
p106
tp107
Rp108
ag10
(g14
S'H\xe1z\x14\xae\xbbT@'
p109
tp110
Rp111
ag10
(g14
S'w\xbe\x9f\x1a/\xcdU@'
p112
tp113
Rp114
ag10
(g14
S'C5^\xbaI\x1cY@'
p115
tp116
Rp117
ag10
(g14
S'\xff\xd6\xa3p=\xc2X@'
p118
tp119
Rp120
ag10
(g14
S'\x9a\x0bIS*>V@'
p121
tp122
Rp123
ag10
(g14
S'\t\xac\x1cZd\x93U@'
p124
tp125
Rp126
ag10
(g14
S'\x1d\xdb\xf9~j\xacU@'
p127
tp128
Rp129
ag10
(g14
S'\x1a\x04V\x0e-\xc2U@'
p130
tp131
Rp132
ag10
(g14
S'\x08V\x0e-\xb2\xcdY@'
p133
tp134
Rp135
ag10
(g14
S'<\xb4\xc8v\xbe\xefU@'
p136
tp137
Rp138
asssss.