(dp0
S'../Data/sqlite_91.csv'
p1
(dp2
S'../Data/sqlite_20.csv'
p3
(dp4
F0.1
(dp5
S'abs_res'
p6
(dp7
S'bellwether'
p8
(lp9
cnumpy.core.multiarray
scalar
p10
(cnumpy
dtype
p11
(S'f8'
p12
I0
I1
tp13
Rp14
(I3
S'<'
p15
NNNI-1
I-1
I0
tp16
bS'0\xdfO\xcd\x98<&A'
p17
tp18
Rp19
ag10
(g14
S'\x96n\x12\x03\x129&A'
p20
tp21
Rp22
ag10
(g14
S'\xed\xd0"\xdbw(&A'
p23
tp24
Rp25
ag10
(g14
S'G\xa7\rt\\<&A'
p26
tp27
Rp28
ag10
(g14
S'\xab\x7f#T|<&A'
p29
tp30
Rp31
ag10
(g14
S'\xe4z\x14n\x04F&A'
p32
tp33
Rp34
ag10
(g14
S'o\xbe\x9f\xda\x9aC&A'
p35
tp36
Rp37
ag10
(g14
S'\xf2\xb6\xacU\xd4S&A'
p38
tp39
Rp40
ag10
(g14
S'\xb2\x1e\x85\xeb/X&A'
p41
tp42
Rp43
ag10
(g14
S'\xf6\xfd\xd48xL&A'
p44
tp45
Rp46
ag10
(g14
S'\xe8\xfb\xa91\x0b[&A'
p47
tp48
Rp49
ag10
(g14
S'J\xb6\xf3}\x02A&A'
p50
tp51
Rp52
ag10
(g14
S'\xd5\xce\xf7\x13\xd1I&A'
p53
tp54
Rp55
ag10
(g14
S'\xd0\xcc\xccL(:&A'
p56
tp57
Rp58
ag10
(g14
S'\xe2\n\x90;\xba.&A'
p59
tp60
Rp61
ag10
(g14
S'\x04+\x87\x16=G&A'
p62
tp63
Rp64
ag10
(g14
S'\xdbMb\x90\xdbB&A'
p65
tp66
Rp67
ag10
(g14
S'\xa6\xc6K\xb7tO&A'
p68
tp69
Rp70
ag10
(g14
S'8\n\xd7\xe3\xac4&A'
p71
tp72
Rp73
ag10
(g14
S'\tX9\xf4\xbe5&A'
p74
tp75
Rp76
asS'target'
p77
(lp78
g10
(g14
S'\r\x02+\x87\x16>r@'
p79
tp80
Rp81
ag10
(g14
S'\x98\x99\x99\x99\x99\x8fs@'
p82
tp83
Rp84
ag10
(g14
S's\x12\x83\xc0\xca\xf5q@'
p85
tp86
Rp87
ag10
(g14
S'|?5^\xba{v@'
p88
tp89
Rp90
ag10
(g14
S'>\xdfO\x8d\x97\xe8q@'
p91
tp92
Rp93
ag10
(g14
S'B`\xe5\xd0"\xabs@'
p94
tp95
Rp96
ag10
(g14
S';\xb4\xc8v\xbe\xbbt@'
p97
tp98
Rp99
ag10
(g14
S'#\xdb\xf9~j,s@'
p100
tp101
Rp102
ag10
(g14
S'\x9c\xc6K7\x89\xebr@'
p103
tp104
Rp105
ag10
(g14
S'>\x8bl\xe7\xfb\x1br@'
p106
tp107
Rp108
ag10
(g14
S'b;\xdfO\x8d5s@'
p109
tp110
Rp111
ag10
(g14
S'\xa6E\xb6\xf3\xfd\xf2s@'
p112
tp113
Rp114
ag10
(g14
S'\x94\xc2\xf5(\\Qs@'
p115
tp116
Rp117
ag10
(g14
S'\x9d\xef\xa7\xc6KMr@'
p118
tp119
Rp120
ag10
(g14
S'\xe6z\x14\xaeGkv@'
p121
tp122
Rp123
ag10
(g14
S'w\xbe\x9f\x1a/=s@'
p124
tp125
Rp126
ag10
(g14
S'I7\x89A`Ms@'
p127
tp128
Rp129
ag10
(g14
S'\x1fZd;\xdf\x95s@'
p130
tp131
Rp132
ag10
(g14
S'\xa6\x9b\xc4 \xb0\x9cr@'
p133
tp134
Rp135
ag10
(g14
S'\xbc\xca\xa1E\xb6\x01s@'
p136
tp137
Rp138
asssss.