(dp0
S'../Data/sqlite_35.csv'
p1
(dp2
S'../Data/sqlite_59.csv'
p3
(dp4
F0.15
(dp5
S'mmre'
p6
(dp7
S'bellwether'
p8
(lp9
cnumpy.core.multiarray
scalar
p10
(cnumpy
dtype
p11
(S'f8'
p12
I0
I1
tp13
Rp14
(I3
S'<'
p15
NNNI-1
I-1
I0
tp16
bS'\x8b\xe8\x890\xa8YG@'
p17
tp18
Rp19
ag10
(g14
S'\x0f\x11\x0c8\xa8_G@'
p20
tp21
Rp22
ag10
(g14
S'\xb7\xe1\xffp\x81TG@'
p23
tp24
Rp25
ag10
(g14
S'\x9f\xc7}(\\cG@'
p26
tp27
Rp28
ag10
(g14
S'O,\xc3$\xd8MG@'
p29
tp30
Rp31
ag10
(g14
S'k\\\xa4\x1eRNG@'
p32
tp33
Rp34
ag10
(g14
S'\x85\x03\xb2\xf9DYG@'
p35
tp36
Rp37
ag10
(g14
S'\xcb8\x01\x88\nSG@'
p38
tp39
Rp40
ag10
(g14
S"Dp\x85u'TG@"
p41
tp42
Rp43
ag10
(g14
S'\xb3\x17\x15\xccwJG@'
p44
tp45
Rp46
ag10
(g14
S'Z\xf1\xea[#_G@'
p47
tp48
Rp49
ag10
(g14
S'"AjoRlG@'
p50
tp51
Rp52
ag10
(g14
S"'\xadQa\x8bOG@"
p53
tp54
Rp55
ag10
(g14
S's\x07TRacG@'
p56
tp57
Rp58
ag10
(g14
S'\x9eWTv\xadrG@'
p59
tp60
Rp61
ag10
(g14
S'\xa9\xe6\xca\xf7dSG@'
p62
tp63
Rp64
ag10
(g14
S'\xa2A$\x10\xdf]G@'
p65
tp66
Rp67
ag10
(g14
S'\xd2E+\xcf\xdeUG@'
p68
tp69
Rp70
ag10
(g14
S'o\xba\xf9\xb2+`G@'
p71
tp72
Rp73
ag10
(g14
S'\x14\xb3\x83-\xefJG@'
p74
tp75
Rp76
asS'target'
p77
(lp78
g10
(g14
S'\x1a\xa7\xc8\x7f\xcc,&@'
p79
tp80
Rp81
ag10
(g14
S'^rYK\x01\xf4$@'
p82
tp83
Rp84
ag10
(g14
S'\xaa\xb3>YU\xb7&@'
p85
tp86
Rp87
ag10
(g14
S'Z\x81\xdd\xaf\x02_&@'
p88
tp89
Rp90
ag10
(g14
S'\x08G\xb9B\xbd\r(@'
p91
tp92
Rp93
ag10
(g14
S'\xfe\xb2\xd9\xf3\xb4\x98&@'
p94
tp95
Rp96
ag10
(g14
S"y\xa8r\xa4\xc7\x92'@"
p97
tp98
Rp99
ag10
(g14
S'\x18Q\x0cwDA&@'
p100
tp101
Rp102
ag10
(g14
S'\xa7\xd99P\xb5\xff$@'
p103
tp104
Rp105
ag10
(g14
S"(8fP\xd4>'@"
p106
tp107
Rp108
ag10
(g14
S'x/\x14Wc\xf2(@'
p109
tp110
Rp111
ag10
(g14
S'#\x8a\xb4\xe4b\xbe#@'
p112
tp113
Rp114
ag10
(g14
S"\x19\xce\x97\xed\xd3\xea'@"
p115
tp116
Rp117
ag10
(g14
S"rN\x0f\xf9o\x82'@"
p118
tp119
Rp120
ag10
(g14
S'\xf6l\x05d}\x81$@'
p121
tp122
Rp123
ag10
(g14
S"\xd8h!Jz''@"
p124
tp125
Rp126
ag10
(g14
S'c\xd9\xf55W\x87%@'
p127
tp128
Rp129
ag10
(g14
S'\xbfK\xdc\xf3.\x91$@'
p130
tp131
Rp132
ag10
(g14
S"Y\xc7k\xee\x05\x9b'@"
p133
tp134
Rp135
ag10
(g14
S"\xa7v\x04\xdd\x1d\xf3'@"
p136
tp137
Rp138
asssss.