(dp0
S'../Data/sqlite_18.csv'
p1
(dp2
S'../Data/sqlite_58.csv'
p3
(dp4
F0.35
(dp5
S'abs_res'
p6
(dp7
S'bellwether'
p8
(lp9
cnumpy.core.multiarray
scalar
p10
(cnumpy
dtype
p11
(S'f8'
p12
I0
I1
tp13
Rp14
(I3
S'<'
p15
NNNI-1
I-1
I0
tp16
bS'8|\x86\x1di49A'
p17
tp18
Rp19
ag10
(g14
S'R\x80\xdc\xcbm39A'
p20
tp21
Rp22
ag10
(g14
S'\x8c%\xbf\x98Y59A'
p23
tp24
Rp25
ag10
(g14
S'#""\xc2\xe239A'
p26
tp27
Rp28
ag10
(g14
S'\x1bv\x05\xa8<69A'
p29
tp30
Rp31
ag10
(g14
S'\x08\xc8\xbd\xc6\xa659A'
p32
tp33
Rp34
ag10
(g14
S'\x15\xd7\xa3\x10>59A'
p35
tp36
Rp37
ag10
(g14
S'LS*.\xbe29A'
p38
tp39
Rp40
ag10
(g14
S'\xaf\x0f\x9f\xe1Y29A'
p41
tp42
Rp43
ag10
(g14
S'\xc7\xcc\xcc\x0cn69A'
p44
tp45
Rp46
ag10
(g14
S'd\x03\x9dv\x1c69A'
p47
tp48
Rp49
ag10
(g14
S'\xed\n\x90[\xfb39A'
p50
tp51
Rp52
ag10
(g14
S'\x1c\x06\x81\xf5\x0759A'
p53
tp54
Rp55
ag10
(g14
S'n!i\xaar49A'
p56
tp57
Rp58
ag10
(g14
S'p\x05\xc8}\xb239A'
p59
tp60
Rp61
ag10
(g14
S'$\xf7\x9aK\x0259A'
p62
tp63
Rp64
ag10
(g14
S'\xc0\x04\x0f&n39A'
p65
tp66
Rp67
ag10
(g14
S"\x96'\xea_\x9259A"
p68
tp69
Rp70
ag10
(g14
S'\xfbF(\xe3\xf429A'
p71
tp72
Rp73
ag10
(g14
S"K\xffF\xa8'49A"
p74
tp75
Rp76
asS'target'
p77
(lp78
g10
(g14
S'J7\x89A`5Q@'
p79
tp80
Rp81
ag10
(g14
S'\x95C\x8bl\xe7kP@'
p82
tp83
Rp84
ag10
(g14
S'a\xe5\xd0"\xdb=R@'
p85
tp86
Rp87
ag10
(g14
S'8^\xbaI\x0c"R@'
p88
tp89
Rp90
ag10
(g14
S'\x91\x18\x04V\x0e\xedQ@'
p91
tp92
Rp93
ag10
(g14
S'S\x8d\x97n\x12#Q@'
p94
tp95
Rp96
ag10
(g14
S'\xc7v\xbe\x9f\x1a3S@'
p97
tp98
Rp99
ag10
(g14
S'\xca\xa1E\xb6\xf3%R@'
p100
tp101
Rp102
ag10
(g14
S'2^\xbaI\x0crQ@'
p103
tp104
Rp105
ag10
(g14
S'`\xe5\xd0"\xdb\x9dQ@'
p106
tp107
Rp108
ag10
(g14
S'\xddz\x14\xaeG\xa9Q@'
p109
tp110
Rp111
ag10
(g14
S'\x9a\x99\x99\x99\x99UQ@'
p112
tp113
Rp114
ag10
(g14
S'\xc4\xca\xa1E\xb6\x13R@'
p115
tp116
Rp117
ag10
(g14
S'\x0e\xd7\xa3p=JQ@'
p118
tp119
Rp120
ag10
(g14
S'\xe6\xfb\xa9\xf1\xd2qQ@'
p121
tp122
Rp123
ag10
(g14
S'a\x10X9\xb4pQ@'
p124
tp125
Rp126
ag10
(g14
S'\xb4\xf3\xfd\xd4x\xa9R@'
p127
tp128
Rp129
ag10
(g14
S'\xef\xd0"\xdb\xf9~R@'
p130
tp131
Rp132
ag10
(g14
S'\x19/\xdd$\x06\xb9Q@'
p133
tp134
Rp135
ag10
(g14
S'\x86\xebQ\xb8\x1eAR@'
p136
tp137
Rp138
asssss.