(dp0
S'../Data/sqlite_43.csv'
p1
(dp2
S'../Data/sqlite_0.csv'
p3
(dp4
F0.25
(dp5
S'abs_res'
p6
(dp7
S'bellwether'
p8
(lp9
cnumpy.core.multiarray
scalar
p10
(cnumpy
dtype
p11
(S'f8'
p12
I0
I1
tp13
Rp14
(I3
S'<'
p15
NNNI-1
I-1
I0
tp16
bS'\xb6\xac\xd5\xd1\x80l<A'
p17
tp18
Rp19
ag10
(g14
S'\xf9\xe3^Swl<A'
p20
tp21
Rp22
ag10
(g14
S'R9\xb4h\x1cm<A'
p23
tp24
Rp25
ag10
(g14
S'}\xa2\xfe\xadFm<A'
p26
tp27
Rp28
ag10
(g14
S'|\x05\xc8\xfd\x86m<A'
p29
tp30
Rp31
ag10
(g14
S'\xddO\x8d\x97Ll<A'
p32
tp33
Rp34
ag10
(g14
S'`;\xdfo\x8bl<A'
p35
tp36
Rp37
ag10
(g14
S'\xe0\x96\xb5Z\x14l<A'
p38
tp39
Rp40
ag10
(g14
S"J\xe1z\xf4'm<A"
p41
tp42
Rp43
ag10
(g14
S'\xb1G\xe1\x9a$l<A'
p44
tp45
Rp46
ag10
(g14
S'\xf9b\xc9/\xcem<A'
p47
tp48
Rp49
ag10
(g14
S'"M\xa9\xf8\xd6l<A'
p50
tp51
Rp52
ag10
(g14
S'5Q\xffFbl<A'
p53
tp54
Rp55
ag10
(g14
S'/\xb2\x9dO\xc1l<A'
p56
tp57
Rp58
ag10
(g14
S'\x8c\xebQ\x18\x19l<A'
p59
tp60
Rp61
ag10
(g14
S'9\x89A\x80\xfdm<A'
p62
tp63
Rp64
ag10
(g14
S'f\xad\x8e\xc9[l<A'
p65
tp66
Rp67
ag10
(g14
S'\xf0\xa7\xc6+\x9el<A'
p68
tp69
Rp70
ag10
(g14
S'\xd7\x15 w\x14m<A'
p71
tp72
Rp73
ag10
(g14
S'\xf2\xc5\x92_*l<A'
p74
tp75
Rp76
asS'target'
p77
(lp78
g10
(g14
S'\x83\x16\xd9\xce\xf7\x07e@'
p79
tp80
Rp81
ag10
(g14
S'\xd8\xce\xf7S\xe3\xfbc@'
p82
tp83
Rp84
ag10
(g14
S'\xefQ\xb8\x1e\x857e@'
p85
tp86
Rp87
ag10
(g14
S'y\xe9&1\x080f@'
p88
tp89
Rp90
ag10
(g14
S'\xf5|?5^vc@'
p91
tp92
Rp93
ag10
(g14
S'\x93\x18\x04V\x0e\xb1b@'
p94
tp95
Rp96
ag10
(g14
S'\xa6p=\n\xd7qd@'
p97
tp98
Rp99
ag10
(g14
S'7\xb4\xc8v\xbeOd@'
p100
tp101
Rp102
ag10
(g14
S'\x81j\xbct\x93Re@'
p103
tp104
Rp105
ag10
(g14
S'\xf5\xa7\xc6K71d@'
p106
tp107
Rp108
ag10
(g14
S'\xbd\x9f\x1a/\xdd.d@'
p109
tp110
Rp111
ag10
(g14
S'\\\xe5\xd0"\xdb)d@'
p112
tp113
Rp114
ag10
(g14
S'7\xb4\xc8v\xbewc@'
p115
tp116
Rp117
ag10
(g14
S'\xc1\x1e\x85\xebQ4c@'
p118
tp119
Rp120
ag10
(g14
S'\x82j\xbct\x93\xd0e@'
p121
tp122
Rp123
ag10
(g14
S'\x15\xaeG\xe1z\xb2e@'
p124
tp125
Rp126
ag10
(g14
S'*\\\x8f\xc2\xf5\xc0c@'
p127
tp128
Rp129
ag10
(g14
S'\xaap=\n\xd7\x8fb@'
p130
tp131
Rp132
ag10
(g14
S'W\x0e-\xb2\x9d\xc3c@'
p133
tp134
Rp135
ag10
(g14
S'\xdd$\x06\x81\x95Kc@'
p136
tp137
Rp138
asssss.