(dp0
S'../Data/sqlite_15.csv'
p1
(dp2
S'../Data/sqlite_14.csv'
p3
(dp4
F0.15
(dp5
S'abs_res'
p6
(dp7
S'bellwether'
p8
(lp9
cnumpy.core.multiarray
scalar
p10
(cnumpy
dtype
p11
(S'f8'
p12
I0
I1
tp13
Rp14
(I3
S'<'
p15
NNNI-1
I-1
I0
tp16
bS'\\\xe5\xd02\xb8*@A'
p17
tp18
Rp19
ag10
(g14
S'\xd0\xbf\x11:_+@A'
p20
tp21
Rp22
ag10
(g14
S'_;\xdf_G+@A'
p23
tp24
Rp25
ag10
(g14
S'\xa7\xc6K\xb7M*@A'
p26
tp27
Rp28
ag10
(g14
S'\x11\x83\xc0\xda\x0e+@A'
p29
tp30
Rp31
ag10
(g14
S'|\xa4)\xd5\xf5*@A'
p32
tp33
Rp34
ag10
(g14
S'\xdc\x08e$D+@A'
p35
tp36
Rp37
ag10
(g14
S'\xf6~j\xacS*@A'
p38
tp39
Rp40
ag10
(g14
S"\x99'\xea/&+@A"
p41
tp42
Rp43
ag10
(g14
S'\\\xe5\xd0rl+@A'
p44
tp45
Rp46
ag10
(g14
S'$@\xee%\xfb*@A'
p47
tp48
Rp49
ag10
(g14
S'cff\x96=+@A'
p50
tp51
Rp52
ag10
(g14
S'#\x13<\xd8\xc1+@A'
p53
tp54
Rp55
ag10
(g14
S'\x85\xc0\xcaa\xef*@A'
p56
tp57
Rp58
ag10
(g14
S'{#\x94\xd1\xe6*@A'
p59
tp60
Rp61
ag10
(g14
S'\xbc\xca\xa1%\xb0+@A'
p62
tp63
Rp64
ag10
(g14
S'\x13\x04V~Z+@A'
p65
tp66
Rp67
ag10
(g14
S'\xb7\xac\xd5\x11j+@A'
p68
tp69
Rp70
ag10
(g14
S'\t\xbb\x02DI*@A'
p71
tp72
Rp73
ag10
(g14
S'\x98\xc4 0\x0e+@A'
p74
tp75
Rp76
asS'target'
p77
(lp78
g10
(g14
S'j\xbct\x93\x18`d@'
p79
tp80
Rp81
ag10
(g14
S'\x1f\x83\xc0\xca\xa1\xc5f@'
p82
tp83
Rp84
ag10
(g14
S'\xa1\x9b\xc4 \xb0Pe@'
p85
tp86
Rp87
ag10
(g14
S'\xe5O\x8d\x97n^h@'
p88
tp89
Rp90
ag10
(g14
S'\xd4\xf9~j\xbctd@'
p91
tp92
Rp93
ag10
(g14
S'\x1fZd;\xdf\x0bh@'
p94
tp95
Rp96
ag10
(g14
S'\xf7\xfd\xd4x\xe9\xaef@'
p97
tp98
Rp99
ag10
(g14
S'<\xb4\xc8v\xbe\xcfd@'
p100
tp101
Rp102
ag10
(g14
S'\xf5(\\\x8f\xc2=e@'
p103
tp104
Rp105
ag10
(g14
S'\x9an\x12\x83\xc0\xdae@'
p106
tp107
Rp108
ag10
(g14
S'\x8eA`\xe5\xd0\nc@'
p109
tp110
Rp111
ag10
(g14
S'\xe2\xfb\xa9\xf1\xd2\xf1d@'
p112
tp113
Rp114
ag10
(g14
S'\xb6\x1e\x85\xebQ\x90d@'
p115
tp116
Rp117
ag10
(g14
S'~\x93\x18\x04V^d@'
p118
tp119
Rp120
ag10
(g14
S'\x7fj\xbct\x93Pf@'
p121
tp122
Rp123
ag10
(g14
S'\xed|?5^Nf@'
p124
tp125
Rp126
ag10
(g14
S'O\xb8\x1e\x85\xeb\x19f@'
p127
tp128
Rp129
ag10
(g14
S'e;\xdfO\x8d\xbfe@'
p130
tp131
Rp132
ag10
(g14
S'z=\n\xd7\xa38g@'
p133
tp134
Rp135
ag10
(g14
S'\xc6\xa1E\xb6\xf3\x91f@'
p136
tp137
Rp138
asssss.