(dp0
S'../Data/sqlite_50.csv'
p1
(dp2
S'../Data/sqlite_87.csv'
p3
(dp4
F0.1
(dp5
S'mmre'
p6
(dp7
S'bellwether'
p8
(lp9
cnumpy.core.multiarray
scalar
p10
(cnumpy
dtype
p11
(S'f8'
p12
I0
I1
tp13
Rp14
(I3
S'<'
p15
NNNI-1
I-1
I0
tp16
bS'\x8e\xc8\x9c,\xa4SS@'
p17
tp18
Rp19
ag10
(g14
S't\r\xd2\xe6\xf7PS@'
p20
tp21
Rp22
ag10
(g14
S'\xc7|\xf4Q6PS@'
p23
tp24
Rp25
ag10
(g14
S'\x05/\xcd5\xf8IS@'
p26
tp27
Rp28
ag10
(g14
S'6\x0f\xc9V`LS@'
p29
tp30
Rp31
ag10
(g14
S'*e\xf5\xa8\xefQS@'
p32
tp33
Rp34
ag10
(g14
S'\xbd\xb5"\xf2\x16QS@'
p35
tp36
Rp37
ag10
(g14
S'\x9e\xef\r\xbe\xd2PS@'
p38
tp39
Rp40
ag10
(g14
S'\xed\x13\xafqwHS@'
p41
tp42
Rp43
ag10
(g14
S'A\xa5\xaag\xd2YS@'
p44
tp45
Rp46
ag10
(g14
S'"\xbf\xaaT\xf4ZS@'
p47
tp48
Rp49
ag10
(g14
S'\xd6\x19F(\xf6KS@'
p50
tp51
Rp52
ag10
(g14
S'LiM]\tVS@'
p53
tp54
Rp55
ag10
(g14
S'\x8b-9m\x17US@'
p56
tp57
Rp58
ag10
(g14
S'\x1d\x7fc\xa7VPS@'
p59
tp60
Rp61
ag10
(g14
S's5b\xf9\xd5FS@'
p62
tp63
Rp64
ag10
(g14
S'\x8a3C\x86QJS@'
p65
tp66
Rp67
ag10
(g14
S'W\xc1FV\xe4RS@'
p68
tp69
Rp70
ag10
(g14
S'\x7f/\x1f\xbb\x01ZS@'
p71
tp72
Rp73
ag10
(g14
S'\x86|\x02e\x98ZS@'
p74
tp75
Rp76
asS'target'
p77
(lp78
g10
(g14
S'/=k\x86e\x08P@'
p79
tp80
Rp81
ag10
(g14
S'\xde\xa8\xa5\xaf\x85\x0eJ@'
p82
tp83
Rp84
ag10
(g14
S'\xed\xb4*\xcc\xff\xda[@'
p85
tp86
Rp87
ag10
(g14
S'=\xda-uo\x11V@'
p88
tp89
Rp90
ag10
(g14
S'\xdb@\x85\xf8^\x83Q@'
p91
tp92
Rp93
ag10
(g14
S'\xb0uB!&TI@'
p94
tp95
Rp96
ag10
(g14
S'\xeat\x03\x0c\xbcnP@'
p97
tp98
Rp99
ag10
(g14
S'\x80@]\xf5I\xe8L@'
p100
tp101
Rp102
ag10
(g14
S'u.\xca_\x9b\x9cQ@'
p103
tp104
Rp105
ag10
(g14
S'570~K\x92L@'
p106
tp107
Rp108
ag10
(g14
S'\x1cBef\xec\xcaK@'
p109
tp110
Rp111
ag10
(g14
S'B\x9a\x84\xf7\xde\xe9Q@'
p112
tp113
Rp114
ag10
(g14
S'Bl5]N\x92J@'
p115
tp116
Rp117
ag10
(g14
S'k\x87C\xf0\x18\xd0P@'
p118
tp119
Rp120
ag10
(g14
S'\xe4\xe4\nVS\x9fL@'
p121
tp122
Rp123
ag10
(g14
S'y\x84|\xc0]\xeaX@'
p124
tp125
Rp126
ag10
(g14
S'\xce\x8b\xf0 cQV@'
p127
tp128
Rp129
ag10
(g14
S'\x80#^_\xdf\x14O@'
p130
tp131
Rp132
ag10
(g14
S'\x8by1\x0ck\xbbD@'
p133
tp134
Rp135
ag10
(g14
S'kF\x80v\xd0IE@'
p136
tp137
Rp138
asssss.