(dp0
S'../Data/sqlite_38.csv'
p1
(dp2
S'../Data/sqlite_88.csv'
p3
(dp4
F0.2
(dp5
S'mmre'
p6
(dp7
S'bellwether'
p8
(lp9
cnumpy.core.multiarray
scalar
p10
(cnumpy
dtype
p11
(S'f8'
p12
I0
I1
tp13
Rp14
(I3
S'<'
p15
NNNI-1
I-1
I0
tp16
bS'W\xa9,y\xf1_X@'
p17
tp18
Rp19
ag10
(g14
S'\xbe\xec9S\xb2XX@'
p20
tp21
Rp22
ag10
(g14
S'\xde\xa79\xc8\xc0bX@'
p23
tp24
Rp25
ag10
(g14
S'[$\xc4(+`X@'
p26
tp27
Rp28
ag10
(g14
S'\xa1\nO\xe8\x05_X@'
p29
tp30
Rp31
ag10
(g14
S'\xfc\xb7\xc98o`X@'
p32
tp33
Rp34
ag10
(g14
S'\xb7\xf1Y\xbf\xc9eX@'
p35
tp36
Rp37
ag10
(g14
S'(\r8=\x10_X@'
p38
tp39
Rp40
ag10
(g14
S'l\xae\xcb\x04\xac]X@'
p41
tp42
Rp43
ag10
(g14
S'\xfe\xc8\xb2x@bX@'
p44
tp45
Rp46
ag10
(g14
S'y\xb0P\xc2[\\X@'
p47
tp48
Rp49
ag10
(g14
S'\x9a|\xf3\xefReX@'
p50
tp51
Rp52
ag10
(g14
S'\xf8 BT\xafXX@'
p53
tp54
Rp55
ag10
(g14
S':\xe7(G6cX@'
p56
tp57
Rp58
ag10
(g14
S'|\xaa\x90\xe7g]X@'
p59
tp60
Rp61
ag10
(g14
S'"\x0c}\xe0-dX@'
p62
tp63
Rp64
ag10
(g14
S'\xb6a\xba\x0e|eX@'
p65
tp66
Rp67
ag10
(g14
S'\xfeE\xde\xe8\xcf^X@'
p68
tp69
Rp70
ag10
(g14
S'F,\x0f$\x7fbX@'
p71
tp72
Rp73
ag10
(g14
S'@\\\xe4\x0c\xa5^X@'
p74
tp75
Rp76
asS'target'
p77
(lp78
g10
(g14
S'\x82\xb0Y\xa6\xc8yM@'
p79
tp80
Rp81
ag10
(g14
S'\x106\x9df\xb2\x1cM@'
p82
tp83
Rp84
ag10
(g14
S'V\xe5d\x1b-qJ@'
p85
tp86
Rp87
ag10
(g14
S'\xceY\xc5I\x16\xcfJ@'
p88
tp89
Rp90
ag10
(g14
S',\xe5\x15K\x15\xc3K@'
p91
tp92
Rp93
ag10
(g14
S'\xe1w\xfc\xdf\x9f\x06Q@'
p94
tp95
Rp96
ag10
(g14
S'\xe1\xea`\xa5\xb6HJ@'
p97
tp98
Rp99
ag10
(g14
S'W\xe7\x17\xe3"\x18M@'
p100
tp101
Rp102
ag10
(g14
S'\xd9\xc4U\xa6m\xf2K@'
p103
tp104
Rp105
ag10
(g14
S'\xa1p@\xe3-\x02I@'
p106
tp107
Rp108
ag10
(g14
S'\x0c\xda\xebN\xfa\xd2M@'
p109
tp110
Rp111
ag10
(g14
S'\x8c\xd6\xde\xf6\xec\x83J@'
p112
tp113
Rp114
ag10
(g14
S'\x8bQ\x7f\xaa\xe8\xf0M@'
p115
tp116
Rp117
ag10
(g14
S'\xea\xc8F\xc5!\x02K@'
p118
tp119
Rp120
ag10
(g14
S'\x16i\xc3\x88w\x90L@'
p121
tp122
Rp123
ag10
(g14
S'Tz\xfcV\xd2\x06I@'
p124
tp125
Rp126
ag10
(g14
S'\xce\xde]Y\x08JK@'
p127
tp128
Rp129
ag10
(g14
S'/&\xb8y\xc1,M@'
p130
tp131
Rp132
ag10
(g14
S'\xf2\x0b1\xc7W#K@'
p133
tp134
Rp135
ag10
(g14
S'\xa6.\x1c\xfdy\x95M@'
p136
tp137
Rp138
asssss.