(dp0
S'../Data/sqlite_38.csv'
p1
(dp2
S'../Data/sqlite_63.csv'
p3
(dp4
F0.2
(dp5
S'mmre'
p6
(dp7
S'bellwether'
p8
(lp9
cnumpy.core.multiarray
scalar
p10
(cnumpy
dtype
p11
(S'f8'
p12
I0
I1
tp13
Rp14
(I3
S'<'
p15
NNNI-1
I-1
I0
tp16
bS'\xf8\x96\xfcE\xeerz@'
p17
tp18
Rp19
ag10
(g14
S'n\xd8\xc2\xfe\x11\x83z@'
p20
tp21
Rp22
ag10
(g14
S'\x98U\xa8?\xf2\x80z@'
p23
tp24
Rp25
ag10
(g14
S'\xc9\xf3\xfb(\xf7jz@'
p26
tp27
Rp28
ag10
(g14
S'\xe06``G`z@'
p29
tp30
Rp31
ag10
(g14
S'M\x8b\xbf\xb1ekz@'
p32
tp33
Rp34
ag10
(g14
S'hd\xb59;yz@'
p35
tp36
Rp37
ag10
(g14
S'\x12f\xf2\x18\xdd|z@'
p38
tp39
Rp40
ag10
(g14
S'\xd8(X\xe0\xc9qz@'
p41
tp42
Rp43
ag10
(g14
S'\xcf;\xca&V|z@'
p44
tp45
Rp46
ag10
(g14
S'\xf4\x19\x95\x81\xc5zz@'
p47
tp48
Rp49
ag10
(g14
S'SH\x1a\xf3z{z@'
p50
tp51
Rp52
ag10
(g14
S'^\xfds#\xd6~z@'
p53
tp54
Rp55
ag10
(g14
S'a!\x85Njpz@'
p56
tp57
Rp58
ag10
(g14
S'22\x14\xdd\x0bmz@'
p59
tp60
Rp61
ag10
(g14
S'.JU\xeet}z@'
p62
tp63
Rp64
ag10
(g14
S'\xa2\x98 \x9fmzz@'
p65
tp66
Rp67
ag10
(g14
S'y\x81\xc7\xae\x14\x81z@'
p68
tp69
Rp70
ag10
(g14
S'\r=a\x00~yz@'
p71
tp72
Rp73
ag10
(g14
S'z\xd6\x02co~z@'
p74
tp75
Rp76
asS'target'
p77
(lp78
g10
(g14
S'\xa1?\x0f\xfe\xd0\x1b"@'
p79
tp80
Rp81
ag10
(g14
S'r\x9b\x1dB\x14\x96#@'
p82
tp83
Rp84
ag10
(g14
S'\xf4\x1c\xc6\x81\xd5W"@'
p85
tp86
Rp87
ag10
(g14
S'~\xe1\xe2Q@6#@'
p88
tp89
Rp90
ag10
(g14
S'\x92\n\xcc\x11}\xe8"@'
p91
tp92
Rp93
ag10
(g14
S'N3\x88\xd8\x0b\xd4!@'
p94
tp95
Rp96
ag10
(g14
S'l\xc1J\xc5\xdag"@'
p97
tp98
Rp99
ag10
(g14
S'G#\x9d\xd9\x05\xc1!@'
p100
tp101
Rp102
ag10
(g14
S'\x92\xae^\xa5=X#@'
p103
tp104
Rp105
ag10
(g14
S'\x1d\xc5Dl\xf8\xdd#@'
p106
tp107
Rp108
ag10
(g14
S'\x06\xa2Z\xc4H\xfd"@'
p109
tp110
Rp111
ag10
(g14
S'VV^c<\xf3!@'
p112
tp113
Rp114
ag10
(g14
S'\x0c\xb1\x9cN"x"@'
p115
tp116
Rp117
ag10
(g14
S' g\xf8&\x11\x93"@'
p118
tp119
Rp120
ag10
(g14
S'\xa4\xc3,1\xc3\xf9"@'
p121
tp122
Rp123
ag10
(g14
S'\xcc\xfb\xd1P\x8b\x0c"@'
p124
tp125
Rp126
ag10
(g14
S'\xce\xd9\x81\xb5\xcdU#@'
p127
tp128
Rp129
ag10
(g14
S'\xde\xc6\x1f\xec\x90\x18"@'
p130
tp131
Rp132
ag10
(g14
S'!\xc5~\x0b\xa5E"@'
p133
tp134
Rp135
ag10
(g14
S'\x99\x94r\x01+\xee"@'
p136
tp137
Rp138
asssss.