(dp0
S'../Data/sqlite_71.csv'
p1
(dp2
S'../Data/sqlite_17.csv'
p3
(dp4
F0.05
(dp5
S'abs_res'
p6
(dp7
S'bellwether'
p8
(lp9
cnumpy.core.multiarray
scalar
p10
(cnumpy
dtype
p11
(S'f8'
p12
I0
I1
tp13
Rp14
(I3
S'<'
p15
NNNI-1
I-1
I0
tp16
bS'[d;\xef@=pA'
p17
tp18
Rp19
ag10
(g14
S'\xe3\xa5\x9b\x82\xd1;pA'
p20
tp21
Rp22
ag10
(g14
S'\x9a\x99\x99\xd9HApA'
p23
tp24
Rp25
ag10
(g14
S'8^\xba\xbf2;pA'
p26
tp27
Rp28
ag10
(g14
S'z\x14\xae\xc5j?pA'
p29
tp30
Rp31
ag10
(g14
S'\xd5\xa3p\x05\xff:pA'
p32
tp33
Rp34
ag10
(g14
S'A\n\xd7\xb7\x01>pA'
p35
tp36
Rp37
ag10
(g14
S'\x1a\xd9\xceE7@pA'
p38
tp39
Rp40
ag10
(g14
S'#\xb0r"&>pA'
p41
tp42
Rp43
ag10
(g14
S'\xc4\xf5(\xccw<pA'
p44
tp45
Rp46
ag10
(g14
S'u\xbe\x9fH\xe2ApA'
p47
tp48
Rp49
ag10
(g14
S'\xf8\xfd\xd4\\V=pA'
p50
tp51
Rp52
ag10
(g14
S'\xa2\x1a/%G;pA'
p53
tp54
Rp55
ag10
(g14
S'uh\x91\xed\x0cBpA'
p56
tp57
Rp58
ag10
(g14
S'9\xb4\xc8v\x7fBpA'
p59
tp60
Rp61
ag10
(g14
S'rh\x91G\x8fBpA'
p62
tp63
Rp64
ag10
(g14
S'\x9e\xef\xa78R@pA'
p65
tp66
Rp67
ag10
(g14
S'n\xe7\xfb\x19\x06<pA'
p68
tp69
Rp70
ag10
(g14
S'\xab\x9b\xc4\x9c\x1a=pA'
p71
tp72
Rp73
ag10
(g14
S'\xe5\xec\xc3\xc3Q=pA'
p74
tp75
Rp76
asS'target'
p77
(lp78
g10
(g14
S'\x1c\x04V\x0e-6q@'
p79
tp80
Rp81
ag10
(g14
S'h=\n\xd7\xa3\xa0q@'
p82
tp83
Rp84
ag10
(g14
S'\xf4\xa7\xc6K7\xb9o@'
p85
tp86
Rp87
ag10
(g14
S'Vb\x10X9\x00n@'
p88
tp89
Rp90
ag10
(g14
S'p\x91\xed|?ss@'
p91
tp92
Rp93
ag10
(g14
S'gffffXr@'
p94
tp95
Rp96
ag10
(g14
S'\x04+\x87\x16\xd9*q@'
p97
tp98
Rp99
ag10
(g14
S'\x02V\x0e-\xb2\xf5o@'
p100
tp101
Rp102
ag10
(g14
S't=\n\xd7\xa3\x9cl@'
p103
tp104
Rp105
ag10
(g14
S'\xfb\xd2Mb\x10\xe6r@'
p106
tp107
Rp108
ag10
(g14
S'\xbdK7\x89A(n@'
p109
tp110
Rp111
ag10
(g14
S'\xc7\xf5(\\\x8f\xb2r@'
p112
tp113
Rp114
ag10
(g14
S'\x19\x04V\x0e-.n@'
p115
tp116
Rp117
ag10
(g14
S'\xdex\xe9&1\xd0o@'
p118
tp119
Rp120
ag10
(g14
S'\x85\xebQ\xb8\x1e\x99s@'
p121
tp122
Rp123
ag10
(g14
S'rh\x91\xed|5q@'
p124
tp125
Rp126
ag10
(g14
S'\x99\x1a/\xdd$\xbam@'
p127
tp128
Rp129
ag10
(g14
S'c\xe5\xd0"\xdb\xffw@'
p130
tp131
Rp132
ag10
(g14
S'{\x14\xaeG\xe1\x82r@'
p133
tp134
Rp135
ag10
(g14
S'\x1fZd;\xdf\xf3p@'
p136
tp137
Rp138
asssss.