(dp0
S'../Data/sqlite_45.csv'
p1
(dp2
S'../Data/sqlite_92.csv'
p3
(dp4
F0.35
(dp5
S'mmre'
p6
(dp7
S'bellwether'
p8
(lp9
cnumpy.core.multiarray
scalar
p10
(cnumpy
dtype
p11
(S'f8'
p12
I0
I1
tp13
Rp14
(I3
S'<'
p15
NNNI-1
I-1
I0
tp16
bS'`z?\xad\xeaJb@'
p17
tp18
Rp19
ag10
(g14
S'\x83\xf7$y\xa8\xb8b@'
p20
tp21
Rp22
ag10
(g14
S'|\x93F$9Mb@'
p23
tp24
Rp25
ag10
(g14
S'\x9fv\xaf2^Zc@'
p26
tp27
Rp28
ag10
(g14
S'\xfcUG\x13m\xd5b@'
p29
tp30
Rp31
ag10
(g14
S'9i\xa02\xcd\xb8b@'
p32
tp33
Rp34
ag10
(g14
S'\x1f\xfd\x81>\x08\x9fb@'
p35
tp36
Rp37
ag10
(g14
S'\x04\x11\xab\xb4\xaa|b@'
p38
tp39
Rp40
ag10
(g14
S'\x92\x13}\x96}zb@'
p41
tp42
Rp43
ag10
(g14
S'\x97\x13%\xb6\xc1Yb@'
p44
tp45
Rp46
ag10
(g14
S'\xa7#\xd4\xa2\x98\xcab@'
p47
tp48
Rp49
ag10
(g14
S'I\xfa\xfd!e\xc9b@'
p50
tp51
Rp52
ag10
(g14
S'N\xf0\xb0\xf6\x11\xdab@'
p53
tp54
Rp55
ag10
(g14
S'5\xc0`j\xb0pb@'
p56
tp57
Rp58
ag10
(g14
S'O|r\x81\x89\xb5b@'
p59
tp60
Rp61
ag10
(g14
S'p\xa9\x1d\x8e\xa9jb@'
p62
tp63
Rp64
ag10
(g14
S'\xaf!b\xc2\\\xbfb@'
p65
tp66
Rp67
ag10
(g14
S'D\x86\xc7\xc3\xaeGb@'
p68
tp69
Rp70
ag10
(g14
S'Y\x8b\xc4\xf4\xbe\xceb@'
p71
tp72
Rp73
ag10
(g14
S'k\xe6\xfdx\xd3\xfbb@'
p74
tp75
Rp76
asS'target'
p77
(lp78
g10
(g14
S'F\xf8K\\rpS@'
p79
tp80
Rp81
ag10
(g14
S'\x9eF\xab9\xe5\xcaQ@'
p82
tp83
Rp84
ag10
(g14
S'\x7fh\xb7\x19\xe1\xa9T@'
p85
tp86
Rp87
ag10
(g14
S'\xb6\xaa\xba\xa4\xb9\xaaS@'
p88
tp89
Rp90
ag10
(g14
S'kA\xad;t7S@'
p91
tp92
Rp93
ag10
(g14
S'Z\x9eA\x93T\nU@'
p94
tp95
Rp96
ag10
(g14
S'v\xecz\x1c\xc4\xebV@'
p97
tp98
Rp99
ag10
(g14
S'%\x92\n\x0e\xee\x98Z@'
p100
tp101
Rp102
ag10
(g14
S'\xae*<\xf0\xaa\x04T@'
p103
tp104
Rp105
ag10
(g14
S'yc\xf1c\xb1RQ@'
p106
tp107
Rp108
ag10
(g14
S'{\xd6m\xbb{$Y@'
p109
tp110
Rp111
ag10
(g14
S'a\x01<S9\xcaM@'
p112
tp113
Rp114
ag10
(g14
S'\xc7\xd8@J\x92\x1eR@'
p115
tp116
Rp117
ag10
(g14
S'\xc5YC\xaa:\x0cH@'
p118
tp119
Rp120
ag10
(g14
S'Y\xec\x94\xa2o7J@'
p121
tp122
Rp123
ag10
(g14
S'\xe7G\x12\xff,\xf4W@'
p124
tp125
Rp126
ag10
(g14
S'5\x8a~N.\xd1R@'
p127
tp128
Rp129
ag10
(g14
S'\xc1{\x9a7\xc9\x87T@'
p130
tp131
Rp132
ag10
(g14
S'G\xebm\xe4e\x90P@'
p133
tp134
Rp135
ag10
(g14
S'\x18<\xf0k\x8boR@'
p136
tp137
Rp138
asssss.