(dp0
S'../Data/sqlite_74.csv'
p1
(dp2
S'../Data/sqlite_23.csv'
p3
(dp4
F0.4
(dp5
S'abs_res'
p6
(dp7
S'bellwether'
p8
(lp9
cnumpy.core.multiarray
scalar
p10
(cnumpy
dtype
p11
(S'f8'
p12
I0
I1
tp13
Rp14
(I3
S'<'
p15
NNNI-1
I-1
I0
tp16
bS'~\xb1\xe4\xab\xc4QdA'
p17
tp18
Rp19
ag10
(g14
S'J\x0c\x02O\xbeMdA'
p20
tp21
Rp22
ag10
(g14
S'\xfd\xf0\x19\xda\x17QdA'
p23
tp24
Rp25
ag10
(g14
S'\x1e\xb0r\x94\xffNdA'
p26
tp27
Rp28
ag10
(g14
S'8\xa5\xe2\xb4\xf7KdA'
p29
tp30
Rp31
ag10
(g14
S'K\xe1z\xdc\xae^dA'
p32
tp33
Rp34
ag10
(g14
S'w0O\xe4=XdA'
p35
tp36
Rp37
ag10
(g14
S'\x85j\xbc\xb8\xfdMdA'
p38
tp39
Rp40
ag10
(g14
S'F\xd2\x94j\x1ePdA'
p41
tp42
Rp43
ag10
(g14
S'n.$uXTdA'
p44
tp45
Rp46
ag10
(g14
S'\x19\x04V\x9eIHdA'
p47
tp48
Rp49
ag10
(g14
S'\xabc\x82kAGdA'
p50
tp51
Rp52
ag10
(g14
S'\x7fj\xbc,>HdA'
p53
tp54
Rp55
ag10
(g14
S'f\x1f>{\xafTdA'
p56
tp57
Rp58
ag10
(g14
S'\xb7t\x93d\x9aOdA'
p59
tp60
Rp61
ag10
(g14
S'<&x\x0c\xc8LdA'
p62
tp63
Rp64
ag10
(g14
S'S*\xce\xb6\xb9IdA'
p65
tp66
Rp67
ag10
(g14
S'\xc1\x02\xe4\x02\xb9GdA'
p68
tp69
Rp70
ag10
(g14
S'\x86\xa4)\xdd\x8aSdA'
p71
tp72
Rp73
ag10
(g14
S'\xad\xf1\xd2\xd9\xd9VdA'
p74
tp75
Rp76
asS'target'
p77
(lp78
g10
(g14
S'\r\x81\x95C\x8b<7@'
p79
tp80
Rp81
ag10
(g14
S'5\x89A`\xe5p6@'
p82
tp83
Rp84
ag10
(g14
S'\x9e\x1a/\xdd$\x169@'
p85
tp86
Rp87
ag10
(g14
S'\\\xbaI\x0c\x02\xcb5@'
p88
tp89
Rp90
ag10
(g14
S'\x1b\xb0rh\x91-:@'
p91
tp92
Rp93
ag10
(g14
S'\xd8\xa3p=\n\xf79@'
p94
tp95
Rp96
ag10
(g14
S'\x7fh\x91\xed|o7@'
p97
tp98
Rp99
ag10
(g14
S'4\xb4\xc8v\xbe\x7f6@'
p100
tp101
Rp102
ag10
(g14
S'\x12X9\xb4\xc8V7@'
p103
tp104
Rp105
ag10
(g14
S'\x7f\x14\xaeG\xe1\x9a8@'
p106
tp107
Rp108
ag10
(g14
S'\xa5p=\n\xd737@'
p109
tp110
Rp111
ag10
(g14
S'\x82\x95C\x8blw9@'
p112
tp113
Rp114
ag10
(g14
S'@`\xe5\xd0"\x9b7@'
p115
tp116
Rp117
ag10
(g14
S'4\xdd$\x06\x81\xd59@'
p118
tp119
Rp120
ag10
(g14
S'\x87l\xe7\xfb\xa9!6@'
p121
tp122
Rp123
ag10
(g14
S'\xe3\xfb\xa9\xf1\xd2\x8d6@'
p124
tp125
Rp126
ag10
(g14
S'fffff\xa66@'
p127
tp128
Rp129
ag10
(g14
S'*\\\x8f\xc2\xf5\x187@'
p130
tp131
Rp132
ag10
(g14
S'\xea\xd0"\xdb\xf9\xee5@'
p133
tp134
Rp135
ag10
(g14
S'\xa2\xc4 \xb0rX7@'
p136
tp137
Rp138
asssss.