(dp0
S'../Data/sqlite_68.csv'
p1
(dp2
S'../Data/sqlite_95.csv'
p3
(dp4
F0.15
(dp5
S'mmre'
p6
(dp7
S'bellwether'
p8
(lp9
cnumpy.core.multiarray
scalar
p10
(cnumpy
dtype
p11
(S'f8'
p12
I0
I1
tp13
Rp14
(I3
S'<'
p15
NNNI-1
I-1
I0
tp16
bS"'\x8c\xd2\xc6\x9c1W@"
p17
tp18
Rp19
ag10
(g14
S'\x95;\xec6j5W@'
p20
tp21
Rp22
ag10
(g14
S'0\x12\x93cE9W@'
p23
tp24
Rp25
ag10
(g14
S'\xc5\r=t\xd5<W@'
p26
tp27
Rp28
ag10
(g14
S"\xdbA'\xe0;6W@"
p29
tp30
Rp31
ag10
(g14
S'\x996_\x13\xa78W@'
p32
tp33
Rp34
ag10
(g14
S'0\xce\xdf\x9a\xd24W@'
p35
tp36
Rp37
ag10
(g14
S'\x86\x95\x12&\xdb6W@'
p38
tp39
Rp40
ag10
(g14
S'U\xd8}\xbcy3W@'
p41
tp42
Rp43
ag10
(g14
S'\x80\x80wt\xfe8W@'
p44
tp45
Rp46
ag10
(g14
S'\xe8\xf2\xc7\xc8\x867W@'
p47
tp48
Rp49
ag10
(g14
S'\x99\xb0o\xe2\x043W@'
p50
tp51
Rp52
ag10
(g14
S'sK\xf72\xbc6W@'
p53
tp54
Rp55
ag10
(g14
S'\xaf\x8cu7p5W@'
p56
tp57
Rp58
ag10
(g14
S'\x97\xbaOl\x115W@'
p59
tp60
Rp61
ag10
(g14
S'=\n\xeewu5W@'
p62
tp63
Rp64
ag10
(g14
S'\xdb\xab~\xa4+5W@'
p65
tp66
Rp67
ag10
(g14
S'\x91\x1a\xed\x0f\xf19W@'
p68
tp69
Rp70
ag10
(g14
S'zK3\x9c\xcb7W@'
p71
tp72
Rp73
ag10
(g14
S'-^\xa2|\x8e2W@'
p74
tp75
Rp76
asS'target'
p77
(lp78
g10
(g14
S'\xf6\x8b\x8b"\x9d\xe2>@'
p79
tp80
Rp81
ag10
(g14
S'\x1f%4E\x7f\x82<@'
p82
tp83
Rp84
ag10
(g14
S'ON\x0c\xb5\xa8\x86?@'
p85
tp86
Rp87
ag10
(g14
S'\xfa^$\x12\x1dQ:@'
p88
tp89
Rp90
ag10
(g14
S'\x86\x00k\x1e\x12\x95B@'
p91
tp92
Rp93
ag10
(g14
S'\xda\xa5\xb6PZ\xd5A@'
p94
tp95
Rp96
ag10
(g14
S'\xf7\xfd\x8e\xc2F\xa2A@'
p97
tp98
Rp99
ag10
(g14
S'\xc3\xe0a\xf6T\xb2@@'
p100
tp101
Rp102
ag10
(g14
S'\xa1\xa6{\x9ak\xfaC@'
p103
tp104
Rp105
ag10
(g14
S'`\xc5\t#rD@@'
p106
tp107
Rp108
ag10
(g14
S'@\x11Ptp\xd7@@'
p109
tp110
Rp111
ag10
(g14
S'\xf4\x00\x025`\x1cD@'
p112
tp113
Rp114
ag10
(g14
S'w\xdb\xeaS\x95\xd8B@'
p115
tp116
Rp117
ag10
(g14
S'`\xec\x06\x84*\x96B@'
p118
tp119
Rp120
ag10
(g14
S',:R\x93\xfcBB@'
p121
tp122
Rp123
ag10
(g14
S'\x02\x10\x00\x88\xdb|A@'
p124
tp125
Rp126
ag10
(g14
S'\x84\x02E\x8a\xe9\xaf@@'
p127
tp128
Rp129
ag10
(g14
S'\x7f\x7f\xfb\x81\x85\x1e@@'
p130
tp131
Rp132
ag10
(g14
S'Z\xdd\xa3/\xae\xb0F@'
p133
tp134
Rp135
ag10
(g14
S' \x8baXf\xcaB@'
p136
tp137
Rp138
asssss.