(dp0
S'../Data/sqlite_14.csv'
p1
(dp2
S'../Data/sqlite_43.csv'
p3
(dp4
F0.2
(dp5
S'abs_res'
p6
(dp7
S'bellwether'
p8
(lp9
cnumpy.core.multiarray
scalar
p10
(cnumpy
dtype
p11
(S'f8'
p12
I0
I1
tp13
Rp14
(I3
S'<'
p15
NNNI-1
I-1
I0
tp16
bS'X\xe3\xa5\x1bCR>A'
p17
tp18
Rp19
ag10
(g14
S'B33#HQ>A'
p20
tp21
Rp22
ag10
(g14
S'\xc1-k\xe5\xbaS>A'
p23
tp24
Rp25
ag10
(g14
S'\xd71\xc1c1R>A'
p26
tp27
Rp28
ag10
(g14
S'\x89\xcf\xb0\xbbJR>A'
p29
tp30
Rp31
ag10
(g14
S'n\xbct\xa3\xdcQ>A'
p32
tp33
Rp34
ag10
(g14
S'0\x96\xfcb[R>A'
p35
tp36
Rp37
ag10
(g14
S'\xa3\xa8\x7f\x93\x0bQ>A'
p38
tp39
Rp40
ag10
(g14
S'h\x10Xi\x9cR>A'
p41
tp42
Rp43
ag10
(g14
S'a\xe5\xd0\x12WR>A'
p44
tp45
Rp46
ag10
(g14
S'C\xb4\xc8\xf6mQ>A'
p47
tp48
Rp49
ag10
(g14
S'.@\xee\x85PR>A'
p50
tp51
Rp52
ag10
(g14
S'\xbd\x9d\xef\xe7NR>A'
p53
tp54
Rp55
ag10
(g14
S'zy\xa2N\x14R>A'
p56
tp57
Rp58
ag10
(g14
S'm\x91\xed|KQ>A'
p59
tp60
Rp61
ag10
(g14
S'0\xb0r\xa8\xedQ>A'
p62
tp63
Rp64
ag10
(g14
S'UFo\xbb\xbbP>A'
p65
tp66
Rp67
ag10
(g14
S'n\xf4\xb6L\x18R>A'
p68
tp69
Rp70
ag10
(g14
S"C\x98'\xea\xb3R>A"
p71
tp72
Rp73
ag10
(g14
S'EDD\xa4\x10R>A'
p74
tp75
Rp76
asS'target'
p77
(lp78
g10
(g14
S'\x90\x99\x99\x99\x19s\xc6@'
p79
tp80
Rp81
ag10
(g14
S'\xca\xcc\xcc\xcc\xec\x9a\xc5@'
p82
tp83
Rp84
ag10
(g14
S'\xce\xcc\xcc\xccL\x94\xc4@'
p85
tp86
Rp87
ag10
(g14
S'\xd2\xcc\xcc\xcc\x0c\xdf\xc3@'
p88
tp89
Rp90
ag10
(g14
S'ifff&\xe6\xc5@'
p91
tp92
Rp93
ag10
(g14
S'B333\xb3J\xc4@'
p94
tp95
Rp96
ag10
(g14
S'\xaa\x99\x99\x99Y(\xc5@'
p97
tp98
Rp99
ag10
(g14
S'\xd4\xcc\xcc\xcc\xccK\xc5@'
p100
tp101
Rp102
ag10
(g14
S'-333\xb3#\xc4@'
p103
tp104
Rp105
ag10
(g14
S'nfff\xe6o\xc5@'
p106
tp107
Rp108
ag10
(g14
S'\xcc\xcc\xcc\xcc\x0c\xf1\xc3@'
p109
tp110
Rp111
ag10
(g14
S'9333\xb34\xc5@'
p112
tp113
Rp114
ag10
(g14
S'mfff\xc6p\xc4@'
p115
tp116
Rp117
ag10
(g14
S';333\xf3~\xc5@'
p118
tp119
Rp120
ag10
(g14
S'\xec\xff\xff\xff\xff\xae\xc5@'
p121
tp122
Rp123
ag10
(g14
S'83333\xd5\xc4@'
p124
tp125
Rp126
ag10
(g14
S'`ffffS\xc3@'
p127
tp128
Rp129
ag10
(g14
S'gfff\xe6\x16\xc5@'
p130
tp131
Rp132
ag10
(g14
S'hfff\xe6\xb3\xc4@'
p133
tp134
Rp135
ag10
(g14
S'tfff\xa6\xd3\xc4@'
p136
tp137
Rp138
asssss.