(dp0
S'../Data/sqlite_9.csv'
p1
(dp2
S'../Data/sqlite_89.csv'
p3
(dp4
F0.2
(dp5
S'mmre'
p6
(dp7
S'bellwether'
p8
(lp9
cnumpy.core.multiarray
scalar
p10
(cnumpy
dtype
p11
(S'f8'
p12
I0
I1
tp13
Rp14
(I3
S'<'
p15
NNNI-1
I-1
I0
tp16
bS'\x06g\xf4SCcV@'
p17
tp18
Rp19
ag10
(g14
S'*\xc9\x86\xdf{fV@'
p20
tp21
Rp22
ag10
(g14
S'\x8cv\xf2\xe1\xffjV@'
p23
tp24
Rp25
ag10
(g14
S'\xe6\x18\xa8\x1f\x86aV@'
p26
tp27
Rp28
ag10
(g14
S'\xa6<\xc0\xbd\x98gV@'
p29
tp30
Rp31
ag10
(g14
S'r\xa9_\x10gbV@'
p32
tp33
Rp34
ag10
(g14
S'\xa2\xc7\xe9\x14pfV@'
p35
tp36
Rp37
ag10
(g14
S'\x92\x07L\xd5\xafaV@'
p38
tp39
Rp40
ag10
(g14
S'Qb\x06oscV@'
p41
tp42
Rp43
ag10
(g14
S'\xd8\xd0\x94\x97\x81^V@'
p44
tp45
Rp46
ag10
(g14
S'\x93X\x17cW`V@'
p47
tp48
Rp49
ag10
(g14
S'X\xdc<$\xe0dV@'
p50
tp51
Rp52
ag10
(g14
S'h\x1f\x81PxhV@'
p53
tp54
Rp55
ag10
(g14
S'\xe2\xcbt\xa61bV@'
p56
tp57
Rp58
ag10
(g14
S'\xa9\xc6:\x80\x86dV@'
p59
tp60
Rp61
ag10
(g14
S'p\x9d\xdfL ^V@'
p62
tp63
Rp64
ag10
(g14
S'\xc0\x9bLVBbV@'
p65
tp66
Rp67
ag10
(g14
S'\xd0\xd7\x9dk2gV@'
p68
tp69
Rp70
ag10
(g14
S'\xfa6\xde}3jV@'
p71
tp72
Rp73
ag10
(g14
S'c\xec\xe9`\xacdV@'
p74
tp75
Rp76
asS'target'
p77
(lp78
g10
(g14
S'\xc2)\xc1\x98\xcd\xd8R@'
p79
tp80
Rp81
ag10
(g14
S'a\t\xb3\xab\xfb\xa3K@'
p82
tp83
Rp84
ag10
(g14
S'l\xff\x92\xe0\x8b\x9fQ@'
p85
tp86
Rp87
ag10
(g14
S'\xcd\x05\xf9o0>W@'
p88
tp89
Rp90
ag10
(g14
S'\x80x\xe9ZzzM@'
p91
tp92
Rp93
ag10
(g14
S'sL\xfe\xb13\xbbP@'
p94
tp95
Rp96
ag10
(g14
S'A\xb8\xc6\x11P`T@'
p97
tp98
Rp99
ag10
(g14
S"\xb0\xe22A'qP@"
p100
tp101
Rp102
ag10
(g14
S']R\xfe\r\xd4\xacN@'
p103
tp104
Rp105
ag10
(g14
S'\xea\xf8\xeel-eN@'
p106
tp107
Rp108
ag10
(g14
S'\xbaG\x89\x1ba\xa5Q@'
p109
tp110
Rp111
ag10
(g14
S'3\xdd\xa7\x86\xaf\xbeT@'
p112
tp113
Rp114
ag10
(g14
S'o\x949\xf7C3R@'
p115
tp116
Rp117
ag10
(g14
S'\xea(\x7f\xd9\x01_Q@'
p118
tp119
Rp120
ag10
(g14
S'\xf5\x1fSeE\xb6L@'
p121
tp122
Rp123
ag10
(g14
S'{\x05\xed\x81u$U@'
p124
tp125
Rp126
ag10
(g14
S'\x07Y\xbe\x9d\xe0\xccL@'
p127
tp128
Rp129
ag10
(g14
S'2\xca\x1b)i\xf8M@'
p130
tp131
Rp132
ag10
(g14
S'B\x14,\xde\x84?S@'
p133
tp134
Rp135
ag10
(g14
S'UB\xbe}\xa9\xb8M@'
p136
tp137
Rp138
asssss.