(dp0
S'../Data/sqlite_79.csv'
p1
(dp2
S'../Data/sqlite_86.csv'
p3
(dp4
F0.15
(dp5
S'mmre'
p6
(dp7
S'bellwether'
p8
(lp9
cnumpy.core.multiarray
scalar
p10
(cnumpy
dtype
p11
(S'f8'
p12
I0
I1
tp13
Rp14
(I3
S'<'
p15
NNNI-1
I-1
I0
tp16
bS'\xe9s\xf9)j.B@'
p17
tp18
Rp19
ag10
(g14
S'\xbe\x81\x9d\x9c \x9dB@'
p20
tp21
Rp22
ag10
(g14
S'\x87\x91V\x1b=vB@'
p23
tp24
Rp25
ag10
(g14
S'(\xf0G{\x16\x94B@'
p26
tp27
Rp28
ag10
(g14
S'6j\x95\xb5eTB@'
p29
tp30
Rp31
ag10
(g14
S'(\xe2g\xa94dB@'
p32
tp33
Rp34
ag10
(g14
S'"\x9aSkjqB@'
p35
tp36
Rp37
ag10
(g14
S'\xf1\x1f\xfe\xab\x9d)B@'
p38
tp39
Rp40
ag10
(g14
S'\r\x154;\xb7PB@'
p41
tp42
Rp43
ag10
(g14
S'\xd3\x1b1Y\x0e[B@'
p44
tp45
Rp46
ag10
(g14
S'`i\xfa\t\xa6>B@'
p47
tp48
Rp49
ag10
(g14
S'\x1b\x1aP\xecjRB@'
p50
tp51
Rp52
ag10
(g14
S'0J,"i:B@'
p53
tp54
Rp55
ag10
(g14
S'z\x19\xd0\xdaNhB@'
p56
tp57
Rp58
ag10
(g14
S'\xc49\x9d\x95\xa7=B@'
p59
tp60
Rp61
ag10
(g14
S'\x89\xee]\xde\xf8eB@'
p62
tp63
Rp64
ag10
(g14
S'q\x17\xbf\x9bkWB@'
p65
tp66
Rp67
ag10
(g14
S'\x82W\x8f\xb7\x15\x90B@'
p68
tp69
Rp70
ag10
(g14
S'5\x82\x9a\xf6\x8b\x99B@'
p71
tp72
Rp73
ag10
(g14
S'\x98\xbd\xd9\xa9\x18JB@'
p74
tp75
Rp76
asS'target'
p77
(lp78
g10
(g14
S'\xad\xd9I\xde\x8f#Q@'
p79
tp80
Rp81
ag10
(g14
S'i\xe8\x8e\xe5\x96\x15G@'
p82
tp83
Rp84
ag10
(g14
S'\xb1\xa2\x81P\xf7`F@'
p85
tp86
Rp87
ag10
(g14
S'\x02@\x10\xb9`)B@'
p88
tp89
Rp90
ag10
(g14
S'\x9aY"\xd5\xfdLN@'
p91
tp92
Rp93
ag10
(g14
S'2\xdf\xad\xef<iK@'
p94
tp95
Rp96
ag10
(g14
S'\x15\xc9v\xf1\xcd4F@'
p97
tp98
Rp99
ag10
(g14
S'\xd2,\xa2\x83\x9f\xacS@'
p100
tp101
Rp102
ag10
(g14
S'56g\x10\x16\x1fO@'
p103
tp104
Rp105
ag10
(g14
S'\xe9\x8e(\x07D*X@'
p106
tp107
Rp108
ag10
(g14
S'1\x93\xa4\xa7\x17\tS@'
p109
tp110
Rp111
ag10
(g14
S'5\x8f\xfcvKUP@'
p112
tp113
Rp114
ag10
(g14
S'\xdc(\x16\xcf\xaf\xbdR@'
p115
tp116
Rp117
ag10
(g14
S'|dt\xbb[\x14M@'
p118
tp119
Rp120
ag10
(g14
S'3\x87\x83\x06\x83)X@'
p121
tp122
Rp123
ag10
(g14
S'\x11\nB\xfby\xaaS@'
p124
tp125
Rp126
ag10
(g14
S'F\x12\x07}\xf5VP@'
p127
tp128
Rp129
ag10
(g14
S'c(i\xba\xa7\x9eL@'
p130
tp131
Rp132
ag10
(g14
S' \xcc\x8d\xc2\xe5\xc5D@'
p133
tp134
Rp135
ag10
(g14
S'\x1d\xeb\xb0=mCT@'
p136
tp137
Rp138
asssss.