(dp0
S'../Data/sqlite_16.csv'
p1
(dp2
S'../Data/sqlite_59.csv'
p3
(dp4
F0.2
(dp5
S'mmre'
p6
(dp7
S'bellwether'
p8
(lp9
cnumpy.core.multiarray
scalar
p10
(cnumpy
dtype
p11
(S'f8'
p12
I0
I1
tp13
Rp14
(I3
S'<'
p15
NNNI-1
I-1
I0
tp16
bS'8\xff\xd24\xebUU@'
p17
tp18
Rp19
ag10
(g14
S'4\x17\\\x96\xa8WU@'
p20
tp21
Rp22
ag10
(g14
S'\xc8\xfd:k\xedTU@'
p23
tp24
Rp25
ag10
(g14
S'\x88>Z\x87\tYU@'
p26
tp27
Rp28
ag10
(g14
S'j&\xaaZ\xfeWU@'
p29
tp30
Rp31
ag10
(g14
S'\x11hU\xf7iXU@'
p32
tp33
Rp34
ag10
(g14
S'4Q\r\xbf\xc1XU@'
p35
tp36
Rp37
ag10
(g14
S'\xad\x90\xd0\xb6\xeaXU@'
p38
tp39
Rp40
ag10
(g14
S'|\x15\x07\xed7XU@'
p41
tp42
Rp43
ag10
(g14
S'"\xed\xfe^\xebUU@'
p44
tp45
Rp46
ag10
(g14
S'\xda\xa2Z\x8f\xffWU@'
p47
tp48
Rp49
ag10
(g14
S'G]M,\xb9XU@'
p50
tp51
Rp52
ag10
(g14
S'D\x95\xc3\xf1tXU@'
p53
tp54
Rp55
ag10
(g14
S'T\xda\xd0\xba&WU@'
p56
tp57
Rp58
ag10
(g14
S'\x96=^EjZU@'
p59
tp60
Rp61
ag10
(g14
S'\xa8\xcb7\xaa\xc2VU@'
p62
tp63
Rp64
ag10
(g14
S'r-\xa6\x0b\xa8WU@'
p65
tp66
Rp67
ag10
(g14
S'F\xf1\x04\xc4zWU@'
p68
tp69
Rp70
ag10
(g14
S'b@Z\x8b\x86UU@'
p71
tp72
Rp73
ag10
(g14
S'\x15\xef\x81Y>VU@'
p74
tp75
Rp76
asS'target'
p77
(lp78
g10
(g14
S"\xf1\x87\x9a\xfaz\x91'@"
p79
tp80
Rp81
ag10
(g14
S'\x13TNk\x04\xb0$@'
p82
tp83
Rp84
ag10
(g14
S'\xe0\xfce\xe1r\xf6(@'
p85
tp86
Rp87
ag10
(g14
S'\x10\xa5@R\n\xca$@'
p88
tp89
Rp90
ag10
(g14
S'\x80\xf6\x05&`\x92$@'
p91
tp92
Rp93
ag10
(g14
S'p\xdct\xc6\x1e\xaf%@'
p94
tp95
Rp96
ag10
(g14
S'\xa2\xfd\xd58\x14$%@'
p97
tp98
Rp99
ag10
(g14
S'\xe6\x97\x0f\xa78\x1d$@'
p100
tp101
Rp102
ag10
(g14
S"\xc2\x1a\xa8\xc6\xf5\x82'@"
p103
tp104
Rp105
ag10
(g14
S'\xb2ke\x8d\xe3\xed&@'
p106
tp107
Rp108
ag10
(g14
S'l{Q\xec\xa7"%@'
p109
tp110
Rp111
ag10
(g14
S'\xb2\x7f\x13C\x1ec#@'
p112
tp113
Rp114
ag10
(g14
S'f\x08wVw\x1f&@'
p115
tp116
Rp117
ag10
(g14
S'd\xd4\x05^\x03b%@'
p118
tp119
Rp120
ag10
(g14
S'\xd682k\xc9~#@'
p121
tp122
Rp123
ag10
(g14
S'w\x89\xba4\xde\xe5%@'
p124
tp125
Rp126
ag10
(g14
S'\xfd=\xf1\x97A\xca%@'
p127
tp128
Rp129
ag10
(g14
S'\xd4\x05h\x8axY&@'
p130
tp131
Rp132
ag10
(g14
S'\x90\n\xe8\xf3\xefq$@'
p133
tp134
Rp135
ag10
(g14
S"\xe6\xe8\xa1~\x07\xbe'@"
p136
tp137
Rp138
asssss.