(dp0
S'../Data/sqlite_44.csv'
p1
(dp2
S'../Data/sqlite_62.csv'
p3
(dp4
F0.15
(dp5
S'mmre'
p6
(dp7
S'bellwether'
p8
(lp9
cnumpy.core.multiarray
scalar
p10
(cnumpy
dtype
p11
(S'f8'
p12
I0
I1
tp13
Rp14
(I3
S'<'
p15
NNNI-1
I-1
I0
tp16
bS'\xd1\x1aH\x1e\xd96V@'
p17
tp18
Rp19
ag10
(g14
S'\xa5l\xa1\x98\xe54V@'
p20
tp21
Rp22
ag10
(g14
S'\x80\xa4\\\xa1S6V@'
p23
tp24
Rp25
ag10
(g14
S'H\xf9<F\x0e6V@'
p26
tp27
Rp28
ag10
(g14
S'\x14\xc0DG[5V@'
p29
tp30
Rp31
ag10
(g14
S'\xfey\xf5\xc4G6V@'
p32
tp33
Rp34
ag10
(g14
S'h\xd1\xf1T(6V@'
p35
tp36
Rp37
ag10
(g14
S'm\xc1Z\xf3R7V@'
p38
tp39
Rp40
ag10
(g14
S'\x88\xebTs\xf34V@'
p41
tp42
Rp43
ag10
(g14
S'\xce\x9b\x9by\xb24V@'
p44
tp45
Rp46
ag10
(g14
S"'\x8fxb-6V@"
p47
tp48
Rp49
ag10
(g14
S'\x9b\xe4}\xcf95V@'
p50
tp51
Rp52
ag10
(g14
S'\x13\xe1q\x87\xae6V@'
p53
tp54
Rp55
ag10
(g14
S'\x82\xe8\x03\xc8\xb96V@'
p56
tp57
Rp58
ag10
(g14
S'\x95\xf0\xc8KU5V@'
p59
tp60
Rp61
ag10
(g14
S'r\xf2g\x1eA6V@'
p62
tp63
Rp64
ag10
(g14
S'e\xc1\xa6\xfb\x0c8V@'
p65
tp66
Rp67
ag10
(g14
S'I\xa9\xdfT\x105V@'
p68
tp69
Rp70
ag10
(g14
S'o\x04Us\x9d5V@'
p71
tp72
Rp73
ag10
(g14
S'r\xb6\xda\xba\xc35V@'
p74
tp75
Rp76
asS'target'
p77
(lp78
g10
(g14
S'5/c\x00C\xcb!@'
p79
tp80
Rp81
ag10
(g14
S'\x17\xbfK-8\xe4!@'
p82
tp83
Rp84
ag10
(g14
S'\xe3?vt\xcc\xb3"@'
p85
tp86
Rp87
ag10
(g14
S'\\vo\x88sb#@'
p88
tp89
Rp90
ag10
(g14
S'j@\x8f\xcd\x8e\xf1\x1f@'
p91
tp92
Rp93
ag10
(g14
S'\xa6\x85 \r\xb0\x89!@'
p94
tp95
Rp96
ag10
(g14
S'7m\x88\x1b\xdd\x84!@'
p97
tp98
Rp99
ag10
(g14
S'k\xf8{\t \xca!@'
p100
tp101
Rp102
ag10
(g14
S'3z\x9c\x86$\xa9!@'
p103
tp104
Rp105
ag10
(g14
S' *\xf1\x0c?\xfd!@'
p106
tp107
Rp108
ag10
(g14
S'\x9c\xe9\r\xa3\x0c\xc8 @'
p109
tp110
Rp111
ag10
(g14
S'v\xc4\xb3\x8e\xe7)!@'
p112
tp113
Rp114
ag10
(g14
S'\xf8\xf3\xd8\tT\x88!@'
p115
tp116
Rp117
ag10
(g14
S'\xc4\xbaj\xb3\xfd\xeb @'
p118
tp119
Rp120
ag10
(g14
S'K\x8c\x10;\xfa\x94!@'
p121
tp122
Rp123
ag10
(g14
S'\xbc]o\x8f\x9f\xbd"@'
p124
tp125
Rp126
ag10
(g14
S'jd\t/\x1e\x10!@'
p127
tp128
Rp129
ag10
(g14
S'4\xa3O?k\xa5!@'
p130
tp131
Rp132
ag10
(g14
S'\xb52\\s=\xe5!@'
p133
tp134
Rp135
ag10
(g14
S'\xf1\xd6\x97\x97H\x17"@'
p136
tp137
Rp138
asssss.