(dp0
S'../Data/sqlite_77.csv'
p1
(dp2
S'../Data/sqlite_95.csv'
p3
(dp4
F0.1
(dp5
S'mmre'
p6
(dp7
S'bellwether'
p8
(lp9
cnumpy.core.multiarray
scalar
p10
(cnumpy
dtype
p11
(S'f8'
p12
I0
I1
tp13
Rp14
(I3
S'<'
p15
NNNI-1
I-1
I0
tp16
bS'#!R\xae\xfbHX@'
p17
tp18
Rp19
ag10
(g14
S'}.\x055\xe3HX@'
p20
tp21
Rp22
ag10
(g14
S'I\x8b\xcd\xc1\x90HX@'
p23
tp24
Rp25
ag10
(g14
S'\x8e\x1b:\x9a\xabIX@'
p26
tp27
Rp28
ag10
(g14
S"\x8e'#\xd2\xa9HX@"
p29
tp30
Rp31
ag10
(g14
S'\xe2\xf2,M\xf2GX@'
p32
tp33
Rp34
ag10
(g14
S'b.\xf0\xc7\xb2GX@'
p35
tp36
Rp37
ag10
(g14
S'\x84Ml`\xdfHX@'
p38
tp39
Rp40
ag10
(g14
S'\xfe\xac\xd2\xf3WIX@'
p41
tp42
Rp43
ag10
(g14
S'G\nG\x9emHX@'
p44
tp45
Rp46
ag10
(g14
S'\xe4P\xee\xa1\xb4HX@'
p47
tp48
Rp49
ag10
(g14
S'\xe1\xe8%h\x99GX@'
p50
tp51
Rp52
ag10
(g14
S'\xfa\xf9\xbaJ\xe4HX@'
p53
tp54
Rp55
ag10
(g14
S'^\x10\xa2"9GX@'
p56
tp57
Rp58
ag10
(g14
S'<0\x9f\x00"HX@'
p59
tp60
Rp61
ag10
(g14
S'4\x92\x0c;\xf1HX@'
p62
tp63
Rp64
ag10
(g14
S'\xee7<\xd7\x03HX@'
p65
tp66
Rp67
ag10
(g14
S'\\\xbe\xec/\xefGX@'
p68
tp69
Rp70
ag10
(g14
S'9\xfe\x91W\xa5IX@'
p71
tp72
Rp73
ag10
(g14
S'\xb6C*\tkGX@'
p74
tp75
Rp76
asS'target'
p77
(lp78
g10
(g14
S'T\x99\x07\xbcC\xdfA@'
p79
tp80
Rp81
ag10
(g14
S'\x19Ra\xc8\xce\xd3=@'
p82
tp83
Rp84
ag10
(g14
S'\x0b\xe8p\xf0h)?@'
p85
tp86
Rp87
ag10
(g14
S'\xa8\x84lP\xdcqA@'
p88
tp89
Rp90
ag10
(g14
S'\xf2\xef\xcc\xe6\xf1\x9b@@'
p91
tp92
Rp93
ag10
(g14
S'>\xe9{\x96f\xe3D@'
p94
tp95
Rp96
ag10
(g14
S'\xecL\xdcHAp@@'
p97
tp98
Rp99
ag10
(g14
S'\xb4\xa6E\x07\x96\xa9?@'
p100
tp101
Rp102
ag10
(g14
S'\xf09W8\xdc\x10D@'
p103
tp104
Rp105
ag10
(g14
S'EYH\xd5<IH@'
p106
tp107
Rp108
ag10
(g14
S'\xda9\xb2\x93H\xb2A@'
p109
tp110
Rp111
ag10
(g14
S'\xb9\xbf\xb0\x85\x9a\xdeB@'
p112
tp113
Rp114
ag10
(g14
S'kc\xb0?\xd7\xf39@'
p115
tp116
Rp117
ag10
(g14
S'\x9a\xfc@\x93@\xe1?@'
p118
tp119
Rp120
ag10
(g14
S'\xb7\x19\xc6{\xb8-E@'
p121
tp122
Rp123
ag10
(g14
S'\xa7bt,wFA@'
p124
tp125
Rp126
ag10
(g14
S'7\x11\xed\x90\xf6\xccF@'
p127
tp128
Rp129
ag10
(g14
S'\xcb\xf2\x8cr(c?@'
p130
tp131
Rp132
ag10
(g14
S'g\xb9VO\x01\x11:@'
p133
tp134
Rp135
ag10
(g14
S'\xa6X\xc8<\x9e\xf8@@'
p136
tp137
Rp138
asssss.