(dp0
S'../Data/sqlite_46.csv'
p1
(dp2
S'../Data/sqlite_51.csv'
p3
(dp4
F0.15
(dp5
S'abs_res'
p6
(dp7
S'bellwether'
p8
(lp9
cnumpy.core.multiarray
scalar
p10
(cnumpy
dtype
p11
(S'f8'
p12
I0
I1
tp13
Rp14
(I3
S'<'
p15
NNNI-1
I-1
I0
tp16
bS'Y9\xb4\xd8sy@A'
p17
tp18
Rp19
ag10
(g14
S'\xc3 \xb0\xe2\x89y@A'
p20
tp21
Rp22
ag10
(g14
S'\xf3\xd2MR\x08z@A'
p23
tp24
Rp25
ag10
(g14
S'Ob\x10\xf8\xb0y@A'
p26
tp27
Rp28
ag10
(g14
S'!\x06\x81\x15\x02z@A'
p29
tp30
Rp31
ag10
(g14
S'R\xe3\xa5k\xd9y@A'
p32
tp33
Rp34
ag10
(g14
S'\xbd\xca\xa1\xc5\x86y@A'
p35
tp36
Rp37
ag10
(g14
S'w\x93\x18T\x18z@A'
p38
tp39
Rp40
ag10
(g14
S'a\x10XI\\y@A'
p41
tp42
Rp43
ag10
(g14
S'\xa4E\xb6\x83\xb9y@A'
p44
tp45
Rp46
ag10
(g14
S'\x1eZd[_z@A'
p47
tp48
Rp49
ag10
(g14
S'rh\x91\xbd\xe1y@A'
p50
tp51
Rp52
ag10
(g14
S'\x9d\x1a/\r\xf7y@A'
p53
tp54
Rp55
ag10
(g14
S'T9\xb4\xc8#y@A'
p56
tp57
Rp58
ag10
(g14
S'\x87\xebQ\xd8\xd4y@A'
p59
tp60
Rp61
ag10
(g14
S'K7\x89\xe1\xd7y@A'
p62
tp63
Rp64
ag10
(g14
S'\x93\xed|\xcfSy@A'
p65
tp66
Rp67
ag10
(g14
S'\xf2\xfd\xd4H\xe0y@A'
p68
tp69
Rp70
ag10
(g14
S'\x9a\x18\x04\xb6iy@A'
p71
tp72
Rp73
ag10
(g14
S'x\x93\x18djy@A'
p74
tp75
Rp76
asS'target'
p77
(lp78
g10
(g14
S'\x11\x83\xc0\xca\xa1UC@'
p79
tp80
Rp81
ag10
(g14
S'\xd4\xf7S\xe3\xa5\xabC@'
p82
tp83
Rp84
ag10
(g14
S'\xc4 \xb0rh\x11B@'
p85
tp86
Rp87
ag10
(g14
S'\x9bn\x12\x83\xc0\xda@@'
p88
tp89
Rp90
ag10
(g14
S'\xc1I\x0c\x02+oC@'
p91
tp92
Rp93
ag10
(g14
S'\xd4Mb\x10X\xc9A@'
p94
tp95
Rp96
ag10
(g14
S'G7\x89A`=C@'
p97
tp98
Rp99
ag10
(g14
S'\xbft\x93\x18\x04F@@'
p100
tp101
Rp102
ag10
(g14
S'\xa8\x1cZd;oB@'
p103
tp104
Rp105
ag10
(g14
S'd\xbaI\x0c\x02\x1bD@'
p106
tp107
Rp108
ag10
(g14
S'`\xe5\xd0"\xdbyB@'
p109
tp110
Rp111
ag10
(g14
S'\xbf\xf5(\\\x8f\x12@@'
p112
tp113
Rp114
ag10
(g14
S'c\x91\xed|?UB@'
p115
tp116
Rp117
ag10
(g14
S')\xdd$\x06\x81\xf5=@'
p118
tp119
Rp120
ag10
(g14
S'\x13/\xdd$\x06\x81B@'
p121
tp122
Rp123
ag10
(g14
S'2\xdfO\x8d\x97\xdeB@'
p124
tp125
Rp126
ag10
(g14
S'I5^\xbaI\xbc=@'
p127
tp128
Rp129
ag10
(g14
S'O7\x89A`\x05D@'
p130
tp131
Rp132
ag10
(g14
S'\x08+\x87\x16\xd9nB@'
p133
tp134
Rp135
ag10
(g14
S'\xfcS\xe3\xa5\x9b\xe4D@'
p136
tp137
Rp138
asssss.