(dp0
S'../Data/sqlite_56.csv'
p1
(dp2
S'../Data/sqlite_77.csv'
p3
(dp4
F0.1
(dp5
S'mmre'
p6
(dp7
S'bellwether'
p8
(lp9
cnumpy.core.multiarray
scalar
p10
(cnumpy
dtype
p11
(S'f8'
p12
I0
I1
tp13
Rp14
(I3
S'<'
p15
NNNI-1
I-1
I0
tp16
bS'\x07!=\\\xef=M@'
p17
tp18
Rp19
ag10
(g14
S'\xbc]\x82\xcf\x9aBM@'
p20
tp21
Rp22
ag10
(g14
S'\xaf(_{t8M@'
p23
tp24
Rp25
ag10
(g14
S'\x9e\xb8\xe7y\x8cCM@'
p26
tp27
Rp28
ag10
(g14
S'\xf8K\xafP\xfcEM@'
p29
tp30
Rp31
ag10
(g14
S'\x03S}B\x99AM@'
p32
tp33
Rp34
ag10
(g14
S'\x18q\xd2\x10.0M@'
p35
tp36
Rp37
ag10
(g14
S'\x94\xa6\xf5e\x14@M@'
p38
tp39
Rp40
ag10
(g14
S'\x8a|\xf3wh1M@'
p41
tp42
Rp43
ag10
(g14
S'\xd4\xba]\xedSIM@'
p44
tp45
Rp46
ag10
(g14
S'\xce\xd3\x1d\t61M@'
p47
tp48
Rp49
ag10
(g14
S'\x9d\xd1\xa6\x06RRM@'
p50
tp51
Rp52
ag10
(g14
S'Ek\x88hJ6M@'
p53
tp54
Rp55
ag10
(g14
S'\xc15\xbd\xea\xc7AM@'
p56
tp57
Rp58
ag10
(g14
S'\x11;\xf7\x15\xf8CM@'
p59
tp60
Rp61
ag10
(g14
S'\xe6\x99CQA)M@'
p62
tp63
Rp64
ag10
(g14
S'\xd9d\xb8$\xaf8M@'
p65
tp66
Rp67
ag10
(g14
S'\xee\xe7\x06-KRM@'
p68
tp69
Rp70
ag10
(g14
S'Z\x8a\xfef\xd1-M@'
p71
tp72
Rp73
ag10
(g14
S'\xa3x-EQ9M@'
p74
tp75
Rp76
asS'target'
p77
(lp78
g10
(g14
S'\xe5\x84\xb56B\x0f6@'
p79
tp80
Rp81
ag10
(g14
S'.!\xe8$v\r5@'
p82
tp83
Rp84
ag10
(g14
S'\xac\n\x92\xdc\x98\xa94@'
p85
tp86
Rp87
ag10
(g14
S'}\x0e\x1d\x07"l6@'
p88
tp89
Rp90
ag10
(g14
S'&\xc2FQ\x18%6@'
p91
tp92
Rp93
ag10
(g14
S'\xae\x14\xe1j\x02:7@'
p94
tp95
Rp96
ag10
(g14
S'bz+~\xa0\xd16@'
p97
tp98
Rp99
ag10
(g14
S'{\x1a!\xd7\x01)6@'
p100
tp101
Rp102
ag10
(g14
S'\xd9\x91\x14\xfc\xb2r5@'
p103
tp104
Rp105
ag10
(g14
S'\x92w\x9dG\x06\x8e6@'
p106
tp107
Rp108
ag10
(g14
S'\x0e\x93z\xcd\xaf\r5@'
p109
tp110
Rp111
ag10
(g14
S'0;\xe4\xfew\x196@'
p112
tp113
Rp114
ag10
(g14
S'\xd9T\x8f0\x00[9@'
p115
tp116
Rp117
ag10
(g14
S'`&GR\xb3a4@'
p118
tp119
Rp120
ag10
(g14
S'\xc0\x94\x08\x97\xc3r4@'
p121
tp122
Rp123
ag10
(g14
S'\xb8\xc23\xa9\x9c\x955@'
p124
tp125
Rp126
ag10
(g14
S'\x8e\x067\xbcO\xbe5@'
p127
tp128
Rp129
ag10
(g14
S'\xa0\x93\xab;\xdb\x894@'
p130
tp131
Rp132
ag10
(g14
S'\xbe\xe7\x15\x07H\xb18@'
p133
tp134
Rp135
ag10
(g14
S'\xec\x06p\xf6\xd7k5@'
p136
tp137
Rp138
asssss.