(dp0
S'../Data/sqlite_6.csv'
p1
(dp2
S'../Data/sqlite_18.csv'
p3
(dp4
F0.15
(dp5
S'abs_res'
p6
(dp7
S'bellwether'
p8
(lp9
cnumpy.core.multiarray
scalar
p10
(cnumpy
dtype
p11
(S'f8'
p12
I0
I1
tp13
Rp14
(I3
S'<'
p15
NNNI-1
I-1
I0
tp16
bS'\xb7\xf3\xfd\xc4\x92a@A'
p17
tp18
Rp19
ag10
(g14
S'K~\xb1\xc4\x7fa@A'
p20
tp21
Rp22
ag10
(g14
S'D\x0c\x02\x03\xd2a@A'
p23
tp24
Rp25
ag10
(g14
S'\xdeO\x8d\x07Ab@A'
p26
tp27
Rp28
ag10
(g14
S'x\xe9&)-b@A'
p29
tp30
Rp31
ag10
(g14
S'\xd0"\xdb\x995b@A'
p32
tp33
Rp34
ag10
(g14
S'\xe3mY\xfbua@A'
p35
tp36
Rp37
ag10
(g14
S'\xc9K7\xc9Ga@A'
p38
tp39
Rp40
ag10
(g14
S'\xe6\xc3g\xf0\xc1b@A'
p41
tp42
Rp43
ag10
(g14
S'Q\xb8\x1e\r\xd4a@A'
p44
tp45
Rp46
ag10
(g14
S'\x95\x99\x99\xa1\x7fa@A'
p47
tp48
Rp49
ag10
(g14
S'\xb2\xc8v\xe6\nb@A'
p50
tp51
Rp52
ag10
(g14
S'\xd7\xea\x98\xd8\xe9a@A'
p53
tp54
Rp55
ag10
(g14
S'B5^\x1a\xdba@A'
p56
tp57
Rp58
ag10
(g14
S'\x01\xc6\x92gZa@A'
p59
tp60
Rp61
ag10
(g14
S'\xd7\xce\xf73\xb1a@A'
p62
tp63
Rp64
ag10
(g14
S'\xcei\x03m2a@A'
p65
tp66
Rp67
ag10
(g14
S'j.$-\x19a@A'
p68
tp69
Rp70
ag10
(g14
S'D\x8bl\xd7Ca@A'
p71
tp72
Rp73
ag10
(g14
S'Q9\xb40sb@A'
p74
tp75
Rp76
asS'target'
p77
(lp78
g10
(g14
S'bfff\x06\xc9\xd1@'
p79
tp80
Rp81
ag10
(g14
S'\xd8\xcc\xcc\xcc\x8cV\xd4@'
p82
tp83
Rp84
ag10
(g14
S'\x00\x00\x00\x00\xe0\xf1\xd2@'
p85
tp86
Rp87
ag10
(g14
S'\xca\xcc\xcc\xcc\xac\xd1\xd1@'
p88
tp89
Rp90
ag10
(g14
S'\x9b\x99\x99\x999K\xd2@'
p91
tp92
Rp93
ag10
(g14
S'\xa4\x99\x99\x99\xc9\x13\xd2@'
p94
tp95
Rp96
ag10
(g14
S'pfff\x060\xd2@'
p97
tp98
Rp99
ag10
(g14
S'gffff1\xd4@'
p100
tp101
Rp102
ag10
(g14
S"jfff&'\xd1@"
p103
tp104
Rp105
ag10
(g14
S'$333S\xf6\xd3@'
p106
tp107
Rp108
ag10
(g14
S'cfffF\xd8\xd2@'
p109
tp110
Rp111
ag10
(g14
S'\xc9\xcc\xcc\xcc\xach\xd2@'
p112
tp113
Rp114
ag10
(g14
S'13333\x19\xd2@'
p115
tp116
Rp117
ag10
(g14
S'3333\xb3X\xd3@'
p118
tp119
Rp120
ag10
(g14
S'\x01\x00\x00\x00\xc0\xae\xd1@'
p121
tp122
Rp123
ag10
(g14
S'6333\xd3\x81\xd2@'
p124
tp125
Rp126
ag10
(g14
S'hfffF\xdc\xd2@'
p127
tp128
Rp129
ag10
(g14
S'qfffF\xeb\xd3@'
p130
tp131
Rp132
ag10
(g14
S'gffff\x12\xd2@'
p133
tp134
Rp135
ag10
(g14
S'ifff\xa6E\xd3@'
p136
tp137
Rp138
asssss.