(dp0
S'../Data/sqlite_2.csv'
p1
(dp2
S'../Data/sqlite_97.csv'
p3
(dp4
F0.25
(dp5
S'mmre'
p6
(dp7
S'bellwether'
p8
(lp9
cnumpy.core.multiarray
scalar
p10
(cnumpy
dtype
p11
(S'f8'
p12
I0
I1
tp13
Rp14
(I3
S'<'
p15
NNNI-1
I-1
I0
tp16
bS'\x9eV\xe2L\xdavW@'
p17
tp18
Rp19
ag10
(g14
S'*~\xd6\x0b\xd9}W@'
p20
tp21
Rp22
ag10
(g14
S'q\xdf=}Q|W@'
p23
tp24
Rp25
ag10
(g14
S'\xccB\x88O\\vW@'
p26
tp27
Rp28
ag10
(g14
S'V\x83\xaaO\xb6vW@'
p29
tp30
Rp31
ag10
(g14
S'\xb0XyN\xf7}W@'
p32
tp33
Rp34
ag10
(g14
S'J\xf1\xaf\xbb\xbdyW@'
p35
tp36
Rp37
ag10
(g14
S'D\xbf\xbf\x84m}W@'
p38
tp39
Rp40
ag10
(g14
S'\xe0_\xbf\tp\x7fW@'
p41
tp42
Rp43
ag10
(g14
S'[\xc1)\xb2\x0cwW@'
p44
tp45
Rp46
ag10
(g14
S'-\xd3{\xa1\xeazW@'
p47
tp48
Rp49
ag10
(g14
S'\xc0\xf5\xda\xeeL|W@'
p50
tp51
Rp52
ag10
(g14
S'^\x9c\xdb\xbb\xe9}W@'
p53
tp54
Rp55
ag10
(g14
S'\x83\xac_\x04DzW@'
p56
tp57
Rp58
ag10
(g14
S'g\xbbF\xa9F{W@'
p59
tp60
Rp61
ag10
(g14
S'a\xa9\x8dq?zW@'
p62
tp63
Rp64
ag10
(g14
S'8\x9e\xb5\x04\x01zW@'
p65
tp66
Rp67
ag10
(g14
S'F\xbf\x03[FzW@'
p68
tp69
Rp70
ag10
(g14
S'zcS\xed1yW@'
p71
tp72
Rp73
ag10
(g14
S'l\xa5p\x9f\x1fyW@'
p74
tp75
Rp76
asS'target'
p77
(lp78
g10
(g14
S'\xb6\x7f\xf8\x8f+\x0fP@'
p79
tp80
Rp81
ag10
(g14
S'``W\x80\xb7\xb1K@'
p82
tp83
Rp84
ag10
(g14
S'\x10\xf6_C\x81\x95N@'
p85
tp86
Rp87
ag10
(g14
S'\x10`\xd7\xae\x92\xad[@'
p88
tp89
Rp90
ag10
(g14
S'8\x13\xe0\xf6\xd45X@'
p91
tp92
Rp93
ag10
(g14
S"'h`y\xa5\x12S@"
p94
tp95
Rp96
ag10
(g14
S'd\x02\xf8!\xca\xbaS@'
p97
tp98
Rp99
ag10
(g14
S'P\xe7"\xb8\xc4\xa0W@'
p100
tp101
Rp102
ag10
(g14
S'\xf9w\xb7\xc3\xebtJ@'
p103
tp104
Rp105
ag10
(g14
S'\xd0O\x1d\x02a\xca[@'
p106
tp107
Rp108
ag10
(g14
S'/\x9a+\xd7\xdf\xa5Q@'
p109
tp110
Rp111
ag10
(g14
S'q\xd8\x96A\xb7\xd9Q@'
p112
tp113
Rp114
ag10
(g14
S'\xe6\x99cgd\x89Q@'
p115
tp116
Rp117
ag10
(g14
S' B\xa9\x1d&\x14\\@'
p118
tp119
Rp120
ag10
(g14
S'e\xa1n\x8f\x1f\x02T@'
p121
tp122
Rp123
ag10
(g14
S'\xd4\xe6w\xe3\x8f\xecV@'
p124
tp125
Rp126
ag10
(g14
S'\xd8\xb5\xb5a\x07%M@'
p127
tp128
Rp129
ag10
(g14
S'\x83\x9dl%\x1bkS@'
p130
tp131
Rp132
ag10
(g14
S'\x87%\xe0~ewS@'
p133
tp134
Rp135
ag10
(g14
S'\xf8\x9e"\xe8\x13\xa4^@'
p136
tp137
Rp138
asssss.