(dp0
S'../Data/sqlite_27.csv'
p1
(dp2
S'../Data/sqlite_89.csv'
p3
(dp4
F0.1
(dp5
S'mmre'
p6
(dp7
S'bellwether'
p8
(lp9
cnumpy.core.multiarray
scalar
p10
(cnumpy
dtype
p11
(S'f8'
p12
I0
I1
tp13
Rp14
(I3
S'<'
p15
NNNI-1
I-1
I0
tp16
bS'\xe7\x83\xdc/\xb5[i@'
p17
tp18
Rp19
ag10
(g14
S')\xd0\x970\xbc\\i@'
p20
tp21
Rp22
ag10
(g14
S'\xd3yP\xf8?\x93i@'
p23
tp24
Rp25
ag10
(g14
S'\x8eK\xdc\xea!ei@'
p26
tp27
Rp28
ag10
(g14
S'\t"VB\xcc\xa0i@'
p29
tp30
Rp31
ag10
(g14
S'V\xcd\xd81\xd3ti@'
p32
tp33
Rp34
ag10
(g14
S'\x8c\x93D#cdi@'
p35
tp36
Rp37
ag10
(g14
S'7\xd2qwiai@'
p38
tp39
Rp40
ag10
(g14
S'\xa6P/u>~i@'
p41
tp42
Rp43
ag10
(g14
S'{\xd1\x13\x82#\x9bi@'
p44
tp45
Rp46
ag10
(g14
S'\x11W\xd7\xb9\x93\x95i@'
p47
tp48
Rp49
ag10
(g14
S'\x14\xb0\xc0)G\x98i@'
p50
tp51
Rp52
ag10
(g14
S'\x9c^4\x16\x9cci@'
p53
tp54
Rp55
ag10
(g14
S'\xa0\xafnIA\x7fi@'
p56
tp57
Rp58
ag10
(g14
S'\x87mzg\xee\xd4i@'
p59
tp60
Rp61
ag10
(g14
S'{\xcf\x98\x9c\x1d\\i@'
p62
tp63
Rp64
ag10
(g14
S' ;!c\xc0pi@'
p65
tp66
Rp67
ag10
(g14
S'\xcep\xf6\x90ERi@'
p68
tp69
Rp70
ag10
(g14
S'\x89EY\xceOIi@'
p71
tp72
Rp73
ag10
(g14
S'y\xe0\xb8\xb6\xf7\xabi@'
p74
tp75
Rp76
asS'target'
p77
(lp78
g10
(g14
S'\x00\xa4T\xfe\x0e\x82P@'
p79
tp80
Rp81
ag10
(g14
S'\x9bv\xa5x\xa0\x0cV@'
p82
tp83
Rp84
ag10
(g14
S'%\xb7\xe4L0\x85S@'
p85
tp86
Rp87
ag10
(g14
S'\x99\xb2\x17\x81J\x17L@'
p88
tp89
Rp90
ag10
(g14
S'X\xd4\xd1\xf9\xf2\xf5O@'
p91
tp92
Rp93
ag10
(g14
S'_\xb9R\xcbv U@'
p94
tp95
Rp96
ag10
(g14
S'\xd8-\xa4\xf9\x15\x07K@'
p97
tp98
Rp99
ag10
(g14
S'~\xd5\xecHV%T@'
p100
tp101
Rp102
ag10
(g14
S'\xf2\xeeOK\xa1*M@'
p103
tp104
Rp105
ag10
(g14
S'-\xd3|\xd5\xb2\x98Y@'
p106
tp107
Rp108
ag10
(g14
S'e\xaddf\x89hR@'
p109
tp110
Rp111
ag10
(g14
S'S\xf6C\x97\x80+Q@'
p112
tp113
Rp114
ag10
(g14
S'b|\xdd\x8eV`P@'
p115
tp116
Rp117
ag10
(g14
S'`#\xf7\x9077N@'
p118
tp119
Rp120
ag10
(g14
S'\xb9\xde\xaa\xb8\x83\xb5U@'
p121
tp122
Rp123
ag10
(g14
S'\xac4\x96\xd0\xe5\xf7K@'
p124
tp125
Rp126
ag10
(g14
S'\x0e\xf7X@K\xa6M@'
p127
tp128
Rp129
ag10
(g14
S'\x89\x18V\x0b\xf8\x88[@'
p130
tp131
Rp132
ag10
(g14
S'I\x1e\x8aN\xf1\tE@'
p133
tp134
Rp135
ag10
(g14
S'\xedU\xa0S\xfd\xb2U@'
p136
tp137
Rp138
asssss.