(dp0
S'../Data/sqlite_18.csv'
p1
(dp2
S'../Data/sqlite_19.csv'
p3
(dp4
F0.15
(dp5
S'abs_res'
p6
(dp7
S'bellwether'
p8
(lp9
cnumpy.core.multiarray
scalar
p10
(cnumpy
dtype
p11
(S'f8'
p12
I0
I1
tp13
Rp14
(I3
S'<'
p15
NNNI-1
I-1
I0
tp16
bS'.ku\xac\x1bq@A'
p17
tp18
Rp19
ag10
(g14
S'\x15X9t\xc2q@A'
p20
tp21
Rp22
ag10
(g14
S'\xd0\xa1E\x86\xe8p@A'
p23
tp24
Rp25
ag10
(g14
S'\x9a\x99\x99\xb9\xabq@A'
p26
tp27
Rp28
ag10
(g14
S'\xd1\xb0+P\x1cq@A'
p29
tp30
Rp31
ag10
(g14
S'\x13\x02+\xb7\xeaq@A'
p32
tp33
Rp34
ag10
(g14
S')\xbfX\xd2\xd6p@A'
p35
tp36
Rp37
ag10
(g14
S'\xcc \xb0RJq@A'
p38
tp39
Rp40
ag10
(g14
S'\xaf+@.\xf9q@A'
p41
tp42
Rp43
ag10
(g14
S'X\xb8\x1e\x05\xdfp@A'
p44
tp45
Rp46
ag10
(g14
S'(\xdb\xf9\xfe\x98q@A'
p47
tp48
Rp49
ag10
(g14
S'w\x93\x18\xc4nq@A'
p50
tp51
Rp52
ag10
(g14
S'\xd0\xf7S#\x04q@A'
p53
tp54
Rp55
ag10
(g14
S'\xad\xaa\xaa\xaa\xe5p@A'
p56
tp57
Rp58
ag10
(g14
S'u\x93\x18\xd4\x9dq@A'
p59
tp60
Rp61
ag10
(g14
S'\xb1rh\xa1<q@A'
p62
tp63
Rp64
ag10
(g14
S'\xaerh\xd1Lq@A'
p65
tp66
Rp67
ag10
(g14
S'\x7fj\xbc\xa4\xa9q@A'
p68
tp69
Rp70
ag10
(g14
S'j\xe7\xfb\xe9[q@A'
p71
tp72
Rp73
ag10
(g14
S'\x99C\x8b|/q@A'
p74
tp75
Rp76
asS'target'
p77
(lp78
g10
(g14
S'\xf1O\x8d\x97n\x92X@'
p79
tp80
Rp81
ag10
(g14
S'[ffff\xb6X@'
p82
tp83
Rp84
ag10
(g14
S'rh\x91\xed|/V@'
p85
tp86
Rp87
ag10
(g14
S'"\xdb\xf9~j\xec]@'
p88
tp89
Rp90
ag10
(g14
S'\xfe*\x87\x16\xd9\xe6V@'
p91
tp92
Rp93
ag10
(g14
S'@\n\xd7\xa3pUX@'
p94
tp95
Rp96
ag10
(g14
S'\xb5\x1cZd;\xd7W@'
p97
tp98
Rp99
ag10
(g14
S'\xdf$\x06\x81\x95\x8bY@'
p100
tp101
Rp102
ag10
(g14
S'M\x8d\x97n\x12\x9bW@'
p103
tp104
Rp105
ag10
(g14
S'D\xb6\xf3\xfd\xd4X[@'
p106
tp107
Rp108
ag10
(g14
S'\xecQ\xb8\x1e\x85+V@'
p109
tp110
Rp111
ag10
(g14
S'\xa4\x1a/\xdd$\x8eW@'
p112
tp113
Rp114
ag10
(g14
S'\xea$\x06\x81\x95\xe3V@'
p115
tp116
Rp117
ag10
(g14
S'\xdb\xd0"\xdb\xf9VX@'
p118
tp119
Rp120
ag10
(g14
S'k;\xdfO\x8d\x07W@'
p121
tp122
Rp123
ag10
(g14
S'\xeaO\x8d\x97nRY@'
p124
tp125
Rp126
ag10
(g14
S'\xba\xf3\xfd\xd4x\x11Y@'
p127
tp128
Rp129
ag10
(g14
S'\x9a\xc4 \xb0r0X@'
p130
tp131
Rp132
ag10
(g14
S'\xe9\xa7\xc6K7AW@'
p133
tp134
Rp135
ag10
(g14
S'\xf5~j\xbct{Y@'
p136
tp137
Rp138
asssss.