(dp0
S'../Data/sqlite_51.csv'
p1
(dp2
S'../Data/sqlite_37.csv'
p3
(dp4
F0.25
(dp5
S'abs_res'
p6
(dp7
S'bellwether'
p8
(lp9
cnumpy.core.multiarray
scalar
p10
(cnumpy
dtype
p11
(S'f8'
p12
I0
I1
tp13
Rp14
(I3
S'<'
p15
NNNI-1
I-1
I0
tp16
bS'\x96\x97n\x12\x83\x88g@'
p17
tp18
Rp19
ag10
(g14
S'juL\xf0`lg@'
p20
tp21
Rp22
ag10
(g14
S'\\s!iJyg@'
p23
tp24
Rp25
ag10
(g14
S'\x0e\x83\xc0\xca\xa1\x13g@'
p26
tp27
Rp28
ag10
(g14
S'\x90\xfa7B\x19yg@'
p29
tp30
Rp31
ag10
(g14
S'\xdb\xce\xf7S\xe37g@'
p32
tp33
Rp34
ag10
(g14
S'XH\x9aRq6g@'
p35
tp36
Rp37
ag10
(g14
S'\x1ciJ\xc5\xd9ug@'
p38
tp39
Rp40
ag10
(g14
S'\xefo\x842zKg@'
p41
tp42
Rp43
ag10
(g14
S'0\xec\n\x90{Ug@'
p44
tp45
Rp46
ag10
(g14
S'uh\x91\xed|Kg@'
p47
tp48
Rp49
ag10
(g14
S'\x8c\xfa7B\x19+g@'
p50
tp51
Rp52
ag10
(g14
S'/\xf9\xc5\x92_Dg@'
p53
tp54
Rp55
ag10
(g14
S'\xda\xa5\x9b\xc4 \xaeg@'
p56
tp57
Rp58
ag10
(g14
S'\xc6\xf7S\xe3\xa5Mg@'
p59
tp60
Rp61
ag10
(g14
S'J\x0c\x02+\x87rg@'
p62
tp63
Rp64
ag10
(g14
S'?\xb4\xc8v\xbecg@'
p65
tp66
Rp67
ag10
(g14
S'T\xbaI\x0c\x021g@'
p68
tp69
Rp70
ag10
(g14
S'J\xb6\xf3\xfd\xd4^g@'
p71
tp72
Rp73
ag10
(g14
S'\xa7\xd51\xc1\x83_g@'
p74
tp75
Rp76
asS'target'
p77
(lp78
g10
(g14
S'\xdd\xa5\x9b\xc4 \x80M@'
p79
tp80
Rp81
ag10
(g14
S'\x07V\x0e-\xb2}N@'
p82
tp83
Rp84
ag10
(g14
S'\x10\x02+\x87\x16\x89O@'
p85
tp86
Rp87
ag10
(g14
S'\xc8\xcc\xcc\xcc\xcc\xfcM@'
p88
tp89
Rp90
ag10
(g14
S'\x9dp=\n\xd7\xa3M@'
p91
tp92
Rp93
ag10
(g14
S'23333#L@'
p94
tp95
Rp96
ag10
(g14
S'\xbe\xf5(\\\x8f\x82M@'
p97
tp98
Rp99
ag10
(g14
S'\xfc\xa9\xf1\xd2MBN@'
p100
tp101
Rp102
ag10
(g14
S'z?5^\xba\xf1N@'
p103
tp104
Rp105
ag10
(g14
S'\xf0\xfd\xd4x\xe9\xdeM@'
p106
tp107
Rp108
ag10
(g14
S'E\xdfO\x8d\x97nN@'
p109
tp110
Rp111
ag10
(g14
S'Z7\x89A`\x15O@'
p112
tp113
Rp114
ag10
(g14
S'\xcf\xf7S\xe3\xa5\x13M@'
p115
tp116
Rp117
ag10
(g14
S'3\x08\xac\x1cZ4N@'
p118
tp119
Rp120
ag10
(g14
S'W\x0e-\xb2\x9d\x13P@'
p121
tp122
Rp123
ag10
(g14
S'\x83\xbe\x9f\x1a/]L@'
p124
tp125
Rp126
ag10
(g14
S'\xd8x\xe9&1 M@'
p127
tp128
Rp129
ag10
(g14
S'\x06-\xb2\x9d\xef\xffL@'
p130
tp131
Rp132
ag10
(g14
S'Ob\x10X9\xd4L@'
p133
tp134
Rp135
ag10
(g14
S'\xce"\xdb\xf9~\x8aM@'
p136
tp137
Rp138
asssss.