(dp0
S'../Data/sqlite_18.csv'
p1
(dp2
S'../Data/sqlite_33.csv'
p3
(dp4
F0.1
(dp5
S'abs_res'
p6
(dp7
S'bellwether'
p8
(lp9
cnumpy.core.multiarray
scalar
p10
(cnumpy
dtype
p11
(S'f8'
p12
I0
I1
tp13
Rp14
(I3
S'<'
p15
NNNI-1
I-1
I0
tp16
bS'\x90\xc2\xf5\x18\xf9mAA'
p17
tp18
Rp19
ag10
(g14
S'1333\xf9mAA'
p20
tp21
Rp22
ag10
(g14
S'5\x08\xac\x8c\rnAA'
p23
tp24
Rp25
ag10
(g14
S'x!i\x8a\x94nAA'
p26
tp27
Rp28
ag10
(g14
S'\xa2\x7f#\x94rnAA'
p29
tp30
Rp31
ag10
(g14
S'\xc7\xa1E\xf6goAA'
p32
tp33
Rp34
ag10
(g14
S'lJ\xc59\xcdmAA'
p35
tp36
Rp37
ag10
(g14
S'fffF\x1fnAA'
p38
tp39
Rp40
ag10
(g14
S'guL\xa0\xcanAA'
p41
tp42
Rp43
ag10
(g14
S'\xed|?\xf5mnAA'
p44
tp45
Rp46
ag10
(g14
S'\xbe \xb0"\xffmAA'
p47
tp48
Rp49
ag10
(g14
S'\x02:m\xd0FnAA'
p50
tp51
Rp52
ag10
(g14
S'\x1a\x85\xeb1\x98nAA'
p53
tp54
Rp55
ag10
(g14
S'Ub\x10\xb8\x18nAA'
p56
tp57
Rp58
ag10
(g14
S'[\xe5\xd0r\x8dnAA'
p59
tp60
Rp61
ag10
(g14
S'Jb\x10\xa8\x11oAA'
p62
tp63
Rp64
ag10
(g14
S'|j\xbc4\xf8mAA'
p65
tp66
Rp67
ag10
(g14
S'\xde$\x06\x11lnAA'
p68
tp69
Rp70
ag10
(g14
S'\xb7\x9f\x1a\xdf\xe3mAA'
p71
tp72
Rp73
ag10
(g14
S'\x0e\x02+\x97:nAA'
p74
tp75
Rp76
asS'target'
p77
(lp78
g10
(g14
S'\xb0\xf3\xfd\xd4x\x99O@'
p79
tp80
Rp81
ag10
(g14
S'\xa8\xf1\xd2MbxP@'
p82
tp83
Rp84
ag10
(g14
S'\xf9S\xe3\xa5\x9b|P@'
p85
tp86
Rp87
ag10
(g14
S'=\xb4\xc8v\xbe\xb7Q@'
p88
tp89
Rp90
ag10
(g14
S'\x9c\x97n\x12\x83`N@'
p91
tp92
Rp93
ag10
(g14
S'\x11\xac\x1cZd{R@'
p94
tp95
Rp96
ag10
(g14
S'R5^\xbaI\x1cN@'
p97
tp98
Rp99
ag10
(g14
S'\xc6\xf7S\xe3\xa5\x9bP@'
p100
tp101
Rp102
ag10
(g14
S'\xaa\xf1\xd2Mb Q@'
p103
tp104
Rp105
ag10
(g14
S'<\x08\xac\x1cZ\xe4M@'
p106
tp107
Rp108
ag10
(g14
S'\xb6\x1a/\xdd$\xf6N@'
p109
tp110
Rp111
ag10
(g14
S'\xd7Mb\x10X\xc9P@'
p112
tp113
Rp114
ag10
(g14
S'\xc4\x9f\x1a/\xdd\x14P@'
p115
tp116
Rp117
ag10
(g14
S'd\x10X9\xb4\xd8N@'
p118
tp119
Rp120
ag10
(g14
S'\xd0Mb\x10X\xf9O@'
p121
tp122
Rp123
ag10
(g14
S'R\xb8\x1e\x85\xebAP@'
p124
tp125
Rp126
ag10
(g14
S'\xd3x\xe9&1(P@'
p127
tp128
Rp129
ag10
(g14
S'\x9cn\x12\x83\xc0\xcaM@'
p130
tp131
Rp132
ag10
(g14
S'\x04\x81\x95C\x8b\xecO@'
p133
tp134
Rp135
ag10
(g14
S'\xea(\\\x8f\xc2uM@'
p136
tp137
Rp138
asssss.