(dp0
S'../Data/sqlite_38.csv'
p1
(dp2
S'../Data/sqlite_76.csv'
p3
(dp4
F0.1
(dp5
S'mmre'
p6
(dp7
S'bellwether'
p8
(lp9
cnumpy.core.multiarray
scalar
p10
(cnumpy
dtype
p11
(S'f8'
p12
I0
I1
tp13
Rp14
(I3
S'<'
p15
NNNI-1
I-1
I0
tp16
bS'\x10\xab\x8b\xea\tho@'
p17
tp18
Rp19
ag10
(g14
S'\x9d\x18O\xc6$ro@'
p20
tp21
Rp22
ag10
(g14
S'\xf1@=b\x8eno@'
p23
tp24
Rp25
ag10
(g14
S'[\xec"M\x1eJo@'
p26
tp27
Rp28
ag10
(g14
S'\xf9\xe5P\xc5\t\\o@'
p29
tp30
Rp31
ag10
(g14
S'\xb9\x86\xea\xeb\xc5\x87o@'
p32
tp33
Rp34
ag10
(g14
S'\x88\x97\xe1I\xf7@o@'
p35
tp36
Rp37
ag10
(g14
S'\nH\xb9\xef\xa4wo@'
p38
tp39
Rp40
ag10
(g14
S'\x1d\x1bm{ bo@'
p41
tp42
Rp43
ag10
(g14
S'\x95\x9dLH\x06{o@'
p44
tp45
Rp46
ag10
(g14
S'\x0fX\xbb\xb1\xcd`o@'
p47
tp48
Rp49
ag10
(g14
S'U\x07\x10\xb4|ko@'
p50
tp51
Rp52
ag10
(g14
S'\xdf0\xe8\xb7RGo@'
p53
tp54
Rp55
ag10
(g14
S'\xe5H5BF|o@'
p56
tp57
Rp58
ag10
(g14
S'}\x11|Bn\x81o@'
p59
tp60
Rp61
ag10
(g14
S'\x0fc>#z`o@'
p62
tp63
Rp64
ag10
(g14
S'\x10Iwt~Xo@'
p65
tp66
Rp67
ag10
(g14
S'K"\xb7\xf7"bo@'
p68
tp69
Rp70
ag10
(g14
S'\xd2\xb8.\x14.no@'
p71
tp72
Rp73
ag10
(g14
S'6\x9f=\xde\xf0Do@'
p74
tp75
Rp76
asS'target'
p77
(lp78
g10
(g14
S'\x9f/\x04v D0@'
p79
tp80
Rp81
ag10
(g14
S'j\xe6x\x11H\xbe3@'
p82
tp83
Rp84
ag10
(g14
S'<\x98\xbe\xf2\xa3\xf31@'
p85
tp86
Rp87
ag10
(g14
S'\x08tM\x9c^\xe5.@'
p88
tp89
Rp90
ag10
(g14
S'\xccU\xda\xee]\xcd1@'
p91
tp92
Rp93
ag10
(g14
S'z\x8bi\xa7\x0e\xab1@'
p94
tp95
Rp96
ag10
(g14
S'>\x08\xc0\xb0\x87D/@'
p97
tp98
Rp99
ag10
(g14
S'^\xe5\xeb\xf9GE0@'
p100
tp101
Rp102
ag10
(g14
S'jV\xb7\xd6\x8d\xe50@'
p103
tp104
Rp105
ag10
(g14
S'PJZ\n\xb971@'
p106
tp107
Rp108
ag10
(g14
S'y\xe5\r\x0ba+1@'
p109
tp110
Rp111
ag10
(g14
S'\x16\xeb6\x0c\xad\xf90@'
p112
tp113
Rp114
ag10
(g14
S'\x1fBE\xd9pW0@'
p115
tp116
Rp117
ag10
(g14
S'\t\xe9j\xb3\x89\xa52@'
p118
tp119
Rp120
ag10
(g14
S'U\xc0s\xe7\xbb\xcd1@'
p121
tp122
Rp123
ag10
(g14
S'\x80\xc2\x87\xd5\x01?1@'
p124
tp125
Rp126
ag10
(g14
S'}"Q\xfd\xaff0@'
p127
tp128
Rp129
ag10
(g14
S'\x02\xa7~\x1a\xc0x0@'
p130
tp131
Rp132
ag10
(g14
S'\xbd\x9c\x82\x97u\xdd0@'
p133
tp134
Rp135
ag10
(g14
S'\xeb\xdb\x91\x14\xd1A1@'
p136
tp137
Rp138
asssss.