(dp0
S'../Data/sqlite_66.csv'
p1
(dp2
S'../Data/sqlite_2.csv'
p3
(dp4
F0.15
(dp5
S'abs_res'
p6
(dp7
S'bellwether'
p8
(lp9
cnumpy.core.multiarray
scalar
p10
(cnumpy
dtype
p11
(S'f8'
p12
I0
I1
tp13
Rp14
(I3
S'<'
p15
NNNI-1
I-1
I0
tp16
bS'\xb2\xac\xd5q=9"A'
p17
tp18
Rp19
ag10
(g14
S'\xed\xfd\xd4x\xcf8"A'
p20
tp21
Rp22
ag10
(g14
S'\x08\x90{M\x8c9"A'
p23
tp24
Rp25
ag10
(g14
S'\x87A`%w9"A'
p26
tp27
Rp28
ag10
(g14
S'\xc2K7\x89"8"A'
p29
tp30
Rp31
ag10
(g14
S'Td;_N9"A'
p32
tp33
Rp34
ag10
(g14
S'q\x14\xaeG89"A'
p35
tp36
Rp37
ag10
(g14
S'\x95C\x8b,\xf58"A'
p38
tp39
Rp40
ag10
(g14
S'c\xad\x8e\x89\xdf8"A'
p41
tp42
Rp43
ag10
(g14
S'>\x8bl\xa799"A'
p44
tp45
Rp46
ag10
(g14
S'y\x14\xae\xc7\xb79"A'
p47
tp48
Rp49
ag10
(g14
S'\xa8G\xe1\xba\xf28"A'
p50
tp51
Rp52
ag10
(g14
S'Ob\x10\x98\xcf8"A'
p53
tp54
Rp55
ag10
(g14
S'K\x0e-\xf2"9"A'
p56
tp57
Rp58
ag10
(g14
S'\xec\x8b%?\xb78"A'
p59
tp60
Rp61
ag10
(g14
S'\x8b\xc2\xf5\xa8f9"A'
p62
tp63
Rp64
ag10
(g14
S'\xb6I\x0c\x8298"A'
p65
tp66
Rp67
ag10
(g14
S' \xdb\xf9~\xb88"A'
p68
tp69
Rp70
ag10
(g14
S'\xc4\x92_,B9"A'
p71
tp72
Rp73
ag10
(g14
S'X9\xb4\x88\xe87"A'
p74
tp75
Rp76
asS'target'
p77
(lp78
g10
(g14
S'\x03\x00\x00\x00\x00\x98R@'
p79
tp80
Rp81
ag10
(g14
S'\xf7\xd2Mb\x10`T@'
p82
tp83
Rp84
ag10
(g14
S'\xc6 \xb0rh\x91P@'
p85
tp86
Rp87
ag10
(g14
S'\x904\xa5\xe2\xec\xf3Q@'
p88
tp89
Rp90
ag10
(g14
S'E5^\xbaI\x14S@'
p91
tp92
Rp93
ag10
(g14
S'i\xe7\xfb\xa9\xf1\x12V@'
p94
tp95
Rp96
ag10
(g14
S'd;\xdfO\x8d\x8bR@'
p97
tp98
Rp99
ag10
(g14
S'\xcdMb\x10XIR@'
p100
tp101
Rp102
ag10
(g14
S'g\x10X9\xb4\xccT@'
p103
tp104
Rp105
ag10
(g14
S'4\xdd$\x06\x81\xe5R@'
p106
tp107
Rp108
ag10
(g14
S'\xb6\x9d\xef\xa7\xc6\x1bQ@'
p109
tp110
Rp111
ag10
(g14
S'\xabp=\n\xd7\x13S@'
p112
tp113
Rp114
ag10
(g14
S'*\\\x8f\xc2\xf5pR@'
p115
tp116
Rp117
ag10
(g14
S'\xe8\xd0"\xdb\xf9\x0eS@'
p118
tp119
Rp120
ag10
(g14
S'h\xbct\x93\x18\xd4S@'
p121
tp122
Rp123
ag10
(g14
S'S\x0e-\xb2\x9dWQ@'
p124
tp125
Rp126
ag10
(g14
S')\xdb\xf9~j\xe8S@'
p127
tp128
Rp129
ag10
(g14
S']d;\xdfOmU@'
p130
tp131
Rp132
ag10
(g14
S'\xf4|?5^2S@'
p133
tp134
Rp135
ag10
(g14
S'\xf4(\\\x8f\xc25R@'
p136
tp137
Rp138
asssss.