(dp0
S'../Data/sqlite_58.csv'
p1
(dp2
S'../Data/sqlite_93.csv'
p3
(dp4
F0.2
(dp5
S'mmre'
p6
(dp7
S'bellwether'
p8
(lp9
cnumpy.core.multiarray
scalar
p10
(cnumpy
dtype
p11
(S'f8'
p12
I0
I1
tp13
Rp14
(I3
S'<'
p15
NNNI-1
I-1
I0
tp16
bS'yE\x12\x97\xad+g@'
p17
tp18
Rp19
ag10
(g14
S'vi7zP.g@'
p20
tp21
Rp22
ag10
(g14
S'o\r\x9a\xa3\xb3Bg@'
p23
tp24
Rp25
ag10
(g14
S'^\xcc@\xbc\x8b/g@'
p26
tp27
Rp28
ag10
(g14
S'\xd8W5\xbd\x8beg@'
p29
tp30
Rp31
ag10
(g14
S'\x8cb\xfb%\x8c\xa2g@'
p32
tp33
Rp34
ag10
(g14
S'\xf0\x91\x91@\x9c\xf5f@'
p35
tp36
Rp37
ag10
(g14
S'\xe3y\xc3\xe9\xde~g@'
p38
tp39
Rp40
ag10
(g14
S'd\x02#\x03Q\xf2f@'
p41
tp42
Rp43
ag10
(g14
S'\xfe|\x8d\xddg4g@'
p44
tp45
Rp46
ag10
(g14
S'rw\x12\xe5\x86=g@'
p47
tp48
Rp49
ag10
(g14
S'\xa9(:m\xcf<g@'
p50
tp51
Rp52
ag10
(g14
S'\x9a\x11\xef\xf9"Tg@'
p53
tp54
Rp55
ag10
(g14
S'E%\x87\x0c\x96Qg@'
p56
tp57
Rp58
ag10
(g14
S'\xbbH\xe2"\xc69g@'
p59
tp60
Rp61
ag10
(g14
S'b~\xa4w\xe3\xa6g@'
p62
tp63
Rp64
ag10
(g14
S'\xa47x\x90e>g@'
p65
tp66
Rp67
ag10
(g14
S'\x14\xdf\xa9\xe4zfg@'
p68
tp69
Rp70
ag10
(g14
S'V\r\xfb\x19$Wg@'
p71
tp72
Rp73
ag10
(g14
S'B7\xa4\xf2/?g@'
p74
tp75
Rp76
asS'target'
p77
(lp78
g10
(g14
S'\xb6\xb3\x07\xb2\xd9\x05H@'
p79
tp80
Rp81
ag10
(g14
S'f_\x15P\x1a^T@'
p82
tp83
Rp84
ag10
(g14
S'{\x88\x8e\xb8S3N@'
p85
tp86
Rp87
ag10
(g14
S'\xde4\xb2\xd0g\xa7Q@'
p88
tp89
Rp90
ag10
(g14
S'\x9f\xe0\x97-\xe5\xeaR@'
p91
tp92
Rp93
ag10
(g14
S'n\x8cIc\xda%R@'
p94
tp95
Rp96
ag10
(g14
S'\xd9\xb4ZU~\xf4O@'
p97
tp98
Rp99
ag10
(g14
S'\xed\x8aU\x15F\xf4U@'
p100
tp101
Rp102
ag10
(g14
S'/\x9ad\xd3!\x1bQ@'
p103
tp104
Rp105
ag10
(g14
S'\xa0\xfdj\xcbHZV@'
p106
tp107
Rp108
ag10
(g14
S'\xcfBm\xd1\xdf\x84K@'
p109
tp110
Rp111
ag10
(g14
S'L}\xa7`\xcddT@'
p112
tp113
Rp114
ag10
(g14
S'\xb9\xa9\xa2\xbc\xc1KN@'
p115
tp116
Rp117
ag10
(g14
S'p\xd2<xnQR@'
p118
tp119
Rp120
ag10
(g14
S' a\x12\xe0iH\\@'
p121
tp122
Rp123
ag10
(g14
S'\xce?n\x96\xd6k_@'
p124
tp125
Rp126
ag10
(g14
S'\xe2\xb3\xd5\xd1\xe9tZ@'
p127
tp128
Rp129
ag10
(g14
S'L\x12\xd4Y\xe9\x9d`@'
p130
tp131
Rp132
ag10
(g14
S'\x0e\xf7Ah\x07\x18Q@'
p133
tp134
Rp135
ag10
(g14
S"\x19\xe7'\xb6w\x0bM@"
p136
tp137
Rp138
asssss.