(dp0
S'../Data/sqlite_34.csv'
p1
(dp2
S'../Data/sqlite_96.csv'
p3
(dp4
F0.25
(dp5
S'mmre'
p6
(dp7
S'bellwether'
p8
(lp9
cnumpy.core.multiarray
scalar
p10
(cnumpy
dtype
p11
(S'f8'
p12
I0
I1
tp13
Rp14
(I3
S'<'
p15
NNNI-1
I-1
I0
tp16
bS'\xbb\xb01\x90\xd3ZQ@'
p17
tp18
Rp19
ag10
(g14
S'\xb4/\x02\x04\x80VQ@'
p20
tp21
Rp22
ag10
(g14
S'\x9f\x10\x1f\x94\xe7SQ@'
p23
tp24
Rp25
ag10
(g14
S'\x81k>K\xcePQ@'
p26
tp27
Rp28
ag10
(g14
S'\xfa\xfe\x00\xad\x9aMQ@'
p29
tp30
Rp31
ag10
(g14
S'\xd8%\xc9U\xd8PQ@'
p32
tp33
Rp34
ag10
(g14
S'\xa4\xb1}\xdf\x19;Q@'
p35
tp36
Rp37
ag10
(g14
S'@t\x90\xd2\x9dSQ@'
p38
tp39
Rp40
ag10
(g14
S'\x8e ywZHQ@'
p41
tp42
Rp43
ag10
(g14
S'\x85\x87\xbc\xaf\x03PQ@'
p44
tp45
Rp46
ag10
(g14
S'\x08\x91\x97\xfb6VQ@'
p47
tp48
Rp49
ag10
(g14
S'D\xa8uS\xccKQ@'
p50
tp51
Rp52
ag10
(g14
S'\xa3\x81y\xa2\xd4LQ@'
p53
tp54
Rp55
ag10
(g14
S'j`r\x9b)KQ@'
p56
tp57
Rp58
ag10
(g14
S'\xef&\xe6\xe0\xd4IQ@'
p59
tp60
Rp61
ag10
(g14
S'\xd5vj\xd0\x18CQ@'
p62
tp63
Rp64
ag10
(g14
S'\xc6bJ\xb6\xe8JQ@'
p65
tp66
Rp67
ag10
(g14
S'X\xea\x0c&rFQ@'
p68
tp69
Rp70
ag10
(g14
S'`r\\z-KQ@'
p71
tp72
Rp73
ag10
(g14
S'ua\x9e\x1a\xb0MQ@'
p74
tp75
Rp76
asS'target'
p77
(lp78
g10
(g14
S'\xfa\x91\xa1\xb4\x99\x91U@'
p79
tp80
Rp81
ag10
(g14
S'+T\x89\xbd\x0b)Q@'
p82
tp83
Rp84
ag10
(g14
S'\xdf\xdbe?\xd3\xb1F@'
p85
tp86
Rp87
ag10
(g14
S'x\xd7a\xb0*\x15L@'
p88
tp89
Rp90
ag10
(g14
S'\xd9dn7J_N@'
p91
tp92
Rp93
ag10
(g14
S'0\xda\xbd5\xf5gP@'
p94
tp95
Rp96
ag10
(g14
S'\xe2\xf8\xe27}y^@'
p97
tp98
Rp99
ag10
(g14
S'\xaf@e\xb8\xaaMV@'
p100
tp101
Rp102
ag10
(g14
S'\xbd\xe53\x98WG\\@'
p103
tp104
Rp105
ag10
(g14
S'\xc3%\xba\x92\x90XS@'
p106
tp107
Rp108
ag10
(g14
S'\xa2\xdb\x96\xeb\n%T@'
p109
tp110
Rp111
ag10
(g14
S'\x185hkGvZ@'
p112
tp113
Rp114
ag10
(g14
S'\x08\xe9\xcb\xce\x92eP@'
p115
tp116
Rp117
ag10
(g14
S'=\xfbV9A\xf7N@'
p118
tp119
Rp120
ag10
(g14
S'\xae?\xec\xf6\x8e\xc1V@'
p121
tp122
Rp123
ag10
(g14
S'\xedy?Q\xc7SZ@'
p124
tp125
Rp126
ag10
(g14
S'\x0cN5]\xb2\xeeP@'
p127
tp128
Rp129
ag10
(g14
S'^3\xaa\xfe\x01H_@'
p130
tp131
Rp132
ag10
(g14
S'\xd0c^\xcc\xaedW@'
p133
tp134
Rp135
ag10
(g14
S'ZQ\xae\xbf=\xb7T@'
p136
tp137
Rp138
asssss.