(dp0
S'../Data/sqlite_26.csv'
p1
(dp2
S'../Data/sqlite_1.csv'
p3
(dp4
F0.25
(dp5
S'mmre'
p6
(dp7
S'bellwether'
p8
(lp9
cnumpy.core.multiarray
scalar
p10
(cnumpy
dtype
p11
(S'f8'
p12
I0
I1
tp13
Rp14
(I3
S'<'
p15
NNNI-1
I-1
I0
tp16
bS'\x82 n\x8fHaX@'
p17
tp18
Rp19
ag10
(g14
S'\xaa\x8e\xe4r4aX@'
p20
tp21
Rp22
ag10
(g14
S'\x12>\xbfc+aX@'
p23
tp24
Rp25
ag10
(g14
S'\xc0\x00\xefS;aX@'
p26
tp27
Rp28
ag10
(g14
S'\xe8\xe0\xb484aX@'
p29
tp30
Rp31
ag10
(g14
S':9<\xb27aX@'
p32
tp33
Rp34
ag10
(g14
S'\xe6\xca\xf7YBaX@'
p35
tp36
Rp37
ag10
(g14
S'\xa1\t\xb4]?aX@'
p38
tp39
Rp40
ag10
(g14
S'\xff\x9fW\x0cHaX@'
p41
tp42
Rp43
ag10
(g14
S'\xd8_l\xc1]aX@'
p44
tp45
Rp46
ag10
(g14
S'\xe0P\x10\xeb,aX@'
p47
tp48
Rp49
ag10
(g14
S'\xf4\x11\xc1mGaX@'
p50
tp51
Rp52
ag10
(g14
S'69\xa7\\DaX@'
p53
tp54
Rp55
ag10
(g14
S'\x0b\xf0\x02eLaX@'
p56
tp57
Rp58
ag10
(g14
S'x\x83\xae\x00AaX@'
p59
tp60
Rp61
ag10
(g14
S'j\x1f\x88zEaX@'
p62
tp63
Rp64
ag10
(g14
S'[\x8cH\x80AaX@'
p65
tp66
Rp67
ag10
(g14
S'\xd1\xf4\x83sTaX@'
p68
tp69
Rp70
ag10
(g14
S'\xe9\xf6\x94\xdf4aX@'
p71
tp72
Rp73
ag10
(g14
S'\x04X\x1bc8aX@'
p74
tp75
Rp76
asS'target'
p77
(lp78
g10
(g14
S'3\x9d\xaf\xa2,\x8f\xeb?'
p79
tp80
Rp81
ag10
(g14
S'g\xfe|!#P\xed?'
p82
tp83
Rp84
ag10
(g14
S'\xdc\x86kS\x80\xde\xed?'
p85
tp86
Rp87
ag10
(g14
S'\xe9RR\xaeN!\xec?'
p88
tp89
Rp90
ag10
(g14
S'\xcfQJB\x9c\r\xec?'
p91
tp92
Rp93
ag10
(g14
S'\x8a\xc1\xdbB\x17)\xed?'
p94
tp95
Rp96
ag10
(g14
S'\xb7\xbc\x8df#{\xeb?'
p97
tp98
Rp99
ag10
(g14
S'y\x0e\xff\xd4\xc5\x8f\xed?'
p100
tp101
Rp102
ag10
(g14
S'\x06p\xf9\xd6=\x1d\xed?'
p103
tp104
Rp105
ag10
(g14
S'$s2s\x1b\xa6\xec?'
p106
tp107
Rp108
ag10
(g14
S'\xdc\x07\xd15\x93\xf8\xeb?'
p109
tp110
Rp111
ag10
(g14
S'c\x1b@\xb3j$\xec?'
p112
tp113
Rp114
ag10
(g14
S'\xa4Bj\x12\x82\xbe\xec?'
p115
tp116
Rp117
ag10
(g14
S'\x02#&\x0bx\x14\xeb?'
p118
tp119
Rp120
ag10
(g14
S'Ie1\rg\xfa\xea?'
p121
tp122
Rp123
ag10
(g14
S'K\xdd\x16Z\xff\x99\xec?'
p124
tp125
Rp126
ag10
(g14
S'X`\x9c\xc7\xd2\x87\xec?'
p127
tp128
Rp129
ag10
(g14
S'-\xf4\xd8"\xc1j\xec?'
p130
tp131
Rp132
ag10
(g14
S'o5\xb1@\xfc\r\xeb?'
p133
tp134
Rp135
ag10
(g14
S' \x91UJs\xd2\xeb?'
p136
tp137
Rp138
asssss.