(dp0
S'../Data/sqlite_35.csv'
p1
(dp2
S'../Data/sqlite_92.csv'
p3
(dp4
F0.05
(dp5
S'mmre'
p6
(dp7
S'bellwether'
p8
(lp9
cnumpy.core.multiarray
scalar
p10
(cnumpy
dtype
p11
(S'f8'
p12
I0
I1
tp13
Rp14
(I3
S'<'
p15
NNNI-1
I-1
I0
tp16
bS'TL<\\^\x17`@'
p17
tp18
Rp19
ag10
(g14
S'\xfe\xb8\xcc\xe4u\x15`@'
p20
tp21
Rp22
ag10
(g14
S'\xb3\xc4\xa9\x8d\xf7\x1b`@'
p23
tp24
Rp25
ag10
(g14
S'\xdfd\x10x\xc6$`@'
p26
tp27
Rp28
ag10
(g14
S'A\xe6Z\xbf\x9d*`@'
p29
tp30
Rp31
ag10
(g14
S'9\x1dE\xe7f<`@'
p32
tp33
Rp34
ag10
(g14
S'\xb8\xc5\xeb9C%`@'
p35
tp36
Rp37
ag10
(g14
S'\xd7\t.\x01\x91$`@'
p38
tp39
Rp40
ag10
(g14
S'Z\xcb\xfd\xe2\t\x13`@'
p41
tp42
Rp43
ag10
(g14
S'\xd0\xb7E~B\x17`@'
p44
tp45
Rp46
ag10
(g14
S'P\xe3I\xa3!\x15`@'
p47
tp48
Rp49
ag10
(g14
S'\xf0\x15\x14Y\xae-`@'
p50
tp51
Rp52
ag10
(g14
S'(bWE0\x14`@'
p53
tp54
Rp55
ag10
(g14
S'\x07\xd7 N\x04\r`@'
p56
tp57
Rp58
ag10
(g14
S'\xe5)\xa3\x92#!`@'
p59
tp60
Rp61
ag10
(g14
S'3QE\xa04\x15`@'
p62
tp63
Rp64
ag10
(g14
S'\xd5\xb1{\xb9^\x08`@'
p65
tp66
Rp67
ag10
(g14
S'4[\xcc\xdd\x88\x12`@'
p68
tp69
Rp70
ag10
(g14
S'\xdc\xd3\xa3L\x1e&`@'
p71
tp72
Rp73
ag10
(g14
S'\t\xb4\xa9s\xc0\x03`@'
p74
tp75
Rp76
asS'target'
p77
(lp78
g10
(g14
S'.V7\xbf`\xfdW@'
p79
tp80
Rp81
ag10
(g14
S'\xe0\x1c\xe6+j\xa8F@'
p82
tp83
Rp84
ag10
(g14
S'\xd6\x0ep8\x01\xd5W@'
p85
tp86
Rp87
ag10
(g14
S'\x88\x18\x08H~\x9dI@'
p88
tp89
Rp90
ag10
(g14
S'9\x93\x18gNse@'
p91
tp92
Rp93
ag10
(g14
S'\x10\xb4V\xff\xcd?\\@'
p94
tp95
Rp96
ag10
(g14
S'\xd7\xfd\xc3\xbf\xb8\xa5K@'
p97
tp98
Rp99
ag10
(g14
S'y__K\xe7\x0bd@'
p100
tp101
Rp102
ag10
(g14
S'\x87Kgmm\x97[@'
p103
tp104
Rp105
ag10
(g14
S'\xa9\xe9Qj \xd9K@'
p106
tp107
Rp108
ag10
(g14
S'\xd2\xe7\x11\x1cw\x1cY@'
p109
tp110
Rp111
ag10
(g14
S'\x80t\x0cU\x15\x03E@'
p112
tp113
Rp114
ag10
(g14
S"'\x9a\x8cY\xec\xbeE@"
p115
tp116
Rp117
ag10
(g14
S'\xa3\xa58\xed _G@'
p118
tp119
Rp120
ag10
(g14
S'\nO\x81\x03&\x8eF@'
p121
tp122
Rp123
ag10
(g14
S'`%\x949\xbe\xb9C@'
p124
tp125
Rp126
ag10
(g14
S'Y\xd1\xa6wU\x90T@'
p127
tp128
Rp129
ag10
(g14
S'\x88\x8f>\xb5R\x82`@'
p130
tp131
Rp132
ag10
(g14
S'\xf1E@^\xbafZ@'
p133
tp134
Rp135
ag10
(g14
S'\x1aC\xa3S\xb3\xddS@'
p136
tp137
Rp138
asssss.