(dp0
S'../Data/sqlite_4.csv'
p1
(dp2
S'../Data/sqlite_42.csv'
p3
(dp4
F0.35
(dp5
S'abs_res'
p6
(dp7
S'bellwether'
p8
(lp9
cnumpy.core.multiarray
scalar
p10
(cnumpy
dtype
p11
(S'f8'
p12
I0
I1
tp13
Rp14
(I3
S'<'
p15
NNNI-1
I-1
I0
tp16
bS'\xbd\xbb\xbb\xbb\xc8K9A'
p17
tp18
Rp19
ag10
(g14
S',iJ\x85^N9A'
p20
tp21
Rp22
ag10
(g14
S'\xbe\x9f\x1a\xcf\xb6K9A'
p23
tp24
Rp25
ag10
(g14
S'oY\xab\x03\xceM9A'
p26
tp27
Rp28
ag10
(g14
S'd.$\xcd\x06M9A'
p29
tp30
Rp31
ag10
(g14
S'\x0fX9\xb4\x11N9A'
p32
tp33
Rp34
ag10
(g14
S'Rd;\x1f,N9A'
p35
tp36
Rp37
ag10
(g14
S'|N\x1b\x88yK9A'
p38
tp39
Rp40
ag10
(g14
S'C7\x89\x01NO9A'
p41
tp42
Rp43
ag10
(g14
S'R\xf0`>pL9A'
p44
tp45
Rp46
ag10
(g14
S'&""\x02|L9A'
p47
tp48
Rp49
ag10
(g14
S'Q\x1d\x13\xbcEL9A'
p50
tp51
Rp52
ag10
(g14
S'\xcc\xbd\xe6\xa2SO9A'
p53
tp54
Rp55
ag10
(g14
S'[\xf2\x8b\xc5RM9A'
p56
tp57
Rp58
ag10
(g14
S'\x06\xe4^\xf3\x05N9A'
p59
tp60
Rp61
ag10
(g14
S'\x1a\x85\xebq\xaaM9A'
p62
tp63
Rp64
ag10
(g14
S'\xabG\xe1:\x9eL9A'
p65
tp66
Rp67
ag10
(g14
S'+$M\xa9\xacN9A'
p68
tp69
Rp70
ag10
(g14
S"'1\x08\xec\xecM9A"
p71
tp72
Rp73
ag10
(g14
S'ADDd\x1fN9A'
p74
tp75
Rp76
asS'target'
p77
(lp78
g10
(g14
S'\xb7t\x93\x18\x04fc@'
p79
tp80
Rp81
ag10
(g14
S'\x9e\x99\x99\x99\x99\xb3c@'
p82
tp83
Rp84
ag10
(g14
S'\x9f\x1a/\xdd$\xf2a@'
p85
tp86
Rp87
ag10
(g14
S'\xd0\xf7S\xe3\xa5\x91b@'
p88
tp89
Rp90
ag10
(g14
S'\xde$\x06\x81\x95[b@'
p91
tp92
Rp93
ag10
(g14
S'\xf6|?5^\xaac@'
p94
tp95
Rp96
ag10
(g14
S'\xe3$\x06\x81\x95\xb3b@'
p97
tp98
Rp99
ag10
(g14
S'\xa0\x99\x99\x99\x99Wa@'
p100
tp101
Rp102
ag10
(g14
S'\xcc"\xdb\xf9~Vb@'
p103
tp104
Rp105
ag10
(g14
S'\xd9\xce\xf7S\xe3\xcda@'
p106
tp107
Rp108
ag10
(g14
S'\xeb|?5^\xecb@'
p109
tp110
Rp111
ag10
(g14
S'\xda\xf9~j\xbc\x9ca@'
p112
tp113
Rp114
ag10
(g14
S'\x81A`\xe5\xd0(c@'
p115
tp116
Rp117
ag10
(g14
S'^\xe5\xd0"\xdbsb@'
p118
tp119
Rp120
ag10
(g14
S'\xa5\xf1\xd2Mb\x84c@'
p121
tp122
Rp123
ag10
(g14
S'\x8f\xc2\xf5(\\\x81c@'
p124
tp125
Rp126
ag10
(g14
S'\x06\x02+\x87\x16\x91b@'
p127
tp128
Rp129
ag10
(g14
S'\xa4\xf1\xd2MbDb@'
p130
tp131
Rp132
ag10
(g14
S'O\xe3\xa5\x9b\xc4\xf0b@'
p133
tp134
Rp135
ag10
(g14
S'\x08+\x87\x16\xd92b@'
p136
tp137
Rp138
asssss.