(dp0
S'../Data/sqlite_4.csv'
p1
(dp2
S'../Data/sqlite_14.csv'
p3
(dp4
F0.3
(dp5
S'abs_res'
p6
(dp7
S'bellwether'
p8
(lp9
cnumpy.core.multiarray
scalar
p10
(cnumpy
dtype
p11
(S'f8'
p12
I0
I1
tp13
Rp14
(I3
S'<'
p15
NNNI-1
I-1
I0
tp16
bS'\xed\x17K\x1ePA;A'
p17
tp18
Rp19
ag10
(g14
S'\x90\t\x1e\xac\xf7@;A'
p20
tp21
Rp22
ag10
(g14
S'W~\xb1d_?;A'
p23
tp24
Rp25
ag10
(g14
S'Mb\x10X\xdb?;A'
p26
tp27
Rp28
ag10
(g14
S'H\xe1z\xf4\x94?;A'
p29
tp30
Rp31
ag10
(g14
S'=\xd2\x94\x8a\xb4>;A'
p32
tp33
Rp34
ag10
(g14
S'\xea^s\xc1f=;A'
p35
tp36
Rp37
ag10
(g14
S'\x9a\xed|\xbf\xa6>;A'
p38
tp39
Rp40
ag10
(g14
S'\x802z\x9b.B;A'
p41
tp42
Rp43
ag10
(g14
S'\x9f\xc4 p\x19A;A'
p44
tp45
Rp46
ag10
(g14
S';\xfb\xf0YF?;A'
p47
tp48
Rp49
ag10
(g14
S'a,\xf9\xe5\xf4=;A'
p50
tp51
Rp52
ag10
(g14
S'\xf9o\x842\x07?;A'
p53
tp54
Rp55
ag10
(g14
S'\xab\rtZU?;A'
p56
tp57
Rp58
ag10
(g14
S'A\xb4\xc8\x16m?;A'
p59
tp60
Rp61
ag10
(g14
S'\x9e}\xf8\x0c\xa9=;A'
p62
tp63
Rp64
ag10
(g14
S'\x12\xca\xe8\r\x9d>;A'
p65
tp66
Rp67
ag10
(g14
S'1\\\x8fB\x19@;A'
p68
tp69
Rp70
ag10
(g14
S'\xc3\xe6B\xd2V?;A'
p71
tp72
Rp73
ag10
(g14
S'\x92\x18\x04VpB;A'
p74
tp75
Rp76
asS'target'
p77
(lp78
g10
(g14
S'^;\xdfO\x8d\x8ba@'
p79
tp80
Rp81
ag10
(g14
S'\xda"\xdb\xf9~\xeeb@'
p82
tp83
Rp84
ag10
(g14
S'\xd0\xf7S\xe3\xa5\x1fb@'
p85
tp86
Rp87
ag10
(g14
S'\x92\x18\x04V\x0e\x9da@'
p88
tp89
Rp90
ag10
(g14
S'Sb\x10X9\x92`@'
p91
tp92
Rp93
ag10
(g14
S"\x93C\x8bl\xe7'a@"
p94
tp95
Rp96
ag10
(g14
S'\xab\xf1\xd2Mb\x18a@'
p97
tp98
Rp99
ag10
(g14
S'\xb4\xc8v\xbe\x9f\xa0a@'
p100
tp101
Rp102
ag10
(g14
S'\x89\x16\xd9\xce\xf7;a@'
p103
tp104
Rp105
ag10
(g14
S'\x97C\x8bl\xe7\xc7`@'
p106
tp107
Rp108
ag10
(g14
S'\x0c-\xb2\x9d\xef\x8ba@'
p109
tp110
Rp111
ag10
(g14
S'\xbbI\x0c\x02+aa@'
p112
tp113
Rp114
ag10
(g14
S'\xaa\x1cZd;Kb@'
p115
tp116
Rp117
ag10
(g14
S'k\xe7\xfb\xa9\xf1\xb6a@'
p118
tp119
Rp120
ag10
(g14
S'\xccv\xbe\x9f\x1a\x0bb@'
p121
tp122
Rp123
ag10
(g14
S'\xec|?5^\x1ec@'
p124
tp125
Rp126
ag10
(g14
S'\xa5\xc6K7\x89\xa1b@'
p127
tp128
Rp129
ag10
(g14
S'hffff\x16a@'
p130
tp131
Rp132
ag10
(g14
S'/\xdd$\x06\x81Ma@'
p133
tp134
Rp135
ag10
(g14
S'\xa1\xef\xa7\xc6K\xf9b@'
p136
tp137
Rp138
asssss.