(dp0
S'../Data/sqlite_74.csv'
p1
(dp2
S'../Data/sqlite_93.csv'
p3
(dp4
F0.35
(dp5
S'mmre'
p6
(dp7
S'bellwether'
p8
(lp9
cnumpy.core.multiarray
scalar
p10
(cnumpy
dtype
p11
(S'f8'
p12
I0
I1
tp13
Rp14
(I3
S'<'
p15
NNNI-1
I-1
I0
tp16
bS'R\xc7\x1dx\x19\x89"A'
p17
tp18
Rp19
ag10
(g14
S'0/PG|l"A'
p20
tp21
Rp22
ag10
(g14
S'\x03\x02z\xe4\xe7\x8f"A'
p23
tp24
Rp25
ag10
(g14
S'\x13\x8d\xd2\xaf\xd3M"A'
p26
tp27
Rp28
ag10
(g14
S'\xc6\xf8<[\x0c\xae"A'
p29
tp30
Rp31
ag10
(g14
S'a\x93\x94\xedK\x88"A'
p32
tp33
Rp34
ag10
(g14
S'\xe8\nSp@q"A'
p35
tp36
Rp37
ag10
(g14
S'\x9a\xa5\xba\xd9\x14|"A'
p38
tp39
Rp40
ag10
(g14
S'_\xe2\x7fov\xa3"A'
p41
tp42
Rp43
ag10
(g14
S'\xa5\xa7\xc7>\xe2G"A'
p44
tp45
Rp46
ag10
(g14
S'-\xd1\xeb\xa7jP"A'
p47
tp48
Rp49
ag10
(g14
S'\xc2\x8f\x9bQG1"A'
p50
tp51
Rp52
ag10
(g14
S'\xa8v\xa4\x90>,"A'
p53
tp54
Rp55
ag10
(g14
S'\xf0C c\xd5f"A'
p56
tp57
Rp58
ag10
(g14
S'/\xea4GY\x9b"A'
p59
tp60
Rp61
ag10
(g14
S'\xa9\x93\t\x8a\rO"A'
p62
tp63
Rp64
ag10
(g14
S'\xff\x92\xfe#Xf"A'
p65
tp66
Rp67
ag10
(g14
S',\x84\xe2\x0f\xdaP"A'
p68
tp69
Rp70
ag10
(g14
S'\xa9)zU}{"A'
p71
tp72
Rp73
ag10
(g14
S'\x95=\'8\x10l"A'
p74
tp75
Rp76
asS'target'
p77
(lp78
g10
(g14
S'\x0e\x04\x87}\xfb0W@'
p79
tp80
Rp81
ag10
(g14
S'\xc55h\xf0C\xb0W@'
p82
tp83
Rp84
ag10
(g14
S'\xc1\x9a\xe9!\xc7^U@'
p85
tp86
Rp87
ag10
(g14
S"\xfdn(\x07\xcb'I@"
p88
tp89
Rp90
ag10
(g14
S'\x89\xbb\xddt\xb2TN@'
p91
tp92
Rp93
ag10
(g14
S'\x82\x01\xfc$DMT@'
p94
tp95
Rp96
ag10
(g14
S'6\x18\xe4\xdd\xaa\xaaU@'
p97
tp98
Rp99
ag10
(g14
S'\x955\xda`\xa0\x9fV@'
p100
tp101
Rp102
ag10
(g14
S'@\x81\xd5\x7fD\x9cT@'
p103
tp104
Rp105
ag10
(g14
S'\xf697\x82v\x9dT@'
p106
tp107
Rp108
ag10
(g14
S'\x12\xc5\xa1\xb587M@'
p109
tp110
Rp111
ag10
(g14
S'\xdd\xd0J\xdd\xe2\x8aJ@'
p112
tp113
Rp114
ag10
(g14
S'\t,\xa9\xc5\xd0\x15T@'
p115
tp116
Rp117
ag10
(g14
S'\xe2,\t\x97\xec\x87L@'
p118
tp119
Rp120
ag10
(g14
S'[027\x0e7V@'
p121
tp122
Rp123
ag10
(g14
S'\x9e{.P\x9c\xaaQ@'
p124
tp125
Rp126
ag10
(g14
S'\x83^\x0eHl\xd4P@'
p127
tp128
Rp129
ag10
(g14
S'\x7f\x82[5R\x9aS@'
p130
tp131
Rp132
ag10
(g14
S'2\x19b?\xd5\x95Q@'
p133
tp134
Rp135
ag10
(g14
S'\x0b\xce\x86\x19U\x8cU@'
p136
tp137
Rp138
asssss.