(dp0
S'../Data/sqlite_8.csv'
p1
(dp2
S'../Data/sqlite_87.csv'
p3
(dp4
F0.15
(dp5
S'mmre'
p6
(dp7
S'bellwether'
p8
(lp9
cnumpy.core.multiarray
scalar
p10
(cnumpy
dtype
p11
(S'f8'
p12
I0
I1
tp13
Rp14
(I3
S'<'
p15
NNNI-1
I-1
I0
tp16
bS'\xaf\x98\x1c\t\xd0dS@'
p17
tp18
Rp19
ag10
(g14
S'\x0f\xf4\xfbWrhS@'
p20
tp21
Rp22
ag10
(g14
S'\xe6\xcf\x03\x11TuS@'
p23
tp24
Rp25
ag10
(g14
S'\xf1\xb1{\r\xa4cS@'
p26
tp27
Rp28
ag10
(g14
S'\xfc\xb9\xb9\xf6\xc2aS@'
p29
tp30
Rp31
ag10
(g14
S'D\x82\xc1\xf2\xbedS@'
p32
tp33
Rp34
ag10
(g14
S'\x8a\t{,\xe0hS@'
p35
tp36
Rp37
ag10
(g14
S'\xb6V\xcb\xfb=`S@'
p38
tp39
Rp40
ag10
(g14
S'm\xb6\xd4~@aS@'
p41
tp42
Rp43
ag10
(g14
S'\xd5\xc2{IArS@'
p44
tp45
Rp46
ag10
(g14
S'7\xc6dN\x9buS@'
p47
tp48
Rp49
ag10
(g14
S'\xd6\xecd(\x94fS@'
p50
tp51
Rp52
ag10
(g14
S'\x9d\x8d\xf4k.fS@'
p53
tp54
Rp55
ag10
(g14
S'\xfa\xbd\x0fx\\bS@'
p56
tp57
Rp58
ag10
(g14
S'\xaby\x06$phS@'
p59
tp60
Rp61
ag10
(g14
S'\x1c\xbb/f\x01fS@'
p62
tp63
Rp64
ag10
(g14
S'0@\xbd\xcd/]S@'
p65
tp66
Rp67
ag10
(g14
S'H\xcc#q8oS@'
p68
tp69
Rp70
ag10
(g14
S'\xc1\xae\x07A\xbcmS@'
p71
tp72
Rp73
ag10
(g14
S'\xf4\xd1u\x97\xbfaS@'
p74
tp75
Rp76
asS'target'
p77
(lp78
g10
(g14
S'`1C_\x9c!Q@'
p79
tp80
Rp81
ag10
(g14
S'\x96\xb5\xec\x0e\xa2sO@'
p82
tp83
Rp84
ag10
(g14
S'\xe9V\xcdk\x141K@'
p85
tp86
Rp87
ag10
(g14
S'\xc5\x7fL2%cT@'
p88
tp89
Rp90
ag10
(g14
S'\x08\x0c\x81\xc2p=S@'
p91
tp92
Rp93
ag10
(g14
S'fN\xc1\x9b\xdd\xf0S@'
p94
tp95
Rp96
ag10
(g14
S'\x86\xa3L\xca\xaa)J@'
p97
tp98
Rp99
ag10
(g14
S'K\x03)\x11\xff\x85T@'
p100
tp101
Rp102
ag10
(g14
S'L\x12\xbeE\xa6aP@'
p103
tp104
Rp105
ag10
(g14
S'\x02\xdf\x9d\x92\x9d\x0cM@'
p106
tp107
Rp108
ag10
(g14
S'\x05G\x01\xde!RF@'
p109
tp110
Rp111
ag10
(g14
S'\xe3y\x8a\x987fL@'
p112
tp113
Rp114
ag10
(g14
S'\xf7\xa1S\xadI\xd2V@'
p115
tp116
Rp117
ag10
(g14
S'ke*\x1e\xca\x06Q@'
p118
tp119
Rp120
ag10
(g14
S':\xc3\x88=9\xf6T@'
p121
tp122
Rp123
ag10
(g14
S'g\xf7\xd1L\x87\xe5I@'
p124
tp125
Rp126
ag10
(g14
S'\xac\x0e\x91\xee\xbf\xa6Q@'
p127
tp128
Rp129
ag10
(g14
S'\x16{\xf7\xc3\xf5\x8bO@'
p130
tp131
Rp132
ag10
(g14
S',\x03\x1bTB?T@'
p133
tp134
Rp135
ag10
(g14
S'\xd1U\xa3B\xe6\xd0_@'
p136
tp137
Rp138
asssss.