(dp0
S'../Data/sqlite_41.csv'
p1
(dp2
S'../Data/sqlite_84.csv'
p3
(dp4
F0.35
(dp5
S'mmre'
p6
(dp7
S'bellwether'
p8
(lp9
cnumpy.core.multiarray
scalar
p10
(cnumpy
dtype
p11
(S'f8'
p12
I0
I1
tp13
Rp14
(I3
S'<'
p15
NNNI-1
I-1
I0
tp16
bS'Z\xe5\xe6S\x97L`@'
p17
tp18
Rp19
ag10
(g14
S'V\xe8\x1c#\xea%`@'
p20
tp21
Rp22
ag10
(g14
S'\x9d\x1c\x04`C;`@'
p23
tp24
Rp25
ag10
(g14
S'\xd6}rl\x12C`@'
p26
tp27
Rp28
ag10
(g14
S'0\x8e\xa9&\xff&`@'
p29
tp30
Rp31
ag10
(g14
S'rNf\nBM`@'
p32
tp33
Rp34
ag10
(g14
S'$\x1a\xa3\xf7\x83P`@'
p35
tp36
Rp37
ag10
(g14
S'1\xe7[\x02;]`@'
p38
tp39
Rp40
ag10
(g14
S'\xd5\xdaU\xa6\x04\x18`@'
p41
tp42
Rp43
ag10
(g14
S'j\x9a\xf6B\xa7\x15`@'
p44
tp45
Rp46
ag10
(g14
S'\x90\xf5\x1fBHR`@'
p47
tp48
Rp49
ag10
(g14
S'\xfb\xb4G\xd0y[`@'
p50
tp51
Rp52
ag10
(g14
S'1F\xe5k\xaa\r`@'
p53
tp54
Rp55
ag10
(g14
S'j=y\xb6\xe6N`@'
p56
tp57
Rp58
ag10
(g14
S'\x83\xc7\xa3\xfexD`@'
p59
tp60
Rp61
ag10
(g14
S'\x0e\x12\xf58\x824`@'
p62
tp63
Rp64
ag10
(g14
S'*,\x10\xf6\x9dO`@'
p65
tp66
Rp67
ag10
(g14
S'\xc3X3\x08W``@'
p68
tp69
Rp70
ag10
(g14
S'\xae2\xdf0\xe8Q`@'
p71
tp72
Rp73
ag10
(g14
S'9\\M\xfb\x1f/`@'
p74
tp75
Rp76
asS'target'
p77
(lp78
g10
(g14
S'\xa6\xf4\x8e\x8c\x11DG@'
p79
tp80
Rp81
ag10
(g14
S')\xd0\xfe8\x82\xedQ@'
p82
tp83
Rp84
ag10
(g14
S'\x15\xd1{\xe9m\xe4R@'
p85
tp86
Rp87
ag10
(g14
S'h]\xb9U@\x84R@'
p88
tp89
Rp90
ag10
(g14
S'\xa8\xd2\xfaHW\xcfI@'
p91
tp92
Rp93
ag10
(g14
S'\xa5(!!/\x04Q@'
p94
tp95
Rp96
ag10
(g14
S'\x8eB.\xe1\xc3NT@'
p97
tp98
Rp99
ag10
(g14
S'\xfe\xca\x85n\x18\xa0P@'
p100
tp101
Rp102
ag10
(g14
S'\xd8V\x19\xc1\x955V@'
p103
tp104
Rp105
ag10
(g14
S'e\x90\xf8\xc0\x95gK@'
p106
tp107
Rp108
ag10
(g14
S'\xe3u!\x1b\xe0"M@'
p109
tp110
Rp111
ag10
(g14
S'\xcf:E\xfbl\x0bV@'
p112
tp113
Rp114
ag10
(g14
S'o\xc9\xb3\xf2\x9b2U@'
p115
tp116
Rp117
ag10
(g14
S'\xe1\xb4\xccg\xba8P@'
p118
tp119
Rp120
ag10
(g14
S'W\x9a\xbb!I#P@'
p121
tp122
Rp123
ag10
(g14
S'_\xcf\xaf~\xd6\xe3M@'
p124
tp125
Rp126
ag10
(g14
S'\xecJJ\xf3\xd7tU@'
p127
tp128
Rp129
ag10
(g14
S'\x08s\x88O@~O@'
p130
tp131
Rp132
ag10
(g14
S'\x9e;\x9d\xeb;\xe1K@'
p133
tp134
Rp135
ag10
(g14
S'JW;\xab\xe8vK@'
p136
tp137
Rp138
asssss.