(dp0
S'../Data/sqlite_46.csv'
p1
(dp2
S'../Data/sqlite_37.csv'
p3
(dp4
F0.3
(dp5
S'abs_res'
p6
(dp7
S'bellwether'
p8
(lp9
cnumpy.core.multiarray
scalar
p10
(cnumpy
dtype
p11
(S'f8'
p12
I0
I1
tp13
Rp14
(I3
S'<'
p15
NNNI-1
I-1
I0
tp16
bS'\xbb\xca\xa1\x85\xa5$;A'
p17
tp18
Rp19
ag10
(g14
S'\xaf\xc8v^M";A'
p20
tp21
Rp22
ag10
(g14
S'z\x14\xaeg7#;A'
p23
tp24
Rp25
ag10
(g14
S'b\x91\xed\x9cL#;A'
p26
tp27
Rp28
ag10
(g14
S'|\xc0\xca\xa1\xa6";A'
p29
tp30
Rp31
ag10
(g14
S'\r-\xb2\x9d7#;A'
p32
tp33
Rp34
ag10
(g14
S'\x15/\xdd\xa4\xaa#;A'
p35
tp36
Rp37
ag10
(g14
S'\xc0 \xb0\xf2\xa1%;A'
p38
tp39
Rp40
ag10
(g14
S'G\x0c\x02k\x93#;A'
p41
tp42
Rp43
ag10
(g14
S'\xbet\x938##;A'
p44
tp45
Rp46
ag10
(g14
S'2\xdd$\xa6M$;A'
p47
tp48
Rp49
ag10
(g14
S'vj\xbc\x94\xe9#;A'
p50
tp51
Rp52
ag10
(g14
S'M\xe1ztJ$;A'
p53
tp54
Rp55
ag10
(g14
S'\xb8\xf3\xfdtT$;A'
p56
tp57
Rp58
ag10
(g14
S'\x8dl\xe7[!";A'
p59
tp60
Rp61
ag10
(g14
S'\x08\xd7\xa3pw#;A'
p62
tp63
Rp64
ag10
(g14
S'933\xf3\xd7#;A'
p65
tp66
Rp67
ag10
(g14
S'b;\xdf\xcfi$;A'
p68
tp69
Rp70
ag10
(g14
S'\xac\xc8v\x1e\x04#;A'
p71
tp72
Rp73
ag10
(g14
S'\xab\x9d\xefG\x06$;A'
p74
tp75
Rp76
asS'target'
p77
(lp78
g10
(g14
S'%\x06\x81\x95C[L@'
p79
tp80
Rp81
ag10
(g14
S'\xd1$\x06\x81\x95\x83L@'
p82
tp83
Rp84
ag10
(g14
S'b\xbaI\x0c\x02\x83K@'
p85
tp86
Rp87
ag10
(g14
S'\xc3K7\x89A0K@'
p88
tp89
Rp90
ag10
(g14
S'%\xb0rh\x91}L@'
p91
tp92
Rp93
ag10
(g14
S'\x97\x1a/\xdd$\xb6K@'
p94
tp95
Rp96
ag10
(g14
S'\x81\xebQ\xb8\x1e%K@'
p97
tp98
Rp99
ag10
(g14
S'\xb6\xf3\xfd\xd4x\xb1I@'
p100
tp101
Rp102
ag10
(g14
S'.1\x08\xac\x1c"J@'
p103
tp104
Rp105
ag10
(g14
S'\x10\x02+\x87\x16YL@'
p106
tp107
Rp108
ag10
(g14
S'\xcbK7\x89A\x10L@'
p109
tp110
Rp111
ag10
(g14
S'6^\xbaI\x0c2L@'
p112
tp113
Rp114
ag10
(g14
S'\x8c\x18\x04V\x0e\x8dJ@'
p115
tp116
Rp117
ag10
(g14
S'\xfe\xa9\xf1\xd2M\x02L@'
p118
tp119
Rp120
ag10
(g14
S'\xb9rh\x91\xed,K@'
p121
tp122
Rp123
ag10
(g14
S't?5^\xba\xf9K@'
p124
tp125
Rp126
ag10
(g14
S'\x14/\xdd$\x06\xb1K@'
p127
tp128
Rp129
ag10
(g14
S'B\xb6\xf3\xfd\xd4\xd0K@'
p130
tp131
Rp132
ag10
(g14
S'\xb9G\xe1z\x14fJ@'
p133
tp134
Rp135
ag10
(g14
S'\xbb\x9d\xef\xa7\xc6\x9bJ@'
p136
tp137
Rp138
asssss.