(dp0
S'../Data/sqlite_43.csv'
p1
(dp2
S'../Data/sqlite_33.csv'
p3
(dp4
F0.2
(dp5
S'abs_res'
p6
(dp7
S'bellwether'
p8
(lp9
cnumpy.core.multiarray
scalar
p10
(cnumpy
dtype
p11
(S'f8'
p12
I0
I1
tp13
Rp14
(I3
S'<'
p15
NNNI-1
I-1
I0
tp16
bS'\xacrh\x11\xdcV>A'
p17
tp18
Rp19
ag10
(g14
S'1\xb4\xc8v\x00V>A'
p20
tp21
Rp22
ag10
(g14
S'\x1c\x85\xebQ\x83V>A'
p23
tp24
Rp25
ag10
(g14
S'\xe03\xec\xcaGW>A'
p26
tp27
Rp28
ag10
(g14
S'\xd6\xce\xf7\xb3\xe0U>A'
p29
tp30
Rp31
ag10
(g14
S'\x13t\xda\x80 V>A'
p32
tp33
Rp34
ag10
(g14
S'\xfd\xa9\xf12*W>A'
p35
tp36
Rp37
ag10
(g14
S'h\x91\xed|oX>A'
p38
tp39
Rp40
ag10
(g14
S'?\xfd\x1bANV>A'
p41
tp42
Rp43
ag10
(g14
S'95^\x1a\xe9U>A'
p44
tp45
Rp46
ag10
(g14
S'YUU\xf5\x98W>A'
p47
tp48
Rp49
ag10
(g14
S'\x84\x07\xf3\xc4 W>A'
p50
tp51
Rp52
ag10
(g14
S'\x1f/\xdd\xa4\xd5V>A'
p53
tp54
Rp55
ag10
(g14
S'/\x17\x92\xe6IV>A'
p56
tp57
Rp58
ag10
(g14
S'\xd9O\x8d7\xfaV>A'
p59
tp60
Rp61
ag10
(g14
S':\x89A\xc09X>A'
p62
tp63
Rp64
ag10
(g14
S'\xff*\x87\xb6\xcbU>A'
p65
tp66
Rp67
ag10
(g14
S'a\xabc"|U>A'
p68
tp69
Rp70
ag10
(g14
S'F\xe1z\x94\xefU>A'
p71
tp72
Rp73
ag10
(g14
S'\xac\xf1\xd2\xcd\xdcV>A'
p74
tp75
Rp76
asS'target'
p77
(lp78
g10
(g14
S'"\x85\xebQ\xb8VM@'
p79
tp80
Rp81
ag10
(g14
S'~\xe9&1\x08|K@'
p82
tp83
Rp84
ag10
(g14
S'&\xb0rh\x91eK@'
p85
tp86
Rp87
ag10
(g14
S'\xf8\xfd\xd4x\xe9\xb6J@'
p88
tp89
Rp90
ag10
(g14
S'\x88A`\xe5\xd0*L@'
p91
tp92
Rp93
ag10
(g14
S'\xbd\xf1\xd2Mb\xd0I@'
p94
tp95
Rp96
ag10
(g14
S'\x84\x16\xd9\xce\xf7CK@'
p97
tp98
Rp99
ag10
(g14
S'\x0b\xac\x1cZd\x03K@'
p100
tp101
Rp102
ag10
(g14
S'\xb8\xc8v\xbe\x9fJK@'
p103
tp104
Rp105
ag10
(g14
S'\x0b\x81\x95C\x8b\x9cL@'
p106
tp107
Rp108
ag10
(g14
S'\xaarh\x91\xed\xfcO@'
p109
tp110
Rp111
ag10
(g14
S'\xf5~j\xbct\xd3L@'
p112
tp113
Rp114
ag10
(g14
S'H\x8d\x97n\x12SK@'
p115
tp116
Rp117
ag10
(g14
S'!/\xdd$\x06\x89L@'
p118
tp119
Rp120
ag10
(g14
S'`\x10X9\xb4\xc8K@'
p121
tp122
Rp123
ag10
(g14
S'sj\xbct\x93\xd8L@'
p124
tp125
Rp126
ag10
(g14
S'\xd2"\xdb\xf9~JI@'
p127
tp128
Rp129
ag10
(g14
S'2\\\x8f\xc2\xf5\xd8K@'
p130
tp131
Rp132
ag10
(g14
S'@`\xe5\xd0"\x8bJ@'
p133
tp134
Rp135
ag10
(g14
S'\xdc\xcc\xcc\xcc\xcc\x8cJ@'
p136
tp137
Rp138
asssss.