(dp0
S'../Data/sqlite_36.csv'
p1
(dp2
S'../Data/sqlite_77.csv'
p3
(dp4
F0.05
(dp5
S'mmre'
p6
(dp7
S'bellwether'
p8
(lp9
cnumpy.core.multiarray
scalar
p10
(cnumpy
dtype
p11
(S'f8'
p12
I0
I1
tp13
Rp14
(I3
S'<'
p15
NNNI-1
I-1
I0
tp16
bS'\xf3-\xbd\xcd\xc2[V@'
p17
tp18
Rp19
ag10
(g14
S'Z:b\x88A[V@'
p20
tp21
Rp22
ag10
(g14
S'f\x9dL=\xd4ZV@'
p23
tp24
Rp25
ag10
(g14
S'\xe9\x18\x02\xac`]V@'
p26
tp27
Rp28
ag10
(g14
S';)5\x1f\x1f[V@'
p29
tp30
Rp31
ag10
(g14
S'\xcf\x12\x9f\xce\xb8[V@'
p32
tp33
Rp34
ag10
(g14
S'Z,\xa9\t\x08\\V@'
p35
tp36
Rp37
ag10
(g14
S'PV\x9a\xdf\r\\V@'
p38
tp39
Rp40
ag10
(g14
S'\xef\x8b\xaa\xffz[V@'
p41
tp42
Rp43
ag10
(g14
S'\xe9\x91\xe3\xb1\xd5ZV@'
p44
tp45
Rp46
ag10
(g14
S'm\x8e\xad\xb5\xab[V@'
p47
tp48
Rp49
ag10
(g14
S'\\8\xdc\xc4K[V@'
p50
tp51
Rp52
ag10
(g14
S'B\xd2\xdb\xa1W\\V@'
p53
tp54
Rp55
ag10
(g14
S'\xb2?\xd6?\x83ZV@'
p56
tp57
Rp58
ag10
(g14
S'n\xe2U\xd9\x88[V@'
p59
tp60
Rp61
ag10
(g14
S'5\xdf\xe0\x85\xe0ZV@'
p62
tp63
Rp64
ag10
(g14
S'\xe6\xea\xabZ\x1a\\V@'
p65
tp66
Rp67
ag10
(g14
S'$|=\x86\xf2]V@'
p68
tp69
Rp70
ag10
(g14
S'\xc0\xfcR[\xfc[V@'
p71
tp72
Rp73
ag10
(g14
S'\xb8&O\xf37\\V@'
p74
tp75
Rp76
asS'target'
p77
(lp78
g10
(g14
S' \xe3\xfdj]l4@'
p79
tp80
Rp81
ag10
(g14
S'\t\x9c\xa9\xa5\xcb\xc86@'
p82
tp83
Rp84
ag10
(g14
S'\x99\t\xb5ua)5@'
p85
tp86
Rp87
ag10
(g14
S'\xd38\xd8xt\x0e5@'
p88
tp89
Rp90
ag10
(g14
S'\x88\xf5\t\xc7AG9@'
p91
tp92
Rp93
ag10
(g14
S'Q6=\xf5\xed15@'
p94
tp95
Rp96
ag10
(g14
S'"\xe1\x83\xe8N\xc04@'
p97
tp98
Rp99
ag10
(g14
S'Q]l}\xcf}:@'
p100
tp101
Rp102
ag10
(g14
S'e\xfez=\xf9:4@'
p103
tp104
Rp105
ag10
(g14
S'8m~\xc1\xb9m8@'
p106
tp107
Rp108
ag10
(g14
S'\xfce\x95\xe4\x85P7@'
p109
tp110
Rp111
ag10
(g14
S'*\xe5K\xaeCf6@'
p112
tp113
Rp114
ag10
(g14
S'\x16\xde\x10\xb2kj4@'
p115
tp116
Rp117
ag10
(g14
S'\xb6u*)\xe9\x957@'
p118
tp119
Rp120
ag10
(g14
S'`\x04\xe2\xb4\xdba7@'
p121
tp122
Rp123
ag10
(g14
S'6#\xbbb\xe4+8@'
p124
tp125
Rp126
ag10
(g14
S'\x8c\xc3\xe1K\xd3\x9d7@'
p127
tp128
Rp129
ag10
(g14
S'\x98\xd4P\xd0\x9b\xd74@'
p130
tp131
Rp132
ag10
(g14
S'eL8\xd8\xd3\xd27@'
p133
tp134
Rp135
ag10
(g14
S'\x01{\x06\x1b$\x003@'
p136
tp137
Rp138
asssss.