(dp0
S'../Data/sqlite_67.csv'
p1
(dp2
S'../Data/sqlite_85.csv'
p3
(dp4
F0.3
(dp5
S'mmre'
p6
(dp7
S'bellwether'
p8
(lp9
cnumpy.core.multiarray
scalar
p10
(cnumpy
dtype
p11
(S'f8'
p12
I0
I1
tp13
Rp14
(I3
S'<'
p15
NNNI-1
I-1
I0
tp16
bS'\xa0r\x92\x86\xf0RU@'
p17
tp18
Rp19
ag10
(g14
S'r\x0f\x9e\xdb\xf3DU@'
p20
tp21
Rp22
ag10
(g14
S'\xbb\xf6b\xb6BSU@'
p23
tp24
Rp25
ag10
(g14
S'L\xdc;Q\xcaVU@'
p26
tp27
Rp28
ag10
(g14
S'\x94\xef\xb8~\xf6UU@'
p29
tp30
Rp31
ag10
(g14
S'\xe9B\xfd?-jU@'
p32
tp33
Rp34
ag10
(g14
S'\xd3\xc9=\xbe\xcesU@'
p35
tp36
Rp37
ag10
(g14
S'\x9a\x0b>_\xb9fU@'
p38
tp39
Rp40
ag10
(g14
S'E\xa0\x8ah~wU@'
p41
tp42
Rp43
ag10
(g14
S'Q\xc5\xe1Om2U@'
p44
tp45
Rp46
ag10
(g14
S'N\xfa\x1b\xa39jU@'
p47
tp48
Rp49
ag10
(g14
S'\x1b+U\xd7"_U@'
p50
tp51
Rp52
ag10
(g14
S'\xb0\xbanT\x1agU@'
p53
tp54
Rp55
ag10
(g14
S'\xb2>\xb6\x99\x0chU@'
p56
tp57
Rp58
ag10
(g14
S'r\xa1\x13\x8d\x84`U@'
p59
tp60
Rp61
ag10
(g14
S"'a\x1a\xc5\x92NU@"
p62
tp63
Rp64
ag10
(g14
S'\xe0\x18\xbf\xa2rSU@'
p65
tp66
Rp67
ag10
(g14
S'\xb34\xe6v7eU@'
p68
tp69
Rp70
ag10
(g14
S'\x87:\r}\xe0_U@'
p71
tp72
Rp73
ag10
(g14
S'v\x1d\xfcXJNU@'
p74
tp75
Rp76
asS'target'
p77
(lp78
g10
(g14
S'\x10\xe0\xbfD\xc1\x91S@'
p79
tp80
Rp81
ag10
(g14
S'B\xe5\xd9\xad!gT@'
p82
tp83
Rp84
ag10
(g14
S'\x17\xb2\xab\xa9\x17\xfeT@'
p85
tp86
Rp87
ag10
(g14
S'\x8eW8\xfd\xee7T@'
p88
tp89
Rp90
ag10
(g14
S'dJ4\xaf[\xfaS@'
p91
tp92
Rp93
ag10
(g14
S'\xeb\xbe\xf7\x99r<R@'
p94
tp95
Rp96
ag10
(g14
S'!OBh\xbd\x0bQ@'
p97
tp98
Rp99
ag10
(g14
S'w)dg\xd1sR@'
p100
tp101
Rp102
ag10
(g14
S'\xc9z\xd8q\xbd\xfcQ@'
p103
tp104
Rp105
ag10
(g14
S'?\xfd\x85\xdf\xe0\xbdT@'
p106
tp107
Rp108
ag10
(g14
S'\xf0?\xe8\x00T>S@'
p109
tp110
Rp111
ag10
(g14
S'1\xe9\xcb\xac\x1e\xabT@'
p112
tp113
Rp114
ag10
(g14
S'=\xac\xd7:\xd7\x01S@'
p115
tp116
Rp117
ag10
(g14
S'\x97\xf8\xddU#"T@'
p118
tp119
Rp120
ag10
(g14
S'TI\xbd\xff\x08MU@'
p121
tp122
Rp123
ag10
(g14
S'\xf3\x93.\xff\xd0aU@'
p124
tp125
Rp126
ag10
(g14
S'dh\x9b}dXT@'
p127
tp128
Rp129
ag10
(g14
S'\xa7\x17\xe6\n\xd1\x17R@'
p130
tp131
Rp132
ag10
(g14
S'\xa0\xc2\x11\x16*FT@'
p133
tp134
Rp135
ag10
(g14
S'X\x19\xb3I\xc5KS@'
p136
tp137
Rp138
asssss.