(dp0
S'../Data/sqlite_57.csv'
p1
(dp2
S'../Data/sqlite_47.csv'
p3
(dp4
F0.1
(dp5
S'abs_res'
p6
(dp7
S'bellwether'
p8
(lp9
cnumpy.core.multiarray
scalar
p10
(cnumpy
dtype
p11
(S'f8'
p12
I0
I1
tp13
Rp14
(I3
S'<'
p15
NNNI-1
I-1
I0
tp16
bS'\x86\x95C\xab\xa10jA'
p17
tp18
Rp19
ag10
(g14
S'Q\x8d\x97\x8e\xa8(jA'
p20
tp21
Rp22
ag10
(g14
S'+\x06\x81\x15\x151jA'
p23
tp24
Rp25
ag10
(g14
S'\x0b\xaeGi\t,jA'
p26
tp27
Rp28
ag10
(g14
S'\xcb \xb0v}2jA'
p29
tp30
Rp31
ag10
(g14
S'\xc4 \xb0^b,jA'
p32
tp33
Rp34
ag10
(g14
S'#/\xdd\xa0\xd2/jA'
p35
tp36
Rp37
ag10
(g14
S'\xce"\xdbqf7jA'
p38
tp39
Rp40
ag10
(g14
S'Vd;\xebs.jA'
p41
tp42
Rp43
ag10
(g14
S'\x87\xebQ\xfcP+jA'
p44
tp45
Rp46
ag10
(g14
S'E`\xe5\x88\xdf+jA'
p47
tp48
Rp49
ag10
(g14
S'\xd2\xa1En\xa60jA'
p50
tp51
Rp52
ag10
(g14
S"t=\no\xc1'jA"
p53
tp54
Rp55
ag10
(g14
S'<^\xba1S6jA'
p56
tp57
Rp58
ag10
(g14
S'\x15\x83\xc0\xce/3jA'
p59
tp60
Rp61
ag10
(g14
S'p\x93\x18\xfc\x0c,jA'
p62
tp63
Rp64
ag10
(g14
S'6\xdd$\xae\x192jA'
p65
tp66
Rp67
ag10
(g14
S'\x0c\xd5x\x81\x1a1jA'
p68
tp69
Rp70
ag10
(g14
S'\x04\xd5x\xc5\xf46jA'
p71
tp72
Rp73
ag10
(g14
S'\x90\xc2\xf5\x10\xbf/jA'
p74
tp75
Rp76
asS'target'
p77
(lp78
g10
(g14
S'\xcd"\xdb\xf9~*]@'
p79
tp80
Rp81
ag10
(g14
S'~l\xe7\xfb\xa9\t[@'
p82
tp83
Rp84
ag10
(g14
S'\x08-\xb2\x9d\xef\x8fa@'
p85
tp86
Rp87
ag10
(g14
S'\xb5\x9f\x1a/\xdd\xe4Z@'
p88
tp89
Rp90
ag10
(g14
S'N\xe3\xa5\x9b\xc4<`@'
p91
tp92
Rp93
ag10
(g14
S'\xc9v\xbe\x9f\x1aO]@'
p94
tp95
Rp96
ag10
(g14
S'\xa0n\x12\x83\xc0\xca^@'
p97
tp98
Rp99
ag10
(g14
S'X\xe5\xd0"\xdbi[@'
p100
tp101
Rp102
ag10
(g14
S'<\x8bl\xe7\xfb\xd1Z@'
p103
tp104
Rp105
ag10
(g14
S'8\x89A`\xe5\xa4`@'
p106
tp107
Rp108
ag10
(g14
S'B`\xe5\xd0";]@'
p109
tp110
Rp111
ag10
(g14
S'tj\xbct\x93\x88[@'
p112
tp113
Rp114
ag10
(g14
S'\xe0&1\x08\xact\\@'
p115
tp116
Rp117
ag10
(g14
S'Y\xb8\x1e\x85\xeb\xc9[@'
p118
tp119
Rp120
ag10
(g14
S'\xf2\xd2Mb\x10\xc8]@'
p121
tp122
Rp123
ag10
(g14
S'\xd6"\xdb\xf9~B\\@'
p124
tp125
Rp126
ag10
(g14
S'\xdc\xf9~j\xbc\x14\\@'
p127
tp128
Rp129
ag10
(g14
S'\x89\x18\x04V\x0e\xf5Z@'
p130
tp131
Rp132
ag10
(g14
S'\x8d\xed|?5V^@'
p133
tp134
Rp135
ag10
(g14
S'\\9\xb4\xc8v\xb6]@'
p136
tp137
Rp138
asssss.