(dp0
S'../Data/sqlite_4.csv'
p1
(dp2
S'../Data/sqlite_34.csv'
p3
(dp4
F0.35
(dp5
S'abs_res'
p6
(dp7
S'bellwether'
p8
(lp9
cnumpy.core.multiarray
scalar
p10
(cnumpy
dtype
p11
(S'f8'
p12
I0
I1
tp13
Rp14
(I3
S'<'
p15
NNNI-1
I-1
I0
tp16
bS'\xad\x1cZ$\xa149A'
p17
tp18
Rp19
ag10
(g14
S'x[\xd6*v59A'
p20
tp21
Rp22
ag10
(g14
S'\xdc@\xa7M\x9a49A'
p23
tp24
Rp25
ag10
(g14
S'\xe1\xdd\xdd\x9d\x1c39A'
p26
tp27
Rp28
ag10
(g14
S'\xae\xb9\x90t\xab59A'
p29
tp30
Rp31
ag10
(g14
S'.\x06\x815\x9d59A'
p32
tp33
Rp34
ag10
(g14
S'`\x01ro\xab59A'
p35
tp36
Rp37
ag10
(g14
S'\xc9/\x96\\@49A'
p38
tp39
Rp40
ag10
(g14
S'\x86\xc0\xca\x01\xa259A'
p41
tp42
Rp43
ag10
(g14
S'd;\xdf/\x9e59A'
p44
tp45
Rp46
ag10
(g14
S'~\xdck\x8e+39A'
p47
tp48
Rp49
ag10
(g14
S'-kuL\t59A'
p50
tp51
Rp52
ag10
(g14
S'\xd3Mb\x10259A'
p53
tp54
Rp55
ag10
(g14
S'q\xaf\xb9\xf0\xca49A'
p56
tp57
Rp58
ag10
(g14
S'\x80#\x941`59A'
p59
tp60
Rp61
ag10
(g14
S'\xca\xca\xa1\xa5c59A'
p62
tp63
Rp64
ag10
(g14
S'e,\xf9\xa5O59A'
p65
tp66
Rp67
ag10
(g14
S'E\xfd\x1b\x81\x1169A'
p68
tp69
Rp70
ag10
(g14
S']\x01r\xef\x8d39A'
p71
tp72
Rp73
ag10
(g14
S'\xe9&1h\x9749A'
p74
tp75
Rp76
asS'target'
p77
(lp78
g10
(g14
S'\x14\xaeG\xe1z\xbcf@'
p79
tp80
Rp81
ag10
(g14
S'\xb0\xc8v\xbe\x9f\x1ah@'
p82
tp83
Rp84
ag10
(g14
S'\x13\xd9\xce\xf7S\xa7e@'
p85
tp86
Rp87
ag10
(g14
S'\xc5K7\x89A\x16f@'
p88
tp89
Rp90
ag10
(g14
S'\x1bZd;\xdfKg@'
p91
tp92
Rp93
ag10
(g14
S'\x1a\x06\x81\x95C3h@'
p94
tp95
Rp96
ag10
(g14
S'\x9cp=\n\xd7\xc3f@'
p97
tp98
Rp99
ag10
(g14
S'`\xe5\xd0"\xdb\xc9e@'
p100
tp101
Rp102
ag10
(g14
S'd\xbct\x93\x182h@'
p103
tp104
Rp105
ag10
(g14
S'\x0f\xaeG\xe1z\x90e@'
p106
tp107
Rp108
ag10
(g14
S'U\x8f\xc2\xf5(@f@'
p109
tp110
Rp111
ag10
(g14
S'\xb8\x1e\x85\xebQ,g@'
p112
tp113
Rp114
ag10
(g14
S'\x11X9\xb4\xc8\x86d@'
p115
tp116
Rp117
ag10
(g14
S'\x8e\xef\xa7\xc6K\x1bg@'
p118
tp119
Rp120
ag10
(g14
S'b;\xdfO\x8dce@'
p121
tp122
Rp123
ag10
(g14
S'1\xb4\xc8v\xbe\xd7e@'
p124
tp125
Rp126
ag10
(g14
S'\x14X9\xb4\xc8Jg@'
p127
tp128
Rp129
ag10
(g14
S'bffff\x04f@'
p130
tp131
Rp132
ag10
(g14
S'\xc6\xca\xa1E\xb6\xdfg@'
p133
tp134
Rp135
ag10
(g14
S'\t\xac\x1cZd\xd5d@'
p136
tp137
Rp138
asssss.