(dp0
S'../Data/sqlite_44.csv'
p1
(dp2
S'../Data/sqlite_59.csv'
p3
(dp4
F0.1
(dp5
S'mmre'
p6
(dp7
S'bellwether'
p8
(lp9
cnumpy.core.multiarray
scalar
p10
(cnumpy
dtype
p11
(S'f8'
p12
I0
I1
tp13
Rp14
(I3
S'<'
p15
NNNI-1
I-1
I0
tp16
bS'A]N{\x96TU@'
p17
tp18
Rp19
ag10
(g14
S'\xe6?D\x037UU@'
p20
tp21
Rp22
ag10
(g14
S'\xf3\\%\x9c3VU@'
p23
tp24
Rp25
ag10
(g14
S'\x00t}S\xe2TU@'
p26
tp27
Rp28
ag10
(g14
S',s\x0b|\xe8SU@'
p29
tp30
Rp31
ag10
(g14
S'\x0b>\xcf\xe0\xa4TU@'
p32
tp33
Rp34
ag10
(g14
S'b\xe3-Z\x90UU@'
p35
tp36
Rp37
ag10
(g14
S'\xc5L\xd4\x86SSU@'
p38
tp39
Rp40
ag10
(g14
S')5\xc8\x99\xbcUU@'
p41
tp42
Rp43
ag10
(g14
S'*|8M:TU@'
p44
tp45
Rp46
ag10
(g14
S'\x1d\xc9\xcf\x967TU@'
p47
tp48
Rp49
ag10
(g14
S'\xb9\x96\xc9\xea(UU@'
p50
tp51
Rp52
ag10
(g14
S'[eL?\xe6SU@'
p53
tp54
Rp55
ag10
(g14
S'\x89\x83Q\xc8}UU@'
p56
tp57
Rp58
ag10
(g14
S'I\xc2\x81w\x17WU@'
p59
tp60
Rp61
ag10
(g14
S'\xca\x05\x9d\n\x96UU@'
p62
tp63
Rp64
ag10
(g14
S'#]\xf1\x1a\x00TU@'
p65
tp66
Rp67
ag10
(g14
S'\t\xa1v\xb5ZUU@'
p68
tp69
Rp70
ag10
(g14
S'E\xc4\xcb3\x97SU@'
p71
tp72
Rp73
ag10
(g14
S'\x83\x11\x9f\xd2\xd4UU@'
p74
tp75
Rp76
asS'target'
p77
(lp78
g10
(g14
S'bt7\xe3\x8d\xb0&@'
p79
tp80
Rp81
ag10
(g14
S'\x9b-\x15\xd9\x8c,$@'
p82
tp83
Rp84
ag10
(g14
S'\x8b\x86\x80\xec-\x85&@'
p85
tp86
Rp87
ag10
(g14
S'&a\xf2\x18\xc9\xec)@'
p88
tp89
Rp90
ag10
(g14
S'`\xa8=+\xf6`)@'
p91
tp92
Rp93
ag10
(g14
S'm;kb\x12q%@'
p94
tp95
Rp96
ag10
(g14
S'\xb1\x01\xf4L\xc3\xb5%@'
p97
tp98
Rp99
ag10
(g14
S'-\x93\x1f!\xea>)@'
p100
tp101
Rp102
ag10
(g14
S'y\xda0<-c#@'
p103
tp104
Rp105
ag10
(g14
S'\xbe\xe8\x9e\xce\xa4\xaa&@'
p106
tp107
Rp108
ag10
(g14
S'\xb1\x9c\x13\xc8\xec\x19(@'
p109
tp110
Rp111
ag10
(g14
S'\xb5\x83j\xf1^@&@'
p112
tp113
Rp114
ag10
(g14
S'\x87\xe7\xbb\x80y\xa4$@'
p115
tp116
Rp117
ag10
(g14
S'$\xeb#\x10\xd7\xcd$@'
p118
tp119
Rp120
ag10
(g14
S'\xb05ds\x14\x1f$@'
p121
tp122
Rp123
ag10
(g14
S'h\xd6IsYB$@'
p124
tp125
Rp126
ag10
(g14
S"\xab\xcb\xa6T\x92 '@"
p127
tp128
Rp129
ag10
(g14
S'\xab\x9bK!$\xda$@'
p130
tp131
Rp132
ag10
(g14
S"\xd7)\x8aX\xb5''@"
p133
tp134
Rp135
ag10
(g14
S',\xe6^\x08\xfa\x8e$@'
p136
tp137
Rp138
asssss.