(dp0
S'../Data/sqlite_73.csv'
p1
(dp2
S'../Data/sqlite_94.csv'
p3
(dp4
F0.05
(dp5
S'mmre'
p6
(dp7
S'bellwether'
p8
(lp9
cnumpy.core.multiarray
scalar
p10
(cnumpy
dtype
p11
(S'f8'
p12
I0
I1
tp13
Rp14
(I3
S'<'
p15
NNNI-1
I-1
I0
tp16
bS'1k0\xd6\xd4gW@'
p17
tp18
Rp19
ag10
(g14
S'\x1f\xd6\xe1\xee\xfeiW@'
p20
tp21
Rp22
ag10
(g14
S'\xeb^C>UgW@'
p23
tp24
Rp25
ag10
(g14
S'pg\x84]wiW@'
p26
tp27
Rp28
ag10
(g14
S'Q\xf5D\x98\xb2fW@'
p29
tp30
Rp31
ag10
(g14
S'N\xdbb\x9f\xa8hW@'
p32
tp33
Rp34
ag10
(g14
S'\x9e\x8b\x1b\xdd\x8cgW@'
p35
tp36
Rp37
ag10
(g14
S'\x96C\xe1\x16\xa6fW@'
p38
tp39
Rp40
ag10
(g14
S'\x07\xa3$\x15\xc5gW@'
p41
tp42
Rp43
ag10
(g14
S'C$\x99D\x04hW@'
p44
tp45
Rp46
ag10
(g14
S"\x0f)'\xe9\xe1iW@"
p47
tp48
Rp49
ag10
(g14
S'\xca\xb9\xae\xd7\x12hW@'
p50
tp51
Rp52
ag10
(g14
S'ec\xce\xe4\xc3fW@'
p53
tp54
Rp55
ag10
(g14
S'/\x14\x8fK\xf3fW@'
p56
tp57
Rp58
ag10
(g14
S' \xe9\xf6\xa9_hW@'
p59
tp60
Rp61
ag10
(g14
S'\xa8:a&\xf5gW@'
p62
tp63
Rp64
ag10
(g14
S'HLi)\xa9gW@'
p65
tp66
Rp67
ag10
(g14
S"'ro\xfbYhW@"
p68
tp69
Rp70
ag10
(g14
S'{{\x9a\xa4\xd0hW@'
p71
tp72
Rp73
ag10
(g14
S'\xac\xa8\xfej\x9dhW@'
p74
tp75
Rp76
asS'target'
p77
(lp78
g10
(g14
S'\x8d\x08\xc8\x0b\x8b\xedW@'
p79
tp80
Rp81
ag10
(g14
S' \xf1\xe1\xb2bIC@'
p82
tp83
Rp84
ag10
(g14
S'\xf6\x02\xa2V#\x1aV@'
p85
tp86
Rp87
ag10
(g14
S"\xf3#'\x03_\x0b?@"
p88
tp89
Rp90
ag10
(g14
S'??\x1c\x0c\xed\xb2Z@'
p91
tp92
Rp93
ag10
(g14
S'|]}\xe5\xb5$B@'
p94
tp95
Rp96
ag10
(g14
S'\x0f?B\x02\x9e\xe9C@'
p97
tp98
Rp99
ag10
(g14
S'\x96\x9e\xd6\x86eqS@'
p100
tp101
Rp102
ag10
(g14
S'i\xc4\xe5\x1ep[S@'
p103
tp104
Rp105
ag10
(g14
S'\xae\x80a6q\xe1S@'
p106
tp107
Rp108
ag10
(g14
S'\n\x80\xf5a\xae\xfd<@'
p109
tp110
Rp111
ag10
(g14
S'x\xcczN"\x1cU@'
p112
tp113
Rp114
ag10
(g14
S'8\x15\xad4CfX@'
p115
tp116
Rp117
ag10
(g14
S'\xc6g\xad\xb0lcP@'
p118
tp119
Rp120
ag10
(g14
S'\xdc\x18\x90\xa1\tVD@'
p121
tp122
Rp123
ag10
(g14
S'F\x1b\xa0\xf20\xc8S@'
p124
tp125
Rp126
ag10
(g14
S'\x19\xf3\xee\xda\x0bf@@'
p127
tp128
Rp129
ag10
(g14
S'\xf6\xb5\xd0\x93q\xccT@'
p130
tp131
Rp132
ag10
(g14
S'D\xec\xbd\xc1\x1f8X@'
p133
tp134
Rp135
ag10
(g14
S'\xb3\x86\xdd1\xa0aV@'
p136
tp137
Rp138
asssss.