(dp0
S'../Data/sqlite_46.csv'
p1
(dp2
S'../Data/sqlite_64.csv'
p3
(dp4
F0.15
(dp5
S'abs_res'
p6
(dp7
S'bellwether'
p8
(lp9
cnumpy.core.multiarray
scalar
p10
(cnumpy
dtype
p11
(S'f8'
p12
I0
I1
tp13
Rp14
(I3
S'<'
p15
NNNI-1
I-1
I0
tp16
bS'\x19\xd9\xce\xc7ik@A'
p17
tp18
Rp19
ag10
(g14
S'u\x93\x18D\xeej@A'
p20
tp21
Rp22
ag10
(g14
S'\xe4\xd0"\xfb\xf3j@A'
p23
tp24
Rp25
ag10
(g14
S'd\xbaI\xec\xcbj@A'
p26
tp27
Rp28
ag10
(g14
S'\x06\xd7\xa30\x1cl@A'
p29
tp30
Rp31
ag10
(g14
S'\xb2\xc8v\xaeRk@A'
p32
tp33
Rp34
ag10
(g14
S'\x08\xd7\xa3@dk@A'
p35
tp36
Rp37
ag10
(g14
S'\x89\xebQ(pk@A'
p38
tp39
Rp40
ag10
(g14
S'%\\\x8fr\xd3k@A'
p41
tp42
Rp43
ag10
(g14
S'oh\x91]\x18k@A'
p44
tp45
Rp46
ag10
(g14
S'\x08-\xb2\xdd5k@A'
p47
tp48
Rp49
ag10
(g14
S'\x8e\x97n\xe2\rl@A'
p50
tp51
Rp52
ag10
(g14
S'\xbf \xb0\x82ck@A'
p53
tp54
Rp55
ag10
(g14
S'a;\xdf\x1f]k@A'
p56
tp57
Rp58
ag10
(g14
S'y?5~\x8aj@A'
p59
tp60
Rp61
ag10
(g14
S'\xfa\xd4xy\xd1j@A'
p62
tp63
Rp64
ag10
(g14
S'\xe5\xd0"\x9b(k@A'
p65
tp66
Rp67
ag10
(g14
S'Zd;\xcf\xf2j@A'
p68
tp69
Rp70
ag10
(g14
S'\xe1O\x8d\x87\xa5k@A'
p71
tp72
Rp73
ag10
(g14
S'F\x0c\x02k\xcfk@A'
p74
tp75
Rp76
asS'target'
p77
(lp78
g10
(g14
S'a\xbaI\x0c\x02\xbaz@'
p79
tp80
Rp81
ag10
(g14
S'\xf6\xd4x\xe9&/|@'
p82
tp83
Rp84
ag10
(g14
S'\xb5\xf3\xfd\xd4x9x@'
p85
tp86
Rp87
ag10
(g14
S'A\x89A`\xe5\x86w@'
p88
tp89
Rp90
ag10
(g14
S'^\x8f\xc2\xf5(jw@'
p91
tp92
Rp93
ag10
(g14
S'(\xb0rh\x91\x17x@'
p94
tp95
Rp96
ag10
(g14
S'\x92\xc4 \xb0r\xd6x@'
p97
tp98
Rp99
ag10
(g14
S':`\xe5\xd0"\xddx@'
p100
tp101
Rp102
ag10
(g14
S'\xf2(\\\x8f\xc2\xafu@'
p103
tp104
Rp105
ag10
(g14
S'\xb8t\x93\x18\x04(y@'
p106
tp107
Rp108
ag10
(g14
S'\xcc\xf5(\\\x8f\ty@'
p109
tp110
Rp111
ag10
(g14
S'\xfb~j\xbctK{@'
p112
tp113
Rp114
ag10
(g14
S'%\x06\x81\x95CAx@'
p115
tp116
Rp117
ag10
(g14
S'6\x89A`\xe5\xd6u@'
p118
tp119
Rp120
ag10
(g14
S'\x07\x02+\x87\x16\x8fx@'
p121
tp122
Rp123
ag10
(g14
S't\x93\x18\x04V`w@'
p124
tp125
Rp126
ag10
(g14
S'mh\x91\xed|Iw@'
p127
tp128
Rp129
ag10
(g14
S'+\x08\xac\x1cZ_x@'
p130
tp131
Rp132
ag10
(g14
S'2\x89A`\xe5\x90v@'
p133
tp134
Rp135
ag10
(g14
S'\xbd\xf5(\\\x8fSw@'
p136
tp137
Rp138
asssss.