(dp0
S'../Data/sqlite_67.csv'
p1
(dp2
S'../Data/sqlite_85.csv'
p3
(dp4
F0.15
(dp5
S'mmre'
p6
(dp7
S'bellwether'
p8
(lp9
cnumpy.core.multiarray
scalar
p10
(cnumpy
dtype
p11
(S'f8'
p12
I0
I1
tp13
Rp14
(I3
S'<'
p15
NNNI-1
I-1
I0
tp16
bS'\xd7x\x86O\xb5sU@'
p17
tp18
Rp19
ag10
(g14
S'\xb4\xf3\x93\xc9\x1eeU@'
p20
tp21
Rp22
ag10
(g14
S'\xdcm\xd1\x02\x9bVU@'
p23
tp24
Rp25
ag10
(g14
S'\xe2\x91\xa7V~_U@'
p26
tp27
Rp28
ag10
(g14
S'\xb3\x9a*\r\xe6dU@'
p29
tp30
Rp31
ag10
(g14
S'\xd3o\xbc\xdc\xfaKU@'
p32
tp33
Rp34
ag10
(g14
S'M5\xb2?\xf3_U@'
p35
tp36
Rp37
ag10
(g14
S"\xf5]\xd7\xd0'JU@"
p38
tp39
Rp40
ag10
(g14
S'7\x00\x8a\xefnpU@'
p41
tp42
Rp43
ag10
(g14
S'\xf6\xe4\xf9\xb9\xf6^U@'
p44
tp45
Rp46
ag10
(g14
S'(\xec\xa9\xd9\xb5;U@'
p47
tp48
Rp49
ag10
(g14
S'WK\xf2\x90gEU@'
p50
tp51
Rp52
ag10
(g14
S'C\x81\x1c\x00\x17aU@'
p53
tp54
Rp55
ag10
(g14
S'm\xb7\xa6C\xb1QU@'
p56
tp57
Rp58
ag10
(g14
S'9\xf80N\xc8WU@'
p59
tp60
Rp61
ag10
(g14
S'Q\xb7\xd6\x01\x99aU@'
p62
tp63
Rp64
ag10
(g14
S'b\xe0HE\xe3zU@'
p65
tp66
Rp67
ag10
(g14
S'\x10\xbd6\xbf\xf3gU@'
p68
tp69
Rp70
ag10
(g14
S'W\xc9\x1c|\x98SU@'
p71
tp72
Rp73
ag10
(g14
S'\xfa\x1c\\\x7f3mU@'
p74
tp75
Rp76
asS'target'
p77
(lp78
g10
(g14
S'*\xc1Xa\xee\xb9Q@'
p79
tp80
Rp81
ag10
(g14
S'k\xbfm3z^S@'
p82
tp83
Rp84
ag10
(g14
S'\xe9\xf9;\x98\xe9MT@'
p85
tp86
Rp87
ag10
(g14
S'\xea\t\x1dc\xd9/S@'
p88
tp89
Rp90
ag10
(g14
S'a\xd5kGvpR@'
p91
tp92
Rp93
ag10
(g14
S'o\xdb\xae\xc0\xee\xe5R@'
p94
tp95
Rp96
ag10
(g14
S'\xee#B\x9d\x95\x97S@'
p97
tp98
Rp99
ag10
(g14
S'\x05\\\x16Kl\x0eS@'
p100
tp101
Rp102
ag10
(g14
S'\xb5\xc3&6\xe1}R@'
p103
tp104
Rp105
ag10
(g14
S'dqpC\xf2\xbaR@'
p106
tp107
Rp108
ag10
(g14
S'*\xa7M\x7f\xedcT@'
p109
tp110
Rp111
ag10
(g14
S"\x9cF'\x16G\x03T@"
p112
tp113
Rp114
ag10
(g14
S'\x19*?\x1f\xb7vS@'
p115
tp116
Rp117
ag10
(g14
S'\xdd\x0b*v\xd2kS@'
p118
tp119
Rp120
ag10
(g14
S'\xd3\xb4\x1c\xde\x19\x9eS@'
p121
tp122
Rp123
ag10
(g14
S'M\x8c\x13\xddC\x99S@'
p124
tp125
Rp126
ag10
(g14
S'7u\xf3\xda>7T@'
p127
tp128
Rp129
ag10
(g14
S'\xcd\xdd\xf4\xb2l\xc5R@'
p130
tp131
Rp132
ag10
(g14
S'$`M"%\xc7U@'
p133
tp134
Rp135
ag10
(g14
S'\x89\xe14\xafy\xa5R@'
p136
tp137
Rp138
asssss.