(dp0
S'../Data/sqlite_65.csv'
p1
(dp2
S'../Data/sqlite_77.csv'
p3
(dp4
F0.3
(dp5
S'mmre'
p6
(dp7
S'bellwether'
p8
(lp9
cnumpy.core.multiarray
scalar
p10
(cnumpy
dtype
p11
(S'f8'
p12
I0
I1
tp13
Rp14
(I3
S'<'
p15
NNNI-1
I-1
I0
tp16
bS'or\xbe\xcf\x974W@'
p17
tp18
Rp19
ag10
(g14
S'\xb0h\xd3p\xfe5W@'
p20
tp21
Rp22
ag10
(g14
S'u\xdcaXT8W@'
p23
tp24
Rp25
ag10
(g14
S'\xe7\xf8\xed-\x054W@'
p26
tp27
Rp28
ag10
(g14
S'\xb7\xda\xfbhZ5W@'
p29
tp30
Rp31
ag10
(g14
S'@\xfe\xbc\xd9\x165W@'
p32
tp33
Rp34
ag10
(g14
S'\x18\xc2\x12\xfe\xc73W@'
p35
tp36
Rp37
ag10
(g14
S'\x82\xc3J\x8f\x1b2W@'
p38
tp39
Rp40
ag10
(g14
S'\xfd!\xafg\xf01W@'
p41
tp42
Rp43
ag10
(g14
S'2K\xec_b1W@'
p44
tp45
Rp46
ag10
(g14
S'\xab\xb3\x93).3W@'
p47
tp48
Rp49
ag10
(g14
S'\xa9\x95\n\xd5\xe64W@'
p50
tp51
Rp52
ag10
(g14
S'\xd9OU-[4W@'
p53
tp54
Rp55
ag10
(g14
S'\xc6\xaf\xb88\x9b5W@'
p56
tp57
Rp58
ag10
(g14
S'\x03NW\xd6\x125W@'
p59
tp60
Rp61
ag10
(g14
S'-\xa9\xe6\x95\xd62W@'
p62
tp63
Rp64
ag10
(g14
S'F\x18\xaa\xa3\x1b3W@'
p65
tp66
Rp67
ag10
(g14
S'~)\x80\x93\xd02W@'
p68
tp69
Rp70
ag10
(g14
S'\xbe\x83\xc5x!4W@'
p71
tp72
Rp73
ag10
(g14
S'Rv\x8a}(5W@'
p74
tp75
Rp76
asS'target'
p77
(lp78
g10
(g14
S'dN\xfaHCh6@'
p79
tp80
Rp81
ag10
(g14
S'\xf2\xff\x94\xf2\x9e,5@'
p82
tp83
Rp84
ag10
(g14
S'Fl\xa20\xfd\xf54@'
p85
tp86
Rp87
ag10
(g14
S'\xe8\x0e\xa5d\xdcL4@'
p88
tp89
Rp90
ag10
(g14
S'Mr\xaf\x15\xd3w6@'
p91
tp92
Rp93
ag10
(g14
S'\x86\xd9\xed9\x04\xf75@'
p94
tp95
Rp96
ag10
(g14
S'\xd7Z\x93\x01\xd1\x008@'
p97
tp98
Rp99
ag10
(g14
S'\xb7\x11*er\xd17@'
p100
tp101
Rp102
ag10
(g14
S'\x8c\xdeD\xbe\xe3[5@'
p103
tp104
Rp105
ag10
(g14
S'\x0b\x04\xf4\x14\x81\xec6@'
p106
tp107
Rp108
ag10
(g14
S'P\xcf9\n\xeeW5@'
p109
tp110
Rp111
ag10
(g14
S'4\xd0\xb2\xff\xac\x116@'
p112
tp113
Rp114
ag10
(g14
S'p\x01?\xf9\xccx5@'
p115
tp116
Rp117
ag10
(g14
S'A\xdcF\xb6\xc1o4@'
p118
tp119
Rp120
ag10
(g14
S'\xe5\x8f\x91zb\xa26@'
p121
tp122
Rp123
ag10
(g14
S'ZG\x01\xf3\xd1\xe47@'
p124
tp125
Rp126
ag10
(g14
S'Z+(\x94\xbe\xd84@'
p127
tp128
Rp129
ag10
(g14
S'\x87\x8a\n!MP7@'
p130
tp131
Rp132
ag10
(g14
S'U\xf1k$\x99p6@'
p133
tp134
Rp135
ag10
(g14
S'\xac\x9d9b\x98\x0e5@'
p136
tp137
Rp138
asssss.