(dp0
S'../Data/sqlite_36.csv'
p1
(dp2
S'../Data/sqlite_97.csv'
p3
(dp4
F0.4
(dp5
S'mmre'
p6
(dp7
S'bellwether'
p8
(lp9
cnumpy.core.multiarray
scalar
p10
(cnumpy
dtype
p11
(S'f8'
p12
I0
I1
tp13
Rp14
(I3
S'<'
p15
NNNI-1
I-1
I0
tp16
bS'\x08\xa8NcDaW@'
p17
tp18
Rp19
ag10
(g14
S'\xd5Q<\xea\xbb_W@'
p20
tp21
Rp22
ag10
(g14
S'\x9c\xad\xaag+^W@'
p23
tp24
Rp25
ag10
(g14
S'hcr\x19\xaadW@'
p26
tp27
Rp28
ag10
(g14
S'\x93\x80w2\xdd^W@'
p29
tp30
Rp31
ag10
(g14
S' \r?\x98obW@'
p32
tp33
Rp34
ag10
(g14
S'\xeb\x97\xbf6\xe7dW@'
p35
tp36
Rp37
ag10
(g14
S'\xab\xe7Cb\x11bW@'
p38
tp39
Rp40
ag10
(g14
S'\x9ey\x10\xb2TcW@'
p41
tp42
Rp43
ag10
(g14
S'9\xfb1\xe4\x82_W@'
p44
tp45
Rp46
ag10
(g14
S'rCDTq^W@'
p47
tp48
Rp49
ag10
(g14
S'h8\xe2Q\xb2bW@'
p50
tp51
Rp52
ag10
(g14
S'\x10\xbf"b\xc2dW@'
p53
tp54
Rp55
ag10
(g14
S'\xca\xe7\xe8X5cW@'
p56
tp57
Rp58
ag10
(g14
S'\xb4\x01d\xe8\x9e[W@'
p59
tp60
Rp61
ag10
(g14
S'(9R\x9c\x9fdW@'
p62
tp63
Rp64
ag10
(g14
S'\xc3\xa7\xdc\x04yaW@'
p65
tp66
Rp67
ag10
(g14
S'J\x00\xc0\xca\x16_W@'
p68
tp69
Rp70
ag10
(g14
S':\x9d\xeb\xf6\xa5`W@'
p71
tp72
Rp73
ag10
(g14
S'\x18\xc6\x19\xf7\x05`W@'
p74
tp75
Rp76
asS'target'
p77
(lp78
g10
(g14
S'3\x17\x84\xffe\xc2U@'
p79
tp80
Rp81
ag10
(g14
S'\xc5!\xbe!\x14\xabU@'
p82
tp83
Rp84
ag10
(g14
S'\x92S\xaa\x87\xc8CT@'
p85
tp86
Rp87
ag10
(g14
S'\x08.\xce\x84; V@'
p88
tp89
Rp90
ag10
(g14
S'(\xad\xd0\x15q\xa5W@'
p91
tp92
Rp93
ag10
(g14
S'\xea\xc2\x8fH\xa9\xeeG@'
p94
tp95
Rp96
ag10
(g14
S'\xda\xda\xf6\x00\xe3\x97T@'
p97
tp98
Rp99
ag10
(g14
S'A9\x7f\xafR\xc7T@'
p100
tp101
Rp102
ag10
(g14
S'\xc3\xd2\xe8qP\x8cS@'
p103
tp104
Rp105
ag10
(g14
S'ovq\xfb>\xabS@'
p106
tp107
Rp108
ag10
(g14
S'd\xd3>KG:Q@'
p109
tp110
Rp111
ag10
(g14
S'\xb1<\x15\xba\x18.Y@'
p112
tp113
Rp114
ag10
(g14
S';N\xb9\xe6\x9f6W@'
p115
tp116
Rp117
ag10
(g14
S'|qw\xae59U@'
p118
tp119
Rp120
ag10
(g14
S'\x80/\x05c\x88\x97Y@'
p121
tp122
Rp123
ag10
(g14
S'/\xa1\xf6I\x1eHN@'
p124
tp125
Rp126
ag10
(g14
S'?\xf7\xccA\xdbTR@'
p127
tp128
Rp129
ag10
(g14
S'\x99Q\xb9\xca\xfe\xc5W@'
p130
tp131
Rp132
ag10
(g14
S'\xf2\xa87\x07\xe9\x83V@'
p133
tp134
Rp135
ag10
(g14
S'\x14V\xc3]\xe96P@'
p136
tp137
Rp138
asssss.