(dp0
S'../Data/sqlite_36.csv'
p1
(dp2
S'../Data/sqlite_87.csv'
p3
(dp4
F0.4
(dp5
S'mmre'
p6
(dp7
S'bellwether'
p8
(lp9
cnumpy.core.multiarray
scalar
p10
(cnumpy
dtype
p11
(S'f8'
p12
I0
I1
tp13
Rp14
(I3
S'<'
p15
NNNI-1
I-1
I0
tp16
bS'\xea\xe6\xb6\xac\x1adT@'
p17
tp18
Rp19
ag10
(g14
S'%\x87@\xfd\xbeYT@'
p20
tp21
Rp22
ag10
(g14
S'\xe8\x94\xf0\xd1\x01cT@'
p23
tp24
Rp25
ag10
(g14
S'\xaf\xebb\xfe\xeepT@'
p26
tp27
Rp28
ag10
(g14
S'@\xbd\xe6\xc2\xd6aT@'
p29
tp30
Rp31
ag10
(g14
S'F\xaa2\xd6\x16cT@'
p32
tp33
Rp34
ag10
(g14
S'&;\x10\x11<gT@'
p35
tp36
Rp37
ag10
(g14
S'\xa6\xdfrA9wT@'
p38
tp39
Rp40
ag10
(g14
S'\xf4\xe5\xc5x5hT@'
p41
tp42
Rp43
ag10
(g14
S'\x81"\' LVT@'
p44
tp45
Rp46
ag10
(g14
S'H\x90P%\xd1rT@'
p47
tp48
Rp49
ag10
(g14
S'\xd0B\xe7\xc0{cT@'
p50
tp51
Rp52
ag10
(g14
S'Hz\xb4>AST@'
p53
tp54
Rp55
ag10
(g14
S'\xb9v\x1f\xfa\xcd`T@'
p56
tp57
Rp58
ag10
(g14
S'L\xa0\xfe\xa6#fT@'
p59
tp60
Rp61
ag10
(g14
S'-Y\xfe\xa2\x1eaT@'
p62
tp63
Rp64
ag10
(g14
S'\xc9\x91UpRnT@'
p65
tp66
Rp67
ag10
(g14
S'\x16\xaf\xde\xa5N^T@'
p68
tp69
Rp70
ag10
(g14
S'\xb3)\xeb\x0e\x8dhT@'
p71
tp72
Rp73
ag10
(g14
S'*+\x8c\xc7,_T@'
p74
tp75
Rp76
asS'target'
p77
(lp78
g10
(g14
S'z\xcfO5\xcfaQ@'
p79
tp80
Rp81
ag10
(g14
S'y\xa4\xc1v#\xcaT@'
p82
tp83
Rp84
ag10
(g14
S'\xac\x90\x14\xf6U\xd2L@'
p85
tp86
Rp87
ag10
(g14
S'\x17\xc0\xd51\x17\x81S@'
p88
tp89
Rp90
ag10
(g14
S'\xe8j\xbey)\x05Q@'
p91
tp92
Rp93
ag10
(g14
S'\xe8\xfcO\x19y\xa2K@'
p94
tp95
Rp96
ag10
(g14
S'"Km\xe8\x92xS@'
p97
tp98
Rp99
ag10
(g14
S'\x89\xf1\xc1\x07\xaf2L@'
p100
tp101
Rp102
ag10
(g14
S'\xe9|\xe7C\xdc\x89P@'
p103
tp104
Rp105
ag10
(g14
S'\\\x0cr\xe5\x15JT@'
p106
tp107
Rp108
ag10
(g14
S'\x9f\xa7nY\x97`R@'
p109
tp110
Rp111
ag10
(g14
S'w\x95\x9bP^\x97S@'
p112
tp113
Rp114
ag10
(g14
S'\xcb\xbc\xe5\xa8n\x1eQ@'
p115
tp116
Rp117
ag10
(g14
S'\xe8\xc2l~O\x8cQ@'
p118
tp119
Rp120
ag10
(g14
S'\x04\x98\xe6\x07\x1d7K@'
p121
tp122
Rp123
ag10
(g14
S'\x8a\xc7\xbbC\xaegQ@'
p124
tp125
Rp126
ag10
(g14
S'X8G\xbc\x0f,R@'
p127
tp128
Rp129
ag10
(g14
S'.\x90\xd3\xa1e\xbaM@'
p130
tp131
Rp132
ag10
(g14
S'&\xc0\xb4\x03\xdb\xb2P@'
p133
tp134
Rp135
ag10
(g14
S'(b\xe6\xe4q\rQ@'
p136
tp137
Rp138
asssss.