(dp0
S'../Data/sqlite_9.csv'
p1
(dp2
S'../Data/sqlite_78.csv'
p3
(dp4
F0.15
(dp5
S'mmre'
p6
(dp7
S'bellwether'
p8
(lp9
cnumpy.core.multiarray
scalar
p10
(cnumpy
dtype
p11
(S'f8'
p12
I0
I1
tp13
Rp14
(I3
S'<'
p15
NNNI-1
I-1
I0
tp16
bS"Jr[e'&T@"
p17
tp18
Rp19
ag10
(g14
S'\xd5\xf1PN\xd2*T@'
p20
tp21
Rp22
ag10
(g14
S's\x83?\xcf\xb3&T@'
p23
tp24
Rp25
ag10
(g14
S'\x95\xab3\xc1\xed&T@'
p26
tp27
Rp28
ag10
(g14
S'\xb6\x03\x81\x19\x7f#T@'
p29
tp30
Rp31
ag10
(g14
S's\xec"\xb9\xa1$T@'
p32
tp33
Rp34
ag10
(g14
S'*\xef\xf6\xf5!!T@'
p35
tp36
Rp37
ag10
(g14
S'6\x7fe\x9b\xb4"T@'
p38
tp39
Rp40
ag10
(g14
S'\xb7\x8e\xb4\xbbJ&T@'
p41
tp42
Rp43
ag10
(g14
S'\x91\x8cC\x8d4,T@'
p44
tp45
Rp46
ag10
(g14
S'\x9e3^\xdc)#T@'
p47
tp48
Rp49
ag10
(g14
S'\xe0\xdd$"\xff#T@'
p50
tp51
Rp52
ag10
(g14
S'\x1d\xd9\xe3YE$T@'
p53
tp54
Rp55
ag10
(g14
S'f\x93\x07=\x14 T@'
p56
tp57
Rp58
ag10
(g14
S'p\\5\x9b\xc5#T@'
p59
tp60
Rp61
ag10
(g14
S's\x8c\xe1A\xa4%T@'
p62
tp63
Rp64
ag10
(g14
S'\x9c5\xb2i\x89&T@'
p65
tp66
Rp67
ag10
(g14
S'\x95\xb7\x13\xa6\x9f&T@'
p68
tp69
Rp70
ag10
(g14
S'\xe3\xc2\x17\x1e\xee&T@'
p71
tp72
Rp73
ag10
(g14
S'&\x8f\xa3\xc9R%T@'
p74
tp75
Rp76
asS'target'
p77
(lp78
g10
(g14
S'\x89\x9cTP=?3@'
p79
tp80
Rp81
ag10
(g14
S'\xedp7\x11\xd3\xad5@'
p82
tp83
Rp84
ag10
(g14
S'\x1f\xcc~\x02Jz3@'
p85
tp86
Rp87
ag10
(g14
S'\x1b)\xca\x98,\x133@'
p88
tp89
Rp90
ag10
(g14
S'>\xe7xY,\xad3@'
p91
tp92
Rp93
ag10
(g14
S'\x1am\xb6=eN3@'
p94
tp95
Rp96
ag10
(g14
S'H{\xcdK\xd0\xdf3@'
p97
tp98
Rp99
ag10
(g14
S'\xa2s\x9a\x9f\xc6]3@'
p100
tp101
Rp102
ag10
(g14
S'Q"G\xe6\x9f\xe74@'
p103
tp104
Rp105
ag10
(g14
S'hI\xd0\x8dZ\x043@'
p106
tp107
Rp108
ag10
(g14
S'\x0f\x90x\nx\xeb3@'
p109
tp110
Rp111
ag10
(g14
S'b\xa2\xb5\xe56\xee4@'
p112
tp113
Rp114
ag10
(g14
S'\x80\xc3\xc4YO\xe53@'
p115
tp116
Rp117
ag10
(g14
S'4\x11pN\x94\xa14@'
p118
tp119
Rp120
ag10
(g14
S'\xaa\xb2\xf4\xdf\xa5I4@'
p121
tp122
Rp123
ag10
(g14
S'mo\x06\xd8\x04\xc12@'
p124
tp125
Rp126
ag10
(g14
S'\x8bi\xf7\xb6O\x872@'
p127
tp128
Rp129
ag10
(g14
S'M\x19\x1es\xe503@'
p130
tp131
Rp132
ag10
(g14
S'\n\xa0\x0f\xe2\xad\xa24@'
p133
tp134
Rp135
ag10
(g14
S'\xf3\xc3\xbb6\xd0V6@'
p136
tp137
Rp138
asssss.