(dp0
S'../Data/sqlite_54.csv'
p1
(dp2
S'../Data/sqlite_29.csv'
p3
(dp4
F0.25
(dp5
S'abs_res'
p6
(dp7
S'bellwether'
p8
(lp9
cnumpy.core.multiarray
scalar
p10
(cnumpy
dtype
p11
(S'f8'
p12
I0
I1
tp13
Rp14
(I3
S'<'
p15
NNNI-1
I-1
I0
tp16
bS'\xba\x02\xe4~R|@A'
p17
tp18
Rp19
ag10
(g14
S's!i\n\t{@A'
p20
tp21
Rp22
ag10
(g14
S'\xe8mY\xcb\xb2{@A'
p23
tp24
Rp25
ag10
(g14
S'\xc9/\x96,k{@A'
p26
tp27
Rp28
ag10
(g14
S'\x1f\x13<P\x14{@A'
p29
tp30
Rp31
ag10
(g14
S'\x16g\x1f\xce\xba{@A'
p32
tp33
Rp34
ag10
(g14
S'\x06+\x87\x0e\x96{@A'
p35
tp36
Rp37
ag10
(g14
S'\x01\x81\x95{\xe7z@A'
p38
tp39
Rp40
ag10
(g14
S'b\x82\x07\x8b_{@A'
p41
tp42
Rp43
ag10
(g14
S'>\xee5/[{@A'
p44
tp45
Rp46
ag10
(g14
S'\x8dA`\rO|@A'
p47
tp48
Rp49
ag10
(g14
S'\x9f}\xf8\xcc\x99{@A'
p50
tp51
Rp52
ag10
(g14
S'\xe8&1X\n|@A'
p53
tp54
Rp55
ag10
(g14
S'\xf1\xd2M\x8a0{@A'
p56
tp57
Rp58
ag10
(g14
S'p\xcbZ5N{@A'
p59
tp60
Rp61
ag10
(g14
S'T\x9c} \xa2{@A'
p62
tp63
Rp64
ag10
(g14
S'\x8c\xc2\xf5(:{@A'
p65
tp66
Rp67
ag10
(g14
S'g\xbct\xc3\xec{@A'
p68
tp69
Rp70
ag10
(g14
S'\x86\xa4)%\xf3{@A'
p71
tp72
Rp73
ag10
(g14
S'\xcd\xb0+\xb0\x7fz@A'
p74
tp75
Rp76
asS'target'
p77
(lp78
g10
(g14
S'bfff6\x16\xd1@'
p79
tp80
Rp81
ag10
(g14
S'-333C\x9d\xd0@'
p82
tp83
Rp84
ag10
(g14
S'lffff\xbe\xd0@'
p85
tp86
Rp87
ag10
(g14
S'\x93\x99\x99\x99Y\xc3\xd2@'
p88
tp89
Rp90
ag10
(g14
S'3333C\x81\xd2@'
p91
tp92
Rp93
ag10
(g14
S'\xfc\xff\xff\xff\x7f^\xd1@'
p94
tp95
Rp96
ag10
(g14
S'.333\xf3\x0b\xd2@'
p97
tp98
Rp99
ag10
(g14
S'afff\xb6\xa4\xd0@'
p100
tp101
Rp102
ag10
(g14
S'ifffF\xb7\xd1@'
p103
tp104
Rp105
ag10
(g14
S'\xce\xcc\xcc\xccL\x84\xd1@'
p106
tp107
Rp108
ag10
(g14
S'\x9c\x99\x99\x99Y\xa0\xd1@'
p109
tp110
Rp111
ag10
(g14
S'9333\xb3\x08\xd1@'
p112
tp113
Rp114
ag10
(g14
S'\x04\x00\x00\x00\x10q\xd0@'
p115
tp116
Rp117
ag10
(g14
S'mfffV\xc7\xd1@'
p118
tp119
Rp120
ag10
(g14
S'3333C\xba\xd1@'
p121
tp122
Rp123
ag10
(g14
S'bfff\xa6\xea\xd1@'
p124
tp125
Rp126
ag10
(g14
S'5333\x03\n\xd1@'
p127
tp128
Rp129
ag10
(g14
S'-333\x93\x9b\xd1@'
p130
tp131
Rp132
ag10
(g14
S'\x97\x99\x99\x99\x99\xcd\xd0@'
p133
tp134
Rp135
ag10
(g14
S'\x98\x99\x99\x99\x19\xd3\xd1@'
p136
tp137
Rp138
asssss.