(dp0
S'../Data/sqlite_33.csv'
p1
(dp2
S'../Data/sqlite_18.csv'
p3
(dp4
F0.4
(dp5
S'abs_res'
p6
(dp7
S'bellwether'
p8
(lp9
cnumpy.core.multiarray
scalar
p10
(cnumpy
dtype
p11
(S'f8'
p12
I0
I1
tp13
Rp14
(I3
S'<'
p15
NNNI-1
I-1
I0
tp16
bS'a\x8f\xc2%\xc4=7A'
p17
tp18
Rp19
ag10
(g14
S'M\x9c}\x88z>7A'
p20
tp21
Rp22
ag10
(g14
S'\xf0\xdf\x08%\x9f<7A'
p23
tp24
Rp25
ag10
(g14
S'Z\x9e\xa8\xff\xba;7A'
p26
tp27
Rp28
ag10
(g14
S'\xe7\xa5\x9bT\x90=7A'
p29
tp30
Rp31
ag10
(g14
S'Lo\xcbJ\xc9=7A'
p32
tp33
Rp34
ag10
(g14
S's\xaf\xb9\xc0\xab;7A'
p35
tp36
Rp37
ag10
(g14
S'5B\x19\rd=7A'
p38
tp39
Rp40
ag10
(g14
S'\x1ag\x1fN\x90>7A'
p41
tp42
Rp43
ag10
(g14
S'2z[v\xa2;7A'
p44
tp45
Rp46
ag10
(g14
S'/\\\x8f\x92\xf3=7A'
p47
tp48
Rp49
ag10
(g14
S'\xa5\x8c\xdef\xbc>7A'
p50
tp51
Rp52
ag10
(g14
S'0\x15g_s=7A'
p53
tp54
Rp55
ag10
(g14
S'\xc0\xf5(l\x96>7A'
p56
tp57
Rp58
ag10
(g14
S'\xee`\x9e\xc8\x90>7A'
p59
tp60
Rp61
ag10
(g14
S'\x96\xb5:\xd6\n?7A'
p62
tp63
Rp64
ag10
(g14
S'\xc5\xbd\xe6\x82K<7A'
p65
tp66
Rp67
ag10
(g14
S';B\x19-\x1c=7A'
p68
tp69
Rp70
ag10
(g14
S'Fo\xcb\xba\x8e>7A'
p71
tp72
Rp73
ag10
(g14
S'R*\xce\x8e\xf7=7A'
p74
tp75
Rp76
asS'target'
p77
(lp78
g10
(g14
S'BDDD\xc4\x0b\xca@'
p79
tp80
Rp81
ag10
(g14
S'mfff&\x7f\xca@'
p82
tp83
Rp84
ag10
(g14
S'\x9d\x99\x99\x99\x19\r\xca@'
p85
tp86
Rp87
ag10
(g14
S'jfff\x06\xed\xca@'
p88
tp89
Rp90
ag10
(g14
S'\x03\x00\x00\x00\x00p\xca@'
p91
tp92
Rp93
ag10
(g14
S'_fff\x86\xdb\xc8@'
p94
tp95
Rp96
ag10
(g14
S'`fff&\xaf\xcb@'
p97
tp98
Rp99
ag10
(g14
S'jffff9\xca@'
p100
tp101
Rp102
ag10
(g14
S'0333\x93\xfd\xc9@'
p103
tp104
Rp105
ag10
(g14
S'\x9b\x99\x99\x999p\xcb@'
p106
tp107
Rp108
ag10
(g14
S'3333\x93\xbb\xc9@'
p109
tp110
Rp111
ag10
(g14
S'\x00\x00\x00\x00@\xad\xc8@'
p112
tp113
Rp114
ag10
(g14
S'.333S;\xc9@'
p115
tp116
Rp117
ag10
(g14
S'\x9a\x99\x99\x99\x99\x0f\xcb@'
p118
tp119
Rp120
ag10
(g14
S'mfff\xc6\xe1\xc9@'
p121
tp122
Rp123
ag10
(g14
S'\xfc\xff\xff\xff\x7f6\xc9@'
p124
tp125
Rp126
ag10
(g14
S'8333\x13\xa4\xca@'
p127
tp128
Rp129
ag10
(g14
S'63333\xdd\xc9@'
p130
tp131
Rp132
ag10
(g14
S':333\x93\xbf\xca@'
p133
tp134
Rp135
ag10
(g14
S',333\xf3\xe4\xca@'
p136
tp137
Rp138
asssss.