(dp0
S'../Data/sqlite_90.csv'
p1
(dp2
S'../Data/sqlite_95.csv'
p3
(dp4
F0.4
(dp5
S'mmre'
p6
(dp7
S'bellwether'
p8
(lp9
cnumpy.core.multiarray
scalar
p10
(cnumpy
dtype
p11
(S'f8'
p12
I0
I1
tp13
Rp14
(I3
S'<'
p15
NNNI-1
I-1
I0
tp16
bS'\x93\xa2Fs@\x83V@'
p17
tp18
Rp19
ag10
(g14
S'D\xe1f<\xe3qV@'
p20
tp21
Rp22
ag10
(g14
S'\x9aJ\xeb\xeb\xe4|V@'
p23
tp24
Rp25
ag10
(g14
S'\xa5Es:uwV@'
p26
tp27
Rp28
ag10
(g14
S'\x067\x999B|V@'
p29
tp30
Rp31
ag10
(g14
S'\xa7 !\xe5ZyV@'
p32
tp33
Rp34
ag10
(g14
S'`\x99\xbbP\x7f~V@'
p35
tp36
Rp37
ag10
(g14
S'\xa0 \xefB\xf7sV@'
p38
tp39
Rp40
ag10
(g14
S'\x82\xfe\xb2P\xa2zV@'
p41
tp42
Rp43
ag10
(g14
S'#\xa9\xec\x0cGtV@'
p44
tp45
Rp46
ag10
(g14
S'\xf0\x8e\xf4\xf7\xc9zV@'
p47
tp48
Rp49
ag10
(g14
S'm\n1\xc2\xafpV@'
p50
tp51
Rp52
ag10
(g14
S'\xa0\xcb\xb1\x02\x10|V@'
p53
tp54
Rp55
ag10
(g14
S'7(\xc7\xf3\xbbxV@'
p56
tp57
Rp58
ag10
(g14
S';\x01a\x1b%oV@'
p59
tp60
Rp61
ag10
(g14
S'\xd5m\xe0\x9al{V@'
p62
tp63
Rp64
ag10
(g14
S'\xb0U\xfc\xfe`xV@'
p65
tp66
Rp67
ag10
(g14
S'\x10\xf4B\xe7\xe0sV@'
p68
tp69
Rp70
ag10
(g14
S'd\xd6\xfaT\x84zV@'
p71
tp72
Rp73
ag10
(g14
S'\x1a\xe8\x14 M|V@'
p74
tp75
Rp76
asS'target'
p77
(lp78
g10
(g14
S'\x97j\xce\xf8\xbf\xc5@@'
p79
tp80
Rp81
ag10
(g14
S'*\xf4A\xd2\x1a%C@'
p82
tp83
Rp84
ag10
(g14
S'\xa1@?\xd3j\x8d@@'
p85
tp86
Rp87
ag10
(g14
S'Ks\xb9g\x97>@@'
p88
tp89
Rp90
ag10
(g14
S'\xca;\xef\xa9\xdb\xfb@@'
p91
tp92
Rp93
ag10
(g14
S'\x03\xc7\xde\x15%:D@'
p94
tp95
Rp96
ag10
(g14
S'\xf0Jg\x9bF4C@'
p97
tp98
Rp99
ag10
(g14
S'%\x8f?4\xaf\xbd@@'
p100
tp101
Rp102
ag10
(g14
S'\xe15\x87\xd5M\x95B@'
p103
tp104
Rp105
ag10
(g14
S'0\xffo\x9e:\xd8A@'
p106
tp107
Rp108
ag10
(g14
S'\x10\xad\x0f\x82h\x19C@'
p109
tp110
Rp111
ag10
(g14
S'\xd8p\\\x93\xb9\x90B@'
p112
tp113
Rp114
ag10
(g14
S'\xbacJ\x07\xbb|>@'
p115
tp116
Rp117
ag10
(g14
S'%\x95e\x17\xa7\xcaB@'
p118
tp119
Rp120
ag10
(g14
S'L\xfb[n9\x17B@'
p121
tp122
Rp123
ag10
(g14
S'}z\xbc\xce\t\x17A@'
p124
tp125
Rp126
ag10
(g14
S'\xfeIK\x83?]B@'
p127
tp128
Rp129
ag10
(g14
S'\xde\xb3P^@\xc1@@'
p130
tp131
Rp132
ag10
(g14
S'\xad\x90\xe8~Z\xb8A@'
p133
tp134
Rp135
ag10
(g14
S'\x9c.\x049boA@'
p136
tp137
Rp138
asssss.