(dp0
S'../Data/sqlite_62.csv'
p1
(dp2
S'../Data/sqlite_59.csv'
p3
(dp4
F0.1
(dp5
S'mmre'
p6
(dp7
S'bellwether'
p8
(lp9
cnumpy.core.multiarray
scalar
p10
(cnumpy
dtype
p11
(S'f8'
p12
I0
I1
tp13
Rp14
(I3
S'<'
p15
NNNI-1
I-1
I0
tp16
bS'=\xf4\xab\x93Hu@@'
p17
tp18
Rp19
ag10
(g14
S'\xb6\xbf\xbfn1<@@'
p20
tp21
Rp22
ag10
(g14
S'_\xca-\x0f_>@@'
p23
tp24
Rp25
ag10
(g14
S'\xe6\xa6\r\xd7\xde_@@'
p26
tp27
Rp28
ag10
(g14
S'-\xc2f\xbd\rU@@'
p29
tp30
Rp31
ag10
(g14
S'\x85\xc2m\xcb\xdeG@@'
p32
tp33
Rp34
ag10
(g14
S'>\x01\xa4{5(@@'
p35
tp36
Rp37
ag10
(g14
S'\xd2\x0b\x13)\x0cW@@'
p38
tp39
Rp40
ag10
(g14
S'\x94B\x8a"\x82[@@'
p41
tp42
Rp43
ag10
(g14
S'\x8e\xc8l`\xe1E@@'
p44
tp45
Rp46
ag10
(g14
S'\xc6\x9f\xadp[I@@'
p47
tp48
Rp49
ag10
(g14
S'\xef\x8cx.:0@@'
p50
tp51
Rp52
ag10
(g14
S'O\x95\xdeM\xc8=@@'
p53
tp54
Rp55
ag10
(g14
S"B'\xac*a^@@"
p56
tp57
Rp58
ag10
(g14
S'D1\xfe\xaa~>@@'
p59
tp60
Rp61
ag10
(g14
S"\xeeq,'\x983@@"
p62
tp63
Rp64
ag10
(g14
S'\xe7,\x90W|9@@'
p65
tp66
Rp67
ag10
(g14
S'.\xca\x05\x9a\xa46@@'
p68
tp69
Rp70
ag10
(g14
S'\x1c\xb3m\xcc\x98I@@'
p71
tp72
Rp73
ag10
(g14
S'\xe44\xac\xe9\x067@@'
p74
tp75
Rp76
asS'target'
p77
(lp78
g10
(g14
S'`\xfc\xd5\x1b4\xf6%@'
p79
tp80
Rp81
ag10
(g14
S"\xd9'\x86\x80Cf'@"
p82
tp83
Rp84
ag10
(g14
S'\xc6\xcd\xa0\x88\xda\xf8(@'
p85
tp86
Rp87
ag10
(g14
S"\xf4j\r<\xb1\xb5'@"
p88
tp89
Rp90
ag10
(g14
S'\x998\x16I5"&@'
p91
tp92
Rp93
ag10
(g14
S'\xf6\xb5\t\n\x12\xb9(@'
p94
tp95
Rp96
ag10
(g14
S'\xe5\xee\xd3\xb2\xd5\xe0$@'
p97
tp98
Rp99
ag10
(g14
S'-\xaf \xf7co&@'
p100
tp101
Rp102
ag10
(g14
S'\xce}\x82\x87\x1fM%@'
p103
tp104
Rp105
ag10
(g14
S'2x\xd5\xc2\xd2@&@'
p106
tp107
Rp108
ag10
(g14
S'\x00\xf2)\xf4l\x9b&@'
p109
tp110
Rp111
ag10
(g14
S'\xcb\xc0\xdbTl\x8b(@'
p112
tp113
Rp114
ag10
(g14
S'\x0c\\\xeec\x1c\x90#@'
p115
tp116
Rp117
ag10
(g14
S"\xbdW;}\x9c\x95'@"
p118
tp119
Rp120
ag10
(g14
S'\x9b\xb1(\xb0\xbf?(@'
p121
tp122
Rp123
ag10
(g14
S'Gn,\xbf\xc3\xf3&@'
p124
tp125
Rp126
ag10
(g14
S"\xa0\x80U'$\xed&@"
p127
tp128
Rp129
ag10
(g14
S'\xda\xc3\xc4.\x82L&@'
p130
tp131
Rp132
ag10
(g14
S';\xe68e\xe2\xd7$@'
p133
tp134
Rp135
ag10
(g14
S"j\xcb\xb5+H\x98'@"
p136
tp137
Rp138
asssss.