(dp0
S'../Data/sqlite_64.csv'
p1
(dp2
S'../Data/sqlite_91.csv'
p3
(dp4
F0.05
(dp5
S'mmre'
p6
(dp7
S'bellwether'
p8
(lp9
cnumpy.core.multiarray
scalar
p10
(cnumpy
dtype
p11
(S'f8'
p12
I0
I1
tp13
Rp14
(I3
S'<'
p15
NNNI-1
I-1
I0
tp16
bS'O(\xac\xe1a|X@'
p17
tp18
Rp19
ag10
(g14
S'7\x1dM\x0cq~X@'
p20
tp21
Rp22
ag10
(g14
S'N\xbbt\xb4\xb1|X@'
p23
tp24
Rp25
ag10
(g14
S'\xda&P"\xd0|X@'
p26
tp27
Rp28
ag10
(g14
S'H\xdd\x15\x074~X@'
p29
tp30
Rp31
ag10
(g14
S'\x8d8^\x0f$~X@'
p32
tp33
Rp34
ag10
(g14
S'+\xdcMM{~X@'
p35
tp36
Rp37
ag10
(g14
S'\x044=\xf9_|X@'
p38
tp39
Rp40
ag10
(g14
S';\x8e\xff\xfee\x82X@'
p41
tp42
Rp43
ag10
(g14
S'\xaa\x8b\xde\xcdm|X@'
p44
tp45
Rp46
ag10
(g14
S'\x8f)\x84m}\x80X@'
p47
tp48
Rp49
ag10
(g14
S'\xd0\xdc#\xf6i|X@'
p50
tp51
Rp52
ag10
(g14
S'\xe6\xccl\xc7N~X@'
p53
tp54
Rp55
ag10
(g14
S'\xb5\xff\x96\x90+~X@'
p56
tp57
Rp58
ag10
(g14
S'\xdeu\xdc;\xd3~X@'
p59
tp60
Rp61
ag10
(g14
S'\x08f\xdc\xc6F~X@'
p62
tp63
Rp64
ag10
(g14
S'\xfd\x13\xc5\x14&}X@'
p65
tp66
Rp67
ag10
(g14
S'\xb6"\x9eJ9~X@'
p68
tp69
Rp70
ag10
(g14
S'\x9b\x8f6\xb7\xb7~X@'
p71
tp72
Rp73
ag10
(g14
S'!P\xf4a,\x80X@'
p74
tp75
Rp76
asS'target'
p77
(lp78
g10
(g14
S'\xe5\x19\x9a<|!P@'
p79
tp80
Rp81
ag10
(g14
S'+\x89X\ta\xc0O@'
p82
tp83
Rp84
ag10
(g14
S'\x893m\xd5\x00\x85P@'
p85
tp86
Rp87
ag10
(g14
S'\x16\xce\x1c\xec\xabqP@'
p88
tp89
Rp90
ag10
(g14
S'#\xb7%\x9a6IP@'
p91
tp92
Rp93
ag10
(g14
S'\x9b\xbd\x00\xc5EbP@'
p94
tp95
Rp96
ag10
(g14
S'\x01\xe0\xb0Fe\xb0N@'
p97
tp98
Rp99
ag10
(g14
S'\xcdr>\x07s\x14Q@'
p100
tp101
Rp102
ag10
(g14
S'\x9cf\xe2=\xc3\xc8N@'
p103
tp104
Rp105
ag10
(g14
S'\n\xed\xe1\x19\x9f0P@'
p106
tp107
Rp108
ag10
(g14
S"T:\x01\xdbD'O@"
p109
tp110
Rp111
ag10
(g14
S'bQ\x17\x0fZ&Q@'
p112
tp113
Rp114
ag10
(g14
S'\xfa\xba\x90\x9dv"Q@'
p115
tp116
Rp117
ag10
(g14
S'\xb9\xbe[P\n\xa7O@'
p118
tp119
Rp120
ag10
(g14
S'J=W \xf1\xdcL@'
p121
tp122
Rp123
ag10
(g14
S'\xa8\xb99\x04\x90sQ@'
p124
tp125
Rp126
ag10
(g14
S'\xd8\xe0c\xf7\xc0\xbeP@'
p127
tp128
Rp129
ag10
(g14
S'\x1e\x82\xe3\xd7\xf0\xc5N@'
p130
tp131
Rp132
ag10
(g14
S'D\x03Hb\xfa#P@'
p133
tp134
Rp135
ag10
(g14
S'\x07~\n\x11\x11\xe8N@'
p136
tp137
Rp138
asssss.