(dp0
S'../Data/sqlite_32.csv'
p1
(dp2
S'../Data/sqlite_61.csv'
p3
(dp4
F0.2
(dp5
S'abs_res'
p6
(dp7
S'bellwether'
p8
(lp9
cnumpy.core.multiarray
scalar
p10
(cnumpy
dtype
p11
(S'f8'
p12
I0
I1
tp13
Rp14
(I3
S'<'
p15
NNNI-1
I-1
I0
tp16
bS'Wd;\xffXeBA'
p17
tp18
Rp19
ag10
(g14
S'\xab\x9b\xc4\x10\xcfeBA'
p20
tp21
Rp22
ag10
(g14
S'\t\xac\x1c\xca\xf7dBA'
p23
tp24
Rp25
ag10
(g14
S'F\xe1z\xc4\xb5eBA'
p26
tp27
Rp28
ag10
(g14
S'\xd6$\x06q\x9bdBA'
p29
tp30
Rp31
ag10
(g14
S'\xc3 \xb0\x02\xbbdBA'
p32
tp33
Rp34
ag10
(g14
S'\xafrhQ\xd7dBA'
p35
tp36
Rp37
ag10
(g14
S'\xc7\xf5(,FeBA'
p38
tp39
Rp40
ag10
(g14
S'\x8f\xed|_\x87eBA'
p41
tp42
Rp43
ag10
(g14
S'\xc3\xf5(\x0c\xf9bBA'
p44
tp45
Rp46
ag10
(g14
S'\x9e\x99\x99\xa9{bBA'
p47
tp48
Rp49
ag10
(g14
S'R\xe3\xa5;\xcbdBA'
p50
tp51
Rp52
ag10
(g14
S'\xe9\xfb\xa9qCeBA'
p53
tp54
Rp55
ag10
(g14
S'+\xdd$f\\eBA'
p56
tp57
Rp58
ag10
(g14
S'}\x95C\xebacBA'
p59
tp60
Rp61
ag10
(g14
S'\x9e\xef\xa7\xd6\x89aBA'
p62
tp63
Rp64
ag10
(g14
S'\xcb\xf7S\x13\xafeBA'
p65
tp66
Rp67
ag10
(g14
S'\xbaI\x0c\xb2\xa2fBA'
p68
tp69
Rp70
ag10
(g14
S'\xea|?\xd5HbBA'
p71
tp72
Rp73
ag10
(g14
S'\x1c\xb0r\x984eBA'
p74
tp75
Rp76
asS'target'
p77
(lp78
g10
(g14
S'xj\xbct\x93Bw@'
p79
tp80
Rp81
ag10
(g14
S'hffff\xb0u@'
p82
tp83
Rp84
ag10
(g14
S'4\xb2\x9d\xef\xa7\x05y@'
p85
tp86
Rp87
ag10
(g14
S'\xec|?5^\x93u@'
p88
tp89
Rp90
ag10
(g14
S'\xc7 \xb0rh\x83s@'
p91
tp92
Rp93
ag10
(g14
S'\xd4\xf7S\xe3\xa5\x05z@'
p94
tp95
Rp96
ag10
(g14
S'\x1d\x85\xebQ\xb8\\s@'
p97
tp98
Rp99
ag10
(g14
S'\x14X9\xb4\xc87s@'
p100
tp101
Rp102
ag10
(g14
S'd;\xdfO\x8d\x13w@'
p103
tp104
Rp105
ag10
(g14
S'\x05\x81\x95C\x8b\xecq@'
p106
tp107
Rp108
ag10
(g14
S'\xe8Q\xb8\x1e\x85Cu@'
p109
tp110
Rp111
ag10
(g14
S'Wd;\xdfO\xabu@'
p112
tp113
Rp114
ag10
(g14
S'\xf1Q\xb8\x1e\x85\x01u@'
p115
tp116
Rp117
ag10
(g14
S'\x97C\x8bl\xe7\x07t@'
p118
tp119
Rp120
ag10
(g14
S'L\x8d\x97n\x12As@'
p121
tp122
Rp123
ag10
(g14
S'yh\x91\xed|\x8fv@'
p124
tp125
Rp126
ag10
(g14
S'\x1cZd;\xdf\xcfu@'
p127
tp128
Rp129
ag10
(g14
S'\xebO\x8d\x97n\xd8o@'
p130
tp131
Rp132
ag10
(g14
S'\x1c/\xdd$\x06\x97t@'
p133
tp134
Rp135
ag10
(g14
S'\x8b\xed|?5nu@'
p136
tp137
Rp138
asssss.