(dp0
S'../Data/sqlite_62.csv'
p1
(dp2
S'../Data/sqlite_95.csv'
p3
(dp4
F0.4
(dp5
S'mmre'
p6
(dp7
S'bellwether'
p8
(lp9
cnumpy.core.multiarray
scalar
p10
(cnumpy
dtype
p11
(S'f8'
p12
I0
I1
tp13
Rp14
(I3
S'<'
p15
NNNI-1
I-1
I0
tp16
bS'\xf1r\x04|N_X@'
p17
tp18
Rp19
ag10
(g14
S'x\xa3W\x1d\x19aX@'
p20
tp21
Rp22
ag10
(g14
S'\xe2\xb7$\xbf)`X@'
p23
tp24
Rp25
ag10
(g14
S')\x8d\x07vR\\X@'
p26
tp27
Rp28
ag10
(g14
S'\xf7c\x07\xb8\x9a]X@'
p29
tp30
Rp31
ag10
(g14
S'\xdd\t\x87\xf2\x81`X@'
p32
tp33
Rp34
ag10
(g14
S'h\xbaOD\xbe]X@'
p35
tp36
Rp37
ag10
(g14
S'\xe0>S\\8_X@'
p38
tp39
Rp40
ag10
(g14
S'$\xa7\xa5*<_X@'
p41
tp42
Rp43
ag10
(g14
S'\x0b\x11xI\x81`X@'
p44
tp45
Rp46
ag10
(g14
S'&\x9b\x01\xbf\x07^X@'
p47
tp48
Rp49
ag10
(g14
S'\x1b}\x12\x9a\xe4_X@'
p50
tp51
Rp52
ag10
(g14
S'\xb8\xf5\xac\xd6\r`X@'
p53
tp54
Rp55
ag10
(g14
S'p2\x8e\x9c\xefaX@'
p56
tp57
Rp58
ag10
(g14
S'2\x88m9WaX@'
p59
tp60
Rp61
ag10
(g14
S'\xe6dF\xce\x04`X@'
p62
tp63
Rp64
ag10
(g14
S'!\xa7\\g\xf9_X@'
p65
tp66
Rp67
ag10
(g14
S'\x90\xb3\x13\x9a\xd7_X@'
p68
tp69
Rp70
ag10
(g14
S'9\x98\xf7\xdb ]X@'
p71
tp72
Rp73
ag10
(g14
S'6\xf7W\xeca_X@'
p74
tp75
Rp76
asS'target'
p77
(lp78
g10
(g14
S'LU\xa26Q\xa8?@'
p79
tp80
Rp81
ag10
(g14
S'\xa7\x1eCa\x7f\x81@@'
p82
tp83
Rp84
ag10
(g14
S'\xbc\x0f\x02\xd4k4C@'
p85
tp86
Rp87
ag10
(g14
S'\xdc\x9e{#\xbb\x90C@'
p88
tp89
Rp90
ag10
(g14
S'\xa0\xaf\x9e\x13\x825A@'
p91
tp92
Rp93
ag10
(g14
S'\x1f\x06\xcd\x07\xd7\xd1D@'
p94
tp95
Rp96
ag10
(g14
S'V\x95e\x82\x9enC@'
p97
tp98
Rp99
ag10
(g14
S'\x13\xfcR<N%C@'
p100
tp101
Rp102
ag10
(g14
S'\x11Xd\xdaEQA@'
p103
tp104
Rp105
ag10
(g14
S'\xc0\xe5\xce`&\x0fA@'
p106
tp107
Rp108
ag10
(g14
S'V[\xb4\xb4}\xcaB@'
p109
tp110
Rp111
ag10
(g14
S'e\xbcY\xf3ov@@'
p112
tp113
Rp114
ag10
(g14
S'{t\xbf\x86$\x85A@'
p115
tp116
Rp117
ag10
(g14
S'&0(\x06t\xc6A@'
p118
tp119
Rp120
ag10
(g14
S'\xa4Q`\xfa\x12\xe8@@'
p121
tp122
Rp123
ag10
(g14
S'\xb6~\xed\xd9\xcd\xc5B@'
p124
tp125
Rp126
ag10
(g14
S'm]\xc6\xd3\xb9\x07@@'
p127
tp128
Rp129
ag10
(g14
S'\xbd\xb2m\r\xd6\xf5A@'
p130
tp131
Rp132
ag10
(g14
S'\x80\x11-\x9f\xd6\xc2@@'
p133
tp134
Rp135
ag10
(g14
S'\x97\x91\xeb&\xe0HA@'
p136
tp137
Rp138
asssss.