(dp0
S'../Data/sqlite_67.csv'
p1
(dp2
S'../Data/sqlite_72.csv'
p3
(dp4
F0.2
(dp5
S'abs_res'
p6
(dp7
S'bellwether'
p8
(lp9
cnumpy.core.multiarray
scalar
p10
(cnumpy
dtype
p11
(S'f8'
p12
I0
I1
tp13
Rp14
(I3
S'<'
p15
NNNI-1
I-1
I0
tp16
bS'\xb9V\xc7\xc4\xed[!A'
p17
tp18
Rp19
ag10
(g14
S')\xdb\xf9~O[!A'
p20
tp21
Rp22
ag10
(g14
S'\xb1\x9d\xef\xe7\xdf\\!A'
p23
tp24
Rp25
ag10
(g14
S'X\x0e-2 \\!A'
p26
tp27
Rp28
ag10
(g14
S'\xb1\x0f\x9faX\\!A'
p29
tp30
Rp31
ag10
(g14
S'\x1f>\xc3\xee\xde[!A'
p32
tp33
Rp34
ag10
(g14
S'Z\xd6\xea\x98\xe1\\!A'
p35
tp36
Rp37
ag10
(g14
S'\x87A`eT\\!A'
p38
tp39
Rp40
ag10
(g14
S'\xe2\xa5\x9b\x84\xb9\\!A'
p41
tp42
Rp43
ag10
(g14
S'\x95_,\xb9\xac[!A'
p44
tp45
Rp46
ag10
(g14
S'\xd3\xbf\x11\n\x0b[!A'
p47
tp48
Rp49
ag10
(g14
S'\x19>\xc3\xee\xc7[!A'
p50
tp51
Rp52
ag10
(g14
S'\xfc\xd4xi\xc6\\!A'
p53
tp54
Rp55
ag10
(g14
S'\xc6K7I\xa9[!A'
p56
tp57
Rp58
ag10
(g14
S'\x00\xaa\xf1R\x17]!A'
p59
tp60
Rp61
ag10
(g14
S'\xf0\x19v\x85U\\!A'
p62
tp63
Rp64
ag10
(g14
S'\xed\n\x90\xbb\xfc[!A'
p65
tp66
Rp67
ag10
(g14
S'C\x8bl\xa7-[!A'
p68
tp69
Rp70
ag10
(g14
S'\x87\xa4)UC\\!A'
p71
tp72
Rp73
ag10
(g14
S'\xba\xac\xd5\xb1\x92\\!A'
p74
tp75
Rp76
asS'target'
p77
(lp78
g10
(g14
S'\x93\xed|?5\xceQ@'
p79
tp80
Rp81
ag10
(g14
S'\x1d/\xdd$\x06MP@'
p82
tp83
Rp84
ag10
(g14
S',\\\x8f\xc2\xf5\xf8Q@'
p85
tp86
Rp87
ag10
(g14
S'\x0c\x81\x95C\x8b\x84Q@'
p88
tp89
Rp90
ag10
(g14
S'/3333#R@'
p91
tp92
Rp93
ag10
(g14
S'\xae\x1cZd;\xc7Q@'
p94
tp95
Rp96
ag10
(g14
S',\xdd$\x06\x81\xa5R@'
p97
tp98
Rp99
ag10
(g14
S'X\xb8\x1e\x85\xebuP@'
p100
tp101
Rp102
ag10
(g14
S'C\x8bl\xe7\xfb\xb5Q@'
p103
tp104
Rp105
ag10
(g14
S';\x89A`\xe5\xd8Q@'
p106
tp107
Rp108
ag10
(g14
S'E\xdfO\x8d\x97NS@'
p109
tp110
Rp111
ag10
(g14
S'\xdez\x14\xaeG\xa9Q@'
p112
tp113
Rp114
ag10
(g14
S'\x00\xaa\xf1\xd2M\xaaR@'
p115
tp116
Rp117
ag10
(g14
S'\x1c\x04V\x0e-\x9aS@'
p118
tp119
Rp120
ag10
(g14
S'P\xe3\xa5\x9b\xc4,R@'
p121
tp122
Rp123
ag10
(g14
S'i\x91\xed|?MR@'
p124
tp125
Rp126
ag10
(g14
S'\x08\xac\x1cZd\xd3Q@'
p127
tp128
Rp129
ag10
(g14
S'\x19\x85\xebQ\xb8FQ@'
p130
tp131
Rp132
ag10
(g14
S'\xaf\xc6K7\x89iQ@'
p133
tp134
Rp135
ag10
(g14
S'Y9\xb4\xc8vrR@'
p136
tp137
Rp138
asssss.