(dp0
S'../Data/sqlite_94.csv'
p1
(dp2
S'../Data/sqlite_14.csv'
p3
(dp4
F0.15
(dp5
S'abs_res'
p6
(dp7
S'bellwether'
p8
(lp9
cnumpy.core.multiarray
scalar
p10
(cnumpy
dtype
p11
(S'f8'
p12
I0
I1
tp13
Rp14
(I3
S'<'
p15
NNNI-1
I-1
I0
tp16
bS'_;\xdf\xcf\x8ej!A'
p17
tp18
Rp19
ag10
(g14
S'\xf2\xd2M\xa2j7!A'
p20
tp21
Rp22
ag10
(g14
S']\x8f\xc2u\xedk!A'
p23
tp24
Rp25
ag10
(g14
S'\x8f\xc2\xf5h;\x81!A'
p26
tp27
Rp28
ag10
(g14
S'6\xb4\xc8v\xcc\x89!A'
p29
tp30
Rp31
ag10
(g14
S'I\x0c\x02+\x85\x06!A'
p32
tp33
Rp34
ag10
(g14
S'\xc9 \xb02p4!A'
p35
tp36
Rp37
ag10
(g14
S':\n\xd7c\x80C!A'
p38
tp39
Rp40
ag10
(g14
S'z\xe9&qfB!A'
p41
tp42
Rp43
ag10
(g14
S'S9\xb4\x08\xfe\xf4 A'
p44
tp45
Rp46
ag10
(g14
S'\xe9Q\xb8\x1e/\x88!A'
p47
tp48
Rp49
ag10
(g14
S'\xf7S\xe3\xa5\xb0?!A'
p50
tp51
Rp52
ag10
(g14
S'|j\xbc4 6!A'
p53
tp54
Rp55
ag10
(g14
S'\x0f-\xb2]Kw!A'
p56
tp57
Rp58
ag10
(g14
S'Q\xb8\x1e\xc5\x92\n!A'
p59
tp60
Rp61
ag10
(g14
S'z\x14\xae\x07\xb0\\!A'
p62
tp63
Rp64
ag10
(g14
S'\x8el\xe7;\xf1\x1b!A'
p65
tp66
Rp67
ag10
(g14
S'\t\xac\x1cZoB!A'
p68
tp69
Rp70
ag10
(g14
S'}\xc0\xca\xa1\xe6\x02!A'
p71
tp72
Rp73
ag10
(g14
S'\x8d\x18\x04VE\x15!A'
p74
tp75
Rp76
asS'target'
p77
(lp78
g10
(g14
S'\x7fj\xbct\x93le@'
p79
tp80
Rp81
ag10
(g14
S'\x00V\x0e-\xb2yc@'
p82
tp83
Rp84
ag10
(g14
S'\r\x81\x95C\x8b f@'
p85
tp86
Rp87
ag10
(g14
S'\xefQ\xb8\x1e\x857d@'
p88
tp89
Rp90
ag10
(g14
S'\xbf\xf5(\\\x8f\x96j@'
p91
tp92
Rp93
ag10
(g14
S'\x89A`\xe5\xd0fe@'
p94
tp95
Rp96
ag10
(g14
S'\xa9\x9b\xc4 \xb0\xe4c@'
p97
tp98
Rp99
ag10
(g14
S'?\n\xd7\xa3p\xb1f@'
p100
tp101
Rp102
ag10
(g14
S'b\xbaI\x0c\x02\xa7d@'
p103
tp104
Rp105
ag10
(g14
S'\x93\xc2\xf5(\\\xcbd@'
p106
tp107
Rp108
ag10
(g14
S'w=\n\xd7\xa3,d@'
p109
tp110
Rp111
ag10
(g14
S'\xd5\xce\xf7S\xe3\xf1c@'
p112
tp113
Rp114
ag10
(g14
S'\x9f\x1a/\xdd$Nc@'
p115
tp116
Rp117
ag10
(g14
S'93333\xdfg@'
p118
tp119
Rp120
ag10
(g14
S'Xd;\xdfOUe@'
p121
tp122
Rp123
ag10
(g14
S'\xd4\xa3p=\n?f@'
p124
tp125
Rp126
ag10
(g14
S'\xc6K7\x89A\x9ef@'
p127
tp128
Rp129
ag10
(g14
S'\xb0rh\x91\xed\xc4f@'
p130
tp131
Rp132
ag10
(g14
S'\xa0p=\n\xd7{i@'
p133
tp134
Rp135
ag10
(g14
S'\xce \xb0rh}f@'
p136
tp137
Rp138
asssss.