(dp0
S'../Data/sqlite_82.csv'
p1
(dp2
S'../Data/sqlite_29.csv'
p3
(dp4
F0.1
(dp5
S'mmre'
p6
(dp7
S'bellwether'
p8
(lp9
cnumpy.core.multiarray
scalar
p10
(cnumpy
dtype
p11
(S'f8'
p12
I0
I1
tp13
Rp14
(I3
S'<'
p15
NNNI-1
I-1
I0
tp16
bS'^M 4QQX@'
p17
tp18
Rp19
ag10
(g14
S'\xc8<\xb6\xabUQX@'
p20
tp21
Rp22
ag10
(g14
S'd\xdbH\x19TQX@'
p23
tp24
Rp25
ag10
(g14
S'H\xdfb\xec]QX@'
p26
tp27
Rp28
ag10
(g14
S'4\xd1\xcd\x9eRQX@'
p29
tp30
Rp31
ag10
(g14
S'\xb5\x0e\x1ebTQX@'
p32
tp33
Rp34
ag10
(g14
S']\\\xf6\xecVQX@'
p35
tp36
Rp37
ag10
(g14
S'\x83\xad\x95\xa5SQX@'
p38
tp39
Rp40
ag10
(g14
S'\x10j\xaeEVQX@'
p41
tp42
Rp43
ag10
(g14
S'\xe5`\xaf\xd2OQX@'
p44
tp45
Rp46
ag10
(g14
S'\xd4\xd3vlPQX@'
p47
tp48
Rp49
ag10
(g14
S'\x19z\xfa\x1eTQX@'
p50
tp51
Rp52
ag10
(g14
S'\xba\xa0x\xe9OQX@'
p53
tp54
Rp55
ag10
(g14
S'\xc9\xa66:TQX@'
p56
tp57
Rp58
ag10
(g14
S'\x0e\xc4\xdf%TQX@'
p59
tp60
Rp61
ag10
(g14
S'~\x83M=VQX@'
p62
tp63
Rp64
ag10
(g14
S't\xb0a\x02OQX@'
p65
tp66
Rp67
ag10
(g14
S'M\x8f5\xd9YQX@'
p68
tp69
Rp70
ag10
(g14
S'B\xc4wkXQX@'
p71
tp72
Rp73
ag10
(g14
S'\xa0"\xad\xc2[QX@'
p74
tp75
Rp76
asS'target'
p77
(lp78
g10
(g14
S'\xcc\xb6*4Ek\xeb?'
p79
tp80
Rp81
ag10
(g14
S'\xb4\xfa\x86\xd6\xe7\x0c\xea?'
p82
tp83
Rp84
ag10
(g14
S'wu\x8a\xba\xcf\x8f\xe9?'
p85
tp86
Rp87
ag10
(g14
S'\xe9\xff5\x1a\x83\xec\xe8?'
p88
tp89
Rp90
ag10
(g14
S'\xd6\xfd\xda\xba@\x85\xea?'
p91
tp92
Rp93
ag10
(g14
S'\xe5\n2&\xbd\x10\xe8?'
p94
tp95
Rp96
ag10
(g14
S'\n\xdc#\n\xe2Y\xe8?'
p97
tp98
Rp99
ag10
(g14
S'O\xc7\xd3:O\n\xe9?'
p100
tp101
Rp102
ag10
(g14
S'd>*u\xfd(\xe9?'
p103
tp104
Rp105
ag10
(g14
S'\xc939\xe5\xf6\x86\xec?'
p106
tp107
Rp108
ag10
(g14
S'f\t\x98\x0c\x18\x8a\xed?'
p109
tp110
Rp111
ag10
(g14
S":\x1dV7'\\\xeb?"
p112
tp113
Rp114
ag10
(g14
S'\x11k\x89zx\x07\xe9?'
p115
tp116
Rp117
ag10
(g14
S'V\xd4\t.\xc8\xc6\xe9?'
p118
tp119
Rp120
ag10
(g14
S'_\xb4\xc5\xf0\x96;\xe9?'
p121
tp122
Rp123
ag10
(g14
S'e\n\x0fU\x8a\x07\xeb?'
p124
tp125
Rp126
ag10
(g14
S'\xea\xb2d\xca\x08\xc9\xe8?'
p127
tp128
Rp129
ag10
(g14
S'\r\xc88,AZ\xeb?'
p130
tp131
Rp132
ag10
(g14
S'b/\xa6\xd6K\xe2\xe9?'
p133
tp134
Rp135
ag10
(g14
S'\x98\xe5A\xd8\x90{\xe9?'
p136
tp137
Rp138
asssss.