(dp0
S'../Data/sqlite_76.csv'
p1
(dp2
S'../Data/sqlite_77.csv'
p3
(dp4
F0.05
(dp5
S'mmre'
p6
(dp7
S'bellwether'
p8
(lp9
cnumpy.core.multiarray
scalar
p10
(cnumpy
dtype
p11
(S'f8'
p12
I0
I1
tp13
Rp14
(I3
S'<'
p15
NNNI-1
I-1
I0
tp16
bS'e(O\xa2\xacM7@'
p17
tp18
Rp19
ag10
(g14
S')\x8a9c;Q7@'
p20
tp21
Rp22
ag10
(g14
S'\xdd\x11]RU*7@'
p23
tp24
Rp25
ag10
(g14
S'\xd1\xae\xbb\xf7\xaf37@'
p26
tp27
Rp28
ag10
(g14
S'\xa8\xf4t\x11P@7@'
p29
tp30
Rp31
ag10
(g14
S'\xae\x9bX\x97\x8c\x187@'
p32
tp33
Rp34
ag10
(g14
S',\x15d\x12\x87<7@'
p35
tp36
Rp37
ag10
(g14
S'r\x91\x1f\x00\xd4)7@'
p38
tp39
Rp40
ag10
(g14
S'\x07\xdc\xd3i@;7@'
p41
tp42
Rp43
ag10
(g14
S'\xb2\xecQ\xfb\x1e27@'
p44
tp45
Rp46
ag10
(g14
S'PN\xad\r\xae67@'
p47
tp48
Rp49
ag10
(g14
S'\xde\xa4\x02\xccu/7@'
p50
tp51
Rp52
ag10
(g14
S'\xd5Uk\xa8d07@'
p53
tp54
Rp55
ag10
(g14
S'D2\\~IN7@'
p56
tp57
Rp58
ag10
(g14
S'\x91\xb6Ez\x15\x187@'
p59
tp60
Rp61
ag10
(g14
S'@m2s.\x047@'
p62
tp63
Rp64
ag10
(g14
S'&\x97\x9aO\xb9[7@'
p65
tp66
Rp67
ag10
(g14
S'Zw\xe2\x8c\x86E7@'
p68
tp69
Rp70
ag10
(g14
S'\xdb\x94\x04\\RR7@'
p71
tp72
Rp73
ag10
(g14
S'q5\x81i&D7@'
p74
tp75
Rp76
asS'target'
p77
(lp78
g10
(g14
S'X\x0f\x80\x0b\xf0\x0f5@'
p79
tp80
Rp81
ag10
(g14
S'>#\xa8\x8c7\x927@'
p82
tp83
Rp84
ag10
(g14
S'2pl\x03\x03\x825@'
p85
tp86
Rp87
ag10
(g14
S'\x9bDN]\xa4_7@'
p88
tp89
Rp90
ag10
(g14
S'\xb8\xbf~A\x86\xba4@'
p91
tp92
Rp93
ag10
(g14
S'\xcb\x80\xd3\x14\xdbJ7@'
p94
tp95
Rp96
ag10
(g14
S'\x9bO\xcf\x03T\x1b7@'
p97
tp98
Rp99
ag10
(g14
S'=m\xb9\xdaL@9@'
p100
tp101
Rp102
ag10
(g14
S'\xa7\xcb\x8a_\xb2r9@'
p103
tp104
Rp105
ag10
(g14
S'\x88\xf3JD_\xd27@'
p106
tp107
Rp108
ag10
(g14
S'\xd4\xb2,\x0f\x0e37@'
p109
tp110
Rp111
ag10
(g14
S'fx\x1b\xc5l\xe44@'
p112
tp113
Rp114
ag10
(g14
S'\n9-\xc8\x06\xd16@'
p115
tp116
Rp117
ag10
(g14
S'n\xa0z\xc8\x8d\xa53@'
p118
tp119
Rp120
ag10
(g14
S'\xef\x13\xa3Ye@7@'
p121
tp122
Rp123
ag10
(g14
S' \x8b\xf9V\xdca6@'
p124
tp125
Rp126
ag10
(g14
S'\xcc\xcc\xb9\xe7\x7f\xeb3@'
p127
tp128
Rp129
ag10
(g14
S'\x1c\x14\x85\xd3V\xb86@'
p130
tp131
Rp132
ag10
(g14
S'H\xa5\xce\x0eY\xfb5@'
p133
tp134
Rp135
ag10
(g14
S'^\x8fQe\x1a\x117@'
p136
tp137
Rp138
asssss.