(dp0
S'../Data/sqlite_46.csv'
p1
(dp2
S'../Data/sqlite_21.csv'
p3
(dp4
F0.15
(dp5
S'abs_res'
p6
(dp7
S'bellwether'
p8
(lp9
cnumpy.core.multiarray
scalar
p10
(cnumpy
dtype
p11
(S'f8'
p12
I0
I1
tp13
Rp14
(I3
S'<'
p15
NNNI-1
I-1
I0
tp16
bS'\x95C\x8b\xecS]@A'
p17
tp18
Rp19
ag10
(g14
S'\x1b\x04V>\x0b^@A'
p20
tp21
Rp22
ag10
(g14
S'8\xb4\xc8\x96\xd6]@A'
p23
tp24
Rp25
ag10
(g14
S'\x9c\x99\x99\x19\x94]@A'
p26
tp27
Rp28
ag10
(g14
S'B5^Z-^@A'
p29
tp30
Rp31
ag10
(g14
S'\xc8 \xb0\x82<]@A'
p32
tp33
Rp34
ag10
(g14
S'\xea\xfb\xa9\x81\x16]@A'
p35
tp36
Rp37
ag10
(g14
S'\xf3\xa7\xc6K\xee]@A'
p38
tp39
Rp40
ag10
(g14
S'*1\x08|\xd4]@A'
p41
tp42
Rp43
ag10
(g14
S'\x11\x83\xc0\xba.]@A'
p44
tp45
Rp46
ag10
(g14
S'n\xbctS\xf0]@A'
p47
tp48
Rp49
ag10
(g14
S'\xfc\xa9\xf1\xf2C]@A'
p50
tp51
Rp52
ag10
(g14
S'\x95\xed|\x0f\t^@A'
p53
tp54
Rp55
ag10
(g14
S'\xa3\x1a/MO]@A'
p56
tp57
Rp58
ag10
(g14
S"'\xb0r\xb8\x9b]@A"
p59
tp60
Rp61
ag10
(g14
S'\xfa\xd2M2:^@A'
p62
tp63
Rp64
ag10
(g14
S'\xd3\xcc\xcc\xac\xc5]@A'
p65
tp66
Rp67
ag10
(g14
S'\x86\x16\xd9\x8e\xf8]@A'
p68
tp69
Rp70
ag10
(g14
S'\xfa~j\x1c_]@A'
p71
tp72
Rp73
ag10
(g14
S'\xf9\xfd\xd4H\xea]@A'
p74
tp75
Rp76
asS'target'
p77
(lp78
g10
(g14
S'\xc7K7\x89A,f@'
p79
tp80
Rp81
ag10
(g14
S'B5^\xbaI\x00j@'
p82
tp83
Rp84
ag10
(g14
S'2\x87\x16\xd9\xce\xc3i@'
p85
tp86
Rp87
ag10
(g14
S'\x1b-\xb2\x9d\xef\xc5g@'
p88
tp89
Rp90
ag10
(g14
S'\xa7\xef\xa7\xc6KKk@'
p91
tp92
Rp93
ag10
(g14
S'\x11\xac\x1cZdWf@'
p94
tp95
Rp96
ag10
(g14
S'53333;j@'
p97
tp98
Rp99
ag10
(g14
S'\x86j\xbct\x93\x90h@'
p100
tp101
Rp102
ag10
(g14
S'P\x8d\x97n\x12\xc3g@'
p103
tp104
Rp105
ag10
(g14
S'\xff\xa9\xf1\xd2MBi@'
p106
tp107
Rp108
ag10
(g14
S"'\x85\xebQ\xb8\xaej@"
p109
tp110
Rp111
ag10
(g14
S',\xb0rh\x91\xd9j@'
p112
tp113
Rp114
ag10
(g14
S'\xcfx\xe9&1\xd4f@'
p115
tp116
Rp117
ag10
(g14
S'Eb\x10X9\x98h@'
p118
tp119
Rp120
ag10
(g14
S'\x17\x04V\x0e-\xa2f@'
p121
tp122
Rp123
ag10
(g14
S'?\xd2\x94\x8a\xb3\x8fi@'
p124
tp125
Rp126
ag10
(g14
S'\xe4x\xe9&1\xd6n@'
p127
tp128
Rp129
ag10
(g14
S'\xcb\xa1E\xb6\xf3\xbdh@'
p130
tp131
Rp132
ag10
(g14
S'>\xdfO\x8d\x97nh@'
p133
tp134
Rp135
ag10
(g14
S'^d;\xdfO\x91g@'
p136
tp137
Rp138
asssss.