(dp0
S'../Data/sqlite_57.csv'
p1
(dp2
S'../Data/sqlite_0.csv'
p3
(dp4
F0.4
(dp5
S'abs_res'
p6
(dp7
S'bellwether'
p8
(lp9
cnumpy.core.multiarray
scalar
p10
(cnumpy
dtype
p11
(S'f8'
p12
I0
I1
tp13
Rp14
(I3
S'<'
p15
NNNI-1
I-1
I0
tp16
bS'\xcd"\xdb\x99~xaA'
p17
tp18
Rp19
ag10
(g14
S'D\xb6\xf3\xed2uaA'
p20
tp21
Rp22
ag10
(g14
S'\xcav\xbe/\x83saA'
p23
tp24
Rp25
ag10
(g14
S'g\xbct\xb3}oaA'
p26
tp27
Rp28
ag10
(g14
S'\x9c\x18\x04F\x0fuaA'
p29
tp30
Rp31
ag10
(g14
S'\xe6\xfb\xa9\xf5ruaA'
p32
tp33
Rp34
ag10
(g14
S'\xbd\x9f\x1a\xcf\x1cqaA'
p35
tp36
Rp37
ag10
(g14
S'\xf3\xfd\xd4L\xc0|aA'
p38
tp39
Rp40
ag10
(g14
S'\xb6I\x0cz\xb2taA'
p41
tp42
Rp43
ag10
(g14
S'\xdd\xce\xf7#\xa0}aA'
p44
tp45
Rp46
ag10
(g14
S'\xf1\xfd\xd4\x8c:haA'
p47
tp48
Rp49
ag10
(g14
S'\xfa\xd4x)\x98\x7faA'
p50
tp51
Rp52
ag10
(g14
S'<`\xe5\x18\xe2vaA'
p53
tp54
Rp55
ag10
(g14
S'\xe9&1d\x9ezaA'
p56
tp57
Rp58
ag10
(g14
S'k\x91\xed\x84\xfcxaA'
p59
tp60
Rp61
ag10
(g14
S'\x88\x97n2\xaa{aA'
p62
tp63
Rp64
ag10
(g14
S'\xbf\x9f\x1a\x0f\x8fqaA'
p65
tp66
Rp67
ag10
(g14
S'&\x87\x16y;zaA'
p68
tp69
Rp70
ag10
(g14
S'\x96\xef\xa7\xf6(paA'
p71
tp72
Rp73
ag10
(g14
S'\xb0\x9d\xef\xdb\x12xaA'
p74
tp75
Rp76
asS'target'
p77
(lp78
g10
(g14
S'\x1e\xdb\xf9~j~a@'
p79
tp80
Rp81
ag10
(g14
S'N\xe1z\x14\xae\x83_@'
p82
tp83
Rp84
ag10
(g14
S'\x11X9\xb4\xc8(`@'
p85
tp86
Rp87
ag10
(g14
S'A\x8bl\xe7\xfbEa@'
p88
tp89
Rp90
ag10
(g14
S'\xdf\xa3p=\n\xf7`@'
p91
tp92
Rp93
ag10
(g14
S'\xdc\xce\xf7S\xe3q^@'
p94
tp95
Rp96
ag10
(g14
S'R\x0c\x02+\x87\xbe^@'
p97
tp98
Rp99
ag10
(g14
S'(\xdd$\x06\x81\xa5^@'
p100
tp101
Rp102
ag10
(g14
S'\x0e\x02+\x87\x16;`@'
p103
tp104
Rp105
ag10
(g14
S'b\xe5\xd0"\xdb!`@'
p106
tp107
Rp108
ag10
(g14
S'\x0e\xaeG\xe1zp^@'
p109
tp110
Rp111
ag10
(g14
S'\xc7K7\x89A4`@'
p112
tp113
Rp114
ag10
(g14
S'\xc5K7\x89A\xc8^@'
p115
tp116
Rp117
ag10
(g14
S'33333\xcb^@'
p118
tp119
Rp120
ag10
(g14
S'vh\x91\xed|o^@'
p121
tp122
Rp123
ag10
(g14
S"\xf2\xa7\xc6K7'`@"
p124
tp125
Rp126
ag10
(g14
S'[d;\xdfOG`@'
p127
tp128
Rp129
ag10
(g14
S'\x81?5^\xbai^@'
p130
tp131
Rp132
ag10
(g14
S'\xc1t\x93\x18\x04H`@'
p133
tp134
Rp135
ag10
(g14
S'f;\xdfO\x8d\xc1`@'
p136
tp137
Rp138
asssss.