(dp0
S'../Data/sqlite_3.csv'
p1
(dp2
S'../Data/sqlite_86.csv'
p3
(dp4
F0.05
(dp5
S'mmre'
p6
(dp7
S'bellwether'
p8
(lp9
cnumpy.core.multiarray
scalar
p10
(cnumpy
dtype
p11
(S'f8'
p12
I0
I1
tp13
Rp14
(I3
S'<'
p15
NNNI-1
I-1
I0
tp16
bS'\x8c^\xd0zj7k@'
p17
tp18
Rp19
ag10
(g14
S':\xcd\xb6\x12b/k@'
p20
tp21
Rp22
ag10
(g14
S'\xd7,t\xaf\xcf/k@'
p23
tp24
Rp25
ag10
(g14
S':\xda5\xc0\xa7:k@'
p26
tp27
Rp28
ag10
(g14
S'/\rsT\xb9Bk@'
p29
tp30
Rp31
ag10
(g14
S'\xe8\xc8nT\xa9!k@'
p32
tp33
Rp34
ag10
(g14
S'\x90\x9dw\x9eFAk@'
p35
tp36
Rp37
ag10
(g14
S'W\x18\x11\x976Wk@'
p38
tp39
Rp40
ag10
(g14
S'\xde0t\xa2\x9aXk@'
p41
tp42
Rp43
ag10
(g14
S'\xbe{\xcfw\xe3Zk@'
p44
tp45
Rp46
ag10
(g14
S'+\xcf\r\xe5\xe98k@'
p47
tp48
Rp49
ag10
(g14
S'\xf7\x85\x11\x91z\x1bk@'
p50
tp51
Rp52
ag10
(g14
S'\x88\xc6\xbd\xea\xa4Hk@'
p53
tp54
Rp55
ag10
(g14
S'\x08\xfb\xbd\xd5\x17Ok@'
p56
tp57
Rp58
ag10
(g14
S'(x\x8b:|;k@'
p59
tp60
Rp61
ag10
(g14
S'\x80 TR`4k@'
p62
tp63
Rp64
ag10
(g14
S'\x1a\x96\x91\x1c\xceUk@'
p65
tp66
Rp67
ag10
(g14
S'X\x80~OePk@'
p68
tp69
Rp70
ag10
(g14
S'VI\x96\x1c\x001k@'
p71
tp72
Rp73
ag10
(g14
S"Sy\xf40'7k@"
p74
tp75
Rp76
asS'target'
p77
(lp78
g10
(g14
S'\xccE;\x82G\xfaP@'
p79
tp80
Rp81
ag10
(g14
S'\x0b\xd5\xebKZVS@'
p82
tp83
Rp84
ag10
(g14
S'\xc1\x8a\xb2\xd3\xa9Y@@'
p85
tp86
Rp87
ag10
(g14
S'\x90\x8dk0\xd6\x1fR@'
p88
tp89
Rp90
ag10
(g14
S'\xdc/\xe8d^\xf2\\@'
p91
tp92
Rp93
ag10
(g14
S'\xe7\xdc\x0c\xfcb\x9fA@'
p94
tp95
Rp96
ag10
(g14
S'"\x9a\xf9\xf6+\xd7@@'
p97
tp98
Rp99
ag10
(g14
S'\x84\xda\xe7i\xea\xc5H@'
p100
tp101
Rp102
ag10
(g14
S'\x8f\x9deK\x9b\xb6b@'
p103
tp104
Rp105
ag10
(g14
S'\\\x02\xe2qD\x9aJ@'
p106
tp107
Rp108
ag10
(g14
S'\x14\xe6\x0e0\xef\xc0Q@'
p109
tp110
Rp111
ag10
(g14
S'\x84{\xcf\x8dK\x83X@'
p112
tp113
Rp114
ag10
(g14
S'\xa4\xbf\xbe\xb4 \xb2U@'
p115
tp116
Rp117
ag10
(g14
S'\xd4\x15W\xef\xedGT@'
p118
tp119
Rp120
ag10
(g14
S'o\xa2\x01U\x8e=R@'
p121
tp122
Rp123
ag10
(g14
S'\x07\\\xe2\x99\xd8QL@'
p124
tp125
Rp126
ag10
(g14
S'\xe8\xb4uf.\xb4J@'
p127
tp128
Rp129
ag10
(g14
S'\xa9\xbc^.~\xecP@'
p130
tp131
Rp132
ag10
(g14
S'atj!\x84\xac?@'
p133
tp134
Rp135
ag10
(g14
S'\xf1(\xa5$\x94\xf1Q@'
p136
tp137
Rp138
asssss.