(dp0
S'../Data/sqlite_29.csv'
p1
(dp2
S'../Data/sqlite_49.csv'
p3
(dp4
F0.05
(dp5
S'abs_res'
p6
(dp7
S'bellwether'
p8
(lp9
cnumpy.core.multiarray
scalar
p10
(cnumpy
dtype
p11
(S'f8'
p12
I0
I1
tp13
Rp14
(I3
S'<'
p15
NNNI-1
I-1
I0
tp16
bS'\xb6rha^0EA'
p17
tp18
Rp19
ag10
(g14
S'\x0f\x83\xc0Zz0EA'
p20
tp21
Rp22
ag10
(g14
S'A\xdfO\xed\x8a0EA'
p23
tp24
Rp25
ag10
(g14
S'\x94C\x8b\xfcR0EA'
p26
tp27
Rp28
ag10
(g14
S'%\x87\x16i\xf6/EA'
p29
tp30
Rp31
ag10
(g14
S'K7\x89\xe1\xa10EA'
p32
tp33
Rp34
ag10
(g14
S'\xa4p=\xfaW0EA'
p35
tp36
Rp37
ag10
(g14
S'p\xe9&qs0EA'
p38
tp39
Rp40
ag10
(g14
S'\xc3\xa1E&\xd6/EA'
p41
tp42
Rp43
ag10
(g14
S'\xbd\x92_\xcc*0EA'
p44
tp45
Rp46
ag10
(g14
S'\xdf\xfb\xa9a\xe1/EA'
p47
tp48
Rp49
ag10
(g14
S'\x1f\xaeG\xa1x0EA'
p50
tp51
Rp52
ag10
(g14
S'\x05\x00\x00P\x9e0EA'
p53
tp54
Rp55
ag10
(g14
S')\xb2\x9d\xdf\xb70EA'
p56
tp57
Rp58
ag10
(g14
S'\xdaz\x14\x1e\xa70EA'
p59
tp60
Rp61
ag10
(g14
S'55^\xaae0EA'
p62
tp63
Rp64
ag10
(g14
S'}j\xbcT\x820EA'
p65
tp66
Rp67
ag10
(g14
S'\xbe \xb0"\x8a0EA'
p68
tp69
Rp70
ag10
(g14
S'\x12X9\xd4\xe80EA'
p71
tp72
Rp73
ag10
(g14
S'\x8c\x97n2~0EA'
p74
tp75
Rp76
asS'target'
p77
(lp78
g10
(g14
S'\xb1\xf1\xd2Mb\xd8i@'
p79
tp80
Rp81
ag10
(g14
S'\xb7\x9d\xef\xa7\xc6Op@'
p82
tp83
Rp84
ag10
(g14
S'\xf6\xa7\xc6K7\xa9m@'
p85
tp86
Rp87
ag10
(g14
S'\x16/\xdd$\x06\xe9n@'
p88
tp89
Rp90
ag10
(g14
S'\xddx\xe9&14m@'
p91
tp92
Rp93
ag10
(g14
S'8\n\xd7\xa3p\xf5j@'
p94
tp95
Rp96
ag10
(g14
S'\xa9p=\n\xd7\xe3k@'
p97
tp98
Rp99
ag10
(g14
S'\xc5K7\x89A,n@'
p100
tp101
Rp102
ag10
(g14
S'V9\xb4\xc8vVj@'
p103
tp104
Rp105
ag10
(g14
S'\xacE\xb6\xf3\xfdPk@'
p106
tp107
Rp108
ag10
(g14
S'Y\x8f\xc2\xf5(Lh@'
p109
tp110
Rp111
ag10
(g14
S'I\x8d\x97n\x12\xe7l@'
p112
tp113
Rp114
ag10
(g14
S'\x8d\xc2\xf5(\\\xa3i@'
p115
tp116
Rp117
ag10
(g14
S'r\x93\x18\x04VJk@'
p118
tp119
Rp120
ag10
(g14
S'U\x8f\xc2\xf5(\xb0j@'
p121
tp122
Rp123
ag10
(g14
S'\x18\xaeG\xe1z,k@'
p124
tp125
Rp126
ag10
(g14
S'\x8fA`\xe5\xd0ng@'
p127
tp128
Rp129
ag10
(g14
S'7^\xbaI\x0cro@'
p130
tp131
Rp132
ag10
(g14
S'[\xe3\xa5\x9b\xc4\xc4m@'
p133
tp134
Rp135
ag10
(g14
S'\xbd\xf3\xfd\xd4x\x1dq@'
p136
tp137
Rp138
asssss.