(dp0
S'../Data/sqlite_69.csv'
p1
(dp2
S'../Data/sqlite_59.csv'
p3
(dp4
F0.25
(dp5
S'mmre'
p6
(dp7
S'bellwether'
p8
(lp9
cnumpy.core.multiarray
scalar
p10
(cnumpy
dtype
p11
(S'f8'
p12
I0
I1
tp13
Rp14
(I3
S'<'
p15
NNNI-1
I-1
I0
tp16
bS'\xe7o\xb1CK.r@'
p17
tp18
Rp19
ag10
(g14
S'\xe6\x96\xaf\xc1\xb36r@'
p20
tp21
Rp22
ag10
(g14
S'[I\x9c\xb1H(r@'
p23
tp24
Rp25
ag10
(g14
S'+\xa5^?\xcd;r@'
p26
tp27
Rp28
ag10
(g14
S'3M\xf6yhWr@'
p29
tp30
Rp31
ag10
(g14
S'-\x0c\xdb\xf1q@r@'
p32
tp33
Rp34
ag10
(g14
S'\x04]\x84|N\x16r@'
p35
tp36
Rp37
ag10
(g14
S'\xba\x7f\x1cv/"r@'
p38
tp39
Rp40
ag10
(g14
S'za\xaf\xdd\xd0\x1fr@'
p41
tp42
Rp43
ag10
(g14
S'/\x15Et\x98;r@'
p44
tp45
Rp46
ag10
(g14
S'\xd3\xe6\xe6\xea\xf4#r@'
p47
tp48
Rp49
ag10
(g14
S'\xa8\x7f\xd6\x9f\x916r@'
p50
tp51
Rp52
ag10
(g14
S'7x{\xe1\xe1\x18r@'
p53
tp54
Rp55
ag10
(g14
S'\xeeU\xa7\x00\x026r@'
p56
tp57
Rp58
ag10
(g14
S"^\x1b\x95'\x944r@"
p59
tp60
Rp61
ag10
(g14
S'\xb3ouw\x9f r@'
p62
tp63
Rp64
ag10
(g14
S'u\x18\xf6 \xf6Mr@'
p65
tp66
Rp67
ag10
(g14
S'\x82nV\t_<r@'
p68
tp69
Rp70
ag10
(g14
S'%\x97FegDr@'
p71
tp72
Rp73
ag10
(g14
S'\x0el;\x04\xb46r@'
p74
tp75
Rp76
asS'target'
p77
(lp78
g10
(g14
S"\xf6d\xd9\xbf\xe1r'@"
p79
tp80
Rp81
ag10
(g14
S'\x0bb\rD9\xfa&@'
p82
tp83
Rp84
ag10
(g14
S'\x02\x11\xde7\x05o#@'
p85
tp86
Rp87
ag10
(g14
S"f?\x94\xdc\x9b\x06'@"
p88
tp89
Rp90
ag10
(g14
S'\x96\xffwyqc(@'
p91
tp92
Rp93
ag10
(g14
S'\x00\xc0EU\xd8\xa5%@'
p94
tp95
Rp96
ag10
(g14
S'\x82q\xab\x07\xa3s%@'
p97
tp98
Rp99
ag10
(g14
S'\x8d\xd7\xee\x13\tU%@'
p100
tp101
Rp102
ag10
(g14
S'\xf8\xc0\t\xf9Y]$@'
p103
tp104
Rp105
ag10
(g14
S' 1G\xb2\xbe\xa0%@'
p106
tp107
Rp108
ag10
(g14
S'v\xf6\x9a\x08\xa7\x8f%@'
p109
tp110
Rp111
ag10
(g14
S'\xb5\\(x\x81\xac&@'
p112
tp113
Rp114
ag10
(g14
S'\x80h\x81@\x1d\xef%@'
p115
tp116
Rp117
ag10
(g14
S'\xcd\xce\x8e;\xb5Q%@'
p118
tp119
Rp120
ag10
(g14
S"7\x1ds\xcd\x9c!'@"
p121
tp122
Rp123
ag10
(g14
S'\x1e\xf7\xc3j{\x80$@'
p124
tp125
Rp126
ag10
(g14
S'b(\xe8\xd3\xdb>&@'
p127
tp128
Rp129
ag10
(g14
S'\xc8\xf8\xfd\xe8\xc52&@'
p130
tp131
Rp132
ag10
(g14
S'\xbb\xfa>\xf9\xe3\x03&@'
p133
tp134
Rp135
ag10
(g14
S'\xd8\xbc?\x86\x82V%@'
p136
tp137
Rp138
asssss.