(dp0
S'../Data/sqlite_29.csv'
p1
(dp2
S'../Data/sqlite_88.csv'
p3
(dp4
F0.25
(dp5
S'mmre'
p6
(dp7
S'bellwether'
p8
(lp9
cnumpy.core.multiarray
scalar
p10
(cnumpy
dtype
p11
(S'f8'
p12
I0
I1
tp13
Rp14
(I3
S'<'
p15
NNNI-1
I-1
I0
tp16
bS'\x06\x1a\xa8\xe6\x8c#T@'
p17
tp18
Rp19
ag10
(g14
S'\xd1H\x916\xb7?T@'
p20
tp21
Rp22
ag10
(g14
S'-\xa9w\x85@|T@'
p23
tp24
Rp25
ag10
(g14
S'\x17:\xbe`\x06\xf3S@'
p26
tp27
Rp28
ag10
(g14
S'k\x90\x1d\x88\xfbZT@'
p29
tp30
Rp31
ag10
(g14
S'\x9b\x0c\x1b\r\x806T@'
p32
tp33
Rp34
ag10
(g14
S'u\xc3\xdf\xfc\x9fUT@'
p35
tp36
Rp37
ag10
(g14
S'\xa4~\xe8\x1a\xe3\\T@'
p38
tp39
Rp40
ag10
(g14
S'\x83 \xec\x95\xff:T@'
p41
tp42
Rp43
ag10
(g14
S'\x9bBy_\x1aBT@'
p44
tp45
Rp46
ag10
(g14
S'\x1am\xa1.\xb6{T@'
p47
tp48
Rp49
ag10
(g14
S'\x97E\xac{\xe0RT@'
p50
tp51
Rp52
ag10
(g14
S'\x9c+5\x1a\x96=T@'
p53
tp54
Rp55
ag10
(g14
S'\n\xb06\x10\x05/T@'
p56
tp57
Rp58
ag10
(g14
S'\x06\xee\xe4\xcfx?T@'
p59
tp60
Rp61
ag10
(g14
S'q\x8c\xd0\x80T<T@'
p62
tp63
Rp64
ag10
(g14
S'"\x0c4\x00`1T@'
p65
tp66
Rp67
ag10
(g14
S'2\x06~\xde\xfcZT@'
p68
tp69
Rp70
ag10
(g14
S']m0\xc8uIT@'
p71
tp72
Rp73
ag10
(g14
S'}[\xb4\x00\xfdGT@'
p74
tp75
Rp76
asS'target'
p77
(lp78
g10
(g14
S'P\x06\xbfeLmM@'
p79
tp80
Rp81
ag10
(g14
S'\\^\xef\x06\x94\x10L@'
p82
tp83
Rp84
ag10
(g14
S'\xbbn\xe4 \xc7\xfaM@'
p85
tp86
Rp87
ag10
(g14
S'\xd2\xbdE\xd73\x9fI@'
p88
tp89
Rp90
ag10
(g14
S'xw]\xf5\xdc\xdfL@'
p91
tp92
Rp93
ag10
(g14
S'fG\x0f\xad\xea\xebK@'
p94
tp95
Rp96
ag10
(g14
S'1\xc6*\x1fR\x1bO@'
p97
tp98
Rp99
ag10
(g14
S'\xb1\xe7\xd17b\xebM@'
p100
tp101
Rp102
ag10
(g14
S'7{@\xda\x9c\xa1H@'
p103
tp104
Rp105
ag10
(g14
S'\xd8FkY\xeb3N@'
p106
tp107
Rp108
ag10
(g14
S'\x1b;\xf4\xe0\x84\x8dN@'
p109
tp110
Rp111
ag10
(g14
S'\x8d\x9bS\xfe?\xf4L@'
p112
tp113
Rp114
ag10
(g14
S' \xc9\xf0c2\xefN@'
p115
tp116
Rp117
ag10
(g14
S'BT8\x9fZ\xacJ@'
p118
tp119
Rp120
ag10
(g14
S'\xbc\x13&\xe38\xd5K@'
p121
tp122
Rp123
ag10
(g14
S'\xca\x80\xfbz|\xb4M@'
p124
tp125
Rp126
ag10
(g14
S'\xc7\xafu\x90\xfb\x98L@'
p127
tp128
Rp129
ag10
(g14
S'\x117\x17b\x10\x93N@'
p130
tp131
Rp132
ag10
(g14
S'J\t\x9f\x143\x13O@'
p133
tp134
Rp135
ag10
(g14
S'\x9f@\xd8Y)mL@'
p136
tp137
Rp138
asssss.