(dp0
S'../Data/sqlite_94.csv'
p1
(dp2
S'../Data/sqlite_50.csv'
p3
(dp4
F0.05
(dp5
S'abs_res'
p6
(dp7
S'bellwether'
p8
(lp9
cnumpy.core.multiarray
scalar
p10
(cnumpy
dtype
p11
(S'f8'
p12
I0
I1
tp13
Rp14
(I3
S'<'
p15
NNNI-1
I-1
I0
tp16
bS'q\x14\xae\x87|g#A'
p17
tp18
Rp19
ag10
(g14
S'\x00\xaa\xf1R\xef\x94#A'
p20
tp21
Rp22
ag10
(g14
S'\x10\xac\x1cZ\xdb}#A'
p23
tp24
Rp25
ag10
(g14
S'\x86\x16\xd9N\x99S#A'
p26
tp27
Rp28
ag10
(g14
S'F5^\xba\xe2\xf7"A'
p29
tp30
Rp31
ag10
(g14
S'Nb\x10\xd8\xf7\x8c#A'
p32
tp33
Rp34
ag10
(g14
S"'\x06\x81\x95Q\\#A"
p35
tp36
Rp37
ag10
(g14
S'\n\xd7\xa3pg{#A'
p38
tp39
Rp40
ag10
(g14
S"'1\x08l\x14s#A"
p41
tp42
Rp43
ag10
(g14
S'Nb\x10\x18\x9cx#A'
p44
tp45
Rp46
ag10
(g14
S'\x80\x14\xae\x87\xdc`#A'
p47
tp48
Rp49
ag10
(g14
S'\xba\x9f\x1a/<R#A'
p50
tp51
Rp52
ag10
(g14
S'\xfe\xd4x)\x1d\xa1#A'
p53
tp54
Rp55
ag10
(g14
S'3^\xbaI+\x92#A'
p56
tp57
Rp58
ag10
(g14
S'\xd9\xf9~*\xf8W#A'
p59
tp60
Rp61
ag10
(g14
S'\nX9\xf4\xd6p#A'
p62
tp63
Rp64
ag10
(g14
S'U9\xb4H\xe7\x97#A'
p65
tp66
Rp67
ag10
(g14
S'^\x0e-rf\x8e#A'
p68
tp69
Rp70
ag10
(g14
S'9\xb4\xc8v\xd7_#A'
p71
tp72
Rp73
ag10
(g14
S'\x12X9\xf4"L#A'
p74
tp75
Rp76
asS'target'
p77
(lp78
g10
(g14
S'\xedS\xe3\xa5\x9b b@'
p79
tp80
Rp81
ag10
(g14
S'^\xb6\xf3\xfd\xd4p_@'
p82
tp83
Rp84
ag10
(g14
S'"/\xdd$\x06\xd1^@'
p85
tp86
Rp87
ag10
(g14
S'B\n\xd7\xa3p\xfd^@'
p88
tp89
Rp90
ag10
(g14
S'\xad\x1cZd;/`@'
p91
tp92
Rp93
ag10
(g14
S'\xffS\xe3\xa5\x9b|^@'
p94
tp95
Rp96
ag10
(g14
S'4\x89A`\xe5\\`@'
p97
tp98
Rp99
ag10
(g14
S'\x03\xd5x\xe9&ya@'
p100
tp101
Rp102
ag10
(g14
S'\x15\x02+\x87\x16\x11^@'
p103
tp104
Rp105
ag10
(g14
S'Y9\xb4\xc8v\x96]@'
p106
tp107
Rp108
ag10
(g14
S'\r\x02+\x87\x16U`@'
p109
tp110
Rp111
ag10
(g14
S'\x90l\xe7\xfb\xa9\xd1Y@'
p112
tp113
Rp114
ag10
(g14
S'o=\n\xd7\xa3P^@'
p115
tp116
Rp117
ag10
(g14
S'>\xdfO\x8d\x97\x96]@'
p118
tp119
Rp120
ag10
(g14
S'l;\xdfO\x8d\x8f[@'
p121
tp122
Rp123
ag10
(g14
S'\xba\xf3\xfd\xd4x\x91_@'
p124
tp125
Rp126
ag10
(g14
S'\xe5&1\x08\xaclb@'
p127
tp128
Rp129
ag10
(g14
S'\xcd\xcc\xcc\xcc\xcc\xa4]@'
p130
tp131
Rp132
ag10
(g14
S':\x89A`\xe5@a@'
p133
tp134
Rp135
ag10
(g14
S'\x8cl\xe7\xfb\xa9\xd9_@'
p136
tp137
Rp138
asssss.