(dp0
S'../Data/sqlite_14.csv'
p1
(dp2
S'../Data/sqlite_90.csv'
p3
(dp4
F0.1
(dp5
S'mmre'
p6
(dp7
S'bellwether'
p8
(lp9
cnumpy.core.multiarray
scalar
p10
(cnumpy
dtype
p11
(S'f8'
p12
I0
I1
tp13
Rp14
(I3
S'<'
p15
NNNI-1
I-1
I0
tp16
bS'y\xafi\x9ds"W@'
p17
tp18
Rp19
ag10
(g14
S'\x1c\x90\xc1G\xef(W@'
p20
tp21
Rp22
ag10
(g14
S'\xbc\x83>\x80\xb9!W@'
p23
tp24
Rp25
ag10
(g14
S'\xf4\x07\xa9L\xe2"W@'
p26
tp27
Rp28
ag10
(g14
S'c\xec\r,\x11&W@'
p29
tp30
Rp31
ag10
(g14
S'sQ\x909N+W@'
p32
tp33
Rp34
ag10
(g14
S'-v\xfc\x88\x83(W@'
p35
tp36
Rp37
ag10
(g14
S"\xed\x95\x81`\xc3'W@"
p38
tp39
Rp40
ag10
(g14
S'\xf6\xca\xfce\xbb)W@'
p41
tp42
Rp43
ag10
(g14
S'\xa9\x14\xeeq\x12)W@'
p44
tp45
Rp46
ag10
(g14
S'\xe2\xc2\xe2\xf2\xec)W@'
p47
tp48
Rp49
ag10
(g14
S'\xdf\xf5\x99\xb1\xdd%W@'
p50
tp51
Rp52
ag10
(g14
S'\xf1N\x94-\x9a%W@'
p53
tp54
Rp55
ag10
(g14
S's\xad\xd4\xae\xd2*W@'
p56
tp57
Rp58
ag10
(g14
S'\xfc\xc8W\xfdn+W@'
p59
tp60
Rp61
ag10
(g14
S'\xb2\xd3\xb8\x84\xa6$W@'
p62
tp63
Rp64
ag10
(g14
S'\xabc\x9b!\xdf%W@'
p65
tp66
Rp67
ag10
(g14
S'\xd9\xb4\xa2\xc9\x1d)W@'
p68
tp69
Rp70
ag10
(g14
S'v\xf8\xf5\xae\xcd!W@'
p71
tp72
Rp73
ag10
(g14
S'\x11\xcf\x92a\xa4*W@'
p74
tp75
Rp76
asS'target'
p77
(lp78
g10
(g14
S'\x05+j>\xc5GC@'
p79
tp80
Rp81
ag10
(g14
S'#E/u\x05\xea@@'
p82
tp83
Rp84
ag10
(g14
S'(j\xea\x87\x18\xacA@'
p85
tp86
Rp87
ag10
(g14
S'OG\xa2KP!@@'
p88
tp89
Rp90
ag10
(g14
S'\t\xd9\xf4\x0b\xe8\xee>@'
p91
tp92
Rp93
ag10
(g14
S'\x1dg<\xd8\xbdKA@'
p94
tp95
Rp96
ag10
(g14
S'+t\xe7~[\x8fA@'
p97
tp98
Rp99
ag10
(g14
S'\xa5\xf1G7\x01EA@'
p100
tp101
Rp102
ag10
(g14
S'}]\xa0#\xf7\x8aA@'
p103
tp104
Rp105
ag10
(g14
S'\x17Y1\xafr\x80D@'
p106
tp107
Rp108
ag10
(g14
S'wq\x91\xaaR\xe2B@'
p109
tp110
Rp111
ag10
(g14
S'\xdf\xecn\xf5o\xb8B@'
p112
tp113
Rp114
ag10
(g14
S'P\xce\xb8W2\xf3A@'
p115
tp116
Rp117
ag10
(g14
S'\xd6\x01Q\xbd!\x1bB@'
p118
tp119
Rp120
ag10
(g14
S'\x8f\\\xbb\x0f\xb3 A@'
p121
tp122
Rp123
ag10
(g14
S';\xa8`\x80e\xf7A@'
p124
tp125
Rp126
ag10
(g14
S'[>h\x91)xB@'
p127
tp128
Rp129
ag10
(g14
S'I\x86\x8a&ez@@'
p130
tp131
Rp132
ag10
(g14
S'\x87*\xf1P\x89(@@'
p133
tp134
Rp135
ag10
(g14
S'-Q\xee\xdf\xdcvA@'
p136
tp137
Rp138
asssss.