(dp0
S'../Data/sqlite_36.csv'
p1
(dp2
S'../Data/sqlite_77.csv'
p3
(dp4
F0.35
(dp5
S'mmre'
p6
(dp7
S'bellwether'
p8
(lp9
cnumpy.core.multiarray
scalar
p10
(cnumpy
dtype
p11
(S'f8'
p12
I0
I1
tp13
Rp14
(I3
S'<'
p15
NNNI-1
I-1
I0
tp16
bS':\x1c8+\x9a[V@'
p17
tp18
Rp19
ag10
(g14
S'\xaf\xc9\x19\xd7/^V@'
p20
tp21
Rp22
ag10
(g14
S'`\x85"\xc8JXV@'
p23
tp24
Rp25
ag10
(g14
S'\xa3\x8b\xf3\n\x10aV@'
p26
tp27
Rp28
ag10
(g14
S'[\xf2\x11\x1b\xaf\\V@'
p29
tp30
Rp31
ag10
(g14
S'M\xed\xfe\xe5\x95WV@'
p32
tp33
Rp34
ag10
(g14
S'\xf1\xc6\x0f\xc9cXV@'
p35
tp36
Rp37
ag10
(g14
S'U\x1b\x144\x15YV@'
p38
tp39
Rp40
ag10
(g14
S'%\x8e\n\xdb\x06ZV@'
p41
tp42
Rp43
ag10
(g14
S'JM\x8d~z\\V@'
p44
tp45
Rp46
ag10
(g14
S'\xd64\x13!\xe4ZV@'
p47
tp48
Rp49
ag10
(g14
S'0\x94g\xd2\x91`V@'
p50
tp51
Rp52
ag10
(g14
S'@\xa1\x03\xb4\xe9aV@'
p53
tp54
Rp55
ag10
(g14
S'\xa0\x03\xa0\x05\xa0`V@'
p56
tp57
Rp58
ag10
(g14
S'\xb8\xf3iHJ`V@'
p59
tp60
Rp61
ag10
(g14
S'u\xd9\xcc\x0e\xc6XV@'
p62
tp63
Rp64
ag10
(g14
S'L+4Wz^V@'
p65
tp66
Rp67
ag10
(g14
S'f\x1cW{\x04\\V@'
p68
tp69
Rp70
ag10
(g14
S"'\x13\xff\x8eY]V@"
p71
tp72
Rp73
ag10
(g14
S'\xba\x834\xd1]YV@'
p74
tp75
Rp76
asS'target'
p77
(lp78
g10
(g14
S'\xa0\x14b:\xac\x886@'
p79
tp80
Rp81
ag10
(g14
S"'\xfb\xdb6{{5@"
p82
tp83
Rp84
ag10
(g14
S';3\x16)\x08\x037@'
p85
tp86
Rp87
ag10
(g14
S'\xfe\xef\x0b;jc5@'
p88
tp89
Rp90
ag10
(g14
S'\xcf\x1d&\xba\x91K6@'
p91
tp92
Rp93
ag10
(g14
S'{o\xe5\xbc\x1c~7@'
p94
tp95
Rp96
ag10
(g14
S'\xcfl1\x86=<5@'
p97
tp98
Rp99
ag10
(g14
S'n\xf3\xe1\xcc\x8c\xa26@'
p100
tp101
Rp102
ag10
(g14
S'8\xc1Uc\xf2\xa45@'
p103
tp104
Rp105
ag10
(g14
S'\xf1\x10\x90\xf6\x94I6@'
p106
tp107
Rp108
ag10
(g14
S'J\xa6\x10\x9b\xc9\xe86@'
p109
tp110
Rp111
ag10
(g14
S'!=`\xd7\x82y5@'
p112
tp113
Rp114
ag10
(g14
S'\xf9x\xbb\xb3e\x126@'
p115
tp116
Rp117
ag10
(g14
S'\xaa\x1e\x8fw1\xd84@'
p118
tp119
Rp120
ag10
(g14
S'.\x12Im\x9b56@'
p121
tp122
Rp123
ag10
(g14
S'\x87O\xc4\x95(}6@'
p124
tp125
Rp126
ag10
(g14
S'\x8e\xf1\xfb\xdf\x04\x0c6@'
p127
tp128
Rp129
ag10
(g14
S'\xf3t\xb9\x1e\x86\xc66@'
p130
tp131
Rp132
ag10
(g14
S'h\r\t\x7f`\x8f5@'
p133
tp134
Rp135
ag10
(g14
S'\x9b&\x88\xad\xc4 5@'
p136
tp137
Rp138
asssss.