(dp0
S'../Data/sqlite_51.csv'
p1
(dp2
S'../Data/sqlite_85.csv'
p3
(dp4
F0.05
(dp5
S'abs_res'
p6
(dp7
S'bellwether'
p8
(lp9
cnumpy.core.multiarray
scalar
p10
(cnumpy
dtype
p11
(S'f8'
p12
I0
I1
tp13
Rp14
(I3
S'<'
p15
NNNI-1
I-1
I0
tp16
bS'\xbdt\x93\xa4\xf31ZA'
p17
tp18
Rp19
ag10
(g14
S'\xc1t\x93x\x941ZA'
p20
tp21
Rp22
ag10
(g14
S'\r\xd7\xa3x\x168ZA'
p23
tp24
Rp25
ag10
(g14
S':\x89A\x08\xa8)ZA'
p26
tp27
Rp28
ag10
(g14
S'-\xb2\x9dOf-ZA'
p29
tp30
Rp31
ag10
(g14
S'\xce \xb0B\xd9IZA'
p32
tp33
Rp34
ag10
(g14
S'G\xee5_\xc2.ZA'
p35
tp36
Rp37
ag10
(g14
S'\xab)\x15[I*ZA'
p38
tp39
Rp40
ag10
(g14
S'\xa2\xef\xa7\x92\xebQZA'
p41
tp42
Rp43
ag10
(g14
S'\xe6\xfb\xa9\t\xeb-ZA'
p44
tp45
Rp46
ag10
(g14
S'f9\xb4\\\\HZA'
p47
tp48
Rp49
ag10
(g14
S'Q\xe1zh\x11<ZA'
p50
tp51
Rp52
ag10
(g14
S'\xb6\x1cZ\x04qCZA'
p53
tp54
Rp55
ag10
(g14
S'\xb7\xf3\xfd\x80{1ZA'
p56
tp57
Rp58
ag10
(g14
S"\x1e\x06\x81\xe5''ZA"
p59
tp60
Rp61
ag10
(g14
S']d;GgDZA'
p62
tp63
Rp64
ag10
(g14
S'\xdd\x06:\xd9oCZA'
p65
tp66
Rp67
ag10
(g14
S'h\xbct\xbfA%ZA'
p68
tp69
Rp70
ag10
(g14
S'\xc1t\x93d\x184ZA'
p71
tp72
Rp73
ag10
(g14
S'\xcf"\xdb\xc1\x9d0ZA'
p74
tp75
Rp76
asS'target'
p77
(lp78
g10
(g14
S'\x1d\xaeG\xe1\xdd!BA'
p79
tp80
Rp81
ag10
(g14
S'\x90\xc2\xf5\x88@nAA'
p82
tp83
Rp84
ag10
(g14
S'\xa8p=\xca\xc2\xccBA'
p85
tp86
Rp87
ag10
(g14
S'W\xb8\x1ee6AEA'
p88
tp89
Rp90
ag10
(g14
S'@333\x97\x9aCA'
p91
tp92
Rp93
ag10
(g14
S'off\x86\xe2\xe1CA'
p94
tp95
Rp96
ag10
(g14
S'\xe4z\x14\xee\xe0\xc8BA'
p97
tp98
Rp99
ag10
(g14
S'hff\xe6\xb2\xfbHA'
p100
tp101
Rp102
ag10
(g14
S'.33\xf3tkBA'
p103
tp104
Rp105
ag10
(g14
S'%\x85\xebQ\xe0\xa2AA'
p106
tp107
Rp108
ag10
(g14
S'\xefQ\xb8~+\x98BA'
p109
tp110
Rp111
ag10
(g14
S'[\x8f\xc2\xd5\xbc\x01EA'
p112
tp113
Rp114
ag10
(g14
S'\xa4p=\xea.\xb0DA'
p115
tp116
Rp117
ag10
(g14
S'\xa7p=\x8a\x08\xe5BA'
p118
tp119
Rp120
ag10
(g14
S'eff\xa6\xd2\x1bCA'
p121
tp122
Rp123
ag10
(g14
S'@\xe1z4M.GA'
p124
tp125
Rp126
ag10
(g14
S'\\\x8f\xc2u\x86TDA'
p127
tp128
Rp129
ag10
(g14
S'433s\x95\x87AA'
p130
tp131
Rp132
ag10
(g14
S'cff\xa6e\xffBA'
p133
tp134
Rp135
ag10
(g14
S'L\xb8\x1eE\x03\x18EA'
p136
tp137
Rp138
asssss.