(dp0
S'../Data/sqlite_57.csv'
p1
(dp2
S'../Data/sqlite_8.csv'
p3
(dp4
F0.3
(dp5
S'abs_res'
p6
(dp7
S'bellwether'
p8
(lp9
cnumpy.core.multiarray
scalar
p10
(cnumpy
dtype
p11
(S'f8'
p12
I0
I1
tp13
Rp14
(I3
S'<'
p15
NNNI-1
I-1
I0
tp16
bS'C`\xe5$pYdA'
p17
tp18
Rp19
ag10
(g14
S'\t\xd7\xa3p\xe0YdA'
p20
tp21
Rp22
ag10
(g14
S'1\xdd$N\xb5edA'
p23
tp24
Rp25
ag10
(g14
S'"Zds\x83\\dA'
p26
tp27
Rp28
ag10
(g14
S'\x14\x83\xc0\xa2"WdA'
p29
tp30
Rp31
ag10
(g14
S'\xfeS\xe3\xf9\xf1XdA'
p32
tp33
Rp34
ag10
(g14
S'}j\xbc\xd0\x18bdA'
p35
tp36
Rp37
ag10
(g14
S'xj\xbc\xe8\xe3ddA'
p38
tp39
Rp40
ag10
(g14
S'P\xb8\x1e\x15\x8ehdA'
p41
tp42
Rp43
ag10
(g14
S'\xfd\xa9\xf1\x86\xd0]dA'
p44
tp45
Rp46
ag10
(g14
S'\xc5\xf5(\xd0\xfb`dA'
p47
tp48
Rp49
ag10
(g14
S'\x00+\x87z\x00[dA'
p50
tp51
Rp52
ag10
(g14
S'\\\xbaIL(ddA'
p53
tp54
Rp55
ag10
(g14
S'\xb5\x1e\x85\xc7=`dA'
p56
tp57
Rp58
ag10
(g14
S',1\x08\xb0>_dA'
p59
tp60
Rp61
ag10
(g14
S'\xd4\xf7S\x17\x7fedA'
p62
tp63
Rp64
ag10
(g14
S'\xf5&1\xdcUgdA'
p65
tp66
Rp67
ag10
(g14
S'K7\x89y\xeffdA'
p68
tp69
Rp70
ag10
(g14
S'i;\xdf;EXdA'
p71
tp72
Rp73
ag10
(g14
S'\x89\x97n*\xb0gdA'
p74
tp75
Rp76
asS'target'
p77
(lp78
g10
(g14
S'J\xe1z\x14\xae\xbbU@'
p79
tp80
Rp81
ag10
(g14
S'7\xdfO\x8d\x97:U@'
p82
tp83
Rp84
ag10
(g14
S'\xbat\x93\x18\x04FV@'
p85
tp86
Rp87
ag10
(g14
S':\xb4\xc8v\xbe\xafU@'
p88
tp89
Rp90
ag10
(g14
S'\n\xd7\xa3p=\x0eW@'
p91
tp92
Rp93
ag10
(g14
S'\x8aA`\xe5\xd0\x82X@'
p94
tp95
Rp96
ag10
(g14
S'03333\xf3T@'
p97
tp98
Rp99
ag10
(g14
S'g\xbaI\x0c\x02gW@'
p100
tp101
Rp102
ag10
(g14
S'"\xb0rh\x91\xddT@'
p103
tp104
Rp105
ag10
(g14
S'\xab\xf1\xd2Mb0U@'
p106
tp107
Rp108
ag10
(g14
S'V\x8d\x97n\x12#V@'
p109
tp110
Rp111
ag10
(g14
S'dffff\xeeU@'
p112
tp113
Rp114
ag10
(g14
S'jffffFU@'
p115
tp116
Rp117
ag10
(g14
S'\x04V\x0e-\xb2\xc9U@'
p118
tp119
Rp120
ag10
(g14
S'u\x12\x83\xc0\xca\xd9U@'
p121
tp122
Rp123
ag10
(g14
S' Zd;\xdf\x87T@'
p124
tp125
Rp126
ag10
(g14
S'\xaerh\x91\xedtX@'
p127
tp128
Rp129
ag10
(g14
S'\t\x81\x95C\x8b\xc8V@'
p130
tp131
Rp132
ag10
(g14
S'\xa0\xef\xa7\xc6K7V@'
p133
tp134
Rp135
ag10
(g14
S'\x02\x00\x00\x00\x00\x94U@'
p136
tp137
Rp138
asssss.