(dp0
S'../Data/sqlite_56.csv'
p1
(dp2
S'../Data/sqlite_76.csv'
p3
(dp4
F0.05
(dp5
S'mmre'
p6
(dp7
S'bellwether'
p8
(lp9
cnumpy.core.multiarray
scalar
p10
(cnumpy
dtype
p11
(S'f8'
p12
I0
I1
tp13
Rp14
(I3
S'<'
p15
NNNI-1
I-1
I0
tp16
bS'\xc7\xf2\xfej40P@'
p17
tp18
Rp19
ag10
(g14
S'\x0c\xaek\xb0\x86)P@'
p20
tp21
Rp22
ag10
(g14
S'\xef*@\xddi.P@'
p23
tp24
Rp25
ag10
(g14
S'\x8c\xea\xa8M\x14/P@'
p26
tp27
Rp28
ag10
(g14
S'\x8aG\xa5\x16\x9d)P@'
p29
tp30
Rp31
ag10
(g14
S'\x99\x7f\x99\x99\x8c,P@'
p32
tp33
Rp34
ag10
(g14
S'\xf8X \xca}/P@'
p35
tp36
Rp37
ag10
(g14
S'Wx\xd4\x05\x13-P@'
p38
tp39
Rp40
ag10
(g14
S'\xa6\x94O\xc6I*P@'
p41
tp42
Rp43
ag10
(g14
S'\x9dG9\x9d\xe4.P@'
p44
tp45
Rp46
ag10
(g14
S'\x9d\xc6\xaa\xbe[.P@'
p47
tp48
Rp49
ag10
(g14
S'3\xaf\x0ef\xc9+P@'
p50
tp51
Rp52
ag10
(g14
S'\x0f\x84N\x10A.P@'
p53
tp54
Rp55
ag10
(g14
S'X\xb3\x16j>+P@'
p56
tp57
Rp58
ag10
(g14
S'y\xe0<\x8b\xec/P@'
p59
tp60
Rp61
ag10
(g14
S"\x8c\x98x\xc3b'P@"
p62
tp63
Rp64
ag10
(g14
S'=5c/O,P@'
p65
tp66
Rp67
ag10
(g14
S'\xfdA\xb4\xff\xcd.P@'
p68
tp69
Rp70
ag10
(g14
S"\x93\xd3N\xb6'*P@"
p71
tp72
Rp73
ag10
(g14
S'\x13\x80\xc1\xd7#*P@'
p74
tp75
Rp76
asS'target'
p77
(lp78
g10
(g14
S'\xff~>q\xb1U/@'
p79
tp80
Rp81
ag10
(g14
S'NN,s\xb2\x871@'
p82
tp83
Rp84
ag10
(g14
S'[\xa9\x93\xdd;W0@'
p85
tp86
Rp87
ag10
(g14
S'\xa8\xb92k8\xb00@'
p88
tp89
Rp90
ag10
(g14
S'\x89\xb9\xc9\xa3\xad\x992@'
p91
tp92
Rp93
ag10
(g14
S'\xe9\x80\xa6 \x17\xcb/@'
p94
tp95
Rp96
ag10
(g14
S'dd}\xcb\xefE1@'
p97
tp98
Rp99
ag10
(g14
S'*\xe8\xac\xc7*_3@'
p100
tp101
Rp102
ag10
(g14
S'\xeai\x89\xad\x0b\x8e2@'
p103
tp104
Rp105
ag10
(g14
S'O\xa4S=\x83+2@'
p106
tp107
Rp108
ag10
(g14
S'\xf4\xcd\xdcN\x17/1@'
p109
tp110
Rp111
ag10
(g14
S'\x9b{z\xc3\xd6N1@'
p112
tp113
Rp114
ag10
(g14
S'r\xa4\x97\xaf\x08\x860@'
p115
tp116
Rp117
ag10
(g14
S'\xb9\rg\x9c\x85\xbd2@'
p118
tp119
Rp120
ag10
(g14
S'\x9b<\xf5Mm\x8a2@'
p121
tp122
Rp123
ag10
(g14
S'\x8d3\xa5\xc2\x95\x9f1@'
p124
tp125
Rp126
ag10
(g14
S'JGJ\x14\x8ap0@'
p127
tp128
Rp129
ag10
(g14
S'\\\xd0\x1f:d+1@'
p130
tp131
Rp132
ag10
(g14
S'_`\xe7lNQ2@'
p133
tp134
Rp135
ag10
(g14
S'\xc8\x12_0\xa8\xa21@'
p136
tp137
Rp138
asssss.