(dp0
S'../Data/sqlite_22.csv'
p1
(dp2
S'../Data/sqlite_89.csv'
p3
(dp4
F0.15
(dp5
S'mmre'
p6
(dp7
S'bellwether'
p8
(lp9
cnumpy.core.multiarray
scalar
p10
(cnumpy
dtype
p11
(S'f8'
p12
I0
I1
tp13
Rp14
(I3
S'<'
p15
NNNI-1
I-1
I0
tp16
bS'z6\xb6\xd5z,R@'
p17
tp18
Rp19
ag10
(g14
S'GhF\xe9J\x1aR@'
p20
tp21
Rp22
ag10
(g14
S'{\x17\xd3cj%R@'
p23
tp24
Rp25
ag10
(g14
S'\x1a\xb7\xf7tj*R@'
p26
tp27
Rp28
ag10
(g14
S'9\xc7@\xf5i\x1dR@'
p29
tp30
Rp31
ag10
(g14
S'V\xa8[4E+R@'
p32
tp33
Rp34
ag10
(g14
S'\x8d{r\xf2\x7f#R@'
p35
tp36
Rp37
ag10
(g14
S'\x1e\x82\xb4\xe93$R@'
p38
tp39
Rp40
ag10
(g14
S'"\xc9\xaaEx/R@'
p41
tp42
Rp43
ag10
(g14
S'\xde\xc7\xb0\xb8\r"R@'
p44
tp45
Rp46
ag10
(g14
S'\x03\xde\x0eZ\xa1%R@'
p47
tp48
Rp49
ag10
(g14
S'\xfc\xb0\xbc\x82})R@'
p50
tp51
Rp52
ag10
(g14
S'c5\xcdgR0R@'
p53
tp54
Rp55
ag10
(g14
S'\x1f\x17\x1aK\xc3&R@'
p56
tp57
Rp58
ag10
(g14
S'S\xbc\x9b>\xb0)R@'
p59
tp60
Rp61
ag10
(g14
S'\xcd\xde\xc3\x17D)R@'
p62
tp63
Rp64
ag10
(g14
S'\xfc\x860\x13\x0c-R@'
p65
tp66
Rp67
ag10
(g14
S'\x93\xb1Nq/(R@'
p68
tp69
Rp70
ag10
(g14
S'\xd0,euq(R@'
p71
tp72
Rp73
ag10
(g14
S'\x86\xd1\x96\x82\xbc&R@'
p74
tp75
Rp76
asS'target'
p77
(lp78
g10
(g14
S'\xec\xd2\xf7\x9c \x1bH@'
p79
tp80
Rp81
ag10
(g14
S'\xc4\x15\x9b\xf8a\xc9P@'
p82
tp83
Rp84
ag10
(g14
S'";\xb4F=\xcbX@'
p85
tp86
Rp87
ag10
(g14
S'\xf6\xe2\x98\xc2\xe6+R@'
p88
tp89
Rp90
ag10
(g14
S'\xd7\x9cxU7\x9eZ@'
p91
tp92
Rp93
ag10
(g14
S'K\xd9+\x99\xe2\x98S@'
p94
tp95
Rp96
ag10
(g14
S'\x0b\xf5y/\xc38R@'
p97
tp98
Rp99
ag10
(g14
S'\xf3\r\xb5\x85l.W@'
p100
tp101
Rp102
ag10
(g14
S'\x94\xac5\xbe\xf3\xdaR@'
p103
tp104
Rp105
ag10
(g14
S'\xb6I\xb2\xfdH\x06S@'
p106
tp107
Rp108
ag10
(g14
S'`\xe4I9j\xe9P@'
p109
tp110
Rp111
ag10
(g14
S'\x00\x17\x8e5\xdc\xd4L@'
p112
tp113
Rp114
ag10
(g14
S'NB\xa3a\xd3cP@'
p115
tp116
Rp117
ag10
(g14
S'MN*\xcdZ\xa0O@'
p118
tp119
Rp120
ag10
(g14
S'";\xa4\x00\xc4\xeaO@'
p121
tp122
Rp123
ag10
(g14
S'\xa9U\xd99\x1f\x8bT@'
p124
tp125
Rp126
ag10
(g14
S'-\xea=\xc5\xed\xbdQ@'
p127
tp128
Rp129
ag10
(g14
S'\xf8Y@\xf4\xc7rP@'
p130
tp131
Rp132
ag10
(g14
S'$Mb0\xb6\xaeV@'
p133
tp134
Rp135
ag10
(g14
S'd\xa8\x0c\x0b\xaf\xf5J@'
p136
tp137
Rp138
asssss.