(dp0
S'../Data/sqlite_9.csv'
p1
(dp2
S'../Data/sqlite_96.csv'
p3
(dp4
F0.35
(dp5
S'mmre'
p6
(dp7
S'bellwether'
p8
(lp9
cnumpy.core.multiarray
scalar
p10
(cnumpy
dtype
p11
(S'f8'
p12
I0
I1
tp13
Rp14
(I3
S'<'
p15
NNNI-1
I-1
I0
tp16
bS'Q\xb9j:\x89(X@'
p17
tp18
Rp19
ag10
(g14
S'\xb9\xa9\xb3|.(X@'
p20
tp21
Rp22
ag10
(g14
S'@C\x01\xaf\xd7&X@'
p23
tp24
Rp25
ag10
(g14
S'Y\x1c\xb9:\x03)X@'
p26
tp27
Rp28
ag10
(g14
S'\xac\x95\x83#\xdc(X@'
p29
tp30
Rp31
ag10
(g14
S"\xf8\xa3\xe3D8'X@"
p32
tp33
Rp34
ag10
(g14
S'\x9f\x87\xd87H)X@'
p35
tp36
Rp37
ag10
(g14
S'\xe53\xa6\xc1L)X@'
p38
tp39
Rp40
ag10
(g14
S'c\x10\x86|\x0e+X@'
p41
tp42
Rp43
ag10
(g14
S'\xf3\xe4\r\xd1\xc9&X@'
p44
tp45
Rp46
ag10
(g14
S'%\xb3._q(X@'
p47
tp48
Rp49
ag10
(g14
S'\xb9kCzd&X@'
p50
tp51
Rp52
ag10
(g14
S'\x97\xf5\xe6\xdf:(X@'
p53
tp54
Rp55
ag10
(g14
S'\x14\xd4f@\xd0(X@'
p56
tp57
Rp58
ag10
(g14
S'\xe2&\x8c\xa1\x8a)X@'
p59
tp60
Rp61
ag10
(g14
S"\xd3S:\x9f\xfb'X@"
p62
tp63
Rp64
ag10
(g14
S"/\x19\x08\xbb\x9e'X@"
p65
tp66
Rp67
ag10
(g14
S'\xe7z\xc6N6(X@'
p68
tp69
Rp70
ag10
(g14
S'\xa5h\x92\xeb\xa0)X@'
p71
tp72
Rp73
ag10
(g14
S'\x01\xa8o\x8e\xb0(X@'
p74
tp75
Rp76
asS'target'
p77
(lp78
g10
(g14
S'/&Kk\xd0~M@'
p79
tp80
Rp81
ag10
(g14
S'\x81\xf3\xe1\x94\x9d\xcdR@'
p82
tp83
Rp84
ag10
(g14
S'\xafF\x85k#/V@'
p85
tp86
Rp87
ag10
(g14
S'u\x10m\x86\xba_P@'
p88
tp89
Rp90
ag10
(g14
S"n'\xc3\x0cZ\x88[@"
p91
tp92
Rp93
ag10
(g14
S'xM\\LY\xf9T@'
p94
tp95
Rp96
ag10
(g14
S'Ap,@\xfa/P@'
p97
tp98
Rp99
ag10
(g14
S'\xf6\xa0S\x07\x8dZH@'
p100
tp101
Rp102
ag10
(g14
S'\xc4g\xb5\x0b|\xcbF@'
p103
tp104
Rp105
ag10
(g14
S'\x9a+R\xbbz\x08W@'
p106
tp107
Rp108
ag10
(g14
S'8\x9d.\n\x1ffJ@'
p109
tp110
Rp111
ag10
(g14
S'0<\xf4\xfaNdS@'
p112
tp113
Rp114
ag10
(g14
S'?\xf1u\x81\xa0\x8bM@'
p115
tp116
Rp117
ag10
(g14
S'H\xd6\x16\xa2\xc9\x91S@'
p118
tp119
Rp120
ag10
(g14
S'\xfbr\xd9<\x07\xebT@'
p121
tp122
Rp123
ag10
(g14
S'\x07\xf2\x11j\xac\xe6R@'
p124
tp125
Rp126
ag10
(g14
S'I\xc8\xec>\x14\x1bR@'
p127
tp128
Rp129
ag10
(g14
S'\x1a\xef\x83[\xa1\xdaP@'
p130
tp131
Rp132
ag10
(g14
S'bzE\r~#W@'
p133
tp134
Rp135
ag10
(g14
S'h\xe1\xa8\xddhdI@'
p136
tp137
Rp138
asssss.