(dp0
S'../Data/sqlite_33.csv'
p1
(dp2
S'../Data/sqlite_96.csv'
p3
(dp4
F0.3
(dp5
S'mmre'
p6
(dp7
S'bellwether'
p8
(lp9
cnumpy.core.multiarray
scalar
p10
(cnumpy
dtype
p11
(S'f8'
p12
I0
I1
tp13
Rp14
(I3
S'<'
p15
NNNI-1
I-1
I0
tp16
bS'MK\x855\xa5AU@'
p17
tp18
Rp19
ag10
(g14
S'a\x7f\x03WB?U@'
p20
tp21
Rp22
ag10
(g14
S'\x85\xe6>C\x158U@'
p23
tp24
Rp25
ag10
(g14
S'K\xef\x072\n3U@'
p26
tp27
Rp28
ag10
(g14
S'\x9c~\x00\x05uIU@'
p29
tp30
Rp31
ag10
(g14
S'\x98\x99\xc4\xd1==U@'
p32
tp33
Rp34
ag10
(g14
S'[r]3\x12CU@'
p35
tp36
Rp37
ag10
(g14
S'\x0f\xe8\xf3\x12;DU@'
p38
tp39
Rp40
ag10
(g14
S'\xf0Tb\x07\xb98U@'
p41
tp42
Rp43
ag10
(g14
S'\x1c\x9e\xd4I\xd4AU@'
p44
tp45
Rp46
ag10
(g14
S'"N\x95>\x14:U@'
p47
tp48
Rp49
ag10
(g14
S'9\x98\xceOI>U@'
p50
tp51
Rp52
ag10
(g14
S'\xa9\xbaY]\x11>U@'
p53
tp54
Rp55
ag10
(g14
S'9$\xc6Y\xab=U@'
p56
tp57
Rp58
ag10
(g14
S't\xd4$~1HU@'
p59
tp60
Rp61
ag10
(g14
S'\xde\x01\x8e\xff\xf58U@'
p62
tp63
Rp64
ag10
(g14
S'\x8b\xe9$\x0fPBU@'
p65
tp66
Rp67
ag10
(g14
S'\x8ei\x1c\x89\x0eAU@'
p68
tp69
Rp70
ag10
(g14
S'*y\xf3\xe5\x9dAU@'
p71
tp72
Rp73
ag10
(g14
S'\rb7./HU@'
p74
tp75
Rp76
asS'target'
p77
(lp78
g10
(g14
S'l}\xaa\x18\xd4\x0bO@'
p79
tp80
Rp81
ag10
(g14
S'\xf9\xbdV\xb0@QY@'
p82
tp83
Rp84
ag10
(g14
S'\x10\x9e\xea\xeeF\x08V@'
p85
tp86
Rp87
ag10
(g14
S'\xd5\xc8,<\x90\x92P@'
p88
tp89
Rp90
ag10
(g14
S'!\xacF\xf4[\nK@'
p91
tp92
Rp93
ag10
(g14
S'\xd0\xbb\xb8A\xfbIT@'
p94
tp95
Rp96
ag10
(g14
S'4\x9e0\x94-`P@'
p97
tp98
Rp99
ag10
(g14
S'\xbc6b\xce\xf5\xb7W@'
p100
tp101
Rp102
ag10
(g14
S'\xfe\xae\xd2\xfd\xdf\x8bJ@'
p103
tp104
Rp105
ag10
(g14
S'\xc4\x95&aHcM@'
p106
tp107
Rp108
ag10
(g14
S'\xa7\x06\xcbo\xc5\x0fG@'
p109
tp110
Rp111
ag10
(g14
S'\x96\xd3k\xe5h`R@'
p112
tp113
Rp114
ag10
(g14
S'\x012H \x85\\Q@'
p115
tp116
Rp117
ag10
(g14
S'\x1c\xd2L\xda\x06uS@'
p118
tp119
Rp120
ag10
(g14
S'\xee\xdcL\x08\xc0\xceM@'
p121
tp122
Rp123
ag10
(g14
S'\xa0\xa6,\xc7t\x1e\\@'
p124
tp125
Rp126
ag10
(g14
S' \x99\x13\x11\x87,K@'
p127
tp128
Rp129
ag10
(g14
S'7\x87\xeb\xd2kqV@'
p130
tp131
Rp132
ag10
(g14
S'Pe(C4\x81K@'
p133
tp134
Rp135
ag10
(g14
S'\xe9\x83|\xbd97^@'
p136
tp137
Rp138
asssss.