(dp0
S'../Data/sqlite_32.csv'
p1
(dp2
S'../Data/sqlite_49.csv'
p3
(dp4
F0.25
(dp5
S'abs_res'
p6
(dp7
S'bellwether'
p8
(lp9
cnumpy.core.multiarray
scalar
p10
(cnumpy
dtype
p11
(S'f8'
p12
I0
I1
tp13
Rp14
(I3
S'<'
p15
NNNI-1
I-1
I0
tp16
bS'j\xbctSqAAA'
p17
tp18
Rp19
ag10
(g14
S'J\xe1z\xd4\xf7?AA'
p20
tp21
Rp22
ag10
(g14
S'<\n\xd7\x03hAAA'
p23
tp24
Rp25
ag10
(g14
S'\xa6p=z\xda>AA'
p26
tp27
Rp28
ag10
(g14
S'\x0fX9t"@AA'
p29
tp30
Rp31
ag10
(g14
S'\xab\xc6K\x97UAAA'
p32
tp33
Rp34
ag10
(g14
S'K\x8d\x97\x0eTAAA'
p35
tp36
Rp37
ag10
(g14
S's\x93\x18\x14\x98?AA'
p38
tp39
Rp40
ag10
(g14
S'\xf4\xd2MR&AAA'
p41
tp42
Rp43
ag10
(g14
S'\xa1E\xb6\xa3\x9a@AA'
p44
tp45
Rp46
ag10
(g14
S'\x17Zd\x8b\xb6@AA'
p47
tp48
Rp49
ag10
(g14
S'V9\xb4H\x08@AA'
p50
tp51
Rp52
ag10
(g14
S'w\xe9&\xa1x@AA'
p53
tp54
Rp55
ag10
(g14
S'F7\x89QM@AA'
p56
tp57
Rp58
ag10
(g14
S'\x1a\xdb\xf9>\\@AA'
p59
tp60
Rp61
ag10
(g14
S'533c\xc5?AA'
p62
tp63
Rp64
ag10
(g14
S'\x1d\x85\xeb\x91^@AA'
p65
tp66
Rp67
ag10
(g14
S'3\x08\xaclz>AA'
p68
tp69
Rp70
ag10
(g14
S'dff\x16\xc0=AA'
p71
tp72
Rp73
ag10
(g14
S'\x83\xc0\xca\x01\x1eAAA'
p74
tp75
Rp76
asS'target'
p77
(lp78
g10
(g14
S'\xb3\x9d\xef\xa7\xc6Se@'
p79
tp80
Rp81
ag10
(g14
S'B5^\xbaI\x14d@'
p82
tp83
Rp84
ag10
(g14
S':\xb4\xc8v\xbe\xffd@'
p85
tp86
Rp87
ag10
(g14
S' \x85\xebQ\xb8Ne@'
p88
tp89
Rp90
ag10
(g14
S'\xb3G\xe1z\x14Nd@'
p91
tp92
Rp93
ag10
(g14
S'N\x8bl\xe7\xfb\xd1c@'
p94
tp95
Rp96
ag10
(g14
S']UUUUAf@'
p97
tp98
Rp99
ag10
(g14
S'\xef\xa7\xc6K7\xfbd@'
p100
tp101
Rp102
ag10
(g14
S',\x06\x81\x95C\xe7e@'
p103
tp104
Rp105
ag10
(g14
S'8\x08\xac\x1cZ\xc8e@'
p106
tp107
Rp108
ag10
(g14
S'\xfe(\\\x8f\xc2\xfdd@'
p109
tp110
Rp111
ag10
(g14
S'\xad\xf1\xd2Mb\xa6f@'
p112
tp113
Rp114
ag10
(g14
S'\xef\xd0"\xdb\xf9ve@'
p115
tp116
Rp117
ag10
(g14
S'R\x8d\x97n\x12]d@'
p118
tp119
Rp120
ag10
(g14
S'\xb2\x1cZd;\xe7d@'
p121
tp122
Rp123
ag10
(g14
S'\xf0|?5^2d@'
p124
tp125
Rp126
ag10
(g14
S'\xeb&1\x08\xacdd@'
p127
tp128
Rp129
ag10
(g14
S'j\x12\x83\xc0\xca\xade@'
p130
tp131
Rp132
ag10
(g14
S'\xfe\xb8\xd7\\H<e@'
p133
tp134
Rp135
ag10
(g14
S'\xc0\xca\xa1E\xb6\xa7e@'
p136
tp137
Rp138
asssss.