(dp0
S'../Data/sqlite_66.csv'
p1
(dp2
S'../Data/sqlite_85.csv'
p3
(dp4
F0.3
(dp5
S'mmre'
p6
(dp7
S'bellwether'
p8
(lp9
cnumpy.core.multiarray
scalar
p10
(cnumpy
dtype
p11
(S'f8'
p12
I0
I1
tp13
Rp14
(I3
S'<'
p15
NNNI-1
I-1
I0
tp16
bS'49.\x15\xc1SU@'
p17
tp18
Rp19
ag10
(g14
S'\xb4\xbf\xf7\x82\xabmU@'
p20
tp21
Rp22
ag10
(g14
S'\x07z\xcaH\xebQU@'
p23
tp24
Rp25
ag10
(g14
S'\xeci\xe7"\xb0gU@'
p26
tp27
Rp28
ag10
(g14
S'\x07xP}WhU@'
p29
tp30
Rp31
ag10
(g14
S'KB\xf1FpwU@'
p32
tp33
Rp34
ag10
(g14
S'\ta\x95\\T]U@'
p35
tp36
Rp37
ag10
(g14
S'5\xc3\xb8\xfc\xf2vU@'
p38
tp39
Rp40
ag10
(g14
S'\xca\xff\xfc\x8d\xfaTU@'
p41
tp42
Rp43
ag10
(g14
S'\xa6\r\xb3\xb8\xabQU@'
p44
tp45
Rp46
ag10
(g14
S'UG>\xf4\x0ecU@'
p47
tp48
Rp49
ag10
(g14
S'<\xe1\r\xf3m\\U@'
p50
tp51
Rp52
ag10
(g14
S'"zn\xdfe_U@'
p53
tp54
Rp55
ag10
(g14
S'\x83_\xa0\x8c\xcdFU@'
p56
tp57
Rp58
ag10
(g14
S'\x00r\xd1\x97\x0e^U@'
p59
tp60
Rp61
ag10
(g14
S'a !\xcf)\\U@'
p62
tp63
Rp64
ag10
(g14
S'\x0eU\xb3!\x16\x80U@'
p65
tp66
Rp67
ag10
(g14
S'.\xef\xb6\x95\xf8>U@'
p68
tp69
Rp70
ag10
(g14
S'\xcc\xdd5\x03wSU@'
p71
tp72
Rp73
ag10
(g14
S'\x06\xc8\x98\xfc\x91kU@'
p74
tp75
Rp76
asS'target'
p77
(lp78
g10
(g14
S'\xc7\xeb\x1dK:-U@'
p79
tp80
Rp81
ag10
(g14
S'\x14\xcf\x9c\xaa\xee,R@'
p82
tp83
Rp84
ag10
(g14
S'\xf2\x90q\x0c\xeb\x0bT@'
p85
tp86
Rp87
ag10
(g14
S'\xf4&w@\xe6]S@'
p88
tp89
Rp90
ag10
(g14
S'\x17\xed\xfaE#\xa8R@'
p91
tp92
Rp93
ag10
(g14
S'\x99P\xa3Y\xa2\xd7S@'
p94
tp95
Rp96
ag10
(g14
S'\xae%\x8d_e5T@'
p97
tp98
Rp99
ag10
(g14
S'0\xbe\xea\xb7\xcdGS@'
p100
tp101
Rp102
ag10
(g14
S'R (R\xb64S@'
p103
tp104
Rp105
ag10
(g14
S'\x82\x9b}-\x98\x1fT@'
p106
tp107
Rp108
ag10
(g14
S'h\x8f,\xc9\xb2\xf1V@'
p109
tp110
Rp111
ag10
(g14
S'\xcc\xe0`f\x14\x7fR@'
p112
tp113
Rp114
ag10
(g14
S'\x9e\x16\x8cF.jS@'
p115
tp116
Rp117
ag10
(g14
S'=\x90\xc7\xc1\x91\xb4T@'
p118
tp119
Rp120
ag10
(g14
S']\xd0:EDBS@'
p121
tp122
Rp123
ag10
(g14
S'\xe4l\xff\x8d>\xbdS@'
p124
tp125
Rp126
ag10
(g14
S'^\x97(IA.R@'
p127
tp128
Rp129
ag10
(g14
S']q\xed\x81\xa4\xfeU@'
p130
tp131
Rp132
ag10
(g14
S'\x13S\x19t\xbb\xaeS@'
p133
tp134
Rp135
ag10
(g14
S'\xa3[\xef\x8f7\xa4R@'
p136
tp137
Rp138
asssss.