(dp0
S'../Data/sqlite_37.csv'
p1
(dp2
S'../Data/sqlite_97.csv'
p3
(dp4
F0.05
(dp5
S'mmre'
p6
(dp7
S'bellwether'
p8
(lp9
cnumpy.core.multiarray
scalar
p10
(cnumpy
dtype
p11
(S'f8'
p12
I0
I1
tp13
Rp14
(I3
S'<'
p15
NNNI-1
I-1
I0
tp16
bS'\x8f\xba\xc0\xc9\xdaOX@'
p17
tp18
Rp19
ag10
(g14
S'\x82?\xbe\x8f4PX@'
p20
tp21
Rp22
ag10
(g14
S'\\\x7f}\x81pPX@'
p23
tp24
Rp25
ag10
(g14
S'W\xb8\x86\xb5EPX@'
p26
tp27
Rp28
ag10
(g14
S'\xcaeU\xe3qPX@'
p29
tp30
Rp31
ag10
(g14
S's\x04\x1e\xa7\xf0OX@'
p32
tp33
Rp34
ag10
(g14
S'\x85\xbaV\xe7MPX@'
p35
tp36
Rp37
ag10
(g14
S'l\\"\x06\xe8OX@'
p38
tp39
Rp40
ag10
(g14
S'\xd3\xf2\x1f\x86\x93PX@'
p41
tp42
Rp43
ag10
(g14
S'\xd7&/)\x05PX@'
p44
tp45
Rp46
ag10
(g14
S'\xabd\x9f\xc5\x95OX@'
p47
tp48
Rp49
ag10
(g14
S'\xda\xdd\xb0\xf2|PX@'
p50
tp51
Rp52
ag10
(g14
S'\xe01\xb3\xc6ZPX@'
p53
tp54
Rp55
ag10
(g14
S'\xde\xdbPY\xa0PX@'
p56
tp57
Rp58
ag10
(g14
S'_\xe5\xd6;\xe5PX@'
p59
tp60
Rp61
ag10
(g14
S'3~t\\\xe3OX@'
p62
tp63
Rp64
ag10
(g14
S'\x80\txo\x1cPX@'
p65
tp66
Rp67
ag10
(g14
S'+-I!\x19PX@'
p68
tp69
Rp70
ag10
(g14
S'\xd1\xbf\xe0\x8aJPX@'
p71
tp72
Rp73
ag10
(g14
S'\x9fk\xb2BvPX@'
p74
tp75
Rp76
asS'target'
p77
(lp78
g10
(g14
S'\xa2X\xbe\x06\x9d\xbcB@'
p79
tp80
Rp81
ag10
(g14
S'\x9e\xb5\xf9\x13\xda\x0b]@'
p82
tp83
Rp84
ag10
(g14
S'\x82k\x1ee\xbe\xd6C@'
p85
tp86
Rp87
ag10
(g14
S'\xe1\xae\xb3S\xb2\x12^@'
p88
tp89
Rp90
ag10
(g14
S'\xfb\xa4\x9b\xbb\xda}Z@'
p91
tp92
Rp93
ag10
(g14
S'\xdd\x83e\xce\xf7Xd@'
p94
tp95
Rp96
ag10
(g14
S'4\x1a\x1e\xb7b5`@'
p97
tp98
Rp99
ag10
(g14
S'3.&SDo]@'
p100
tp101
Rp102
ag10
(g14
S'\x1a\xc1\xf8;\x8fDD@'
p103
tp104
Rp105
ag10
(g14
S'jMn/\x03\xb0h@'
p106
tp107
Rp108
ag10
(g14
S'[6\x9d#W\x04c@'
p109
tp110
Rp111
ag10
(g14
S'\xd6\x19\x01\x7f\xf2FY@'
p112
tp113
Rp114
ag10
(g14
S'L\x9c@gl\xceT@'
p115
tp116
Rp117
ag10
(g14
S'\xab\x04Hx\x1b\xe8W@'
p118
tp119
Rp120
ag10
(g14
S'\xb26\x11\xac\xd1^C@'
p121
tp122
Rp123
ag10
(g14
S'd\xe0\x9bP\xaa\xc1S@'
p124
tp125
Rp126
ag10
(g14
S'Dz\xb9\xda\xab\x1fM@'
p127
tp128
Rp129
ag10
(g14
S'\x13\xe4\xdc3\x8e4b@'
p130
tp131
Rp132
ag10
(g14
S'\x82 ^\xb6\x02\xbd\\@'
p133
tp134
Rp135
ag10
(g14
S'\x16\xd9X\xef\x83<U@'
p136
tp137
Rp138
asssss.