(dp0
S'../Data/sqlite_13.csv'
p1
(dp2
S'../Data/sqlite_59.csv'
p3
(dp4
F0.15
(dp5
S'mmre'
p6
(dp7
S'bellwether'
p8
(lp9
cnumpy.core.multiarray
scalar
p10
(cnumpy
dtype
p11
(S'f8'
p12
I0
I1
tp13
Rp14
(I3
S'<'
p15
NNNI-1
I-1
I0
tp16
bS'FP\x16hL\x82[@'
p17
tp18
Rp19
ag10
(g14
S'\x05\x89\xd3s(E[@'
p20
tp21
Rp22
ag10
(g14
S'$\xb6N\xa5\x00p[@'
p23
tp24
Rp25
ag10
(g14
S'b\xf5c\x15\x87i[@'
p26
tp27
Rp28
ag10
(g14
S'\nL[\x17\x06U[@'
p29
tp30
Rp31
ag10
(g14
S'\xfcB\x89\xcf\x90Q[@'
p32
tp33
Rp34
ag10
(g14
S'\xd5k\xbf\xfb\xe6l[@'
p35
tp36
Rp37
ag10
(g14
S'\xc1\xc6_\xbcyi[@'
p38
tp39
Rp40
ag10
(g14
S'T(\xf7E\nS[@'
p41
tp42
Rp43
ag10
(g14
S'\xdd\xe9\x02\x1b\xe6W[@'
p44
tp45
Rp46
ag10
(g14
S'\xee\x0f\xb8\xb0\x84x[@'
p47
tp48
Rp49
ag10
(g14
S'?\xc0t\xcd\x95`[@'
p50
tp51
Rp52
ag10
(g14
S'l\x814W\xa2e[@'
p53
tp54
Rp55
ag10
(g14
S"'\xf0$&cZ[@"
p56
tp57
Rp58
ag10
(g14
S'\x89>(\xc5\xeeN[@'
p59
tp60
Rp61
ag10
(g14
S'\xf2\x1aJ\x10\x80[[@'
p62
tp63
Rp64
ag10
(g14
S"'\x9f\xf2;\x9dY[@"
p65
tp66
Rp67
ag10
(g14
S'\xe0\xfc:f\xe4M[@'
p68
tp69
Rp70
ag10
(g14
S'i\x9e\xa6`WX[@'
p71
tp72
Rp73
ag10
(g14
S'\xc9R\x87[\x16Z[@'
p74
tp75
Rp76
asS'target'
p77
(lp78
g10
(g14
S"APw\x97\xeef'@"
p79
tp80
Rp81
ag10
(g14
S'\x17l7>Sn"@'
p82
tp83
Rp84
ag10
(g14
S'\xbd\x9aZ\xc7\x8bZ%@'
p85
tp86
Rp87
ag10
(g14
S"\x1d\xd9N\x007\x03'@"
p88
tp89
Rp90
ag10
(g14
S'@\x1dY\xa5@\x12(@'
p91
tp92
Rp93
ag10
(g14
S'\xda\xbf*\xae\x18\xb2$@'
p94
tp95
Rp96
ag10
(g14
S'\x95\xdbmwXW%@'
p97
tp98
Rp99
ag10
(g14
S'<B\x84\xf6\x91\xa1&@'
p100
tp101
Rp102
ag10
(g14
S'o_\xa5Ws\x93&@'
p103
tp104
Rp105
ag10
(g14
S'bR\xed\x93T\x88%@'
p106
tp107
Rp108
ag10
(g14
S'\xaf\xd1\xc4\x06\xdfe%@'
p109
tp110
Rp111
ag10
(g14
S'At\xa2\xb2\x02x(@'
p112
tp113
Rp114
ag10
(g14
S'3\x84\x08\x08VO&@'
p115
tp116
Rp117
ag10
(g14
S'\xfc\x8a(\xabD\x90$@'
p118
tp119
Rp120
ag10
(g14
S'F\xa3\xa16r\xb2%@'
p121
tp122
Rp123
ag10
(g14
S"\xb5\xe4IcJ('@"
p124
tp125
Rp126
ag10
(g14
S'\xd3j\x8d"WK%@'
p127
tp128
Rp129
ag10
(g14
S'!\x0e\x0e\xe6q\x18$@'
p130
tp131
Rp132
ag10
(g14
S'\xf1t/\x05"9&@'
p133
tp134
Rp135
ag10
(g14
S"\x940\xb4\x9f=G'@"
p136
tp137
Rp138
asssss.