(dp0
S'../Data/sqlite_60.csv'
p1
(dp2
S'../Data/sqlite_2.csv'
p3
(dp4
F0.25
(dp5
S'abs_res'
p6
(dp7
S'bellwether'
p8
(lp9
cnumpy.core.multiarray
scalar
p10
(cnumpy
dtype
p11
(S'f8'
p12
I0
I1
tp13
Rp14
(I3
S'<'
p15
NNNI-1
I-1
I0
tp16
bS'x\xaf\xb9\x1cbdeA'
p17
tp18
Rp19
ag10
(g14
S'\xee\x8b%7v^eA'
p20
tp21
Rp22
ag10
(g14
S'\xba:&\x0c\x9c]eA'
p23
tp24
Rp25
ag10
(g14
S'[H\x9a\xa2\x12XeA'
p26
tp27
Rp28
ag10
(g14
S'V9\xb40\x0cVeA'
p29
tp30
Rp31
ag10
(g14
S'\\\x9e\xa8\xb3\xbdheA'
p32
tp33
Rp34
ag10
(g14
S'\x9b\x1a/\xa1\x15beA'
p35
tp36
Rp37
ag10
(g14
S'\xde\xb4\x81\x1e\x0bVeA'
p38
tp39
Rp40
ag10
(g14
S' \x15g/NVeA'
p41
tp42
Rp43
ag10
(g14
S'\xbf-k\rZbeA'
p44
tp45
Rp46
ag10
(g14
S'\t\xbb\x02\xb8\xb2ZeA'
p47
tp48
Rp49
ag10
(g14
S'\xaa\x9b\xc40\xbbYeA'
p50
tp51
Rp52
ag10
(g14
S'\xa7\x1cZD\xa8`eA'
p53
tp54
Rp55
ag10
(g14
S'\xf1D\xfd3\xf3[eA'
p56
tp57
Rp58
ag10
(g14
S'\xe2\xd0"K\x8bfeA'
p59
tp60
Rp61
ag10
(g14
S'\xc4/\x96\x8c!WeA'
p62
tp63
Rp64
ag10
(g14
S'\xa6\x9b\xc4\x00-[eA'
p65
tp66
Rp67
ag10
(g14
S"p\xe9&5'deA"
p68
tp69
Rp70
ag10
(g14
S'\xfa9ml7aeA'
p71
tp72
Rp73
ag10
(g14
S'Q9\xb44,ceA'
p74
tp75
Rp76
asS'target'
p77
(lp78
g10
(g14
S'Z\xbaI\x0c\x02\x13P@'
p79
tp80
Rp81
ag10
(g14
S'i\x91\xed|?}P@'
p82
tp83
Rp84
ag10
(g14
S'/\x87\x16\xd9\xceoT@'
p85
tp86
Rp87
ag10
(g14
S'\x1a/\xdd$\x06)O@'
p88
tp89
Rp90
ag10
(g14
S'u\xe9&1\x08,O@'
p91
tp92
Rp93
ag10
(g14
S"'1\x08\xac\x1czN@"
p94
tp95
Rp96
ag10
(g14
S'\xdbO\x8d\x97n\x12O@'
p97
tp98
Rp99
ag10
(g14
S'\xa8G\xe1z\x14\x8eO@'
p100
tp101
Rp102
ag10
(g14
S'\x8dC\x8bl\xe7\xa3O@'
p103
tp104
Rp105
ag10
(g14
S'\xef\xd4x\xe9&\x81O@'
p106
tp107
Rp108
ag10
(g14
S'\xd2\xf9~j\xbc|M@'
p109
tp110
Rp111
ag10
(g14
S'mh\x91\xed|\x7fM@'
p112
tp113
Rp114
ag10
(g14
S'\xc4v\xbe\x9f\x1a\x8bP@'
p115
tp116
Rp117
ag10
(g14
S'\x9f\xef\xa7\xc6KwM@'
p118
tp119
Rp120
ag10
(g14
S'(1\x08\xac\x1c\x82P@'
p121
tp122
Rp123
ag10
(g14
S']\xe5\xd0"\xdb\xf9N@'
p124
tp125
Rp126
ag10
(g14
S'\xccK7\x89A\xc0N@'
p127
tp128
Rp129
ag10
(g14
S'\xd1\xa1E\xb6\xf35S@'
p130
tp131
Rp132
ag10
(g14
S'\xf8Q\xb8\x1e\x85\x83N@'
p133
tp134
Rp135
ag10
(g14
S'\xe0O\x8d\x97n:P@'
p136
tp137
Rp138
asssss.