(dp0
S'../Data/sqlite_32.csv'
p1
(dp2
S'../Data/sqlite_70.csv'
p3
(dp4
F0.2
(dp5
S'abs_res'
p6
(dp7
S'bellwether'
p8
(lp9
cnumpy.core.multiarray
scalar
p10
(cnumpy
dtype
p11
(S'f8'
p12
I0
I1
tp13
Rp14
(I3
S'<'
p15
NNNI-1
I-1
I0
tp16
bS'\xdb\xa3pm\xf9fBA'
p17
tp18
Rp19
ag10
(g14
S'\xd8x\xe96cgBA'
p20
tp21
Rp22
ag10
(g14
S'\xeaQ\xb8>5gBA'
p23
tp24
Rp25
ag10
(g14
S'P\x8d\x97~wgBA'
p26
tp27
Rp28
ag10
(g14
S'l=\nW\x14gBA'
p29
tp30
Rp31
ag10
(g14
S'(\x87\x16I\xa7gBA'
p32
tp33
Rp34
ag10
(g14
S'\xecQ\xb8~\xd5fBA'
p35
tp36
Rp37
ag10
(g14
S'\xa5p=\xcaDhBA'
p38
tp39
Rp40
ag10
(g14
S'$\xdb\xf9NzgBA'
p41
tp42
Rp43
ag10
(g14
S'<5^\x9a\xf7fBA'
p44
tp45
Rp46
ag10
(g14
S'\x18\x04V~\xcbgBA'
p47
tp48
Rp49
ag10
(g14
S'\x88A`\xe5\x05fBA'
p50
tp51
Rp52
ag10
(g14
S'{\xbe\x9f\xda\x7fhBA'
p53
tp54
Rp55
ag10
(g14
S'\xf9(\\/\xaefBA'
p56
tp57
Rp58
ag10
(g14
S'\xe9&1\x88\x84hBA'
p59
tp60
Rp61
ag10
(g14
S'\xda\xf9~\xbaqeBA'
p62
tp63
Rp64
ag10
(g14
S'p\x93\x18d\x8fgBA'
p65
tp66
Rp67
ag10
(g14
S'Y9\xb4\x08TgBA'
p68
tp69
Rp70
ag10
(g14
S'\x96n\x12\xd3/fBA'
p71
tp72
Rp73
ag10
(g14
S'\xa0p=Z\xa9eBA'
p74
tp75
Rp76
asS'target'
p77
(lp78
g10
(g14
S'?5^\xbaI\xcc_@'
p79
tp80
Rp81
ag10
(g14
S'\xaf\xc8v\xbe\x9f\n`@'
p82
tp83
Rp84
ag10
(g14
S'\x81\xbe\x9f\x1a/!^@'
p85
tp86
Rp87
ag10
(g14
S'\x8b\xed|?5\x16`@'
p88
tp89
Rp90
ag10
(g14
S'B\xb6\xf3\xfd\xd4@`@'
p91
tp92
Rp93
ag10
(g14
S'\xb6t\x93\x18\x04\x8e^@'
p94
tp95
Rp96
ag10
(g14
S'\x80A`\xe5\xd0Nb@'
p97
tp98
Rp99
ag10
(g14
S'\xf4\xa9\xf1\xd2M\xba]@'
p100
tp101
Rp102
ag10
(g14
S'\xbe\xca\xa1E\xb6\x9d`@'
p103
tp104
Rp105
ag10
(g14
S'\xf3\xa7\xc6K7\x91`@'
p106
tp107
Rp108
ag10
(g14
S'{\xe9&1\x08 `@'
p109
tp110
Rp111
ag10
(g14
S'\xffU\x0e-\xb2\xb5`@'
p112
tp113
Rp114
ag10
(g14
S'35^\xbaIl^@'
p115
tp116
Rp117
ag10
(g14
S'\xa2p=\n\xd7\xbb`@'
p118
tp119
Rp120
ag10
(g14
S'\xeaz\x14\xaeG\x81_@'
p121
tp122
Rp123
ag10
(g14
S'.\xdd$\x06\x81\x85_@'
p124
tp125
Rp126
ag10
(g14
S'\x0e-\xb2\x9d\xef\x9b^@'
p127
tp128
Rp129
ag10
(g14
S"Y\x8d\x97n\x12'_@"
p130
tp131
Rp132
ag10
(g14
S'\x86l\xe7\xfb\xa9%a@'
p133
tp134
Rp135
ag10
(g14
S'\x00+\x87\x16\xd92a@'
p136
tp137
Rp138
asssss.