(dp0
S'../Data/sqlite_14.csv'
p1
(dp2
S'../Data/sqlite_91.csv'
p3
(dp4
F0.35
(dp5
S'mmre'
p6
(dp7
S'bellwether'
p8
(lp9
cnumpy.core.multiarray
scalar
p10
(cnumpy
dtype
p11
(S'f8'
p12
I0
I1
tp13
Rp14
(I3
S'<'
p15
NNNI-1
I-1
I0
tp16
bS'\xd4\x00u\xe6YmX@'
p17
tp18
Rp19
ag10
(g14
S'\x05\x12g\xf8\xe0|X@'
p20
tp21
Rp22
ag10
(g14
S'Q6\x14\x10;vX@'
p23
tp24
Rp25
ag10
(g14
S'%y*\xdbv|X@'
p26
tp27
Rp28
ag10
(g14
S'\rW\xb1\xd3\x1ctX@'
p29
tp30
Rp31
ag10
(g14
S'8&i\xdb\x9eoX@'
p32
tp33
Rp34
ag10
(g14
S'}\xd7\xba\xecziX@'
p35
tp36
Rp37
ag10
(g14
S'\x85\xb7\xe3z\xb5rX@'
p38
tp39
Rp40
ag10
(g14
S'\xf0kK=\x01tX@'
p41
tp42
Rp43
ag10
(g14
S'\xbb\xf5\xf4\xec\xf4|X@'
p44
tp45
Rp46
ag10
(g14
S'\x8a\x9c\x80\xfd\xb5tX@'
p47
tp48
Rp49
ag10
(g14
S'\xd0yL\xdc\xa3mX@'
p50
tp51
Rp52
ag10
(g14
S'\xa0ai\xe8{yX@'
p53
tp54
Rp55
ag10
(g14
S'[\r`AljX@'
p56
tp57
Rp58
ag10
(g14
S'\xaf\xc5\xab\xdd\x0buX@'
p59
tp60
Rp61
ag10
(g14
S'\x98\xd5\xb8\x02\xd3{X@'
p62
tp63
Rp64
ag10
(g14
S'\xb4\xd8\xa8R\ruX@'
p65
tp66
Rp67
ag10
(g14
S'2\xc1aH\x06pX@'
p68
tp69
Rp70
ag10
(g14
S'?\xd5\xc6\xfc\xa5xX@'
p71
tp72
Rp73
ag10
(g14
S'{\xb1\xdff\x13uX@'
p74
tp75
Rp76
asS'target'
p77
(lp78
g10
(g14
S'\x98~\x7fT]\xbaP@'
p79
tp80
Rp81
ag10
(g14
S'\x8b\xd8U\n\xaa\xe3L@'
p82
tp83
Rp84
ag10
(g14
S'\x14iL\xea{\xe0O@'
p85
tp86
Rp87
ag10
(g14
S'\xa3N\x92\x01\xae\xe9L@'
p88
tp89
Rp90
ag10
(g14
S'\x13\x97\xf4\x06 \xd1N@'
p91
tp92
Rp93
ag10
(g14
S'\xd3}\xd4\xb9C\xe4P@'
p94
tp95
Rp96
ag10
(g14
S'\x1e\x80Di\xec0S@'
p97
tp98
Rp99
ag10
(g14
S'&\xc5\xc89\xc2\xbfP@'
p100
tp101
Rp102
ag10
(g14
S'tCa@\x8b\x9bP@'
p103
tp104
Rp105
ag10
(g14
S'P\xd3\xb4\x85\xa0iK@'
p106
tp107
Rp108
ag10
(g14
S'\x891wF\x11\xc3O@'
p109
tp110
Rp111
ag10
(g14
S'\xec\xc9\x93\xb2u\xbaQ@'
p112
tp113
Rp114
ag10
(g14
S'\x93\x18\x1d\xe2\x8eWM@'
p115
tp116
Rp117
ag10
(g14
S'C\\\xa9Sg\xfdR@'
p118
tp119
Rp120
ag10
(g14
S'\xd9n\xc5X\xf0\xcbO@'
p121
tp122
Rp123
ag10
(g14
S'=y\xd6\x0e=AG@'
p124
tp125
Rp126
ag10
(g14
S'\x94\x91\xaaarZL@'
p127
tp128
Rp129
ag10
(g14
S'\x88\xf0w{\x95\x13Q@'
p130
tp131
Rp132
ag10
(g14
S'}=0\x19:rN@'
p133
tp134
Rp135
ag10
(g14
S'\x90\nQ\xf3\xe7\xd5O@'
p136
tp137
Rp138
asssss.