(dp0
S'../Data/sqlite_68.csv'
p1
(dp2
S'../Data/sqlite_63.csv'
p3
(dp4
F0.4
(dp5
S'mmre'
p6
(dp7
S'bellwether'
p8
(lp9
cnumpy.core.multiarray
scalar
p10
(cnumpy
dtype
p11
(S'f8'
p12
I0
I1
tp13
Rp14
(I3
S'<'
p15
NNNI-1
I-1
I0
tp16
bS'\x00{\xfda\x11,l@'
p17
tp18
Rp19
ag10
(g14
S'(\xd9L\x96wfl@'
p20
tp21
Rp22
ag10
(g14
S"\xd7_'\x12\xf26l@"
p23
tp24
Rp25
ag10
(g14
S'\x19%\xc0"D*l@'
p26
tp27
Rp28
ag10
(g14
S';\x12\xd3#\xbadl@'
p29
tp30
Rp31
ag10
(g14
S'\xa1\xf35\xb7\xc5Cl@'
p32
tp33
Rp34
ag10
(g14
S'_\x99lF\xb1Ul@'
p35
tp36
Rp37
ag10
(g14
S'\xc5\x8f\xa3\xdev(l@'
p38
tp39
Rp40
ag10
(g14
S'\xfb\x11/s?:l@'
p41
tp42
Rp43
ag10
(g14
S'\xd0\xfe\xe0\xb0\x95<l@'
p44
tp45
Rp46
ag10
(g14
S'=(\xdb\xe5\xcepl@'
p47
tp48
Rp49
ag10
(g14
S'eX\xd2\x91j[l@'
p50
tp51
Rp52
ag10
(g14
S'\xa3\x85K\x97\xfc$l@'
p53
tp54
Rp55
ag10
(g14
S'\xa6G\xd5\x0e\xb2Ol@'
p56
tp57
Rp58
ag10
(g14
S'\x04\xb5\x80\x15\x8eYl@'
p59
tp60
Rp61
ag10
(g14
S'\xbb\x8c\x16\xd4\x97Fl@'
p62
tp63
Rp64
ag10
(g14
S'\x8b\xdd\x9a\xe1^1l@'
p65
tp66
Rp67
ag10
(g14
S'5\\\x8c]\x0f$l@'
p68
tp69
Rp70
ag10
(g14
S'\x7f62;0<l@'
p71
tp72
Rp73
ag10
(g14
S'\x13\xad\x97\x8e(7l@'
p74
tp75
Rp76
asS'target'
p77
(lp78
g10
(g14
S'\x80K\xd3\x0c\x88\x89"@'
p79
tp80
Rp81
ag10
(g14
S'{I\x82\xd6\x7fy!@'
p82
tp83
Rp84
ag10
(g14
S'\x97\xb7\xaca\xff%"@'
p85
tp86
Rp87
ag10
(g14
S'\xf5\n\xe4\x8d\xb3j"@'
p88
tp89
Rp90
ag10
(g14
S'\xf2X\\jJB#@'
p91
tp92
Rp93
ag10
(g14
S'EQ2q\x1e\xc3#@'
p94
tp95
Rp96
ag10
(g14
S'\xb6L\xbc\xeb\x93\x1f#@'
p97
tp98
Rp99
ag10
(g14
S'xA\xe6\xb2\xfaK"@'
p100
tp101
Rp102
ag10
(g14
S'\n\xa3Z\x1d\xda-"@'
p103
tp104
Rp105
ag10
(g14
S'\xe6y\x8c:\x8b\x87!@'
p106
tp107
Rp108
ag10
(g14
S'+\x07\x0b\x81.\xc7"@'
p109
tp110
Rp111
ag10
(g14
S'N2\x87\x06\xfdp"@'
p112
tp113
Rp114
ag10
(g14
S'\xbc\x96\xfd\x10L)#@'
p115
tp116
Rp117
ag10
(g14
S'e\x8f\x83\x06\xee_#@'
p118
tp119
Rp120
ag10
(g14
S'\x14\x15\x14u,3#@'
p121
tp122
Rp123
ag10
(g14
S'\xb6B\x9b\xb4\x89O"@'
p124
tp125
Rp126
ag10
(g14
S'\x04\xd8u\x17\x05\xbf"@'
p127
tp128
Rp129
ag10
(g14
S'\xbeL\x9a\xce@\x14"@'
p130
tp131
Rp132
ag10
(g14
S'\\t\x10\xf2V?#@'
p133
tp134
Rp135
ag10
(g14
S'\xd3y\n\x8f[A"@'
p136
tp137
Rp138
asssss.