(dp0
S'../Data/sqlite_92.csv'
p1
(dp2
S'../Data/sqlite_96.csv'
p3
(dp4
F0.3
(dp5
S'mmre'
p6
(dp7
S'bellwether'
p8
(lp9
cnumpy.core.multiarray
scalar
p10
(cnumpy
dtype
p11
(S'f8'
p12
I0
I1
tp13
Rp14
(I3
S'<'
p15
NNNI-1
I-1
I0
tp16
bS'\xb56`\xc8"-V@'
p17
tp18
Rp19
ag10
(g14
S'\xfcQ\xba`\xe82V@'
p20
tp21
Rp22
ag10
(g14
S'\x009\x13\xfe%3V@'
p23
tp24
Rp25
ag10
(g14
S'\xae\xd4\xee\x8aR1V@'
p26
tp27
Rp28
ag10
(g14
S'\xcc\x9e\xce\xd6\xab6V@'
p29
tp30
Rp31
ag10
(g14
S'u\x92oS\xb71V@'
p32
tp33
Rp34
ag10
(g14
S'`\x98\x9b\x8cN/V@'
p35
tp36
Rp37
ag10
(g14
S'n|\x0f\x96\x883V@'
p38
tp39
Rp40
ag10
(g14
S'\xc2\xc5~\x9b;1V@'
p41
tp42
Rp43
ag10
(g14
S'\x10|?\xdcn4V@'
p44
tp45
Rp46
ag10
(g14
S'\xc0\xebd\xa8_/V@'
p47
tp48
Rp49
ag10
(g14
S')\xc1S\x01\xba3V@'
p50
tp51
Rp52
ag10
(g14
S'\xb2^\xdc\x1c\xbc1V@'
p53
tp54
Rp55
ag10
(g14
S'\xfe\x1a\x82r^1V@'
p56
tp57
Rp58
ag10
(g14
S'\x11\x99\xbab\xee4V@'
p59
tp60
Rp61
ag10
(g14
S'\x94\xa49v\x9a1V@'
p62
tp63
Rp64
ag10
(g14
S'\xed\x9dZ\x12\x1e/V@'
p65
tp66
Rp67
ag10
(g14
S'\xaa\x1a\xe7@g2V@'
p68
tp69
Rp70
ag10
(g14
S'\xc3\xc2\xc9Db6V@'
p71
tp72
Rp73
ag10
(g14
S'\x8f^?\x82U7V@'
p74
tp75
Rp76
asS'target'
p77
(lp78
g10
(g14
S'\x83dP FAR@'
p79
tp80
Rp81
ag10
(g14
S't\xccfzU\x8bF@'
p82
tp83
Rp84
ag10
(g14
S'\xc2`/\xfc\xa1\xc7S@'
p85
tp86
Rp87
ag10
(g14
S'\xe7C\xd4P\xe5\xd3]@'
p88
tp89
Rp90
ag10
(g14
S'\xd7\xadZ#\x93=V@'
p91
tp92
Rp93
ag10
(g14
S'\xa9\xa0I\xf4c\xf0T@'
p94
tp95
Rp96
ag10
(g14
S'\x05s\x16\x11\xca\xc8U@'
p97
tp98
Rp99
ag10
(g14
S'\xda[5A\xf3\x90S@'
p100
tp101
Rp102
ag10
(g14
S'~oJ\xdb\x99RV@'
p103
tp104
Rp105
ag10
(g14
S'gS\xb8\x85\xdf\xe4R@'
p106
tp107
Rp108
ag10
(g14
S'e\xf4\x11 \xe7jU@'
p109
tp110
Rp111
ag10
(g14
S'\x7f\xd4.+\x08+V@'
p112
tp113
Rp114
ag10
(g14
S'\xac\xda\xc2\x08\x8akU@'
p115
tp116
Rp117
ag10
(g14
S'l\xf7$\xa5#PP@'
p118
tp119
Rp120
ag10
(g14
S'\xf9cU:\x0f\xcaI@'
p121
tp122
Rp123
ag10
(g14
S'\x94\x80k\x92\x91\xecP@'
p124
tp125
Rp126
ag10
(g14
S'\xce\x8b\x90\x9c\x1c\xd9R@'
p127
tp128
Rp129
ag10
(g14
S'\x8e\xf5s\xa9\\\x12^@'
p130
tp131
Rp132
ag10
(g14
S't\x02\xec.\xd8\tU@'
p133
tp134
Rp135
ag10
(g14
S'\xa1\x032\xe5E\xb9Q@'
p136
tp137
Rp138
asssss.