(dp0
S'../Data/sqlite_9.csv'
p1
(dp2
S'../Data/sqlite_92.csv'
p3
(dp4
F0.05
(dp5
S'mmre'
p6
(dp7
S'bellwether'
p8
(lp9
cnumpy.core.multiarray
scalar
p10
(cnumpy
dtype
p11
(S'f8'
p12
I0
I1
tp13
Rp14
(I3
S'<'
p15
NNNI-1
I-1
I0
tp16
bS'\xcaZ\\\x07rSQ@'
p17
tp18
Rp19
ag10
(g14
S'\xa9\xef\x17\xb0\xf1SQ@'
p20
tp21
Rp22
ag10
(g14
S'2g8vDZQ@'
p23
tp24
Rp25
ag10
(g14
S'6\x84\xb2\xe0{[Q@'
p26
tp27
Rp28
ag10
(g14
S'\x17;\xffWoMQ@'
p29
tp30
Rp31
ag10
(g14
S'\x9d\x9d\xab\xe9\x97RQ@'
p32
tp33
Rp34
ag10
(g14
S'\xc2\xd9VE4PQ@'
p35
tp36
Rp37
ag10
(g14
S':xr/\x95bQ@'
p38
tp39
Rp40
ag10
(g14
S'\x11\x08\x8bZ`]Q@'
p41
tp42
Rp43
ag10
(g14
S'\x9e1\x8b\xe2\xd6QQ@'
p44
tp45
Rp46
ag10
(g14
S'\xcaV\xa53\xfbTQ@'
p47
tp48
Rp49
ag10
(g14
S'[\xa7\xac\xba\x99QQ@'
p50
tp51
Rp52
ag10
(g14
S'r\xbe\x9c35SQ@'
p53
tp54
Rp55
ag10
(g14
S'\x8dk\xc2)^VQ@'
p56
tp57
Rp58
ag10
(g14
S'\x18\x9d\xdd\xbb\xc2LQ@'
p59
tp60
Rp61
ag10
(g14
S'9\xf2]2\xf2TQ@'
p62
tp63
Rp64
ag10
(g14
S'\x12`\xecx\xf3VQ@'
p65
tp66
Rp67
ag10
(g14
S'9\xe2%\xed\xe8PQ@'
p68
tp69
Rp70
ag10
(g14
S'|d\\wc]Q@'
p71
tp72
Rp73
ag10
(g14
S'\xea7@o\x19VQ@'
p74
tp75
Rp76
asS'target'
p77
(lp78
g10
(g14
S'\n][\xfa\xe8YU@'
p79
tp80
Rp81
ag10
(g14
S'n\xa5v\xb4$<P@'
p82
tp83
Rp84
ag10
(g14
S'\x95\x8e\x1e\x10\xdc\x85C@'
p85
tp86
Rp87
ag10
(g14
S'6\xd7q\x14!\xd8B@'
p88
tp89
Rp90
ag10
(g14
S'\xb9\x8a\x1e.=\x9b]@'
p91
tp92
Rp93
ag10
(g14
S'\xfe\xb5\xa869\xe0V@'
p94
tp95
Rp96
ag10
(g14
S"\xdc\x94'\n\x13\x92X@"
p97
tp98
Rp99
ag10
(g14
S'\x97A\xeb\xc2\xb4\x18?@'
p100
tp101
Rp102
ag10
(g14
S'\xf2[\xecBsSP@'
p103
tp104
Rp105
ag10
(g14
S'\x98\xe0\xe8P\x19\x83`@'
p106
tp107
Rp108
ag10
(g14
S'\x80\x1c\\8\x99\x19T@'
p109
tp110
Rp111
ag10
(g14
S'}\xc6\x10+@\x7fC@'
p112
tp113
Rp114
ag10
(g14
S'\xe3\xd2\xb0\xeaV{Z@'
p115
tp116
Rp117
ag10
(g14
S'\x8c$\x0e\x16\xa5#@@'
p118
tp119
Rp120
ag10
(g14
S'\xff(\x85\xf7S\x8aY@'
p121
tp122
Rp123
ag10
(g14
S'\x1e\x10k\xd6\x95@c@'
p124
tp125
Rp126
ag10
(g14
S'Q\xde\x93!\xc2aM@'
p127
tp128
Rp129
ag10
(g14
S'mj9\xb2sKS@'
p130
tp131
Rp132
ag10
(g14
S'@\x16\x82\xc8_\xccE@'
p133
tp134
Rp135
ag10
(g14
S'p\x98SM\xe5\xc3C@'
p136
tp137
Rp138
asssss.