(dp0
S'../Data/sqlite_85.csv'
p1
(dp2
S'../Data/sqlite_28.csv'
p3
(dp4
F0.15
(dp5
S'abs_res'
p6
(dp7
S'bellwether'
p8
(lp9
cnumpy.core.multiarray
scalar
p10
(cnumpy
dtype
p11
(S'f8'
p12
I0
I1
tp13
Rp14
(I3
S'<'
p15
NNNI-1
I-1
I0
tp16
bS'\xbd\xf5(\x1c\xe6\x91WA'
p17
tp18
Rp19
ag10
(g14
S'\x93\xa6TD\x03KWA'
p20
tp21
Rp22
ag10
(g14
S'cJ\xc51\xe8{WA'
p23
tp24
Rp25
ag10
(g14
S')iJ\xd5v\x85WA'
p26
tp27
Rp28
ag10
(g14
S'\xa7\xd3\x06j\xdeuWA'
p29
tp30
Rp31
ag10
(g14
S'F\xb6\xf3M\xbeGWA'
p32
tp33
Rp34
ag10
(g14
S'\xf5(\\\xdfS)WA'
p35
tp36
Rp37
ag10
(g14
S'\xb0\x00\xb9W\x8f_WA'
p38
tp39
Rp40
ag10
(g14
S'*\xbfX\xf2V]WA'
p41
tp42
Rp43
ag10
(g14
S'F\x0c\x02\xd3\x16\x80WA'
p44
tp45
Rp46
ag10
(g14
S'\x88\xc2\xf5\xc8\xd0BWA'
p47
tp48
Rp49
ag10
(g14
S'T\xf2\x8b\xd5\x9baWA'
p50
tp51
Rp52
ag10
(g14
S":\x98'r\xe0@WA"
p53
tp54
Rp55
ag10
(g14
S'3\xa5\xe2\xe4\xb3\x94WA'
p56
tp57
Rp58
ag10
(g14
S'\x0cX9T\xbf\x85WA'
p59
tp60
Rp61
ag10
(g14
S'H\xe1z\x14\xa8iWA'
p62
tp63
Rp64
ag10
(g14
S'F\x0c\x02[\x0e/WA'
p65
tp66
Rp67
ag10
(g14
S'R\x0e-Z!RWA'
p68
tp69
Rp70
ag10
(g14
S'o\xa0\xd3\xae@rWA'
p71
tp72
Rp73
ag10
(g14
S'\xc7\x9f\x1aw\x9alWA'
p74
tp75
Rp76
asS'target'
p77
(lp78
g10
(g14
S'\xc0 \xb0rh\xd1`@'
p79
tp80
Rp81
ag10
(g14
S'\xbet\x93\x18\x04.c@'
p82
tp83
Rp84
ag10
(g14
S'\x9f\x1a/\xdd$bc@'
p85
tp86
Rp87
ag10
(g14
S'\xbc\x9f\x1a/\xdd\xcca@'
p88
tp89
Rp90
ag10
(g14
S'\xc4\xf5(\\\x8fbc@'
p91
tp92
Rp93
ag10
(g14
S'\x84\x95C\x8bl\x13c@'
p94
tp95
Rp96
ag10
(g14
S'\x01\xd5x\xe9&\ta@'
p97
tp98
Rp99
ag10
(g14
S'\x97C\x8bl\xe7\xef`@'
p100
tp101
Rp102
ag10
(g14
S'\x8b\x97n\x12\x83\x0c`@'
p103
tp104
Rp105
ag10
(g14
S'\xb2\x1cZd;\xa5a@'
p106
tp107
Rp108
ag10
(g14
S'affff\xe6a@'
p109
tp110
Rp111
ag10
(g14
S'4\x89A`\xe5<c@'
p112
tp113
Rp114
ag10
(g14
S'\xa7\xf1\xd2Mbta@'
p115
tp116
Rp117
ag10
(g14
S'\xb3rh\x91\xed\x8ca@'
p118
tp119
Rp120
ag10
(g14
S'\x1b\x04V\x0e-2d@'
p121
tp122
Rp123
ag10
(g14
S'e\x91\xed|?cc@'
p124
tp125
Rp126
ag10
(g14
S'P7\x89A`Q`@'
p127
tp128
Rp129
ag10
(g14
S'\x88\x16\xd9\xce\xf7sb@'
p130
tp131
Rp132
ag10
(g14
S'\xd6$\x06\x81\x95\x87c@'
p133
tp134
Rp135
ag10
(g14
S'\xf2\xd2Mb\x10\xa4b@'
p136
tp137
Rp138
asssss.