(dp0
S'../Data/sqlite_46.csv'
p1
(dp2
S'../Data/sqlite_2.csv'
p3
(dp4
F0.4
(dp5
S'abs_res'
p6
(dp7
S'bellwether'
p8
(lp9
cnumpy.core.multiarray
scalar
p10
(cnumpy
dtype
p11
(S'f8'
p12
I0
I1
tp13
Rp14
(I3
S'<'
p15
NNNI-1
I-1
I0
tp16
bS'\xb6\xc8v>;<7A'
p17
tp18
Rp19
ag10
(g14
S'\x96\x99\x99\x99\x97=7A'
p20
tp21
Rp22
ag10
(g14
S'\xf7\xff\xff\x7fe=7A'
p23
tp24
Rp25
ag10
(g14
S'M\x8d\x97N\x9e=7A'
p26
tp27
Rp28
ag10
(g14
S'W9\xb4h\xe1<7A'
p29
tp30
Rp31
ag10
(g14
S'\xf7(\\\x0f\x87;7A'
p32
tp33
Rp34
ag10
(g14
S'uh\x91-L<7A'
p35
tp36
Rp37
ag10
(g14
S'\xeeQ\xb8\xde\x00>7A'
p38
tp39
Rp40
ag10
(g14
S'\x1a\x85\xeb\xf1\xb5<7A'
p41
tp42
Rp43
ag10
(g14
S'%\x85\xeb\xd1_<7A'
p44
tp45
Rp46
ag10
(g14
S'\x1aZd\x9b>=7A'
p47
tp48
Rp49
ag10
(g14
S'\x05\x81\x95c\xc7;7A'
p50
tp51
Rp52
ag10
(g14
S'$\x06\x815\xd1<7A'
p53
tp54
Rp55
ag10
(g14
S'z?5^L<7A'
p56
tp57
Rp58
ag10
(g14
S'0\xb2\x9d\xaf\xac<7A'
p59
tp60
Rp61
ag10
(g14
S'Z\xe5\xd0\xa2\xd2<7A'
p62
tp63
Rp64
ag10
(g14
S'\x14\x83\xc0\xaa\x00>7A'
p65
tp66
Rp67
ag10
(g14
S'\xb5\xc8v~4=7A'
p68
tp69
Rp70
ag10
(g14
S'\xe1Q\xb8\x1e\xf0;7A'
p71
tp72
Rp73
ag10
(g14
S'M7\x89a\xe5<7A'
p74
tp75
Rp76
asS'target'
p77
(lp78
g10
(g14
S'~\x93\x18\x04V~L@'
p79
tp80
Rp81
ag10
(g14
S'\xe1\xa5\x9b\xc4 \xf0K@'
p82
tp83
Rp84
ag10
(g14
S'\x04\xd5x\xe9&1L@'
p85
tp86
Rp87
ag10
(g14
S'33333\xcbJ@'
p88
tp89
Rp90
ag10
(g14
S'\t\xac\x1cZdKI@'
p91
tp92
Rp93
ag10
(g14
S'\xe0\xd0"\xdb\xf9\x1eH@'
p94
tp95
Rp96
ag10
(g14
S'\x0fX9\xb4\xc8\xaeM@'
p97
tp98
Rp99
ag10
(g14
S'\xc8K7\x89A\x98J@'
p100
tp101
Rp102
ag10
(g14
S'Q\x8d\x97n\x123H@'
p103
tp104
Rp105
ag10
(g14
S'\xd4\xa3p=\nOM@'
p106
tp107
Rp108
ag10
(g14
S'\xe0\xf9~j\xbc\xecK@'
p109
tp110
Rp111
ag10
(g14
S'M\x0c\x02+\x87^H@'
p112
tp113
Rp114
ag10
(g14
S':\n\xd7\xa3p\xadJ@'
p115
tp116
Rp117
ag10
(g14
S'\x94\x99\x99\x99\x99QE@'
p118
tp119
Rp120
ag10
(g14
S'\xdd\xd0"\xdb\xf9\x8eJ@'
p121
tp122
Rp123
ag10
(g14
S'\x0c-\xb2\x9d\xef\xd7G@'
p124
tp125
Rp126
ag10
(g14
S'\xc1K7\x89APH@'
p127
tp128
Rp129
ag10
(g14
S'\xc0\xf5(\\\x8f\x9aH@'
p130
tp131
Rp132
ag10
(g14
S'\xfe\xa9\xf1\xd2MrI@'
p133
tp134
Rp135
ag10
(g14
S'b\x8f\xc2\xf5(\xbcK@'
p136
tp137
Rp138
asssss.