(dp0
S'../Data/sqlite_1.csv'
p1
(dp2
S'../Data/sqlite_28.csv'
p3
(dp4
F0.05
(dp5
S'abs_res'
p6
(dp7
S'bellwether'
p8
(lp9
cnumpy.core.multiarray
scalar
p10
(cnumpy
dtype
p11
(S'f8'
p12
I0
I1
tp13
Rp14
(I3
S'<'
p15
NNNI-1
I-1
I0
tp16
bS'\x86j\xbc\xe4\x97.BA'
p17
tp18
Rp19
ag10
(g14
S'\xcaMb\xf0\x85.BA'
p20
tp21
Rp22
ag10
(g14
S'U\x0e-R\x91.BA'
p23
tp24
Rp25
ag10
(g14
S'\xc5\xbd\xe6\x82\xac.BA'
p26
tp27
Rp28
ag10
(g14
S'+\xdd$\x86R.BA'
p29
tp30
Rp31
ag10
(g14
S'\x0f\x02+\xe7V.BA'
p32
tp33
Rp34
ag10
(g14
S'\xd6\xce\xf7\xa3D.BA'
p35
tp36
Rp37
ag10
(g14
S'\x1f\xb0r\xb8#.BA'
p38
tp39
Rp40
ag10
(g14
S"r\x93\x18$'.BA"
p41
tp42
Rp43
ag10
(g14
S'\xbf\xca\xa1u].BA'
p44
tp45
Rp46
ag10
(g14
S'\xf6~j\x1c_.BA'
p47
tp48
Rp49
ag10
(g14
S'\xad\xc8v\xbe&.BA'
p50
tp51
Rp52
ag10
(g14
S'\xa8E\xb63\xd5.BA'
p53
tp54
Rp55
ag10
(g14
S'\t\xac\x1c\x1a\xa4.BA'
p56
tp57
Rp58
ag10
(g14
S'433\xc3[.BA'
p59
tp60
Rp61
ag10
(g14
S'\x8fC\x8b\xdc}.BA'
p62
tp63
Rp64
ag10
(g14
S'Ob\x10H^.BA'
p65
tp66
Rp67
ag10
(g14
S'E\xe1zT\x1e.BA'
p68
tp69
Rp70
ag10
(g14
S'\xa1p=\n\x14.BA'
p71
tp72
Rp73
ag10
(g14
S'j\xe7\xfb\t\xca.BA'
p74
tp75
Rp76
asS'target'
p77
(lp78
g10
(g14
S'D`\xe5\xd0"\x93b@'
p79
tp80
Rp81
ag10
(g14
S'\xae\x1cZd;3d@'
p82
tp83
Rp84
ag10
(g14
S'\x92n\x12\x83\xc0jc@'
p85
tp86
Rp87
ag10
(g14
S'Lb\x10X9Ph@'
p88
tp89
Rp90
ag10
(g14
S'\x86\xc0\xca\xa1E\xa6b@'
p91
tp92
Rp93
ag10
(g14
S'l\xe7\xfb\xa9\xf1fd@'
p94
tp95
Rp96
ag10
(g14
S'\xf4\xa9\xf1\xd2MJd@'
p97
tp98
Rp99
ag10
(g14
S'\xfd\xa9\xf1\xd2M\xfee@'
p100
tp101
Rp102
ag10
(g14
S't=\n\xd7\xa38g@'
p103
tp104
Rp105
ag10
(g14
S'v\x93\x18\x04V\xdab@'
p106
tp107
Rp108
ag10
(g14
S'\xb7\xc8v\xbe\x9f\xf2g@'
p109
tp110
Rp111
ag10
(g14
S'5^\xbaI\x0c&a@'
p112
tp113
Rp114
ag10
(g14
S'H\xe1z\x14\xae{c@'
p115
tp116
Rp117
ag10
(g14
S'\x0b\x81\x95C\x8b\xccc@'
p118
tp119
Rp120
ag10
(g14
S'\xda$\x06\x81\x95\xf7a@'
p121
tp122
Rp123
ag10
(g14
S'!Zd;\xdf\xd3e@'
p124
tp125
Rp126
ag10
(g14
S'R9\xb4\xc8v:e@'
p127
tp128
Rp129
ag10
(g14
S'\xee~j\xbctGe@'
p130
tp131
Rp132
ag10
(g14
S')\\\x8f\xc2\xf5\x88b@'
p133
tp134
Rp135
ag10
(g14
S'W\xe5\xd0"\xdb\xc5c@'
p136
tp137
Rp138
asssss.