(dp0
S'../Data/sqlite_82.csv'
p1
(dp2
S'../Data/sqlite_85.csv'
p3
(dp4
F0.4
(dp5
S'abs_res'
p6
(dp7
S'bellwether'
p8
(lp9
cnumpy.core.multiarray
scalar
p10
(cnumpy
dtype
p11
(S'f8'
p12
I0
I1
tp13
Rp14
(I3
S'<'
p15
NNNI-1
I-1
I0
tp16
bS'\xbf\xca\xa19\xef8PA'
p17
tp18
Rp19
ag10
(g14
S'\xe6mYo2GPA'
p20
tp21
Rp22
ag10
(g14
S'>\xc3\xaeH_JPA'
p23
tp24
Rp25
ag10
(g14
S'\x10\x9fa\x8f.\x81PA'
p26
tp27
Rp28
ag10
(g14
S'\x87]\x01\xd2BMPA'
p29
tp30
Rp31
ag10
(g14
S'\xe2\xc1<E\x83dPA'
p32
tp33
Rp34
ag10
(g14
S'6\x89A\xb8\xa85PA'
p35
tp36
Rp37
ag10
(g14
S'b\x82\x07[\x0cnPA'
p38
tp39
Rp40
ag10
(g14
S'\xf7(\\\x8b\xf2SPA'
p41
tp42
Rp43
ag10
(g14
S'V\xd6\xea\xd0\xb1gPA'
p44
tp45
Rp46
ag10
(g14
S'E(\xa3[^pPA'
p47
tp48
Rp49
ag10
(g14
S'\xf1\xa7\xc6\xd7\x9b\x83PA'
p50
tp51
Rp52
ag10
(g14
S'n\xf6\xe1\xe33\x86PA'
p53
tp54
Rp55
ag10
(g14
S'_\xabc\x82\x8b\x8bPA'
p56
tp57
Rp58
ag10
(g14
S'f\xf4\xb6de\x82PA'
p59
tp60
Rp61
ag10
(g14
S'333\xa3GoPA'
p62
tp63
Rp64
ag10
(g14
S'\xd5\xea\x98\xf4!"PA'
p65
tp66
Rp67
ag10
(g14
S'S*\xce\xa64ePA'
p68
tp69
Rp70
ag10
(g14
S'yww\xdf\\<PA'
p71
tp72
Rp73
ag10
(g14
S'T\x80\xdc\xcb7:PA'
p74
tp75
Rp76
asS'target'
p77
(lp78
g10
(g14
S'5\\\x8f\x02\x04\xb9;A'
p79
tp80
Rp81
ag10
(g14
S'533s|A:A'
p82
tp83
Rp84
ag10
(g14
S'\xf7(\\Oj\x1c7A'
p85
tp86
Rp87
ag10
(g14
S'\xa6p=\xca\xca\x088A'
p88
tp89
Rp90
ag10
(g14
S'/33\xd3\xddG7A'
p91
tp92
Rp93
ag10
(g14
S'dfff\x15\x8f:A'
p94
tp95
Rp96
ag10
(g14
S'r\x03\x9d\xf6\x89>7A'
p97
tp98
Rp99
ag10
(g14
S'"\x85\xeb\x91\xcf\x93:A'
p100
tp101
Rp102
ag10
(g14
S'\xf6(\\\xaf\x8f\x8a:A'
p103
tp104
Rp105
ag10
(g14
S'\xd5\xa3p\xbd^]:A'
p106
tp107
Rp108
ag10
(g14
S'6333#[:A'
p109
tp110
Rp111
ag10
(g14
S'\xb5G\xe1:\xf5j;A'
p112
tp113
Rp114
ag10
(g14
S'\xe7z\x14\xee\xf6\xd99A'
p115
tp116
Rp117
ag10
(g14
S'\xa0p=\xca:\xa29A'
p118
tp119
Rp120
ag10
(g14
S'x\x14\xae\xc7\xee\x18<A'
p121
tp122
Rp123
ag10
(g14
S'z\x14\xae\x87bR;A'
p124
tp125
Rp126
ag10
(g14
S'\xd0\xcc\xccL\x07\x0c8A'
p127
tp128
Rp129
ag10
(g14
S'iff&\x9d\xe38A'
p130
tp131
Rp132
ag10
(g14
S'\xe1z\x14.\x8c98A'
p133
tp134
Rp135
ag10
(g14
S'\xf5(\\Oe\x887A'
p136
tp137
Rp138
asssss.