(dp0
S'../Data/sqlite_1.csv'
p1
(dp2
S'../Data/sqlite_22.csv'
p3
(dp4
F0.1
(dp5
S'abs_res'
p6
(dp7
S'bellwether'
p8
(lp9
cnumpy.core.multiarray
scalar
p10
(cnumpy
dtype
p11
(S'f8'
p12
I0
I1
tp13
Rp14
(I3
S'<'
p15
NNNI-1
I-1
I0
tp16
bS'!\x85\xeb\x91\x9d@AA'
p17
tp18
Rp19
ag10
(g14
S'd\xd8\x15P\xdf@AA'
p20
tp21
Rp22
ag10
(g14
S'\xeamY;<AAA'
p23
tp24
Rp25
ag10
(g14
S'\xaf\x1cZ\xa4NAAA'
p26
tp27
Rp28
ag10
(g14
S'D\x8bl\xb7\xe5@AA'
p29
tp30
Rp31
ag10
(g14
S'}\x14\xae\x97\xcb@AA'
p32
tp33
Rp34
ag10
(g14
S'U\xe3\xa5\xbb\xcb@AA'
p35
tp36
Rp37
ag10
(g14
S'\xf9\xd4x)\x08AAA'
p38
tp39
Rp40
ag10
(g14
S'\xca>|\xc6\x00AAA'
p41
tp42
Rp43
ag10
(g14
S'=5^\x8a\x92@AA'
p44
tp45
Rp46
ag10
(g14
S'\xb3rh\x11\nAAA'
p47
tp48
Rp49
ag10
(g14
S'\x82\xc0\xcaaz@AA'
p50
tp51
Rp52
ag10
(g14
S'\x12X9\x14#@AA'
p53
tp54
Rp55
ag10
(g14
S'\x0f-\xb2\xdd\x03AAA'
p56
tp57
Rp58
ag10
(g14
S'\xad\x9d\xefW\xfc@AA'
p59
tp60
Rp61
ag10
(g14
S'\xb9\xe6B\xb2\xdd@AA'
p62
tp63
Rp64
ag10
(g14
S'\xd9\x06:]\xe9@AA'
p65
tp66
Rp67
ag10
(g14
S':\n\xd7ssAAA'
p68
tp69
Rp70
ag10
(g14
S'\xe3\x17K\xee\xbf@AA'
p71
tp72
Rp73
ag10
(g14
S'j\xbct#\xe7@AA'
p74
tp75
Rp76
asS'target'
p77
(lp78
g10
(g14
S'/^\xbaI\x0c\x1a[@'
p79
tp80
Rp81
ag10
(g14
S'03333\xabZ@'
p82
tp83
Rp84
ag10
(g14
S'\x90C\x8bl\xe7\x8bZ@'
p85
tp86
Rp87
ag10
(g14
S'\xd6$\x06\x81\x95{Z@'
p88
tp89
Rp90
ag10
(g14
S'c;\xdfO\x8d\xc7Y@'
p91
tp92
Rp93
ag10
(g14
S'\x03\x81\x95C\x8bd[@'
p94
tp95
Rp96
ag10
(g14
S'\xddO\x8d\x97n\x02\\@'
p97
tp98
Rp99
ag10
(g14
S'w\x93\x18\x04V\xf6X@'
p100
tp101
Rp102
ag10
(g14
S'\xdd$\x06\x81\x95\xebY@'
p103
tp104
Rp105
ag10
(g14
S'\xf1\xd0"\xdb\xf9f[@'
p106
tp107
Rp108
ag10
(g14
S'G7\x89A`eY@'
p109
tp110
Rp111
ag10
(g14
S'\xdc$\x06\x81\x95[]@'
p112
tp113
Rp114
ag10
(g14
S'\xbb\x1e\x85\xebQ\xf8Z@'
p115
tp116
Rp117
ag10
(g14
S'\xe8\xa3p=\n\xe7[@'
p118
tp119
Rp120
ag10
(g14
S'Y\x8f\xc2\xf5(\xbcY@'
p121
tp122
Rp123
ag10
(g14
S'\xd3Mb\x10X\xe1Y@'
p124
tp125
Rp126
ag10
(g14
S'\x1d\xaeG\xe1z\xaa`@'
p127
tp128
Rp129
ag10
(g14
S'\xf6(\\\x8f\xc2\xcd]@'
p130
tp131
Rp132
ag10
(g14
S'\xa8rh\x91\xed\x10Z@'
p133
tp134
Rp135
ag10
(g14
S'\x86\x95C\x8bl\xbfY@'
p136
tp137
Rp138
asssss.