(dp0
S'../Data/sqlite_46.csv'
p1
(dp2
S'../Data/sqlite_72.csv'
p3
(dp4
F0.4
(dp5
S'abs_res'
p6
(dp7
S'bellwether'
p8
(lp9
cnumpy.core.multiarray
scalar
p10
(cnumpy
dtype
p11
(S'f8'
p12
I0
I1
tp13
Rp14
(I3
S'<'
p15
NNNI-1
I-1
I0
tp16
bS'\xd1x\xe9&\xf5>7A'
p17
tp18
Rp19
ag10
(g14
S'\xc1\xf5(\x9ce@7A'
p20
tp21
Rp22
ag10
(g14
S'\x07V\x0e\xcd\x13@7A'
p23
tp24
Rp25
ag10
(g14
S'Eb\x10x\xadA7A'
p26
tp27
Rp28
ag10
(g14
S'7\xb4\xc8\x96\x1e?7A'
p29
tp30
Rp31
ag10
(g14
S'\xaf\xf1\xd2m\xb2>7A'
p32
tp33
Rp34
ag10
(g14
S'q\xbct\xb3\xdb?7A'
p35
tp36
Rp37
ag10
(g14
S')\xdd$\xe6\x94?7A'
p38
tp39
Rp40
ag10
(g14
S'\xe9\xa5\x9b\xe4\xaf>7A'
p41
tp42
Rp43
ag10
(g14
S'\xd4Mbp\x16>7A'
p44
tp45
Rp46
ag10
(g14
S'Xd;_\x01?7A'
p47
tp48
Rp49
ag10
(g14
S'U\x0e-\x92$>7A'
p50
tp51
Rp52
ag10
(g14
S'\xbd\xca\xa1E\xf5?7A'
p53
tp54
Rp55
ag10
(g14
S'\xec&1(\x86>7A'
p56
tp57
Rp58
ag10
(g14
S'\x85\xebQ\xb8\x13@7A'
p59
tp60
Rp61
ag10
(g14
S'\xd1\xce\xf73{?7A'
p62
tp63
Rp64
ag10
(g14
S'*\\\x8f\xe2H@7A'
p65
tp66
Rp67
ag10
(g14
S'\xee\xfb\xa9Q">7A'
p68
tp69
Rp70
ag10
(g14
S'\x83j\xbc4m?7A'
p71
tp72
Rp73
ag10
(g14
S'\xf6\xfd\xd482@7A'
p74
tp75
Rp76
asS'target'
p77
(lp78
g10
(g14
S'\xcdx\xe9&18J@'
p79
tp80
Rp81
ag10
(g14
S'3\xdfO\x8d\x97\xe6I@'
p82
tp83
Rp84
ag10
(g14
S'w\x14\xaeG\xe1bJ@'
p85
tp86
Rp87
ag10
(g14
S'\x9a\xc2\xf5(\\_H@'
p88
tp89
Rp90
ag10
(g14
S'\xf2\xfd\xd4x\xe9\xf6J@'
p91
tp92
Rp93
ag10
(g14
S'\x88\xed|?5^J@'
p94
tp95
Rp96
ag10
(g14
S'\xd5\xf9~j\xbc\xb4I@'
p97
tp98
Rp99
ag10
(g14
S'\x13\xaeG\xe1z\xd4H@'
p100
tp101
Rp102
ag10
(g14
S'\xec|?5^\xb2I@'
p103
tp104
Rp105
ag10
(g14
S'\xd0v\xbe\x9f\x1a\xc7I@'
p106
tp107
Rp108
ag10
(g14
S'1\x08\xac\x1cZ,J@'
p109
tp110
Rp111
ag10
(g14
S'\x08V\x0e-\xb2}I@'
p112
tp113
Rp114
ag10
(g14
S'\xf4\xa7\xc6K7\xe1H@'
p115
tp116
Rp117
ag10
(g14
S'j\xe7\xfb\xa9\xf1\xfaI@'
p118
tp119
Rp120
ag10
(g14
S'b;\xdfO\x8d7J@'
p121
tp122
Rp123
ag10
(g14
S' \xb0rh\x91]K@'
p124
tp125
Rp126
ag10
(g14
S'\xd2"\xdb\xf9~:I@'
p127
tp128
Rp129
ag10
(g14
S'\xcaMb\x10X\xb1K@'
p130
tp131
Rp132
ag10
(g14
S'\xa8E\xb6\xf3\xfdDL@'
p133
tp134
Rp135
ag10
(g14
S'R7\x89A`\x15J@'
p136
tp137
Rp138
asssss.