(dp0
S'../Data/sqlite_30.csv'
p1
(dp2
S'../Data/sqlite_78.csv'
p3
(dp4
F0.05
(dp5
S'mmre'
p6
(dp7
S'bellwether'
p8
(lp9
cnumpy.core.multiarray
scalar
p10
(cnumpy
dtype
p11
(S'f8'
p12
I0
I1
tp13
Rp14
(I3
S'<'
p15
NNNI-1
I-1
I0
tp16
bS'.\rM-\xeaXT@'
p17
tp18
Rp19
ag10
(g14
S'\x7f\xbc\xc2\x1e\xdbZT@'
p20
tp21
Rp22
ag10
(g14
S'N\x07X\xfff]T@'
p23
tp24
Rp25
ag10
(g14
S'\x96\xdd"\xd5\xb3\\T@'
p26
tp27
Rp28
ag10
(g14
S'\r\xd6n\x10\t]T@'
p29
tp30
Rp31
ag10
(g14
S'8\x001pe]T@'
p32
tp33
Rp34
ag10
(g14
S'\xfdi\xe4\xdd\xe5^T@'
p35
tp36
Rp37
ag10
(g14
S'l3,\xf7b\\T@'
p38
tp39
Rp40
ag10
(g14
S'\xb5u\xbb\xa2\x8e\\T@'
p41
tp42
Rp43
ag10
(g14
S'\x19\x14h\xf8\xb6]T@'
p44
tp45
Rp46
ag10
(g14
S'\x11\x7f\xd1ni[T@'
p47
tp48
Rp49
ag10
(g14
S'H\xb1R\x89;^T@'
p50
tp51
Rp52
ag10
(g14
S'4\x01,z\x1f\\T@'
p53
tp54
Rp55
ag10
(g14
S'\xee\x15&\xa9B[T@'
p56
tp57
Rp58
ag10
(g14
S'\xae\x95t_;\\T@'
p59
tp60
Rp61
ag10
(g14
S'hq\xe5T\xb1[T@'
p62
tp63
Rp64
ag10
(g14
S'\xa0m\x89L8^T@'
p65
tp66
Rp67
ag10
(g14
S'\xf4\xe6@T[\\T@'
p68
tp69
Rp70
ag10
(g14
S'l\x93\xc1\x88\x02_T@'
p71
tp72
Rp73
ag10
(g14
S'\xd1l\xb6\x10\xad[T@'
p74
tp75
Rp76
asS'target'
p77
(lp78
g10
(g14
S')\xa5\xef\x1b \xf4:@'
p79
tp80
Rp81
ag10
(g14
S"\xaeo\xb7'\x9bd2@"
p82
tp83
Rp84
ag10
(g14
S'4\xb4E\xcf\xc0\xe41@'
p85
tp86
Rp87
ag10
(g14
S'\xbb}\xafF\x1e\xdf1@'
p88
tp89
Rp90
ag10
(g14
S'\xcf\xdc(\x01\xd5\x123@'
p91
tp92
Rp93
ag10
(g14
S'\xb0&X\x9d\x88W3@'
p94
tp95
Rp96
ag10
(g14
S"\x1d\xb2'\xf8O\xa12@"
p97
tp98
Rp99
ag10
(g14
S'\x84-\xcc\x0e\xb1X3@'
p100
tp101
Rp102
ag10
(g14
S'M\xd4\xc2\xd0\xf124@'
p103
tp104
Rp105
ag10
(g14
S'H\xf8\xe8C\x86\t3@'
p106
tp107
Rp108
ag10
(g14
S'\xf42\xef\xc4\xe6g4@'
p109
tp110
Rp111
ag10
(g14
S'%M\x14J\xc4*1@'
p112
tp113
Rp114
ag10
(g14
S'\x87(b\x14\xe946@'
p115
tp116
Rp117
ag10
(g14
S'T\xdd\xba#\xc7O4@'
p118
tp119
Rp120
ag10
(g14
S' \xc2\xc4h\xa8\xff6@'
p121
tp122
Rp123
ag10
(g14
S'\x87\xfd\x8a\xefu\xf63@'
p124
tp125
Rp126
ag10
(g14
S"'2\x03\x15$\x9b4@"
p127
tp128
Rp129
ag10
(g14
S'\xdd\xa5\xc4\x97\xc6\xc54@'
p130
tp131
Rp132
ag10
(g14
S'\x14\xd8\x0b\x961X2@'
p133
tp134
Rp135
ag10
(g14
S'\xc7\xab!H\xb9\xdc5@'
p136
tp137
Rp138
asssss.