(dp0
S'../Data/sqlite_22.csv'
p1
(dp2
S'../Data/sqlite_87.csv'
p3
(dp4
F0.2
(dp5
S'mmre'
p6
(dp7
S'bellwether'
p8
(lp9
cnumpy.core.multiarray
scalar
p10
(cnumpy
dtype
p11
(S'f8'
p12
I0
I1
tp13
Rp14
(I3
S'<'
p15
NNNI-1
I-1
I0
tp16
bS'$e\x01*&jS@'
p17
tp18
Rp19
ag10
(g14
S'\x0c\xaa\x84\x03VgS@'
p20
tp21
Rp22
ag10
(g14
S'~\xd8\xcc_`lS@'
p23
tp24
Rp25
ag10
(g14
S'X`\x91A\x1ckS@'
p26
tp27
Rp28
ag10
(g14
S'\x10\x83\x85\xe5\xb1dS@'
p29
tp30
Rp31
ag10
(g14
S'\xe8\xfd.\xf9GpS@'
p32
tp33
Rp34
ag10
(g14
S'\xd5\xeb[\xadOaS@'
p35
tp36
Rp37
ag10
(g14
S'\xe5 \x0b\xee\x03gS@'
p38
tp39
Rp40
ag10
(g14
S'\xeeH\xd6\xf9\xbepS@'
p41
tp42
Rp43
ag10
(g14
S'\x81B\x8a\xc9\x88fS@'
p44
tp45
Rp46
ag10
(g14
S'\xd4\xc2ZB\xa5TS@'
p47
tp48
Rp49
ag10
(g14
S'\x07\x90\xd6\xa5\xfboS@'
p50
tp51
Rp52
ag10
(g14
S'd\x98+.\x96iS@'
p53
tp54
Rp55
ag10
(g14
S'\xc0\xc8+\xb9H_S@'
p56
tp57
Rp58
ag10
(g14
S'\x90\x91}\xef5kS@'
p59
tp60
Rp61
ag10
(g14
S'\xe6^y\xbf\nnS@'
p62
tp63
Rp64
ag10
(g14
S'vv\x06pajS@'
p65
tp66
Rp67
ag10
(g14
S'\x17\x1b\x86D\xa1dS@'
p68
tp69
Rp70
ag10
(g14
S'PXXy\xealS@'
p71
tp72
Rp73
ag10
(g14
S'\x7f[\xe3\x8ePfS@'
p74
tp75
Rp76
asS'target'
p77
(lp78
g10
(g14
S'\xd96$\x81\xb1wP@'
p79
tp80
Rp81
ag10
(g14
S'\xca\xc9\x198\xfa\x85Q@'
p82
tp83
Rp84
ag10
(g14
S'@\x1a\x18\x96l\xbcP@'
p85
tp86
Rp87
ag10
(g14
S'\t\xf2\xb4/i\x06R@'
p88
tp89
Rp90
ag10
(g14
S'\xd9\x03\x8b\xf5\xf5ZP@'
p91
tp92
Rp93
ag10
(g14
S'Y\xfe\xb9N\x98\x05M@'
p94
tp95
Rp96
ag10
(g14
S'D*\xf2\x7f?9S@'
p97
tp98
Rp99
ag10
(g14
S'\xf4<^\xfeD\x90S@'
p100
tp101
Rp102
ag10
(g14
S'\x98[\x8fiYmM@'
p103
tp104
Rp105
ag10
(g14
S'?}r}A\xe5P@'
p106
tp107
Rp108
ag10
(g14
S'\xfc\xcc\xc5\\\x88\xe8T@'
p109
tp110
Rp111
ag10
(g14
S'\xab\xe0N\t\x14\xecT@'
p112
tp113
Rp114
ag10
(g14
S'dxX\x10\x93\xb7I@'
p115
tp116
Rp117
ag10
(g14
S'N\xfd5e\xaf4[@'
p118
tp119
Rp120
ag10
(g14
S'\x00\x8f\xd2\xdf\xd3\x1dR@'
p121
tp122
Rp123
ag10
(g14
S'r\xd2&\x8a\xd8\x0eR@'
p124
tp125
Rp126
ag10
(g14
S'\xbd\xc5\xefJ\xb8OT@'
p127
tp128
Rp129
ag10
(g14
S'\x0c^\xb7\x83\xefHH@'
p130
tp131
Rp132
ag10
(g14
S'5\x0cN\xfc\xfb\xd0K@'
p133
tp134
Rp135
ag10
(g14
S'\xea\xa40[\x8f\x91Q@'
p136
tp137
Rp138
asssss.