(dp0
S'../Data/sqlite_57.csv'
p1
(dp2
S'../Data/sqlite_61.csv'
p3
(dp4
F0.4
(dp5
S'abs_res'
p6
(dp7
S'bellwether'
p8
(lp9
cnumpy.core.multiarray
scalar
p10
(cnumpy
dtype
p11
(S'f8'
p12
I0
I1
tp13
Rp14
(I3
S'<'
p15
NNNI-1
I-1
I0
tp16
bS'\x18\xd9\xce\x03AuaA'
p17
tp18
Rp19
ag10
(g14
S'\x19Zd\xbf\x1cxaA'
p20
tp21
Rp22
ag10
(g14
S'\rX9\xa4\xeefaA'
p23
tp24
Rp25
ag10
(g14
S'w\xbe\x9f\x8a$\x86aA'
p26
tp27
Rp28
ag10
(g14
S'_d;;\x84jaA'
p29
tp30
Rp31
ag10
(g14
S'\\\x8f\xc2\xcd;paA'
p32
tp33
Rp34
ag10
(g14
S'\xe8&1\x987waA'
p35
tp36
Rp37
ag10
(g14
S'\xb3\xc8vnpoaA'
p38
tp39
Rp40
ag10
(g14
S'\x1fZd\x9b\x1bvaA'
p41
tp42
Rp43
ag10
(g14
S'j\x91\xed\x14\x9bjaA'
p44
tp45
Rp46
ag10
(g14
S'\xb2\x9d\xef\x97\x9coaA'
p47
tp48
Rp49
ag10
(g14
S'F`\xe5\xb0\x02iaA'
p50
tp51
Rp52
ag10
(g14
S'\xc5\xf5(D\xc4taA'
p53
tp54
Rp55
ag10
(g14
S'dffN\xa8jaA'
p56
tp57
Rp58
ag10
(g14
S'\r-\xb2\xcd\x07paA'
p59
tp60
Rp61
ag10
(g14
S'\xda\xf9~\xaa\xabyaA'
p62
tp63
Rp64
ag10
(g14
S'\x87A`\xd5\xdbraA'
p65
tp66
Rp67
ag10
(g14
S'~?5&\x05oaA'
p68
tp69
Rp70
ag10
(g14
S"\x85\xebQ\xb0'kaA"
p71
tp72
Rp73
ag10
(g14
S'\r\x02+\xe3AxaA'
p74
tp75
Rp76
asS'target'
p77
(lp78
g10
(g14
S'F\x8bl\xe7\xfbMn@'
p79
tp80
Rp81
ag10
(g14
S'M\x8d\x97n\x12\x15n@'
p82
tp83
Rp84
ag10
(g14
S'51\x08\xac\x1c:o@'
p85
tp86
Rp87
ag10
(g14
S'\xbct\x93\x18\x04Np@'
p88
tp89
Rp90
ag10
(g14
S'\xacG\xe1z\x14\xbar@'
p91
tp92
Rp93
ag10
(g14
S'W9\xb4\xc8v)p@'
p94
tp95
Rp96
ag10
(g14
S'T\x0e-\xb2\x9d\x02q@'
p97
tp98
Rp99
ag10
(g14
S'Vd;\xdfO-m@'
p100
tp101
Rp102
ag10
(g14
S'\x8dl\xe7\xfb\xa9\xf4t@'
p103
tp104
Rp105
ag10
(g14
S'>`\xe5\xd0"co@'
p106
tp107
Rp108
ag10
(g14
S' Zd;\xdf\x0fm@'
p109
tp110
Rp111
ag10
(g14
S'g\x12\x83\xc0\xca\x0eq@'
p112
tp113
Rp114
ag10
(g14
S"\xf9\xd4x\xe9&'n@"
p115
tp116
Rp117
ag10
(g14
S'\x90l\xe7\xfb\xa9Xs@'
p118
tp119
Rp120
ag10
(g14
S'(\x06\x81\x95C\x81o@'
p121
tp122
Rp123
ag10
(g14
S'0\xdd$\x06\x81\x1fp@'
p124
tp125
Rp126
ag10
(g14
S'w\xbe\x9f\x1a/Ys@'
p127
tp128
Rp129
ag10
(g14
S'\xa3E\xb6\xf3\xfdXl@'
p130
tp131
Rp132
ag10
(g14
S'\x83?5^\xba-k@'
p133
tp134
Rp135
ag10
(g14
S'\x04\xd7\xa3p="o@'
p136
tp137
Rp138
asssss.