(dp0
S'../Data/sqlite_76.csv'
p1
(dp2
S'../Data/sqlite_95.csv'
p3
(dp4
F0.25
(dp5
S'mmre'
p6
(dp7
S'bellwether'
p8
(lp9
cnumpy.core.multiarray
scalar
p10
(cnumpy
dtype
p11
(S'f8'
p12
I0
I1
tp13
Rp14
(I3
S'<'
p15
NNNI-1
I-1
I0
tp16
bS'\xb5\xd2%\xb9\xb0)X@'
p17
tp18
Rp19
ag10
(g14
S'S\x19\xff\xb0\xa4)X@'
p20
tp21
Rp22
ag10
(g14
S'\xab]\xa6\xb5+-X@'
p23
tp24
Rp25
ag10
(g14
S'\xbc\x07oWx(X@'
p26
tp27
Rp28
ag10
(g14
S'e\x83>M\n)X@'
p29
tp30
Rp31
ag10
(g14
S'\xb8\x80\xf7e\x00(X@'
p32
tp33
Rp34
ag10
(g14
S'\xa6\x1bpa\xfa*X@'
p35
tp36
Rp37
ag10
(g14
S'\x05\x8f\x17\xda:)X@'
p38
tp39
Rp40
ag10
(g14
S'@cma\xbe,X@'
p41
tp42
Rp43
ag10
(g14
S"\x1e\x04V'c*X@"
p44
tp45
Rp46
ag10
(g14
S'\x86\xc9~\x99\xcd)X@'
p47
tp48
Rp49
ag10
(g14
S' \xf0\xd3\x88\x95)X@'
p50
tp51
Rp52
ag10
(g14
S'\xa6\rN\xe64*X@'
p53
tp54
Rp55
ag10
(g14
S'\xe44\xf1\xff\xb5)X@'
p56
tp57
Rp58
ag10
(g14
S'\xf7&\xe6V7)X@'
p59
tp60
Rp61
ag10
(g14
S'\xac\xc9\xa0aq)X@'
p62
tp63
Rp64
ag10
(g14
S'\xc1\xff\xfd\x7f\x9d*X@'
p65
tp66
Rp67
ag10
(g14
S'{C\xce\x960)X@'
p68
tp69
Rp70
ag10
(g14
S'\xfd\x0b\xba"-+X@'
p71
tp72
Rp73
ag10
(g14
S'\xe5\x96\xb3\xa8E.X@'
p74
tp75
Rp76
asS'target'
p77
(lp78
g10
(g14
S'\xd5 \xb1\x1d\x84cA@'
p79
tp80
Rp81
ag10
(g14
S' \xa7\\]\x0f\x08C@'
p82
tp83
Rp84
ag10
(g14
S'&U\x15{8q?@'
p85
tp86
Rp87
ag10
(g14
S'\x1a\x87\xbf\x8a\xf1sB@'
p88
tp89
Rp90
ag10
(g14
S'\rH\x97\x85\xbd;B@'
p91
tp92
Rp93
ag10
(g14
S'\xc8\xe6\xfa\xba+d>@'
p94
tp95
Rp96
ag10
(g14
S'Tw\xb9\xd8yO?@'
p97
tp98
Rp99
ag10
(g14
S'\x0e\xd5<g\xa0\xa7;@'
p100
tp101
Rp102
ag10
(g14
S'\x89\xe5\xc8\xabt\xc6>@'
p103
tp104
Rp105
ag10
(g14
S'\xe2\xf3[\xfd\xe9\xd0B@'
p106
tp107
Rp108
ag10
(g14
S'B\x97p\x01MnA@'
p109
tp110
Rp111
ag10
(g14
S'NMI&\xab\xfd@@'
p112
tp113
Rp114
ag10
(g14
S'\xab\x95\xfb\xa9{bB@'
p115
tp116
Rp117
ag10
(g14
S'\xda\x81\x86\xf6\x85mB@'
p118
tp119
Rp120
ag10
(g14
S'\xaf\x12lr\xe3\xf4@@'
p121
tp122
Rp123
ag10
(g14
S'\x9e\x12`\xf0\xdf\x12B@'
p124
tp125
Rp126
ag10
(g14
S'g\xe6\xaa\x9e\x9aT@@'
p127
tp128
Rp129
ag10
(g14
S'\x85B\xfb=\xf3mA@'
p130
tp131
Rp132
ag10
(g14
S'@\x14\xf8t\x9e\xc8A@'
p133
tp134
Rp135
ag10
(g14
S'f\x80S\x00O\xbdC@'
p136
tp137
Rp138
asssss.