(dp0
S'../Data/sqlite_43.csv'
p1
(dp2
S'../Data/sqlite_61.csv'
p3
(dp4
F0.35
(dp5
S'abs_res'
p6
(dp7
S'bellwether'
p8
(lp9
cnumpy.core.multiarray
scalar
p10
(cnumpy
dtype
p11
(S'f8'
p12
I0
I1
tp13
Rp14
(I3
S'<'
p15
NNNI-1
I-1
I0
tp16
bS'\xec\xc3g8\x91\x8c8A'
p17
tp18
Rp19
ag10
(g14
S'SUU\xd5$\x8c8A'
p20
tp21
Rp22
ag10
(g14
S'\xca\xf5(< \x8d8A'
p23
tp24
Rp25
ag10
(g14
S'\x92\xfa7\xa2\xd9\x8c8A'
p26
tp27
Rp28
ag10
(g14
S'!""\xc2\x8d\x8b8A'
p29
tp30
Rp31
ag10
(g14
S'\xd2K7\tu\x8e8A'
p32
tp33
Rp34
ag10
(g14
S'F\xd2\x94jJ\x8e8A'
p35
tp36
Rp37
ag10
(g14
S'\xc9<Q_\xa6\x8e8A'
p38
tp39
Rp40
ag10
(g14
S'\x1b\xcc\x13\xd53\x8d8A'
p41
tp42
Rp43
ag10
(g14
S'K(\xa3W\xd3\x8d8A'
p44
tp45
Rp46
ag10
(g14
S'\xc7\x92_\xacJ\x8c8A'
p47
tp48
Rp49
ag10
(g14
S'\xd3\xe8mYs\x8c8A'
p50
tp51
Rp52
ag10
(g14
S't0O\xf4\xfd\x8b8A'
p53
tp54
Rp55
ag10
(g14
S'}\xc0\xca\xa14\x8c8A'
p56
tp57
Rp58
ag10
(g14
S'l\xa0\xd3F\xc1\x8d8A'
p59
tp60
Rp61
ag10
(g14
S'#\x13<\xd8\xaa\x8d8A'
p62
tp63
Rp64
ag10
(g14
S'\x7f\xf8\x0c{\xe7\x8c8A'
p65
tp66
Rp67
ag10
(g14
S'\x9b}\xf8\xac\xc7\x8c8A'
p68
tp69
Rp70
ag10
(g14
S'\xc2t\x93\x98\x8d\x8b8A'
p71
tp72
Rp73
ag10
(g14
S'\x822z[z\x8d8A'
p74
tp75
Rp76
asS'target'
p77
(lp78
g10
(g14
S'Y\xbaI\x0c\x02\xddp@'
p79
tp80
Rp81
ag10
(g14
S'ph\x91\xed|\xffn@'
p82
tp83
Rp84
ag10
(g14
S'.\x87\x16\xd9\xce\x8ap@'
p85
tp86
Rp87
ag10
(g14
S'`d;\xdfOBq@'
p88
tp89
Rp90
ag10
(g14
S'3\xb2\x9d\xef\xa7\x81r@'
p91
tp92
Rp93
ag10
(g14
S'u\xe9&1\x085q@'
p94
tp95
Rp96
ag10
(g14
S'\x83\x95C\x8bleo@'
p97
tp98
Rp99
ag10
(g14
S'\xd2Mb\x10X\xf5q@'
p100
tp101
Rp102
ag10
(g14
S'F`\xe5\xd0"3r@'
p103
tp104
Rp105
ag10
(g14
S'jffff:m@'
p106
tp107
Rp108
ag10
(g14
S'T\xb8\x1e\x85\xeb\xfep@'
p109
tp110
Rp111
ag10
(g14
S'\x81?5^\xba\x0ep@'
p112
tp113
Rp114
ag10
(g14
S'Ob\x10X9\x07u@'
p115
tp116
Rp117
ag10
(g14
S'\xf5~j\xbctrp@'
p118
tp119
Rp120
ag10
(g14
S'affff\x1cm@'
p121
tp122
Rp123
ag10
(g14
S'\x1cZd;\xdf\xbbq@'
p124
tp125
Rp126
ag10
(g14
S'\xdc\xa3p=\n\xdbs@'
p127
tp128
Rp129
ag10
(g14
S'\xee|?5^@n@'
p130
tp131
Rp132
ag10
(g14
S'{j\xbct\x93\xc4q@'
p133
tp134
Rp135
ag10
(g14
S'\xac\x1cZd;\xe3p@'
p136
tp137
Rp138
asssss.