(dp0
S'../Data/sqlite_19.csv'
p1
(dp2
S'../Data/sqlite_91.csv'
p3
(dp4
F0.3
(dp5
S'mmre'
p6
(dp7
S'bellwether'
p8
(lp9
cnumpy.core.multiarray
scalar
p10
(cnumpy
dtype
p11
(S'f8'
p12
I0
I1
tp13
Rp14
(I3
S'<'
p15
NNNI-1
I-1
I0
tp16
bS'Y\xbe\xcaw/aX@'
p17
tp18
Rp19
ag10
(g14
S')[H\xda_ZX@'
p20
tp21
Rp22
ag10
(g14
S'\xa5\x9e\xc1r\x95VX@'
p23
tp24
Rp25
ag10
(g14
S'gf\x8d\x0e~_X@'
p26
tp27
Rp28
ag10
(g14
S'3)\r\xadP\\X@'
p29
tp30
Rp31
ag10
(g14
S'\x0eJ\xad\xc7\xf3_X@'
p32
tp33
Rp34
ag10
(g14
S'\xeb\x0f\x14k\xdfYX@'
p35
tp36
Rp37
ag10
(g14
S'\xe5\xce\xe9\x03HTX@'
p38
tp39
Rp40
ag10
(g14
S'}\xf1\x98\xae\x92\\X@'
p41
tp42
Rp43
ag10
(g14
S'\xca\xc8\x85C\xf4ZX@'
p44
tp45
Rp46
ag10
(g14
S'1n\x1d\x19\x92WX@'
p47
tp48
Rp49
ag10
(g14
S'0X1/h`X@'
p50
tp51
Rp52
ag10
(g14
S'4y\xa1\xac5ZX@'
p53
tp54
Rp55
ag10
(g14
S' \xff\xec\xbb\xb4`X@'
p56
tp57
Rp58
ag10
(g14
S'\xf5\xf60\xc3hZX@'
p59
tp60
Rp61
ag10
(g14
S'y\xe5z\xb1J]X@'
p62
tp63
Rp64
ag10
(g14
S'\xe5\xd9\xb8I\xf0[X@'
p65
tp66
Rp67
ag10
(g14
S'\xa7\xb7\xce\\\x85gX@'
p68
tp69
Rp70
ag10
(g14
S'PV\xa2\x99\x15pX@'
p71
tp72
Rp73
ag10
(g14
S'\xc7r~\x18\x8aWX@'
p74
tp75
Rp76
asS'target'
p77
(lp78
g10
(g14
S'\x7f\xf1N\xb1\x12eP@'
p79
tp80
Rp81
ag10
(g14
S'\xa6\xf8\x1b\xe3\xa5\xa8P@'
p82
tp83
Rp84
ag10
(g14
S'V\x0b\x06\xbegUQ@'
p85
tp86
Rp87
ag10
(g14
S'\xc0\x94|\xa0\xf3\x10O@'
p88
tp89
Rp90
ag10
(g14
S'\x08+\xd6\xf6\xe6\x8bQ@'
p91
tp92
Rp93
ag10
(g14
S'\xce)HO\x91\xdeN@'
p94
tp95
Rp96
ag10
(g14
S'\xd2!X}[HP@'
p97
tp98
Rp99
ag10
(g14
S'\x1e,\xf8\x94\xa5RR@'
p100
tp101
Rp102
ag10
(g14
S'\xd4@v\xac\x7f\xabP@'
p103
tp104
Rp105
ag10
(g14
S'-\xd6\xad\x067\nR@'
p106
tp107
Rp108
ag10
(g14
S'dne-\t=R@'
p109
tp110
Rp111
ag10
(g14
S'^r\xe3WKtP@'
p112
tp113
Rp114
ag10
(g14
S'\x9eE\xc5\xcc\xee%R@'
p115
tp116
Rp117
ag10
(g14
S'z\xfb\xc7\xdd8\x02P@'
p118
tp119
Rp120
ag10
(g14
S'\x12\xa6XGN\xc6P@'
p121
tp122
Rp123
ag10
(g14
S'\xdb\x8c\xd5\x1d#nQ@'
p124
tp125
Rp126
ag10
(g14
S'\xcf_\xc7\x0b_XP@'
p127
tp128
Rp129
ag10
(g14
S'[P\x14V\x0b,N@'
p130
tp131
Rp132
ag10
(g14
S'\x9d\r(\x07\xbc\xc6F@'
p133
tp134
Rp135
ag10
(g14
S'\xb2\x0cL\x06\xe5\x8aR@'
p136
tp137
Rp138
asssss.