(dp0
S'../Data/sqlite_14.csv'
p1
(dp2
S'../Data/sqlite_94.csv'
p3
(dp4
F0.25
(dp5
S'mmre'
p6
(dp7
S'bellwether'
p8
(lp9
cnumpy.core.multiarray
scalar
p10
(cnumpy
dtype
p11
(S'f8'
p12
I0
I1
tp13
Rp14
(I3
S'<'
p15
NNNI-1
I-1
I0
tp16
bS'_"\xa1\xdf\x0coX@'
p17
tp18
Rp19
ag10
(g14
S'\\ii\xd7snX@'
p20
tp21
Rp22
ag10
(g14
S'w\xd9\x9d&\xd1mX@'
p23
tp24
Rp25
ag10
(g14
S'\xc4K`\xe4-mX@'
p26
tp27
Rp28
ag10
(g14
S'\xa8X\x11|UnX@'
p29
tp30
Rp31
ag10
(g14
S'O\xbfP\xd1\xc8lX@'
p32
tp33
Rp34
ag10
(g14
S'\xf2V\x1f&VnX@'
p35
tp36
Rp37
ag10
(g14
S'\xf6\x0f\x93\xcc2nX@'
p38
tp39
Rp40
ag10
(g14
S'\x11\xe2\xcd\x9b\xefkX@'
p41
tp42
Rp43
ag10
(g14
S'\x05eC\x90@mX@'
p44
tp45
Rp46
ag10
(g14
S'\x0b\xae\xf9\nPlX@'
p47
tp48
Rp49
ag10
(g14
S'O\x99\xf8C\xc2mX@'
p50
tp51
Rp52
ag10
(g14
S'\xc8 \xa0u\xc9mX@'
p53
tp54
Rp55
ag10
(g14
S'\xc3D\xc5d\xbflX@'
p56
tp57
Rp58
ag10
(g14
S'D\xfd\xf9\x8d\x0cmX@'
p59
tp60
Rp61
ag10
(g14
S'%\xe8\xe4SNnX@'
p62
tp63
Rp64
ag10
(g14
S'\x82BZ7TmX@'
p65
tp66
Rp67
ag10
(g14
S'\xcf\xc74X\x18nX@'
p68
tp69
Rp70
ag10
(g14
S'\xc9A\x13s\xbblX@'
p71
tp72
Rp73
ag10
(g14
S'z ^\x97\x9amX@'
p74
tp75
Rp76
asS'target'
p77
(lp78
g10
(g14
S'x\xfe\xd5:\x83\x07S@'
p79
tp80
Rp81
ag10
(g14
S'\x9dEv\xfcq\xbcN@'
p82
tp83
Rp84
ag10
(g14
S'\x00\xea}\xb3\x1c\x1aR@'
p85
tp86
Rp87
ag10
(g14
S'\xa7I\x00\x97\xa6\xa3U@'
p88
tp89
Rp90
ag10
(g14
S'F\xa3\x1a\xd6LqN@'
p91
tp92
Rp93
ag10
(g14
S'",\xee\x9e\x15\\Q@'
p94
tp95
Rp96
ag10
(g14
S"\xd6/}\xcf4'P@"
p97
tp98
Rp99
ag10
(g14
S'\xf9\x02\xd8\xf3\x92_O@'
p100
tp101
Rp102
ag10
(g14
S'\x9c\x85\xb4D\x07ZS@'
p103
tp104
Rp105
ag10
(g14
S'\x1dnX\x12 \xb6U@'
p106
tp107
Rp108
ag10
(g14
S'\xa1(\xef\xcd4\xc9J@'
p109
tp110
Rp111
ag10
(g14
S'\xa9\x88X\x83\xbb\x19X@'
p112
tp113
Rp114
ag10
(g14
S'\xc4\xcf\xcaY\x11\xa0T@'
p115
tp116
Rp117
ag10
(g14
S'\xe3\x87\x18\xfe:%T@'
p118
tp119
Rp120
ag10
(g14
S'\xb9\xc4.\\O\xf1Q@'
p121
tp122
Rp123
ag10
(g14
S'\xf0\x15\xe7\xd68{Q@'
p124
tp125
Rp126
ag10
(g14
S'\x1a(\xe9Q[\x0fP@'
p127
tp128
Rp129
ag10
(g14
S'i\xa0U\xae\x88\x1eQ@'
p130
tp131
Rp132
ag10
(g14
S'\xf8\x07Q\r\x1bPR@'
p133
tp134
Rp135
ag10
(g14
S'\x07d\x94\x9f\xcf\x86K@'
p136
tp137
Rp138
asssss.