(dp0
S'../Data/sqlite_17.csv'
p1
(dp2
S'../Data/sqlite_91.csv'
p3
(dp4
F0.4
(dp5
S'mmre'
p6
(dp7
S'bellwether'
p8
(lp9
cnumpy.core.multiarray
scalar
p10
(cnumpy
dtype
p11
(S'f8'
p12
I0
I1
tp13
Rp14
(I3
S'<'
p15
NNNI-1
I-1
I0
tp16
bS'\xe3\xc2QK\xcd)X@'
p17
tp18
Rp19
ag10
(g14
S'"%{\xd5`5X@'
p20
tp21
Rp22
ag10
(g14
S'\xfc\xcc\xda\xab\xd9\x15X@'
p23
tp24
Rp25
ag10
(g14
S'\xbbT\xbf\xefJ\x0fX@'
p26
tp27
Rp28
ag10
(g14
S"`\xbf\x82;g'X@"
p29
tp30
Rp31
ag10
(g14
S't\xcd\x99f "X@'
p32
tp33
Rp34
ag10
(g14
S'hB\xeaH\n\x12X@'
p35
tp36
Rp37
ag10
(g14
S'\xa3w\xd7k\xcc)X@'
p38
tp39
Rp40
ag10
(g14
S'fv\x1b-\xe9\x17X@'
p41
tp42
Rp43
ag10
(g14
S'\xe8\tq\t\xe7\x0bX@'
p44
tp45
Rp46
ag10
(g14
S'C&7\x08\xce&X@'
p47
tp48
Rp49
ag10
(g14
S'\xdd\xe2MNu+X@'
p50
tp51
Rp52
ag10
(g14
S' \x05O;y$X@'
p53
tp54
Rp55
ag10
(g14
S'\xb8\xf2\r\xc4~,X@'
p56
tp57
Rp58
ag10
(g14
S'o\x1cd\xa0LAX@'
p59
tp60
Rp61
ag10
(g14
S'KL\x8f\x04\x98\x16X@'
p62
tp63
Rp64
ag10
(g14
S'\xda\xc4F\xb3\xc4\x1cX@'
p65
tp66
Rp67
ag10
(g14
S'\xf3S\xd0o\x82\x19X@'
p68
tp69
Rp70
ag10
(g14
S'\xebm(C\x98\x18X@'
p71
tp72
Rp73
ag10
(g14
S'\xc5)\xfd\xc0\xe6\x1fX@'
p74
tp75
Rp76
asS'target'
p77
(lp78
g10
(g14
S'\x92\xa9\x0e\xd9\x97\xdbM@'
p79
tp80
Rp81
ag10
(g14
S'\xe1q\x83\x13I#I@'
p82
tp83
Rp84
ag10
(g14
S'-*d5VBO@'
p85
tp86
Rp87
ag10
(g14
S'w\xd9\xcc\x92\xe4\x1bS@'
p88
tp89
Rp90
ag10
(g14
S':y\xbf\x00\x03\xabP@'
p91
tp92
Rp93
ag10
(g14
S"E'\xa7\xdd\xa3ZJ@"
p94
tp95
Rp96
ag10
(g14
S'[C\xbb\xdc\xb4JS@'
p97
tp98
Rp99
ag10
(g14
S'2\xd3_F\x1a\x9dN@'
p100
tp101
Rp102
ag10
(g14
S'"i%l9kQ@'
p103
tp104
Rp105
ag10
(g14
S'\x1c\xa7\x8ba\xb6/R@'
p106
tp107
Rp108
ag10
(g14
S'\x02\xd1\x0b&"RN@'
p109
tp110
Rp111
ag10
(g14
S'\xb6\x88\x19Bw\xb1K@'
p112
tp113
Rp114
ag10
(g14
S'\x06\xe0\x0f\xf4\x85\xd5O@'
p115
tp116
Rp117
ag10
(g14
S'e\xd4\xef\xf2\xc7\x16O@'
p118
tp119
Rp120
ag10
(g14
S'3\xd7\x15u\x9e\nH@'
p121
tp122
Rp123
ag10
(g14
S'a>\xae|\xb0\xb9Q@'
p124
tp125
Rp126
ag10
(g14
S'\x192\xcf\x0b*\xc8P@'
p127
tp128
Rp129
ag10
(g14
S'\xe7\x8d\xd17\xc2\x91Q@'
p130
tp131
Rp132
ag10
(g14
S'\x00\xc8\x93\xa5\x94\xacR@'
p133
tp134
Rp135
ag10
(g14
S'\xe0~Zf\xca\x0bP@'
p136
tp137
Rp138
asssss.