(dp0
S'../Data/sqlite_71.csv'
p1
(dp2
S'../Data/sqlite_9.csv'
p3
(dp4
F0.05
(dp5
S'abs_res'
p6
(dp7
S'bellwether'
p8
(lp9
cnumpy.core.multiarray
scalar
p10
(cnumpy
dtype
p11
(S'f8'
p12
I0
I1
tp13
Rp14
(I3
S'<'
p15
NNNI-1
I-1
I0
tp16
bS'\x1d\xaeG\xd7\xc2CpA'
p17
tp18
Rp19
ag10
(g14
S'q\xe7\xfb\x15 @pA'
p20
tp21
Rp22
ag10
(g14
S'\xdfO\x8d\xff\xa2EpA'
p23
tp24
Rp25
ag10
(g14
S'\xa2p=z\xa2EpA'
p26
tp27
Rp28
ag10
(g14
S'\xad\x1cZ2)BpA'
p29
tp30
Rp31
ag10
(g14
S'Yd;K4BpA'
p32
tp33
Rp34
ag10
(g14
S'<\xdfO\xa7GCpA'
p35
tp36
Rp37
ag10
(g14
S'\xc7v\xbe\x19\xfdBpA'
p38
tp39
Rp40
ag10
(g14
S'\xecQ\xb8\x16M@pA'
p41
tp42
Rp43
ag10
(g14
S'\xa5\x1a/\xd9e>pA'
p44
tp45
Rp46
ag10
(g14
S')M\xa9<2CpA'
p47
tp48
Rp49
ag10
(g14
S'\x84\x88\x88\xdc\xe2?pA'
p50
tp51
Rp52
ag10
(g14
S'6\x89A\n\xc8BpA'
p53
tp54
Rp55
ag10
(g14
S'Vd;\x8bABpA'
p56
tp57
Rp58
ag10
(g14
S';5^ \xafCpA'
p59
tp60
Rp61
ag10
(g14
S'\xe3O\x8d\xeb7FpA'
p62
tp63
Rp64
ag10
(g14
S'\xf3\xa7\xc6\xbfWCpA'
p65
tp66
Rp67
ag10
(g14
S'yj\xbc\x88uBpA'
p68
tp69
Rp70
ag10
(g14
S'\x1d\x85\xeb\x03\x9fApA'
p71
tp72
Rp73
ag10
(g14
S'\x14\x83\xc0\x08+DpA'
p74
tp75
Rp76
asS'target'
p77
(lp78
g10
(g14
S'\xb1G\xe1z\x14\xbeI@'
p79
tp80
Rp81
ag10
(g14
S'T\xe3\xa5\x9b\xc40A@'
p82
tp83
Rp84
ag10
(g14
S'\xf5|?5^\xdaC@'
p85
tp86
Rp87
ag10
(g14
S'\x04T\xe3\xa5\x9bD?@'
p88
tp89
Rp90
ag10
(g14
S'e\xbct\x93\x18\x14B@'
p91
tp92
Rp93
ag10
(g14
S'^d;\xdfOeU@'
p94
tp95
Rp96
ag10
(g14
S'\x99\x18\x04V\x0e\xadD@'
p97
tp98
Rp99
ag10
(g14
S'd\x0e-\xb2\x9d\x1fH@'
p100
tp101
Rp102
ag10
(g14
S'<^\xbaI\x0c\xb2@@'
p103
tp104
Rp105
ag10
(g14
S'\xd1\xca\xa1E\xb6\x83M@'
p106
tp107
Rp108
ag10
(g14
S'm\x91\xed|?\x95@@'
p109
tp110
Rp111
ag10
(g14
S'\xc5v\xbe\x9f\x1a/D@'
p112
tp113
Rp114
ag10
(g14
S'Zd;\xdfO\xad<@'
p115
tp116
Rp117
ag10
(g14
S'\xc2\x9f\x1a/\xddDF@'
p118
tp119
Rp120
ag10
(g14
S'\x1b\xaeG\xe1z4A@'
p121
tp122
Rp123
ag10
(g14
S'\xbd\xf3\xfd\xd4x)K@'
p124
tp125
Rp126
ag10
(g14
S'\xd2\xcc\xcc\xcc\xcc<D@'
p127
tp128
Rp129
ag10
(g14
S'M5^\xbaI,H@'
p130
tp131
Rp132
ag10
(g14
S'\xe6\xce\xf7S\xe3\xa5B@'
p133
tp134
Rp135
ag10
(g14
S'B5^\xbaI\xccB@'
p136
tp137
Rp138
asssss.