(dp0
S'../Data/sqlite_74.csv'
p1
(dp2
S'../Data/sqlite_35.csv'
p3
(dp4
F0.25
(dp5
S'abs_res'
p6
(dp7
S'bellwether'
p8
(lp9
cnumpy.core.multiarray
scalar
p10
(cnumpy
dtype
p11
(S'f8'
p12
I0
I1
tp13
Rp14
(I3
S'<'
p15
NNNI-1
I-1
I0
tp16
bS'P\x1b\xe8@\xf0XiA'
p17
tp18
Rp19
ag10
(g14
S'g\x91\xed\x14\xdd\\iA'
p20
tp21
Rp22
ag10
(g14
S'3Q\xffVaaiA'
p23
tp24
Rp25
ag10
(g14
S'R*\xce\xea8YiA'
p26
tp27
Rp28
ag10
(g14
S'\n\x1e\xcc\xaf\x97^iA'
p29
tp30
Rp31
ag10
(g14
S'$M\xa9,\x02diA'
p32
tp33
Rp34
ag10
(g14
S'*\\\x8f\x82\xdegiA'
p35
tp36
Rp37
ag10
(g14
S'{\x86]\xfdCgiA'
p38
tp39
Rp40
ag10
(g14
S'xj\xbc\x08lciA'
p41
tp42
Rp43
ag10
(g14
S'\r\x1e\xcc+\xa0eiA'
p44
tp45
Rp46
ag10
(g14
S'\x02\x81\x953\x16kiA'
p47
tp48
Rp49
ag10
(g14
S'\x7f\x16\xd9\xe6O^iA'
p50
tp51
Rp52
ag10
(g14
S'\xbd\xbb\xbb\x0f\tciA'
p53
tp54
Rp55
ag10
(g14
S'z\x95C\xef\x04RiA'
p56
tp57
Rp58
ag10
(g14
S'\xce>|"\xadRiA'
p59
tp60
Rp61
ag10
(g14
S'8\xd0i_\x97hiA'
p62
tp63
Rp64
ag10
(g14
S'\xc7\xa1E\xf2\x1bWiA'
p65
tp66
Rp67
ag10
(g14
S'+\xb2\x9d?\xc1`iA'
p68
tp69
Rp70
ag10
(g14
S'\xac\x0f\x9f\xb5\xf6UiA'
p71
tp72
Rp73
ag10
(g14
S'g\xbct\xbb\xacbiA'
p74
tp75
Rp76
asS'target'
p77
(lp78
g10
(g14
S'\x19\x04V\x0e-\x06`@'
p79
tp80
Rp81
ag10
(g14
S'\xb0\x9d\xef\xa7\xc6\x93^@'
p82
tp83
Rp84
ag10
(g14
S'\xb7I\x0c\x02+\xb7_@'
p85
tp86
Rp87
ag10
(g14
S'\x94A`\xe5\xd0*^@'
p88
tp89
Rp90
ag10
(g14
S'\x94\x99\x99\x99\x99A_@'
p91
tp92
Rp93
ag10
(g14
S'\xf6S\xe3\xa5\x9b\x94]@'
p94
tp95
Rp96
ag10
(g14
S'k;\xdfO\x8d\x07^@'
p97
tp98
Rp99
ag10
(g14
S'v\x10X9\xb4X^@'
p100
tp101
Rp102
ag10
(g14
S'\x11\xaeG\xe1z\xdc\\@'
p103
tp104
Rp105
ag10
(g14
S'\xd0"\xdb\xf9~\x92^@'
p106
tp107
Rp108
ag10
(g14
S'S7\x89A`\r_@'
p109
tp110
Rp111
ag10
(g14
S'o\x91\xed|?\x8d^@'
p112
tp113
Rp114
ag10
(g14
S'W\xe3\xa5\x9b\xc4\x1c`@'
p115
tp116
Rp117
ag10
(g14
S'\x0b\x02+\x87\x16\xcd_@'
p118
tp119
Rp120
ag10
(g14
S'\xd0\xf7S\xe3\xa5#_@'
p121
tp122
Rp123
ag10
(g14
S'}?5^\xba\x19`@'
p124
tp125
Rp126
ag10
(g14
S'\xd4x\xe9&1\xf8]@'
p127
tp128
Rp129
ag10
(g14
S'C7\x89A`\xc5_@'
p130
tp131
Rp132
ag10
(g14
S'\x0e\xaeG\xe1z\xfc]@'
p133
tp134
Rp135
ag10
(g14
S'J7\x89A`e_@'
p136
tp137
Rp138
asssss.