(dp0
S'../Data/sqlite_68.csv'
p1
(dp2
S'../Data/sqlite_63.csv'
p3
(dp4
F0.05
(dp5
S'mmre'
p6
(dp7
S'bellwether'
p8
(lp9
cnumpy.core.multiarray
scalar
p10
(cnumpy
dtype
p11
(S'f8'
p12
I0
I1
tp13
Rp14
(I3
S'<'
p15
NNNI-1
I-1
I0
tp16
bS'\x87\x94#B\xf6Gl@'
p17
tp18
Rp19
ag10
(g14
S'\xe43\x95\xb5R@l@'
p20
tp21
Rp22
ag10
(g14
S'o\xf3\x98xIHl@'
p23
tp24
Rp25
ag10
(g14
S'\x12\xa7V\xdc\x0bLl@'
p26
tp27
Rp28
ag10
(g14
S'z\xe8qD\xcbOl@'
p29
tp30
Rp31
ag10
(g14
S'#\xd4j\x0c\x1bFl@'
p32
tp33
Rp34
ag10
(g14
S'(C\xc7\xb7\xfaCl@'
p35
tp36
Rp37
ag10
(g14
S'\xf2\xa6\xad\xef7Dl@'
p38
tp39
Rp40
ag10
(g14
S'l\xf1\x91\x9by>l@'
p41
tp42
Rp43
ag10
(g14
S'\xe6\xd26)\xb3Bl@'
p44
tp45
Rp46
ag10
(g14
S'\xb67\x15\xfb\xf7Tl@'
p47
tp48
Rp49
ag10
(g14
S'\xb6\xb3VD\xe3Ml@'
p50
tp51
Rp52
ag10
(g14
S'\x84F\x1f\xc9\xffGl@'
p53
tp54
Rp55
ag10
(g14
S'\x823a\x85]Il@'
p56
tp57
Rp58
ag10
(g14
S'!\xbb1*\x92=l@'
p59
tp60
Rp61
ag10
(g14
S'\x11\x15\x11V\xa0=l@'
p62
tp63
Rp64
ag10
(g14
S'\xc3\xdc\xb6TrMl@'
p65
tp66
Rp67
ag10
(g14
S'F\x0f\x1dl\x1eFl@'
p68
tp69
Rp70
ag10
(g14
S'\xacB\x19v\x80Hl@'
p71
tp72
Rp73
ag10
(g14
S'\xc0\xd6\xc8|!Bl@'
p74
tp75
Rp76
asS'target'
p77
(lp78
g10
(g14
S'r>\xba\xf4\xa0\xcc!@'
p79
tp80
Rp81
ag10
(g14
S'\xdet\x07\xd1\xe6\xc5"@'
p82
tp83
Rp84
ag10
(g14
S'\x94h@\xe7\xdb\xa6$@'
p85
tp86
Rp87
ag10
(g14
S'D]\x86\x8c\x99\xe7&@'
p88
tp89
Rp90
ag10
(g14
S'\xee\xfe\xd7S\xc9p#@'
p91
tp92
Rp93
ag10
(g14
S'J\xc9\xb5\xa6\x00r#@'
p94
tp95
Rp96
ag10
(g14
S'\x88\xc7O \xda\xb1"@'
p97
tp98
Rp99
ag10
(g14
S'r\xe2\x9f\xcf\xd2\x18#@'
p100
tp101
Rp102
ag10
(g14
S'\xd6\xdeVr@v#@'
p103
tp104
Rp105
ag10
(g14
S'\x9ewS[j\x04#@'
p106
tp107
Rp108
ag10
(g14
S'\xf2\xa8K\xd6\xd66$@'
p109
tp110
Rp111
ag10
(g14
S' &\xa6\xfbu\r"@'
p112
tp113
Rp114
ag10
(g14
S')\xb7\xb4\xf7k\xc8!@'
p115
tp116
Rp117
ag10
(g14
S'QU\x8eL\xc6A$@'
p118
tp119
Rp120
ag10
(g14
S'j9hv@~!@'
p121
tp122
Rp123
ag10
(g14
S'\xb9\x1c\xe6Ew\xe9"@'
p124
tp125
Rp126
ag10
(g14
S'\xb9\xfb\xbei\xfe\x18$@'
p127
tp128
Rp129
ag10
(g14
S'D\x0c.G\xa6]"@'
p130
tp131
Rp132
ag10
(g14
S'\x08:\x9f\xfd\x06)"@'
p133
tp134
Rp135
ag10
(g14
S'`paV^\xa4"@'
p136
tp137
Rp138
asssss.