(dp0
S'../Data/sqlite_87.csv'
p1
(dp2
S'../Data/sqlite_62.csv'
p3
(dp4
F0.3
(dp5
S'mmre'
p6
(dp7
S'bellwether'
p8
(lp9
cnumpy.core.multiarray
scalar
p10
(cnumpy
dtype
p11
(S'f8'
p12
I0
I1
tp13
Rp14
(I3
S'<'
p15
NNNI-1
I-1
I0
tp16
bS'\x01$,\xbcf\xeeF@'
p17
tp18
Rp19
ag10
(g14
S'V\x94Fo\x19\x7fF@'
p20
tp21
Rp22
ag10
(g14
S'\xf4\x989H\xa0\x03F@'
p23
tp24
Rp25
ag10
(g14
S'\x92]\x15O\x9c\xb2F@'
p26
tp27
Rp28
ag10
(g14
S'\xf7\x1cylb\xadG@'
p29
tp30
Rp31
ag10
(g14
S"+yb\x14'kG@"
p32
tp33
Rp34
ag10
(g14
S'\xe7\x9e1/=,G@'
p35
tp36
Rp37
ag10
(g14
S'\x1c\xe7\x866^\xeeD@'
p38
tp39
Rp40
ag10
(g14
S'\xea\xef\x00\xdeN\xb6E@'
p41
tp42
Rp43
ag10
(g14
S'\x92\x1f\x83\xd4S\xd1F@'
p44
tp45
Rp46
ag10
(g14
S'xf{\xf0<:G@'
p47
tp48
Rp49
ag10
(g14
S'~\x04\xe1#\x14\xd2E@'
p50
tp51
Rp52
ag10
(g14
S'\t\xd20=\x00\x85F@'
p53
tp54
Rp55
ag10
(g14
S'.\xe1\xcc\xea\xdfLF@'
p56
tp57
Rp58
ag10
(g14
S'\x19\x7f\x9d:\x90,F@'
p59
tp60
Rp61
ag10
(g14
S'\x99U\xdb\xc1I\xbdF@'
p62
tp63
Rp64
ag10
(g14
S's\xccZ\x14\t}F@'
p65
tp66
Rp67
ag10
(g14
S'o\xb30\xef^/E@'
p68
tp69
Rp70
ag10
(g14
S'\x8e\x97\x91$\x07xE@'
p71
tp72
Rp73
ag10
(g14
S'V\xd3\x82\xd4d\x98F@'
p74
tp75
Rp76
asS'target'
p77
(lp78
g10
(g14
S'\x9dY"/+\xc9!@'
p79
tp80
Rp81
ag10
(g14
S'\x85a?ml1"@'
p82
tp83
Rp84
ag10
(g14
S'ewS\xb0\xa4$!@'
p85
tp86
Rp87
ag10
(g14
S'\xe0<\xa1`~\xb6 @'
p88
tp89
Rp90
ag10
(g14
S',\x8d\xe3_ym!@'
p91
tp92
Rp93
ag10
(g14
S'\xda\xe7\xce\xf2\t\xfd @'
p94
tp95
Rp96
ag10
(g14
S'\x81b\x02\xfcY\xfd @'
p97
tp98
Rp99
ag10
(g14
S',\x85eZ\xdc\xee @'
p100
tp101
Rp102
ag10
(g14
S'yI\x07\xb1\x89D!@'
p103
tp104
Rp105
ag10
(g14
S'\xf8\xae\xe35V\xc5 @'
p106
tp107
Rp108
ag10
(g14
S"'\xc8\xdd\x96\xe0} @"
p109
tp110
Rp111
ag10
(g14
S'\xee\xd8:\xa1e\x1c"@'
p112
tp113
Rp114
ag10
(g14
S'\xf2\xb3\xb7\xbeD#!@'
p115
tp116
Rp117
ag10
(g14
S'@\xde\x95\x18\x80f!@'
p118
tp119
Rp120
ag10
(g14
S'\xde\x90\xd2N\xbdp!@'
p121
tp122
Rp123
ag10
(g14
S'p8\x8f\xfd\x0e\xfe @'
p124
tp125
Rp126
ag10
(g14
S'\xce\xdf\x04\xca\xe3\xe7!@'
p127
tp128
Rp129
ag10
(g14
S'$+=.\x80l"@'
p130
tp131
Rp132
ag10
(g14
S'"*$\xea~\xb8 @'
p133
tp134
Rp135
ag10
(g14
S'\xe1m\xde\x05\x81\xab!@'
p136
tp137
Rp138
asssss.