(dp0
S'../Data/sqlite_57.csv'
p1
(dp2
S'../Data/sqlite_28.csv'
p3
(dp4
F0.3
(dp5
S'abs_res'
p6
(dp7
S'bellwether'
p8
(lp9
cnumpy.core.multiarray
scalar
p10
(cnumpy
dtype
p11
(S'f8'
p12
I0
I1
tp13
Rp14
(I3
S'<'
p15
NNNI-1
I-1
I0
tp16
bS'q\x12\x83\xc0\xda_dA'
p17
tp18
Rp19
ag10
(g14
S'"1\x08\xcc\x98^dA'
p20
tp21
Rp22
ag10
(g14
S'qh\x91\xe5@VdA'
p23
tp24
Rp25
ag10
(g14
S'\xe9\xa5\x9bd\xb6^dA'
p26
tp27
Rp28
ag10
(g14
S'\xfe\xff\xff\x1b\x1aidA'
p29
tp30
Rp31
ag10
(g14
S'\xe4\xd0"\xd7\xa8\\dA'
p32
tp33
Rp34
ag10
(g14
S'd\x10X\x1d\xc8\\dA'
p35
tp36
Rp37
ag10
(g14
S'v\x93\x18h\xe8ddA'
p38
tp39
Rp40
ag10
(g14
S'\x97C\x8b`gZdA'
p41
tp42
Rp43
ag10
(g14
S'v\xe9&\xd1\x9eddA'
p44
tp45
Rp46
ag10
(g14
S'\xb0\x9d\xef7\xdbedA'
p47
tp48
Rp49
ag10
(g14
S';\n\xd7\x13\x89\\dA'
p50
tp51
Rp52
ag10
(g14
S'=5^\x16LjdA'
p53
tp54
Rp55
ag10
(g14
S'\xc5\xca\xa1\xd5\xc1edA'
p56
tp57
Rp58
ag10
(g14
S'K\x0c\x027F]dA'
p59
tp60
Rp61
ag10
(g14
S'\xef(\\\x17\xcaVdA'
p62
tp63
Rp64
ag10
(g14
S'\x9e\xc4 \xe4&idA'
p65
tp66
Rp67
ag10
(g14
S'\xacp=:\xe8TdA'
p68
tp69
Rp70
ag10
(g14
S'\x01\xaa\xf1r%`dA'
p71
tp72
Rp73
ag10
(g14
S"'\\\x8f\x16s[dA"
p74
tp75
Rp76
asS'target'
p77
(lp78
g10
(g14
S'8^\xbaI\x0c"^@'
p79
tp80
Rp81
ag10
(g14
S'.^\xbaI\x0c\xfc`@'
p82
tp83
Rp84
ag10
(g14
S'\xa6\xc6K7\x89\x19`@'
p85
tp86
Rp87
ag10
(g14
S'[\xb8\x1e\x85\xeb}_@'
p88
tp89
Rp90
ag10
(g14
S'\xa6\x1cZd;\x0b]@'
p91
tp92
Rp93
ag10
(g14
S'\x1a\x85\xebQ\xb8\x16_@'
p94
tp95
Rp96
ag10
(g14
S'z\x14\xaeG\xe1\xc6\\@'
p97
tp98
Rp99
ag10
(g14
S'\x1d/\xdd$\x06i]@'
p100
tp101
Rp102
ag10
(g14
S'\xba\x9f\x1a/\xdd`_@'
p103
tp104
Rp105
ag10
(g14
S'\x84?5^\xba\t^@'
p106
tp107
Rp108
ag10
(g14
S'=\xb4\xc8v\xbe\x1f`@'
p109
tp110
Rp111
ag10
(g14
S'\xe9\xa5\x9b\xc4 \x08^@'
p112
tp113
Rp114
ag10
(g14
S'\xd9\xf9~j\xbc\x08_@'
p115
tp116
Rp117
ag10
(g14
S'*\xdb\xf9~jt]@'
p118
tp119
Rp120
ag10
(g14
S'\xb7\x9d\xef\xa7\xc6\xe7]@'
p121
tp122
Rp123
ag10
(g14
S'0\xdb\xf9~j\x1c_@'
p124
tp125
Rp126
ag10
(g14
S'+\xb2\x9d\xef\xa7R^@'
p127
tp128
Rp129
ag10
(g14
S'\xe4O\x8d\x97nj`@'
p130
tp131
Rp132
ag10
(g14
S'(1\x08\xac\x1c\x9a\\@'
p133
tp134
Rp135
ag10
(g14
S'L\xe1z\x14\xaes^@'
p136
tp137
Rp138
asssss.