(dp0
S'../Data/sqlite_29.csv'
p1
(dp2
S'../Data/sqlite_45.csv'
p3
(dp4
F0.3
(dp5
S'abs_res'
p6
(dp7
S'bellwether'
p8
(lp9
cnumpy.core.multiarray
scalar
p10
(cnumpy
dtype
p11
(S'f8'
p12
I0
I1
tp13
Rp14
(I3
S'<'
p15
NNNI-1
I-1
I0
tp16
bS'\xe43\xecj\x15:?A'
p17
tp18
Rp19
ag10
(g14
S'\xfa\xf0\x196t:?A'
p20
tp21
Rp22
ag10
(g14
S'\xac\x7f#\x14\xca:?A'
p23
tp24
Rp25
ag10
(g14
S'g;\xdf\xaf\x0f<?A'
p26
tp27
Rp28
ag10
(g14
S'f;\xdf/\x0e<?A'
p29
tp30
Rp31
ag10
(g14
S'Lb\x10\xd8b;?A'
p32
tp33
Rp34
ag10
(g14
S'\x93\x18\x04V7;?A'
p35
tp36
Rp37
ag10
(g14
S'b\xc9/Vc:?A'
p38
tp39
Rp40
ag10
(g14
S"=\x98'\xea\x83=?A"
p41
tp42
Rp43
ag10
(g14
S'\xb3\xe4\x17+J;?A'
p44
tp45
Rp46
ag10
(g14
S'\xba\x81N[\x8b8?A'
p47
tp48
Rp49
ag10
(g14
S'\x95}\xf8l\xa59?A'
p50
tp51
Rp52
ag10
(g14
S'\x9d\xd3\x06\xba^:?A'
p53
tp54
Rp55
ag10
(g14
S'\xc0\x92_l\x1e<?A'
p56
tp57
Rp58
ag10
(g14
S'}\xe9&1\xb6;?A'
p59
tp60
Rp61
ag10
(g14
S'*\xa3\xb7\xa5V9?A'
p62
tp63
Rp64
ag10
(g14
S'\xa8\x1cZ$\x17=?A'
p65
tp66
Rp67
ag10
(g14
S'\x95\xfcb\xc9J=?A'
p68
tp69
Rp70
ag10
(g14
S'\x84\x88\x88(\xfd:?A'
p71
tp72
Rp73
ag10
(g14
S'\x17/\xddd\r;?A'
p74
tp75
Rp76
asS'target'
p77
(lp78
g10
(g14
S'\x96\xed|?5:j@'
p79
tp80
Rp81
ag10
(g14
S'C\xb6\xf3\xfd\xd4(k@'
p82
tp83
Rp84
ag10
(g14
S'\x9d\x99\x99\x99\x99\x8dk@'
p85
tp86
Rp87
ag10
(g14
S'\xf0\xfb\xa9\xf1\xd2\x05j@'
p88
tp89
Rp90
ag10
(g14
S'\xdb\xf9~j\xbcJj@'
p91
tp92
Rp93
ag10
(g14
S'~?5^\xbaUi@'
p94
tp95
Rp96
ag10
(g14
S'\xe4\xd2Mb\x10\xf8k@'
p97
tp98
Rp99
ag10
(g14
S'\xddMb\x10X\x8fj@'
p100
tp101
Rp102
ag10
(g14
S'\x1c\\\x8f\xc2\xf5\x98i@'
p103
tp104
Rp105
ag10
(g14
S'\xb4I\x0c\x02+?j@'
p106
tp107
Rp108
ag10
(g14
S'\x94\xc2\xf5(\\\xc7j@'
p109
tp110
Rp111
ag10
(g14
S'\xd0\xf7S\xe3\xa5oj@'
p112
tp113
Rp114
ag10
(g14
S'\x96\xc4 \xb0r\x1cj@'
p115
tp116
Rp117
ag10
(g14
S'\xfe\x01+\x87\x16_k@'
p118
tp119
Rp120
ag10
(g14
S'l\xe7\xfb\xa9\xf1&j@'
p121
tp122
Rp123
ag10
(g14
S'\xddx\xe9&1\xb6j@'
p124
tp125
Rp126
ag10
(g14
S'\xf7(\\\x8f\xc2\x89h@'
p127
tp128
Rp129
ag10
(g14
S'+1\x08\xac\x1czj@'
p130
tp131
Rp132
ag10
(g14
S'~\x14\xaeG\xe1vh@'
p133
tp134
Rp135
ag10
(g14
S'8\xdfO\x8d\x97\x96i@'
p136
tp137
Rp138
asssss.