(dp0
S'../Data/sqlite_22.csv'
p1
(dp2
S'../Data/sqlite_73.csv'
p3
(dp4
F0.05
(dp5
S'mmre'
p6
(dp7
S'bellwether'
p8
(lp9
cnumpy.core.multiarray
scalar
p10
(cnumpy
dtype
p11
(S'f8'
p12
I0
I1
tp13
Rp14
(I3
S'<'
p15
NNNI-1
I-1
I0
tp16
bS'\xea/2\xbd$GT@'
p17
tp18
Rp19
ag10
(g14
S'O7\x96LeIT@'
p20
tp21
Rp22
ag10
(g14
S'x\x01\xa83JIT@'
p23
tp24
Rp25
ag10
(g14
S'\xecr\x18\xcb\xf0GT@'
p26
tp27
Rp28
ag10
(g14
S'\xbc\x00D\xddEFT@'
p29
tp30
Rp31
ag10
(g14
S'w6\t\xc5\x1cIT@'
p32
tp33
Rp34
ag10
(g14
S'\xff@9)\xd5ET@'
p35
tp36
Rp37
ag10
(g14
S'[{Z\xd6\x8bIT@'
p38
tp39
Rp40
ag10
(g14
S'=\x8aG\xaa`GT@'
p41
tp42
Rp43
ag10
(g14
S'\xd6r\xe9\xb2\x1dIT@'
p44
tp45
Rp46
ag10
(g14
S'\x9a\xac /\xabHT@'
p47
tp48
Rp49
ag10
(g14
S'g\xd3\xc2jgHT@'
p50
tp51
Rp52
ag10
(g14
S'`\xf9xsNHT@'
p53
tp54
Rp55
ag10
(g14
S'\xa2\xdc1\xb0\xebFT@'
p56
tp57
Rp58
ag10
(g14
S'\x1dM\xcd\xf1\x0cGT@'
p59
tp60
Rp61
ag10
(g14
S'\xa5\xba\xaa3 FT@'
p62
tp63
Rp64
ag10
(g14
S'\x9d\xf7\xcd\x8eUFT@'
p65
tp66
Rp67
ag10
(g14
S'tS\xbe\xc3\x97GT@'
p68
tp69
Rp70
ag10
(g14
S'\xfb\x8a\xc8\x95GGT@'
p71
tp72
Rp73
ag10
(g14
S'\xc5\xe2\x95D\x81IT@'
p74
tp75
Rp76
asS'target'
p77
(lp78
g10
(g14
S'\xeevQ\xde\xf7:.@'
p79
tp80
Rp81
ag10
(g14
S'\rS\xb5\tk\x18)@'
p82
tp83
Rp84
ag10
(g14
S'\x88!\xa9\xaf\x8e\xa3*@'
p85
tp86
Rp87
ag10
(g14
S'b\x16\xa9\x95=\x16-@'
p88
tp89
Rp90
ag10
(g14
S'\xc7\x1evE\xbbA/@'
p91
tp92
Rp93
ag10
(g14
S'\xe9\xf4wS\xeb\xd3)@'
p94
tp95
Rp96
ag10
(g14
S'\xe5\xbe\x11*O\xa8/@'
p97
tp98
Rp99
ag10
(g14
S'\n"l\xb99F(@'
p100
tp101
Rp102
ag10
(g14
S'0`\x892X\xf8*@'
p103
tp104
Rp105
ag10
(g14
S'\xf4&\xcd\xc7\xc54*@'
p106
tp107
Rp108
ag10
(g14
S'\xearz\x86\xfe1.@'
p109
tp110
Rp111
ag10
(g14
S'\xb1\xee\xc0\x1d?p,@'
p112
tp113
Rp114
ag10
(g14
S'L\x9c!\xa9a\xfe)@'
p115
tp116
Rp117
ag10
(g14
S'\x9f#j\t\x85&+@'
p118
tp119
Rp120
ag10
(g14
S'\xf2v!\x15\xa1\xfc-@'
p121
tp122
Rp123
ag10
(g14
S'\x00r\x80=&46@'
p124
tp125
Rp126
ag10
(g14
S'=S\x11R\xee\xed-@'
p127
tp128
Rp129
ag10
(g14
S'6_^\x7f\xf8}.@'
p130
tp131
Rp132
ag10
(g14
S'\xed\xacT\xdd\xbf8-@'
p133
tp134
Rp135
ag10
(g14
S'\x7f\x9d]\xc6\xbci+@'
p136
tp137
Rp138
asssss.