(dp0
S'../Data/sqlite_18.csv'
p1
(dp2
S'../Data/sqlite_34.csv'
p3
(dp4
F0.4
(dp5
S'abs_res'
p6
(dp7
S'bellwether'
p8
(lp9
cnumpy.core.multiarray
scalar
p10
(cnumpy
dtype
p11
(S'f8'
p12
I0
I1
tp13
Rp14
(I3
S'<'
p15
NNNI-1
I-1
I0
tp16
bS'$\x06\x81u\x91#7A'
p17
tp18
Rp19
ag10
(g14
S'3\xa5\xe2\xec{$7A'
p20
tp21
Rp22
ag10
(g14
S'\x94Rq\x16\x85 7A'
p23
tp24
Rp25
ag10
(g14
S'\xa8\xf1\xd2\x8d,&7A'
p26
tp27
Rp28
ag10
(g14
S'\xbcg\xd8\x15\xf1$7A'
p29
tp30
Rp31
ag10
(g14
S'\xdbz\x14n\xf0$7A'
p32
tp33
Rp34
ag10
(g14
S'mL\xf0\xe0T#7A'
p35
tp36
Rp37
ag10
(g14
S'iuL\xf0\x8b%7A'
p38
tp39
Rp40
ag10
(g14
S'\xc3\xca\xa1\xe5B"7A'
p41
tp42
Rp43
ag10
(g14
S'\x87]\x01\x92n#7A'
p44
tp45
Rp46
ag10
(g14
S'\xd5k.\xa4\xfd#7A'
p47
tp48
Rp49
ag10
(g14
S'\xf9\xc5\x92\x1f)#7A'
p50
tp51
Rp52
ag10
(g14
S'o\x12\x83\x00\xa8#7A'
p53
tp54
Rp55
ag10
(g14
S'\x18 \xf7Z "7A'
p56
tp57
Rp58
ag10
(g14
S'\xe8\xe13l$%7A'
p59
tp60
Rp61
ag10
(g14
S'\xea\xc3g\x18\xf4"7A'
p62
tp63
Rp64
ag10
(g14
S'\xb4\x904\xa5\x8a#7A'
p65
tp66
Rp67
ag10
(g14
S'!1\x08\xccj#7A'
p68
tp69
Rp70
ag10
(g14
S'<\xb4\xc8\xd6g"7A'
p71
tp72
Rp73
ag10
(g14
S'\xe3&1h\xe2!7A'
p74
tp75
Rp76
asS'target'
p77
(lp78
g10
(g14
S'\x9bn\x12\x83\xc0\x12e@'
p79
tp80
Rp81
ag10
(g14
S'jffff\xf4c@'
p82
tp83
Rp84
ag10
(g14
S'n\xe7\xfb\xa9\xf1Pd@'
p85
tp86
Rp87
ag10
(g14
S' Zd;\xdfkd@'
p88
tp89
Rp90
ag10
(g14
S'T\xe3\xa5\x9b\xc4\x08e@'
p91
tp92
Rp93
ag10
(g14
S'\xf5\xd2Mb\x10\xcac@'
p94
tp95
Rp96
ag10
(g14
S'T\xb8\x1e\x85\xeb\xddd@'
p97
tp98
Rp99
ag10
(g14
S'\x8el\xe7\xfb\xa9\xfdd@'
p100
tp101
Rp102
ag10
(g14
S'G7\x89A`\rd@'
p103
tp104
Rp105
ag10
(g14
S'G7\x89A`#e@'
p106
tp107
Rp108
ag10
(g14
S'33333\xa5c@'
p109
tp110
Rp111
ag10
(g14
S'\x1eZd;\xdf\x93d@'
p112
tp113
Rp114
ag10
(g14
S'\x0c\x81\x95C\x8b8d@'
p115
tp116
Rp117
ag10
(g14
S'Nb\x10X9|c@'
p118
tp119
Rp120
ag10
(g14
S'8\xdfO\x8d\x97fe@'
p121
tp122
Rp123
ag10
(g14
S'\xda\xce\xf7S\xe3\xadd@'
p124
tp125
Rp126
ag10
(g14
S'\xd6Mb\x10Xqd@'
p127
tp128
Rp129
ag10
(g14
S'&\x15g\x1f>\x1dd@'
p130
tp131
Rp132
ag10
(g14
S'\x05\xd5x\xe9&\xcbd@'
p133
tp134
Rp135
ag10
(g14
S'\x94\xc2\xf5(\\\x93d@'
p136
tp137
Rp138
asssss.