(dp0
S'../Data/sqlite_45.csv'
p1
(dp2
S'../Data/sqlite_73.csv'
p3
(dp4
F0.1
(dp5
S'mmre'
p6
(dp7
S'bellwether'
p8
(lp9
cnumpy.core.multiarray
scalar
p10
(cnumpy
dtype
p11
(S'f8'
p12
I0
I1
tp13
Rp14
(I3
S'<'
p15
NNNI-1
I-1
I0
tp16
bS'_T\xe4.#YE@'
p17
tp18
Rp19
ag10
(g14
S'\x18\xdfn<wQE@'
p20
tp21
Rp22
ag10
(g14
S'0\xa6\x1b}\xc2PE@'
p23
tp24
Rp25
ag10
(g14
S'n!7\xc6\xe6bE@'
p26
tp27
Rp28
ag10
(g14
S'\xc7\x05d\xe3\xa1iE@'
p29
tp30
Rp31
ag10
(g14
S'W\xd7\xf4S=KE@'
p32
tp33
Rp34
ag10
(g14
S'\xcd\x05\xba\x99\xe1OE@'
p35
tp36
Rp37
ag10
(g14
S'K]\xc0\x9a\x8f\\E@'
p38
tp39
Rp40
ag10
(g14
S'\xe2\xb6D\x9d\xf1QE@'
p41
tp42
Rp43
ag10
(g14
S'.\x0f\x90\xa87ZE@'
p44
tp45
Rp46
ag10
(g14
S'\xb7\xf0^\xc9XlE@'
p47
tp48
Rp49
ag10
(g14
S'\xe1\xbbiI^bE@'
p50
tp51
Rp52
ag10
(g14
S'v~-7\x97[E@'
p53
tp54
Rp55
ag10
(g14
S'\xdd\x90^\x11\x1cOE@'
p56
tp57
Rp58
ag10
(g14
S'5\x08\xaf\xc8\xb0pE@'
p59
tp60
Rp61
ag10
(g14
S'\n*\x91RdiE@'
p62
tp63
Rp64
ag10
(g14
S"\xa2|\xb3'S\\E@"
p65
tp66
Rp67
ag10
(g14
S'\xfaQ\xb1\x9bTTE@'
p68
tp69
Rp70
ag10
(g14
S'\xa7\x81\xf7\xd2S]E@'
p71
tp72
Rp73
ag10
(g14
S' \xa5\x7f\x049cE@'
p74
tp75
Rp76
asS'target'
p77
(lp78
g10
(g14
S'`X3rc\x03,@'
p79
tp80
Rp81
ag10
(g14
S'\x00i\x1bE\x00\xb80@'
p82
tp83
Rp84
ag10
(g14
S'\x1a\x91\x07\x8f\xaeR.@'
p85
tp86
Rp87
ag10
(g14
S'!\xcbn$\xdf\n+@'
p88
tp89
Rp90
ag10
(g14
S'\n\x1f\xa5\xe9WZ)@'
p91
tp92
Rp93
ag10
(g14
S'\xd4\x8b\xed\xc9\x0bQ2@'
p94
tp95
Rp96
ag10
(g14
S'g,P\x0c-;.@'
p97
tp98
Rp99
ag10
(g14
S'\xd6\x95\xca\x87\xdaB-@'
p100
tp101
Rp102
ag10
(g14
S'\xa5\xba\x038\xde\xc2+@'
p103
tp104
Rp105
ag10
(g14
S'D\x88\x96\x93\xb9\x9c*@'
p106
tp107
Rp108
ag10
(g14
S'\xa4\x94\xfb\x7f\xdb\x19*@'
p109
tp110
Rp111
ag10
(g14
S'[\xdb\x9bH\xd8\xcc+@'
p112
tp113
Rp114
ag10
(g14
S'\xb1C\xb6d\xb1\xb8,@'
p115
tp116
Rp117
ag10
(g14
S'p\xa7?+R9,@'
p118
tp119
Rp120
ag10
(g14
S'\x135\xcdq\xab\xef*@'
p121
tp122
Rp123
ag10
(g14
S'{\x9c\xf3\xe1\x12\x11,@'
p124
tp125
Rp126
ag10
(g14
S'\xf1\xe5\x0e\xb2\xc6\xb4)@'
p127
tp128
Rp129
ag10
(g14
S'\tF\x16\x02{#,@'
p130
tp131
Rp132
ag10
(g14
S'\xf6\xbf\xfda\x7f\x0c.@'
p133
tp134
Rp135
ag10
(g14
S'\x19\xe4\xd9|4S/@'
p136
tp137
Rp138
asssss.