(dp0
S'../Data/sqlite_0.csv'
p1
(dp2
S'../Data/sqlite_97.csv'
p3
(dp4
F0.15
(dp5
S'mmre'
p6
(dp7
S'bellwether'
p8
(lp9
cnumpy.core.multiarray
scalar
p10
(cnumpy
dtype
p11
(S'f8'
p12
I0
I1
tp13
Rp14
(I3
S'<'
p15
NNNI-1
I-1
I0
tp16
bS'}f\x8e\xfe\x893U@'
p17
tp18
Rp19
ag10
(g14
S'\r\xe3\xb9&//U@'
p20
tp21
Rp22
ag10
(g14
S'\xdf\x8a\xb0\x96\xe8/U@'
p23
tp24
Rp25
ag10
(g14
S'\xf5\xdb\xfd?~1U@'
p26
tp27
Rp28
ag10
(g14
S'\x04d[\xa6\x844U@'
p29
tp30
Rp31
ag10
(g14
S'\xf6\xf8\\\x01\x170U@'
p32
tp33
Rp34
ag10
(g14
S'O|`\xcd\x86,U@'
p35
tp36
Rp37
ag10
(g14
S'V\\//\x1a0U@'
p38
tp39
Rp40
ag10
(g14
S'^\xf6:\x89}.U@'
p41
tp42
Rp43
ag10
(g14
S'T%O\xf4\xd3)U@'
p44
tp45
Rp46
ag10
(g14
S'\x87b\x8a\xf9B:U@'
p47
tp48
Rp49
ag10
(g14
S"#)\xe3\x94'2U@"
p50
tp51
Rp52
ag10
(g14
S'\xfa\xa2\xf8\xc3?-U@'
p53
tp54
Rp55
ag10
(g14
S'\xe7Y"\xb8\xcf1U@'
p56
tp57
Rp58
ag10
(g14
S'\x9c\xcf@`\xb81U@'
p59
tp60
Rp61
ag10
(g14
S'\x9a3\xf3]\xfa,U@'
p62
tp63
Rp64
ag10
(g14
S'~\xdf\xc0\x8d\xe8/U@'
p65
tp66
Rp67
ag10
(g14
S'g\xcb#\xc6\xc30U@'
p68
tp69
Rp70
ag10
(g14
S'a^\x1b\xb6b1U@'
p71
tp72
Rp73
ag10
(g14
S'\xa2:V\xb3\xd6-U@'
p74
tp75
Rp76
asS'target'
p77
(lp78
g10
(g14
S']Y\xfeo\xf0&T@'
p79
tp80
Rp81
ag10
(g14
S'\xa0+S\xd5|\x9eN@'
p82
tp83
Rp84
ag10
(g14
S'd\x04T>\x045S@'
p85
tp86
Rp87
ag10
(g14
S'w1g5h2U@'
p88
tp89
Rp90
ag10
(g14
S'K\xea0\xf5\xfe\xabG@'
p91
tp92
Rp93
ag10
(g14
S'\xd9HU\x89\xb3)L@'
p94
tp95
Rp96
ag10
(g14
S'\xea3\xaf1\xea\x80Y@'
p97
tp98
Rp99
ag10
(g14
S"\x1em)'1A`@"
p100
tp101
Rp102
ag10
(g14
S'\xc8\xc3\x7frq\xcfP@'
p103
tp104
Rp105
ag10
(g14
S'i\x91\xc4\x10 SV@'
p106
tp107
Rp108
ag10
(g14
S'\t:\xa1\xf5R\xeeW@'
p109
tp110
Rp111
ag10
(g14
S'\xbdl\xefK2\x11R@'
p112
tp113
Rp114
ag10
(g14
S'\xa0_l\xb3\\\xf5Q@'
p115
tp116
Rp117
ag10
(g14
S'\xed\xc20\xb0\x9agT@'
p118
tp119
Rp120
ag10
(g14
S'\xefhg\xe4\x96\xb8U@'
p121
tp122
Rp123
ag10
(g14
S'Ta\xf5\xd1\xc8\xd2^@'
p124
tp125
Rp126
ag10
(g14
S'\x8dA\xda\xd4\x82\x1eQ@'
p127
tp128
Rp129
ag10
(g14
S'\x96\xb3\x9b?\xca\xb5P@'
p130
tp131
Rp132
ag10
(g14
S'M\x02nL\xff\xf9U@'
p133
tp134
Rp135
ag10
(g14
S'\x9f8\x8b\xe5\xc5\xa7N@'
p136
tp137
Rp138
asssss.