(dp0
S'../Data/sqlite_44.csv'
p1
(dp2
S'../Data/sqlite_78.csv'
p3
(dp4
F0.15
(dp5
S'mmre'
p6
(dp7
S'bellwether'
p8
(lp9
cnumpy.core.multiarray
scalar
p10
(cnumpy
dtype
p11
(S'f8'
p12
I0
I1
tp13
Rp14
(I3
S'<'
p15
NNNI-1
I-1
I0
tp16
bS'\r\xa3\x15\x17\xedgN@'
p17
tp18
Rp19
ag10
(g14
S'5\xf4\x16v\x9aTN@'
p20
tp21
Rp22
ag10
(g14
S'\x86\xe7\x8d\x14\xfeaN@'
p23
tp24
Rp25
ag10
(g14
S'-\x8cem\\`N@'
p26
tp27
Rp28
ag10
(g14
S'Zh^\xa3\xf4UN@'
p29
tp30
Rp31
ag10
(g14
S'\x7fX\xd8\xd9\xa3gN@'
p32
tp33
Rp34
ag10
(g14
S'\xcek\\\x85\xc8hN@'
p35
tp36
Rp37
ag10
(g14
S'\x1b\x0e\xec\x94\xe9UN@'
p38
tp39
Rp40
ag10
(g14
S'\xbf\x8aq\xc2\x9d[N@'
p41
tp42
Rp43
ag10
(g14
S'\x9e\x1eM\x80\xbemN@'
p44
tp45
Rp46
ag10
(g14
S'2\x18\x0e\x84\xf6JN@'
p47
tp48
Rp49
ag10
(g14
S'@\xec\xe6\x1a\xd9TN@'
p50
tp51
Rp52
ag10
(g14
S'\xdav|?\x80jN@'
p53
tp54
Rp55
ag10
(g14
S'}uv\x13\x8a]N@'
p56
tp57
Rp58
ag10
(g14
S'\x8c\xb6\x1eK1\\N@'
p59
tp60
Rp61
ag10
(g14
S'\xcc\x0c\xe2\x8f\xf8UN@'
p62
tp63
Rp64
ag10
(g14
S'&\x05\xa1N\x9eZN@'
p65
tp66
Rp67
ag10
(g14
S'\x94K\xb9\xc7\x18tN@'
p68
tp69
Rp70
ag10
(g14
S'9\xa9\xf9\xe9/zN@'
p71
tp72
Rp73
ag10
(g14
S'\xc7\xbf\xac,\x96ZN@'
p74
tp75
Rp76
asS'target'
p77
(lp78
g10
(g14
S'\xf3*\x0b*\x16N3@'
p79
tp80
Rp81
ag10
(g14
S'Y\xa9\x1f\xb6J;5@'
p82
tp83
Rp84
ag10
(g14
S'hI\x9d\xca6\x066@'
p85
tp86
Rp87
ag10
(g14
S'\x8d\xfb\xeb$")4@'
p88
tp89
Rp90
ag10
(g14
S'\xe4=\x9a\xe3\xd3\xa11@'
p91
tp92
Rp93
ag10
(g14
S'8\x05Df\xda+5@'
p94
tp95
Rp96
ag10
(g14
S'\x13\xae\xcd!g62@'
p97
tp98
Rp99
ag10
(g14
S'!\xcd\xfb\xea\xecK2@'
p100
tp101
Rp102
ag10
(g14
S's\x04J\x94\x9ed4@'
p103
tp104
Rp105
ag10
(g14
S'\xc2\xf73EK\xfe2@'
p106
tp107
Rp108
ag10
(g14
S'\x9e\x7f7\xf0\xc9\xf32@'
p109
tp110
Rp111
ag10
(g14
S'u\xd9\xa3\xbe\x15-2@'
p112
tp113
Rp114
ag10
(g14
S'\xfbF\xc5\xae\x9d\xf43@'
p115
tp116
Rp117
ag10
(g14
S'!\x08\x1bG\ry2@'
p118
tp119
Rp120
ag10
(g14
S'3e\x8e>+\x0c5@'
p121
tp122
Rp123
ag10
(g14
S':\xd0\x0b(K\x086@'
p124
tp125
Rp126
ag10
(g14
S'fA\xb2\x7f:.7@'
p127
tp128
Rp129
ag10
(g14
S'O[\xf7:\x84\xb73@'
p130
tp131
Rp132
ag10
(g14
S'Z\xa4\x1dX$\xc01@'
p133
tp134
Rp135
ag10
(g14
S'\xb5#A\xe8\xb5;2@'
p136
tp137
Rp138
asssss.