(dp0
S'../Data/sqlite_71.csv'
p1
(dp2
S'../Data/sqlite_16.csv'
p3
(dp4
F0.35
(dp5
S'abs_res'
p6
(dp7
S'bellwether'
p8
(lp9
cnumpy.core.multiarray
scalar
p10
(cnumpy
dtype
p11
(S'f8'
p12
I0
I1
tp13
Rp14
(I3
S'<'
p15
NNNI-1
I-1
I0
tp16
bS'[H\x9ar\xbf2fA'
p17
tp18
Rp19
ag10
(g14
S'\xda\xb0+\xc8 JfA'
p20
tp21
Rp22
ag10
(g14
S'\x95\xc2\xf5HzDfA'
p23
tp24
Rp25
ag10
(g14
S'\xa3\xa8\x7f?\x95@fA'
p26
tp27
Rp28
ag10
(g14
S'\x8f{\xcd\x81\x9b=fA'
p29
tp30
Rp31
ag10
(g14
S'Vq\xf6\xe9\xb2=fA'
p32
tp33
Rp34
ag10
(g14
S'\xa6)\x15\xf3:?fA'
p35
tp36
Rp37
ag10
(g14
S'>\xc3\xaeL\xbb3fA'
p38
tp39
Rp40
ag10
(g14
S'\xfa7B!\xf1JfA'
p41
tp42
Rp43
ag10
(g14
S'\x05V\x0e5\xff8fA'
p44
tp45
Rp46
ag10
(g14
S'V\xc7\x04\x07\x0eJfA'
p47
tp48
Rp49
ag10
(g14
S'\xad\x1cZ4\xbe:fA'
p50
tp51
Rp52
ag10
(g14
S'\xc7<Q\x7f\xe54fA'
p53
tp54
Rp55
ag10
(g14
S'\x1fiJ\xb9\\;fA'
p56
tp57
Rp58
ag10
(g14
S'\xdex\xe9\xeeH?fA'
p59
tp60
Rp61
ag10
(g14
S'\x8d%\xbf0\xd6>fA'
p62
tp63
Rp64
ag10
(g14
S'#v\x05\x88\x8f;fA'
p65
tp66
Rp67
ag10
(g14
S'I\xe1z\xc4\xe3DfA'
p68
tp69
Rp70
ag10
(g14
S'\x03\xb9\xd7\x1c/6fA'
p71
tp72
Rp73
ag10
(g14
S'\xabT\x9c\x05\xdc:fA'
p74
tp75
Rp76
asS'target'
p77
(lp78
g10
(g14
S'\xa1E\xb6\xf3\xfd\x8cE@'
p79
tp80
Rp81
ag10
(g14
S'\x13\xd7\xa3p=\x12G@'
p82
tp83
Rp84
ag10
(g14
S'9\x08\xac\x1cZ\xbcD@'
p85
tp86
Rp87
ag10
(g14
S'\xe6z\x14\xaeG\x91E@'
p88
tp89
Rp90
ag10
(g14
S'y?5^\xba\tD@'
p91
tp92
Rp93
ag10
(g14
S'\x96C\x8bl\xe7kE@'
p94
tp95
Rp96
ag10
(g14
S'\xadG\xe1z\x14\x06E@'
p97
tp98
Rp99
ag10
(g14
S'\x8bl\xe7\xfb\xa91G@'
p100
tp101
Rp102
ag10
(g14
S':5^\xbaI\x1cH@'
p103
tp104
Rp105
ag10
(g14
S'\x86\x95C\x8bl\xa7D@'
p106
tp107
Rp108
ag10
(g14
S'\x9f\xc4 \xb0r\xd8E@'
p109
tp110
Rp111
ag10
(g14
S'\xdf\xf9~j\xbc\xacE@'
p112
tp113
Rp114
ag10
(g14
S'*\xb0rh\x91\xfdE@'
p115
tp116
Rp117
ag10
(g14
S'n\x91\xed|?UD@'
p118
tp119
Rp120
ag10
(g14
S'\xa1n\x12\x83\xc0RD@'
p121
tp122
Rp123
ag10
(g14
S'8\x08\xac\x1cZ<E@'
p124
tp125
Rp126
ag10
(g14
S'\xc8K7\x89A8F@'
p127
tp128
Rp129
ag10
(g14
S'\xf6(\\\x8f\xc2\xe5F@'
p130
tp131
Rp132
ag10
(g14
S'\xf5\xd2Mb\x10\xc0D@'
p133
tp134
Rp135
ag10
(g14
S'\x81\x95C\x8bl\xd7D@'
p136
tp137
Rp138
asssss.