(dp0
S'../Data/sqlite_59.csv'
p1
(dp2
S'../Data/sqlite_84.csv'
p3
(dp4
F0.25
(dp5
S'mmre'
p6
(dp7
S'bellwether'
p8
(lp9
cnumpy.core.multiarray
scalar
p10
(cnumpy
dtype
p11
(S'f8'
p12
I0
I1
tp13
Rp14
(I3
S'<'
p15
NNNI-1
I-1
I0
tp16
bS'S?R\xa5\x19(a@'
p17
tp18
Rp19
ag10
(g14
S'\xa7\xa3\xc2I\xa8 a@'
p20
tp21
Rp22
ag10
(g14
S'T\xe7\xb6\xb8\x9c!a@'
p23
tp24
Rp25
ag10
(g14
S'\x8d\x92.n\xd3Ta@'
p26
tp27
Rp28
ag10
(g14
S'xQ\xf7\xcfs\x1da@'
p29
tp30
Rp31
ag10
(g14
S'\x17\x87\x1ci 5a@'
p32
tp33
Rp34
ag10
(g14
S'r\xe1\x91\x12\x98Ca@'
p35
tp36
Rp37
ag10
(g14
S'\xf4\xb572\xbb\x04a@'
p38
tp39
Rp40
ag10
(g14
S'Z\x19\xe4\x92\xfb\xde`@'
p41
tp42
Rp43
ag10
(g14
S'\xf4\xfdz\xa6t@a@'
p44
tp45
Rp46
ag10
(g14
S'"\xd5q\xad\xcd a@'
p47
tp48
Rp49
ag10
(g14
S':\x01Cl\x04\x12a@'
p50
tp51
Rp52
ag10
(g14
S'1\xf9Z\xb4(Wa@'
p53
tp54
Rp55
ag10
(g14
S'o\x1apZv"a@'
p56
tp57
Rp58
ag10
(g14
S'\x1e~\xf7zA*a@'
p59
tp60
Rp61
ag10
(g14
S'S\xef\tA1\x7fa@'
p62
tp63
Rp64
ag10
(g14
S'\xfa[\xf4\x80\xb2Sa@'
p65
tp66
Rp67
ag10
(g14
S'\xcf\xef\xcf\x94\xf8Za@'
p68
tp69
Rp70
ag10
(g14
S'5\x1d\xba8-7a@'
p71
tp72
Rp73
ag10
(g14
S'\xf0\n\x9f\xf6\xcf6a@'
p74
tp75
Rp76
asS'target'
p77
(lp78
g10
(g14
S'1\xeb\x9c\xbf\x14)X@'
p79
tp80
Rp81
ag10
(g14
S'\xeb\xb0H"\xeddH@'
p82
tp83
Rp84
ag10
(g14
S')\xd2\x85\xf9<*Q@'
p85
tp86
Rp87
ag10
(g14
S']\xd2\xe0\x19,xK@'
p88
tp89
Rp90
ag10
(g14
S'1\xa8Zo\x9a\xa3W@'
p91
tp92
Rp93
ag10
(g14
S'\xbc\xb7\xff\xc8\xc8~R@'
p94
tp95
Rp96
ag10
(g14
S'Z\xc7\x82a\tdI@'
p97
tp98
Rp99
ag10
(g14
S'\x97<\xc2\xd7ZAL@'
p100
tp101
Rp102
ag10
(g14
S')Ow\rCSR@'
p103
tp104
Rp105
ag10
(g14
S'\n\xb6\xdc-\x1f,P@'
p106
tp107
Rp108
ag10
(g14
S'\xedm\xa7m\x94\x16E@'
p109
tp110
Rp111
ag10
(g14
S'!\xfe\rt\xdasQ@'
p112
tp113
Rp114
ag10
(g14
S'\xd2\xf3\x93\x11\xb0\x9aM@'
p115
tp116
Rp117
ag10
(g14
S'Mr\xbf\xf4d\x11U@'
p118
tp119
Rp120
ag10
(g14
S'\x80\x1f\x18~\xe4PS@'
p121
tp122
Rp123
ag10
(g14
S'\x83\x81c\x02\xa9jP@'
p124
tp125
Rp126
ag10
(g14
S's\xb5\xeb\x8e\xed+P@'
p127
tp128
Rp129
ag10
(g14
S'/o\xf3\x19\xb8:Q@'
p130
tp131
Rp132
ag10
(g14
S'\x83\x8a\x8a\x155\x13W@'
p133
tp134
Rp135
ag10
(g14
S'EZ\xa5m\x8c>C@'
p136
tp137
Rp138
asssss.