(dp0
S'../Data/sqlite_81.csv'
p1
(dp2
S'../Data/sqlite_95.csv'
p3
(dp4
F0.05
(dp5
S'mmre'
p6
(dp7
S'bellwether'
p8
(lp9
cnumpy.core.multiarray
scalar
p10
(cnumpy
dtype
p11
(S'f8'
p12
I0
I1
tp13
Rp14
(I3
S'<'
p15
NNNI-1
I-1
I0
tp16
bS'"\x10\x12\xde|hS@'
p17
tp18
Rp19
ag10
(g14
S'\xc0Q\xe2\xfa;^S@'
p20
tp21
Rp22
ag10
(g14
S'\x07\xdc\xe0\x1d2^S@'
p23
tp24
Rp25
ag10
(g14
S'@\x07[\x05ddS@'
p26
tp27
Rp28
ag10
(g14
S'/LK\xc9\tnS@'
p29
tp30
Rp31
ag10
(g14
S'\xb83\x8d\x91xfS@'
p32
tp33
Rp34
ag10
(g14
S'\xf4kR\x16\xa0cS@'
p35
tp36
Rp37
ag10
(g14
S'\xbc\xb2b\x93\xdc]S@'
p38
tp39
Rp40
ag10
(g14
S'}I\xb3M\x03jS@'
p41
tp42
Rp43
ag10
(g14
S'\x8c\xc3N\xceBcS@'
p44
tp45
Rp46
ag10
(g14
S'N\x99\xc7\xaa\x04\\S@'
p47
tp48
Rp49
ag10
(g14
S'\xee\xe36\xf8\xf5^S@'
p50
tp51
Rp52
ag10
(g14
S'o\x81\xfa\xa3\xf0cS@'
p53
tp54
Rp55
ag10
(g14
S'\xdb\xf9v7\xc8fS@'
p56
tp57
Rp58
ag10
(g14
S'38\x81o\x99aS@'
p59
tp60
Rp61
ag10
(g14
S'>\xccokceS@'
p62
tp63
Rp64
ag10
(g14
S'\xd6_\xd1\x03\xf0_S@'
p65
tp66
Rp67
ag10
(g14
S'\x95\xc2\x07\x07\xcaeS@'
p68
tp69
Rp70
ag10
(g14
S'\xac\x88x,\x06kS@'
p71
tp72
Rp73
ag10
(g14
S'\xcdA\xe5\xbdH\\S@'
p74
tp75
Rp76
asS'target'
p77
(lp78
g10
(g14
S'\xce[\xe0\x92\x95\xf4?@'
p79
tp80
Rp81
ag10
(g14
S'\xf8\xb8\xb7\xce\x08\xc5A@'
p82
tp83
Rp84
ag10
(g14
S'\xc9tm2\xd2N<@'
p85
tp86
Rp87
ag10
(g14
S'\x1dX\xc4\xearfB@'
p88
tp89
Rp90
ag10
(g14
S'\xd6\xfc5\xd7\x18JD@'
p91
tp92
Rp93
ag10
(g14
S'\xb6HR\x0b\xa5\xba8@'
p94
tp95
Rp96
ag10
(g14
S'\xd9\x95w\xdc\x10.C@'
p97
tp98
Rp99
ag10
(g14
S'o~\xe3\x14\x89\xc3@@'
p100
tp101
Rp102
ag10
(g14
S'OEB-\t\xe5A@'
p103
tp104
Rp105
ag10
(g14
S'\xad\xba\x84\x00/\x8cE@'
p106
tp107
Rp108
ag10
(g14
S'rH\xa4\xcbC\x14G@'
p109
tp110
Rp111
ag10
(g14
S'\x7f\xc6\xb3[\xb8\x0bA@'
p112
tp113
Rp114
ag10
(g14
S'\xe5aYX\x99pF@'
p115
tp116
Rp117
ag10
(g14
S'\xdd\x11\xe2\x9adcC@'
p118
tp119
Rp120
ag10
(g14
S'T~>p\xc4\xeb7@'
p121
tp122
Rp123
ag10
(g14
S"'\x9f\xa5-v[E@"
p124
tp125
Rp126
ag10
(g14
S'\x1eO`}(kF@'
p127
tp128
Rp129
ag10
(g14
S'\xef\x00\xad\xa0]\xbf;@'
p130
tp131
Rp132
ag10
(g14
S'S\x10\xd9_\xd4\xb1A@'
p133
tp134
Rp135
ag10
(g14
S'"\xfb\xdd\xa1+\xe1H@'
p136
tp137
Rp138
asssss.