(dp0
S'../Data/sqlite_48.csv'
p1
(dp2
S'../Data/sqlite_62.csv'
p3
(dp4
F0.05
(dp5
S'mmre'
p6
(dp7
S'bellwether'
p8
(lp9
cnumpy.core.multiarray
scalar
p10
(cnumpy
dtype
p11
(S'f8'
p12
I0
I1
tp13
Rp14
(I3
S'<'
p15
NNNI-1
I-1
I0
tp16
bS'\x1a&\xee\x04\xc8MG@'
p17
tp18
Rp19
ag10
(g14
S's\xaas\x83\xf3OG@'
p20
tp21
Rp22
ag10
(g14
S'\x05r\xe1\x8azDG@'
p23
tp24
Rp25
ag10
(g14
S'\xc5\x8b\xbfJ\xb3GG@'
p26
tp27
Rp28
ag10
(g14
S'\xb2#\xca\xe6\x82EG@'
p29
tp30
Rp31
ag10
(g14
S'q\xd8\xa9\x8c,FG@'
p32
tp33
Rp34
ag10
(g14
S';\xf2\xbdU\xc8CG@'
p35
tp36
Rp37
ag10
(g14
S'\x19Y\xc5\x9bjKG@'
p38
tp39
Rp40
ag10
(g14
S'6\xf2(:\x18QG@'
p41
tp42
Rp43
ag10
(g14
S'\xd9n\x88\n\xddLG@'
p44
tp45
Rp46
ag10
(g14
S'X\t\xb3k\xf8LG@'
p47
tp48
Rp49
ag10
(g14
S'\xc5\xf0OG\xa4KG@'
p50
tp51
Rp52
ag10
(g14
S'y[\x8b\x13\xe6MG@'
p53
tp54
Rp55
ag10
(g14
S'\x079I56RG@'
p56
tp57
Rp58
ag10
(g14
S'\xe0\xe3e0~GG@'
p59
tp60
Rp61
ag10
(g14
S'\xaf\\k\xb8\xa9OG@'
p62
tp63
Rp64
ag10
(g14
S'\nQW\xbd\x8cQG@'
p65
tp66
Rp67
ag10
(g14
S'\x8d\x1d\xdaPjNG@'
p68
tp69
Rp70
ag10
(g14
S'\xd2\\z;`SG@'
p71
tp72
Rp73
ag10
(g14
S'\xb9\xd5\xaf\xfd\xf4PG@'
p74
tp75
Rp76
asS'target'
p77
(lp78
g10
(g14
S')M}kWe!@'
p79
tp80
Rp81
ag10
(g14
S'\xa3\xf4\xd8\xfe\xd0\x9d"@'
p82
tp83
Rp84
ag10
(g14
S'\xd2\xd4\xed\x0f\x03\x97!@'
p85
tp86
Rp87
ag10
(g14
S'@\xaf0\xb1\xc7Y#@'
p88
tp89
Rp90
ag10
(g14
S'JE]\x8c\xd9.#@'
p91
tp92
Rp93
ag10
(g14
S'\xa7[\xbeEW\x12#@'
p94
tp95
Rp96
ag10
(g14
S'\xc5\xd0q\xc3\x03\x16%@'
p97
tp98
Rp99
ag10
(g14
S'\xe9X\x11\xfa\xa5\x00&@'
p100
tp101
Rp102
ag10
(g14
S'\x7f\xd3p\x9b\x0c\xd3 @'
p103
tp104
Rp105
ag10
(g14
S'\xa0@0\x9d\xda\xfd!@'
p106
tp107
Rp108
ag10
(g14
S'\xa6h\x19Wq\x88%@'
p109
tp110
Rp111
ag10
(g14
S')E\xd8\xe4\xf9\xef @'
p112
tp113
Rp114
ag10
(g14
S'J\x81\xfb\xfc0\x0f#@'
p115
tp116
Rp117
ag10
(g14
S'\xc2<\xefF\x9cE @'
p118
tp119
Rp120
ag10
(g14
S'\xa0\xb9\x7fRe\xc2"@'
p121
tp122
Rp123
ag10
(g14
S'\xc3<$\xa6"[!@'
p124
tp125
Rp126
ag10
(g14
S'\xd7\x04\x9a#\x9az @'
p127
tp128
Rp129
ag10
(g14
S'\xaeQLd2X"@'
p130
tp131
Rp132
ag10
(g14
S'\xcf\x97\x1by\xff\xfa @'
p133
tp134
Rp135
ag10
(g14
S'd\xf2`\'(("@'
p136
tp137
Rp138
asssss.