(dp0
S'../Data/sqlite_14.csv'
p1
(dp2
S'../Data/sqlite_94.csv'
p3
(dp4
F0.1
(dp5
S'mmre'
p6
(dp7
S'bellwether'
p8
(lp9
cnumpy.core.multiarray
scalar
p10
(cnumpy
dtype
p11
(S'f8'
p12
I0
I1
tp13
Rp14
(I3
S'<'
p15
NNNI-1
I-1
I0
tp16
bS'_\x11\xb7CMmX@'
p17
tp18
Rp19
ag10
(g14
S'\xc5\xae[\xd8\xeanX@'
p20
tp21
Rp22
ag10
(g14
S'\xba\x01\x9b\xf3\xebmX@'
p23
tp24
Rp25
ag10
(g14
S'\x8c\xe53OVmX@'
p26
tp27
Rp28
ag10
(g14
S'\xe9\xc9\x925\x00nX@'
p29
tp30
Rp31
ag10
(g14
S'=\xbb\xce\xe71nX@'
p32
tp33
Rp34
ag10
(g14
S'\xfb\xa7\xf9o\xb5nX@'
p35
tp36
Rp37
ag10
(g14
S'\xe9\x04;\xb6\xbemX@'
p38
tp39
Rp40
ag10
(g14
S'vW\xb1\x83\x91mX@'
p41
tp42
Rp43
ag10
(g14
S'R\x16x\x07\x06mX@'
p44
tp45
Rp46
ag10
(g14
S'\xc5YA"InX@'
p47
tp48
Rp49
ag10
(g14
S'E7a\x89\x90mX@'
p50
tp51
Rp52
ag10
(g14
S"L'\x9fA\x1bnX@"
p53
tp54
Rp55
ag10
(g14
S'\xef\xda0\xfe\xabmX@'
p56
tp57
Rp58
ag10
(g14
S'\xbb\xd8\xd9\xc5JmX@'
p59
tp60
Rp61
ag10
(g14
S'\\\x8b\x0b\x9e$nX@'
p62
tp63
Rp64
ag10
(g14
S'\xf1\xce\xa3\xe0NmX@'
p65
tp66
Rp67
ag10
(g14
S'\xa2Z0\xe9\x15nX@'
p68
tp69
Rp70
ag10
(g14
S'\x11E\r&(mX@'
p71
tp72
Rp73
ag10
(g14
S'\xcb\x9d\xa6\xa3[mX@'
p74
tp75
Rp76
asS'target'
p77
(lp78
g10
(g14
S'\x13\xa9\xb9\xd2\xb2qP@'
p79
tp80
Rp81
ag10
(g14
S'\n\x1f\xd6 \xce\xe2G@'
p82
tp83
Rp84
ag10
(g14
S'\xe0<J+\xfd\x95M@'
p85
tp86
Rp87
ag10
(g14
S'\xe6\xd1\xa1\xa1:\xe4P@'
p88
tp89
Rp90
ag10
(g14
S'6\x95\xb8\xe6v\xa1X@'
p91
tp92
Rp93
ag10
(g14
S'\xc3U&H6\xa8L@'
p94
tp95
Rp96
ag10
(g14
S'\xe7yo\x14\rNU@'
p97
tp98
Rp99
ag10
(g14
S'\xff\xc9\xf7~\xca\xbcM@'
p100
tp101
Rp102
ag10
(g14
S'c\xae\xd2\x8b\xec[U@'
p103
tp104
Rp105
ag10
(g14
S'2*\xa9"\xa4sW@'
p106
tp107
Rp108
ag10
(g14
S'j\xffu\xcf\xf6$Q@'
p109
tp110
Rp111
ag10
(g14
S'\xb8:\x03\xd8\xf9\x8eO@'
p112
tp113
Rp114
ag10
(g14
S'cS\x83\xaa|\xa3I@'
p115
tp116
Rp117
ag10
(g14
S'<V\xed\xdb\x98\xc2M@'
p118
tp119
Rp120
ag10
(g14
S'\xabs*\xa9\x8cQV@'
p121
tp122
Rp123
ag10
(g14
S'\x1c[4!\xce\xcbQ@'
p124
tp125
Rp126
ag10
(g14
S'\xd1o\xaa\xc3G,I@'
p127
tp128
Rp129
ag10
(g14
S'\xe1N\x0bL|\xd6F@'
p130
tp131
Rp132
ag10
(g14
S'{O\xf1Ck\xe3`@'
p133
tp134
Rp135
ag10
(g14
S'P\x99\xd5\xc0\xe5+K@'
p136
tp137
Rp138
asssss.