(dp0
S'../Data/sqlite_63.csv'
p1
(dp2
S'../Data/sqlite_95.csv'
p3
(dp4
F0.05
(dp5
S'mmre'
p6
(dp7
S'bellwether'
p8
(lp9
cnumpy.core.multiarray
scalar
p10
(cnumpy
dtype
p11
(S'f8'
p12
I0
I1
tp13
Rp14
(I3
S'<'
p15
NNNI-1
I-1
I0
tp16
bS'J&\xf9\x07bsX@'
p17
tp18
Rp19
ag10
(g14
S' \x05\x13\xf2HsX@'
p20
tp21
Rp22
ag10
(g14
S'\xe5bo\xeb\rsX@'
p23
tp24
Rp25
ag10
(g14
S'\xab\xe8\xea\xb9\xa8sX@'
p26
tp27
Rp28
ag10
(g14
S'\x15Z\x8b\xd1\xa5rX@'
p29
tp30
Rp31
ag10
(g14
S'\x9f\xd5h\xfb,sX@'
p32
tp33
Rp34
ag10
(g14
S'mx\xc3\xf3^sX@'
p35
tp36
Rp37
ag10
(g14
S'\xf41_\xa3,sX@'
p38
tp39
Rp40
ag10
(g14
S'R\xaaml\xcfrX@'
p41
tp42
Rp43
ag10
(g14
S'\xc8\x91\xbc jsX@'
p44
tp45
Rp46
ag10
(g14
S'z\x85\xcb\x87`sX@'
p47
tp48
Rp49
ag10
(g14
S'\xafk\x93E\rsX@'
p50
tp51
Rp52
ag10
(g14
S'/\x05#\xe9&sX@'
p53
tp54
Rp55
ag10
(g14
S'\xfc8\xa6\x84\x8fsX@'
p56
tp57
Rp58
ag10
(g14
S'\xde<\x82\x9f\x87rX@'
p59
tp60
Rp61
ag10
(g14
S'D\xca\x98\xd2\xc3sX@'
p62
tp63
Rp64
ag10
(g14
S'&\x80\x91U\xa8sX@'
p65
tp66
Rp67
ag10
(g14
S'\xf6y\xbf^\xe1rX@'
p68
tp69
Rp70
ag10
(g14
S'F\x9b9\xca\x98rX@'
p71
tp72
Rp73
ag10
(g14
S'w\x1a\xe5o\xbbrX@'
p74
tp75
Rp76
asS'target'
p77
(lp78
g10
(g14
S"h\x1f\xcdQ'\x90G@"
p79
tp80
Rp81
ag10
(g14
S'%\x19\x87\xfd4\xecB@'
p82
tp83
Rp84
ag10
(g14
S'o\xe4{<\x15\x1dC@'
p85
tp86
Rp87
ag10
(g14
S'\xd2\xb6\xb6\xd78\xeb;@'
p88
tp89
Rp90
ag10
(g14
S'c\xa6\xcb\x86\xb7\xfaB@'
p91
tp92
Rp93
ag10
(g14
S'e\x8b\x8c\xdcgQ@@'
p94
tp95
Rp96
ag10
(g14
S'_U\xb3\xe7\x85\xb4;@'
p97
tp98
Rp99
ag10
(g14
S'jgs\x08_\x98B@'
p100
tp101
Rp102
ag10
(g14
S'\x11f\xf6\xbb+\x81<@'
p103
tp104
Rp105
ag10
(g14
S'D\xa6!W)\xd4@@'
p106
tp107
Rp108
ag10
(g14
S'\xe7\xda\x14\x0f\x8e\xcdI@'
p109
tp110
Rp111
ag10
(g14
S'u\x10;\x92\x13\x96C@'
p112
tp113
Rp114
ag10
(g14
S'\x86\xa5o\x7f\x88\xa4A@'
p115
tp116
Rp117
ag10
(g14
S'\xffm4G\x0b\xb6E@'
p118
tp119
Rp120
ag10
(g14
S'\x89\xb9\xfa\xfb\xc0\x92B@'
p121
tp122
Rp123
ag10
(g14
S'\x01\xd9M\xec\xad\xa3B@'
p124
tp125
Rp126
ag10
(g14
S'Z6h\x92M\x14A@'
p127
tp128
Rp129
ag10
(g14
S'3\xe4\x1asr\x9bI@'
p130
tp131
Rp132
ag10
(g14
S'\n\x16\x1a\x11b*;@'
p133
tp134
Rp135
ag10
(g14
S'\xcaQ\t\xb5)p7@'
p136
tp137
Rp138
asssss.