(dp0
S'../Data/sqlite_92.csv'
p1
(dp2
S'../Data/sqlite_89.csv'
p3
(dp4
F0.1
(dp5
S'mmre'
p6
(dp7
S'bellwether'
p8
(lp9
cnumpy.core.multiarray
scalar
p10
(cnumpy
dtype
p11
(S'f8'
p12
I0
I1
tp13
Rp14
(I3
S'<'
p15
NNNI-1
I-1
I0
tp16
bS'h\xf0\xee\xe4\xbezP@'
p17
tp18
Rp19
ag10
(g14
S'\xcb{\xe1\xb1\x9e|P@'
p20
tp21
Rp22
ag10
(g14
S'\xd5Y\xe6=\x0ewP@'
p23
tp24
Rp25
ag10
(g14
S'\x803\x0e\xed\x9frP@'
p26
tp27
Rp28
ag10
(g14
S'\xc8D\x8es\xb3xP@'
p29
tp30
Rp31
ag10
(g14
S'\x0e{1I\xb3xP@'
p32
tp33
Rp34
ag10
(g14
S'\xbd\xe4\xef\xac\xeazP@'
p35
tp36
Rp37
ag10
(g14
S'\xd4\xd9\x0f6\xf3yP@'
p38
tp39
Rp40
ag10
(g14
S'\x10\x18\x96X\xe9\x80P@'
p41
tp42
Rp43
ag10
(g14
S'\xca\x89&L\xf8}P@'
p44
tp45
Rp46
ag10
(g14
S'\x9b\xa7a\xee\xbanP@'
p47
tp48
Rp49
ag10
(g14
S'\xa4S,\x11l~P@'
p50
tp51
Rp52
ag10
(g14
S'\x93\x0e\xad\xfc"pP@'
p53
tp54
Rp55
ag10
(g14
S'p\x80\xb7\xbcVqP@'
p56
tp57
Rp58
ag10
(g14
S'if\xc2\x0e\xe4|P@'
p59
tp60
Rp61
ag10
(g14
S'\x0e\xb7\x01D\x08tP@'
p62
tp63
Rp64
ag10
(g14
S'4\x90wl\xe9uP@'
p65
tp66
Rp67
ag10
(g14
S'\x8f\x899\x01^\x81P@'
p68
tp69
Rp70
ag10
(g14
S'8\x15u\x86\x94yP@'
p71
tp72
Rp73
ag10
(g14
S'\xa9>1ivvP@'
p74
tp75
Rp76
asS'target'
p77
(lp78
g10
(g14
S'j\xbc\xce\xc2\x95vK@'
p79
tp80
Rp81
ag10
(g14
S'Zp\x1ei\\\xbfP@'
p82
tp83
Rp84
ag10
(g14
S'\xc0/2\xbf\xabqR@'
p85
tp86
Rp87
ag10
(g14
S'\r{5\x13\xf8\xd3H@'
p88
tp89
Rp90
ag10
(g14
S'\xc0\\U\xda\xca!_@'
p91
tp92
Rp93
ag10
(g14
S'_\xc1~\x1b\xfb9Q@'
p94
tp95
Rp96
ag10
(g14
S'\x11JN9\xb7\nN@'
p97
tp98
Rp99
ag10
(g14
S'+\xc3\xcf\x8d\x9dfN@'
p100
tp101
Rp102
ag10
(g14
S'\xc2|\x032\xe7\x1cU@'
p103
tp104
Rp105
ag10
(g14
S'\xf9\x05Sr\xa0\x13V@'
p106
tp107
Rp108
ag10
(g14
S'\xb7\xfb\x83\xafB\xdcQ@'
p109
tp110
Rp111
ag10
(g14
S'\x92\x1fz\xdf\xb26U@'
p112
tp113
Rp114
ag10
(g14
S'@7x>\xactQ@'
p115
tp116
Rp117
ag10
(g14
S'B\xb0h\x15\x06oR@'
p118
tp119
Rp120
ag10
(g14
S'\x0f-7\xebh\xb3P@'
p121
tp122
Rp123
ag10
(g14
S'\xa9\xe6\x9c_\r%P@'
p124
tp125
Rp126
ag10
(g14
S'\xe0U\xcc\x0bW\xeeT@'
p127
tp128
Rp129
ag10
(g14
S'R\x8d\n\xca\xe2vI@'
p130
tp131
Rp132
ag10
(g14
S'\xe9\xf6s$\x7f\xa5S@'
p133
tp134
Rp135
ag10
(g14
S'8\xfe\xdf<N\xfbW@'
p136
tp137
Rp138
asssss.