(dp0
S'../Data/sqlite_93.csv'
p1
(dp2
S'../Data/sqlite_92.csv'
p3
(dp4
F0.2
(dp5
S'mmre'
p6
(dp7
S'bellwether'
p8
(lp9
cnumpy.core.multiarray
scalar
p10
(cnumpy
dtype
p11
(S'f8'
p12
I0
I1
tp13
Rp14
(I3
S'<'
p15
NNNI-1
I-1
I0
tp16
bS'\xf5G\xbb\x14\x03PO@'
p17
tp18
Rp19
ag10
(g14
S'p\xfb$\xf7\xc9MO@'
p20
tp21
Rp22
ag10
(g14
S'\xd6\x90\xfa>NQO@'
p23
tp24
Rp25
ag10
(g14
S':\xf3vb\xbbMO@'
p26
tp27
Rp28
ag10
(g14
S'\xday$\xe0WUO@'
p29
tp30
Rp31
ag10
(g14
S'\x9c\xcc\xeb\xf5+NO@'
p32
tp33
Rp34
ag10
(g14
S'O\xa5\x1c\x1c?GO@'
p35
tp36
Rp37
ag10
(g14
S'\xcd]g\xfa\xd7PO@'
p38
tp39
Rp40
ag10
(g14
S'\xf5\xa2\xa6;\x1dLO@'
p41
tp42
Rp43
ag10
(g14
S' \x9e\xd53\xc7OO@'
p44
tp45
Rp46
ag10
(g14
S'\xdc/\x08\xd7kDO@'
p47
tp48
Rp49
ag10
(g14
S'J}C\xa9\xdeJO@'
p50
tp51
Rp52
ag10
(g14
S'\xf6n\x88\xbb\xdcMO@'
p53
tp54
Rp55
ag10
(g14
S'JKqH?JO@'
p56
tp57
Rp58
ag10
(g14
S'\xdb\xc0\x14\xce)HO@'
p59
tp60
Rp61
ag10
(g14
S'\xd9<\xd1\xda\x14RO@'
p62
tp63
Rp64
ag10
(g14
S'9k\xbb%LOO@'
p65
tp66
Rp67
ag10
(g14
S'\xf0\xc3\xd3\x0fOQO@'
p68
tp69
Rp70
ag10
(g14
S'!5\xdd,\xf4FO@'
p71
tp72
Rp73
ag10
(g14
S'u52\xbcdLO@'
p74
tp75
Rp76
asS'target'
p77
(lp78
g10
(g14
S'A\xa1\xf0R\xc9\x0fP@'
p79
tp80
Rp81
ag10
(g14
S'\xfeL\xbe\xfav\xc1P@'
p82
tp83
Rp84
ag10
(g14
S'\xd6Wp)&;S@'
p85
tp86
Rp87
ag10
(g14
S'\x1f\x87\xed!\xc3\x9cH@'
p88
tp89
Rp90
ag10
(g14
S'^u)\xab\rzV@'
p91
tp92
Rp93
ag10
(g14
S'\xab]{v\xd0\xb7Z@'
p94
tp95
Rp96
ag10
(g14
S'\x1e\n\x8c*\x97NT@'
p97
tp98
Rp99
ag10
(g14
S'\xd8\xc5\xa9\x9dm\xacT@'
p100
tp101
Rp102
ag10
(g14
S'\xba\x0e\xe8\x9f\x90\xdeM@'
p103
tp104
Rp105
ag10
(g14
S'\x063\x8d\x92ulO@'
p106
tp107
Rp108
ag10
(g14
S'\xa0\xbc\x98\x1dI\x8fV@'
p109
tp110
Rp111
ag10
(g14
S'\xb9\x1dVy\xa8\x14V@'
p112
tp113
Rp114
ag10
(g14
S'\r\xbc\xe1\xc9\x90\xcaT@'
p115
tp116
Rp117
ag10
(g14
S'\xa2xw].\xd0J@'
p118
tp119
Rp120
ag10
(g14
S'\xd2j\x95U\x12!a@'
p121
tp122
Rp123
ag10
(g14
S'\x1d\xa3>\xc5\xdd1Y@'
p124
tp125
Rp126
ag10
(g14
S'\x90\xc3K\xc1\x97\xe3R@'
p127
tp128
Rp129
ag10
(g14
S'\x03\xbd\xf5|\xadYJ@'
p130
tp131
Rp132
ag10
(g14
S'\xf8\x8b\x17.l Q@'
p133
tp134
Rp135
ag10
(g14
S'\x11\xd8\x8a\x91]\xd3K@'
p136
tp137
Rp138
asssss.