(dp0
S'../Data/sqlite_91.csv'
p1
(dp2
S'../Data/sqlite_58.csv'
p3
(dp4
F0.15
(dp5
S'abs_res'
p6
(dp7
S'bellwether'
p8
(lp9
cnumpy.core.multiarray
scalar
p10
(cnumpy
dtype
p11
(S'f8'
p12
I0
I1
tp13
Rp14
(I3
S'<'
p15
NNNI-1
I-1
I0
tp16
bS'\xd2x\xe9&f{%A'
p17
tp18
Rp19
ag10
(g14
S'+\xdd$F9a%A'
p20
tp21
Rp22
ag10
(g14
S'\x81\xbe\x9f\x1ahX%A'
p23
tp24
Rp25
ag10
(g14
S'\x0b\x0f\xe6\x89\xf3Y%A'
p26
tp27
Rp28
ag10
(g14
S'\xf1\xa7\xc6K\x85c%A'
p29
tp30
Rp31
ag10
(g14
S'\xc3\xca\xa1E\x7fW%A'
p32
tp33
Rp34
ag10
(g14
S'f\x91\xed<[v%A'
p35
tp36
Rp37
ag10
(g14
S'\xe6\x08e4\x8ec%A'
p38
tp39
Rp40
ag10
(g14
S'\x1b\xaeG\xa1\x81{%A'
p41
tp42
Rp43
ag10
(g14
S'\xb8+@\xee\x01l%A'
p44
tp45
Rp46
ag10
(g14
S'\x028B\xd9\xfam%A'
p47
tp48
Rp49
ag10
(g14
S'r\x12\x83\x80\x9eg%A'
p50
tp51
Rp52
ag10
(g14
S' \x85\xebQ\x1dl%A'
p53
tp54
Rp55
ag10
(g14
S'\x06:m`\xcbj%A'
p56
tp57
Rp58
ag10
(g14
S'\xe3\xd0"\xdb\xcfp%A'
p59
tp60
Rp61
ag10
(g14
S'\xc0\xae\x00\xb9\xcdm%A'
p62
tp63
Rp64
ag10
(g14
S'$1\x08\xac\xa3q%A'
p65
tp66
Rp67
ag10
(g14
S'$\x87\x16\x99T^%A'
p68
tp69
Rp70
ag10
(g14
S']d;\x9f\x83M%A'
p71
tp72
Rp73
ag10
(g14
S'\xff~j<3e%A'
p74
tp75
Rp76
asS'target'
p77
(lp78
g10
(g14
S'\xf9~j\xbct\xcfX@'
p79
tp80
Rp81
ag10
(g14
S'w\xebQ\xb8\x1e\x1dW@'
p82
tp83
Rp84
ag10
(g14
S'\xd4\xa3p=\n\xbfV@'
p85
tp86
Rp87
ag10
(g14
S'(1\x08\xac\x1c"Y@'
p88
tp89
Rp90
ag10
(g14
S'\xde\xa3p=\n\xc7V@'
p91
tp92
Rp93
ag10
(g14
S'w?5^\xba\xe1V@'
p94
tp95
Rp96
ag10
(g14
S'\x90\xed|?5>W@'
p97
tp98
Rp99
ag10
(g14
S'A\x8bl\xe7\xfbEZ@'
p100
tp101
Rp102
ag10
(g14
S'2\x06\x81\x95C\xd7X@'
p103
tp104
Rp105
ag10
(g14
S']9\xb4\xc8v&X@'
p106
tp107
Rp108
ag10
(g14
S'R\x0e-\xb2\x9d\xc7Z@'
p109
tp110
Rp111
ag10
(g14
S't\xe9&1\x08\x04X@'
p112
tp113
Rp114
ag10
(g14
S'\xd2x\xe9&1\xd0W@'
p115
tp116
Rp117
ag10
(g14
S'zj\xbct\x93xV@'
p118
tp119
Rp120
ag10
(g14
S'\x98\xc4 \xb0r`Y@'
p121
tp122
Rp123
ag10
(g14
S'\\\x8f\xc2\xf5(\x98X@'
p124
tp125
Rp126
ag10
(g14
S'\xe2$\x06\x81\x95\xbbX@'
p127
tp128
Rp129
ag10
(g14
S'\xd7\xf9~j\xbc\xb4X@'
p130
tp131
Rp132
ag10
(g14
S'o\x91\xed|?\xadV@'
p133
tp134
Rp135
ag10
(g14
S'\xd2"\xdb\xf9~\xd2W@'
p136
tp137
Rp138
asssss.