(dp0
S'../Data/sqlite_68.csv'
p1
(dp2
S'../Data/sqlite_95.csv'
p3
(dp4
F0.2
(dp5
S'mmre'
p6
(dp7
S'bellwether'
p8
(lp9
cnumpy.core.multiarray
scalar
p10
(cnumpy
dtype
p11
(S'f8'
p12
I0
I1
tp13
Rp14
(I3
S'<'
p15
NNNI-1
I-1
I0
tp16
bS'T&\xf4:\xc42W@'
p17
tp18
Rp19
ag10
(g14
S'\xf4V\xbd\x87\x7f6W@'
p20
tp21
Rp22
ag10
(g14
S'\xedY\xe37\xf87W@'
p23
tp24
Rp25
ag10
(g14
S'V\xa4-\xb6\x87<W@'
p26
tp27
Rp28
ag10
(g14
S'\xe6kM\xaa@;W@'
p29
tp30
Rp31
ag10
(g14
S'A\xf3\x07\xd1\x069W@'
p32
tp33
Rp34
ag10
(g14
S'\x07\x8d\xa1\xd4|5W@'
p35
tp36
Rp37
ag10
(g14
S'h\x9euV\x989W@'
p38
tp39
Rp40
ag10
(g14
S'J\xbe\xaf\x7fx7W@'
p41
tp42
Rp43
ag10
(g14
S'\x92T\x1e{\x1d:W@'
p44
tp45
Rp46
ag10
(g14
S'(\x1e\xa7\xd4\x1d1W@'
p47
tp48
Rp49
ag10
(g14
S'\xa43\x19\x8f\xe45W@'
p50
tp51
Rp52
ag10
(g14
S'\xbe+\x81\xfe\xb66W@'
p53
tp54
Rp55
ag10
(g14
S'\xea\x91\t{\xed8W@'
p56
tp57
Rp58
ag10
(g14
S"\nb'Hr9W@"
p59
tp60
Rp61
ag10
(g14
S'VZ\xdf~\x847W@'
p62
tp63
Rp64
ag10
(g14
S'\xba\xd2\x8f\xa975W@'
p65
tp66
Rp67
ag10
(g14
S'`\xdb\xb6\xdc07W@'
p68
tp69
Rp70
ag10
(g14
S'%-\xe1V*9W@'
p71
tp72
Rp73
ag10
(g14
S'\xdd\x1d\xdb\xe9\xa87W@'
p74
tp75
Rp76
asS'target'
p77
(lp78
g10
(g14
S'0>z\x0f\xd7a>@'
p79
tp80
Rp81
ag10
(g14
S'x\x0c\x16vyy?@'
p82
tp83
Rp84
ag10
(g14
S'2i\x91@P\x8a@@'
p85
tp86
Rp87
ag10
(g14
S'\x16~l \x9a\x1dA@'
p88
tp89
Rp90
ag10
(g14
S'\xd8\xfc3\xfa\xad0@@'
p91
tp92
Rp93
ag10
(g14
S'a\x0e\x92\x1a\x92\xcbB@'
p94
tp95
Rp96
ag10
(g14
S'@m\xbf!\xf7\x87A@'
p97
tp98
Rp99
ag10
(g14
S'V\xbev\xae_\xc5C@'
p100
tp101
Rp102
ag10
(g14
S'0\x1d\xc3\xa0j\x83?@'
p103
tp104
Rp105
ag10
(g14
S'S\x0c\x03\xbc\x9c\x1c>@'
p106
tp107
Rp108
ag10
(g14
S'U\xbfF\xbblb?@'
p109
tp110
Rp111
ag10
(g14
S'\xa4\x90\x95\xeaI\x0c=@'
p112
tp113
Rp114
ag10
(g14
S'\x96%^\x1d\x96nA@'
p115
tp116
Rp117
ag10
(g14
S'e\x12\xc1\xa9y\xa7?@'
p118
tp119
Rp120
ag10
(g14
S'\x00\xe0-=\xe3\xbbC@'
p121
tp122
Rp123
ag10
(g14
S'\xef:\x16\x18\xc2v<@'
p124
tp125
Rp126
ag10
(g14
S'\xa77\x15\xce|v@@'
p127
tp128
Rp129
ag10
(g14
S'\xa8\xb5L\xf8KIG@'
p130
tp131
Rp132
ag10
(g14
S'\x86\xae\xa7Y\xa4\xac?@'
p133
tp134
Rp135
ag10
(g14
S'\x1e\x19\xed\x9c\xd2OB@'
p136
tp137
Rp138
asssss.