(dp0
S'../Data/sqlite_50.csv'
p1
(dp2
S'../Data/sqlite_73.csv'
p3
(dp4
F0.15
(dp5
S'mmre'
p6
(dp7
S'bellwether'
p8
(lp9
cnumpy.core.multiarray
scalar
p10
(cnumpy
dtype
p11
(S'f8'
p12
I0
I1
tp13
Rp14
(I3
S'<'
p15
NNNI-1
I-1
I0
tp16
bS'\xa6\xa1\x9a\x02\x874T@'
p17
tp18
Rp19
ag10
(g14
S'b^\xd1\xd0H6T@'
p20
tp21
Rp22
ag10
(g14
S'Q4\xfb\xc2B7T@'
p23
tp24
Rp25
ag10
(g14
S'\x8c\xfaF\x18\x9d2T@'
p26
tp27
Rp28
ag10
(g14
S'\x16(V\x8am1T@'
p29
tp30
Rp31
ag10
(g14
S'T\xa9o\xfav5T@'
p32
tp33
Rp34
ag10
(g14
S"\x16\x12\t\xf6'5T@"
p35
tp36
Rp37
ag10
(g14
S'\x8fL\x06\x0fE7T@'
p38
tp39
Rp40
ag10
(g14
S'\xa6\x890\x8b\x915T@'
p41
tp42
Rp43
ag10
(g14
S'\xbf\x8c\xb7S$7T@'
p44
tp45
Rp46
ag10
(g14
S'k\x85^\xec\\5T@'
p47
tp48
Rp49
ag10
(g14
S'"U\xceH\xab2T@'
p50
tp51
Rp52
ag10
(g14
S'W|\x06\x92n8T@'
p53
tp54
Rp55
ag10
(g14
S'\x03\x9a\xe1\x96\x883T@'
p56
tp57
Rp58
ag10
(g14
S'6\x13\x82\x94\xfe2T@'
p59
tp60
Rp61
ag10
(g14
S'\x08\x8au8z3T@'
p62
tp63
Rp64
ag10
(g14
S'\xfcV\xc4\xbfc2T@'
p65
tp66
Rp67
ag10
(g14
S'\x8c\x97X\x80a1T@'
p68
tp69
Rp70
ag10
(g14
S'\xe3\x04K\r<6T@'
p71
tp72
Rp73
ag10
(g14
S':\x07L$76T@'
p74
tp75
Rp76
asS'target'
p77
(lp78
g10
(g14
S':i\x05?\x0c6,@'
p79
tp80
Rp81
ag10
(g14
S"'l\x0bU#\xaf*@"
p82
tp83
Rp84
ag10
(g14
S'\x84\xe8y\xb5+y*@'
p85
tp86
Rp87
ag10
(g14
S'D\xa38x\x08\xfb-@'
p88
tp89
Rp90
ag10
(g14
S'\xab\x9e\x0e\xa0\xad\xf1,@'
p91
tp92
Rp93
ag10
(g14
S'~\x02\x86y\x8f^-@'
p94
tp95
Rp96
ag10
(g14
S'#\xbf6\xf6\xc7U)@'
p97
tp98
Rp99
ag10
(g14
S'J\xc7\xf6\xa8\xa3\r-@'
p100
tp101
Rp102
ag10
(g14
S'\xdf\xf6\xbcS\x9c\xf8+@'
p103
tp104
Rp105
ag10
(g14
S'\xd1v\xb8\x10\x15 -@'
p106
tp107
Rp108
ag10
(g14
S'\xde[\xa6D\xb8\x9a+@'
p109
tp110
Rp111
ag10
(g14
S'\xc8\xa37R\xa9--@'
p112
tp113
Rp114
ag10
(g14
S'f\xc7\x0e\xe7\x1e\xc7*@'
p115
tp116
Rp117
ag10
(g14
S'\xdc\xe9\xeft+\xec*@'
p118
tp119
Rp120
ag10
(g14
S'\x1b\xda\x88(7\xe9-@'
p121
tp122
Rp123
ag10
(g14
S'\xae\x15.A\x9fo+@'
p124
tp125
Rp126
ag10
(g14
S'\x86f\x10JF\x88-@'
p127
tp128
Rp129
ag10
(g14
S'\x13S\x1a\xf0.\xbd/@'
p130
tp131
Rp132
ag10
(g14
S'\x14x\x1f\rA+.@'
p133
tp134
Rp135
ag10
(g14
S'\xf0D\r|\xe7W*@'
p136
tp137
Rp138
asssss.