(dp0
S'../Data/sqlite_9.csv'
p1
(dp2
S'../Data/sqlite_92.csv'
p3
(dp4
F0.25
(dp5
S'mmre'
p6
(dp7
S'bellwether'
p8
(lp9
cnumpy.core.multiarray
scalar
p10
(cnumpy
dtype
p11
(S'f8'
p12
I0
I1
tp13
Rp14
(I3
S'<'
p15
NNNI-1
I-1
I0
tp16
bS':\xef\\m\xc3fQ@'
p17
tp18
Rp19
ag10
(g14
S'\xa6\xd1\xa5%q@Q@'
p20
tp21
Rp22
ag10
(g14
S'\x9bX<\x0b\xfc`Q@'
p23
tp24
Rp25
ag10
(g14
S'\xabnI\x995eQ@'
p26
tp27
Rp28
ag10
(g14
S'0\x08\x97~\x0eNQ@'
p29
tp30
Rp31
ag10
(g14
S'\xe2?z\xe6\xf9TQ@'
p32
tp33
Rp34
ag10
(g14
S'=\x04\xa2S\x82KQ@'
p35
tp36
Rp37
ag10
(g14
S'\xbe\xc4\x83\xe8vYQ@'
p38
tp39
Rp40
ag10
(g14
S'&\x9b\xd9\xb9cYQ@'
p41
tp42
Rp43
ag10
(g14
S'\xa1\x08(PEGQ@'
p44
tp45
Rp46
ag10
(g14
S'\x10\x92Le\xdcBQ@'
p47
tp48
Rp49
ag10
(g14
S'\x8bf\rW-SQ@'
p50
tp51
Rp52
ag10
(g14
S'\x87\r\xb7\xbc\xd4SQ@'
p53
tp54
Rp55
ag10
(g14
S'\xeb\xc7 y\xd8jQ@'
p56
tp57
Rp58
ag10
(g14
S'b\xc4\x9e^\x15CQ@'
p59
tp60
Rp61
ag10
(g14
S'h-\xdbN\xadYQ@'
p62
tp63
Rp64
ag10
(g14
S'\xd5\x1b\xff,\x19RQ@'
p65
tp66
Rp67
ag10
(g14
S'\x85\x02}2\xb1TQ@'
p68
tp69
Rp70
ag10
(g14
S'N\xcfXYWhQ@'
p71
tp72
Rp73
ag10
(g14
S'\xda\x99\xaf\x9c\xd1QQ@'
p74
tp75
Rp76
asS'target'
p77
(lp78
g10
(g14
S'$\xd0\xc7X\x18\x13L@'
p79
tp80
Rp81
ag10
(g14
S'\xdf4>\xa8K\x9eW@'
p82
tp83
Rp84
ag10
(g14
S'\xa6\x85;\xff\x12\xc9U@'
p85
tp86
Rp87
ag10
(g14
S'U\x80\x96\xe93\xdbL@'
p88
tp89
Rp90
ag10
(g14
S'|\xb8\x10\xe6r\x97P@'
p91
tp92
Rp93
ag10
(g14
S'\xfb2u\x95^nI@'
p94
tp95
Rp96
ag10
(g14
S'$\xf8gP\xfa|S@'
p97
tp98
Rp99
ag10
(g14
S'\x86\xd2\xed&\xbe\x15P@'
p100
tp101
Rp102
ag10
(g14
S'\x11\xb5\xd1\xd6\xe5EL@'
p103
tp104
Rp105
ag10
(g14
S'\r\xf1R\x03&\xffR@'
p106
tp107
Rp108
ag10
(g14
S'M\x10<\xc2`aP@'
p109
tp110
Rp111
ag10
(g14
S'"\x94h\xa9\\\xe4I@'
p112
tp113
Rp114
ag10
(g14
S'\xe7\x0f\xf7!\xbc\tV@'
p115
tp116
Rp117
ag10
(g14
S'\xad\x82;\x80q&H@'
p118
tp119
Rp120
ag10
(g14
S'Z,\xf2\x1e\x9d\xdeU@'
p121
tp122
Rp123
ag10
(g14
S'\xf2\xd7\xd8[\x15MS@'
p124
tp125
Rp126
ag10
(g14
S'~+\x91\x85\r@Y@'
p127
tp128
Rp129
ag10
(g14
S'\xe4@\x07P$\x99Q@'
p130
tp131
Rp132
ag10
(g14
S'-1im\x04qJ@'
p133
tp134
Rp135
ag10
(g14
S'\xad\xeaL\x08\xf3@R@'
p136
tp137
Rp138
asssss.