(dp0
S'../Data/sqlite_5.csv'
p1
(dp2
S'../Data/sqlite_86.csv'
p3
(dp4
F0.35
(dp5
S'mmre'
p6
(dp7
S'bellwether'
p8
(lp9
cnumpy.core.multiarray
scalar
p10
(cnumpy
dtype
p11
(S'f8'
p12
I0
I1
tp13
Rp14
(I3
S'<'
p15
NNNI-1
I-1
I0
tp16
bS'\x002\x877[F`@'
p17
tp18
Rp19
ag10
(g14
S'\xec\xd4w\xf7\xeb\xa7`@'
p20
tp21
Rp22
ag10
(g14
S'\xb8\xad^D\xbd\xb2`@'
p23
tp24
Rp25
ag10
(g14
S'\xe0\xd6\x9d,\xc8\xc0`@'
p26
tp27
Rp28
ag10
(g14
S'\xe1\xfe\xef\x13\x87\xde`@'
p29
tp30
Rp31
ag10
(g14
S'\xe6<Y\\\xba\xda`@'
p32
tp33
Rp34
ag10
(g14
S'+\xfe,J,b`@'
p35
tp36
Rp37
ag10
(g14
S'\x81]\x0bdv\xbf`@'
p38
tp39
Rp40
ag10
(g14
S'\x81OP\x7f\xe1w`@'
p41
tp42
Rp43
ag10
(g14
S'\x92\xabv\xa30\x9b`@'
p44
tp45
Rp46
ag10
(g14
S'\x16\xcd\xa0d\xd6\xef`@'
p47
tp48
Rp49
ag10
(g14
S'*\r\xee!A\xb7`@'
p50
tp51
Rp52
ag10
(g14
S'\\\xd7\x05\x10Tq`@'
p53
tp54
Rp55
ag10
(g14
S'\x19\xf7*\x91\xf3\xd9`@'
p56
tp57
Rp58
ag10
(g14
S'\xf6\xafI\xc42E`@'
p59
tp60
Rp61
ag10
(g14
S'\x8c\x089a*\xa4`@'
p62
tp63
Rp64
ag10
(g14
S'\x94|\x812^\xcf`@'
p65
tp66
Rp67
ag10
(g14
S'\x05\xf2\xed*\x9eh`@'
p68
tp69
Rp70
ag10
(g14
S'x\xbbQ\x08\xf7\x86`@'
p71
tp72
Rp73
ag10
(g14
S'\xcdT\x918fr`@'
p74
tp75
Rp76
asS'target'
p77
(lp78
g10
(g14
S'\xd9]\xe3\xd8\xe89E@'
p79
tp80
Rp81
ag10
(g14
S'nJwQ\x0f\xb9I@'
p82
tp83
Rp84
ag10
(g14
S'h$$j.\\R@'
p85
tp86
Rp87
ag10
(g14
S'Q\xd4F\xdaf?P@'
p88
tp89
Rp90
ag10
(g14
S'\x08\x8e\x1a\xcc\xdcMQ@'
p91
tp92
Rp93
ag10
(g14
S'\x04\xeeY\xc1\xd2\xfdQ@'
p94
tp95
Rp96
ag10
(g14
S'\x0b\xb8H\xb2r\xefH@'
p97
tp98
Rp99
ag10
(g14
S'[@\xc0\x08-\x17O@'
p100
tp101
Rp102
ag10
(g14
S'kn"\xa0\xc4`S@'
p103
tp104
Rp105
ag10
(g14
S"\x0f\xa1I<h'J@"
p106
tp107
Rp108
ag10
(g14
S'v\xb8Z_\xfc#R@'
p109
tp110
Rp111
ag10
(g14
S'\x1c+\xf08:4X@'
p112
tp113
Rp114
ag10
(g14
S'4\x88\x0f\xc4\x7f\x06I@'
p115
tp116
Rp117
ag10
(g14
S'\xd690\xd2\x04lH@'
p118
tp119
Rp120
ag10
(g14
S'f\xe0\xbcJ@\xb0H@'
p121
tp122
Rp123
ag10
(g14
S'\x1e\x84C\x8a\xc9\xcfP@'
p124
tp125
Rp126
ag10
(g14
S'\xbf\xc5\xb8\xac/\x94O@'
p127
tp128
Rp129
ag10
(g14
S'\xdb\xb9\xdbv\x954L@'
p130
tp131
Rp132
ag10
(g14
S'*\xa5\xad\xb7\x95[N@'
p133
tp134
Rp135
ag10
(g14
S'UMc\xedkFQ@'
p136
tp137
Rp138
asssss.