(dp0
S'../Data/sqlite_94.csv'
p1
(dp2
S'../Data/sqlite_36.csv'
p3
(dp4
F0.1
(dp5
S'abs_res'
p6
(dp7
S'bellwether'
p8
(lp9
cnumpy.core.multiarray
scalar
p10
(cnumpy
dtype
p11
(S'f8'
p12
I0
I1
tp13
Rp14
(I3
S'<'
p15
NNNI-1
I-1
I0
tp16
bS'\xc4\xf5(\\\x8b\xa1"A'
p17
tp18
Rp19
ag10
(g14
S'\x8d\xebQ\xf8\xc5\xa3"A'
p20
tp21
Rp22
ag10
(g14
S'E5^\xba\xec\x8c"A'
p23
tp24
Rp25
ag10
(g14
S'Q9\xb4\x88\x8fq"A'
p26
tp27
Rp28
ag10
(g14
S'J`\xe5\x90\xca+"A'
p29
tp30
Rp31
ag10
(g14
S'\xac\x1cZ\xe4\tt"A'
p32
tp33
Rp34
ag10
(g14
S'\x0c\x02+\x07\xe4k"A'
p35
tp36
Rp37
ag10
(g14
S'\xdaO\x8d\xd7KX"A'
p38
tp39
Rp40
ag10
(g14
S'n;\xdf\x8f\xf4\xaa"A'
p41
tp42
Rp43
ag10
(g14
S'\rV\x0e-~K"A'
p44
tp45
Rp46
ag10
(g14
S'\xd2Mb\xd0\x02w"A'
p47
tp48
Rp49
ag10
(g14
S'\xaf\xc6Kw3\x89"A'
p50
tp51
Rp52
ag10
(g14
S'd\x8f\xc2u\x97~"A'
p53
tp54
Rp55
ag10
(g14
S'q=\n\x97&V"A'
p56
tp57
Rp58
ag10
(g14
S'K\x8bl\'\xe0V"A'
p59
tp60
Rp61
ag10
(g14
S'>\n\xd7c$H"A'
p62
tp63
Rp64
ag10
(g14
S'*1\x08\xac\x9e\x9c"A'
p65
tp66
Rp67
ag10
(g14
S'\xe3$\x06\x01Rl"A'
p68
tp69
Rp70
ag10
(g14
S'\x86\xc0\xca!\xad\x99"A'
p71
tp72
Rp73
ag10
(g14
S'*1\x08\xec\x17Z"A'
p74
tp75
Rp76
asS'target'
p77
(lp78
g10
(g14
S'\x03\x81\x95C\x8b\x14X@'
p79
tp80
Rp81
ag10
(g14
S'51\x08\xac\x1c\xeaZ@'
p82
tp83
Rp84
ag10
(g14
S'\xb0E\xb6\xf3\xfd\x04Z@'
p85
tp86
Rp87
ag10
(g14
S'`\x10X9\xb4\x18]@'
p88
tp89
Rp90
ag10
(g14
S'\xc7 \xb0rh\xbdW@'
p91
tp92
Rp93
ag10
(g14
S'J\xb8\x1e\x85\xeb\xd9W@'
p94
tp95
Rp96
ag10
(g14
S'u\x91\xed|?\rZ@'
p97
tp98
Rp99
ag10
(g14
S'\xeb&1\x08\xac\xbcY@'
p100
tp101
Rp102
ag10
(g14
S"\x83\x95C\x8bl'X@"
p103
tp104
Rp105
ag10
(g14
S'\xad\xf1\xd2Mb\xe0Y@'
p106
tp107
Rp108
ag10
(g14
S'\xaa\xf1\xd2Mb\xb8Y@'
p109
tp110
Rp111
ag10
(g14
S'L7\x89A`UX@'
p112
tp113
Rp114
ag10
(g14
S'\x01\xaa\xf1\xd2M*_@'
p115
tp116
Rp117
ag10
(g14
S'\xb5G\xe1z\x14\x9e\\@'
p118
tp119
Rp120
ag10
(g14
S'~h\x91\xed|\xc7^@'
p121
tp122
Rp123
ag10
(g14
S'\x1eZd;\xdf\xa7Y@'
p124
tp125
Rp126
ag10
(g14
S'%\x85\xebQ\xb8\xfeZ@'
p127
tp128
Rp129
ag10
(g14
S'\xb8\xf3\xfd\xd4xQZ@'
p130
tp131
Rp132
ag10
(g14
S'\x9fC\x8bl\xe7\xdb[@'
p133
tp134
Rp135
ag10
(g14
S'\x1f/\xdd$\x069^@'
p136
tp137
Rp138
asssss.