(dp0
S'../Data/sqlite_35.csv'
p1
(dp2
S'../Data/sqlite_86.csv'
p3
(dp4
F0.1
(dp5
S'mmre'
p6
(dp7
S'bellwether'
p8
(lp9
cnumpy.core.multiarray
scalar
p10
(cnumpy
dtype
p11
(S'f8'
p12
I0
I1
tp13
Rp14
(I3
S'<'
p15
NNNI-1
I-1
I0
tp16
bS'\x03u\x12R\xf3:h@'
p17
tp18
Rp19
ag10
(g14
S'\xfd\x0b\xe9\xafB\x16h@'
p20
tp21
Rp22
ag10
(g14
S'\xc6\xc5\xc1\x9cDFh@'
p23
tp24
Rp25
ag10
(g14
S"\xde\xc7\x94u\x13'h@"
p26
tp27
Rp28
ag10
(g14
S'LE\x7f9\xbdTh@'
p29
tp30
Rp31
ag10
(g14
S'\xf2\xae&<\xc64h@'
p32
tp33
Rp34
ag10
(g14
S'FI\xf6\x9f\xffch@'
p35
tp36
Rp37
ag10
(g14
S'2g3\xa5C<h@'
p38
tp39
Rp40
ag10
(g14
S"'_&y^_h@"
p41
tp42
Rp43
ag10
(g14
S'U\xcfok\x9c\xf6g@'
p44
tp45
Rp46
ag10
(g14
S'k\x81\xcb\xc8\xfcEh@'
p47
tp48
Rp49
ag10
(g14
S':^.\x0b\x01ah@'
p50
tp51
Rp52
ag10
(g14
S'm\xa4\x92VTMh@'
p53
tp54
Rp55
ag10
(g14
S'\xb1R\xb3\xa3\xb1$h@'
p56
tp57
Rp58
ag10
(g14
S'\xc3\xce\xaf\xd1\x9d+h@'
p59
tp60
Rp61
ag10
(g14
S'+\xec\x9e\x91\xf5-h@'
p62
tp63
Rp64
ag10
(g14
S'\xcd\xfeh\x13\x8e&h@'
p65
tp66
Rp67
ag10
(g14
S'\x1d\xe1H\x17\xcfTh@'
p68
tp69
Rp70
ag10
(g14
S'&\xcdn\xcdI1h@'
p71
tp72
Rp73
ag10
(g14
S'j\xf9\x8a\xdc\x92Zh@'
p74
tp75
Rp76
asS'target'
p77
(lp78
g10
(g14
S'\xd4\xef\xad\x13W\x86O@'
p79
tp80
Rp81
ag10
(g14
S'\x8c\x8e\xfdn~\x17G@'
p82
tp83
Rp84
ag10
(g14
S'\xd6{)[+YR@'
p85
tp86
Rp87
ag10
(g14
S'\x8d\x87\x03IQxQ@'
p88
tp89
Rp90
ag10
(g14
S'kM\xe3$1\xedP@'
p91
tp92
Rp93
ag10
(g14
S'\x0e\xcd\x05\xfe\xea\xfbJ@'
p94
tp95
Rp96
ag10
(g14
S'\xda7Vj\xcc\xecK@'
p97
tp98
Rp99
ag10
(g14
S'\x04\xa6N\xbb\x14\xf3P@'
p100
tp101
Rp102
ag10
(g14
S'\x1b-\x0f\xb6z\xeeT@'
p103
tp104
Rp105
ag10
(g14
S'*\x95\xde\xf4\xd2\x86?@'
p106
tp107
Rp108
ag10
(g14
S'ALjZ\x86/V@'
p109
tp110
Rp111
ag10
(g14
S'>;E\xa881V@'
p112
tp113
Rp114
ag10
(g14
S"\xcb'\xf8E')V@"
p115
tp116
Rp117
ag10
(g14
S'0[\xa9f\xb6\x17I@'
p118
tp119
Rp120
ag10
(g14
S'\xf6\xab\xe8\x12\xd54M@'
p121
tp122
Rp123
ag10
(g14
S'x\x9fF"\x84\x86L@'
p124
tp125
Rp126
ag10
(g14
S'\x1c+\xdb\x83X\xe2U@'
p127
tp128
Rp129
ag10
(g14
S'\xe6\x02ILF\xcaR@'
p130
tp131
Rp132
ag10
(g14
S'\x8eu\x9d\xefQ\x18F@'
p133
tp134
Rp135
ag10
(g14
S'&\xe7\xd8\x1f\xf7\xb7P@'
p136
tp137
Rp138
asssss.