(dp0
S'../Data/sqlite_12.csv'
p1
(dp2
S'../Data/sqlite_78.csv'
p3
(dp4
F0.3
(dp5
S'mmre'
p6
(dp7
S'bellwether'
p8
(lp9
cnumpy.core.multiarray
scalar
p10
(cnumpy
dtype
p11
(S'f8'
p12
I0
I1
tp13
Rp14
(I3
S'<'
p15
NNNI-1
I-1
I0
tp16
bS'-\x0e&\xb9\xdf\x1ey@'
p17
tp18
Rp19
ag10
(g14
S'[\x16:T&\xffx@'
p20
tp21
Rp22
ag10
(g14
S'\xa9\xd2\xad\xf9\xf9\xdax@'
p23
tp24
Rp25
ag10
(g14
S'\xac\x9bvJe\xe4x@'
p26
tp27
Rp28
ag10
(g14
S'[\xfe(JQ\x04y@'
p29
tp30
Rp31
ag10
(g14
S'\x1f\xfb\x95c\x82\xe9x@'
p32
tp33
Rp34
ag10
(g14
S'+\xe2{m\xca\x1dy@'
p35
tp36
Rp37
ag10
(g14
S'\xa1\\\xce\x8e\x8a\x0cy@'
p38
tp39
Rp40
ag10
(g14
S'\xc2[\x92\n\xc5\xf4x@'
p41
tp42
Rp43
ag10
(g14
S'\xb4wh\x9aD\x1ay@'
p44
tp45
Rp46
ag10
(g14
S'E*\xff\xaa\x14-y@'
p47
tp48
Rp49
ag10
(g14
S'\x92F\xf2\xe9\r3y@'
p50
tp51
Rp52
ag10
(g14
S'*\x16\\\x8ay-y@'
p53
tp54
Rp55
ag10
(g14
S'&\xc6\xd2tiAy@'
p56
tp57
Rp58
ag10
(g14
S'\x03\xc5\n\xbc]*y@'
p59
tp60
Rp61
ag10
(g14
S'"m-&N,y@'
p62
tp63
Rp64
ag10
(g14
S'\x1a\xacHb\xd3\xf5x@'
p65
tp66
Rp67
ag10
(g14
S'kl\xcd\x1b\xc9*y@'
p68
tp69
Rp70
ag10
(g14
S'\x17\xd3\xc2\x9b\x10\x19y@'
p71
tp72
Rp73
ag10
(g14
S'\xd3,U\x0eb!y@'
p74
tp75
Rp76
asS'target'
p77
(lp78
g10
(g14
S'c\xb0\x82\xf7\xdd\x113@'
p79
tp80
Rp81
ag10
(g14
S'\xce(\x8eDdp3@'
p82
tp83
Rp84
ag10
(g14
S'\xef>\xed\x10{B3@'
p85
tp86
Rp87
ag10
(g14
S'\xf9\x19iap\xe62@'
p88
tp89
Rp90
ag10
(g14
S'0\xd9\xba\xe1\xc5.3@'
p91
tp92
Rp93
ag10
(g14
S'`<E\xeb`x2@'
p94
tp95
Rp96
ag10
(g14
S'L\xb1\x9b\xf2\x81]4@'
p97
tp98
Rp99
ag10
(g14
S'\x00\xd7k\x1e*\xc43@'
p100
tp101
Rp102
ag10
(g14
S'lV\x00\xaa<l2@'
p103
tp104
Rp105
ag10
(g14
S'\xc2\xef\xa9\xcay\x7f4@'
p106
tp107
Rp108
ag10
(g14
S'UC\xcdv\x92\xa34@'
p109
tp110
Rp111
ag10
(g14
S"\xc5\xeb\\\xcc\x9b'3@"
p112
tp113
Rp114
ag10
(g14
S'\x9b+\xfa\xad\xcc\xac5@'
p115
tp116
Rp117
ag10
(g14
S'\xae,HA\x1f\xad3@'
p118
tp119
Rp120
ag10
(g14
S'\xc2UoZ&\xe33@'
p121
tp122
Rp123
ag10
(g14
S'\x95\xbb-\xbb$\x0b4@'
p124
tp125
Rp126
ag10
(g14
S'e\xe5\xbd\xab{\x193@'
p127
tp128
Rp129
ag10
(g14
S'\xa1K((\xde{3@'
p130
tp131
Rp132
ag10
(g14
S'K\xcav\xb2\xf563@'
p133
tp134
Rp135
ag10
(g14
S'\x9b\xdc\xa3\xd8\xbfi2@'
p136
tp137
Rp138
asssss.