(dp0
S'../Data/sqlite_93.csv'
p1
(dp2
S'../Data/sqlite_73.csv'
p3
(dp4
F0.15
(dp5
S'mmre'
p6
(dp7
S'bellwether'
p8
(lp9
cnumpy.core.multiarray
scalar
p10
(cnumpy
dtype
p11
(S'f8'
p12
I0
I1
tp13
Rp14
(I3
S'<'
p15
NNNI-1
I-1
I0
tp16
bS'v\xc6|\x90\x98/V@'
p17
tp18
Rp19
ag10
(g14
S'\xa4V\xa7gW#V@'
p20
tp21
Rp22
ag10
(g14
S'\xa9\xd9\xf9\xc8\xa6&V@'
p23
tp24
Rp25
ag10
(g14
S'\xdb\xae\x8bD\xaa"V@'
p26
tp27
Rp28
ag10
(g14
S'\x8fa\x8dm3&V@'
p29
tp30
Rp31
ag10
(g14
S'\x8f\x89\x02\xbe\xb7+V@'
p32
tp33
Rp34
ag10
(g14
S'\xd7\xcb\xd6>|$V@'
p35
tp36
Rp37
ag10
(g14
S'\xb3\xd6\xe5`\xc5#V@'
p38
tp39
Rp40
ag10
(g14
S's>\xb5v\x93\x18V@'
p41
tp42
Rp43
ag10
(g14
S'QqD\xf5\xc1BV@'
p44
tp45
Rp46
ag10
(g14
S'\xc4\x93\xaf\xb8_-V@'
p47
tp48
Rp49
ag10
(g14
S'\xf5t$\x03\x132V@'
p50
tp51
Rp52
ag10
(g14
S'\x05\xbc\xdeK\xd0)V@'
p53
tp54
Rp55
ag10
(g14
S'k\x7f]\x89\x1f(V@'
p56
tp57
Rp58
ag10
(g14
S'qo\xfb@\x93\x10V@'
p59
tp60
Rp61
ag10
(g14
S'$+\xeer\xb3\x19V@'
p62
tp63
Rp64
ag10
(g14
S'\xc1\xdcuJ<:V@'
p65
tp66
Rp67
ag10
(g14
S'\xc2F\x0e\x90\xc1/V@'
p68
tp69
Rp70
ag10
(g14
S'1\xec\xa4\x99\xe70V@'
p71
tp72
Rp73
ag10
(g14
S'\r\xa9b\x0c\xa8(V@'
p74
tp75
Rp76
asS'target'
p77
(lp78
g10
(g14
S'H\x80\xba"z}-@'
p79
tp80
Rp81
ag10
(g14
S'C6\xd80\xe4<*@'
p82
tp83
Rp84
ag10
(g14
S'\xa8\xe6zP\xe2V,@'
p85
tp86
Rp87
ag10
(g14
S'0\r\xe5\xb0\x05\xa3+@'
p88
tp89
Rp90
ag10
(g14
S'\xa5\xb8\xbd\xa8?\x96-@'
p91
tp92
Rp93
ag10
(g14
S')C\x0fE\xf2\xba*@'
p94
tp95
Rp96
ag10
(g14
S'L\xfe\xc7\xec\x1b\n-@'
p97
tp98
Rp99
ag10
(g14
S'F(`3\xed\xc4*@'
p100
tp101
Rp102
ag10
(g14
S'u\x03\x03({[+@'
p103
tp104
Rp105
ag10
(g14
S'Ph\xbam\xea\xe3*@'
p106
tp107
Rp108
ag10
(g14
S'C0u_h\xee)@'
p109
tp110
Rp111
ag10
(g14
S'\x0fo&\xb3%F*@'
p112
tp113
Rp114
ag10
(g14
S'\x15\x0e\xa2\x17\xbeF,@'
p115
tp116
Rp117
ag10
(g14
S'\xda\x07\x0c~v6+@'
p118
tp119
Rp120
ag10
(g14
S'@#\xa9\x81-\xdd*@'
p121
tp122
Rp123
ag10
(g14
S'K\xcd\xbe\x08O\x87*@'
p124
tp125
Rp126
ag10
(g14
S'\x04\xf0\xf3\xd7\xe4u)@'
p127
tp128
Rp129
ag10
(g14
S'|\x83O\x0fq\x02+@'
p130
tp131
Rp132
ag10
(g14
S'\xf7Rs#q\x9d)@'
p133
tp134
Rp135
ag10
(g14
S's\xef\x96\xab^\x800@'
p136
tp137
Rp138
asssss.