(dp0
S'../Data/sqlite_94.csv'
p1
(dp2
S'../Data/sqlite_8.csv'
p3
(dp4
F0.05
(dp5
S'abs_res'
p6
(dp7
S'bellwether'
p8
(lp9
cnumpy.core.multiarray
scalar
p10
(cnumpy
dtype
p11
(S'f8'
p12
I0
I1
tp13
Rp14
(I3
S'<'
p15
NNNI-1
I-1
I0
tp16
bS'F\xb6\xf3}\x85\x8a#A'
p17
tp18
Rp19
ag10
(g14
S'\x97C\x8b\xacqH#A'
p20
tp21
Rp22
ag10
(g14
S'T\x0e-\xb2\xaaM#A'
p23
tp24
Rp25
ag10
(g14
S'n\xbct\x93\xb1S#A'
p26
tp27
Rp28
ag10
(g14
S'\x00\x7fj\xbc\tX#A'
p29
tp30
Rp31
ag10
(g14
S'b\xe7\xfb\xa96E#A'
p32
tp33
Rp34
ag10
(g14
S'\x7f?5\x9e>\xa5#A'
p35
tp36
Rp37
ag10
(g14
S'\xb9\x1e\x85k\xcd\x0c#A'
p38
tp39
Rp40
ag10
(g14
S"qh\x91\xed'{#A"
p41
tp42
Rp43
ag10
(g14
S'A\x0c\x02+C}#A'
p44
tp45
Rp46
ag10
(g14
S'\x7f\x95C\xcbmh#A'
p47
tp48
Rp49
ag10
(g14
S'\x01\xaa\xf1R\x98N#A'
p50
tp51
Rp52
ag10
(g14
S'\x11\xd7\xa3p\xb4k#A'
p53
tp54
Rp55
ag10
(g14
S'\xd5"\xdb9\x16B#A'
p56
tp57
Rp58
ag10
(g14
S'133s\x92\x87#A'
p59
tp60
Rp61
ag10
(g14
S'\x9b\x99\x99\x99\x11{#A'
p62
tp63
Rp64
ag10
(g14
S'\x8c\x97n\x12\xdd7#A'
p65
tp66
Rp67
ag10
(g14
S'h;\xdf\x0f\xd1,#A'
p68
tp69
Rp70
ag10
(g14
S'\x1e\xd9\xce\xf7\xe0z#A'
p71
tp72
Rp73
ag10
(g14
S'{\x14\xae\x879l#A'
p74
tp75
Rp76
asS'target'
p77
(lp78
g10
(g14
S'\x1e\x04V\x0e-f`@'
p79
tp80
Rp81
ag10
(g14
S'#\xb0rh\x91\xbf`@'
p82
tp83
Rp84
ag10
(g14
S'\xfe~j\xbct\x87b@'
p85
tp86
Rp87
ag10
(g14
S'#/\xdd$\x06M`@'
p88
tp89
Rp90
ag10
(g14
S'pffffv\\@'
p91
tp92
Rp93
ag10
(g14
S'\x0f-\xb2\x9d\xefgY@'
p94
tp95
Rp96
ag10
(g14
S'\xd0\xa1E\xb6\xf35`@'
p97
tp98
Rp99
ag10
(g14
S'{j\xbct\x93\x98Z@'
p100
tp101
Rp102
ag10
(g14
S'\xbe\xf3\xfd\xd4x\x89[@'
p103
tp104
Rp105
ag10
(g14
S'a\xe5\xd0"\xdb\x15a@'
p106
tp107
Rp108
ag10
(g14
S'\xbaI\x0c\x02+?[@'
p109
tp110
Rp111
ag10
(g14
S'\xe1\xa5\x9b\xc4 \xb8_@'
p112
tp113
Rp114
ag10
(g14
S'\x80?5^\xba}`@'
p115
tp116
Rp117
ag10
(g14
S'\x01\x81\x95C\x8b\xcc`@'
p118
tp119
Rp120
ag10
(g14
S'\x81\xe9&1\x08\x10`@'
p121
tp122
Rp123
ag10
(g14
S'!\xdb\xf9~j\x14a@'
p124
tp125
Rp126
ag10
(g14
S'\xb6\xc6K7\x899]@'
p127
tp128
Rp129
ag10
(g14
S't\x91\xed|?u_@'
p130
tp131
Rp132
ag10
(g14
S'\x1d\x85\xebQ\xb8&Z@'
p133
tp134
Rp135
ag10
(g14
S'X\x0e-\xb2\x9d\xf7c@'
p136
tp137
Rp138
asssss.