(dp0
S'../Data/sqlite_4.csv'
p1
(dp2
S'../Data/sqlite_82.csv'
p3
(dp4
F0.2
(dp5
S'abs_res'
p6
(dp7
S'bellwether'
p8
(lp9
cnumpy.core.multiarray
scalar
p10
(cnumpy
dtype
p11
(S'f8'
p12
I0
I1
tp13
Rp14
(I3
S'<'
p15
NNNI-1
I-1
I0
tp16
bS'C\x89A DO>A'
p17
tp18
Rp19
ag10
(g14
S'\xabc\x82\xc7\xe8P>A'
p20
tp21
Rp22
ag10
(g14
S'\xfe\x80\x95\xc3\x98O>A'
p23
tp24
Rp25
ag10
(g14
S'=\xd2\x94*\x11P>A'
p26
tp27
Rp28
ag10
(g14
S'?5^\xfa\x96M>A'
p29
tp30
Rp31
ag10
(g14
S'\x0b\x9fa\xb7\xe6O>A'
p32
tp33
Rp34
ag10
(g14
S'5^\xba\xa9\xd1K>A'
p35
tp36
Rp37
ag10
(g14
S'A\xdfO\r\xc4O>A'
p38
tp39
Rp40
ag10
(g14
S')x0\xaf\xd4M>A'
p41
tp42
Rp43
ag10
(g14
S"'\xdb\xf9\xfe'N>A"
p44
tp45
Rp46
ag10
(g14
S'\x10\xe6\x89\xda{P>A'
p47
tp48
Rp49
ag10
(g14
S')\xa3\xb7\x85\x83M>A'
p50
tp51
Rp52
ag10
(g14
S'\xd1\x06:-_O>A'
p53
tp54
Rp55
ag10
(g14
S'TFo\xcb\xa6N>A'
p56
tp57
Rp58
ag10
(g14
S'\x1d\xdb\xf9\x9eTP>A'
p59
tp60
Rp61
ag10
(g14
S'\x85\xdck\xae\xb4M>A'
p62
tp63
Rp64
ag10
(g14
S'F(\xa3\xf7+P>A'
p65
tp66
Rp67
ag10
(g14
S'\xfa\xd4x)SP>A'
p68
tp69
Rp70
ag10
(g14
S'\xaee\xad\xce\xc0M>A'
p71
tp72
Rp73
ag10
(g14
S'\xee\xc3g\xd8\x12O>A'
p74
tp75
Rp76
asS'target'
p77
(lp78
g10
(g14
S'\xcdx\xe9&1\x04\x7f@'
p79
tp80
Rp81
ag10
(g14
S'`\xe5\xd0"\xdb\xf6\x81@'
p82
tp83
Rp84
ag10
(g14
S'x\x14\xaeG\xe1Rz@'
p85
tp86
Rp87
ag10
(g14
S'\x1f\x85\xebQ\xb8By@'
p88
tp89
Rp90
ag10
(g14
S'\\\xe3\xa5\x9b\xc4\x1bv@'
p91
tp92
Rp93
ag10
(g14
S'qh\x91\xed|\xefy@'
p94
tp95
Rp96
ag10
(g14
S'cffff@w@'
p97
tp98
Rp99
ag10
(g14
S'\xaa\xf1\xd2Mb\x98y@'
p100
tp101
Rp102
ag10
(g14
S']9\xb4\xc8v}}@'
p103
tp104
Rp105
ag10
(g14
S'\xaa\x9b\xc4 \xb0\x10{@'
p106
tp107
Rp108
ag10
(g14
S'x?5^:`\x80@'
p109
tp110
Rp111
ag10
(g14
S'*\x89A`\xe5,|@'
p112
tp113
Rp114
ag10
(g14
S'\x08\x04V\x0e-\xb4v@'
p115
tp116
Rp117
ag10
(g14
S'\xa0\xc6K7\x89]|@'
p118
tp119
Rp120
ag10
(g14
S'a\x91\xed|?\xc9t@'
p121
tp122
Rp123
ag10
(g14
S'\xee\xd2Mb\x10\x0e\x80@'
p124
tp125
Rp126
ag10
(g14
S'\x07\x81\x95C\x8b\x02y@'
p127
tp128
Rp129
ag10
(g14
S'\xd0Mb\x10X\x07}@'
p130
tp131
Rp132
ag10
(g14
S'\x86\xc0\xca\xa1E\xccx@'
p133
tp134
Rp135
ag10
(g14
S'\x87\x95C\x8blVx@'
p136
tp137
Rp138
asssss.