(dp0
S'../Data/sqlite_93.csv'
p1
(dp2
S'../Data/sqlite_87.csv'
p3
(dp4
F0.1
(dp5
S'mmre'
p6
(dp7
S'bellwether'
p8
(lp9
cnumpy.core.multiarray
scalar
p10
(cnumpy
dtype
p11
(S'f8'
p12
I0
I1
tp13
Rp14
(I3
S'<'
p15
NNNI-1
I-1
I0
tp16
bS'\x199\xaa\x91\xf9IV@'
p17
tp18
Rp19
ag10
(g14
S'\x9f\n\xcd9\x07JV@'
p20
tp21
Rp22
ag10
(g14
S'\xcd\xed\x00G\xe8JV@'
p23
tp24
Rp25
ag10
(g14
S':B\x05@#IV@'
p26
tp27
Rp28
ag10
(g14
S'E\xd4\xaazoKV@'
p29
tp30
Rp31
ag10
(g14
S'\xea\xa1\xa3\xf1^IV@'
p32
tp33
Rp34
ag10
(g14
S'\xd4\x8e\xc0\xbe\xe3GV@'
p35
tp36
Rp37
ag10
(g14
S'\x01c\xac\xe3)MV@'
p38
tp39
Rp40
ag10
(g14
S"@\xed\xd0',RV@"
p41
tp42
Rp43
ag10
(g14
S'l\xdbz1\x91JV@'
p44
tp45
Rp46
ag10
(g14
S'i\x02\x00[\xbdIV@'
p47
tp48
Rp49
ag10
(g14
S'$\x8f\xc7o\x91LV@'
p50
tp51
Rp52
ag10
(g14
S'\x9e\xb2\x1d$#IV@'
p53
tp54
Rp55
ag10
(g14
S'\xfe\xa9\xb7\x1b\xb8IV@'
p56
tp57
Rp58
ag10
(g14
S'\x80\x17\x80N[GV@'
p59
tp60
Rp61
ag10
(g14
S'\xf9Ur\xe9\x19PV@'
p62
tp63
Rp64
ag10
(g14
S'U\x10V\xac\x98JV@'
p65
tp66
Rp67
ag10
(g14
S'w\x9d#teJV@'
p68
tp69
Rp70
ag10
(g14
S'\xea\xfb1\xf3\x92IV@'
p71
tp72
Rp73
ag10
(g14
S'7rSp\x80JV@'
p74
tp75
Rp76
asS'target'
p77
(lp78
g10
(g14
S'\xe4\x93\x04U\x08"P@'
p79
tp80
Rp81
ag10
(g14
S'\x1d]`\xaa\xe8=Q@'
p82
tp83
Rp84
ag10
(g14
S'\x98\x8a%\x9c\x96\xa6D@'
p85
tp86
Rp87
ag10
(g14
S'\x97\xb1\xe7u\xfa\x16P@'
p88
tp89
Rp90
ag10
(g14
S'X\x870I&\x8cU@'
p91
tp92
Rp93
ag10
(g14
S'\xf8+*:t\xc7Z@'
p94
tp95
Rp96
ag10
(g14
S'0\xaf4I\xde+K@'
p97
tp98
Rp99
ag10
(g14
S'1}a\xa9\xccud@'
p100
tp101
Rp102
ag10
(g14
S'\x08c\x8cw\x84KM@'
p103
tp104
Rp105
ag10
(g14
S'=\xcb\xe3L\x9d\xfbU@'
p106
tp107
Rp108
ag10
(g14
S'\xd6\x81a\xf8\xebGW@'
p109
tp110
Rp111
ag10
(g14
S'~\xd3\r\xd6>\xf4\\@'
p112
tp113
Rp114
ag10
(g14
S'\xbeI\xc1\xe1\x96?T@'
p115
tp116
Rp117
ag10
(g14
S'S\x87K`\x8emS@'
p118
tp119
Rp120
ag10
(g14
S'\x11\xc8\xc33{\xbaQ@'
p121
tp122
Rp123
ag10
(g14
S'FP\xeb#\xbc<D@'
p124
tp125
Rp126
ag10
(g14
S'\t\x9d\xfd\xbe,\xcdQ@'
p127
tp128
Rp129
ag10
(g14
S'\xb5\xc3\xb0Q]\x15T@'
p130
tp131
Rp132
ag10
(g14
S'w\x87\xe3\xeb\xa5\\\\@'
p133
tp134
Rp135
ag10
(g14
S'\xa5\x01\xdc\xe5YgP@'
p136
tp137
Rp138
asssss.