(dp0
S'../Data/sqlite_29.csv'
p1
(dp2
S'../Data/sqlite_9.csv'
p3
(dp4
F0.35
(dp5
S'abs_res'
p6
(dp7
S'bellwether'
p8
(lp9
cnumpy.core.multiarray
scalar
p10
(cnumpy
dtype
p11
(S'f8'
p12
I0
I1
tp13
Rp14
(I3
S'<'
p15
NNNI-1
I-1
I0
tp16
bS'?5^\xda\xd6*=A'
p17
tp18
Rp19
ag10
(g14
S'e\xad\x8e\t\x1a,=A'
p20
tp21
Rp22
ag10
(g14
S'\xd7\xec\xc3\xc7<+=A'
p23
tp24
Rp25
ag10
(g14
S'\x1eZd[\xcb)=A'
p26
tp27
Rp28
ag10
(g14
S'\xdbO\x8dwV)=A'
p29
tp30
Rp31
ag10
(g14
S'\x15K~\xb1\x98+=A'
p32
tp33
Rp34
ag10
(g14
S'_ff\xc6\xa9+=A'
p35
tp36
Rp37
ag10
(g14
S'\xdf\x08et\x80)=A'
p38
tp39
Rp40
ag10
(g14
S'\x18\xe8\xb4AN+=A'
p41
tp42
Rp43
ag10
(g14
S'\xd6\x85\xa4ip+=A'
p44
tp45
Rp46
ag10
(g14
S'\xb1\x81N\xbb\x07+=A'
p47
tp48
Rp49
ag10
(g14
S'\xd5\xb2V\xc7\x14)=A'
p50
tp51
Rp52
ag10
(g14
S'\xc5/\x96\\G*=A'
p53
tp54
Rp55
ag10
(g14
S'k\xcbZ\xdd\xbb,=A'
p56
tp57
Rp58
ag10
(g14
S'\xf8F(\xa36*=A'
p59
tp60
Rp61
ag10
(g14
S'\xd0\x85\xa4I\x96(=A'
p62
tp63
Rp64
ag10
(g14
S'\xc3\xf5(\x9c\xeb)=A'
p65
tp66
Rp67
ag10
(g14
S'\xcb1\xc1\xe3\n+=A'
p68
tp69
Rp70
ag10
(g14
S'A\xd2\x94*\xaf+=A'
p71
tp72
Rp73
ag10
(g14
S'\xf37B\xb9[)=A'
p74
tp75
Rp76
asS'target'
p77
(lp78
g10
(g14
S'\xe0\xf9~j\xbc\xc4?@'
p79
tp80
Rp81
ag10
(g14
S'73333\x13>@'
p82
tp83
Rp84
ag10
(g14
S'\xe6O\x8d\x97nb=@'
p85
tp86
Rp87
ag10
(g14
S'\x12\x02+\x87\x16y:@'
p88
tp89
Rp90
ag10
(g14
S'\xff\x80\x95C\x8bL?@'
p91
tp92
Rp93
ag10
(g14
S'4\x89A`\xe5\x00=@'
p94
tp95
Rp96
ag10
(g14
S'\xec\xfb\xa9\xf1\xd2\xed<@'
p97
tp98
Rp99
ag10
(g14
S'\xc0 \xb0rh\xf1;@'
p100
tp101
Rp102
ag10
(g14
S"'\xb0rh\x91-<@"
p103
tp104
Rp105
ag10
(g14
S'\r\x81\x95C\x8b,?@'
p106
tp107
Rp108
ag10
(g14
S'\xb0G\xe1z\x14N<@'
p109
tp110
Rp111
ag10
(g14
S'Q\xe1z\x14\xaew?@'
p112
tp113
Rp114
ag10
(g14
S'\x98\x18\x04V\x0e\x8d>@'
p115
tp116
Rp117
ag10
(g14
S'|\x14\xaeG\xe1Z;@'
p118
tp119
Rp120
ag10
(g14
S'\x8f\xc2\xf5(\\\x0f;@'
p121
tp122
Rp123
ag10
(g14
S'\xe3\xd0"\xdb\xf9\x9e;@'
p124
tp125
Rp126
ag10
(g14
S'\x06V\x0e-\xb2];@'
p127
tp128
Rp129
ag10
(g14
S'\x0e\x02+\x87\x16\x19;@'
p130
tp131
Rp132
ag10
(g14
S'^\x0e-\xb2\x9d\xcf?@'
p133
tp134
Rp135
ag10
(g14
S'\xc9\x9f\x1a/\xdd\x84<@'
p136
tp137
Rp138
asssss.