(dp0
S'../Data/sqlite_65.csv'
p1
(dp2
S'../Data/sqlite_90.csv'
p3
(dp4
F0.3
(dp5
S'mmre'
p6
(dp7
S'bellwether'
p8
(lp9
cnumpy.core.multiarray
scalar
p10
(cnumpy
dtype
p11
(S'f8'
p12
I0
I1
tp13
Rp14
(I3
S'<'
p15
NNNI-1
I-1
I0
tp16
bS'\xdd|\xd3\xf5TtX@'
p17
tp18
Rp19
ag10
(g14
S'1\x19,bwwX@'
p20
tp21
Rp22
ag10
(g14
S"{.'\xa0#yX@"
p23
tp24
Rp25
ag10
(g14
S'\x8d\x93S?AwX@'
p26
tp27
Rp28
ag10
(g14
S'u\xc0i\x99\x12vX@'
p29
tp30
Rp31
ag10
(g14
S'C\t\x86\xaf`vX@'
p32
tp33
Rp34
ag10
(g14
S'\xe9\xa6\x17~ZvX@'
p35
tp36
Rp37
ag10
(g14
S'\x03\xc2R\xd3\xbdwX@'
p38
tp39
Rp40
ag10
(g14
S'\xab-\x15.\xe5wX@'
p41
tp42
Rp43
ag10
(g14
S'\r\xd0\xb6 \xdexX@'
p44
tp45
Rp46
ag10
(g14
S'\x9bs\x00\xb6zyX@'
p47
tp48
Rp49
ag10
(g14
S'%\x17\x0e\x96<vX@'
p50
tp51
Rp52
ag10
(g14
S'\x85:\xf05}yX@'
p53
tp54
Rp55
ag10
(g14
S'N\xad\xa5\xdc\x9avX@'
p56
tp57
Rp58
ag10
(g14
S'D\xda\x8d\xb6NyX@'
p59
tp60
Rp61
ag10
(g14
S'\xc4n\xdc\xfdc{X@'
p62
tp63
Rp64
ag10
(g14
S'\xacz\xee*FwX@'
p65
tp66
Rp67
ag10
(g14
S'\xc3\x9c$\xe6\xe1wX@'
p68
tp69
Rp70
ag10
(g14
S'\x8f\x95\xe5\x8c\x9cwX@'
p71
tp72
Rp73
ag10
(g14
S'\xfb3\x05\xb7\xd1vX@'
p74
tp75
Rp76
asS'target'
p77
(lp78
g10
(g14
S'\xf6\xf7\xf5\n\xc9xC@'
p79
tp80
Rp81
ag10
(g14
S'\xdcNa\xaa\xc0u@@'
p82
tp83
Rp84
ag10
(g14
S'\x92\tK\xdb\x92\x81@@'
p85
tp86
Rp87
ag10
(g14
S'\xd7\x7f\x81\x85\x98<B@'
p88
tp89
Rp90
ag10
(g14
S'\xfd#v\x99OOB@'
p91
tp92
Rp93
ag10
(g14
S'\xbe\xfd=\xdb$\xb7A@'
p94
tp95
Rp96
ag10
(g14
S'\xe5z\xca\xe5/DA@'
p97
tp98
Rp99
ag10
(g14
S'[\xd8v\xaf8\xb9=@'
p100
tp101
Rp102
ag10
(g14
S'\x12\x97o\xb4\x08\xbb?@'
p103
tp104
Rp105
ag10
(g14
S'\xcbe\xd1\x03\xb0\x10A@'
p106
tp107
Rp108
ag10
(g14
S'^7\xa4\x86)\xca@@'
p109
tp110
Rp111
ag10
(g14
S'=5\r\x06\xa6\xefA@'
p112
tp113
Rp114
ag10
(g14
S'\xd6\xdc\x02\x87<:@@'
p115
tp116
Rp117
ag10
(g14
S'\xb9\xf5p\x85$q@@'
p118
tp119
Rp120
ag10
(g14
S'\xcc\xc9\xb4\x9a\xc3hA@'
p121
tp122
Rp123
ag10
(g14
S'\xc3\xee.\\\xa4v@@'
p124
tp125
Rp126
ag10
(g14
S'\x8f2]\xeb\x1c\x90A@'
p127
tp128
Rp129
ag10
(g14
S'\x90\xa3\x00\xeb\xf5\xa7A@'
p130
tp131
Rp132
ag10
(g14
S'\x88{rd\x8c9A@'
p133
tp134
Rp135
ag10
(g14
S'\x9eWM\xb4<\x06C@'
p136
tp137
Rp138
asssss.