(dp0
S'../Data/sqlite_32.csv'
p1
(dp2
S'../Data/sqlite_88.csv'
p3
(dp4
F0.05
(dp5
S'mmre'
p6
(dp7
S'bellwether'
p8
(lp9
cnumpy.core.multiarray
scalar
p10
(cnumpy
dtype
p11
(S'f8'
p12
I0
I1
tp13
Rp14
(I3
S'<'
p15
NNNI-1
I-1
I0
tp16
bS'l6\xa1\xf7\r\x19T@'
p17
tp18
Rp19
ag10
(g14
S'\x0eP\xfb\xa1\xe61T@'
p20
tp21
Rp22
ag10
(g14
S'\xd3J\xfe\xa7\xfd)T@'
p23
tp24
Rp25
ag10
(g14
S'\x9d\x07}\xcc\xba;T@'
p26
tp27
Rp28
ag10
(g14
S"RUv\x9dH'T@"
p29
tp30
Rp31
ag10
(g14
S'\xb1 \x99Cl\x1bT@'
p32
tp33
Rp34
ag10
(g14
S'\xf9-X\xe0\xaa;T@'
p35
tp36
Rp37
ag10
(g14
S'\xee\xb3\xac\x1ef,T@'
p38
tp39
Rp40
ag10
(g14
S'o]\x10\xa0\x05$T@'
p41
tp42
Rp43
ag10
(g14
S'qOP\x91W4T@'
p44
tp45
Rp46
ag10
(g14
S'\x02\xb7\x82>Z0T@'
p47
tp48
Rp49
ag10
(g14
S'E<\x0bKh/T@'
p50
tp51
Rp52
ag10
(g14
S'w\xadG\x1ds4T@'
p53
tp54
Rp55
ag10
(g14
S'\xe9\xab?;)BT@'
p56
tp57
Rp58
ag10
(g14
S'\x94\x96@o\xd56T@'
p59
tp60
Rp61
ag10
(g14
S'\xf6*\xd2\x01\xc8BT@'
p62
tp63
Rp64
ag10
(g14
S'\x9d9\x93=\\;T@'
p65
tp66
Rp67
ag10
(g14
S'B\xbfg2b(T@'
p68
tp69
Rp70
ag10
(g14
S'\x9b\xc5Q\xd8\x92.T@'
p71
tp72
Rp73
ag10
(g14
S'\xf7+\xec\xf8\xe5+T@'
p74
tp75
Rp76
asS'target'
p77
(lp78
g10
(g14
S'/\xc7Q\xd1\x12\xf3K@'
p79
tp80
Rp81
ag10
(g14
S'\xa4\xb2\x91\xf1\x04\x7fI@'
p82
tp83
Rp84
ag10
(g14
S'G\xac\xfa@\xc7\x92L@'
p85
tp86
Rp87
ag10
(g14
S'Pm\xe74B\x9cP@'
p88
tp89
Rp90
ag10
(g14
S'\xd5\xa2-\x9d\xac6K@'
p91
tp92
Rp93
ag10
(g14
S'\xef\xfa\xc6\x19\xa8YL@'
p94
tp95
Rp96
ag10
(g14
S'\x0b\xa9\xdc\xca\xb9(L@'
p97
tp98
Rp99
ag10
(g14
S'\x83\xe2cW}\xd0L@'
p100
tp101
Rp102
ag10
(g14
S'7\xce\x1f,l\xc9H@'
p103
tp104
Rp105
ag10
(g14
S'\xba\x1dRy \xa8M@'
p106
tp107
Rp108
ag10
(g14
S'q\x90\xda\xc7\xd4\xfaK@'
p109
tp110
Rp111
ag10
(g14
S'\x98\xe2-d\x13\xbaK@'
p112
tp113
Rp114
ag10
(g14
S'\x19\xec\x9d<,\x08K@'
p115
tp116
Rp117
ag10
(g14
S'A2\x83\xf9\xd2jM@'
p118
tp119
Rp120
ag10
(g14
S'\xfeI\xaa\x13\xdd\xb7L@'
p121
tp122
Rp123
ag10
(g14
S'wuWK\\5K@'
p124
tp125
Rp126
ag10
(g14
S"\xf0%e'\xb0\xc6I@"
p127
tp128
Rp129
ag10
(g14
S'(2\xf8:8\x83N@'
p130
tp131
Rp132
ag10
(g14
S'U%-\x98RjL@'
p133
tp134
Rp135
ag10
(g14
S'Q)\xad\xad\x90\x91J@'
p136
tp137
Rp138
asssss.