(dp0
S'../Data/sqlite_35.csv'
p1
(dp2
S'../Data/sqlite_91.csv'
p3
(dp4
F0.05
(dp5
S'mmre'
p6
(dp7
S'bellwether'
p8
(lp9
cnumpy.core.multiarray
scalar
p10
(cnumpy
dtype
p11
(S'f8'
p12
I0
I1
tp13
Rp14
(I3
S'<'
p15
NNNI-1
I-1
I0
tp16
bS'V\xf8\x186\xa24X@'
p17
tp18
Rp19
ag10
(g14
S'bBD-<4X@'
p20
tp21
Rp22
ag10
(g14
S'\xc7\x8dm%\xdf1X@'
p23
tp24
Rp25
ag10
(g14
S'HS \xd8\xe73X@'
p26
tp27
Rp28
ag10
(g14
S'\x91\xcap\x1e\xdf4X@'
p29
tp30
Rp31
ag10
(g14
S'\xa3\xd7\x93H48X@'
p32
tp33
Rp34
ag10
(g14
S'd\xc7\xe3\\\xcb1X@'
p35
tp36
Rp37
ag10
(g14
S'QgL\x06.1X@'
p38
tp39
Rp40
ag10
(g14
S'W\xb5\x13\xdcm8X@'
p41
tp42
Rp43
ag10
(g14
S'\x12Z\x8e\xafZ4X@'
p44
tp45
Rp46
ag10
(g14
S'\xd9qZ2"5X@'
p47
tp48
Rp49
ag10
(g14
S'h\xd3J\x10&1X@'
p50
tp51
Rp52
ag10
(g14
S'\x1a@\xec\xc8\x1f5X@'
p53
tp54
Rp55
ag10
(g14
S'\xfa\x83~?B1X@'
p56
tp57
Rp58
ag10
(g14
S'\xc8O\xb1:\x8c7X@'
p59
tp60
Rp61
ag10
(g14
S':>\xb2\xf6*1X@'
p62
tp63
Rp64
ag10
(g14
S'\x11\xe3\xa30G7X@'
p65
tp66
Rp67
ag10
(g14
S'\n$\xa87d4X@'
p68
tp69
Rp70
ag10
(g14
S'\xf6C\xc3\x8c\x01AX@'
p71
tp72
Rp73
ag10
(g14
S'J\x86\x18_y7X@'
p74
tp75
Rp76
asS'target'
p77
(lp78
g10
(g14
S'\x1b\xe1\xfd\xb88%Q@'
p79
tp80
Rp81
ag10
(g14
S'\xa5\xed\xeb?{sN@'
p82
tp83
Rp84
ag10
(g14
S'\x16\x10\x9d\xa5X4P@'
p85
tp86
Rp87
ag10
(g14
S'\xfd\x15\xd5\xd6\xd2gP@'
p88
tp89
Rp90
ag10
(g14
S'\xeb|\xb4\x0c\xcb)O@'
p91
tp92
Rp93
ag10
(g14
S'\x82^#s)\xafP@'
p94
tp95
Rp96
ag10
(g14
S'\xed&\xf4\x89s\x81P@'
p97
tp98
Rp99
ag10
(g14
S'8K:\x12\xf2eP@'
p100
tp101
Rp102
ag10
(g14
S'\x18\x08\xae\x8d\x0e\x11M@'
p103
tp104
Rp105
ag10
(g14
S'T\xf9\x95\xab\xc9$Q@'
p106
tp107
Rp108
ag10
(g14
S'\x92T\xccI\rIO@'
p109
tp110
Rp111
ag10
(g14
S'2/\xfe\xe5\xe2\x87P@'
p112
tp113
Rp114
ag10
(g14
S'K\xd9\xb6?W\nP@'
p115
tp116
Rp117
ag10
(g14
S'B\xf1\xa8\xae\xb55P@'
p118
tp119
Rp120
ag10
(g14
S'\xb2L\xe8\xb9\xa2rO@'
p121
tp122
Rp123
ag10
(g14
S'^>\xf9\xde\xf1_P@'
p124
tp125
Rp126
ag10
(g14
S'f\xb2l\x11\xf8\xe3L@'
p127
tp128
Rp129
ag10
(g14
S'\xb3ST\xf6\x99\xa6O@'
p130
tp131
Rp132
ag10
(g14
S'\x11\xfb\x96\x84atL@'
p133
tp134
Rp135
ag10
(g14
S'\x9b@\xae\x88\xf92P@'
p136
tp137
Rp138
asssss.