(dp0
S'../Data/sqlite_28.csv'
p1
(dp2
S'../Data/sqlite_87.csv'
p3
(dp4
F0.25
(dp5
S'mmre'
p6
(dp7
S'bellwether'
p8
(lp9
cnumpy.core.multiarray
scalar
p10
(cnumpy
dtype
p11
(S'f8'
p12
I0
I1
tp13
Rp14
(I3
S'<'
p15
NNNI-1
I-1
I0
tp16
bS'\x11A\xa3\xb24&O@'
p17
tp18
Rp19
ag10
(g14
S'\xa2\xdc\x8b\xfa\xc9+O@'
p20
tp21
Rp22
ag10
(g14
S'&\x9c_\xb60^O@'
p23
tp24
Rp25
ag10
(g14
S'\x7f\xd6\xbb\xe5y$O@'
p26
tp27
Rp28
ag10
(g14
S'\xac3+\xc3\xc1kO@'
p29
tp30
Rp31
ag10
(g14
S'\x86H\xf42)/O@'
p32
tp33
Rp34
ag10
(g14
S'\xc6\xf6\xbd4mLO@'
p35
tp36
Rp37
ag10
(g14
S'\x1f\xf2S\xab\x915O@'
p38
tp39
Rp40
ag10
(g14
S'\xe4\xc3L@\x05"O@'
p41
tp42
Rp43
ag10
(g14
S'\xf8\x83\x0f\x92\xabhO@'
p44
tp45
Rp46
ag10
(g14
S'\x95b\x9bS\x00SO@'
p47
tp48
Rp49
ag10
(g14
S'\xbc\xber`\xaaxO@'
p50
tp51
Rp52
ag10
(g14
S'B\x9c\xe8z(bO@'
p53
tp54
Rp55
ag10
(g14
S'W\x14\xdf\xd3\\[O@'
p56
tp57
Rp58
ag10
(g14
S'};\xaf\xafH6O@'
p59
tp60
Rp61
ag10
(g14
S'/\xe0B\x17J[O@'
p62
tp63
Rp64
ag10
(g14
S'~\x192c*\x1fO@'
p65
tp66
Rp67
ag10
(g14
S'\xca"\xa0\x9b\x93\x8cO@'
p68
tp69
Rp70
ag10
(g14
S'\xcd@\x00\xe8\x80YO@'
p71
tp72
Rp73
ag10
(g14
S'M[\xe2q:kO@'
p74
tp75
Rp76
asS'target'
p77
(lp78
g10
(g14
S'\xa2\xf8\x0b\xab\x8cmO@'
p79
tp80
Rp81
ag10
(g14
S'm\xa4c9\xe6\x13M@'
p82
tp83
Rp84
ag10
(g14
S'!\x938\xdb\xfe\xe0Q@'
p85
tp86
Rp87
ag10
(g14
S'f\x0eM]u>Q@'
p88
tp89
Rp90
ag10
(g14
S'\x03\xa9\xf8\x13W\xc3K@'
p91
tp92
Rp93
ag10
(g14
S'*J\xf0w/\x8aV@'
p94
tp95
Rp96
ag10
(g14
S'\xdf\xf1\xc8\x0eQ\x06N@'
p97
tp98
Rp99
ag10
(g14
S'\xab\x06\xd8\xae\x8ejP@'
p100
tp101
Rp102
ag10
(g14
S'\xfb\x8d?\\$6Z@'
p103
tp104
Rp105
ag10
(g14
S'`D\xda\xb7T\xf1M@'
p106
tp107
Rp108
ag10
(g14
S'\xf8\x8c\xf8\xd6*XM@'
p109
tp110
Rp111
ag10
(g14
S'\xc48u\xaf\xd5\xb7O@'
p112
tp113
Rp114
ag10
(g14
S'\t\xa3\xf4\xc8\x15\x91D@'
p115
tp116
Rp117
ag10
(g14
S';\x08ykx~Q@'
p118
tp119
Rp120
ag10
(g14
S'"\xc7g\xd1\xcfEK@'
p121
tp122
Rp123
ag10
(g14
S'\x9c\x908-\x19\xb6H@'
p124
tp125
Rp126
ag10
(g14
S'\xd6d\x8e\xc7\x130W@'
p127
tp128
Rp129
ag10
(g14
S'\xc4\xe7!\x19\x05nJ@'
p130
tp131
Rp132
ag10
(g14
S'\xce`c\xbb&\x9eP@'
p133
tp134
Rp135
ag10
(g14
S'&X\x94\xb0\txR@'
p136
tp137
Rp138
asssss.