(dp0
S'../Data/sqlite_15.csv'
p1
(dp2
S'../Data/sqlite_30.csv'
p3
(dp4
F0.05
(dp5
S'abs_res'
p6
(dp7
S'bellwether'
p8
(lp9
cnumpy.core.multiarray
scalar
p10
(cnumpy
dtype
p11
(S'f8'
p12
I0
I1
tp13
Rp14
(I3
S'<'
p15
NNNI-1
I-1
I0
tp16
bS'\xfb*\x87\xb6G$BA'
p17
tp18
Rp19
ag10
(g14
S'\x9e\xa8\x7fS\xe1#BA'
p20
tp21
Rp22
ag10
(g14
S'\x14\xaeG\x81\xc0#BA'
p23
tp24
Rp25
ag10
(g14
S'\xda\xce\xf7\xb3\xf9#BA'
p26
tp27
Rp28
ag10
(g14
S'9\x89A\xb0j$BA'
p29
tp30
Rp31
ag10
(g14
S'1\x87\x16\x19c$BA'
p32
tp33
Rp34
ag10
(g14
S'\xc5Z\x1d#\x81$BA'
p35
tp36
Rp37
ag10
(g14
S'[H\x9a\xd2z$BA'
p38
tp39
Rp40
ag10
(g14
S'E\x9aRaw$BA'
p41
tp42
Rp43
ag10
(g14
S'\x7f?5\xbeq$BA'
p44
tp45
Rp46
ag10
(g14
S'\x9a\x18\x04&\xf3#BA'
p47
tp48
Rp49
ag10
(g14
S'\x97\x18\x04&\x93$BA'
p50
tp51
Rp52
ag10
(g14
S'D5^\ni$BA'
p53
tp54
Rp55
ag10
(g14
S'>\n\xd7ca$BA'
p56
tp57
Rp58
ag10
(g14
S'\x13\x83\xc0\xaa7$BA'
p59
tp60
Rp61
ag10
(g14
S'ZH\x9a\x82\x1a$BA'
p62
tp63
Rp64
ag10
(g14
S'6^\xba\x19n$BA'
p65
tp66
Rp67
ag10
(g14
S'\xdf\x08ed^$BA'
p68
tp69
Rp70
ag10
(g14
S'\xfbU\x0e\xad!$BA'
p71
tp72
Rp73
ag10
(g14
S'\xb0\xf1\xd2=\xbe#BA'
p74
tp75
Rp76
asS'target'
p77
(lp78
g10
(g14
S'<\xb2\x9d\xef\xa7\xd6D@'
p79
tp80
Rp81
ag10
(g14
S'*\\\x8f\xc2\xf5\x00P@'
p82
tp83
Rp84
ag10
(g14
S'\xac\x9b\xc4 \xb0bA@'
p85
tp86
Rp87
ag10
(g14
S'\x9c\xc2\xf5(\\\xdfI@'
p88
tp89
Rp90
ag10
(g14
S'\xc4\xca\xa1E\xb6SI@'
p91
tp92
Rp93
ag10
(g14
S'4^\xbaI\x0c\x02C@'
p94
tp95
Rp96
ag10
(g14
S'Nb\x10X9\x94?@'
p97
tp98
Rp99
ag10
(g14
S'\xd2v\xbe\x9f\x1aOD@'
p100
tp101
Rp102
ag10
(g14
S'\x9e\xc2\xf5(\\OJ@'
p103
tp104
Rp105
ag10
(g14
S'U\xe3\xa5\x9b\xc4\x00@@'
p106
tp107
Rp108
ag10
(g14
S':\xb2\x9d\xef\xa7f>@'
p109
tp110
Rp111
ag10
(g14
S'\xc8\x9f\x1a/\xdd\x0cP@'
p112
tp113
Rp114
ag10
(g14
S'\xc5K7\x89A\xd0J@'
p115
tp116
Rp117
ag10
(g14
S'dd;\xdfO\xbdB@'
p118
tp119
Rp120
ag10
(g14
S'\xda"\xdb\xf9~*L@'
p121
tp122
Rp123
ag10
(g14
S'n;\xdfO\x8d\x17G@'
p124
tp125
Rp126
ag10
(g14
S'\xa3\x1cZd;\xafG@'
p127
tp128
Rp129
ag10
(g14
S'\xdaO\x8d\x97nB@@'
p130
tp131
Rp132
ag10
(g14
S'O\xb6\xf3\xfd\xd4hD@'
p133
tp134
Rp135
ag10
(g14
S'X\xe3\xa5\x9b\xc4\x80G@'
p136
tp137
Rp138
asssss.