(dp0
S'../Data/sqlite_21.csv'
p1
(dp2
S'../Data/sqlite_77.csv'
p3
(dp4
F0.15
(dp5
S'mmre'
p6
(dp7
S'bellwether'
p8
(lp9
cnumpy.core.multiarray
scalar
p10
(cnumpy
dtype
p11
(S'f8'
p12
I0
I1
tp13
Rp14
(I3
S'<'
p15
NNNI-1
I-1
I0
tp16
bS"\x9b's\xad<?N@"
p17
tp18
Rp19
ag10
(g14
S'\xd63\xcb\xf2\x0e3N@'
p20
tp21
Rp22
ag10
(g14
S'\xef\xfa\x16"\x89&N@'
p23
tp24
Rp25
ag10
(g14
S'_B\xb9\xa9\xa6<N@'
p26
tp27
Rp28
ag10
(g14
S'nK\xc2\xf7\xef#N@'
p29
tp30
Rp31
ag10
(g14
S'\xe5\xda\xcc\xf1E"N@'
p32
tp33
Rp34
ag10
(g14
S'\xab\x08\xd9\xd0\xdb@N@'
p35
tp36
Rp37
ag10
(g14
S'K\x97\xce><GN@'
p38
tp39
Rp40
ag10
(g14
S'\xd7I[\x0bR3N@'
p41
tp42
Rp43
ag10
(g14
S'"w\xd1\\\x85<N@'
p44
tp45
Rp46
ag10
(g14
S'\xd1%\x11\x0e\xe7/N@'
p47
tp48
Rp49
ag10
(g14
S"-\xa0>\x98'4N@"
p50
tp51
Rp52
ag10
(g14
S'@\x1a$k%3N@'
p53
tp54
Rp55
ag10
(g14
S'\xc7\xe28\x82\x887N@'
p56
tp57
Rp58
ag10
(g14
S'@\xc7\xed\xdcO@N@'
p59
tp60
Rp61
ag10
(g14
S'\xfcf>\xea\xb6UN@'
p62
tp63
Rp64
ag10
(g14
S'D\xee\xb4;\xffAN@'
p65
tp66
Rp67
ag10
(g14
S'C?\xba_AEN@'
p68
tp69
Rp70
ag10
(g14
S'\x98gl\xf1O5N@'
p71
tp72
Rp73
ag10
(g14
S'\xc6\xb4kW\xda2N@'
p74
tp75
Rp76
asS'target'
p77
(lp78
g10
(g14
S'\xab\xfb\xc1\x02\x1f\x136@'
p79
tp80
Rp81
ag10
(g14
S'\xd4a\td\xe1"7@'
p82
tp83
Rp84
ag10
(g14
S'\x17\xac\xf1\xb6\xca\xb08@'
p85
tp86
Rp87
ag10
(g14
S'\xdbk\x07!qr4@'
p88
tp89
Rp90
ag10
(g14
S'J\x94r\xb9c\xe67@'
p91
tp92
Rp93
ag10
(g14
S'D\n\xa9\xa0\xaf\xa77@'
p94
tp95
Rp96
ag10
(g14
S'\x88\xe6U\xbd\xdb\xd14@'
p97
tp98
Rp99
ag10
(g14
S'\xa6\x94k\xf1o\xbe5@'
p100
tp101
Rp102
ag10
(g14
S'\\\xbfm\xd4Q75@'
p103
tp104
Rp105
ag10
(g14
S'U\x8913\xfd46@'
p106
tp107
Rp108
ag10
(g14
S'\x17\xc1/\x89\x10I6@'
p109
tp110
Rp111
ag10
(g14
S'3\x98H\xf4\xe7d8@'
p112
tp113
Rp114
ag10
(g14
S'\xe78Z\xe0R\xfd5@'
p115
tp116
Rp117
ag10
(g14
S'\xfa\xdb\xdd?\xd1-6@'
p118
tp119
Rp120
ag10
(g14
S'm\x9b\xdd$\xca\xa26@'
p121
tp122
Rp123
ag10
(g14
S'O\x05\xc9a\xcby5@'
p124
tp125
Rp126
ag10
(g14
S'\xa1\x88\xdbvU\x855@'
p127
tp128
Rp129
ag10
(g14
S'\xebi\x90|\xd8\xad5@'
p130
tp131
Rp132
ag10
(g14
S'\x02v\x00\x19\x85[4@'
p133
tp134
Rp135
ag10
(g14
S'.\xfb\xca\xa9\xe3&8@'
p136
tp137
Rp138
asssss.