(dp0
S'../Data/sqlite_64.csv'
p1
(dp2
S'../Data/sqlite_43.csv'
p3
(dp4
F0.25
(dp5
S'abs_res'
p6
(dp7
S'bellwether'
p8
(lp9
cnumpy.core.multiarray
scalar
p10
(cnumpy
dtype
p11
(S'f8'
p12
I0
I1
tp13
Rp14
(I3
S'<'
p15
NNNI-1
I-1
I0
tp16
bS'K\xffFxMo<A'
p17
tp18
Rp19
ag10
(g14
S'\xbb\xbb\xbb+\xceo<A'
p20
tp21
Rp22
ag10
(g14
S'j\x82\x07c/p<A'
p23
tp24
Rp25
ag10
(g14
S'\\;\xdf\x0f\xc2o<A'
p26
tp27
Rp28
ag10
(g14
S'\xda\xc1<\xc1\xd2p<A'
p29
tp30
Rp31
ag10
(g14
S'Y\xd4\xbf\x91\xdeo<A'
p32
tp33
Rp34
ag10
(g14
S'9\x89A\x90\xebo<A'
p35
tp36
Rp37
ag10
(g14
S'\x16 \xf7:\xaao<A'
p38
tp39
Rp40
ag10
(g14
S'\x92A`5\xfdn<A'
p41
tp42
Rp43
ag10
(g14
S'8^\xbayNp<A'
p44
tp45
Rp46
ag10
(g14
S'\xb4\xb9\x90t\x9ao<A'
p47
tp48
Rp49
ag10
(g14
S'\x9c\x8c\xde\xd6\x01o<A'
p50
tp51
Rp52
ag10
(g14
S'\xeeo\x84bso<A'
p53
tp54
Rp55
ag10
(g14
S'\x8cl\xe7\xdb^p<A'
p56
tp57
Rp58
ag10
(g14
S'R\x0e-\xc2ip<A'
p59
tp60
Rp61
ag10
(g14
S' \xf7\x9a{\x10o<A'
p62
tp63
Rp64
ag10
(g14
S'\x00\xf1\x19F\x1dp<A'
p65
tp66
Rp67
ag10
(g14
S'\xed\xc3g\xd8mq<A'
p68
tp69
Rp70
ag10
(g14
S'DS*\x0e\xd1p<A'
p71
tp72
Rp73
ag10
(g14
S'\x90\x97nb|n<A'
p74
tp75
Rp76
asS'target'
p77
(lp78
g10
(g14
S'gfff\xe6\xce\xc2@'
p79
tp80
Rp81
ag10
(g14
S'>333\xf3\xeb\xc2@'
p82
tp83
Rp84
ag10
(g14
S'\x04\x00\x00\x00\x80%\xc4@'
p85
tp86
Rp87
ag10
(g14
S'kfff&\x13\xc3@'
p88
tp89
Rp90
ag10
(g14
S'4333\xf3[\xc2@'
p91
tp92
Rp93
ag10
(g14
S'9333\xf3?\xc3@'
p94
tp95
Rp96
ag10
(g14
S'\x07\x00\x00\x00\xc03\xc3@'
p97
tp98
Rp99
ag10
(g14
S'5333SD\xc2@'
p100
tp101
Rp102
ag10
(g14
S'53333\xf0\xc3@'
p103
tp104
Rp105
ag10
(g14
S'\xcc\xcc\xcc\xcc\xcc|\xc2@'
p106
tp107
Rp108
ag10
(g14
S'hffff@\xc3@'
p109
tp110
Rp111
ag10
(g14
S'\xa2\x99\x99\x99\x19<\xc3@'
p112
tp113
Rp114
ag10
(g14
S'nfffF\x88\xc2@'
p115
tp116
Rp117
ag10
(g14
S'rfffff\xc3@'
p118
tp119
Rp120
ag10
(g14
S'mfff&\xad\xc3@'
p121
tp122
Rp123
ag10
(g14
S'8333\x93\x96\xc3@'
p124
tp125
Rp126
ag10
(g14
S'\x03\x00\x00\x00\xa0\xae\xc2@'
p127
tp128
Rp129
ag10
(g14
S'4333\xb3O\xc4@'
p130
tp131
Rp132
ag10
(g14
S'ifff&:\xc3@'
p133
tp134
Rp135
ag10
(g14
S'\x03\x00\x00\x00\x00\xab\xc4@'
p136
tp137
Rp138
asssss.