(dp0
S'../Data/sqlite_59.csv'
p1
(dp2
S'../Data/sqlite_90.csv'
p3
(dp4
F0.25
(dp5
S'mmre'
p6
(dp7
S'bellwether'
p8
(lp9
cnumpy.core.multiarray
scalar
p10
(cnumpy
dtype
p11
(S'f8'
p12
I0
I1
tp13
Rp14
(I3
S'<'
p15
NNNI-1
I-1
I0
tp16
bS'\xf0C\x19\xdf2\x19T@'
p17
tp18
Rp19
ag10
(g14
S'\xb4\xa6\xec\x0f\xe6\x1aT@'
p20
tp21
Rp22
ag10
(g14
S'M\xafr/+$T@'
p23
tp24
Rp25
ag10
(g14
S'\xb58\x8fLX3T@'
p26
tp27
Rp28
ag10
(g14
S'\xd7bZ\xf5\xc8%T@'
p29
tp30
Rp31
ag10
(g14
S'%,\xb7\x06\xec.T@'
p32
tp33
Rp34
ag10
(g14
S'WTv^\x00\x16T@'
p35
tp36
Rp37
ag10
(g14
S"=\x0b\x0es\xd1'T@"
p38
tp39
Rp40
ag10
(g14
S'\xb0\n\xca\x06U!T@'
p41
tp42
Rp43
ag10
(g14
S'N\x84Q\xf4?\x18T@'
p44
tp45
Rp46
ag10
(g14
S'a2\x188|\x11T@'
p47
tp48
Rp49
ag10
(g14
S'\xeeeFW\r3T@'
p50
tp51
Rp52
ag10
(g14
S'\xed\x81P\xf0^,T@'
p53
tp54
Rp55
ag10
(g14
S'g\xaf\x8d{\xc0\x15T@'
p56
tp57
Rp58
ag10
(g14
S'\xe3su\xfc\x0e\x1bT@'
p59
tp60
Rp61
ag10
(g14
S'\x02Y\x9d\xd3l\x1eT@'
p62
tp63
Rp64
ag10
(g14
S'\xd8v\x82\xdfq\x17T@'
p65
tp66
Rp67
ag10
(g14
S'\xae\xc0\xa9\x1ai!T@'
p68
tp69
Rp70
ag10
(g14
S'z@M\r\xdf\x10T@'
p71
tp72
Rp73
ag10
(g14
S'\xd5\x96\xbb)v2T@'
p74
tp75
Rp76
asS'target'
p77
(lp78
g10
(g14
S'\xb9\xe2\xe1:\xea\x91@@'
p79
tp80
Rp81
ag10
(g14
S'f\x17\r\x996\xe6@@'
p82
tp83
Rp84
ag10
(g14
S'\x00\x11\xa8\xddE\x97A@'
p85
tp86
Rp87
ag10
(g14
S'\x82v\x8d\xadc\x0c@@'
p88
tp89
Rp90
ag10
(g14
S'\xf5\x82\x1e\x19I\xa8@@'
p91
tp92
Rp93
ag10
(g14
S'P\x86#@\xcaB@@'
p94
tp95
Rp96
ag10
(g14
S'sclt\x9cgB@'
p97
tp98
Rp99
ag10
(g14
S':\x83}\x92\xce\x80@@'
p100
tp101
Rp102
ag10
(g14
S'\xd04 kn\xdfB@'
p103
tp104
Rp105
ag10
(g14
S'\xf5\xe7\xba\xf3ytA@'
p106
tp107
Rp108
ag10
(g14
S'9\x98W!]LC@'
p109
tp110
Rp111
ag10
(g14
S'b\x80\xcb$\xd2\x85A@'
p112
tp113
Rp114
ag10
(g14
S'\xf6\xa7\rM\xd6\xe5A@'
p115
tp116
Rp117
ag10
(g14
S'\xd3\x11H\x9e\x14\x1eB@'
p118
tp119
Rp120
ag10
(g14
S'\x88x\xe1}\xcdw@@'
p121
tp122
Rp123
ag10
(g14
S'X"j*aH@@'
p124
tp125
Rp126
ag10
(g14
S'\x1fb!\xc6\x14\xf0@@'
p127
tp128
Rp129
ag10
(g14
S'h\xf7\xb5\xe4\xb1\x0bA@'
p130
tp131
Rp132
ag10
(g14
S'\x0b\xc1\x15\xd4\xc6\xa0B@'
p133
tp134
Rp135
ag10
(g14
S'\xa6a\x97)\x14g@@'
p136
tp137
Rp138
asssss.