(dp0
S'../Data/sqlite_31.csv'
p1
(dp2
S'../Data/sqlite_62.csv'
p3
(dp4
F0.1
(dp5
S'mmre'
p6
(dp7
S'bellwether'
p8
(lp9
cnumpy.core.multiarray
scalar
p10
(cnumpy
dtype
p11
(S'f8'
p12
I0
I1
tp13
Rp14
(I3
S'<'
p15
NNNI-1
I-1
I0
tp16
bS'qMv5\x96EN@'
p17
tp18
Rp19
ag10
(g14
S'\x1c\xb2\x97\x8a\\DN@'
p20
tp21
Rp22
ag10
(g14
S'+P\x90YH<N@'
p23
tp24
Rp25
ag10
(g14
S'\x11\x04\xe5\x84\x9eHN@'
p26
tp27
Rp28
ag10
(g14
S'Y1v\x8c#>N@'
p29
tp30
Rp31
ag10
(g14
S'\xc2\xc3\xe2n\xefKN@'
p32
tp33
Rp34
ag10
(g14
S'\xa4agi\x80;N@'
p35
tp36
Rp37
ag10
(g14
S'_B\xb4\x0b\xfdDN@'
p38
tp39
Rp40
ag10
(g14
S'\xecx\x07\x8c\xb8BN@'
p41
tp42
Rp43
ag10
(g14
S'h\x91\xef0\x8fIN@'
p44
tp45
Rp46
ag10
(g14
S'\x17I\xf2\x8a\xf8@N@'
p47
tp48
Rp49
ag10
(g14
S'\xb7\xa7//\x9e@N@'
p50
tp51
Rp52
ag10
(g14
S'Epu7b;N@'
p53
tp54
Rp55
ag10
(g14
S'\x13]`\xb8\xaf<N@'
p56
tp57
Rp58
ag10
(g14
S'\n9\x00\xb1YLN@'
p59
tp60
Rp61
ag10
(g14
S'\xf7\x0b\xce\ncKN@'
p62
tp63
Rp64
ag10
(g14
S'\x08\x10\xd3~\x83BN@'
p65
tp66
Rp67
ag10
(g14
S'Y\xc8\x1b\xfb\xbd?N@'
p68
tp69
Rp70
ag10
(g14
S'_?\r\xf9GAN@'
p71
tp72
Rp73
ag10
(g14
S'"~r\x88eGN@'
p74
tp75
Rp76
asS'target'
p77
(lp78
g10
(g14
S'\xa2\x9c/O\xd6h @'
p79
tp80
Rp81
ag10
(g14
S'[\xe4\xd76\x97w!@'
p82
tp83
Rp84
ag10
(g14
S"\x94't\x924\xe1!@"
p85
tp86
Rp87
ag10
(g14
S'\x89\xda\x19\x05\xae "@'
p88
tp89
Rp90
ag10
(g14
S'\xa4x\xc2D\x81\xc1"@'
p91
tp92
Rp93
ag10
(g14
S'G\x7f\xd2x=\xb4!@'
p94
tp95
Rp96
ag10
(g14
S'\xc9\x8d\xfa\x9b\xb4\x9e"@'
p97
tp98
Rp99
ag10
(g14
S'T\x95\x0eE^v!@'
p100
tp101
Rp102
ag10
(g14
S'\x13\xa2\xd3\xc0\xbco!@'
p103
tp104
Rp105
ag10
(g14
S'\xfavn\x8c\x86\xa8"@'
p106
tp107
Rp108
ag10
(g14
S'\xd9\x8f\x8f\xf8/2"@'
p109
tp110
Rp111
ag10
(g14
S'\x8f\x82\xcb\t\xeaD!@'
p112
tp113
Rp114
ag10
(g14
S'\xf7,\x17ejl#@'
p115
tp116
Rp117
ag10
(g14
S'\x1a\x13\x95\x9dH\xa4"@'
p118
tp119
Rp120
ag10
(g14
S'\x9c\xb6\xa5\xad6w @'
p121
tp122
Rp123
ag10
(g14
S'q{L\x94\xf8\xb6 @'
p124
tp125
Rp126
ag10
(g14
S'\x80\x13}\xcb\xaee @'
p127
tp128
Rp129
ag10
(g14
S'\nOq\xd88# @'
p130
tp131
Rp132
ag10
(g14
S'\xc4\x1c&\xbf\xd2\xeb"@'
p133
tp134
Rp135
ag10
(g14
S'\x1e\x8a8/=\xce @'
p136
tp137
Rp138
asssss.