(dp0
S'../Data/sqlite_15.csv'
p1
(dp2
S'../Data/sqlite_64.csv'
p3
(dp4
F0.1
(dp5
S'abs_res'
p6
(dp7
S'bellwether'
p8
(lp9
cnumpy.core.multiarray
scalar
p10
(cnumpy
dtype
p11
(S'f8'
p12
I0
I1
tp13
Rp14
(I3
S'<'
p15
NNNI-1
I-1
I0
tp16
bS"Y\xc7\x04\xff' AA"
p17
tp18
Rp19
ag10
(g14
S'\xe3&1Xf AA'
p20
tp21
Rp22
ag10
(g14
S'f\x91\xed\x9c\xc5\x1fAA'
p23
tp24
Rp25
ag10
(g14
S'$\x06\x81\x85\xcf\x1fAA'
p26
tp27
Rp28
ag10
(g14
S'\x93\xc2\xf5x\x15 AA'
p29
tp30
Rp31
ag10
(g14
S'\xe7Q\xb8^\x9a AA'
p32
tp33
Rp34
ag10
(g14
S'1\x08\xac\xdc\x96 AA'
p35
tp36
Rp37
ag10
(g14
S'\xfe\x80\x95\x03\xde\x1fAA'
p38
tp39
Rp40
ag10
(g14
S'4^\xba\xd9\x82 AA'
p41
tp42
Rp43
ag10
(g14
S'"iJ\xc5\xa5\x1fAA'
p44
tp45
Rp46
ag10
(g14
S'S*\xcen\xd2\x1fAA'
p47
tp48
Rp49
ag10
(g14
S'?\x8blW\x81 AA'
p50
tp51
Rp52
ag10
(g14
S'-\xdb\xf9N\x81 AA'
p53
tp54
Rp55
ag10
(g14
S'\xd2Mb\xd0\xc1\x1fAA'
p56
tp57
Rp58
ag10
(g14
S'p\xcbZ\xfdm AA'
p59
tp60
Rp61
ag10
(g14
S'\xd6Mb\xa0\x1a AA'
p62
tp63
Rp64
ag10
(g14
S'\x0c\x90{\x1dt AA'
p65
tp66
Rp67
ag10
(g14
S'\x08\xe4^\xf3. AA'
p68
tp69
Rp70
ag10
(g14
S'iJ\xc5\xe9\xf2\x1fAA'
p71
tp72
Rp73
ag10
(g14
S'u\xbe\x9f\x8a\xe4 AA'
p74
tp75
Rp76
asS'target'
p77
(lp78
g10
(g14
S'\x19\x04V\x0e-hz@'
p79
tp80
Rp81
ag10
(g14
S'&\x87\x16\xd9\xcec|@'
p82
tp83
Rp84
ag10
(g14
S'M\xe1z\x14\xae\xd5w@'
p85
tp86
Rp87
ag10
(g14
S'r\x93\x18\x04VDx@'
p88
tp89
Rp90
ag10
(g14
S'\xd3\xf9~j\xbc6{@'
p91
tp92
Rp93
ag10
(g14
S'a\x91\xed|?,|@'
p94
tp95
Rp96
ag10
(g14
S'\x17\xdb\xf9~j\x12y@'
p97
tp98
Rp99
ag10
(g14
S'\xa5\x1a/\xdd$f}@'
p100
tp101
Rp102
ag10
(g14
S'\xa4\xef\xa7\xc6K\x8bz@'
p103
tp104
Rp105
ag10
(g14
S'C7\x89A`\xf5}@'
p106
tp107
Rp108
ag10
(g14
S'B7\x89A`\x90z@'
p109
tp110
Rp111
ag10
(g14
S'\xccx\xe9&1\x90y@'
p112
tp113
Rp114
ag10
(g14
S'\x14\xaeG\xe1z*{@'
p115
tp116
Rp117
ag10
(g14
S'\x81\xe9&1\x08xv@'
p118
tp119
Rp120
ag10
(g14
S'\xc8K7\x89A\x04{@'
p121
tp122
Rp123
ag10
(g14
S'\x12\xb0rh\x91\x83y@'
p124
tp125
Rp126
ag10
(g14
S'\xc4v\xbe\x9f\x1ao{@'
p127
tp128
Rp129
ag10
(g14
S'\xf5\xa7\xc6K7ky@'
p130
tp131
Rp132
ag10
(g14
S'Y\x8f\xc2\xf5(Pz@'
p133
tp134
Rp135
ag10
(g14
S'.\xdd$\x06\x81Gy@'
p136
tp137
Rp138
asssss.