(dp0
S'../Data/sqlite_57.csv'
p1
(dp2
S'../Data/sqlite_58.csv'
p3
(dp4
F0.4
(dp5
S'abs_res'
p6
(dp7
S'bellwether'
p8
(lp9
cnumpy.core.multiarray
scalar
p10
(cnumpy
dtype
p11
(S'f8'
p12
I0
I1
tp13
Rp14
(I3
S'<'
p15
NNNI-1
I-1
I0
tp16
bS'\xff~j\xe4\xa0saA'
p17
tp18
Rp19
ag10
(g14
S'C5^f\x95uaA'
p20
tp21
Rp22
ag10
(g14
S'\x1a\x04V\xceBvaA'
p23
tp24
Rp25
ag10
(g14
S'\xdc\xa3p\xe9\x96vaA'
p26
tp27
Rp28
ag10
(g14
S'm\xbct\x9f\xd6waA'
p29
tp30
Rp31
ag10
(g14
S')\xdb\xf9\x1ef|aA'
p32
tp33
Rp34
ag10
(g14
S'\xf9S\xe3\xc1\x1dtaA'
p35
tp36
Rp37
ag10
(g14
S'\xacE\xb6\xdf\xdd\x7faA'
p38
tp39
Rp40
ag10
(g14
S'=\x89AP\xedtaA'
p41
tp42
Rp43
ag10
(g14
S'\x16\xaeG\xd5lxaA'
p44
tp45
Rp46
ag10
(g14
S'o=\n\xf7tuaA'
p47
tp48
Rp49
ag10
(g14
S'\x7fj\xbc\x80\\qaA'
p50
tp51
Rp52
ag10
(g14
S'\x16\xd9\xce\xbb\x94|aA'
p53
tp54
Rp55
ag10
(g14
S'\xac\x1cZL\xdb~aA'
p56
tp57
Rp58
ag10
(g14
S'\xa3\xc4 \x14\\paA'
p59
tp60
Rp61
ag10
(g14
S'\xbe\x1e\x85\x1bdlaA'
p62
tp63
Rp64
ag10
(g14
S'D`\xe5@@maA'
p65
tp66
Rp67
ag10
(g14
S'\xb6\xf3\xfdD?{aA'
p68
tp69
Rp70
ag10
(g14
S'\xf9S\xe3\x11coaA'
p71
tp72
Rp73
ag10
(g14
S'\xd0x\xe9\xba\xf3\x81aA'
p74
tp75
Rp76
asS'target'
p77
(lp78
g10
(g14
S'u\x14\xaeG\xe1\x82Q@'
p79
tp80
Rp81
ag10
(g14
S'\x05\x81\x95C\x8b8P@'
p82
tp83
Rp84
ag10
(g14
S'\xcd\xcc\xcc\xcc\xcc\x84P@'
p85
tp86
Rp87
ag10
(g14
S'\xc7Mb\x10X\x99O@'
p88
tp89
Rp90
ag10
(g14
S'Lb\x10X9\x80P@'
p91
tp92
Rp93
ag10
(g14
S'o=\n\xd7\xa3\x80O@'
p94
tp95
Rp96
ag10
(g14
S'\xf8(\\\x8f\xc2\xb1P@'
p97
tp98
Rp99
ag10
(g14
S'\xfa\xa9\xf1\xd2MFP@'
p100
tp101
Rp102
ag10
(g14
S'\xb2rh\x91\xedTP@'
p103
tp104
Rp105
ag10
(g14
S'\xaa\xc6K7\x89iP@'
p106
tp107
Rp108
ag10
(g14
S'\xa4p=\n\xd7\x9bP@'
p109
tp110
Rp111
ag10
(g14
S'\xa1p=\n\xd7/Q@'
p112
tp113
Rp114
ag10
(g14
S'Vd;\xdfO\x81P@'
p115
tp116
Rp117
ag10
(g14
S'R9\xb4\xc8v~P@'
p118
tp119
Rp120
ag10
(g14
S'\xd2x\xe9&1\xa4P@'
p121
tp122
Rp123
ag10
(g14
S'X9\xb4\xc8v2P@'
p124
tp125
Rp126
ag10
(g14
S'\x8f\xed|?5JP@'
p127
tp128
Rp129
ag10
(g14
S'p\x93\x18\x04VJP@'
p130
tp131
Rp132
ag10
(g14
S'\xb4\x9d\xef\xa7\xc6\x7fP@'
p133
tp134
Rp135
ag10
(g14
S'\xfb\xa9\xf1\xd2M\x0eP@'
p136
tp137
Rp138
asssss.