(dp0
S'../Data/sqlite_77.csv'
p1
(dp2
S'../Data/sqlite_95.csv'
p3
(dp4
F0.35
(dp5
S'mmre'
p6
(dp7
S'bellwether'
p8
(lp9
cnumpy.core.multiarray
scalar
p10
(cnumpy
dtype
p11
(S'f8'
p12
I0
I1
tp13
Rp14
(I3
S'<'
p15
NNNI-1
I-1
I0
tp16
bS'\xc56L=\xc1HX@'
p17
tp18
Rp19
ag10
(g14
S't\xd4v\xfa\xd4IX@'
p20
tp21
Rp22
ag10
(g14
S'/\x924>SJX@'
p23
tp24
Rp25
ag10
(g14
S'\x98\xcd\xb4\x98\xb6JX@'
p26
tp27
Rp28
ag10
(g14
S'\x08:\xcf\x96\xddEX@'
p29
tp30
Rp31
ag10
(g14
S'\x1b>\x16\xd4\x8bHX@'
p32
tp33
Rp34
ag10
(g14
S'r\x14\xbbO*GX@'
p35
tp36
Rp37
ag10
(g14
S'8V\x1e1\xe0DX@'
p38
tp39
Rp40
ag10
(g14
S'4\xf1\xb12rHX@'
p41
tp42
Rp43
ag10
(g14
S'\xba+y\x81ZGX@'
p44
tp45
Rp46
ag10
(g14
S'WT\xc2\x01\xa0KX@'
p47
tp48
Rp49
ag10
(g14
S'\x91/m\xc2\x9fIX@'
p50
tp51
Rp52
ag10
(g14
S'\xe8\xcc\xbak\xa7HX@'
p53
tp54
Rp55
ag10
(g14
S'=\xfe\x1c\xc1\xe0IX@'
p56
tp57
Rp58
ag10
(g14
S'\xbf\x04\x00V\x91GX@'
p59
tp60
Rp61
ag10
(g14
S'\xaa\x0c\xcb\xa13FX@'
p62
tp63
Rp64
ag10
(g14
S'\xce\x081[\xffHX@'
p65
tp66
Rp67
ag10
(g14
S'K\xf3\xee\xf9=FX@'
p68
tp69
Rp70
ag10
(g14
S'\xb7=\xda\xbc\x05IX@'
p71
tp72
Rp73
ag10
(g14
S'-\xfd\xe3q5IX@'
p74
tp75
Rp76
asS'target'
p77
(lp78
g10
(g14
S'\x90%>\xa3!\xd2@@'
p79
tp80
Rp81
ag10
(g14
S'\x95\xe2*\x9d\xf3iB@'
p82
tp83
Rp84
ag10
(g14
S'\x10\xdd\xca\x19\xba\xbe@@'
p85
tp86
Rp87
ag10
(g14
S'\xbb\xdd\x9b)\xe6\x9dA@'
p88
tp89
Rp90
ag10
(g14
S'\xf6\x98\x07\x1d`\x9aB@'
p91
tp92
Rp93
ag10
(g14
S'\x1e6\xb7\x9d\xdb\x1c@@'
p94
tp95
Rp96
ag10
(g14
S'B\xda \xf7\x0b\xc6A@'
p97
tp98
Rp99
ag10
(g14
S'\xb2g\r!2\xe2D@'
p100
tp101
Rp102
ag10
(g14
S'TSE\x02\xc5\xb9B@'
p103
tp104
Rp105
ag10
(g14
S'\xd7}O\x01\xfa.F@'
p106
tp107
Rp108
ag10
(g14
S'\xb6B.\x99k\xc7A@'
p109
tp110
Rp111
ag10
(g14
S'\x0cgH>\x1epB@'
p112
tp113
Rp114
ag10
(g14
S'\x08\xaec\x0e\x9e\xd6A@'
p115
tp116
Rp117
ag10
(g14
S'\xd2<\xc8@\xbe\x1cA@'
p118
tp119
Rp120
ag10
(g14
S'oM\n}\x88\x15E@'
p121
tp122
Rp123
ag10
(g14
S'\xa7\xdae\x95\xc3\xd5C@'
p124
tp125
Rp126
ag10
(g14
S'nv{\xfe,=?@'
p127
tp128
Rp129
ag10
(g14
S'\xa0\xfd:6\xd2eD@'
p130
tp131
Rp132
ag10
(g14
S"6\x98,'\x0b\x07B@"
p133
tp134
Rp135
ag10
(g14
S'U\x83\xa2\xb9\x9biC@'
p136
tp137
Rp138
asssss.