(dp0
S'../Data/sqlite_23.csv'
p1
(dp2
S'../Data/sqlite_89.csv'
p3
(dp4
F0.05
(dp5
S'mmre'
p6
(dp7
S'bellwether'
p8
(lp9
cnumpy.core.multiarray
scalar
p10
(cnumpy
dtype
p11
(S'f8'
p12
I0
I1
tp13
Rp14
(I3
S'<'
p15
NNNI-1
I-1
I0
tp16
bS'uo\xd3\x11\xd3cV@'
p17
tp18
Rp19
ag10
(g14
S'\x87\x92.\x81\xceaV@'
p20
tp21
Rp22
ag10
(g14
S'y\xf9\x9e\xf1FdV@'
p23
tp24
Rp25
ag10
(g14
S'"Mi\x99\xb3dV@'
p26
tp27
Rp28
ag10
(g14
S'\xbc\\[\xaeDbV@'
p29
tp30
Rp31
ag10
(g14
S'\xb6a(W\xa5dV@'
p32
tp33
Rp34
ag10
(g14
S'\r\x8e\xac\xcc>cV@'
p35
tp36
Rp37
ag10
(g14
S'2/Y\x9d)hV@'
p38
tp39
Rp40
ag10
(g14
S'\xa8-\xc6\xdeAeV@'
p41
tp42
Rp43
ag10
(g14
S'b\xc4\x95\x87\x16fV@'
p44
tp45
Rp46
ag10
(g14
S'\xde\x99\x01\xc0\xfebV@'
p47
tp48
Rp49
ag10
(g14
S'\xbb\x11>\x0c\x9ceV@'
p50
tp51
Rp52
ag10
(g14
S'M\x91\xa4\xde\x91eV@'
p53
tp54
Rp55
ag10
(g14
S'\xb8mp=\x8fcV@'
p56
tp57
Rp58
ag10
(g14
S'%rn\xd4zcV@'
p59
tp60
Rp61
ag10
(g14
S'O\x0cu\xb25dV@'
p62
tp63
Rp64
ag10
(g14
S'\x9b\x1cO\xbdedV@'
p65
tp66
Rp67
ag10
(g14
S'{\x0b\xfb@6bV@'
p68
tp69
Rp70
ag10
(g14
S'\xa8D\xe3oZaV@'
p71
tp72
Rp73
ag10
(g14
S'\xe9V\xa1]\xdfdV@'
p74
tp75
Rp76
asS'target'
p77
(lp78
g10
(g14
S' 2\x0e\xec``P@'
p79
tp80
Rp81
ag10
(g14
S'\xe0\xfd`\r\x96\x0bR@'
p82
tp83
Rp84
ag10
(g14
S'\xf0R\x17o,\xceJ@'
p85
tp86
Rp87
ag10
(g14
S'\x08\xf1\xac_h\xf9F@'
p88
tp89
Rp90
ag10
(g14
S'\xfdHgvX\xdaN@'
p91
tp92
Rp93
ag10
(g14
S'q\x8d\x9a\x18\xc6\x14X@'
p94
tp95
Rp96
ag10
(g14
S'\xd2\x02\x02\xb0\xe6\x02S@'
p97
tp98
Rp99
ag10
(g14
S'\xd6V\xf2{k\xdfE@'
p100
tp101
Rp102
ag10
(g14
S'aY&\x01\x94\xe8J@'
p103
tp104
Rp105
ag10
(g14
S'f)\xe6\x9d\xbe\xdd^@'
p106
tp107
Rp108
ag10
(g14
S'G,$\x96\xd0\xe5U@'
p109
tp110
Rp111
ag10
(g14
S'\xf1\xe0\xbfwr\xa3G@'
p112
tp113
Rp114
ag10
(g14
S'\xa8\x18\xe0\x93\x18UD@'
p115
tp116
Rp117
ag10
(g14
S'\x7f\x8a\xe8d1\xc2I@'
p118
tp119
Rp120
ag10
(g14
S'\x98\xe0\xd2DnHP@'
p121
tp122
Rp123
ag10
(g14
S'Q$\xd9#\xc8SX@'
p124
tp125
Rp126
ag10
(g14
S'_\x1e\x80\xf3.\xd7P@'
p127
tp128
Rp129
ag10
(g14
S'f\xfb\xb7\xd5\x11sT@'
p130
tp131
Rp132
ag10
(g14
S'\xa2\xc5\x11\xb3\xfe9W@'
p133
tp134
Rp135
ag10
(g14
S'\xd8\xdfv\xe0\xd2\x95D@'
p136
tp137
Rp138
asssss.