(dp0
S'../Data/sqlite_66.csv'
p1
(dp2
S'../Data/sqlite_33.csv'
p3
(dp4
F0.05
(dp5
S'abs_res'
p6
(dp7
S'bellwether'
p8
(lp9
cnumpy.core.multiarray
scalar
p10
(cnumpy
dtype
p11
(S'f8'
p12
I0
I1
tp13
Rp14
(I3
S'<'
p15
NNNI-1
I-1
I0
tp16
bS'\xa1E\xb6\xf3d2$A'
p17
tp18
Rp19
ag10
(g14
S'\x0b-\xb2\x1d\xcd1$A'
p20
tp21
Rp22
ag10
(g14
S'\x88\xebQ\xf8R2$A'
p23
tp24
Rp25
ag10
(g14
S'G\xc5\xd9G\xc02$A'
p26
tp27
Rp28
ag10
(g14
S'\xa4p=\x8ay2$A'
p29
tp30
Rp31
ag10
(g14
S'\xcc"\xdb9\xeb1$A'
p32
tp33
Rp34
ag10
(g14
S'&\x06\x81\xd5\xe71$A'
p35
tp36
Rp37
ag10
(g14
S'0\x89A\xa0\x932$A'
p38
tp39
Rp40
ag10
(g14
S'033sB2$A'
p41
tp42
Rp43
ag10
(g14
S'\xba\x1e\x85+M2$A'
p44
tp45
Rp46
ag10
(g14
S'\x05\xd7\xa3\xb052$A'
p47
tp48
Rp49
ag10
(g14
S'W\xbaI\x8c\x9b2$A'
p50
tp51
Rp52
ag10
(g14
S'\xde\xf9~\xeaJ2$A'
p53
tp54
Rp55
ag10
(g14
S'E\xb6\xf3\xfdh2$A'
p56
tp57
Rp58
ag10
(g14
S'\xcc\xb0+\x80m2$A'
p59
tp60
Rp61
ag10
(g14
S'\xa4p=\xca\xef1$A'
p62
tp63
Rp64
ag10
(g14
S'\x00\xd5xi\xfb2$A'
p65
tp66
Rp67
ag10
(g14
S'\x91\xa6T\xdc\xc42$A'
p68
tp69
Rp70
ag10
(g14
S'\x97C\x8b,l2$A'
p71
tp72
Rp73
ag10
(g14
S'z\xe9&q\xae1$A'
p74
tp75
Rp76
asS'target'
p77
(lp78
g10
(g14
S'1\\\x8f\xc2\xf58O@'
p79
tp80
Rp81
ag10
(g14
S'=\xb4\xc8v\xbe\xffP@'
p82
tp83
Rp84
ag10
(g14
S'\xd3\xf7S\xe3\xa5\x93R@'
p85
tp86
Rp87
ag10
(g14
S'V9\xb4\xc8v\x9eN@'
p88
tp89
Rp90
ag10
(g14
S'\x83\xed|?5NL@'
p91
tp92
Rp93
ag10
(g14
S'\x88l\xe7\xfb\xa9\x19P@'
p94
tp95
Rp96
ag10
(g14
S'/\xe1z\x14\xae\xb7N@'
p97
tp98
Rp99
ag10
(g14
S'`\x8f\xc2\xf5(LT@'
p100
tp101
Rp102
ag10
(g14
S'\xd2Mb\x10X\xe1T@'
p103
tp104
Rp105
ag10
(g14
S'\xbc\x9f\x1a/\xdd\xd4L@'
p106
tp107
Rp108
ag10
(g14
S'\xca\x9d\xef\xa7\xc6\x83T@'
p109
tp110
Rp111
ag10
(g14
S'\xaa\x1cZd;\xafW@'
p112
tp113
Rp114
ag10
(g14
S"/\x87\x16\xd9\xce'N@"
p115
tp116
Rp117
ag10
(g14
S'h\xe9&1\x08\xfcO@'
p118
tp119
Rp120
ag10
(g14
S'\xb2\xc4 \xb0r\x98L@'
p121
tp122
Rp123
ag10
(g14
S'I\x8bl\xe7\xfb1R@'
p124
tp125
Rp126
ag10
(g14
S'hffffVQ@'
p127
tp128
Rp129
ag10
(g14
S'Z9\xb4\xc8v\xb6P@'
p130
tp131
Rp132
ag10
(g14
S'1\xb2\x9d\xef\xa7^R@'
p133
tp134
Rp135
ag10
(g14
S'\x19X9\xb4\xc8\x0eQ@'
p136
tp137
Rp138
asssss.