(dp0
S'../Data/sqlite_52.csv'
p1
(dp2
S'../Data/sqlite_85.csv'
p3
(dp4
F0.1
(dp5
S'abs_res'
p6
(dp7
S'bellwether'
p8
(lp9
cnumpy.core.multiarray
scalar
p10
(cnumpy
dtype
p11
(S'f8'
p12
I0
I1
tp13
Rp14
(I3
S'<'
p15
NNNI-1
I-1
I0
tp16
bS'#\\\x8f\x1a\xd5ZWA'
p17
tp18
Rp19
ag10
(g14
S'\xb6\x1e\x85[\x88RWA'
p20
tp21
Rp22
ag10
(g14
S'A\xe1z\xd4\x042WA'
p23
tp24
Rp25
ag10
(g14
S'\xaeG\xe1\xc2\x1cgWA'
p26
tp27
Rp28
ag10
(g14
S'i=\n\xcf\xbeOWA'
p29
tp30
Rp31
ag10
(g14
S'\xee(\\\x1f\xbbVWA'
p32
tp33
Rp34
ag10
(g14
S'`ff\xc6\xe7fWA'
p35
tp36
Rp37
ag10
(g14
S',\x85\xeb\xe9\tNWA'
p38
tp39
Rp40
ag10
(g14
S'\x98\x99\x99\xb9|gWA'
p41
tp42
Rp43
ag10
(g14
S'gff\x9e\x81ZWA'
p44
tp45
Rp46
ag10
(g14
S"\xabG\xe1\xda6'WA"
p47
tp48
Rp49
ag10
(g14
S'\xb2G\xe1\x1a\xd7dWA'
p50
tp51
Rp52
ag10
(g14
S'&\x85\xebQ\x83GWA'
p53
tp54
Rp55
ag10
(g14
S'\xe2z\x14\xf6\xc5BWA'
p56
tp57
Rp58
ag10
(g14
S'\xb9\x1e\x85\xb3l7WA'
p59
tp60
Rp61
ag10
(g14
S'0\\\x8f:.tWA'
p62
tp63
Rp64
ag10
(g14
S'u\x14\xae\x87\x05UWA'
p65
tp66
Rp67
ag10
(g14
S'\xf1Q\xb86\xfbeWA'
p68
tp69
Rp70
ag10
(g14
S'\xe0z\x14\xced$WA'
p71
tp72
Rp73
ag10
(g14
S'Z\xb8\x1e=_MWA'
p74
tp75
Rp76
asS'target'
p77
(lp78
g10
(g14
S'\xeaQ\xb8\x1e|\xd7BA'
p79
tp80
Rp81
ag10
(g14
S'"\x85\xebQ\xf0\x8cBA'
p82
tp83
Rp84
ag10
(g14
S'\x92\xc2\xf5\xe8\x84+DA'
p85
tp86
Rp87
ag10
(g14
S'\x93\xc2\xf5\xa8 bBA'
p88
tp89
Rp90
ag10
(g14
S'mffFY\x1aBA'
p91
tp92
Rp93
ag10
(g14
S'\x12\xaeGA\x18>CA'
p94
tp95
Rp96
ag10
(g14
S'\xfa(\\\x8f\xcc\x89DA'
p97
tp98
Rp99
ag10
(g14
S'933\x93HQCA'
p100
tp101
Rp102
ag10
(g14
S'\xe5z\x14\x0eQhBA'
p103
tp104
Rp105
ag10
(g14
S'\xb6\x1e\x85\x0b\xe0\xbaCA'
p106
tp107
Rp108
ag10
(g14
S's=\n\xd7F\x1dFA'
p109
tp110
Rp111
ag10
(g14
S'p=\n7\x16@DA'
p112
tp113
Rp114
ag10
(g14
S'\x15\xaeG\xc1\x7f\xadBA'
p115
tp116
Rp117
ag10
(g14
S'S\xb8\x1ee\xdfaAA'
p118
tp119
Rp120
ag10
(g14
S'S\xb8\x1e\xc57\x15CA'
p121
tp122
Rp123
ag10
(g14
S'gffF5$CA'
p124
tp125
Rp126
ag10
(g14
S'\x05\x00\x00`LMEA'
p127
tp128
Rp129
ag10
(g14
S'X\xb8\x1e\xc5\x00\xbfCA'
p130
tp131
Rp132
ag10
(g14
S'(\\\x8f"SWCA'
p133
tp134
Rp135
ag10
(g14
S'\x9fp=j\xa0\xa2CA'
p136
tp137
Rp138
asssss.