(dp0
S'../Data/sqlite_35.csv'
p1
(dp2
S'../Data/sqlite_63.csv'
p3
(dp4
F0.25
(dp5
S'mmre'
p6
(dp7
S'bellwether'
p8
(lp9
cnumpy.core.multiarray
scalar
p10
(cnumpy
dtype
p11
(S'f8'
p12
I0
I1
tp13
Rp14
(I3
S'<'
p15
NNNI-1
I-1
I0
tp16
bS'|\xf4h<>4K@'
p17
tp18
Rp19
ag10
(g14
S'$\xcf\x01\xe7\xda%K@'
p20
tp21
Rp22
ag10
(g14
S'p\xd8%\x17\x0e\x1bK@'
p23
tp24
Rp25
ag10
(g14
S'T\xd9\x0fO\x87&K@'
p26
tp27
Rp28
ag10
(g14
S'\xd0\xce=\x04\xfb,K@'
p29
tp30
Rp31
ag10
(g14
S'c\x99a\x14e#K@'
p32
tp33
Rp34
ag10
(g14
S'\xcf\x8e\xd7!?(K@'
p35
tp36
Rp37
ag10
(g14
S'\x95\x1a\t\xe4\x856K@'
p38
tp39
Rp40
ag10
(g14
S'\xd6\xd4\xd2T\xbf*K@'
p41
tp42
Rp43
ag10
(g14
S"\xad#\xb2\x02\xd3'K@"
p44
tp45
Rp46
ag10
(g14
S'\xa95\t\x86\x00,K@'
p47
tp48
Rp49
ag10
(g14
S'\xc0i\x86\r-8K@'
p50
tp51
Rp52
ag10
(g14
S'\x91\xd7\x8dsp(K@'
p53
tp54
Rp55
ag10
(g14
S"-5\x9b' !K@"
p56
tp57
Rp58
ag10
(g14
S'.%\xdb`\x1b2K@'
p59
tp60
Rp61
ag10
(g14
S'\xcf\xfdq\xf2\xbb\x1eK@'
p62
tp63
Rp64
ag10
(g14
S')?Y\x11\xe2&K@'
p65
tp66
Rp67
ag10
(g14
S'\xde\xde\x9d\xbbR9K@'
p68
tp69
Rp70
ag10
(g14
S'!;)2\xcd$K@'
p71
tp72
Rp73
ag10
(g14
S'\xce\xdf\xe4<.!K@'
p74
tp75
Rp76
asS'target'
p77
(lp78
g10
(g14
S'\xed]:\x8e \xc8!@'
p79
tp80
Rp81
ag10
(g14
S'\x97:\x17\xbdm\xcb!@'
p82
tp83
Rp84
ag10
(g14
S'\xc7\xf2\xbc\x84\x1c,"@'
p85
tp86
Rp87
ag10
(g14
S'\x02\xc4\xf8\xba\x84\x8f"@'
p88
tp89
Rp90
ag10
(g14
S'"(\x08gs+#@'
p91
tp92
Rp93
ag10
(g14
S'K\xf7?\xe0\x02+"@'
p94
tp95
Rp96
ag10
(g14
S'.$)\x0f\x10\xcf!@'
p97
tp98
Rp99
ag10
(g14
S'\xe7\x83\xd6>\x8eR#@'
p100
tp101
Rp102
ag10
(g14
S'\xefQt\x97\xc8\xd5"@'
p103
tp104
Rp105
ag10
(g14
S'\xd5"\xecGTB#@'
p106
tp107
Rp108
ag10
(g14
S'|T\x1c\xd4\x17\xc7"@'
p109
tp110
Rp111
ag10
(g14
S'\x14sl\x1f\x88\\ @'
p112
tp113
Rp114
ag10
(g14
S'o\xaa]\x91(\xcc"@'
p115
tp116
Rp117
ag10
(g14
S'o!\x05\x1a\xc0\xec"@'
p118
tp119
Rp120
ag10
(g14
S'\x8b?\xe6\x02\xbc8#@'
p121
tp122
Rp123
ag10
(g14
S'@_\x16g \x04#@'
p124
tp125
Rp126
ag10
(g14
S'\ry\xe3U\xb0%"@'
p127
tp128
Rp129
ag10
(g14
S'\x8azG\xa6\xfe\x82!@'
p130
tp131
Rp132
ag10
(g14
S'*\xc5\x8e`\x9fz"@'
p133
tp134
Rp135
ag10
(g14
S'\\\x1fm\xc3q\xd0!@'
p136
tp137
Rp138
asssss.