(dp0
S'../Data/sqlite_66.csv'
p1
(dp2
S'../Data/sqlite_37.csv'
p3
(dp4
F0.2
(dp5
S'abs_res'
p6
(dp7
S'bellwether'
p8
(lp9
cnumpy.core.multiarray
scalar
p10
(cnumpy
dtype
p11
(S'f8'
p12
I0
I1
tp13
Rp14
(I3
S'<'
p15
NNNI-1
I-1
I0
tp16
bS'\x13\xd9\xce7\xe86!A'
p17
tp18
Rp19
ag10
(g14
S'\xf5S\xe3\xa5)7!A'
p20
tp21
Rp22
ag10
(g14
S'\x9cRq\xf6\n7!A'
p23
tp24
Rp25
ag10
(g14
S'\x94\xfcb\xc9:7!A'
p26
tp27
Rp28
ag10
(g14
S'\xba\x9f\x1aoJ7!A'
p29
tp30
Rp31
ag10
(g14
S'=\n\xd7c\xff6!A'
p32
tp33
Rp34
ag10
(g14
S'\x8eA`\xe5\xa87!A'
p35
tp36
Rp37
ag10
(g14
S'0O\xd4\xbf\x0e7!A'
p38
tp39
Rp40
ag10
(g14
S'\xc1\x83yb\x917!A'
p41
tp42
Rp43
ag10
(g14
S'\x04\xac\x1cZ\xdb7!A'
p44
tp45
Rp46
ag10
(g14
S'\xcb\x04\x0ff17!A'
p47
tp48
Rp49
ag10
(g14
S'\xe8\xd0"[\xd47!A'
p50
tp51
Rp52
ag10
(g14
S'<\x89A\xa0N7!A'
p53
tp54
Rp55
ag10
(g14
S'\xd6\x87\xcfp\x9c7!A'
p56
tp57
Rp58
ag10
(g14
S'\r\xe6\x89z\xe27!A'
p59
tp60
Rp61
ag10
(g14
S'\xe7\xd0"\x1bU7!A'
p62
tp63
Rp64
ag10
(g14
S'\xba\x9f\x1a/G7!A'
p65
tp66
Rp67
ag10
(g14
S'2^\xba\x89\x196!A'
p68
tp69
Rp70
ag10
(g14
S'\xe9|?\xf5k6!A'
p71
tp72
Rp73
ag10
(g14
S'i\xbctSe6!A'
p74
tp75
Rp76
asS'target'
p77
(lp78
g10
(g14
S'\xdd\xce\xf7S\xe3mP@'
p79
tp80
Rp81
ag10
(g14
S'_\xbaI\x0c\x02KO@'
p82
tp83
Rp84
ag10
(g14
S'\x0c\xac\x1cZdKP@'
p85
tp86
Rp87
ag10
(g14
S'\xfb~j\xbct\x13P@'
p88
tp89
Rp90
ag10
(g14
S'\xc7\xca\xa1E\xb6cP@'
p91
tp92
Rp93
ag10
(g14
S'\xd1\xce\xf7S\xe3\xbdN@'
p94
tp95
Rp96
ag10
(g14
S'\xcd"\xdb\xf9~JO@'
p97
tp98
Rp99
ag10
(g14
S'\xfe\xd4x\xe9&AO@'
p100
tp101
Rp102
ag10
(g14
S'>`\xe5\xd0"{O@'
p103
tp104
Rp105
ag10
(g14
S'\x89\xc2\xf5(\\/O@'
p106
tp107
Rp108
ag10
(g14
S'\xb2rh\x91\xed\xa4N@'
p109
tp110
Rp111
ag10
(g14
S'M\x8bl\xe7\xfb\xb9N@'
p112
tp113
Rp114
ag10
(g14
S'\x95\xed|?5NP@'
p115
tp116
Rp117
ag10
(g14
S'g\xbct\x93\x18,P@'
p118
tp119
Rp120
ag10
(g14
S'M\x8d\x97n\x12[O@'
p121
tp122
Rp123
ag10
(g14
S'\xd2x\xe9&1\xf8M@'
p124
tp125
Rp126
ag10
(g14
S'\x17\x83\xc0\xca\xa1UP@'
p127
tp128
Rp129
ag10
(g14
S'\xe0\xa5\x9b\xc4 PO@'
p130
tp131
Rp132
ag10
(g14
S'+1\x08\xac\x1c\x12P@'
p133
tp134
Rp135
ag10
(g14
S'+\x06\x81\x95C\x1bO@'
p136
tp137
Rp138
asssss.