(dp0
S'../Data/sqlite_68.csv'
p1
(dp2
S'../Data/sqlite_95.csv'
p3
(dp4
F0.25
(dp5
S'mmre'
p6
(dp7
S'bellwether'
p8
(lp9
cnumpy.core.multiarray
scalar
p10
(cnumpy
dtype
p11
(S'f8'
p12
I0
I1
tp13
Rp14
(I3
S'<'
p15
NNNI-1
I-1
I0
tp16
bS'\xaet=]#7W@'
p17
tp18
Rp19
ag10
(g14
S'\xd74\xe2\xc7\x088W@'
p20
tp21
Rp22
ag10
(g14
S'I\xd6\x0e\x80\xda4W@'
p23
tp24
Rp25
ag10
(g14
S'\\cL\x12t6W@'
p26
tp27
Rp28
ag10
(g14
S"\xa8'2\x15i5W@"
p29
tp30
Rp31
ag10
(g14
S'A\x8c\x01xE2W@'
p32
tp33
Rp34
ag10
(g14
S'\x80X\x9d\x1a69W@'
p35
tp36
Rp37
ag10
(g14
S'\x13yN\xd9\xf84W@'
p38
tp39
Rp40
ag10
(g14
S')\x80\xa8\xeb7;W@'
p41
tp42
Rp43
ag10
(g14
S'\xa0y\x7f\xd6\xdc7W@'
p44
tp45
Rp46
ag10
(g14
S'\xe5\xea\xdc\x84\xb02W@'
p47
tp48
Rp49
ag10
(g14
S' WOMs1W@'
p50
tp51
Rp52
ag10
(g14
S'\xa2z\xcdW\xc04W@'
p53
tp54
Rp55
ag10
(g14
S'!\x82MJ\n3W@'
p56
tp57
Rp58
ag10
(g14
S'Pv\x1e\xd8\x991W@'
p59
tp60
Rp61
ag10
(g14
S'6\xc1M\t`8W@'
p62
tp63
Rp64
ag10
(g14
S'\x99L\xa1\xbb?2W@'
p65
tp66
Rp67
ag10
(g14
S'b\xae\xde:G8W@'
p68
tp69
Rp70
ag10
(g14
S'h\xec\xea\x9a\xc46W@'
p71
tp72
Rp73
ag10
(g14
S'\x84\x82\xc4G\x951W@'
p74
tp75
Rp76
asS'target'
p77
(lp78
g10
(g14
S":'J\x8f\xcc\xe1B@"
p79
tp80
Rp81
ag10
(g14
S't\xed\x026g\x96B@'
p82
tp83
Rp84
ag10
(g14
S'\x0f3\xf0I\xf9JA@'
p85
tp86
Rp87
ag10
(g14
S'\xa8\xdelQ K?@'
p88
tp89
Rp90
ag10
(g14
S'e\x97\x92\xde\r%A@'
p91
tp92
Rp93
ag10
(g14
S'hP]\xe4fsB@'
p94
tp95
Rp96
ag10
(g14
S'H\xbf\xd6\xa2\x82`B@'
p97
tp98
Rp99
ag10
(g14
S'\x02Y\x1e\x12\xaeM=@'
p100
tp101
Rp102
ag10
(g14
S'\x04\xc1\x8c\x7f2\x92F@'
p103
tp104
Rp105
ag10
(g14
S'\xd2\xf2\xb7\xdf.\x8bD@'
p106
tp107
Rp108
ag10
(g14
S'\x99\xe3X\x97$\xcc@@'
p109
tp110
Rp111
ag10
(g14
S'\xe4%\x18\r\x14\xc0C@'
p112
tp113
Rp114
ag10
(g14
S'\xc3~f\xd0\xa4H=@'
p115
tp116
Rp117
ag10
(g14
S'\x9c\x7f\x02\xc1\xf5*B@'
p118
tp119
Rp120
ag10
(g14
S'\x8a\x06k\x1fs.B@'
p121
tp122
Rp123
ag10
(g14
S'\xb8\xf2,\xda\xca\xc8A@'
p124
tp125
Rp126
ag10
(g14
S'\xcbr\xf6\x9e\x0e1D@'
p127
tp128
Rp129
ag10
(g14
S'!E\x04\x9c\x94\xb8A@'
p130
tp131
Rp132
ag10
(g14
S'\xd5\xe8\xa6@\xe3/B@'
p133
tp134
Rp135
ag10
(g14
S'h\xcb\xc3=\xa5\x97@@'
p136
tp137
Rp138
asssss.