(dp0
S'../Data/sqlite_57.csv'
p1
(dp2
S'../Data/sqlite_83.csv'
p3
(dp4
F0.2
(dp5
S'abs_res'
p6
(dp7
S'bellwether'
p8
(lp9
cnumpy.core.multiarray
scalar
p10
(cnumpy
dtype
p11
(S'f8'
p12
I0
I1
tp13
Rp14
(I3
S'<'
p15
NNNI-1
I-1
I0
tp16
bS'u\xe9&9N&gA'
p17
tp18
Rp19
ag10
(g14
S'\xc4\xa1E\ny<gA'
p20
tp21
Rp22
ag10
(g14
S'?\x8bl\x03(,gA'
p23
tp24
Rp25
ag10
(g14
S'433\xf7V0gA'
p26
tp27
Rp28
ag10
(g14
S'(\x87\x16\xd9\x9f-gA'
p29
tp30
Rp31
ag10
(g14
S'\x0c\xd7\xa3\xd4\xca%gA'
p32
tp33
Rp34
ag10
(g14
S'vh\x91}\xc4*gA'
p35
tp36
Rp37
ag10
(g14
S'533kg,gA'
p38
tp39
Rp40
ag10
(g14
S'V\x0e-\xea\xfd/gA'
p41
tp42
Rp43
ag10
(g14
S'\xd5\xf9~\x8aI1gA'
p44
tp45
Rp46
ag10
(g14
S';\xdfO\x8d\xd5<gA'
p47
tp48
Rp49
ag10
(g14
S'P\x0c\x02{\xfa+gA'
p50
tp51
Rp52
ag10
(g14
S'\x0b-\xb2\xc5\x92,gA'
p53
tp54
Rp55
ag10
(g14
S'\xf1|?E_1gA'
p56
tp57
Rp58
ag10
(g14
S'x\xe9&i"/gA'
p59
tp60
Rp61
ag10
(g14
S'\x8e\xc2\xf5\x04m0gA'
p62
tp63
Rp64
ag10
(g14
S'\xa8\x1a/%\r-gA'
p65
tp66
Rp67
ag10
(g14
S'g\xbaI\xc4G8gA'
p68
tp69
Rp70
ag10
(g14
S'\x02\xac\x1c\xaa\x19.gA'
p71
tp72
Rp73
ag10
(g14
S'<\x89A\xcc\xd91gA'
p74
tp75
Rp76
asS'target'
p77
(lp78
g10
(g14
S'\xf0|?5^\x8ex@'
p79
tp80
Rp81
ag10
(g14
S'c\x91\xed|?0\x80@'
p82
tp83
Rp84
ag10
(g14
S'\x87?5^\xba\xd3w@'
p85
tp86
Rp87
ag10
(g14
S'\xa1n\x12\x83\xc0y\x86@'
p88
tp89
Rp90
ag10
(g14
S'\xe2\xf9~j\xbc<y@'
p91
tp92
Rp93
ag10
(g14
S'\x9c\xf1\xd2MbT}@'
p94
tp95
Rp96
ag10
(g14
S'\xa1\xef\xa7\xc6K\xfc\x8a@'
p97
tp98
Rp99
ag10
(g14
S'&\xb0rh\x91Uz@'
p100
tp101
Rp102
ag10
(g14
S'<\xb4\xc8v\xbe\xc4y@'
p103
tp104
Rp105
ag10
(g14
S'/\xdd$\x06\x81\xed\x7f@'
p106
tp107
Rp108
ag10
(g14
S'\xfb~j\xbct#z@'
p109
tp110
Rp111
ag10
(g14
S'I\x8d\x97n\x12\xfd}@'
p112
tp113
Rp114
ag10
(g14
S'\xddx\xe9&1X|@'
p115
tp116
Rp117
ag10
(g14
S'\xa0\xc4 \xb0r\xb7\x80@'
p118
tp119
Rp120
ag10
(g14
S'\xe2\xa3p=\n\xd3v@'
p121
tp122
Rp123
ag10
(g14
S'\xd0"\xdb\xf9~\xe1\x84@'
p124
tp125
Rp126
ag10
(g14
S'\x8aA`\xe5P\x13\x86@'
p127
tp128
Rp129
ag10
(g14
S'\xac\x9b\xc4 \xb0\xc5\x85@'
p130
tp131
Rp132
ag10
(g14
S'\x00\x02+\x87\x16\xf7\x83@'
p133
tp134
Rp135
ag10
(g14
S'"\x85\xebQ\xb8\xe8\x81@'
p136
tp137
Rp138
asssss.