(dp0
S'../Data/sqlite_35.csv'
p1
(dp2
S'../Data/sqlite_59.csv'
p3
(dp4
F0.1
(dp5
S'mmre'
p6
(dp7
S'bellwether'
p8
(lp9
cnumpy.core.multiarray
scalar
p10
(cnumpy
dtype
p11
(S'f8'
p12
I0
I1
tp13
Rp14
(I3
S'<'
p15
NNNI-1
I-1
I0
tp16
bS'\xca\xff\xf8\xcc\xcc_G@'
p17
tp18
Rp19
ag10
(g14
S'\x1b\xd19a\xfefG@'
p20
tp21
Rp22
ag10
(g14
S'\xb9P\x91_\x94cG@'
p23
tp24
Rp25
ag10
(g14
S'\xd4\xe7!y\xf1\\G@'
p26
tp27
Rp28
ag10
(g14
S'\x1ewG\x93\xc2]G@'
p29
tp30
Rp31
ag10
(g14
S'\x0f\xa6\x8b\xd0\x13hG@'
p32
tp33
Rp34
ag10
(g14
S'\xffWUV\xd5GG@'
p35
tp36
Rp37
ag10
(g14
S'\xc9/\xf1\x00_LG@'
p38
tp39
Rp40
ag10
(g14
S'\xb5\x91\xe0\x98\tdG@'
p41
tp42
Rp43
ag10
(g14
S'i$\xc6*o_G@'
p44
tp45
Rp46
ag10
(g14
S'y\x17\xcb\x8as\\G@'
p47
tp48
Rp49
ag10
(g14
S'\xbd\xa9\xe4\x91\xc1iG@'
p50
tp51
Rp52
ag10
(g14
S'$M\xc9\x986RG@'
p53
tp54
Rp55
ag10
(g14
S'U\x97\xe9\xcf\x92NG@'
p56
tp57
Rp58
ag10
(g14
S'\x8a\x9f\xc3\x9c\x96aG@'
p59
tp60
Rp61
ag10
(g14
S'\x1e:K\x9b\x08RG@'
p62
tp63
Rp64
ag10
(g14
S'\x7fY9UTfG@'
p65
tp66
Rp67
ag10
(g14
S'\x06\x9ct\xf2\xe7[G@'
p68
tp69
Rp70
ag10
(g14
S'n8M\xf0ccG@'
p71
tp72
Rp73
ag10
(g14
S'\x016\xa1=adG@'
p74
tp75
Rp76
asS'target'
p77
(lp78
g10
(g14
S'q\xa3\x8b\xc99\xdd%@'
p79
tp80
Rp81
ag10
(g14
S'x\x9bR\x1e\xad9(@'
p82
tp83
Rp84
ag10
(g14
S"\x9ahq\xa0N\x1b'@"
p85
tp86
Rp87
ag10
(g14
S'\x0c\x85u7^P&@'
p88
tp89
Rp90
ag10
(g14
S":\x14\xfd\xf7\x12\xd0'@"
p91
tp92
Rp93
ag10
(g14
S'\x90I\x92uB\xf9"@'
p94
tp95
Rp96
ag10
(g14
S'\xda\x9bEJ/|)@'
p97
tp98
Rp99
ag10
(g14
S"\xccq\xa5\xed\n4'@"
p100
tp101
Rp102
ag10
(g14
S'\x82\xbb\xb7_\xedY%@'
p103
tp104
Rp105
ag10
(g14
S'\xed\xd7\xf3\xb2&&&@'
p106
tp107
Rp108
ag10
(g14
S')Q\x15j\xd4\xb4$@'
p109
tp110
Rp111
ag10
(g14
S'@\x9b&\xf8V<#@'
p112
tp113
Rp114
ag10
(g14
S"\x8f\xa1s?x\x9a'@"
p115
tp116
Rp117
ag10
(g14
S'\xb2\xf7\x130\xb3^,@'
p118
tp119
Rp120
ag10
(g14
S'\xd0\xacC\x18\x84\x82$@'
p121
tp122
Rp123
ag10
(g14
S'~\xe0m\xd0\xefd,@'
p124
tp125
Rp126
ag10
(g14
S'6n\xc0\x92\xd1\xbe"@'
p127
tp128
Rp129
ag10
(g14
S'\xa2\xe3\xe4X\x08\xd2$@'
p130
tp131
Rp132
ag10
(g14
S"\xf2\xb5\xdb\xc11I'@"
p133
tp134
Rp135
ag10
(g14
S'\x12\xd9\x19\xf7\x95>%@'
p136
tp137
Rp138
asssss.