(dp0
S'../Data/sqlite_92.csv'
p1
(dp2
S'../Data/sqlite_88.csv'
p3
(dp4
F0.05
(dp5
S'abs_res'
p6
(dp7
S'bellwether'
p8
(lp9
cnumpy.core.multiarray
scalar
p10
(cnumpy
dtype
p11
(S'f8'
p12
I0
I1
tp13
Rp14
(I3
S'<'
p15
NNNI-1
I-1
I0
tp16
bS'P\x8d\x97L0\x1aeA'
p17
tp18
Rp19
ag10
(g14
S'\x88l\xe75\x1b+eA'
p20
tp21
Rp22
ag10
(g14
S'\xeaQ\xb8B\xf7$eA'
p23
tp24
Rp25
ag10
(g14
S'\xe2\xf9~(\xd3\x1aeA'
p26
tp27
Rp28
ag10
(g14
S'\xe2\xce\xf7\xad\x93\x14eA'
p29
tp30
Rp31
ag10
(g14
S'*33_\xdd\x16eA'
p32
tp33
Rp34
ag10
(g14
S'c\xbaI\x98\x97\x14eA'
p35
tp36
Rp37
ag10
(g14
S'*\xdb\xf9v\x17+eA'
p38
tp39
Rp40
ag10
(g14
S'\xf9(\\9\\\x1beA'
p41
tp42
Rp43
ag10
(g14
S"'\xb0r\xce\xb6+eA"
p44
tp45
Rp46
ag10
(g14
S'\x9d\x18\x04\x00\xb8&eA'
p47
tp48
Rp49
ag10
(g14
S'\xd4\xf7SE\xf5$eA'
p50
tp51
Rp52
ag10
(g14
S'6\x08\xacl\x90 eA'
p53
tp54
Rp55
ag10
(g14
S' Zd\x1f\t\reA'
p56
tp57
Rp58
ag10
(g14
S'\xaa\xc6K\xaf( eA'
p59
tp60
Rp61
ag10
(g14
S'\xf7Q\xb8~!\x1beA'
p62
tp63
Rp64
ag10
(g14
S'\xb0\xc8v\xf6\x19\x1ceA'
p65
tp66
Rp67
ag10
(g14
S'G\n\xd7M\x0f\x06eA'
p68
tp69
Rp70
ag10
(g14
S'\x02+\x87\x92%\x1beA'
p71
tp72
Rp73
ag10
(g14
S'\xec\xfb\xa9cR\x1aeA'
p74
tp75
Rp76
asS'target'
p77
(lp78
g10
(g14
S'&\\\x8fB\xde{/A'
p79
tp80
Rp81
ag10
(g14
S'\xd5\xa3p\xbd\x1d]CA'
p82
tp83
Rp84
ag10
(g14
S'/33\xb3\xc5:8A'
p85
tp86
Rp87
ag10
(g14
S'k=\n\x17\xbe\x142A'
p88
tp89
Rp90
ag10
(g14
S'S\xe1z\xd41\xa3>A'
p91
tp92
Rp93
ag10
(g14
S'\x8a\x14\xae\x87\xecc>A'
p94
tp95
Rp96
ag10
(g14
S'\xaeG\xe1:\xf9\x995A'
p97
tp98
Rp99
ag10
(g14
S'\xb9\x1e\x85\xab\xa0\x17=A'
p100
tp101
Rp102
ag10
(g14
S'\x88\xebQ8a\xc7+A'
p103
tp104
Rp105
ag10
(g14
S'C\xe1z4`MAA'
p106
tp107
Rp108
ag10
(g14
S't=\nw\xbcLAA'
p109
tp110
Rp111
ag10
(g14
S'\x8b\xc2\xf5(Y\xdd2A'
p112
tp113
Rp114
ag10
(g14
S'.33sj\xc8=A'
p115
tp116
Rp117
ag10
(g14
S'\xe0z\x14n\x87\xab6A'
p118
tp119
Rp120
ag10
(g14
S'\x81\xebQ\xb8\xfb\x1c7A'
p121
tp122
Rp123
ag10
(g14
S'\x8a\xebQx\x12\x914A'
p124
tp125
Rp126
ag10
(g14
S'\xe8z\x14\xee\x18K=A'
p127
tp128
Rp129
ag10
(g14
S'v=\nw*\xdd@A'
p130
tp131
Rp132
ag10
(g14
S'\n\xd7\xa3\xb0\xcaa1A'
p133
tp134
Rp135
ag10
(g14
S'\xe9Q\xb8\x9e2A/A'
p136
tp137
Rp138
asssss.