(dp0
S'../Data/sqlite_25.csv'
p1
(dp2
S'../Data/sqlite_88.csv'
p3
(dp4
F0.05
(dp5
S'abs_res'
p6
(dp7
S'bellwether'
p8
(lp9
cnumpy.core.multiarray
scalar
p10
(cnumpy
dtype
p11
(S'f8'
p12
I0
I1
tp13
Rp14
(I3
S'<'
p15
NNNI-1
I-1
I0
tp16
bS'\xbc\xf5(t\x92KdA'
p17
tp18
Rp19
ag10
(g14
S'gff.NVdA'
p20
tp21
Rp22
ag10
(g14
S'\x18\xaeG\xa9cadA'
p23
tp24
Rp25
ag10
(g14
S'_ffR\xb0\\dA'
p26
tp27
Rp28
ag10
(g14
S'-33;\x11JdA'
p29
tp30
Rp31
ag10
(g14
S'+33\x8b[adA'
p32
tp33
Rp34
ag10
(g14
S'\x03\xd7\xa3<\xf6VdA'
p35
tp36
Rp37
ag10
(g14
S'?\n\xd7\x1b\xbe@dA'
p38
tp39
Rp40
ag10
(g14
S'\x89\xebQ8\x7fLdA'
p41
tp42
Rp43
ag10
(g14
S'\xe2z\x14f\x04]dA'
p44
tp45
Rp46
ag10
(g14
S'*\\\x8f\xd6\xba^dA'
p47
tp48
Rp49
ag10
(g14
S'\xc9i\x03\xb1wYdA'
p50
tp51
Rp52
ag10
(g14
S'T\xb8\x1e\xcd\x03]dA'
p53
tp54
Rp55
ag10
(g14
S'\xd2\xa3p\x8d\x07adA'
p56
tp57
Rp58
ag10
(g14
S'\x82\xebQ\xc0\xf3[dA'
p59
tp60
Rp61
ag10
(g14
S'\n\xaeG\x8d6`dA'
p62
tp63
Rp64
ag10
(g14
S':\n\xd7\xf7\xa4LdA'
p65
tp66
Rp67
ag10
(g14
S'fff.YadA'
p68
tp69
Rp70
ag10
(g14
S'\xb3\x1e\x85/\xbdRdA'
p71
tp72
Rp73
ag10
(g14
S'\xd9z\x14~2WdA'
p74
tp75
Rp76
asS'target'
p77
(lp78
g10
(g14
S'\xc4\xf5(\xdc\xfb4#A'
p79
tp80
Rp81
ag10
(g14
S'9\n\xd7\xa3Pb/A'
p82
tp83
Rp84
ag10
(g14
S'\xb1G\xe1ZHEAA'
p85
tp86
Rp87
ag10
(g14
S'\xc2\xf5(\\\xcfr=A'
p88
tp89
Rp90
ag10
(g14
S'\xc2\xf5(\xdc\xafF#A'
p91
tp92
Rp93
ag10
(g14
S'_=\n\x97\xc5\xa6>A'
p94
tp95
Rp96
ag10
(g14
S"'\\\x8fB~S.A"
p97
tp98
Rp99
ag10
(g14
S'\xe1z\x14\xee\x0bA;A'
p100
tp101
Rp102
ag10
(g14
S'G\n\xd7c|r<A'
p103
tp104
Rp105
ag10
(g14
S'_ff\xa6\xbb\x8c6A'
p106
tp107
Rp108
ag10
(g14
S'\x06\x00\x00\x808)BA'
p109
tp110
Rp111
ag10
(g14
S'\x85\x14\xae\x87\x87\x149A'
p112
tp113
Rp114
ag10
(g14
S'\xd8\xa3p\xbd\x8a\xc66A'
p115
tp116
Rp117
ag10
(g14
S'\xb5\x1e\x85\xab\x9b(4A'
p118
tp119
Rp120
ag10
(g14
S'\xabG\xe1:\x96/7A'
p121
tp122
Rp123
ag10
(g14
S'&\\\x8f\xc2\x10\xaa-A'
p124
tp125
Rp126
ag10
(g14
S'J\xe1z\xb4\x0b\x18BA'
p127
tp128
Rp129
ag10
(g14
S'\x93\x99\x99\xd9\xd4\xa09A'
p130
tp131
Rp132
ag10
(g14
S'\xc2\xf5(\xdci\xff*A'
p133
tp134
Rp135
ag10
(g14
S'\xb0G\xe1:<\x841A'
p136
tp137
Rp138
asssss.