(dp0
S'../Data/sqlite_39.csv'
p1
(dp2
S'../Data/sqlite_76.csv'
p3
(dp4
F0.1
(dp5
S'mmre'
p6
(dp7
S'bellwether'
p8
(lp9
cnumpy.core.multiarray
scalar
p10
(cnumpy
dtype
p11
(S'f8'
p12
I0
I1
tp13
Rp14
(I3
S'<'
p15
NNNI-1
I-1
I0
tp16
bS'\xcbU\xdd\xc7\xb6ro@'
p17
tp18
Rp19
ag10
(g14
S'\xa1QYy\xa8Oo@'
p20
tp21
Rp22
ag10
(g14
S'\x03\xdbv\xe7Ano@'
p23
tp24
Rp25
ag10
(g14
S'K\xec\xca\\-ko@'
p26
tp27
Rp28
ag10
(g14
S'Hk\x15\xe9\x8b\x87o@'
p29
tp30
Rp31
ag10
(g14
S'7\x91\xda\xfa\x92Yo@'
p32
tp33
Rp34
ag10
(g14
S'N\xff\xe7X\xc4ao@'
p35
tp36
Rp37
ag10
(g14
S'}\xe0\x06\x93\xfbmo@'
p38
tp39
Rp40
ag10
(g14
S'X;\xafb\xa1]o@'
p41
tp42
Rp43
ag10
(g14
S'\xe6B\xa9A6]o@'
p44
tp45
Rp46
ag10
(g14
S'\xb8:\xd3\x15\xa4\xa4o@'
p47
tp48
Rp49
ag10
(g14
S'\x8b.\xcdd Po@'
p50
tp51
Rp52
ag10
(g14
S'HJ\xe6\x1dbho@'
p53
tp54
Rp55
ag10
(g14
S'\x9e\xda\x07<\x93\xa8o@'
p56
tp57
Rp58
ag10
(g14
S'"K\x9bS\x11no@'
p59
tp60
Rp61
ag10
(g14
S'\xb2\xe0$\xe2\xddWo@'
p62
tp63
Rp64
ag10
(g14
S'.,M\xc1]lo@'
p65
tp66
Rp67
ag10
(g14
S'\xb9_\xec\xcc\x91xo@'
p68
tp69
Rp70
ag10
(g14
S'x\x83\x85\x0eVko@'
p71
tp72
Rp73
ag10
(g14
S'vv(7Loo@'
p74
tp75
Rp76
asS'target'
p77
(lp78
g10
(g14
S'\x84\xf71\x96\xaf63@'
p79
tp80
Rp81
ag10
(g14
S'c\xa3\xa3q\x1e,0@'
p82
tp83
Rp84
ag10
(g14
S'\x01\x13>\x1a\x00\xde0@'
p85
tp86
Rp87
ag10
(g14
S'\xf3~m\x86b_0@'
p88
tp89
Rp90
ag10
(g14
S'\xab\x8b6\x143Y2@'
p91
tp92
Rp93
ag10
(g14
S'\x9d<o\xac(S0@'
p94
tp95
Rp96
ag10
(g14
S'r\xa6\xe3T\x0cG0@'
p97
tp98
Rp99
ag10
(g14
S'\xe7\xbdK)\xe6V0@'
p100
tp101
Rp102
ag10
(g14
S'\xca3\xb0/\xcc\xbd2@'
p103
tp104
Rp105
ag10
(g14
S'k\x13\xbf\xbb\xaa"2@'
p106
tp107
Rp108
ag10
(g14
S'\x85bf\xb2\xc4\xa72@'
p109
tp110
Rp111
ag10
(g14
S'\xeb\xf5\x04\x12\xab\xdc/@'
p112
tp113
Rp114
ag10
(g14
S'\x96y\x9eX\r\xf25@'
p115
tp116
Rp117
ag10
(g14
S'$\xce\xbb\x98\x84\xbb2@'
p118
tp119
Rp120
ag10
(g14
S'\x08w\xa08r\xbd1@'
p121
tp122
Rp123
ag10
(g14
S'\xe8&\xf9sY\xb11@'
p124
tp125
Rp126
ag10
(g14
S'\x0b \xe9/9\xda0@'
p127
tp128
Rp129
ag10
(g14
S'R.S\x13\xde\xab3@'
p130
tp131
Rp132
ag10
(g14
S'\xed\x9d\x0erQ\xcb1@'
p133
tp134
Rp135
ag10
(g14
S'@\xf9\xc9X\xe6}3@'
p136
tp137
Rp138
asssss.