(dp0
S'../Data/sqlite_78.csv'
p1
(dp2
S'../Data/sqlite_91.csv'
p3
(dp4
F0.25
(dp5
S'mmre'
p6
(dp7
S'bellwether'
p8
(lp9
cnumpy.core.multiarray
scalar
p10
(cnumpy
dtype
p11
(S'f8'
p12
I0
I1
tp13
Rp14
(I3
S'<'
p15
NNNI-1
I-1
I0
tp16
bS"\x0b'5\x15\xfctX@"
p17
tp18
Rp19
ag10
(g14
S'\xc5\x1bG\xd8\x81jX@'
p20
tp21
Rp22
ag10
(g14
S'l8\x05\xca\rrX@'
p23
tp24
Rp25
ag10
(g14
S'\xd4\x1e\xa1O\xfcoX@'
p26
tp27
Rp28
ag10
(g14
S'\t\x9e-\t\x9aqX@'
p29
tp30
Rp31
ag10
(g14
S'{3^)\x18iX@'
p32
tp33
Rp34
ag10
(g14
S'\xee\xf9\xd9\xf2RwX@'
p35
tp36
Rp37
ag10
(g14
S'0\xf2tZfkX@'
p38
tp39
Rp40
ag10
(g14
S'\x0b!\xd5\xd2\x96gX@'
p41
tp42
Rp43
ag10
(g14
S'\x0f\t\xe1\x81\xa6lX@'
p44
tp45
Rp46
ag10
(g14
S'\x04\x84\xd2\xc7\xa3jX@'
p47
tp48
Rp49
ag10
(g14
S'\xd2\xe7l)\xb2iX@'
p50
tp51
Rp52
ag10
(g14
S'9\x02%Q@nX@'
p53
tp54
Rp55
ag10
(g14
S'\xe2\x11\x93\xc9\xa1hX@'
p56
tp57
Rp58
ag10
(g14
S'X\xf1\xa0\xff\x03nX@'
p59
tp60
Rp61
ag10
(g14
S'\x9c\xdeH\x10^pX@'
p62
tp63
Rp64
ag10
(g14
S'0\xd6q\x89\x7ftX@'
p65
tp66
Rp67
ag10
(g14
S'*\xbd\x874\xefmX@'
p68
tp69
Rp70
ag10
(g14
S'\x8a\xc3\xb4\x13\x8dlX@'
p71
tp72
Rp73
ag10
(g14
S'\xbdY\xbf_CkX@'
p74
tp75
Rp76
asS'target'
p77
(lp78
g10
(g14
S'\x15\x95\x92p\x8baK@'
p79
tp80
Rp81
ag10
(g14
S'B1\xe7$;=Q@'
p82
tp83
Rp84
ag10
(g14
S'\xa0\xef\xa6/\x9d\x87P@'
p85
tp86
Rp87
ag10
(g14
S'\xcc\x87\xe6v\xaa\x12P@'
p88
tp89
Rp90
ag10
(g14
S"\x92#Q'\xd1\xdcI@"
p91
tp92
Rp93
ag10
(g14
S'\xda\xc6W\xef,CQ@'
p94
tp95
Rp96
ag10
(g14
S'\xf7I\x07J4\xc1M@'
p97
tp98
Rp99
ag10
(g14
S'M\x1c8\x0e\x1f\x02P@'
p100
tp101
Rp102
ag10
(g14
S'\xa1\xf3\x1c\x7fv\x0eP@'
p103
tp104
Rp105
ag10
(g14
S'\xf22Y\x11\xbf\\P@'
p106
tp107
Rp108
ag10
(g14
S'\'\xa2\xb98"\xdbP@'
p109
tp110
Rp111
ag10
(g14
S'/\\\x93\xcca\x02R@'
p112
tp113
Rp114
ag10
(g14
S'\xf4Jmu\x06cO@'
p115
tp116
Rp117
ag10
(g14
S'\xab\x8b8V\xef\xbdQ@'
p118
tp119
Rp120
ag10
(g14
S'\xfb8\xed\xa9\x85\\P@'
p121
tp122
Rp123
ag10
(g14
S'\xa7\xdb\xc5v$\x0bN@'
p124
tp125
Rp126
ag10
(g14
S'\x1a\x13F\xe3\xb3;M@'
p127
tp128
Rp129
ag10
(g14
S'\xe1w\xf5\x1e\x82^P@'
p130
tp131
Rp132
ag10
(g14
S'*)B2\xd9\x10P@'
p133
tp134
Rp135
ag10
(g14
S'\x0e$\xf5\xb0\xfbDQ@'
p136
tp137
Rp138
asssss.