(dp0
S'../Data/sqlite_22.csv'
p1
(dp2
S'../Data/sqlite_73.csv'
p3
(dp4
F0.2
(dp5
S'mmre'
p6
(dp7
S'bellwether'
p8
(lp9
cnumpy.core.multiarray
scalar
p10
(cnumpy
dtype
p11
(S'f8'
p12
I0
I1
tp13
Rp14
(I3
S'<'
p15
NNNI-1
I-1
I0
tp16
bS'\x80a\xe9\xb6\xb4GT@'
p17
tp18
Rp19
ag10
(g14
S'\x06z\xd6\xde%MT@'
p20
tp21
Rp22
ag10
(g14
S'\x967W\x1c\xb7HT@'
p23
tp24
Rp25
ag10
(g14
S'-^|\xbc\xdeET@'
p26
tp27
Rp28
ag10
(g14
S'gC\xa8\xfcmET@'
p29
tp30
Rp31
ag10
(g14
S'`\xd5r-\xf5HT@'
p32
tp33
Rp34
ag10
(g14
S'\xda\xf0\xf9\xf1VET@'
p35
tp36
Rp37
ag10
(g14
S'\xc9\xd6\xeaO\xc9ET@'
p38
tp39
Rp40
ag10
(g14
S'\xd1\xeb\xb2h\nIT@'
p41
tp42
Rp43
ag10
(g14
S'6\x8d\x84z\xe7ET@'
p44
tp45
Rp46
ag10
(g14
S'px\xa7\x9d\x18JT@'
p47
tp48
Rp49
ag10
(g14
S'\xea<@SGJT@'
p50
tp51
Rp52
ag10
(g14
S'\xc0\x82\xcf|\xe0DT@'
p53
tp54
Rp55
ag10
(g14
S'\x04\xc4*&\nDT@'
p56
tp57
Rp58
ag10
(g14
S'T\xc3\x16\xc7\x95IT@'
p59
tp60
Rp61
ag10
(g14
S'\xa7{%Z8JT@'
p62
tp63
Rp64
ag10
(g14
S'X\x0b\xa0yqHT@'
p65
tp66
Rp67
ag10
(g14
S'D\x86 7\xdeGT@'
p68
tp69
Rp70
ag10
(g14
S'\x1a\xe6\n26KT@'
p71
tp72
Rp73
ag10
(g14
S'\x19Uu\xa6WDT@'
p74
tp75
Rp76
asS'target'
p77
(lp78
g10
(g14
S'\xa51V\xc3R\xab+@'
p79
tp80
Rp81
ag10
(g14
S'/\x98\xfe\xd09\xb1+@'
p82
tp83
Rp84
ag10
(g14
S'\x0c\x18].\xf0\x94*@'
p85
tp86
Rp87
ag10
(g14
S'\xcb\x14\t\xf9y\x19+@'
p88
tp89
Rp90
ag10
(g14
S'\x08\x86\xae\x17V",@'
p91
tp92
Rp93
ag10
(g14
S't\x81hM\xf6\xf5)@'
p94
tp95
Rp96
ag10
(g14
S'1\xf4\xe4L\xf2\xb8/@'
p97
tp98
Rp99
ag10
(g14
S']MO\xdf\xa4\xd0+@'
p100
tp101
Rp102
ag10
(g14
S'\xe1\xbc&\x95~\xf6+@'
p103
tp104
Rp105
ag10
(g14
S'\x1a\xa7\x8a\xd0#\x8e+@'
p106
tp107
Rp108
ag10
(g14
S'\xa9\xb0"\xddO\xe4+@'
p109
tp110
Rp111
ag10
(g14
S'\xc5{\xd4%\xeb\xf1*@'
p112
tp113
Rp114
ag10
(g14
S'\xfb\xb8\xb2U\xe8\xec-@'
p115
tp116
Rp117
ag10
(g14
S'\xa5B\xa5\xec\x0cK+@'
p118
tp119
Rp120
ag10
(g14
S'\x93\x1aE\xde\xcbd*@'
p121
tp122
Rp123
ag10
(g14
S'~\xbd\xect\xd9\x83+@'
p124
tp125
Rp126
ag10
(g14
S'\x19\xcf\xcc\xf8\xf2\x06-@'
p127
tp128
Rp129
ag10
(g14
S'l\xb5\xe8\x14NU*@'
p130
tp131
Rp132
ag10
(g14
S'\xeaA^\xb8\xfc/+@'
p133
tp134
Rp135
ag10
(g14
S'\x89\x17e\x9c\x1d\xe0+@'
p136
tp137
Rp138
asssss.