(dp0
S'../Data/sqlite_3.csv'
p1
(dp2
S'../Data/sqlite_91.csv'
p3
(dp4
F0.05
(dp5
S'mmre'
p6
(dp7
S'bellwether'
p8
(lp9
cnumpy.core.multiarray
scalar
p10
(cnumpy
dtype
p11
(S'f8'
p12
I0
I1
tp13
Rp14
(I3
S'<'
p15
NNNI-1
I-1
I0
tp16
bS'\x00\x83Ku$(X@'
p17
tp18
Rp19
ag10
(g14
S'\x11\x94VAX$X@'
p20
tp21
Rp22
ag10
(g14
S'n\xcfA"\x18$X@'
p23
tp24
Rp25
ag10
(g14
S'\xa0Z\xad8R"X@'
p26
tp27
Rp28
ag10
(g14
S'\x96\xe5\xda\x08D"X@'
p29
tp30
Rp31
ag10
(g14
S'\xf9<\x08\x99"#X@'
p32
tp33
Rp34
ag10
(g14
S'n\xbcQ\xe4\x90#X@'
p35
tp36
Rp37
ag10
(g14
S'\x14\x1c\xf5\xde\x1d#X@'
p38
tp39
Rp40
ag10
(g14
S"To\t\xe7'(X@"
p41
tp42
Rp43
ag10
(g14
S'\xc4;&R\x12 X@'
p44
tp45
Rp46
ag10
(g14
S'\x85\x9c\xd8\xf4k&X@'
p47
tp48
Rp49
ag10
(g14
S"^X\xc9\xc4t'X@"
p50
tp51
Rp52
ag10
(g14
S'/P\n\xdb\xf1\x1fX@'
p53
tp54
Rp55
ag10
(g14
S'C\xb2\x7faA"X@'
p56
tp57
Rp58
ag10
(g14
S"gS\xf9V' X@"
p59
tp60
Rp61
ag10
(g14
S'3\x8d\xf8\xda\xf4\x1fX@'
p62
tp63
Rp64
ag10
(g14
S'#I#\xbe\x8e\x1fX@'
p65
tp66
Rp67
ag10
(g14
S'\xf9\x0f\xed\x16\x97 X@'
p68
tp69
Rp70
ag10
(g14
S'|5W\xa8\n$X@'
p71
tp72
Rp73
ag10
(g14
S'\x83\xf3A\x1e# X@'
p74
tp75
Rp76
asS'target'
p77
(lp78
g10
(g14
S'\nK\xb8\xfbn\xa1K@'
p79
tp80
Rp81
ag10
(g14
S'\x8a\xdd)\xce\xaa\xadN@'
p82
tp83
Rp84
ag10
(g14
S'\xac>p\x1d\xc7\x8fP@'
p85
tp86
Rp87
ag10
(g14
S'\x8dC"\x92\xa1LP@'
p88
tp89
Rp90
ag10
(g14
S'C\x8e,\x89\xf8\xe4N@'
p91
tp92
Rp93
ag10
(g14
S'`6\xef\xe0/\tM@'
p94
tp95
Rp96
ag10
(g14
S'\xb6LZQX\x8fM@'
p97
tp98
Rp99
ag10
(g14
S'lbI\x88\xed\xf0N@'
p100
tp101
Rp102
ag10
(g14
S'\x14,\x0c\xf4SuL@'
p103
tp104
Rp105
ag10
(g14
S'\r\x98g\x82T\xa0N@'
p106
tp107
Rp108
ag10
(g14
S'\x90_\xc5m{[P@'
p109
tp110
Rp111
ag10
(g14
S'\xb4\xa8\xdfD\xfa\xc3P@'
p112
tp113
Rp114
ag10
(g14
S'o\xf2\x8f\xd5\xef\xe7O@'
p115
tp116
Rp117
ag10
(g14
S'\x82d\x8f\xad\xec\x01Q@'
p118
tp119
Rp120
ag10
(g14
S')~\x9a\xa5T\xf7P@'
p121
tp122
Rp123
ag10
(g14
S'\xa4\x84|8\x8a<P@'
p124
tp125
Rp126
ag10
(g14
S'\x81^\x84\xbf\xf7\x19P@'
p127
tp128
Rp129
ag10
(g14
S'*\x00v\xcb\xcc\x08O@'
p130
tp131
Rp132
ag10
(g14
S'\xca\x07\x8eQ\xe8\x8dP@'
p133
tp134
Rp135
ag10
(g14
S';\xeb\x8c\xf2@\x01Q@'
p136
tp137
Rp138
asssss.