(dp0
S'../Data/sqlite_71.csv'
p1
(dp2
S'../Data/sqlite_51.csv'
p3
(dp4
F0.2
(dp5
S'abs_res'
p6
(dp7
S'bellwether'
p8
(lp9
cnumpy.core.multiarray
scalar
p10
(cnumpy
dtype
p11
(S'f8'
p12
I0
I1
tp13
Rp14
(I3
S'<'
p15
NNNI-1
I-1
I0
tp16
bS'Y\x9c}d\x17bkA'
p17
tp18
Rp19
ag10
(g14
S'=\n\xd7\xefCkkA'
p20
tp21
Rp22
ag10
(g14
S'`\x10X\xf1BjkA'
p23
tp24
Rp25
ag10
(g14
S'\xaarhu\xb3okA'
p26
tp27
Rp28
ag10
(g14
S'#/\xdd\xdc)ckA'
p29
tp30
Rp31
ag10
(g14
S'(\xdb\xf9\xbe\xa3ckA'
p32
tp33
Rp34
ag10
(g14
S'O\xc5\xd9C\xc9_kA'
p35
tp36
Rp37
ag10
(g14
S'T\xb8\x1eQ\x1ddkA'
p38
tp39
Rp40
ag10
(g14
S'\xa8\xfe\x8d\xe0vpkA'
p41
tp42
Rp43
ag10
(g14
S'=\xdfOE\x9eckA'
p44
tp45
Rp46
ag10
(g14
S'\x0f\xaeG\x11\x9fjkA'
p47
tp48
Rp49
ag10
(g14
S'\xc1\xca\xa1u\xa9fkA'
p50
tp51
Rp52
ag10
(g14
S'\xe5$\x06\xa5\x9f`kA'
p53
tp54
Rp55
ag10
(g14
S'\xfb(\\\x07\xcc\\kA'
p56
tp57
Rp58
ag10
(g14
S'\x95\xed|\xdf_\\kA'
p59
tp60
Rp61
ag10
(g14
S'\xcc\xa1E*\x83\\kA'
p62
tp63
Rp64
ag10
(g14
S'EDD\xac\x86gkA'
p65
tp66
Rp67
ag10
(g14
S'\xa1\xc6K#\xd5WkA'
p68
tp69
Rp70
ag10
(g14
S'\xb4V\xc7\x88\xc2lkA'
p71
tp72
Rp73
ag10
(g14
S'd\x10X\xf9JakA'
p74
tp75
Rp76
asS'target'
p77
(lp78
g10
(g14
S'X\x8d\x97n\x12\xa3>@'
p79
tp80
Rp81
ag10
(g14
S'R\x8f\xc2\xf5(\xfc=@'
p82
tp83
Rp84
ag10
(g14
S'\x93\x99\x99\x99\x99\xb9>@'
p85
tp86
Rp87
ag10
(g14
S'C`\xe5\xd0"\x13@@'
p88
tp89
Rp90
ag10
(g14
S'\rX9\xb4\xc8V?@'
p91
tp92
Rp93
ag10
(g14
S'\t\xaeG\xe1z4=@'
p94
tp95
Rp96
ag10
(g14
S'\xaerh\x91\xed<@@'
p97
tp98
Rp99
ag10
(g14
S'\x89\xebQ\xb8\x1e\xa5A@'
p100
tp101
Rp102
ag10
(g14
S'U\x0e-\xb2\x9d\xdfA@'
p103
tp104
Rp105
ag10
(g14
S'N7\x89A`\xb5@@'
p106
tp107
Rp108
ag10
(g14
S'\x87j\xbct\x93\xc8C@'
p109
tp110
Rp111
ag10
(g14
S'\xa7\x9b\xc4 \xb0\xb2?@'
p112
tp113
Rp114
ag10
(g14
S'\xe3Q\xb8\x1e\x85\xdb?@'
p115
tp116
Rp117
ag10
(g14
S'9\x89A`\xe5\xe0@@'
p118
tp119
Rp120
ag10
(g14
S'/\\\x8f\xc2\xf5\xf8B@'
p121
tp122
Rp123
ag10
(g14
S'\x0f\x02+\x87\x16\xb9>@'
p124
tp125
Rp126
ag10
(g14
S'\xd6x\xe9&1\xe8=@'
p127
tp128
Rp129
ag10
(g14
S'fd;\xdfO\xdd=@'
p130
tp131
Rp132
ag10
(g14
S'433333A@'
p133
tp134
Rp135
ag10
(g14
S'\x13\x83\xc0\xca\xa1%@@'
p136
tp137
Rp138
asssss.