(dp0
S'../Data/sqlite_32.csv'
p1
(dp2
S'../Data/sqlite_22.csv'
p3
(dp4
F0.2
(dp5
S'abs_res'
p6
(dp7
S'bellwether'
p8
(lp9
cnumpy.core.multiarray
scalar
p10
(cnumpy
dtype
p11
(S'f8'
p12
I0
I1
tp13
Rp14
(I3
S'<'
p15
NNNI-1
I-1
I0
tp16
bS'q\xbctc\x8fyBA'
p17
tp18
Rp19
ag10
(g14
S'`d;\xbf\xb6{BA'
p20
tp21
Rp22
ag10
(g14
S'\xf6\xfd\xd4xiyBA'
p23
tp24
Rp25
ag10
(g14
S'\x94\x18\x04\xb6`{BA'
p26
tp27
Rp28
ag10
(g14
S'\xe7\xfb\xa9q\xeb{BA'
p29
tp30
Rp31
ag10
(g14
S'e\xbaIl\xa8{BA'
p32
tp33
Rp34
ag10
(g14
S'{\x93\x18tz{BA'
p35
tp36
Rp37
ag10
(g14
S'\x03\xd5x\t\xa9|BA'
p38
tp39
Rp40
ag10
(g14
S'\xf1|?E\xfa|BA'
p41
tp42
Rp43
ag10
(g14
S'*1\x08<\xa1{BA'
p44
tp45
Rp46
ag10
(g14
S'\xf9\xfd\xd4\x08:|BA'
p47
tp48
Rp49
ag10
(g14
S'\xc2K7)\xa3}BA'
p50
tp51
Rp52
ag10
(g14
S'\xba\x9f\x1a?\xb7{BA'
p53
tp54
Rp55
ag10
(g14
S'T\xb8\x1eEW|BA'
p56
tp57
Rp58
ag10
(g14
S'\xdf\xce\xf7s\xed{BA'
p59
tp60
Rp61
ag10
(g14
S'\x01+\x87\xc6-|BA'
p62
tp63
Rp64
ag10
(g14
S'\xc4\xca\xa1\x05\t|BA'
p65
tp66
Rp67
ag10
(g14
S'\xea&1x\t|BA'
p68
tp69
Rp70
ag10
(g14
S'\x00\xaa\xf1\x12\xe3{BA'
p71
tp72
Rp73
ag10
(g14
S'_d;\xdf|{BA'
p74
tp75
Rp76
asS'target'
p77
(lp78
g10
(g14
S'\xe5\xd0"\xdb\xf9\x86W@'
p79
tp80
Rp81
ag10
(g14
S'\xbe\x1e\x85\xebQ\xb0V@'
p82
tp83
Rp84
ag10
(g14
S'k;\xdfO\x8d\xb7V@'
p85
tp86
Rp87
ag10
(g14
S'T\x0e-\xb2\x9d\xa7X@'
p88
tp89
Rp90
ag10
(g14
S'N9\xb4\xc8v\x86W@'
p91
tp92
Rp93
ag10
(g14
S'43333KW@'
p94
tp95
Rp96
ag10
(g14
S'\xae\x9d\xef\xa7\xc6sV@'
p97
tp98
Rp99
ag10
(g14
S'\xc4\xf5(\\\x8f\xdaW@'
p100
tp101
Rp102
ag10
(g14
S'\xa8rh\x91\xed,Y@'
p103
tp104
Rp105
ag10
(g14
S'\xfa\xff\xff\xff\xff\xc7W@'
p106
tp107
Rp108
ag10
(g14
S'z?5^\xbayW@'
p109
tp110
Rp111
ag10
(g14
S'\xd4\xa3p=\n\x93Y@'
p112
tp113
Rp114
ag10
(g14
S'g\x10X9\xb48U@'
p115
tp116
Rp117
ag10
(g14
S'\xbav\xbe\x9f\x1a\xa7U@'
p118
tp119
Rp120
ag10
(g14
S'L`\xe5\xd0"\x1bX@'
p121
tp122
Rp123
ag10
(g14
S'Z\x10X9\xb4\xa8X@'
p124
tp125
Rp126
ag10
(g14
S'\x15\xd7\xa3p=rX@'
p127
tp128
Rp129
ag10
(g14
S'\x1d\x06\x81\x95C\xf3V@'
p130
tp131
Rp132
ag10
(g14
S'\xa5G\xe1z\x14\xa6V@'
p133
tp134
Rp135
ag10
(g14
S'\xf8\xa7\xc6K7\x99V@'
p136
tp137
Rp138
asssss.