(dp0
S'../Data/sqlite_64.csv'
p1
(dp2
S'../Data/sqlite_87.csv'
p3
(dp4
F0.05
(dp5
S'mmre'
p6
(dp7
S'bellwether'
p8
(lp9
cnumpy.core.multiarray
scalar
p10
(cnumpy
dtype
p11
(S'f8'
p12
I0
I1
tp13
Rp14
(I3
S'<'
p15
NNNI-1
I-1
I0
tp16
bS'\x1a\xd8\x9d\xa3B$N@'
p17
tp18
Rp19
ag10
(g14
S'o\xc5Y\xe8\xc9\x12N@'
p20
tp21
Rp22
ag10
(g14
S'\xdeT\t\xeeq\x1aN@'
p23
tp24
Rp25
ag10
(g14
S'pj\xba\xa8(\x12N@'
p26
tp27
Rp28
ag10
(g14
S'0\xe6z^K\tN@'
p29
tp30
Rp31
ag10
(g14
S'[[\x00\xc8K\x11N@'
p32
tp33
Rp34
ag10
(g14
S'\x95)\nq\x14\x0eN@'
p35
tp36
Rp37
ag10
(g14
S'\x93\xdc7=o&N@'
p38
tp39
Rp40
ag10
(g14
S'\x86\x14v\xa0\xfe\x16N@'
p41
tp42
Rp43
ag10
(g14
S'o2x\x15t\x16N@'
p44
tp45
Rp46
ag10
(g14
S'[i\xf6q\\\x0cN@'
p47
tp48
Rp49
ag10
(g14
S'X\x99Cw+\xfeM@'
p50
tp51
Rp52
ag10
(g14
S'<\x15\xeaD\xa7\x01N@'
p53
tp54
Rp55
ag10
(g14
S'2t\x8f\xeb\x97\x07N@'
p56
tp57
Rp58
ag10
(g14
S'\x07#\x0bj\xd4*N@'
p59
tp60
Rp61
ag10
(g14
S'\xfc\xb6\xd00\xfc\x13N@'
p62
tp63
Rp64
ag10
(g14
S'\xa8.\x00H\xfb\x0fN@'
p65
tp66
Rp67
ag10
(g14
S'\xc2\xfc\x1d\xb5Z%N@'
p68
tp69
Rp70
ag10
(g14
S'\xe9\xdf\x92j>\x06N@'
p71
tp72
Rp73
ag10
(g14
S'\xb4g\xb3E\x15\x15N@'
p74
tp75
Rp76
asS'target'
p77
(lp78
g10
(g14
S'\x18a\xa1j@\xad@@'
p79
tp80
Rp81
ag10
(g14
S'\x12\xe6\xce\xb4\xf9[T@'
p82
tp83
Rp84
ag10
(g14
S'R\x18\x01Gx\x94C@'
p85
tp86
Rp87
ag10
(g14
S'\x9b\x1a>c\xe0\\T@'
p88
tp89
Rp90
ag10
(g14
S'C\xe3\xc5\xd3w\x96Q@'
p91
tp92
Rp93
ag10
(g14
S'p|\xaf]\x1c\xc7a@'
p94
tp95
Rp96
ag10
(g14
S'\x80C\xfc",\x1eO@'
p97
tp98
Rp99
ag10
(g14
S'\x11a\t\x1d\x1c\x10B@'
p100
tp101
Rp102
ag10
(g14
S'\x054]F\x19\xf1B@'
p103
tp104
Rp105
ag10
(g14
S'R\xa5`\xd0T\x18H@'
p106
tp107
Rp108
ag10
(g14
S'z,\x99S|}S@'
p109
tp110
Rp111
ag10
(g14
S't\xa7\x18\x15*.M@'
p112
tp113
Rp114
ag10
(g14
S'3,zd\x93\xc5V@'
p115
tp116
Rp117
ag10
(g14
S'\x1b\x07\xed\x88\x8c\xefS@'
p118
tp119
Rp120
ag10
(g14
S'\xea\x89L\xa2iZG@'
p121
tp122
Rp123
ag10
(g14
S'\xc4U\xdf\xa6\xb1\x8eR@'
p124
tp125
Rp126
ag10
(g14
S'\x06325%\x8eX@'
p127
tp128
Rp129
ag10
(g14
S')\xc2=\xf5\x8c\xb3R@'
p130
tp131
Rp132
ag10
(g14
S'\xb8\xf5[%\xc0\xaaR@'
p133
tp134
Rp135
ag10
(g14
S'hS\xa5\xac\xc7XE@'
p136
tp137
Rp138
asssss.