(dp0
S'../Data/sqlite_63.csv'
p1
(dp2
S'../Data/sqlite_76.csv'
p3
(dp4
F0.15
(dp5
S'mmre'
p6
(dp7
S'bellwether'
p8
(lp9
cnumpy.core.multiarray
scalar
p10
(cnumpy
dtype
p11
(S'f8'
p12
I0
I1
tp13
Rp14
(I3
S'<'
p15
NNNI-1
I-1
I0
tp16
bS'\xe5$\xfa.8l@@'
p17
tp18
Rp19
ag10
(g14
S'f\xa2`\xea\x1bS@@'
p20
tp21
Rp22
ag10
(g14
S'Y\xf9\x9b+\x19o@@'
p23
tp24
Rp25
ag10
(g14
S'\xc6$1\xd4\x88#@@'
p26
tp27
Rp28
ag10
(g14
S'J]\x9e\xa4\x1aP@@'
p29
tp30
Rp31
ag10
(g14
S'ZRM\xdc\xa0R@@'
p32
tp33
Rp34
ag10
(g14
S'\xba\xfa_\xb5\xfeT@@'
p35
tp36
Rp37
ag10
(g14
S'\x9e\xd2C\x94\x9f9@@'
p38
tp39
Rp40
ag10
(g14
S'\x1d\x14\x11i--@@'
p41
tp42
Rp43
ag10
(g14
S'\xd3\xacQ\x8d\xb1C@@'
p44
tp45
Rp46
ag10
(g14
S'\xde\r.\x99\xf6M@@'
p47
tp48
Rp49
ag10
(g14
S'\xee\x87\xacY"?@@'
p50
tp51
Rp52
ag10
(g14
S'\xeb+;/xY@@'
p53
tp54
Rp55
ag10
(g14
S'ne\x96X\x82%@@'
p56
tp57
Rp58
ag10
(g14
S'\xe2P\x0e\xda\xf4R@@'
p59
tp60
Rp61
ag10
(g14
S'\x05\x14j\r\xe4S@@'
p62
tp63
Rp64
ag10
(g14
S'\x84bY\x992G@@'
p65
tp66
Rp67
ag10
(g14
S'\xfc2GK;`@@'
p68
tp69
Rp70
ag10
(g14
S'\x95\xce\xd7Df\x1a@@'
p71
tp72
Rp73
ag10
(g14
S',,\xfbQpC@@'
p74
tp75
Rp76
asS'target'
p77
(lp78
g10
(g14
S'9\x11\x8e\xd8\xb1\xf91@'
p79
tp80
Rp81
ag10
(g14
S'\x1a\x8ep\x92\x83\xb8/@'
p82
tp83
Rp84
ag10
(g14
S'&\xd1J^7k1@'
p85
tp86
Rp87
ag10
(g14
S'\xb1\xae\xea\xd0\xa1\xc01@'
p88
tp89
Rp90
ag10
(g14
S'\xf7\x10\xf6\x7fp\xcd0@'
p91
tp92
Rp93
ag10
(g14
S'|\xfb\\\xdc\xe8\xc11@'
p94
tp95
Rp96
ag10
(g14
S'\xcb\xc0\xf9\xed]\t2@'
p97
tp98
Rp99
ag10
(g14
S'3\xa0\xb8\x19\xcd\xf20@'
p100
tp101
Rp102
ag10
(g14
S'\xe2y\xcb\xe8C\r2@'
p103
tp104
Rp105
ag10
(g14
S'\x82w\x7f\xea3\x811@'
p106
tp107
Rp108
ag10
(g14
S'z\x96\xc3-\x97m2@'
p109
tp110
Rp111
ag10
(g14
S'\xee\xf4j\x0f\xd4^0@'
p112
tp113
Rp114
ag10
(g14
S'\xa5A\x14$\n\xb00@'
p115
tp116
Rp117
ag10
(g14
S'\x14J\xfb\x0b\xb8=2@'
p118
tp119
Rp120
ag10
(g14
S'\x99\xf1\x89\xe6\xfe\xe91@'
p121
tp122
Rp123
ag10
(g14
S"+[M\xe9\xbb'1@"
p124
tp125
Rp126
ag10
(g14
S'\x0f.\x8f\xc07+1@'
p127
tp128
Rp129
ag10
(g14
S'\xda\x96\xdfys\xd50@'
p130
tp131
Rp132
ag10
(g14
S'u\xa3TQ[\x0c2@'
p133
tp134
Rp135
ag10
(g14
S'\xeb\xffb\xf3\xba\x033@'
p136
tp137
Rp138
asssss.