(dp0
S'../Data/sqlite_57.csv'
p1
(dp2
S'../Data/sqlite_61.csv'
p3
(dp4
F0.1
(dp5
S'abs_res'
p6
(dp7
S'bellwether'
p8
(lp9
cnumpy.core.multiarray
scalar
p10
(cnumpy
dtype
p11
(S'f8'
p12
I0
I1
tp13
Rp14
(I3
S'<'
p15
NNNI-1
I-1
I0
tp16
bS'\xa7\xc6K\xdfu(jA'
p17
tp18
Rp19
ag10
(g14
S"jff\x02L'jA"
p20
tp21
Rp22
ag10
(g14
S'\x98\x1cZ4-1jA'
p23
tp24
Rp25
ag10
(g14
S'\xf9\xff\xff\x8b\x8a,jA'
p26
tp27
Rp28
ag10
(g14
S'\xce\xf7Sg*+jA'
p29
tp30
Rp31
ag10
(g14
S'$\xdd$*\x9c-jA'
p32
tp33
Rp34
ag10
(g14
S'G\xe1z\xec\xcb2jA'
p35
tp36
Rp37
ag10
(g14
S'o\xe7\xfb\x99\xa5)jA'
p38
tp39
Rp40
ag10
(g14
S'\x8dA`\xd1\x8b+jA'
p41
tp42
Rp43
ag10
(g14
S'D\x0c\x02Oo,jA'
p44
tp45
Rp46
ag10
(g14
S'\xa7\x1a/\r\x08.jA'
p47
tp48
Rp49
ag10
(g14
S'&\\\x8fB\xf3*jA'
p50
tp51
Rp52
ag10
(g14
S'\x00\x00\x00d\\/jA'
p53
tp54
Rp55
ag10
(g14
S'N\x0e-\x92\x940jA'
p56
tp57
Rp58
ag10
(g14
S'\xe2&1\xb0^*jA'
p59
tp60
Rp61
ag10
(g14
S']ff\x82\x85-jA'
p62
tp63
Rp64
ag10
(g14
S'T\xe5\xd0R\xd10jA'
p65
tp66
Rp67
ag10
(g14
S'E\xb6\xf3I\xf62jA'
p68
tp69
Rp70
ag10
(g14
S'\x86A`\xa96/jA'
p71
tp72
Rp73
ag10
(g14
S'\x1e\xb0r\x18\x83%jA'
p74
tp75
Rp76
asS'target'
p77
(lp78
g10
(g14
S'\x08\xd5x\xe9&\x8fv@'
p79
tp80
Rp81
ag10
(g14
S'\xaf\x1e\x85\xebQ^w@'
p82
tp83
Rp84
ag10
(g14
S'l\x12\x83\xc0\xcaMz@'
p85
tp86
Rp87
ag10
(g14
S'k\x91\xed|?\xbf{@'
p88
tp89
Rp90
ag10
(g14
S'Z;\xdfO\x8d;~@'
p91
tp92
Rp93
ag10
(g14
S'"/\xdd$\x064y@'
p94
tp95
Rp96
ag10
(g14
S'V\xe3\xa5\x9b\xc4\x8c{@'
p97
tp98
Rp99
ag10
(g14
S'\xf1|?5^x{@'
p100
tp101
Rp102
ag10
(g14
S'(\x87\x16\xd9\xceFx@'
p103
tp104
Rp105
ag10
(g14
S'\x80\x95C\x8bl\xfbz@'
p106
tp107
Rp108
ag10
(g14
S'\x02+\x87\x16\xd9.y@'
p109
tp110
Rp111
ag10
(g14
S'@\xdfO\x8d\x97\xfct@'
p112
tp113
Rp114
ag10
(g14
S'\x1fZd;\xdf\xcdy@'
p115
tp116
Rp117
ag10
(g14
S'\xb9\xca\xa1E\xb6Ew@'
p118
tp119
Rp120
ag10
(g14
S'\x8f\xed|?5\x86u@'
p121
tp122
Rp123
ag10
(g14
S'\xec&1\x08\xac\x8eu@'
p124
tp125
Rp126
ag10
(g14
S'\x99n\x12\x83\xc0\x8b\x82@'
p127
tp128
Rp129
ag10
(g14
S'\xa6\xf1\xd2Mb\x12z@'
p130
tp131
Rp132
ag10
(g14
S'\xb8I\x0c\x02+\xa9y@'
p133
tp134
Rp135
ag10
(g14
S'\xd9z\x14\xaeGc|@'
p136
tp137
Rp138
asssss.