(dp0
S'../Data/sqlite_60.csv'
p1
(dp2
S'../Data/sqlite_6.csv'
p3
(dp4
F0.25
(dp5
S'abs_res'
p6
(dp7
S'bellwether'
p8
(lp9
cnumpy.core.multiarray
scalar
p10
(cnumpy
dtype
p11
(S'f8'
p12
I0
I1
tp13
Rp14
(I3
S'<'
p15
NNNI-1
I-1
I0
tp16
bS'\xd0\xb0+\xc0\x80SeA'
p17
tp18
Rp19
ag10
(g14
S'YH\x9a\x12]SeA'
p20
tp21
Rp22
ag10
(g14
S'PUU\x8d\x07\\eA'
p23
tp24
Rp25
ag10
(g14
S">\xee5'+WeA"
p26
tp27
Rp28
ag10
(g14
S'\xa3p=\xaa~ReA'
p29
tp30
Rp31
ag10
(g14
S'\x86A`5>[eA'
p32
tp33
Rp34
ag10
(g14
S'\x07\xac\x1c\xa6\x08KeA'
p35
tp36
Rp37
ag10
(g14
S'\xdcz\x14\xbe:\\eA'
p38
tp39
Rp40
ag10
(g14
S'\xc2\xae\x00\xfd\xb5WeA'
p41
tp42
Rp43
ag10
(g14
S'\xe2\x87\xcfp\x0fZeA'
p44
tp45
Rp46
ag10
(g14
S'\xcd\xbd\xe6z,XeA'
p47
tp48
Rp49
ag10
(g14
S'm\xa0\xd3~\x1cZeA'
p50
tp51
Rp52
ag10
(g14
S'\x8f\xfa7:dYeA'
p53
tp54
Rp55
ag10
(g14
S',\xa3\xb7u\xa8]eA'
p56
tp57
Rp58
ag10
(g14
S'\x07\xac\x1c\x0e\x92SeA'
p59
tp60
Rp61
ag10
(g14
S'\xe5\x08e@\x99]eA'
p62
tp63
Rp64
ag10
(g14
S'\x0e\xbb\x02\xc0eWeA'
p65
tp66
Rp67
ag10
(g14
S'\x11-\xb2Q\x11`eA'
p68
tp69
Rp70
ag10
(g14
S'zL\xf0\xf0hXeA'
p71
tp72
Rp73
ag10
(g14
S'^d;S\x16PeA'
p74
tp75
Rp76
asS'target'
p77
(lp78
g10
(g14
S'\x1c/\xdd$\x06yq@'
p79
tp80
Rp81
ag10
(g14
S'=\n\xd7\xa3p\xefp@'
p82
tp83
Rp84
ag10
(g14
S'\xd4"\xdb\xf9~&o@'
p85
tp86
Rp87
ag10
(g14
S'\x8fC\x8bl\xe7\xabo@'
p88
tp89
Rp90
ag10
(g14
S'\xa8rh\x91\xed\xc4q@'
p91
tp92
Rp93
ag10
(g14
S'\xa4\xef\xa7\xc6KSo@'
p94
tp95
Rp96
ag10
(g14
S'F\x8bl\xe7\xfb\x8do@'
p97
tp98
Rp99
ag10
(g14
S'$\xdb\xf9~j\xaep@'
p100
tp101
Rp102
ag10
(g14
S'\x90l\xe7\xfb\xa9/p@'
p103
tp104
Rp105
ag10
(g14
S'\xdaMb\x10X\xbbo@'
p106
tp107
Rp108
ag10
(g14
S'\x01\xd5x\xe9&Qo@'
p109
tp110
Rp111
ag10
(g14
S'\xd3K7\x89A\xf2o@'
p112
tp113
Rp114
ag10
(g14
S'}?5^\xba\xddo@'
p115
tp116
Rp117
ag10
(g14
S'U\xe3\xa5\x9b\xc4\xc6p@'
p118
tp119
Rp120
ag10
(g14
S'\xc6v\xbe\x9f\x1aco@'
p121
tp122
Rp123
ag10
(g14
S'\xbcG\xe1z\x14\xe8o@'
p124
tp125
Rp126
ag10
(g14
S'73333\x1dq@'
p127
tp128
Rp129
ag10
(g14
S'\xea\xfd\xd4x\xe9vo@'
p130
tp131
Rp132
ag10
(g14
S'\xf0\xd2Mb\x10\xf9p@'
p133
tp134
Rp135
ag10
(g14
S'\xb8\xf3\xfd\xd4x\xe9o@'
p136
tp137
Rp138
asssss.