(dp0
S'../Data/sqlite_22.csv'
p1
(dp2
S'../Data/sqlite_73.csv'
p3
(dp4
F0.3
(dp5
S'mmre'
p6
(dp7
S'bellwether'
p8
(lp9
cnumpy.core.multiarray
scalar
p10
(cnumpy
dtype
p11
(S'f8'
p12
I0
I1
tp13
Rp14
(I3
S'<'
p15
NNNI-1
I-1
I0
tp16
bS'\xa8\x9b\xb4\xba\x1eGT@'
p17
tp18
Rp19
ag10
(g14
S'\x1dh\xeaaKJT@'
p20
tp21
Rp22
ag10
(g14
S'%\x1d\x89\xfejFT@'
p23
tp24
Rp25
ag10
(g14
S'\xf0n\x0e\xa8\x1aDT@'
p26
tp27
Rp28
ag10
(g14
S'\x97-r:\x01HT@'
p29
tp30
Rp31
ag10
(g14
S'^-ytiET@'
p32
tp33
Rp34
ag10
(g14
S'Y\xdf<{ GT@'
p35
tp36
Rp37
ag10
(g14
S'\xd4K\xca\xf5\xf3HT@'
p38
tp39
Rp40
ag10
(g14
S'\xa0a\xd9V\xbeET@'
p41
tp42
Rp43
ag10
(g14
S'\x07\xa0\x00!2HT@'
p44
tp45
Rp46
ag10
(g14
S'\xaeq\xf7\x82\x99IT@'
p47
tp48
Rp49
ag10
(g14
S'\x05w=\xbe\x8dIT@'
p50
tp51
Rp52
ag10
(g14
S'\xce\xe3\xe1\x96\x98GT@'
p53
tp54
Rp55
ag10
(g14
S"'\xc7\xa2L\xd4GT@"
p56
tp57
Rp58
ag10
(g14
S'\x07\xedR\r\xfcGT@'
p59
tp60
Rp61
ag10
(g14
S'\x85\x1e?\xc0\xb5>T@'
p62
tp63
Rp64
ag10
(g14
S'\x15v\x86\x02WHT@'
p65
tp66
Rp67
ag10
(g14
S'Sr\xd6\xdaGLT@'
p68
tp69
Rp70
ag10
(g14
S'\xedRpB\xceCT@'
p71
tp72
Rp73
ag10
(g14
S'y\xb42h\xf7KT@'
p74
tp75
Rp76
asS'target'
p77
(lp78
g10
(g14
S'\x00(\x80HV\x95,@'
p79
tp80
Rp81
ag10
(g14
S'2~\xf7Q\x82g*@'
p82
tp83
Rp84
ag10
(g14
S'\xfe\x82\xe4\xa4\xf0x,@'
p85
tp86
Rp87
ag10
(g14
S'hNz\xf8\xc7\x8d+@'
p88
tp89
Rp90
ag10
(g14
S'\x8a)(T+m)@'
p91
tp92
Rp93
ag10
(g14
S'%\xd7\xa6\x18`\xc2*@'
p94
tp95
Rp96
ag10
(g14
S'\x9e\x9b\x10Ru\x19*@'
p97
tp98
Rp99
ag10
(g14
S'lv\x05\x1bA8,@'
p100
tp101
Rp102
ag10
(g14
S'\xdaP\xdc\x0c\r\xa2,@'
p103
tp104
Rp105
ag10
(g14
S'J\xda[\xdcN,*@'
p106
tp107
Rp108
ag10
(g14
S'7\x87\x9d\xae\x8ci,@'
p109
tp110
Rp111
ag10
(g14
S'L0\xa0\xbe\xfb{*@'
p112
tp113
Rp114
ag10
(g14
S'ga\x9b\xeaN\xe2)@'
p115
tp116
Rp117
ag10
(g14
S'\x1cF\xbe\xc1\x0c\xdb(@'
p118
tp119
Rp120
ag10
(g14
S'\xf0~w\x17&\x0e-@'
p121
tp122
Rp123
ag10
(g14
S'\xd2\xc4\xf8\xa6\xb3\x14-@'
p124
tp125
Rp126
ag10
(g14
S'y\x16\xaeC\x81\x17,@'
p127
tp128
Rp129
ag10
(g14
S'\x95\x0b{{\x17\xf7+@'
p130
tp131
Rp132
ag10
(g14
S'\xec\x86\x95k\xbd\n,@'
p133
tp134
Rp135
ag10
(g14
S'Qh\xbeg\xce\x08*@'
p136
tp137
Rp138
asssss.