(dp0
S'../Data/sqlite_42.csv'
p1
(dp2
S'../Data/sqlite_94.csv'
p3
(dp4
F0.1
(dp5
S'mmre'
p6
(dp7
S'bellwether'
p8
(lp9
cnumpy.core.multiarray
scalar
p10
(cnumpy
dtype
p11
(S'f8'
p12
I0
I1
tp13
Rp14
(I3
S'<'
p15
NNNI-1
I-1
I0
tp16
bS'\x88\xd5\x11\xaf\x03mX@'
p17
tp18
Rp19
ag10
(g14
S'\xa9\x95\x00\x8bumX@'
p20
tp21
Rp22
ag10
(g14
S'\xd8{7YPmX@'
p23
tp24
Rp25
ag10
(g14
S'7\x91 >BlX@'
p26
tp27
Rp28
ag10
(g14
S'\xf9\x9d\x81\xed\xa1lX@'
p29
tp30
Rp31
ag10
(g14
S'p\x0b\x14\x90\xablX@'
p32
tp33
Rp34
ag10
(g14
S'\xfa\x8c8\xc7\x9alX@'
p35
tp36
Rp37
ag10
(g14
S'*q\xf0\xfbglX@'
p38
tp39
Rp40
ag10
(g14
S'd\x83\x8a\x7f\x96lX@'
p41
tp42
Rp43
ag10
(g14
S'}\xe26h\xfalX@'
p44
tp45
Rp46
ag10
(g14
S'\xf7eDt\x0emX@'
p47
tp48
Rp49
ag10
(g14
S'\xb0\xc9m\xb4\xf5mX@'
p50
tp51
Rp52
ag10
(g14
S'\x85/\xc8\x01\x07nX@'
p53
tp54
Rp55
ag10
(g14
S'\xebG\xffqxmX@'
p56
tp57
Rp58
ag10
(g14
S"\xa1\xb3'@\x8emX@"
p59
tp60
Rp61
ag10
(g14
S'<,\x83%\xe2lX@'
p62
tp63
Rp64
ag10
(g14
S'B\x93\x10 \xc4lX@'
p65
tp66
Rp67
ag10
(g14
S'\x99\xe16c\x1bmX@'
p68
tp69
Rp70
ag10
(g14
S'\xc2\x1f\x04\xdb-mX@'
p71
tp72
Rp73
ag10
(g14
S']T\x08\xa4\xd0mX@'
p74
tp75
Rp76
asS'target'
p77
(lp78
g10
(g14
S'Ff\xdd\xaa\xcd\x7fT@'
p79
tp80
Rp81
ag10
(g14
S'\xd9\x92(\xb5\xe5qT@'
p82
tp83
Rp84
ag10
(g14
S"\x99t'\xefx\x0bJ@"
p85
tp86
Rp87
ag10
(g14
S'\t*\xc4*\xd1\xb0V@'
p88
tp89
Rp90
ag10
(g14
S'\x9d\x92|\x1bW\xfdN@'
p91
tp92
Rp93
ag10
(g14
S'\x1b\xfd\x97S\xc8[U@'
p94
tp95
Rp96
ag10
(g14
S'\xf8"\xeaZ\x90x\\@'
p97
tp98
Rp99
ag10
(g14
S'<\x8f\xb3\xb0tWU@'
p100
tp101
Rp102
ag10
(g14
S'\r\xa5\xb7Yq\xc0P@'
p103
tp104
Rp105
ag10
(g14
S'\xe2A\x18e\xd5)L@'
p106
tp107
Rp108
ag10
(g14
S'n\xfe\xe0Bk\nO@'
p109
tp110
Rp111
ag10
(g14
S'~\xb9\xa5Q\xf0]B@'
p112
tp113
Rp114
ag10
(g14
S'\xe8\x13lF\xe9?Q@'
p115
tp116
Rp117
ag10
(g14
S'\x07rd\xd9#N]@'
p118
tp119
Rp120
ag10
(g14
S'\xed3G\xc8!FR@'
p121
tp122
Rp123
ag10
(g14
S'\x10^\xdf\xa1\xff&P@'
p124
tp125
Rp126
ag10
(g14
S'w\xd4\x8eo1xQ@'
p127
tp128
Rp129
ag10
(g14
S'\xcb\x11\xb6K\x8d I@'
p130
tp131
Rp132
ag10
(g14
S'\xc5\x8a\x89\x9f\x1ejP@'
p133
tp134
Rp135
ag10
(g14
S'\x842\xe5g\xf9vM@'
p136
tp137
Rp138
asssss.