(dp0
S'../Data/sqlite_59.csv'
p1
(dp2
S'../Data/sqlite_84.csv'
p3
(dp4
F0.05
(dp5
S'mmre'
p6
(dp7
S'bellwether'
p8
(lp9
cnumpy.core.multiarray
scalar
p10
(cnumpy
dtype
p11
(S'f8'
p12
I0
I1
tp13
Rp14
(I3
S'<'
p15
NNNI-1
I-1
I0
tp16
bS'\xcc\x99`G*Aa@'
p17
tp18
Rp19
ag10
(g14
S'\n\xcf\xec\xd5\xf0Da@'
p20
tp21
Rp22
ag10
(g14
S'y6\xe3\xb5^4a@'
p23
tp24
Rp25
ag10
(g14
S'\x06\xf3`\xd6//a@'
p26
tp27
Rp28
ag10
(g14
S'0\xf8\xed\xa0\x11:a@'
p29
tp30
Rp31
ag10
(g14
S'\xe7{LSv=a@'
p32
tp33
Rp34
ag10
(g14
S'\xe1\xc3x%AJa@'
p35
tp36
Rp37
ag10
(g14
S'r\xb0\x11\x1f&;a@'
p38
tp39
Rp40
ag10
(g14
S'|\x056\xc1\xe9#a@'
p41
tp42
Rp43
ag10
(g14
S'{\x8e\xa9\xef$,a@'
p44
tp45
Rp46
ag10
(g14
S'&\xf4\xc4o\x9aQa@'
p47
tp48
Rp49
ag10
(g14
S'\x93S>\x9b\x85\x1fa@'
p50
tp51
Rp52
ag10
(g14
S'\xfb0vs\x0b%a@'
p53
tp54
Rp55
ag10
(g14
S'B\x9e\x9f\xcb\x81Na@'
p56
tp57
Rp58
ag10
(g14
S'\x8b\x1a\x15\xfcrEa@'
p59
tp60
Rp61
ag10
(g14
S'IW\xaf\x80\x9bKa@'
p62
tp63
Rp64
ag10
(g14
S'g1\x8a\x8e\x0bNa@'
p65
tp66
Rp67
ag10
(g14
S't\xff\xe0\xf1\xfeHa@'
p68
tp69
Rp70
ag10
(g14
S'\xda\xd3\xea\xddADa@'
p71
tp72
Rp73
ag10
(g14
S'm2K\xa8m?a@'
p74
tp75
Rp76
asS'target'
p77
(lp78
g10
(g14
S'>\xe9$\xa8Ez`@'
p79
tp80
Rp81
ag10
(g14
S'\xa1VuLD7T@'
p82
tp83
Rp84
ag10
(g14
S'\xbe+\xe9\xb7\xcf\x8eY@'
p85
tp86
Rp87
ag10
(g14
S'Eh\xa8\xd8\xed\xbeS@'
p88
tp89
Rp90
ag10
(g14
S'\x04;]\x8d\xf7\xb3Q@'
p91
tp92
Rp93
ag10
(g14
S'.vN\xf6J\xd5A@'
p94
tp95
Rp96
ag10
(g14
S'P\t\x8a\xef\xf5\n`@'
p97
tp98
Rp99
ag10
(g14
S'\x15oeI@\x0eK@'
p100
tp101
Rp102
ag10
(g14
S'h\xbe\t\xb17\x8fU@'
p103
tp104
Rp105
ag10
(g14
S'\xa3\xc6H\xa2\xbf\xd4A@'
p106
tp107
Rp108
ag10
(g14
S'Q1t\x02>\xfb_@'
p109
tp110
Rp111
ag10
(g14
S'PO\x90q#)J@'
p112
tp113
Rp114
ag10
(g14
S'\x99\xfb;\xb3\x07\x99>@'
p115
tp116
Rp117
ag10
(g14
S'B\xb2\x89\x16=*\\@'
p118
tp119
Rp120
ag10
(g14
S'\xee\xb5GIroS@'
p121
tp122
Rp123
ag10
(g14
S'\xf6\xdep\xd2[\xbcJ@'
p124
tp125
Rp126
ag10
(g14
S'\x0c\xde\xdc\xda\x15<W@'
p127
tp128
Rp129
ag10
(g14
S'\x08kFG\x06NQ@'
p130
tp131
Rp132
ag10
(g14
S'\x1e\x98\x9d\x91\x19[T@'
p133
tp134
Rp135
ag10
(g14
S'\xbb\xcb\x9fG\xb8\xdfC@'
p136
tp137
Rp138
asssss.