(dp0
S'../Data/sqlite_92.csv'
p1
(dp2
S'../Data/sqlite_18.csv'
p3
(dp4
F0.15
(dp5
S'abs_res'
p6
(dp7
S'bellwether'
p8
(lp9
cnumpy.core.multiarray
scalar
p10
(cnumpy
dtype
p11
(S'f8'
p12
I0
I1
tp13
Rp14
(I3
S'<'
p15
NNNI-1
I-1
I0
tp16
bS'3\x08\xac\xbc\xb5w@A'
p17
tp18
Rp19
ag10
(g14
S'V\x0e-\xb2\x87v@A'
p20
tp21
Rp22
ag10
(g14
S'\xaaG\xe1jfw@A'
p23
tp24
Rp25
ag10
(g14
S'\xb3rhygw@A'
p26
tp27
Rp28
ag10
(g14
S'A`\xe5\xd8\xb5w@A'
p29
tp30
Rp31
ag10
(g14
S'k\x12\x83P\xb7w@A'
p32
tp33
Rp34
ag10
(g14
S'\xf5\xa7\xc6s\x86w@A'
p35
tp36
Rp37
ag10
(g14
S'\xaerh\t>w@A'
p38
tp39
Rp40
ag10
(g14
S'd\x10Xa.w@A'
p41
tp42
Rp43
ag10
(g14
S'\xfb~j|>v@A'
p44
tp45
Rp46
ag10
(g14
S'\x0e-\xb2E\x00w@A'
p47
tp48
Rp49
ag10
(g14
S']d;\xc7$w@A'
p50
tp51
Rp52
ag10
(g14
S'u\xe9&\x19:w@A'
p53
tp54
Rp55
ag10
(g14
S'\xd2"\xdb\xa9ww@A'
p56
tp57
Rp58
ag10
(g14
S'\x92\xc2\xf5\xf8ux@A'
p59
tp60
Rp61
ag10
(g14
S'n\xbct#\x9bw@A'
p62
tp63
Rp64
ag10
(g14
S'\x8a\xebQ\x10\x06x@A'
p65
tp66
Rp67
ag10
(g14
S'H\xe1z\xac}w@A'
p68
tp69
Rp70
ag10
(g14
S'`\x10XQ\x88w@A'
p71
tp72
Rp73
ag10
(g14
S'\xe3z\x14\xb6\x18w@A'
p74
tp75
Rp76
asS'target'
p77
(lp78
g10
(g14
S'8333#\xea\xd1@'
p79
tp80
Rp81
ag10
(g14
S'\x9e\x99\x99\x99\xd9\xea\xd2@'
p82
tp83
Rp84
ag10
(g14
S'ffff&z\xd3@'
p85
tp86
Rp87
ag10
(g14
S'\xca\xcc\xcc\xccl\x9c\xd3@'
p88
tp89
Rp90
ag10
(g14
S'\xff\xff\xff\xff_\x07\xd3@'
p91
tp92
Rp93
ag10
(g14
S'4333\xf3\xbe\xd2@'
p94
tp95
Rp96
ag10
(g14
S'9333\xe3\xfa\xd0@'
p97
tp98
Rp99
ag10
(g14
S'\x04\x00\x00\x00`\xbf\xd2@'
p100
tp101
Rp102
ag10
(g14
S'\x07\x00\x00\x00`o\xd2@'
p103
tp104
Rp105
ag10
(g14
S'=333\x93\x80\xd1@'
p106
tp107
Rp108
ag10
(g14
S'\xd7\xcc\xcc\xcc,\x9c\xd2@'
p109
tp110
Rp111
ag10
(g14
S'4333S\x81\xd2@'
p112
tp113
Rp114
ag10
(g14
S'dffffZ\xd1@'
p115
tp116
Rp117
ag10
(g14
S'0333s\xf4\xd1@'
p118
tp119
Rp120
ag10
(g14
S'\xd2\xcc\xcc\xcc\x8cB\xd1@'
p121
tp122
Rp123
ag10
(g14
S',333\x935\xd3@'
p124
tp125
Rp126
ag10
(g14
S'=333\xd3\x04\xd2@'
p127
tp128
Rp129
ag10
(g14
S'\x06\x00\x00\x00`\xdf\xd2@'
p130
tp131
Rp132
ag10
(g14
S'\xff\xff\xff\xff\x1f\xd7\xd3@'
p133
tp134
Rp135
ag10
(g14
S'nfff\x16\x93\xd2@'
p136
tp137
Rp138
asssss.