(dp0
S'../Data/sqlite_49.csv'
p1
(dp2
S'../Data/sqlite_63.csv'
p3
(dp4
F0.15
(dp5
S'mmre'
p6
(dp7
S'bellwether'
p8
(lp9
cnumpy.core.multiarray
scalar
p10
(cnumpy
dtype
p11
(S'f8'
p12
I0
I1
tp13
Rp14
(I3
S'<'
p15
NNNI-1
I-1
I0
tp16
bS'\xee\x16\xa11\x7fhH@'
p17
tp18
Rp19
ag10
(g14
S'\x10x@\xd2\xdcwH@'
p20
tp21
Rp22
ag10
(g14
S'\xb8\xb5n \xc4\x81H@'
p23
tp24
Rp25
ag10
(g14
S'\x00\xf7\xcf\xdeEoH@'
p26
tp27
Rp28
ag10
(g14
S'E\x89\xdc\xea{rH@'
p29
tp30
Rp31
ag10
(g14
S'\xa3\xe217\x99yH@'
p32
tp33
Rp34
ag10
(g14
S'\xdaU\xa3A0zH@'
p35
tp36
Rp37
ag10
(g14
S'U\xbb\x94\xc2\xe3oH@'
p38
tp39
Rp40
ag10
(g14
S'aX_\xde\x1evH@'
p41
tp42
Rp43
ag10
(g14
S'Hsx6XrH@'
p44
tp45
Rp46
ag10
(g14
S'!xPw\xa2tH@'
p47
tp48
Rp49
ag10
(g14
S'`|\x92f\r\x81H@'
p50
tp51
Rp52
ag10
(g14
S'\x06\xf12\xa8\xa0}H@'
p53
tp54
Rp55
ag10
(g14
S'PK4b?mH@'
p56
tp57
Rp58
ag10
(g14
S'Z`!O\xbc}H@'
p59
tp60
Rp61
ag10
(g14
S'\x02\xc3\x1f\xc1n}H@'
p62
tp63
Rp64
ag10
(g14
S'\xa6]\x19m\x94}H@'
p65
tp66
Rp67
ag10
(g14
S'6=\xc9\x1c\xd3pH@'
p68
tp69
Rp70
ag10
(g14
S'z\xb2\xd8\xcc\xeb{H@'
p71
tp72
Rp73
ag10
(g14
S'7\x14\x9db\xc2uH@'
p74
tp75
Rp76
asS'target'
p77
(lp78
g10
(g14
S'\xd5B%W&k"@'
p79
tp80
Rp81
ag10
(g14
S'b\x8e\x97S\x97\xa0"@'
p82
tp83
Rp84
ag10
(g14
S'\xf5\xd3\xa5\xaf\x9f\xcb!@'
p85
tp86
Rp87
ag10
(g14
S'\r\x1e\xefa\x0e\x8b"@'
p88
tp89
Rp90
ag10
(g14
S'\xd8\xf5+\x95\x8a;$@'
p91
tp92
Rp93
ag10
(g14
S'i\x01\xb5\xcc\xa4\xa3"@'
p94
tp95
Rp96
ag10
(g14
S'\x10\xa3\xba%\xfb\xf9!@'
p97
tp98
Rp99
ag10
(g14
S'\xf1\xd4\x0cl\x9d|"@'
p100
tp101
Rp102
ag10
(g14
S'\xd5w\xe5\x80\xe1E"@'
p103
tp104
Rp105
ag10
(g14
S'\x9ev\x07`\xc8N"@'
p106
tp107
Rp108
ag10
(g14
S'\xc5\xf5\x87\x7fS\xfd#@'
p109
tp110
Rp111
ag10
(g14
S'\x16Xd7\x15?#@'
p112
tp113
Rp114
ag10
(g14
S'\xc2\x8f\xa9pJS"@'
p115
tp116
Rp117
ag10
(g14
S'H\xba\xc3z\x1fR!@'
p118
tp119
Rp120
ag10
(g14
S'\x05&)\x90\xf9\xa8"@'
p121
tp122
Rp123
ag10
(g14
S'\xcc\x82\xe8\xf2\xe0\x95!@'
p124
tp125
Rp126
ag10
(g14
S'.\xb2\xbd\xad1f!@'
p127
tp128
Rp129
ag10
(g14
S'\x00\x88\x08\x005\x13$@'
p130
tp131
Rp132
ag10
(g14
S'\xd1\xbe\xf6\xd2s\x98"@'
p133
tp134
Rp135
ag10
(g14
S']DYJ\x1c\xb9"@'
p136
tp137
Rp138
asssss.