(dp0
S'../Data/sqlite_1.csv'
p1
(dp2
S'../Data/sqlite_7.csv'
p3
(dp4
F0.1
(dp5
S'abs_res'
p6
(dp7
S'bellwether'
p8
(lp9
cnumpy.core.multiarray
scalar
p10
(cnumpy
dtype
p11
(S'f8'
p12
I0
I1
tp13
Rp14
(I3
S'<'
p15
NNNI-1
I-1
I0
tp16
bS'\x8d\xed|\xffM)AA'
p17
tp18
Rp19
ag10
(g14
S'\xb5\x1e\x85\x1b\xb2)AA'
p20
tp21
Rp22
ag10
(g14
S"'1\x08<c)AA"
p23
tp24
Rp25
ag10
(g14
S'\x1c\x04V\x0e1*AA'
p26
tp27
Rp28
ag10
(g14
S'\xba\x904U}*AA'
p29
tp30
Rp31
ag10
(g14
S'J7\x89\xa1\xc8)AA'
p32
tp33
Rp34
ag10
(g14
S'#1\x08|R*AA'
p35
tp36
Rp37
ag10
(g14
S'\xc7\xa1Ef\xdd)AA'
p38
tp39
Rp40
ag10
(g14
S'\x1c\x85\xebQ\xf6)AA'
p41
tp42
Rp43
ag10
(g14
S'\x10-\xb2\xfdX)AA'
p44
tp45
Rp46
ag10
(g14
S'L\x8d\x97\xae\xde)AA'
p47
tp48
Rp49
ag10
(g14
S'\xaa\xf1\xd2\xadZ*AA'
p50
tp51
Rp52
ag10
(g14
S'\x0b\x1e\xcc\xc3\\*AA'
p53
tp54
Rp55
ag10
(g14
S'"M\xa9hv)AA'
p56
tp57
Rp58
ag10
(g14
S']9\xb4h)*AA'
p59
tp60
Rp61
ag10
(g14
S'\x83]\x01\x02\x17*AA'
p62
tp63
Rp64
ag10
(g14
S'\x80j\xbc\x14~)AA'
p65
tp66
Rp67
ag10
(g14
S'\xe5\xfb\xa91\xa1)AA'
p68
tp69
Rp70
ag10
(g14
S'>5^z\xf1)AA'
p71
tp72
Rp73
ag10
(g14
S'\xfb\xc5\x92/\x02*AA'
p74
tp75
Rp76
asS'target'
p77
(lp78
g10
(g14
S'\x00\xd5x\xe9&\x19j@'
p79
tp80
Rp81
ag10
(g14
S'N\x0e-\xb2\x9dCl@'
p82
tp83
Rp84
ag10
(g14
S'\xb0t\x93\x18\x04\xa2n@'
p85
tp86
Rp87
ag10
(g14
S'\xe3\xa5\x9b\xc4 \xf4n@'
p88
tp89
Rp90
ag10
(g14
S'W\xb8\x1e\x85\xebQk@'
p91
tp92
Rp93
ag10
(g14
S'\xdf&1\x08\xac\xf4j@'
p94
tp95
Rp96
ag10
(g14
S'\t+\x87\x16\xd9Vk@'
p97
tp98
Rp99
ag10
(g14
S'\xf2(\\\x8f\xc2io@'
p100
tp101
Rp102
ag10
(g14
S'\xea\xd0"\xdb\xf96l@'
p103
tp104
Rp105
ag10
(g14
S'/^\xbaI\x0c^l@'
p106
tp107
Rp108
ag10
(g14
S'|\xe9&1\x08Vp@'
p109
tp110
Rp111
ag10
(g14
S'X9\xb4\xc8v\x82i@'
p112
tp113
Rp114
ag10
(g14
S'\x9d\xef\xa7\xc6K\xf3j@'
p115
tp116
Rp117
ag10
(g14
S'\x80\x16\xd9\xce\xf7\x17o@'
p118
tp119
Rp120
ag10
(g14
S'0\xdfO\x8d\x97\xc6n@'
p121
tp122
Rp123
ag10
(g14
S'2^\xbaI\x0c^p@'
p124
tp125
Rp126
ag10
(g14
S'\xfc*\x87\x16\xd9.q@'
p127
tp128
Rp129
ag10
(g14
S'\x08+\x87\x16\xd9\xc6l@'
p130
tp131
Rp132
ag10
(g14
S'p\x93\x18\x04V\xd8n@'
p133
tp134
Rp135
ag10
(g14
S'\xb0\xf1\xd2Mbpm@'
p136
tp137
Rp138
asssss.