(dp0
S'../Data/sqlite_32.csv'
p1
(dp2
S'../Data/sqlite_65.csv'
p3
(dp4
F0.3
(dp5
S'abs_res'
p6
(dp7
S'bellwether'
p8
(lp9
cnumpy.core.multiarray
scalar
p10
(cnumpy
dtype
p11
(S'f8'
p12
I0
I1
tp13
Rp14
(I3
S'<'
p15
NNNI-1
I-1
I0
tp16
bS'D\xe1z4\xf6.@A'
p17
tp18
Rp19
ag10
(g14
S'.\xb2\x9dOX1@A'
p20
tp21
Rp22
ag10
(g14
S'\x83\x95C{\xd8.@A'
p23
tp24
Rp25
ag10
(g14
S'\xc4K79\xfd-@A'
p26
tp27
Rp28
ag10
(g14
S'K7\x891\x041@A'
p29
tp30
Rp31
ag10
(g14
S'_\x10X\xe9\x041@A'
p32
tp33
Rp34
ag10
(g14
S'\x0c\x83\xc0\xea\xcb-@A'
p35
tp36
Rp37
ag10
(g14
S'Z\x0e-\x12z0@A'
p38
tp39
Rp40
ag10
(g14
S'&1\x08\xac\x80.@A'
p41
tp42
Rp43
ag10
(g14
S'y\xe9&\xf1\x961@A'
p44
tp45
Rp46
ag10
(g14
S'\xbct\x938#.@A'
p47
tp48
Rp49
ag10
(g14
S'S9\xb4(p0@A'
p50
tp51
Rp52
ag10
(g14
S'\x9d\x1a/MF1@A'
p53
tp54
Rp55
ag10
(g14
S'q\x93\x18\xa4&.@A'
p56
tp57
Rp58
ag10
(g14
S'/\xdd$&\x840@A'
p59
tp60
Rp61
ag10
(g14
S'\xe7\xfb\xa91|0@A'
p62
tp63
Rp64
ag10
(g14
S'/\x08\xacLk1@A'
p65
tp66
Rp67
ag10
(g14
S'\x1d\x85\xeb\xc1{.@A'
p68
tp69
Rp70
ag10
(g14
S'\x9b\xef\xa7F\x061@A'
p71
tp72
Rp73
ag10
(g14
S'\xa0\x1a/\xdd\xde0@A'
p74
tp75
Rp76
asS'target'
p77
(lp78
g10
(g14
S'\x04\xd7\xa3p=\x12]@'
p79
tp80
Rp81
ag10
(g14
S'\xed&1\x08\xac\x8cU@'
p82
tp83
Rp84
ag10
(g14
S'\x91\xc2\xf5(\\\xa7U@'
p85
tp86
Rp87
ag10
(g14
S'bd;\xdfO\x85W@'
p88
tp89
Rp90
ag10
(g14
S'\x88\x95C\x8bl\xcbW@'
p91
tp92
Rp93
ag10
(g14
S'\xbb\xf3\xfd\xd4x\x91W@'
p94
tp95
Rp96
ag10
(g14
S'\x8bl\xe7\xfb\xa9\xd1X@'
p97
tp98
Rp99
ag10
(g14
S'y\xbe\x9f\x1a/mW@'
p100
tp101
Rp102
ag10
(g14
S'\x1b\xaeG\xe1z\\W@'
p103
tp104
Rp105
ag10
(g14
S"73333'Y@"
p106
tp107
Rp108
ag10
(g14
S'\x1c\x85\xebQ\xb8\xaaW@'
p109
tp110
Rp111
ag10
(g14
S'.\xdb\xf9~j\x94W@'
p112
tp113
Rp114
ag10
(g14
S'\xe4\xa3p=\n\xebV@'
p115
tp116
Rp117
ag10
(g14
S'Q\xb8\x1e\x85\xeb=X@'
p118
tp119
Rp120
ag10
(g14
S'\x9f\x99\x99\x99\x99\xd5V@'
p121
tp122
Rp123
ag10
(g14
S'+1\x08\xac\x1c\xd2X@'
p124
tp125
Rp126
ag10
(g14
S'\xfbU\x0e-\xb2\x19V@'
p127
tp128
Rp129
ag10
(g14
S'[ffff\xbeW@'
p130
tp131
Rp132
ag10
(g14
S'\xfe\xd4x\xe9&aX@'
p133
tp134
Rp135
ag10
(g14
S'nh\x91\xed|\x87V@'
p136
tp137
Rp138
asssss.