(dp0
S'../Data/sqlite_66.csv'
p1
(dp2
S'../Data/sqlite_2.csv'
p3
(dp4
F0.2
(dp5
S'abs_res'
p6
(dp7
S'bellwether'
p8
(lp9
cnumpy.core.multiarray
scalar
p10
(cnumpy
dtype
p11
(S'f8'
p12
I0
I1
tp13
Rp14
(I3
S'<'
p15
NNNI-1
I-1
I0
tp16
bS'\xbbt\x93\x18D%!A'
p17
tp18
Rp19
ag10
(g14
S'V\x1d\x13\xbcx&!A'
p20
tp21
Rp22
ag10
(g14
S'\xf3\x0c\xbbBz%!A'
p23
tp24
Rp25
ag10
(g14
S'+\x08\xac\x9c\xc0&!A'
p26
tp27
Rp28
ag10
(g14
S'\xe5\xb4\x81\xce\xc8%!A'
p29
tp30
Rp31
ag10
(g14
S'\xb8\x904\xe5=&!A'
p32
tp33
Rp34
ag10
(g14
S'\xdd\xfb\xa9\xf1S&!A'
p35
tp36
Rp37
ag10
(g14
S'v\xe9&\xb1V&!A'
p38
tp39
Rp40
ag10
(g14
S'PFo\x0b\xda&!A'
p41
tp42
Rp43
ag10
(g14
S"Fb\x10X;'!A"
p44
tp45
Rp46
ag10
(g14
S"\xb6-k5<'!A"
p47
tp48
Rp49
ag10
(g14
S"\xa8rhQ1'!A"
p50
tp51
Rp52
ag10
(g14
S"}\xdck\xee\x0b'!A"
p53
tp54
Rp55
ag10
(g14
S"\xc4v\xbe\x1f('!A"
p56
tp57
Rp58
ag10
(g14
S'8\x89A`\x18&!A'
p59
tp60
Rp61
ag10
(g14
S'\xc3v\xbe\x1fT&!A'
p62
tp63
Rp64
ag10
(g14
S"\xea\xdf\x08\xe59'!A"
p65
tp66
Rp67
ag10
(g14
S'o!i\x8a\xab%!A'
p68
tp69
Rp70
ag10
(g14
S'\xe3\xdf\x08%\xa1&!A'
p71
tp72
Rp73
ag10
(g14
S'\x8cl\xe7{r&!A'
p74
tp75
Rp76
asS'target'
p77
(lp78
g10
(g14
S'\x90\x97n\x12\x83\x90R@'
p79
tp80
Rp81
ag10
(g14
S'j=\n\xd7\xa3\xb0P@'
p82
tp83
Rp84
ag10
(g14
S'\xaa\xf1\xd2Mb\xb8Q@'
p85
tp86
Rp87
ag10
(g14
S'\xfe\xd4x\xe9&\xd9Q@'
p88
tp89
Rp90
ag10
(g14
S'\xa5\x9b\xc4 \xb0NQ@'
p91
tp92
Rp93
ag10
(g14
S'\xe1z\x14\xaeG\x05Q@'
p94
tp95
Rp96
ag10
(g14
S'\xa0\x99\x99\x99\x99\xa9O@'
p97
tp98
Rp99
ag10
(g14
S'\xe5O\x8d\x97n\xf2O@'
p100
tp101
Rp102
ag10
(g14
S'\xc3\xf5(\\\x8f\x96Q@'
p103
tp104
Rp105
ag10
(g14
S'\xd7\xa3p=\n\xcfP@'
p106
tp107
Rp108
ag10
(g14
S'\x8b\xc0\xca\xa1E\x06M@'
p109
tp110
Rp111
ag10
(g14
S'>\x89A`\xe5<R@'
p112
tp113
Rp114
ag10
(g14
S'\xc5\xa1E\xb6\xf3uS@'
p115
tp116
Rp117
ag10
(g14
S'V\xe3\xa5\x9b\xc4\xe8P@'
p118
tp119
Rp120
ag10
(g14
S'\x1a\x06\x81\x95C{O@'
p121
tp122
Rp123
ag10
(g14
S'\x9d\xc6K7\x89\x19N@'
p124
tp125
Rp126
ag10
(g14
S'u=\n\xd7\xa3\xa8S@'
p127
tp128
Rp129
ag10
(g14
S'`\x10X9\xb4LR@'
p130
tp131
Rp132
ag10
(g14
S'dffff\xc6N@'
p133
tp134
Rp135
ag10
(g14
S'\x00\xac\x1cZd\xbbO@'
p136
tp137
Rp138
asssss.