(dp0
S'../Data/sqlite_9.csv'
p1
(dp2
S'../Data/sqlite_59.csv'
p3
(dp4
F0.15
(dp5
S'mmre'
p6
(dp7
S'bellwether'
p8
(lp9
cnumpy.core.multiarray
scalar
p10
(cnumpy
dtype
p11
(S'f8'
p12
I0
I1
tp13
Rp14
(I3
S'<'
p15
NNNI-1
I-1
I0
tp16
bS"\xe3\xe9\xd0'\xe7+W@"
p17
tp18
Rp19
ag10
(g14
S'N\xf2\xf9z\xdb,W@'
p20
tp21
Rp22
ag10
(g14
S'\x00\xbd\xa6\x9c\xce+W@'
p23
tp24
Rp25
ag10
(g14
S'3\xcf\x1dB4.W@'
p26
tp27
Rp28
ag10
(g14
S'kOef -W@'
p29
tp30
Rp31
ag10
(g14
S'C\xb6\xdfd\xfd-W@'
p32
tp33
Rp34
ag10
(g14
S'\xb3Y\xc1\x97=-W@'
p35
tp36
Rp37
ag10
(g14
S'\x08++6G,W@'
p38
tp39
Rp40
ag10
(g14
S'~\x006sv-W@'
p41
tp42
Rp43
ag10
(g14
S'\xcb\xa7\xfdH\x05-W@'
p44
tp45
Rp46
ag10
(g14
S'\x94(Y \xd3+W@'
p47
tp48
Rp49
ag10
(g14
S'F\xcb\x10;\xf0,W@'
p50
tp51
Rp52
ag10
(g14
S'|C\x108\xf6,W@'
p53
tp54
Rp55
ag10
(g14
S'\xaf\x17\xa7=\xf1,W@'
p56
tp57
Rp58
ag10
(g14
S'\xfey\xd8\xe9\xdc-W@'
p59
tp60
Rp61
ag10
(g14
S'9\xc5`j~,W@'
p62
tp63
Rp64
ag10
(g14
S'+w\xed\xe4\x19-W@'
p65
tp66
Rp67
ag10
(g14
S'd\xdb\xa7\x16g.W@'
p68
tp69
Rp70
ag10
(g14
S'\x81\x15\t\xd5\xe3+W@'
p71
tp72
Rp73
ag10
(g14
S'6\x01>+\x1a-W@'
p74
tp75
Rp76
asS'target'
p77
(lp78
g10
(g14
S'\xdce\xc6\xce\xa9\n(@'
p79
tp80
Rp81
ag10
(g14
S'\x95/W\x13k\x1e&@'
p82
tp83
Rp84
ag10
(g14
S'y\x14\xa1u\xcc!&@'
p85
tp86
Rp87
ag10
(g14
S'm\x8b\xcb\x0e6\xdb%@'
p88
tp89
Rp90
ag10
(g14
S'\xe8\x11\xc3\x0e\xaaq%@'
p91
tp92
Rp93
ag10
(g14
S'\xcd\xb5\xad5\xc8\xf2#@'
p94
tp95
Rp96
ag10
(g14
S'\xb5\xfb6\xc2\x816&@'
p97
tp98
Rp99
ag10
(g14
S"\xd9\x9a\xf8\x19\x07>'@"
p100
tp101
Rp102
ag10
(g14
S'\x80\x8e\xbe\xe2g3$@'
p103
tp104
Rp105
ag10
(g14
S'\xcd\x9f\xde\x1dW-(@'
p106
tp107
Rp108
ag10
(g14
S"\x1c\xe5\xdd,\xf1\xef'@"
p109
tp110
Rp111
ag10
(g14
S'\xae\xf1\xf5\t\xb5X&@'
p112
tp113
Rp114
ag10
(g14
S'\xe5V2\xc4\x15n%@'
p115
tp116
Rp117
ag10
(g14
S'w\xe2\x99\xda\xd3\xf3$@'
p118
tp119
Rp120
ag10
(g14
S'\x13\xda\x90t\xb9C$@'
p121
tp122
Rp123
ag10
(g14
S'z\x0f\x9f\xdf\xc7-&@'
p124
tp125
Rp126
ag10
(g14
S'\x16\xd6\xcb\xf8\xb8c&@'
p127
tp128
Rp129
ag10
(g14
S"\xedeT\x7f(M'@"
p130
tp131
Rp132
ag10
(g14
S"\x80gHWDP'@"
p133
tp134
Rp135
ag10
(g14
S'z1C\xb9M\x06(@'
p136
tp137
Rp138
asssss.