(dp0
S'../Data/sqlite_75.csv'
p1
(dp2
S'../Data/sqlite_62.csv'
p3
(dp4
F0.05
(dp5
S'mmre'
p6
(dp7
S'bellwether'
p8
(lp9
cnumpy.core.multiarray
scalar
p10
(cnumpy
dtype
p11
(S'f8'
p12
I0
I1
tp13
Rp14
(I3
S'<'
p15
NNNI-1
I-1
I0
tp16
bS'\xc6\xbbQ\xd0\x10xN@'
p17
tp18
Rp19
ag10
(g14
S'\xf5\xbb\x01\x94\xb5vN@'
p20
tp21
Rp22
ag10
(g14
S'lf\x84\x00\x00vN@'
p23
tp24
Rp25
ag10
(g14
S'v\x05\x83\x05\xb4wN@'
p26
tp27
Rp28
ag10
(g14
S'\xec\x8c\xb37\xec}N@'
p29
tp30
Rp31
ag10
(g14
S'\xec(9\x91IwN@'
p32
tp33
Rp34
ag10
(g14
S'\x9f\xe2k60zN@'
p35
tp36
Rp37
ag10
(g14
S'W[\x7fl\xc7}N@'
p38
tp39
Rp40
ag10
(g14
S'X]D|\xd4yN@'
p41
tp42
Rp43
ag10
(g14
S'\x9a\xb7\xa7\x89\xffyN@'
p44
tp45
Rp46
ag10
(g14
S'\r\x11!>\x14|N@'
p47
tp48
Rp49
ag10
(g14
S'\xc2\xad"\xb3\\{N@'
p50
tp51
Rp52
ag10
(g14
S'\xfa\\}yxvN@'
p53
tp54
Rp55
ag10
(g14
S'\xc4\xccT\xe4\x9b{N@'
p56
tp57
Rp58
ag10
(g14
S'A\xf0Q\x98=zN@'
p59
tp60
Rp61
ag10
(g14
S'u~\x1bfItN@'
p62
tp63
Rp64
ag10
(g14
S'\xa6h\xea\xfd\xc8|N@'
p65
tp66
Rp67
ag10
(g14
S'\xda(7S\x92zN@'
p68
tp69
Rp70
ag10
(g14
S'#\xaa\xd6\xe9\x05}N@'
p71
tp72
Rp73
ag10
(g14
S'#\xd8\\\xf5?~N@'
p74
tp75
Rp76
asS'target'
p77
(lp78
g10
(g14
S'R\xa9,\x17q\xb2#@'
p79
tp80
Rp81
ag10
(g14
S'D\xba\x0b\xd5B\x0b"@'
p82
tp83
Rp84
ag10
(g14
S'\xad\x8ad\xe8v\x19"@'
p85
tp86
Rp87
ag10
(g14
S'\x8a\xc6\x94M*\x8c$@'
p88
tp89
Rp90
ag10
(g14
S'\x13n\'\x9a-\xad"@'
p91
tp92
Rp93
ag10
(g14
S'\xeb?\x9b\nh\xde$@'
p94
tp95
Rp96
ag10
(g14
S'\x9bi \xcda\xe3\x1d@'
p97
tp98
Rp99
ag10
(g14
S'Eni\xb03\xc7 @'
p100
tp101
Rp102
ag10
(g14
S'\x95\x83v*\xcf\xdb$@'
p103
tp104
Rp105
ag10
(g14
S'C`(\xcf\x85\x89#@'
p106
tp107
Rp108
ag10
(g14
S'\xd1\x17\xb9\x9c\x96\xec\x1f@'
p109
tp110
Rp111
ag10
(g14
S'N\x97]<\xa4\x83\x1f@'
p112
tp113
Rp114
ag10
(g14
S'\xcc@Q\x98Yf#@'
p115
tp116
Rp117
ag10
(g14
S'\xa9\xc4\x1d:\x86\xc1"@'
p118
tp119
Rp120
ag10
(g14
S'\x07\xee{\x1d\x07\x96!@'
p121
tp122
Rp123
ag10
(g14
S'\xa7d+\x11\xd3\x94#@'
p124
tp125
Rp126
ag10
(g14
S'\xc3\x90t\xb6\xfc\xba @'
p127
tp128
Rp129
ag10
(g14
S'\x8b\r\xa0\xe7\x8dm!@'
p130
tp131
Rp132
ag10
(g14
S'}\x8fDk\xe5\x19 @'
p133
tp134
Rp135
ag10
(g14
S'=8:\xf7\x91|!@'
p136
tp137
Rp138
asssss.