(dp0
S'../Data/sqlite_39.csv'
p1
(dp2
S'../Data/sqlite_76.csv'
p3
(dp4
F0.3
(dp5
S'mmre'
p6
(dp7
S'bellwether'
p8
(lp9
cnumpy.core.multiarray
scalar
p10
(cnumpy
dtype
p11
(S'f8'
p12
I0
I1
tp13
Rp14
(I3
S'<'
p15
NNNI-1
I-1
I0
tp16
bS'1\x02\xe23\xefIo@'
p17
tp18
Rp19
ag10
(g14
S'\x80\xabO\xe5oyo@'
p20
tp21
Rp22
ag10
(g14
S'\xe9\x07t\xddQ\\o@'
p23
tp24
Rp25
ag10
(g14
S'\xb6\x90\xc5\xfa\xd5{o@'
p26
tp27
Rp28
ag10
(g14
S')\xae<j0yo@'
p29
tp30
Rp31
ag10
(g14
S'L\xb8\x914\xca\x83o@'
p32
tp33
Rp34
ag10
(g14
S'6\xe1;\xe5\x13\x84o@'
p35
tp36
Rp37
ag10
(g14
S'\x9a\xae\xf65^2o@'
p38
tp39
Rp40
ag10
(g14
S'\xe4\xc0U\xdb\xc9Uo@'
p41
tp42
Rp43
ag10
(g14
S'\xe6\xd3\x0b\xb6\x01@o@'
p44
tp45
Rp46
ag10
(g14
S'`u2\xbda^o@'
p47
tp48
Rp49
ag10
(g14
S'\xb3\xc9\xa4\xcc\xa1Go@'
p50
tp51
Rp52
ag10
(g14
S'VdI\xcbsvo@'
p53
tp54
Rp55
ag10
(g14
S'\xd5\\\xa9\xf9@bo@'
p56
tp57
Rp58
ag10
(g14
S' E\x1es/mo@'
p59
tp60
Rp61
ag10
(g14
S'dg\xa3,Dqo@'
p62
tp63
Rp64
ag10
(g14
S'\xb6\xac\xd4\x85\xe6Po@'
p65
tp66
Rp67
ag10
(g14
S'\x8b\xb9\xb6\xbc\\\x83o@'
p68
tp69
Rp70
ag10
(g14
S'\xf4_a\x86\xdfbo@'
p71
tp72
Rp73
ag10
(g14
S'd\xd1gh\x8fko@'
p74
tp75
Rp76
asS'target'
p77
(lp78
g10
(g14
S'e$\x13y\xe6\xa51@'
p79
tp80
Rp81
ag10
(g14
S'\xaf\xcb|\xdbQ\xdd0@'
p82
tp83
Rp84
ag10
(g14
S'\x17\x7f\x01E\xda.1@'
p85
tp86
Rp87
ag10
(g14
S'}S\xe0\xf6V\x871@'
p88
tp89
Rp90
ag10
(g14
S'\xe4\x9es\xb4\x86\xd60@'
p91
tp92
Rp93
ag10
(g14
S'\xe4\xa1\rN\xc7\x151@'
p94
tp95
Rp96
ag10
(g14
S'\x93\x9d-\xdc\x91h1@'
p97
tp98
Rp99
ag10
(g14
S'\xca-\x16\xec\xc311@'
p100
tp101
Rp102
ag10
(g14
S'\n\x06\x1f\xb5\xaaS1@'
p103
tp104
Rp105
ag10
(g14
S'\xf8\xac\xc5z\x17\x980@'
p106
tp107
Rp108
ag10
(g14
S'U\xc5\xe9\xa5\x83r1@'
p109
tp110
Rp111
ag10
(g14
S'\xf0J\x9b}e\x172@'
p112
tp113
Rp114
ag10
(g14
S'\t\xad\x96\x9e(\xad0@'
p115
tp116
Rp117
ag10
(g14
S'\xa2\x13&k7\xbf0@'
p118
tp119
Rp120
ag10
(g14
S'p\xa9\x81i\x97.2@'
p121
tp122
Rp123
ag10
(g14
S'QWX:&\x101@'
p124
tp125
Rp126
ag10
(g14
S'\x94\xe4\x07\x9bMu1@'
p127
tp128
Rp129
ag10
(g14
S'f\\\x93x@\xfa1@'
p130
tp131
Rp132
ag10
(g14
S'W\xafum\t\x071@'
p133
tp134
Rp135
ag10
(g14
S'0\xb23\xf7f\xbc0@'
p136
tp137
Rp138
asssss.