(dp0
S'../Data/sqlite_36.csv'
p1
(dp2
S'../Data/sqlite_90.csv'
p3
(dp4
F0.35
(dp5
S'mmre'
p6
(dp7
S'bellwether'
p8
(lp9
cnumpy.core.multiarray
scalar
p10
(cnumpy
dtype
p11
(S'f8'
p12
I0
I1
tp13
Rp14
(I3
S'<'
p15
NNNI-1
I-1
I0
tp16
bS'@\xb2\xe5v2.X@'
p17
tp18
Rp19
ag10
(g14
S'l\x1d\xd8\xd4}4X@'
p20
tp21
Rp22
ag10
(g14
S'\xf3\xbc\xd1\x10\xe29X@'
p23
tp24
Rp25
ag10
(g14
S'\x89\x94\xe3%"7X@'
p26
tp27
Rp28
ag10
(g14
S'\xa5"\xec\x06U4X@'
p29
tp30
Rp31
ag10
(g14
S'C\x9d:\xe8\xdc<X@'
p32
tp33
Rp34
ag10
(g14
S'\xe4|r\x01\xc40X@'
p35
tp36
Rp37
ag10
(g14
S'\xf4\x1b\x08\xbc\xf20X@'
p38
tp39
Rp40
ag10
(g14
S'\xd4\x1c$\xe8\xc2;X@'
p41
tp42
Rp43
ag10
(g14
S'\x00\xfd\x91L{4X@'
p44
tp45
Rp46
ag10
(g14
S'~\xca##\xe18X@'
p47
tp48
Rp49
ag10
(g14
S'\x0e\xd5[Z\xed:X@'
p50
tp51
Rp52
ag10
(g14
S'h{\x17\xf873X@'
p53
tp54
Rp55
ag10
(g14
S'e\x0fTc\xa1@X@'
p56
tp57
Rp58
ag10
(g14
S'\x07\x1c\xa7<y5X@'
p59
tp60
Rp61
ag10
(g14
S'V\xa4\x84`\xe98X@'
p62
tp63
Rp64
ag10
(g14
S'\x9bG8\xde\x165X@'
p65
tp66
Rp67
ag10
(g14
S'%\xc1\xa2\xdf\x817X@'
p68
tp69
Rp70
ag10
(g14
S'\x9eMs\xfe\xbb5X@'
p71
tp72
Rp73
ag10
(g14
S'Q\xb1\x99\\\xb69X@'
p74
tp75
Rp76
asS'target'
p77
(lp78
g10
(g14
S'\xb2\xf4\xef\xad3\x15C@'
p79
tp80
Rp81
ag10
(g14
S'[\x18d\xbd\x14\xe9@@'
p82
tp83
Rp84
ag10
(g14
S'\xb4\xa4\x9dX\xd8p@@'
p85
tp86
Rp87
ag10
(g14
S'\x82\xe3\xa3\x98\xd8\xf1B@'
p88
tp89
Rp90
ag10
(g14
S'S%\xd7\x03A{B@'
p91
tp92
Rp93
ag10
(g14
S'\xdb\x05~\xca\x07>A@'
p94
tp95
Rp96
ag10
(g14
S'\xd0y\xa2\xcaZ\xc2B@'
p97
tp98
Rp99
ag10
(g14
S'S\x8f[8\x11\xf9B@'
p100
tp101
Rp102
ag10
(g14
S"9\x9eC')\x19@@"
p103
tp104
Rp105
ag10
(g14
S'(\x8aB\xeb\x1b%B@'
p106
tp107
Rp108
ag10
(g14
S'\xed!Y\xe8\xc9{@@'
p109
tp110
Rp111
ag10
(g14
S'B2*\xfad\x1c@@'
p112
tp113
Rp114
ag10
(g14
S'\xb3\x8b\xbcN$bA@'
p115
tp116
Rp117
ag10
(g14
S'\x8d\xfbww\xbc\xf0=@'
p118
tp119
Rp120
ag10
(g14
S'SL\xae\xe2\x08\xaeA@'
p121
tp122
Rp123
ag10
(g14
S'\xe0\xb1p-\x8e\xf6?@'
p124
tp125
Rp126
ag10
(g14
S'/k\xecP\xe5SA@'
p127
tp128
Rp129
ag10
(g14
S'\x18\xb1V}\x10\xd5@@'
p130
tp131
Rp132
ag10
(g14
S'\xff\xf7:\xe7\xef\x18A@'
p133
tp134
Rp135
ag10
(g14
S'\x8e#>&m\x9d@@'
p136
tp137
Rp138
asssss.