(dp0
S'../Data/sqlite_1.csv'
p1
(dp2
S'../Data/sqlite_6.csv'
p3
(dp4
F0.1
(dp5
S'abs_res'
p6
(dp7
S'bellwether'
p8
(lp9
cnumpy.core.multiarray
scalar
p10
(cnumpy
dtype
p11
(S'f8'
p12
I0
I1
tp13
Rp14
(I3
S'<'
p15
NNNI-1
I-1
I0
tp16
bS'\x11X9\xc4\x89"AA'
p17
tp18
Rp19
ag10
(g14
S"v=\n'\xb8#AA"
p20
tp21
Rp22
ag10
(g14
S'I\xe1zT\x11#AA'
p23
tp24
Rp25
ag10
(g14
S'\x9e\x1a/\xed\x90#AA'
p26
tp27
Rp28
ag10
(g14
S'q\x12\x83\x001#AA'
p29
tp30
Rp31
ag10
(g14
S';33\xb3\x1d#AA'
p32
tp33
Rp34
ag10
(g14
S'\xbf\xca\xa1E]#AA'
p35
tp36
Rp37
ag10
(g14
S'0$MY5#AA'
p38
tp39
Rp40
ag10
(g14
S'.\xf9\xc5B\xd3"AA'
p41
tp42
Rp43
ag10
(g14
S'\xb2\xf1\xd2}!#AA'
p44
tp45
Rp46
ag10
(g14
S'$/\xddD,#AA'
p47
tp48
Rp49
ag10
(g14
S'v\xe7\xfbY\xba#AA'
p50
tp51
Rp52
ag10
(g14
S'\xd7\xea\x98\xd0\xad#AA'
p53
tp54
Rp55
ag10
(g14
S'\x7f\xc0\xcaQP#AA'
p56
tp57
Rp58
ag10
(g14
S'-\xb2\x9d_3#AA'
p59
tp60
Rp61
ag10
(g14
S'R\x0e-\x12\x1f#AA'
p62
tp63
Rp64
ag10
(g14
S'CQ\xff\x86\xf0"AA'
p65
tp66
Rp67
ag10
(g14
S'\x1aK~\x11`#AA'
p68
tp69
Rp70
ag10
(g14
S'\x9eE\xb6C\xd2"AA'
p71
tp72
Rp73
ag10
(g14
S'\xd6Mb`c#AA'
p74
tp75
Rp76
asS'target'
p77
(lp78
g10
(g14
S'hffff\xb0t@'
p79
tp80
Rp81
ag10
(g14
S'C\x8bl\xe7\xfb\x1ds@'
p82
tp83
Rp84
ag10
(g14
S'43333\xe5r@'
p85
tp86
Rp87
ag10
(g14
S'\xb0\xf1\xd2Mb*t@'
p88
tp89
Rp90
ag10
(g14
S'\xd9O\x8d\x97n*u@'
p91
tp92
Rp93
ag10
(g14
S'\x88\x97n\x12\x83Ls@'
p94
tp95
Rp96
ag10
(g14
S'\xd5\xcc\xcc\xcc\xcc\xe2r@'
p97
tp98
Rp99
ag10
(g14
S'p\xbe\x9f\x1a/\xebs@'
p100
tp101
Rp102
ag10
(g14
S'\xf4\xd2Mb\x100t@'
p103
tp104
Rp105
ag10
(g14
S'\x99\x18\x04V\x0e\x08r@'
p106
tp107
Rp108
ag10
(g14
S'\x9c\x99\x99\x99\x99\x95s@'
p109
tp110
Rp111
ag10
(g14
S'h;\xdfO\x8d\x7fr@'
p112
tp113
Rp114
ag10
(g14
S'\xdc$\x06\x81\x95\xb7s@'
p115
tp116
Rp117
ag10
(g14
S'(\xdb\xf9~j\x02t@'
p118
tp119
Rp120
ag10
(g14
S'\x91C\x8bl\xe7_u@'
p121
tp122
Rp123
ag10
(g14
S'\x07+\x87\x16\xd9Bs@'
p124
tp125
Rp126
ag10
(g14
S'^\xbaI\x0c\x02Iw@'
p127
tp128
Rp129
ag10
(g14
S'\x02\xd5x\xe9&Ot@'
p130
tp131
Rp132
ag10
(g14
S'O7\x89A`\xfbq@'
p133
tp134
Rp135
ag10
(g14
S'\x14-\xb2\x9d\xef\xfbu@'
p136
tp137
Rp138
asssss.