(dp0
S'../Data/sqlite_35.csv'
p1
(dp2
S'../Data/sqlite_63.csv'
p3
(dp4
F0.05
(dp5
S'mmre'
p6
(dp7
S'bellwether'
p8
(lp9
cnumpy.core.multiarray
scalar
p10
(cnumpy
dtype
p11
(S'f8'
p12
I0
I1
tp13
Rp14
(I3
S'<'
p15
NNNI-1
I-1
I0
tp16
bS'\xb3+\x11\xdax*K@'
p17
tp18
Rp19
ag10
(g14
S'\x9b2\xe2`\x17%K@'
p20
tp21
Rp22
ag10
(g14
S'\x99\xb56h\xa5-K@'
p23
tp24
Rp25
ag10
(g14
S'e\xcc\xbeL\xa4+K@'
p26
tp27
Rp28
ag10
(g14
S'=\xb34\xad=+K@'
p29
tp30
Rp31
ag10
(g14
S'd\xd26\x99\x91,K@'
p32
tp33
Rp34
ag10
(g14
S'\'\xf3\x00\xa6"%K@'
p35
tp36
Rp37
ag10
(g14
S'P\x890;\xa5(K@'
p38
tp39
Rp40
ag10
(g14
S'\x91\xf8\xe5\xcd\x7f%K@'
p41
tp42
Rp43
ag10
(g14
S'DG\x83\xc3\xa5-K@'
p44
tp45
Rp46
ag10
(g14
S'\x07\xf5O*\x03 K@'
p47
tp48
Rp49
ag10
(g14
S']\x86c\xa1<,K@'
p50
tp51
Rp52
ag10
(g14
S'hp!hg#K@'
p53
tp54
Rp55
ag10
(g14
S'\x0b\xa8\xa0\xe0\x93(K@'
p56
tp57
Rp58
ag10
(g14
S'\x01D\x0b6++K@'
p59
tp60
Rp61
ag10
(g14
S'k\xd0\xb8\x96\x0f&K@'
p62
tp63
Rp64
ag10
(g14
S'\xdfO[\xfd\xbe$K@'
p65
tp66
Rp67
ag10
(g14
S'\x0c=2\xb7\xc7!K@'
p68
tp69
Rp70
ag10
(g14
S'D\xf3(\x95\t,K@'
p71
tp72
Rp73
ag10
(g14
S'C\xc3\xcd\xa2\x93*K@'
p74
tp75
Rp76
asS'target'
p77
(lp78
g10
(g14
S'}\x01w~O\x13#@'
p79
tp80
Rp81
ag10
(g14
S'\x18\x94\xa5\x1d\xc4\xaa#@'
p82
tp83
Rp84
ag10
(g14
S'\x8f\x87\xfd[\x8fT!@'
p85
tp86
Rp87
ag10
(g14
S'\xbfWIz\x18\xd4 @'
p88
tp89
Rp90
ag10
(g14
S'\xc5\xf0\xe4(\x16\x17!@'
p91
tp92
Rp93
ag10
(g14
S'd:@E7\xc4"@'
p94
tp95
Rp96
ag10
(g14
S'\rC\xf1\xe9\x97N!@'
p97
tp98
Rp99
ag10
(g14
S'x\x7f\xb3}\xb7\'"@'
p100
tp101
Rp102
ag10
(g14
S'\x02Y\xdb\xb9\xfbB"@'
p103
tp104
Rp105
ag10
(g14
S'LF7\xe2\x8c\xcd"@'
p106
tp107
Rp108
ag10
(g14
S'\xb8p\x92^R\xea"@'
p109
tp110
Rp111
ag10
(g14
S'9\xa6\x18\xad\xe3\x97!@'
p112
tp113
Rp114
ag10
(g14
S'\x11\x87)\xca\x12\x1e%@'
p115
tp116
Rp117
ag10
(g14
S'\nQN[\xa2\xf0!@'
p118
tp119
Rp120
ag10
(g14
S']gt\xa4U\x19!@'
p121
tp122
Rp123
ag10
(g14
S'>\x92\x93\xf0\x9b\x81#@'
p124
tp125
Rp126
ag10
(g14
S'\t\x1c\xf9\xc9Z\xe3$@'
p127
tp128
Rp129
ag10
(g14
S'\xad\x1b 9\xb6\xfb!@'
p130
tp131
Rp132
ag10
(g14
S'\xde\xf4i\x8f1o!@'
p133
tp134
Rp135
ag10
(g14
S'jY\xd5\x10\x0f\xbe"@'
p136
tp137
Rp138
asssss.