(dp0
S'../Data/sqlite_18.csv'
p1
(dp2
S'../Data/sqlite_0.csv'
p3
(dp4
F0.15
(dp5
S'abs_res'
p6
(dp7
S'bellwether'
p8
(lp9
cnumpy.core.multiarray
scalar
p10
(cnumpy
dtype
p11
(S'f8'
p12
I0
I1
tp13
Rp14
(I3
S'<'
p15
NNNI-1
I-1
I0
tp16
bS'?5^\xeaNt@A'
p17
tp18
Rp19
ag10
(g14
S'\xbf\x9f\x1a\xaf\xa7s@A'
p20
tp21
Rp22
ag10
(g14
S'\xd2\xce\xf7c\xa7s@A'
p23
tp24
Rp25
ag10
(g14
S'\x1d\x94\xd1\xdb7t@A'
p26
tp27
Rp28
ag10
(g14
S'~\x95CK\xf7s@A'
p29
tp30
Rp31
ag10
(g14
S'\xa8\xc6K\x97\xeat@A'
p32
tp33
Rp34
ag10
(g14
S'\x832z\xeb\x8es@A'
p35
tp36
Rp37
ag10
(g14
S'\xa1E\xb6S\x92s@A'
p38
tp39
Rp40
ag10
(g14
S'\xea|?\x958t@A'
p41
tp42
Rp43
ag10
(g14
S'\x0f-\xb2\x9d\x99s@A'
p44
tp45
Rp46
ag10
(g14
S'\x19v\x05\x98*t@A'
p47
tp48
Rp49
ag10
(g14
S'5B\x19\x1d+t@A'
p50
tp51
Rp52
ag10
(g14
S'\xde\xdd\xddm>t@A'
p53
tp54
Rp55
ag10
(g14
S'`\xbaI\xac;t@A'
p56
tp57
Rp58
ag10
(g14
S'\xe4B\xd2\xd4Xt@A'
p59
tp60
Rp61
ag10
(g14
S'\x82N\x1bh%t@A'
p62
tp63
Rp64
ag10
(g14
S'\xb5\x9d\xefG\xd6s@A'
p65
tp66
Rp67
ag10
(g14
S'\n\x1e\xcc\x83\x03t@A'
p68
tp69
Rp70
ag10
(g14
S'\xaeG\xe1j\xdes@A'
p71
tp72
Rp73
ag10
(g14
S'v\xbe\x9f\xca\xa8t@A'
p74
tp75
Rp76
asS'target'
p77
(lp78
g10
(g14
S'\xee|?5^\x92f@'
p79
tp80
Rp81
ag10
(g14
S'u\xe7\xfb\xa9\xf1\x92f@'
p82
tp83
Rp84
ag10
(g14
S'\xeeQ\xb8\x1e\x85\x8bf@'
p85
tp86
Rp87
ag10
(g14
S'!\x06\x81\x95C\xbdg@'
p88
tp89
Rp90
ag10
(g14
S'jh\x91\xed|\x1bh@'
p91
tp92
Rp93
ag10
(g14
S'\x86\x16\xd9\xce\xf7\xc3g@'
p94
tp95
Rp96
ag10
(g14
S'>5^\xbaI\x9eg@'
p97
tp98
Rp99
ag10
(g14
S'\xc0I\x0c\x02+\xabg@'
p100
tp101
Rp102
ag10
(g14
S'\xe9\xd0"\xdb\xf9ne@'
p103
tp104
Rp105
ag10
(g14
S'F^\xbaI\x0c\x0ee@'
p106
tp107
Rp108
ag10
(g14
S'\x9an\x12\x83\xc0\x02f@'
p109
tp110
Rp111
ag10
(g14
S'\xb2rh\x91\xed\xb0g@'
p112
tp113
Rp114
ag10
(g14
S'bd;\xdfO5g@'
p115
tp116
Rp117
ag10
(g14
S'}\x14\xaeG\xe1df@'
p118
tp119
Rp120
ag10
(g14
S'fd;\xdfOkf@'
p121
tp122
Rp123
ag10
(g14
S'J\xb6\xf3\xfd\xd4jg@'
p124
tp125
Rp126
ag10
(g14
S'\xf0|?5^rh@'
p127
tp128
Rp129
ag10
(g14
S'\xb3rh\x91\xed\xe8h@'
p130
tp131
Rp132
ag10
(g14
S'\x04V\x0e-\xb2me@'
p133
tp134
Rp135
ag10
(g14
S'\xffS\xe3\xa5\x9b\xa4f@'
p136
tp137
Rp138
asssss.