(dp0
S'../Data/sqlite_62.csv'
p1
(dp2
S'../Data/sqlite_59.csv'
p3
(dp4
F0.05
(dp5
S'mmre'
p6
(dp7
S'bellwether'
p8
(lp9
cnumpy.core.multiarray
scalar
p10
(cnumpy
dtype
p11
(S'f8'
p12
I0
I1
tp13
Rp14
(I3
S'<'
p15
NNNI-1
I-1
I0
tp16
bS'\x1e\x18\xd9Ox9@@'
p17
tp18
Rp19
ag10
(g14
S'\xdca\x11\xe3,K@@'
p20
tp21
Rp22
ag10
(g14
S'\xa5=N\x91\x903@@'
p23
tp24
Rp25
ag10
(g14
S'\x11u\xae\xa9\xd65@@'
p26
tp27
Rp28
ag10
(g14
S'V_E8\xfdP@@'
p29
tp30
Rp31
ag10
(g14
S'\xffr\xdf\r\xaaH@@'
p32
tp33
Rp34
ag10
(g14
S'\x98\xdb \x1c4;@@'
p35
tp36
Rp37
ag10
(g14
S'\x19\xd2\xba\xa2dN@@'
p38
tp39
Rp40
ag10
(g14
S"\x1a\xe2\xd5\xbcq'@@"
p41
tp42
Rp43
ag10
(g14
S'\x08\x0c\x18\x8c\x0cC@@'
p44
tp45
Rp46
ag10
(g14
S'\xa2\x94W5\x87E@@'
p47
tp48
Rp49
ag10
(g14
S'\x18\xbd\x9d\x01\xa76@@'
p50
tp51
Rp52
ag10
(g14
S'\xee\xbd\xfeg\xf21@@'
p53
tp54
Rp55
ag10
(g14
S'U[\xbba\xbeA@@'
p56
tp57
Rp58
ag10
(g14
S'J\x85\xed\xdb\xa0C@@'
p59
tp60
Rp61
ag10
(g14
S'\xec\xb8W\xe4h)@@'
p62
tp63
Rp64
ag10
(g14
S'\xe06\x94\xf4\xebC@@'
p65
tp66
Rp67
ag10
(g14
S'\xb4L>\x07\xf7B@@'
p68
tp69
Rp70
ag10
(g14
S'\x8fp\t3jE@@'
p71
tp72
Rp73
ag10
(g14
S'\xbd!\xfd`ZX@@'
p74
tp75
Rp76
asS'target'
p77
(lp78
g10
(g14
S'\xd2\xb52L\t\x0b"@'
p79
tp80
Rp81
ag10
(g14
S'\x99$\xca=C\xc2&@'
p82
tp83
Rp84
ag10
(g14
S'\x07kCl\xf5?&@'
p85
tp86
Rp87
ag10
(g14
S'x\th\xabY\x08#@'
p88
tp89
Rp90
ag10
(g14
S'\xccF\xd1I\xd8\xcf(@'
p91
tp92
Rp93
ag10
(g14
S'\n\x99\xd2\xe1\x83\xe1$@'
p94
tp95
Rp96
ag10
(g14
S'?\x86/\xf6\xf0\xbc)@'
p97
tp98
Rp99
ag10
(g14
S'\xd9\xd4)\xe2\xa98#@'
p100
tp101
Rp102
ag10
(g14
S'\x93V\x1eh\xb5\x85#@'
p103
tp104
Rp105
ag10
(g14
S'F\xcb\x16yI9)@'
p106
tp107
Rp108
ag10
(g14
S"\x95\x1c\xcdV\xa6\x11'@"
p109
tp110
Rp111
ag10
(g14
S'~\xbdKz\xb6"(@'
p112
tp113
Rp114
ag10
(g14
S'l>6\xd2^2&@'
p115
tp116
Rp117
ag10
(g14
S'aeP\xba\xfa\xcc%@'
p118
tp119
Rp120
ag10
(g14
S'#l\x94t\xf9\x17%@'
p121
tp122
Rp123
ag10
(g14
S'\x86\xb1H\xf7G\xfd#@'
p124
tp125
Rp126
ag10
(g14
S'#F\x06\xcb\xb3\t#@'
p127
tp128
Rp129
ag10
(g14
S'\xcd\x14Z\xd3\xa8J&@'
p130
tp131
Rp132
ag10
(g14
S'\xee\x16\x17\xb3\xd7\xf1(@'
p133
tp134
Rp135
ag10
(g14
S'\x13\xb5e\x94\xd9\xac$@'
p136
tp137
Rp138
asssss.