(dp0
S'../Data/sqlite_32.csv'
p1
(dp2
S'../Data/sqlite_20.csv'
p3
(dp4
F0.25
(dp5
S'abs_res'
p6
(dp7
S'bellwether'
p8
(lp9
cnumpy.core.multiarray
scalar
p10
(cnumpy
dtype
p11
(S'f8'
p12
I0
I1
tp13
Rp14
(I3
S'<'
p15
NNNI-1
I-1
I0
tp16
bS'\xcdv\xbe\x7f\xa1;AA'
p17
tp18
Rp19
ag10
(g14
S'z?5\xbe\x9c8AA'
p20
tp21
Rp22
ag10
(g14
S'\t-\xb2\xfd\xfe;AA'
p23
tp24
Rp25
ag10
(g14
S'oh\x91M\x00;AA'
p26
tp27
Rp28
ag10
(g14
S'B\xe1z\x04M8AA'
p29
tp30
Rp31
ag10
(g14
S'?`\xe5\x10\xe9:AA'
p32
tp33
Rp34
ag10
(g14
S'\xd8\xce\xf7#P:AA'
p35
tp36
Rp37
ag10
(g14
S'\xee\xd2M\xd2D:AA'
p38
tp39
Rp40
ag10
(g14
S'\xe4\xa5\x9bt\x069AA'
p41
tp42
Rp43
ag10
(g14
S'5^\xba\xd9\x03;AA'
p44
tp45
Rp46
ag10
(g14
S'\x8bA`\xd5\x99:AA'
p47
tp48
Rp49
ag10
(g14
S'\xefQ\xb8\x9e-;AA'
p50
tp51
Rp52
ag10
(g14
S'8\xb4\xc8V\xd9:AA'
p53
tp54
Rp55
ag10
(g14
S'\x9b\xc4 \x00\xa6;AA'
p56
tp57
Rp58
ag10
(g14
S'\xe5\xd0"\xdbI;AA'
p59
tp60
Rp61
ag10
(g14
S'\xa8\x1cZD<:AA'
p62
tp63
Rp64
ag10
(g14
S'H\xe1z4e:AA'
p65
tp66
Rp67
ag10
(g14
S'C`\xe5\x80\xf9:AA'
p68
tp69
Rp70
ag10
(g14
S'\xa3\xf1\xd2]\xfc9AA'
p71
tp72
Rp73
ag10
(g14
S'\xb6\xf3\xfd\xe4\x8c;AA'
p74
tp75
Rp76
asS'target'
p77
(lp78
g10
(g14
S'\xe4\xd0"\xdb\xf9\xcan@'
p79
tp80
Rp81
ag10
(g14
S'Y\x8f\xc2\xf5(uq@'
p82
tp83
Rp84
ag10
(g14
S'\xc0\x9f\x1a/\xdd\np@'
p85
tp86
Rp87
ag10
(g14
S'L7\x89A`\x19o@'
p88
tp89
Rp90
ag10
(g14
S'\x0eX9\xb4\xc8\x02p@'
p91
tp92
Rp93
ag10
(g14
S'@5^\xbaI<p@'
p94
tp95
Rp96
ag10
(g14
S'6^\xbaI\x0cZp@'
p97
tp98
Rp99
ag10
(g14
S'\x12\x83\xc0\xca\xa1\x0ep@'
p100
tp101
Rp102
ag10
(g14
S'g\xe5\xd0"\xdbIn@'
p103
tp104
Rp105
ag10
(g14
S't\x14\xaeG\xe1vo@'
p106
tp107
Rp108
ag10
(g14
S'-\\\x8f\xc2\xf5\x00p@'
p109
tp110
Rp111
ag10
(g14
S'"\xb0rh\x91\xd8p@'
p112
tp113
Rp114
ag10
(g14
S'\x06\xac\x1cZdaq@'
p115
tp116
Rp117
ag10
(g14
S'\xff\xab\x1cZd\xefq@'
p118
tp119
Rp120
ag10
(g14
S'\xb6\x1e\x85\xebQ;q@'
p121
tp122
Rp123
ag10
(g14
S'\xfc\xa9\xf1\xd2M~p@'
p124
tp125
Rp126
ag10
(g14
S'\x10X9\xb4\xc8\x1bp@'
p127
tp128
Rp129
ag10
(g14
S'\x91\x97n\x12\x83\xa6o@'
p130
tp131
Rp132
ag10
(g14
S'd\x91\xed|?\xcfn@'
p133
tp134
Rp135
ag10
(g14
S'h;\xdfO\x8dup@'
p136
tp137
Rp138
asssss.