(dp0
S'../Data/sqlite_56.csv'
p1
(dp2
S'../Data/sqlite_59.csv'
p3
(dp4
F0.4
(dp5
S'mmre'
p6
(dp7
S'bellwether'
p8
(lp9
cnumpy.core.multiarray
scalar
p10
(cnumpy
dtype
p11
(S'f8'
p12
I0
I1
tp13
Rp14
(I3
S'<'
p15
NNNI-1
I-1
I0
tp16
bS'\xc2\xce#\tW}C@'
p17
tp18
Rp19
ag10
(g14
S'ZW\n\x0cn\\C@'
p20
tp21
Rp22
ag10
(g14
S'\x82^N\xb7~0C@'
p23
tp24
Rp25
ag10
(g14
S'\xb4\xf6\x97\x1e\xe5KC@'
p26
tp27
Rp28
ag10
(g14
S'O*)a\x0esC@'
p29
tp30
Rp31
ag10
(g14
S'\xf1\xc0\xcb*\x02[C@'
p32
tp33
Rp34
ag10
(g14
S's<6?\xa6tC@'
p35
tp36
Rp37
ag10
(g14
S'\xff\x8dmQ\xbf^C@'
p38
tp39
Rp40
ag10
(g14
S'\x1ab\tHlIC@'
p41
tp42
Rp43
ag10
(g14
S'Sq\xa6\xcb/TC@'
p44
tp45
Rp46
ag10
(g14
S']\x12}K\x91kC@'
p47
tp48
Rp49
ag10
(g14
S'\x073\x80\xe62}C@'
p50
tp51
Rp52
ag10
(g14
S'~\xdd1\xd5pZC@'
p53
tp54
Rp55
ag10
(g14
S'\xb9>\x9e\xd2{VC@'
p56
tp57
Rp58
ag10
(g14
S'1}#\xe4|CC@'
p59
tp60
Rp61
ag10
(g14
S'AW{\x8e\x12^C@'
p62
tp63
Rp64
ag10
(g14
S"\xd6'\xabk\x13FC@"
p65
tp66
Rp67
ag10
(g14
S'F&\xaf\x1f\xe0aC@'
p68
tp69
Rp70
ag10
(g14
S'\xef\x1c\xf4a\xfeWC@'
p71
tp72
Rp73
ag10
(g14
S'\xa9\xad9#\xcfaC@'
p74
tp75
Rp76
asS'target'
p77
(lp78
g10
(g14
S'k\xb6\xcefog%@'
p79
tp80
Rp81
ag10
(g14
S"\xae\xb8\x94<X\x12'@"
p82
tp83
Rp84
ag10
(g14
S'\xf5\xf5z\x81i\xd1&@'
p85
tp86
Rp87
ag10
(g14
S'\xe8\x1eW(\xb2\xb1%@'
p88
tp89
Rp90
ag10
(g14
S'\x97C\xed\xa0\x14\xe2$@'
p91
tp92
Rp93
ag10
(g14
S'\xbf=\xf0\xe0\x03\xa7&@'
p94
tp95
Rp96
ag10
(g14
S'=w?cY\xa2%@'
p97
tp98
Rp99
ag10
(g14
S's\xd9\xb2V\t\xaf%@'
p100
tp101
Rp102
ag10
(g14
S'\x90\xa9s\xc4\xa7\x7f&@'
p103
tp104
Rp105
ag10
(g14
S'p&w\x1d\x0e\xb8%@'
p106
tp107
Rp108
ag10
(g14
S'W\xebL\xd0\xc4?&@'
p109
tp110
Rp111
ag10
(g14
S'\xff\x0b|\xe0\xa2=%@'
p112
tp113
Rp114
ag10
(g14
S"\xa0\x94v\xab\n\x92'@"
p115
tp116
Rp117
ag10
(g14
S'6\xba\x9f\xda|\xcc%@'
p118
tp119
Rp120
ag10
(g14
S'n\x92>\x98\x96\xe6&@'
p121
tp122
Rp123
ag10
(g14
S'\x91\x1b\x05\xd1\x8f\x9b$@'
p124
tp125
Rp126
ag10
(g14
S'4\xa8i\xb2S\xcc&@'
p127
tp128
Rp129
ag10
(g14
S'\xcfm\x136\xe9\x8a&@'
p130
tp131
Rp132
ag10
(g14
S'\x81j\xa0\xc2xJ&@'
p133
tp134
Rp135
ag10
(g14
S'\x8b\x15umd\xee&@'
p136
tp137
Rp138
asssss.