(dp0
S'../Data/sqlite_4.csv'
p1
(dp2
S'../Data/sqlite_36.csv'
p3
(dp4
F0.35
(dp5
S'abs_res'
p6
(dp7
S'bellwether'
p8
(lp9
cnumpy.core.multiarray
scalar
p10
(cnumpy
dtype
p11
(S'f8'
p12
I0
I1
tp13
Rp14
(I3
S'<'
p15
NNNI-1
I-1
I0
tp16
bS'\x03\xd5x\x89\x84_9A'
p17
tp18
Rp19
ag10
(g14
S'\xab\xf1\xd2m\xb0^9A'
p20
tp21
Rp22
ag10
(g14
S'\x94\xc2\xf5\xa8\x02]9A'
p23
tp24
Rp25
ag10
(g14
S'\xf2o\x84\xf2\xe3`9A'
p26
tp27
Rp28
ag10
(g14
S'\x9e6\xd0i\x92_9A'
p29
tp30
Rp31
ag10
(g14
S'z\xda@gT_9A'
p32
tp33
Rp34
ag10
(g14
S'\xe8z\x14NW`9A'
p35
tp36
Rp37
ag10
(g14
S"'x0/\xd0_9A"
p38
tp39
Rp40
ag10
(g14
S'^H\x9a\xd2\xd0^9A'
p41
tp42
Rp43
ag10
(g14
S'\x91\xc2\xf5h\xea^9A'
p44
tp45
Rp46
ag10
(g14
S')\xa3\xb7%Ha9A'
p47
tp48
Rp49
ag10
(g14
S'\xfeF(CN_9A'
p50
tp51
Rp52
ag10
(g14
S'Q\xe1z\x94\xf4_9A'
p53
tp54
Rp55
ag10
(g14
S'(\\\x8fb\xf3]9A'
p56
tp57
Rp58
ag10
(g14
S'_s!I\x00^9A'
p59
tp60
Rp61
ag10
(g14
S'\x17\xaeG\xe1\xf3`9A'
p62
tp63
Rp64
ag10
(g14
S'\xf0\x98\xe0\x81\x0c^9A'
p65
tp66
Rp67
ag10
(g14
S'\xcd\x13\xf5\x8f\xc2\\9A'
p68
tp69
Rp70
ag10
(g14
S'\xeb\n\x90\x9b\xef^9A'
p71
tp72
Rp73
ag10
(g14
S'\x16IS\xca\xc1^9A'
p74
tp75
Rp76
asS'target'
p77
(lp78
g10
(g14
S'L7\x89A`\x05T@'
p79
tp80
Rp81
ag10
(g14
S'\x1a\xb0rh\x91EQ@'
p82
tp83
Rp84
ag10
(g14
S'y\x14\xaeG\xe1\x82R@'
p85
tp86
Rp87
ag10
(g14
S'\xec\xfd\xd4x\xe9\x9eS@'
p88
tp89
Rp90
ag10
(g14
S'\xfcS\xe3\xa5\x9b`R@'
p91
tp92
Rp93
ag10
(g14
S'=\xdfO\x8d\x97VS@'
p94
tp95
Rp96
ag10
(g14
S':\n\xd7\xa3p\xadQ@'
p97
tp98
Rp99
ag10
(g14
S'O7\x89A`\xe5R@'
p100
tp101
Rp102
ag10
(g14
S'\x04V\x0e-\xb2IR@'
p103
tp104
Rp105
ag10
(g14
S'I(\xa3\xb7eES@'
p106
tp107
Rp108
ag10
(g14
S'\x1d\xb0rh\x91\x9dR@'
p109
tp110
Rp111
ag10
(g14
S'\xc4\xcc\xcc\xcc\xcc\\S@'
p112
tp113
Rp114
ag10
(g14
S't\x93\x18\x04V\xeeS@'
p115
tp116
Rp117
ag10
(g14
S'\r\xd7\xa3p=\xeeR@'
p118
tp119
Rp120
ag10
(g14
S'\xc6v\xbe\x9f\x1a\xe3R@'
p121
tp122
Rp123
ag10
(g14
S'\xd3\xf7S\xe3\xa5\x9fR@'
p124
tp125
Rp126
ag10
(g14
S'O\x8d\x97n\x12\xb3R@'
p127
tp128
Rp129
ag10
(g14
S'\x94\xc2\xf5(\\\x07T@'
p130
tp131
Rp132
ag10
(g14
S'\xa5\x1a/\xdd$\x1eR@'
p133
tp134
Rp135
ag10
(g14
S'o\xe7\xfb\xa9\xf1:S@'
p136
tp137
Rp138
asssss.