(dp0
S'../Data/sqlite_12.csv'
p1
(dp2
S'../Data/sqlite_84.csv'
p3
(dp4
F0.35
(dp5
S'mmre'
p6
(dp7
S'bellwether'
p8
(lp9
cnumpy.core.multiarray
scalar
p10
(cnumpy
dtype
p11
(S'f8'
p12
I0
I1
tp13
Rp14
(I3
S'<'
p15
NNNI-1
I-1
I0
tp16
bS'\xce\x04\xaa\x186\x16u@'
p17
tp18
Rp19
ag10
(g14
S'\xbdv\xf1\xe3\xa7#u@'
p20
tp21
Rp22
ag10
(g14
S'\x19.\xd2\xfa!au@'
p23
tp24
Rp25
ag10
(g14
S'Rb\x9eWADu@'
p26
tp27
Rp28
ag10
(g14
S'\xfa\x0f\xdbU\x82\x11u@'
p29
tp30
Rp31
ag10
(g14
S';\xec`!L\xect@'
p32
tp33
Rp34
ag10
(g14
S'D4\xf7\xe6\x18\x05u@'
p35
tp36
Rp37
ag10
(g14
S'\x88fD\xe0\xfe\xe8t@'
p38
tp39
Rp40
ag10
(g14
S'\x97v\x1d6X\xb9t@'
p41
tp42
Rp43
ag10
(g14
S'Tf\x86\xbbpou@'
p44
tp45
Rp46
ag10
(g14
S'e\x86\xc8\xf1p7u@'
p47
tp48
Rp49
ag10
(g14
S'Twr!cnu@'
p50
tp51
Rp52
ag10
(g14
S'\x1b\x1d\x92\x9c\xaa\xd5t@'
p53
tp54
Rp55
ag10
(g14
S'>\xe1>\xd7:\\u@'
p56
tp57
Rp58
ag10
(g14
S'|/\xba\x9a\xc0Ku@'
p59
tp60
Rp61
ag10
(g14
S"\n\x14f\x81'\x0fu@"
p62
tp63
Rp64
ag10
(g14
S'{\x9a\xcb\x806\xbct@'
p65
tp66
Rp67
ag10
(g14
S'\xcf\xbcZ\xa7h\x00u@'
p68
tp69
Rp70
ag10
(g14
S'\xd0$\xcb$b\x00u@'
p71
tp72
Rp73
ag10
(g14
S'\xe5S\xd4$!\x04u@'
p74
tp75
Rp76
asS'target'
p77
(lp78
g10
(g14
S'\x00\x84.\xfa\x98EO@'
p79
tp80
Rp81
ag10
(g14
S'\xa0\xa6p\x1dg\x02Y@'
p82
tp83
Rp84
ag10
(g14
S'\xf6\r\x11\xd89mN@'
p85
tp86
Rp87
ag10
(g14
S'|iI^\xc0\xbdP@'
p88
tp89
Rp90
ag10
(g14
S'\x1e\xbe\x01\x1f\'"V@'
p91
tp92
Rp93
ag10
(g14
S'\x83T\xd3:Q\xd7Q@'
p94
tp95
Rp96
ag10
(g14
S'C\x10\x9b5zqP@'
p97
tp98
Rp99
ag10
(g14
S'\xdf\t@d\xd3\xd2P@'
p100
tp101
Rp102
ag10
(g14
S'\xc2\xcbW\xe7\xcb\xb2J@'
p103
tp104
Rp105
ag10
(g14
S' \xb6\xce\xb2\xea\xf5P@'
p106
tp107
Rp108
ag10
(g14
S'N\xbdu\xb4\xdboJ@'
p109
tp110
Rp111
ag10
(g14
S'\x99\t\xd0\xb8\x9apT@'
p112
tp113
Rp114
ag10
(g14
S'\xc1\x15\x15r\xb8;J@'
p115
tp116
Rp117
ag10
(g14
S'\xa0C7\x8f\xb8\xa6Q@'
p118
tp119
Rp120
ag10
(g14
S'\x16T&1;BG@'
p121
tp122
Rp123
ag10
(g14
S'\xfb\x8f\xd31\x01jO@'
p124
tp125
Rp126
ag10
(g14
S'2\xd3\xe8wkBJ@'
p127
tp128
Rp129
ag10
(g14
S'\x03",<\xff2Q@'
p130
tp131
Rp132
ag10
(g14
S'\x05q!\xe9_OL@'
p133
tp134
Rp135
ag10
(g14
S"nq\x98'\xc1yC@"
p136
tp137
Rp138
asssss.