(dp0
S'../Data/sqlite_34.csv'
p1
(dp2
S'../Data/sqlite_97.csv'
p3
(dp4
F0.35
(dp5
S'mmre'
p6
(dp7
S'bellwether'
p8
(lp9
cnumpy.core.multiarray
scalar
p10
(cnumpy
dtype
p11
(S'f8'
p12
I0
I1
tp13
Rp14
(I3
S'<'
p15
NNNI-1
I-1
I0
tp16
bS'Vty5\x83\x18R@'
p17
tp18
Rp19
ag10
(g14
S'\xfb:\x19\xb17!R@'
p20
tp21
Rp22
ag10
(g14
S'm\xa4\xbf\xf2&8R@'
p23
tp24
Rp25
ag10
(g14
S'\xbfNw\x94\xef\x0fR@'
p26
tp27
Rp28
ag10
(g14
S'\t\xecL6\xf4AR@'
p29
tp30
Rp31
ag10
(g14
S'CY\x9aj\xff\nR@'
p32
tp33
Rp34
ag10
(g14
S'\x94\xb1:\xca\xe1\x0cR@'
p35
tp36
Rp37
ag10
(g14
S'\x1d\xfc7\x16L+R@'
p38
tp39
Rp40
ag10
(g14
S'"\xd6\xb1Gs#R@'
p41
tp42
Rp43
ag10
(g14
S'RQ\xef\xbc\x85\x1eR@'
p44
tp45
Rp46
ag10
(g14
S'\xba\x19\x01VP\x1bR@'
p47
tp48
Rp49
ag10
(g14
S' X\xb8\xd9l/R@'
p50
tp51
Rp52
ag10
(g14
S'[\xfa\xad\x88\xe4\x14R@'
p53
tp54
Rp55
ag10
(g14
S"\x15\xb2\x8d-G'R@"
p56
tp57
Rp58
ag10
(g14
S'.\x1c\xdf\xec\xe4"R@'
p59
tp60
Rp61
ag10
(g14
S'\xe9\xc6\xf5IS*R@'
p62
tp63
Rp64
ag10
(g14
S's\xacm8\x80\x1bR@'
p65
tp66
Rp67
ag10
(g14
S'\xa3`\xd8\x92\x8d\x14R@'
p68
tp69
Rp70
ag10
(g14
S'R\xee7\xc3\xcf\x1eR@'
p71
tp72
Rp73
ag10
(g14
S'\x92$\x05\xe2\x04\x1fR@'
p74
tp75
Rp76
asS'target'
p77
(lp78
g10
(g14
S'\xbe!\x9d-\xaa\xc2Z@'
p79
tp80
Rp81
ag10
(g14
S'f\xe1H75\xb6U@'
p82
tp83
Rp84
ag10
(g14
S'\xd1\xcb,:I\xd6N@'
p85
tp86
Rp87
ag10
(g14
S'\xc3L k\xe9\xfaU@'
p88
tp89
Rp90
ag10
(g14
S'\x93YctG\tE@'
p91
tp92
Rp93
ag10
(g14
S'\xf6\xde\x19U\x0c\x97T@'
p94
tp95
Rp96
ag10
(g14
S'om\x97Eg>Z@'
p97
tp98
Rp99
ag10
(g14
S'#q3\x06R_V@'
p100
tp101
Rp102
ag10
(g14
S'4\x8a\xa43Z\xb8[@'
p103
tp104
Rp105
ag10
(g14
S'lL\xd9\x11\xdf\x19X@'
p106
tp107
Rp108
ag10
(g14
S'n6\x0b`\xa1\x1aV@'
p109
tp110
Rp111
ag10
(g14
S'-\x850\xe2MYL@'
p112
tp113
Rp114
ag10
(g14
S'C\xb90\xd3\xbeeZ@'
p115
tp116
Rp117
ag10
(g14
S'\nd\x0f[*\x1cV@'
p118
tp119
Rp120
ag10
(g14
S'\xc5\x81\xd7\xe4\xa3\xb1]@'
p121
tp122
Rp123
ag10
(g14
S'gDY\xa9\xb4sZ@'
p124
tp125
Rp126
ag10
(g14
S'\x0f\xac\xabul\xb3[@'
p127
tp128
Rp129
ag10
(g14
S'\xbaY\xb8yH\xb7[@'
p130
tp131
Rp132
ag10
(g14
S'e7\x11\xc3\x89UP@'
p133
tp134
Rp135
ag10
(g14
S'\xaa,\xda+\xdcYV@'
p136
tp137
Rp138
asssss.