(dp0
S'../Data/sqlite_78.csv'
p1
(dp2
S'../Data/sqlite_94.csv'
p3
(dp4
F0.2
(dp5
S'mmre'
p6
(dp7
S'bellwether'
p8
(lp9
cnumpy.core.multiarray
scalar
p10
(cnumpy
dtype
p11
(S'f8'
p12
I0
I1
tp13
Rp14
(I3
S'<'
p15
NNNI-1
I-1
I0
tp16
bS'H\xaaD%\xcdfX@'
p17
tp18
Rp19
ag10
(g14
S'\xf1\xd6\x13\x14\x13eX@'
p20
tp21
Rp22
ag10
(g14
S'\x89\xf0\x9a\x8b\x7fgX@'
p23
tp24
Rp25
ag10
(g14
S'\xee\xab\x9a\x1f\x11gX@'
p26
tp27
Rp28
ag10
(g14
S'\xf5\\\x82\xae\xc0fX@'
p29
tp30
Rp31
ag10
(g14
S'\x9d\x9d[~\x1efX@'
p32
tp33
Rp34
ag10
(g14
S'\t\xd4\xc0\x99\xe7fX@'
p35
tp36
Rp37
ag10
(g14
S'\xf3\x07Y\x9bWgX@'
p38
tp39
Rp40
ag10
(g14
S'\xef@\xc0\xd4@gX@'
p41
tp42
Rp43
ag10
(g14
S'e9N\x06\x9cgX@'
p44
tp45
Rp46
ag10
(g14
S'qOC\x02\xf7fX@'
p47
tp48
Rp49
ag10
(g14
S'\x14\x17\x0f\xb1\xa7fX@'
p50
tp51
Rp52
ag10
(g14
S'\x8c\x1c\x19\xf6kgX@'
p53
tp54
Rp55
ag10
(g14
S'\x80\xba\x98\xb7\x82gX@'
p56
tp57
Rp58
ag10
(g14
S'\xf8\x03\xb3\x04ffX@'
p59
tp60
Rp61
ag10
(g14
S'B\xd1eVHhX@'
p62
tp63
Rp64
ag10
(g14
S'\xbf3\xa1\xa1\xd4fX@'
p65
tp66
Rp67
ag10
(g14
S'W\xb0I\xff\x82fX@'
p68
tp69
Rp70
ag10
(g14
S'\x1a\xb1\xc3"\\gX@'
p71
tp72
Rp73
ag10
(g14
S'\x88\x14\xb45kgX@'
p74
tp75
Rp76
asS'target'
p77
(lp78
g10
(g14
S'l\xcfE\x06\xf9\x05S@'
p79
tp80
Rp81
ag10
(g14
S'y6\x13\x07(\x1eU@'
p82
tp83
Rp84
ag10
(g14
S'/-=\xd0[WN@'
p85
tp86
Rp87
ag10
(g14
S'\xe8\xba\x08\xf2\xc1\x03J@'
p88
tp89
Rp90
ag10
(g14
S'l\xc4\xe6TsYM@'
p91
tp92
Rp93
ag10
(g14
S'N\x1cW\x11\xfd\xacX@'
p94
tp95
Rp96
ag10
(g14
S'J\x96E%\xc6\xc3M@'
p97
tp98
Rp99
ag10
(g14
S'\xd6_|\xa9N\xacM@'
p100
tp101
Rp102
ag10
(g14
S'>\xbd\xa3\xec\xba-S@'
p103
tp104
Rp105
ag10
(g14
S'4,\x94k\xf6\xadR@'
p106
tp107
Rp108
ag10
(g14
S"\x90h&'v\xf6R@"
p109
tp110
Rp111
ag10
(g14
S'\xcc\rV!\x98\x91H@'
p112
tp113
Rp114
ag10
(g14
S'\xd7\xf4\x15?\xca\xd6M@'
p115
tp116
Rp117
ag10
(g14
S'\xacaA"o\xa5Q@'
p118
tp119
Rp120
ag10
(g14
S'\x13o\x05XiWQ@'
p121
tp122
Rp123
ag10
(g14
S'\xc6\xb0\x97#\xea\xfdQ@'
p124
tp125
Rp126
ag10
(g14
S'\x11\xa2zl\x9aIR@'
p127
tp128
Rp129
ag10
(g14
S'$N\xc0/J[X@'
p130
tp131
Rp132
ag10
(g14
S'L\xc7K\xcb\xcc\x91S@'
p133
tp134
Rp135
ag10
(g14
S'\x1f\xedaP\xa3?X@'
p136
tp137
Rp138
asssss.