(dp0
S'../Data/sqlite_95.csv'
p1
(dp2
S'../Data/sqlite_8.csv'
p3
(dp4
F0.35
(dp5
S'abs_res'
p6
(dp7
S'bellwether'
p8
(lp9
cnumpy.core.multiarray
scalar
p10
(cnumpy
dtype
p11
(S'f8'
p12
I0
I1
tp13
Rp14
(I3
S'<'
p15
NNNI-1
I-1
I0
tp16
bS':\xdfO\xedp\xfd2A'
p17
tp18
Rp19
ag10
(g14
S'@\xdfO\xad\x7fH3A'
p20
tp21
Rp22
ag10
(g14
S'}\xda@\x87\xf4\xd42A'
p23
tp24
Rp25
ag10
(g14
S'\x0e\xf3D\xfd\x16/3A'
p26
tp27
Rp28
ag10
(g14
S'\xe8\xc1<\x91h\x163A'
p29
tp30
Rp31
ag10
(g14
S'\xeb\x98\xe0\xa1\x0f\x1d3A'
p32
tp33
Rp34
ag10
(g14
S'7&x\xd0v;3A'
p35
tp36
Rp37
ag10
(g14
S'\xcf\xa1E\xb6#M3A'
p38
tp39
Rp40
ag10
(g14
S'\xc0K7\xa9\xed\t3A'
p41
tp42
Rp43
ag10
(g14
S'7z[\xd6\xb7J3A'
p44
tp45
Rp46
ag10
(g14
S'c\x01r\xafT\x163A'
p47
tp48
Rp49
ag10
(g14
S'H5^\x1a\xb8M3A'
p50
tp51
Rp52
ag10
(g14
S'y\xda@\xe7!33A'
p53
tp54
Rp55
ag10
(g14
S'\xeaB\xd2\xb4X\xe82A'
p56
tp57
Rp58
ag10
(g14
S'&"""\xc323A'
p59
tp60
Rp61
ag10
(g14
S'\xd4\x15 \xf7\xa3T3A'
p62
tp63
Rp64
ag10
(g14
S'\x89\xa4)\xf5h@3A'
p65
tp66
Rp67
ag10
(g14
S'\x92\x18\x04\xf6b"3A'
p68
tp69
Rp70
ag10
(g14
S'\xb5\x0f\x9f\xc1\x9803A'
p71
tp72
Rp73
ag10
(g14
S'\xf8|?5\x13<3A'
p74
tp75
Rp76
asS'target'
p77
(lp78
g10
(g14
S'\xfa\xa9\xf1\xd2M\x82R@'
p79
tp80
Rp81
ag10
(g14
S'\xe0\x96\xb5:&hT@'
p82
tp83
Rp84
ag10
(g14
S'\x97\x18\x04V\x0e}S@'
p85
tp86
Rp87
ag10
(g14
S'(\x87\x16\xd9\xcesT@'
p88
tp89
Rp90
ag10
(g14
S':`\xe5\xd0"\xcbS@'
p91
tp92
Rp93
ag10
(g14
S'\x12\xd9\xce\xf7S\x87S@'
p94
tp95
Rp96
ag10
(g14
S'\xb5\xc8v\xbe\x9fNS@'
p97
tp98
Rp99
ag10
(g14
S'\xbb\x9f\x1a/\xdd\x9cU@'
p100
tp101
Rp102
ag10
(g14
S'\xc5K7\x89A\x90T@'
p103
tp104
Rp105
ag10
(g14
S'\xe0\xf9~j\xbc<U@'
p106
tp107
Rp108
ag10
(g14
S'Y\x0e-\xb2\x9dcS@'
p109
tp110
Rp111
ag10
(g14
S'X\x8f\xc2\xf5(\x88V@'
p112
tp113
Rp114
ag10
(g14
S'g;\xdfO\x8d\x9bW@'
p115
tp116
Rp117
ag10
(g14
S'M7\x89A`\x81S@'
p118
tp119
Rp120
ag10
(g14
S'\t\xd7\xa3p=\xfaS@'
p121
tp122
Rp123
ag10
(g14
S'|j\xbct\x93 T@'
p124
tp125
Rp126
ag10
(g14
S'F7\x89A`\xc5R@'
p127
tp128
Rp129
ag10
(g14
S'C|\x86]\x01nU@'
p130
tp131
Rp132
ag10
(g14
S'j\x10X9\xb4\xecS@'
p133
tp134
Rp135
ag10
(g14
S'\x1bZd;\xdf{U@'
p136
tp137
Rp138
asssss.