(dp0
S'../Data/sqlite_23.csv'
p1
(dp2
S'../Data/sqlite_73.csv'
p3
(dp4
F0.2
(dp5
S'mmre'
p6
(dp7
S'bellwether'
p8
(lp9
cnumpy.core.multiarray
scalar
p10
(cnumpy
dtype
p11
(S'f8'
p12
I0
I1
tp13
Rp14
(I3
S'<'
p15
NNNI-1
I-1
I0
tp16
bS'\x99r\xec\xff\xc01W@'
p17
tp18
Rp19
ag10
(g14
S'\x83,\xfd\xb1\xdf1W@'
p20
tp21
Rp22
ag10
(g14
S'\x8aw\xa5xG1W@'
p23
tp24
Rp25
ag10
(g14
S'\xa9$\x04\x1a\x0f3W@'
p26
tp27
Rp28
ag10
(g14
S'\rl\xd2/\xfb1W@'
p29
tp30
Rp31
ag10
(g14
S'b\xbe\xfd\x98\xde0W@'
p32
tp33
Rp34
ag10
(g14
S"\x0ek\x86'\xfb0W@"
p35
tp36
Rp37
ag10
(g14
S'\xe1:a\x03\xe91W@'
p38
tp39
Rp40
ag10
(g14
S'\xc7\x0fx\xa791W@'
p41
tp42
Rp43
ag10
(g14
S'\xf6&\xbdW\xef2W@'
p44
tp45
Rp46
ag10
(g14
S'~\xc2Ea\xa32W@'
p47
tp48
Rp49
ag10
(g14
S'\xdcN\x1f\xdc\x042W@'
p50
tp51
Rp52
ag10
(g14
S'\xb85om\x882W@'
p53
tp54
Rp55
ag10
(g14
S'\x04\n5\xb2\x852W@'
p56
tp57
Rp58
ag10
(g14
S'`B\xec\x8a\x953W@'
p59
tp60
Rp61
ag10
(g14
S'\x86\xfe\xaa\xe5_2W@'
p62
tp63
Rp64
ag10
(g14
S'\x193r\x85\xf01W@'
p65
tp66
Rp67
ag10
(g14
S'\xa5\xb2\xae\xdeb3W@'
p68
tp69
Rp70
ag10
(g14
S'~\x7f\xd9\x9b\xa42W@'
p71
tp72
Rp73
ag10
(g14
S'b\xf8\x8b|\x962W@'
p74
tp75
Rp76
asS'target'
p77
(lp78
g10
(g14
S'D\x17!0OM,@'
p79
tp80
Rp81
ag10
(g14
S'\xfb\xda\xa5\xb4|9+@'
p82
tp83
Rp84
ag10
(g14
S'^\xe6\xfa\x83\xb8\xb9,@'
p85
tp86
Rp87
ag10
(g14
S'\t\x08\xc7\x17R\xfc+@'
p88
tp89
Rp90
ag10
(g14
S'c[\xeb\x92\xa5\xfa)@'
p91
tp92
Rp93
ag10
(g14
S'9\xc23\xd5i\x93*@'
p94
tp95
Rp96
ag10
(g14
S'\xd7-5\xbd\x02/-@'
p97
tp98
Rp99
ag10
(g14
S'\xce\xc2E\xbf\xe4\xe3+@'
p100
tp101
Rp102
ag10
(g14
S't;6\xde\xbf\xe3-@'
p103
tp104
Rp105
ag10
(g14
S'F@!6fn*@'
p106
tp107
Rp108
ag10
(g14
S'n\x00J\x11\xd0\x04-@'
p109
tp110
Rp111
ag10
(g14
S"'\xbd\xde\xfb#\xb1+@"
p112
tp113
Rp114
ag10
(g14
S'4\xc0z1M7,@'
p115
tp116
Rp117
ag10
(g14
S'\xc1\xfc\xdc\x85v\xdd(@'
p118
tp119
Rp120
ag10
(g14
S'h\x0cHYc\xfa,@'
p121
tp122
Rp123
ag10
(g14
S'v\xdb=9\x08k+@'
p124
tp125
Rp126
ag10
(g14
S'\x0e\x9d\x05YY8,@'
p127
tp128
Rp129
ag10
(g14
S'JwA|\xc4\xc7)@'
p130
tp131
Rp132
ag10
(g14
S'm\xb8\xd5\x82\xd2\xe9+@'
p133
tp134
Rp135
ag10
(g14
S'S\xcc\x92\xed}&+@'
p136
tp137
Rp138
asssss.