(dp0
S'../Data/sqlite_50.csv'
p1
(dp2
S'../Data/sqlite_78.csv'
p3
(dp4
F0.1
(dp5
S'mmre'
p6
(dp7
S'bellwether'
p8
(lp9
cnumpy.core.multiarray
scalar
p10
(cnumpy
dtype
p11
(S'f8'
p12
I0
I1
tp13
Rp14
(I3
S'<'
p15
NNNI-1
I-1
I0
tp16
bS'\x02#\xaa\xdf.\x1fH@'
p17
tp18
Rp19
ag10
(g14
S'\xf5\xfcA\x92F.H@'
p20
tp21
Rp22
ag10
(g14
S'z\xe9>1\x17;H@'
p23
tp24
Rp25
ag10
(g14
S'\x1eK\xc5mx1H@'
p26
tp27
Rp28
ag10
(g14
S'U\x0bf\x9e\xa9$H@'
p29
tp30
Rp31
ag10
(g14
S's:\xa5\n\x03*H@'
p32
tp33
Rp34
ag10
(g14
S'\xe7\x9c\t\xafc$H@'
p35
tp36
Rp37
ag10
(g14
S'\x06[\xd4\x06\xd93H@'
p38
tp39
Rp40
ag10
(g14
S'\x84\x04\xfa\x8bX6H@'
p41
tp42
Rp43
ag10
(g14
S'\xcd\xad\x89CC4H@'
p44
tp45
Rp46
ag10
(g14
S'99\t\xbe@\x1cH@'
p47
tp48
Rp49
ag10
(g14
S'T\xb2\xe5\x93\x11<H@'
p50
tp51
Rp52
ag10
(g14
S'L\x0f\xfc\x15\xe9>H@'
p53
tp54
Rp55
ag10
(g14
S'\x84\xff\x12t\x97<H@'
p56
tp57
Rp58
ag10
(g14
S'\xee\x01\xdf\x82\x80>H@'
p59
tp60
Rp61
ag10
(g14
S'7J\x83Hh2H@'
p62
tp63
Rp64
ag10
(g14
S'7"\x93\x17v,H@'
p65
tp66
Rp67
ag10
(g14
S'\xcc\xce\xbd\xde].H@'
p68
tp69
Rp70
ag10
(g14
S'\xd2\x10A%u7H@'
p71
tp72
Rp73
ag10
(g14
S'08\xa7\xf2=/H@'
p74
tp75
Rp76
asS'target'
p77
(lp78
g10
(g14
S'\xc0xw\x00e\x025@'
p79
tp80
Rp81
ag10
(g14
S'\x00j\xe3\xce\xbcb3@'
p82
tp83
Rp84
ag10
(g14
S'\x93P5}\x92\x864@'
p85
tp86
Rp87
ag10
(g14
S'{4\xd5yi\xe91@'
p88
tp89
Rp90
ag10
(g14
S'\xe9+\x15\x04N\xe23@'
p91
tp92
Rp93
ag10
(g14
S'\x14\xf0\xeb\x91\xb1\x1b3@'
p94
tp95
Rp96
ag10
(g14
S',2\xc2\x16q\xea5@'
p97
tp98
Rp99
ag10
(g14
S'ty}=H\xf33@'
p100
tp101
Rp102
ag10
(g14
S'\x11\xdd\xcf\xed\xe2&2@'
p103
tp104
Rp105
ag10
(g14
S'&\xc4\xbc\xae\x1eO4@'
p106
tp107
Rp108
ag10
(g14
S'\xce\x8dG\xa3\xd363@'
p109
tp110
Rp111
ag10
(g14
S'-\xbb\xfb\x9d\x87\x804@'
p112
tp113
Rp114
ag10
(g14
S'*\x7fQ\x8f\x95i4@'
p115
tp116
Rp117
ag10
(g14
S'\x17\r<\x95\x8f\xe02@'
p118
tp119
Rp120
ag10
(g14
S'p!O\x95~\xb83@'
p121
tp122
Rp123
ag10
(g14
S'\x1e\xb9K/\xa4\x0b6@'
p124
tp125
Rp126
ag10
(g14
S'\x9b\xcf\x151\x1bb3@'
p127
tp128
Rp129
ag10
(g14
S'9&\x81i\xfd\xec2@'
p130
tp131
Rp132
ag10
(g14
S'1\xaf\x90\x8a\x84B3@'
p133
tp134
Rp135
ag10
(g14
S'q\x82\xf0\xb5\xd1\x085@'
p136
tp137
Rp138
asssss.