(dp0
S'../Data/sqlite_46.csv'
p1
(dp2
S'../Data/sqlite_56.csv'
p3
(dp4
F0.15
(dp5
S'abs_res'
p6
(dp7
S'bellwether'
p8
(lp9
cnumpy.core.multiarray
scalar
p10
(cnumpy
dtype
p11
(S'f8'
p12
I0
I1
tp13
Rp14
(I3
S'<'
p15
NNNI-1
I-1
I0
tp16
bS'\xc6K7\xa9\x86\\@A'
p17
tp18
Rp19
ag10
(g14
S'J\x0c\x02\x9bO[@A'
p20
tp21
Rp22
ag10
(g14
S'u\x14\xaewb\\@A'
p23
tp24
Rp25
ag10
(g14
S'N7\x89\xe1\x98\\@A'
p26
tp27
Rp28
ag10
(g14
S'\x97C\x8b\xac\x95[@A'
p29
tp30
Rp31
ag10
(g14
S'\x89\x97n\xa2\xd5[@A'
p32
tp33
Rp34
ag10
(g14
S'\xdd\xa3p}\xcb[@A'
p35
tp36
Rp37
ag10
(g14
S':\xb4\xc8V\xaa[@A'
p38
tp39
Rp40
ag10
(g14
S'\xa7\xc6KW\xd5[@A'
p41
tp42
Rp43
ag10
(g14
S"|?5\xde'\\@A"
p44
tp45
Rp46
ag10
(g14
S'\x9a\xc4 `\x84\\@A'
p47
tp48
Rp49
ag10
(g14
S'f;\xdf\xdf\xdf[@A'
p50
tp51
Rp52
ag10
(g14
S'\xa7\x9b\xc4\xa0\xb0[@A'
p53
tp54
Rp55
ag10
(g14
S'8\xb4\xc8\xb6\\\\@A'
p56
tp57
Rp58
ag10
(g14
S'\x82\xebQ\x88\r\\@A'
p59
tp60
Rp61
ag10
(g14
S"q=\n'&\\@A"
p62
tp63
Rp64
ag10
(g14
S'/33\x03\x00\\@A'
p65
tp66
Rp67
ag10
(g14
S'u\x93\x18\xf4w\\@A'
p68
tp69
Rp70
ag10
(g14
S'1^\xba\x99\xc5[@A'
p71
tp72
Rp73
ag10
(g14
S'\xfd\xd4x\xb9\x03\\@A'
p74
tp75
Rp76
asS'target'
p77
(lp78
g10
(g14
S'\x11\xaeG\xe1zL`@'
p79
tp80
Rp81
ag10
(g14
S'\xc3 \xb0rhc`@'
p82
tp83
Rp84
ag10
(g14
S'65^\xbaI\xbc_@'
p85
tp86
Rp87
ag10
(g14
S'\xa6\xc6K7\x89\xa9`@'
p88
tp89
Rp90
ag10
(g14
S'9^\xbaI\x0c\xd4`@'
p91
tp92
Rp93
ag10
(g14
S'\x92\xebQ\xb8\x1eEb@'
p94
tp95
Rp96
ag10
(g14
S'\xa3p=\n\xd7ca@'
p97
tp98
Rp99
ag10
(g14
S'\x02\xd5x\xe9&_`@'
p100
tp101
Rp102
ag10
(g14
S'\xc2t\x93\x18\x04\x8ea@'
p103
tp104
Rp105
ag10
(g14
S'\xa6\xc6K7\x89\xfd`@'
p106
tp107
Rp108
ag10
(g14
S'\x81\x14\xaeG\xe1Na@'
p109
tp110
Rp111
ag10
(g14
S'\xaf\xc8v\xbe\x9f\xa2`@'
p112
tp113
Rp114
ag10
(g14
S'i\x91\xed|?\xff`@'
p115
tp116
Rp117
ag10
(g14
S'\x8c\xed|?5\xbe`@'
p118
tp119
Rp120
ag10
(g14
S'\n+\x87\x16\xd9F_@'
p121
tp122
Rp123
ag10
(g14
S'\xc3v\xbe\x9f\x1a\x1fa@'
p124
tp125
Rp126
ag10
(g14
S'\xa3p=\n\xd7\x07`@'
p127
tp128
Rp129
ag10
(g14
S'K7\x89A`\x8d`@'
p130
tp131
Rp132
ag10
(g14
S'\xc0\xf5(\\\x8f\x1e`@'
p133
tp134
Rp135
ag10
(g14
S'\xc9\xca\xa1E\xb6+a@'
p136
tp137
Rp138
asssss.