(dp0
S'../Data/sqlite_54.csv'
p1
(dp2
S'../Data/sqlite_78.csv'
p3
(dp4
F0.05
(dp5
S'mmre'
p6
(dp7
S'bellwether'
p8
(lp9
cnumpy.core.multiarray
scalar
p10
(cnumpy
dtype
p11
(S'f8'
p12
I0
I1
tp13
Rp14
(I3
S'<'
p15
NNNI-1
I-1
I0
tp16
bS'\x80Htx\xefEy@'
p17
tp18
Rp19
ag10
(g14
S'\x8d\xa8\xda\xd5_=y@'
p20
tp21
Rp22
ag10
(g14
S'{\xb0e\x1cEBy@'
p23
tp24
Rp25
ag10
(g14
S'}\xb6\x0epuJy@'
p26
tp27
Rp28
ag10
(g14
S'\'\xcb\xacpV"y@'
p29
tp30
Rp31
ag10
(g14
S'H\xe9\xba\x91\xc82y@'
p32
tp33
Rp34
ag10
(g14
S'\xdb,kC;Gy@'
p35
tp36
Rp37
ag10
(g14
S'O\xc0\x07\x9f90y@'
p38
tp39
Rp40
ag10
(g14
S'\x82\xe6\xfa\xc9\xb7Ay@'
p41
tp42
Rp43
ag10
(g14
S'9\x9bg\xe1N,y@'
p44
tp45
Rp46
ag10
(g14
S'\x08\xf0Q\xcf\xd2;y@'
p47
tp48
Rp49
ag10
(g14
S'\xd0.\x90\x88\xbb<y@'
p50
tp51
Rp52
ag10
(g14
S'\x9fY\x13\xccZ4y@'
p53
tp54
Rp55
ag10
(g14
S'2\x91-V=8y@'
p56
tp57
Rp58
ag10
(g14
S'\xda\xdd\xcd\x0b\x14/y@'
p59
tp60
Rp61
ag10
(g14
S'\n\xd9\xa5\x0f\x967y@'
p62
tp63
Rp64
ag10
(g14
S'\x01\\\x04\xc2,0y@'
p65
tp66
Rp67
ag10
(g14
S'\xbd7\x9b$\x94>y@'
p68
tp69
Rp70
ag10
(g14
S'\\\xf8\xd2\x06#Fy@'
p71
tp72
Rp73
ag10
(g14
S'\x7f\xc0\xf2\xfeQ=y@'
p74
tp75
Rp76
asS'target'
p77
(lp78
g10
(g14
S'\x1b\x85\xee"\x8f\x846@'
p79
tp80
Rp81
ag10
(g14
S'\xfa,mqt\x985@'
p82
tp83
Rp84
ag10
(g14
S't\xd0\x90L(k3@'
p85
tp86
Rp87
ag10
(g14
S'\x9c\t\x10\xcdCY6@'
p88
tp89
Rp90
ag10
(g14
S'/Tm\x9f\xaf\x8d2@'
p91
tp92
Rp93
ag10
(g14
S'\xa1%\xdd\xb5\x7f\xf02@'
p94
tp95
Rp96
ag10
(g14
S'\x8b\xdc\x99/"\x805@'
p97
tp98
Rp99
ag10
(g14
S'\xa8q\x04\xbf\x91\xa12@'
p100
tp101
Rp102
ag10
(g14
S',\xc5 5f\x9f5@'
p103
tp104
Rp105
ag10
(g14
S'\xd1\xfd\x80\xbd\x9cU2@'
p106
tp107
Rp108
ag10
(g14
S'\x1be\xc8%u\x074@'
p109
tp110
Rp111
ag10
(g14
S'C\x84i\xb5\xc9\xa12@'
p112
tp113
Rp114
ag10
(g14
S'J\xe0\xa0\xbdU~1@'
p115
tp116
Rp117
ag10
(g14
S'\x9c\x10P\x1ei\x983@'
p118
tp119
Rp120
ag10
(g14
S'\xc1\xcf_y\xebT3@'
p121
tp122
Rp123
ag10
(g14
S'\xafX\x1cx\xa6\n4@'
p124
tp125
Rp126
ag10
(g14
S'\xdd\xac\xcc\xa9\x05\xb92@'
p127
tp128
Rp129
ag10
(g14
S'\xc2\xf1\xc6\xd3da3@'
p130
tp131
Rp132
ag10
(g14
S'\xba\xde\xcc$X\xb62@'
p133
tp134
Rp135
ag10
(g14
S'"h\x89%s28@'
p136
tp137
Rp138
asssss.