(dp0
S'../Data/sqlite_78.csv'
p1
(dp2
S'../Data/sqlite_91.csv'
p3
(dp4
F0.15
(dp5
S'mmre'
p6
(dp7
S'bellwether'
p8
(lp9
cnumpy.core.multiarray
scalar
p10
(cnumpy
dtype
p11
(S'f8'
p12
I0
I1
tp13
Rp14
(I3
S'<'
p15
NNNI-1
I-1
I0
tp16
bS'\x19\xed:\xc8\x00pX@'
p17
tp18
Rp19
ag10
(g14
S'\x17\xc2\x92X\xaahX@'
p20
tp21
Rp22
ag10
(g14
S'\xccBi\xb6\xb5uX@'
p23
tp24
Rp25
ag10
(g14
S'\xe5\xbb[e\x94kX@'
p26
tp27
Rp28
ag10
(g14
S'O\xfd\xa8\x81\xaaoX@'
p29
tp30
Rp31
ag10
(g14
S'c\xee\xa7\x91\x86tX@'
p32
tp33
Rp34
ag10
(g14
S'\xc3iV\xef\xbckX@'
p35
tp36
Rp37
ag10
(g14
S'\xaf\xbb\xdd\x13JlX@'
p38
tp39
Rp40
ag10
(g14
S'\x0b_\x8a[\xcepX@'
p41
tp42
Rp43
ag10
(g14
S'\xe4\x06]}&oX@'
p44
tp45
Rp46
ag10
(g14
S'\xfa\xb7!\x1f\x10pX@'
p47
tp48
Rp49
ag10
(g14
S'>R\x94/\x05vX@'
p50
tp51
Rp52
ag10
(g14
S'Tm8\xe4DlX@'
p53
tp54
Rp55
ag10
(g14
S'k\x19H\xf1AkX@'
p56
tp57
Rp58
ag10
(g14
S'\xc4O\\\xecSqX@'
p59
tp60
Rp61
ag10
(g14
S'lL\\=qlX@'
p62
tp63
Rp64
ag10
(g14
S'n\x0b\xda\xc7\x86iX@'
p65
tp66
Rp67
ag10
(g14
S'\x9a\xfe4\xdf.nX@'
p68
tp69
Rp70
ag10
(g14
S'\x14\x9d`Q@rX@'
p71
tp72
Rp73
ag10
(g14
S'\xeb!\xd0\x1e\xf0qX@'
p74
tp75
Rp76
asS'target'
p77
(lp78
g10
(g14
S'i\xae\xa3\x86\xe6\xabP@'
p79
tp80
Rp81
ag10
(g14
S'\xa4%\x1c\xcd\xd9\xebQ@'
p82
tp83
Rp84
ag10
(g14
S'\x88IF?9\x05L@'
p85
tp86
Rp87
ag10
(g14
S'f&\xc4i\xd1\xf0P@'
p88
tp89
Rp90
ag10
(g14
S'\x1a\x93\x9e\xefv\x8bO@'
p91
tp92
Rp93
ag10
(g14
S'b}\x8b$\t\x93M@'
p94
tp95
Rp96
ag10
(g14
S'o\xccR\x97N\x07Q@'
p97
tp98
Rp99
ag10
(g14
S'\x88O\xdc\xa1\xdc\x9cQ@'
p100
tp101
Rp102
ag10
(g14
S'>\xf7\xba\xf4\xef\x02N@'
p103
tp104
Rp105
ag10
(g14
S'1\xdfg\x96\xca]P@'
p106
tp107
Rp108
ag10
(g14
S'\xf7V}\xdc{xJ@'
p109
tp110
Rp111
ag10
(g14
S'+\xd4%\x8f$\xe8M@'
p112
tp113
Rp114
ag10
(g14
S'\x97\xe4\xadZ\x93lQ@'
p115
tp116
Rp117
ag10
(g14
S'6t\x11\xf06\xcdP@'
p118
tp119
Rp120
ag10
(g14
S'\xb3\x9e\xb6*\x04\xddO@'
p121
tp122
Rp123
ag10
(g14
S'j\xe1\x00lI\nO@'
p124
tp125
Rp126
ag10
(g14
S'\xc9\xcc\xc3X\xd4\xa7Q@'
p127
tp128
Rp129
ag10
(g14
S'\xda\x8cRS#\x13O@'
p130
tp131
Rp132
ag10
(g14
S'm!\xc9\xc0\x11KN@'
p133
tp134
Rp135
ag10
(g14
S'\x93_q\xe2\xc4\x98O@'
p136
tp137
Rp138
asssss.