(dp0
S'../Data/sqlite_34.csv'
p1
(dp2
S'../Data/sqlite_97.csv'
p3
(dp4
F0.1
(dp5
S'mmre'
p6
(dp7
S'bellwether'
p8
(lp9
cnumpy.core.multiarray
scalar
p10
(cnumpy
dtype
p11
(S'f8'
p12
I0
I1
tp13
Rp14
(I3
S'<'
p15
NNNI-1
I-1
I0
tp16
bS't\xdd\n3s.R@'
p17
tp18
Rp19
ag10
(g14
S"\xb4s\xdd\x12\x98'R@"
p20
tp21
Rp22
ag10
(g14
S'\xa4\xb6\xcc\xb5\xa3+R@'
p23
tp24
Rp25
ag10
(g14
S'\x81\xd2\x1a(\xee"R@'
p26
tp27
Rp28
ag10
(g14
S'\x04\x89]r~ R@'
p29
tp30
Rp31
ag10
(g14
S'\xff\\)\xf1&,R@'
p32
tp33
Rp34
ag10
(g14
S'\xae\xef\x19\xe0e*R@'
p35
tp36
Rp37
ag10
(g14
S'\xbe\xb3x\xf8+%R@'
p38
tp39
Rp40
ag10
(g14
S'\xed\xeb\xd1L\xbe.R@'
p41
tp42
Rp43
ag10
(g14
S'-\xf4Z\xf7O(R@'
p44
tp45
Rp46
ag10
(g14
S'\x19hxuV\x1aR@'
p47
tp48
Rp49
ag10
(g14
S'\xc7\xc6\x97_d\x1bR@'
p50
tp51
Rp52
ag10
(g14
S'|\x88$\xafY\x1dR@'
p53
tp54
Rp55
ag10
(g14
S'\x95\xe01$\xe2$R@'
p56
tp57
Rp58
ag10
(g14
S'y ^\xc8l.R@'
p59
tp60
Rp61
ag10
(g14
S'\x00\xcaq\x87\xa6&R@'
p62
tp63
Rp64
ag10
(g14
S'\xc3\x0c:\x12\xb2&R@'
p65
tp66
Rp67
ag10
(g14
S'V\xeb\x1fTd\x18R@'
p68
tp69
Rp70
ag10
(g14
S'^\x1dj4\xb9+R@'
p71
tp72
Rp73
ag10
(g14
S'w\nY\xf0\x0c,R@'
p74
tp75
Rp76
asS'target'
p77
(lp78
g10
(g14
S'{%\xfd\xa0\xf8RT@'
p79
tp80
Rp81
ag10
(g14
S'\xab\xbe\x86\xfa]\x02U@'
p82
tp83
Rp84
ag10
(g14
S'\x044\x1dLo8[@'
p85
tp86
Rp87
ag10
(g14
S'\x81\xd4T\xbd\x14\x16X@'
p88
tp89
Rp90
ag10
(g14
S'\x1fiv\rgEP@'
p91
tp92
Rp93
ag10
(g14
S'\xad\xc2X\xf5\xef\xfaB@'
p94
tp95
Rp96
ag10
(g14
S'@.\xaas\xde\xd1P@'
p97
tp98
Rp99
ag10
(g14
S'\xe8%\xed5U(D@'
p100
tp101
Rp102
ag10
(g14
S'\xd0/\x0c\x08\xe8\xb2G@'
p103
tp104
Rp105
ag10
(g14
S'W\x99\x9a\x12?HU@'
p106
tp107
Rp108
ag10
(g14
S'|\xcdD\xb0\xf8|Z@'
p109
tp110
Rp111
ag10
(g14
S'V\xc4*=K#G@'
p112
tp113
Rp114
ag10
(g14
S'OyC\x80\xdf\x92K@'
p115
tp116
Rp117
ag10
(g14
S'\xcb\x0c\xe8\xfa\x94~Z@'
p118
tp119
Rp120
ag10
(g14
S'\xa4\xe1q\xb8R\xecO@'
p121
tp122
Rp123
ag10
(g14
S'\x98E\xd5P\xf5DQ@'
p124
tp125
Rp126
ag10
(g14
S'7\x95\x14\xd2`DK@'
p127
tp128
Rp129
ag10
(g14
S'\\\xee\x80\xf1#`V@'
p130
tp131
Rp132
ag10
(g14
S'\xae\xf1\x1b]\xc7\xc5J@'
p133
tp134
Rp135
ag10
(g14
S'\xa000|\x1c\xba]@'
p136
tp137
Rp138
asssss.