(dp0
S'../Data/sqlite_43.csv'
p1
(dp2
S'../Data/sqlite_34.csv'
p3
(dp4
F0.3
(dp5
S'abs_res'
p6
(dp7
S'bellwether'
p8
(lp9
cnumpy.core.multiarray
scalar
p10
(cnumpy
dtype
p11
(S'f8'
p12
I0
I1
tp13
Rp14
(I3
S'<'
p15
NNNI-1
I-1
I0
tp16
bS'\xdaO\x8d\xb7~l:A'
p17
tp18
Rp19
ag10
(g14
S'\xcf\x94\x8aSdl:A'
p20
tp21
Rp22
ag10
(g14
S'i\x12\x83\xc0!m:A'
p23
tp24
Rp25
ag10
(g14
S"\x976\xd0\x89'n:A"
p26
tp27
Rp28
ag10
(g14
S'>|\x86\xbd\x8cm:A'
p29
tp30
Rp31
ag10
(g14
S'\x13\x9fa7\x1cm:A'
p32
tp33
Rp34
ag10
(g14
S'\x8c\xed|\x1f\xb7l:A'
p35
tp36
Rp37
ag10
(g14
S'P*\xce\x1exl:A'
p38
tp39
Rp40
ag10
(g14
S'\xd11\xc1\xe3\xa5m:A'
p41
tp42
Rp43
ag10
(g14
S'\xdd\x96\xb5\xba\\m:A'
p44
tp45
Rp46
ag10
(g14
S'\xb4\xc8v^;l:A'
p47
tp48
Rp49
ag10
(g14
S's0O\x94\x13m:A'
p50
tp51
Rp52
ag10
(g14
S'2&xp\x8el:A'
p53
tp54
Rp55
ag10
(g14
S'Z\x03\x9d\xd6\tn:A'
p56
tp57
Rp58
ag10
(g14
S'\x1a>\xc3\xce5l:A'
p59
tp60
Rp61
ag10
(g14
S'|j\xbc\xf4\xe8m:A'
p62
tp63
Rp64
ag10
(g14
S'\xdb\xdd\xdd\x9d\x10m:A'
p65
tp66
Rp67
ag10
(g14
S'\xefo\x84\xf2\x1fm:A'
p68
tp69
Rp70
ag10
(g14
S'_\xbaI,\xbbl:A'
p71
tp72
Rp73
ag10
(g14
S'=\xd2\x94\x8agl:A'
p74
tp75
Rp76
asS'target'
p77
(lp78
g10
(g14
S'\t\xd7\xa3p=\xc8g@'
p79
tp80
Rp81
ag10
(g14
S'\x9f\x1a/\xdd$\xe6f@'
p82
tp83
Rp84
ag10
(g14
S'K\x8d\x97n\x12\xb7f@'
p85
tp86
Rp87
ag10
(g14
S'\xd6x\xe9&1\xd8h@'
p88
tp89
Rp90
ag10
(g14
S'+\x08\xac\x1cZ^i@'
p91
tp92
Rp93
ag10
(g14
S'\xcf\xcc\xcc\xcc\xccVg@'
p94
tp95
Rp96
ag10
(g14
S'\x83\x16\xd9\xce\xf7\xf3e@'
p97
tp98
Rp99
ag10
(g14
S'\x9c\x99\x99\x99\x99Ig@'
p100
tp101
Rp102
ag10
(g14
S'ad;\xdfO\xf9g@'
p103
tp104
Rp105
ag10
(g14
S'\x1f\xb0rh\x91\xebg@'
p106
tp107
Rp108
ag10
(g14
S'\xc0K7\x89A\x12i@'
p109
tp110
Rp111
ag10
(g14
S'"\x04V\x0e-\xeeg@'
p112
tp113
Rp114
ag10
(g14
S'\xc2v\xbe\x9f\x1aYh@'
p115
tp116
Rp117
ag10
(g14
S'3^\xbaI\x0c\xa2h@'
p118
tp119
Rp120
ag10
(g14
S'\x92\xed|?5|i@'
p121
tp122
Rp123
ag10
(g14
S'm=\n\xd7\xa3pg@'
p124
tp125
Rp126
ag10
(g14
S'\xf8~j\xbct\xcbh@'
p127
tp128
Rp129
ag10
(g14
S'\x82\xebQ\xb8\x1e\xcbh@'
p130
tp131
Rp132
ag10
(g14
S's=\n\xd7\xa3\x82f@'
p133
tp134
Rp135
ag10
(g14
S'\xc4v\xbe\x9f\x1a#h@'
p136
tp137
Rp138
asssss.