(dp0
S'../Data/sqlite_54.csv'
p1
(dp2
S'../Data/sqlite_84.csv'
p3
(dp4
F0.15
(dp5
S'mmre'
p6
(dp7
S'bellwether'
p8
(lp9
cnumpy.core.multiarray
scalar
p10
(cnumpy
dtype
p11
(S'f8'
p12
I0
I1
tp13
Rp14
(I3
S'<'
p15
NNNI-1
I-1
I0
tp16
bS'\xb3\xd6\xaa9\xb3iu@'
p17
tp18
Rp19
ag10
(g14
S'\x8a n\xc0\xf4\x85u@'
p20
tp21
Rp22
ag10
(g14
S'\xdd\xffg\xc8b9u@'
p23
tp24
Rp25
ag10
(g14
S'\xb3hZ\xd4\x8ffu@'
p26
tp27
Rp28
ag10
(g14
S'3\xde\xfe\xd1Fdu@'
p29
tp30
Rp31
ag10
(g14
S'1\x1e5\x88\xddUu@'
p32
tp33
Rp34
ag10
(g14
S'\xebxW8~du@'
p35
tp36
Rp37
ag10
(g14
S'\xe7]d\r\xd1du@'
p38
tp39
Rp40
ag10
(g14
S'\x9b\x06\xf4\x86\x8bBu@'
p41
tp42
Rp43
ag10
(g14
S'\x18rH\xf0\xbb:u@'
p44
tp45
Rp46
ag10
(g14
S'\xf3\xe4\xdcl\r?u@'
p47
tp48
Rp49
ag10
(g14
S"x'\x8f8\x9fKu@"
p50
tp51
Rp52
ag10
(g14
S'j0S\x8bpnu@'
p53
tp54
Rp55
ag10
(g14
S'\x01\x8c\xb3\x93\\\x86u@'
p56
tp57
Rp58
ag10
(g14
S'\xda\xd0\x8aD\xa9{u@'
p59
tp60
Rp61
ag10
(g14
S'\xd1\xe7E\x02p\x84u@'
p62
tp63
Rp64
ag10
(g14
S'`7N \xeaau@'
p65
tp66
Rp67
ag10
(g14
S':7d\xc1\xa6vu@'
p68
tp69
Rp70
ag10
(g14
S'\x92.X%\xe1Ru@'
p71
tp72
Rp73
ag10
(g14
S'\xf5\xfep<\xc3Au@'
p74
tp75
Rp76
asS'target'
p77
(lp78
g10
(g14
S'\xbe3A\xdd\x89\xcbZ@'
p79
tp80
Rp81
ag10
(g14
S'\x99i\xf3<q\x18U@'
p82
tp83
Rp84
ag10
(g14
S'\xbe\xfc\xc6T\xdcqK@'
p85
tp86
Rp87
ag10
(g14
S'7\x80\xfdE\x15eY@'
p88
tp89
Rp90
ag10
(g14
S'\xe65\xd6\xa0B\xd0G@'
p91
tp92
Rp93
ag10
(g14
S'\xf5Q-\ng"R@'
p94
tp95
Rp96
ag10
(g14
S'\xc1Y\xd0\x11\x0c(K@'
p97
tp98
Rp99
ag10
(g14
S'\xa0\xa7\xf5\x89\xdc\x0bI@'
p100
tp101
Rp102
ag10
(g14
S'\xb4\x97\xd4\t\xf8[X@'
p103
tp104
Rp105
ag10
(g14
S'\xb5\xa2S\x95\xc5\xa3I@'
p106
tp107
Rp108
ag10
(g14
S'\xe8%G\xc7G\\Q@'
p109
tp110
Rp111
ag10
(g14
S'/}-\x11\x8aPJ@'
p112
tp113
Rp114
ag10
(g14
S'\xf2\xfa\xf0\xce\xd5\xe5U@'
p115
tp116
Rp117
ag10
(g14
S'\x16\x88OP%+T@'
p118
tp119
Rp120
ag10
(g14
S'\xeed\x83\xbd\xc3\xabK@'
p121
tp122
Rp123
ag10
(g14
S'\xe9\xc8\xe4BC\xb9O@'
p124
tp125
Rp126
ag10
(g14
S'\x95\xad\xa29\x82\xceQ@'
p127
tp128
Rp129
ag10
(g14
S';Hkr.?W@'
p130
tp131
Rp132
ag10
(g14
S'\xd4\xbbo\x96\xd4\xcbT@'
p133
tp134
Rp135
ag10
(g14
S'o\x08=K\xa9:T@'
p136
tp137
Rp138
asssss.