(dp0
S'../Data/sqlite_62.csv'
p1
(dp2
S'../Data/sqlite_95.csv'
p3
(dp4
F0.3
(dp5
S'mmre'
p6
(dp7
S'bellwether'
p8
(lp9
cnumpy.core.multiarray
scalar
p10
(cnumpy
dtype
p11
(S'f8'
p12
I0
I1
tp13
Rp14
(I3
S'<'
p15
NNNI-1
I-1
I0
tp16
bS')\x19#\x1fF_X@'
p17
tp18
Rp19
ag10
(g14
S'\xb3c\xe9\x04\x9b`X@'
p20
tp21
Rp22
ag10
(g14
S'`SR \xb0aX@'
p23
tp24
Rp25
ag10
(g14
S'\xad\xea\x9b\x12\xc6bX@'
p26
tp27
Rp28
ag10
(g14
S'z{\x17P\xba]X@'
p29
tp30
Rp31
ag10
(g14
S'u\xa9aQ1_X@'
p32
tp33
Rp34
ag10
(g14
S'\\KY\xe0\xa3^X@'
p35
tp36
Rp37
ag10
(g14
S'D;\x10\xd0\xf1`X@'
p38
tp39
Rp40
ag10
(g14
S'\xc5\xbco0\xd6_X@'
p41
tp42
Rp43
ag10
(g14
S'\xc3\x06~\x18\naX@'
p44
tp45
Rp46
ag10
(g14
S'\xcbR#\xdd\xf0`X@'
p47
tp48
Rp49
ag10
(g14
S'\xb9B,\xf0\xf0]X@'
p50
tp51
Rp52
ag10
(g14
S'\x04\xd1\x81\x0f\xf2_X@'
p53
tp54
Rp55
ag10
(g14
S'Y\xd5\xff\xb8H`X@'
p56
tp57
Rp58
ag10
(g14
S'\x83\xf6 >K`X@'
p59
tp60
Rp61
ag10
(g14
S'OEK\xd2\x8f^X@'
p62
tp63
Rp64
ag10
(g14
S'b\nFuP`X@'
p65
tp66
Rp67
ag10
(g14
S'G\xc6G\xee\xd1^X@'
p68
tp69
Rp70
ag10
(g14
S'E\xd0#\x7fRaX@'
p71
tp72
Rp73
ag10
(g14
S'2\xa8\xb1\xd1f`X@'
p74
tp75
Rp76
asS'target'
p77
(lp78
g10
(g14
S'^\xfaq\x97(.B@'
p79
tp80
Rp81
ag10
(g14
S'o\xff\x19d\x17\x04B@'
p82
tp83
Rp84
ag10
(g14
S'\xf0s&\x18\xd2\xe1?@'
p85
tp86
Rp87
ag10
(g14
S'\xf5"\x04\xad\x8d\x94A@'
p88
tp89
Rp90
ag10
(g14
S'\xcfe\xe8\x8d\xa8\x08A@'
p91
tp92
Rp93
ag10
(g14
S'\xfcV\xdb\xed\xa5l@@'
p94
tp95
Rp96
ag10
(g14
S'\x05\xec>\x1b\x08\x9b@@'
p97
tp98
Rp99
ag10
(g14
S'\x9ah\x14;\xd8\x85@@'
p100
tp101
Rp102
ag10
(g14
S'h\xa9\x02\xf6\xd1\xd6A@'
p103
tp104
Rp105
ag10
(g14
S'3\xe9\xabX\xc3\xe1B@'
p106
tp107
Rp108
ag10
(g14
S'\x9cv7\xd4\xa5J>@'
p109
tp110
Rp111
ag10
(g14
S'd\xd5\x1f/D\xde@@'
p112
tp113
Rp114
ag10
(g14
S'_\xdb\xed0wkA@'
p115
tp116
Rp117
ag10
(g14
S'0\x8c\x94\xb7/\xc0C@'
p118
tp119
Rp120
ag10
(g14
S'r\xbe\xf5\xbbZ\x94B@'
p121
tp122
Rp123
ag10
(g14
S'F>\x063\x95r@@'
p124
tp125
Rp126
ag10
(g14
S'!\x9f4S\xc1\xafA@'
p127
tp128
Rp129
ag10
(g14
S'kJZ\xd9\xd9\xac=@'
p130
tp131
Rp132
ag10
(g14
S'\x1f\xd7\x04{\xdcBB@'
p133
tp134
Rp135
ag10
(g14
S']\xd3l\xbf \x08@@'
p136
tp137
Rp138
asssss.