(dp0
S'../Data/sqlite_1.csv'
p1
(dp2
S'../Data/sqlite_79.csv'
p3
(dp4
F0.1
(dp5
S'abs_res'
p6
(dp7
S'bellwether'
p8
(lp9
cnumpy.core.multiarray
scalar
p10
(cnumpy
dtype
p11
(S'f8'
p12
I0
I1
tp13
Rp14
(I3
S'<'
p15
NNNI-1
I-1
I0
tp16
bS'\xe8z\x14>\x14EAA'
p17
tp18
Rp19
ag10
(g14
S'\xe0\xf9~J.EAA'
p20
tp21
Rp22
ag10
(g14
S'\x15\xf5o\xc4\xf4DAA'
p23
tp24
Rp25
ag10
(g14
S'\x05\xaa\xf1\xf2XEAA'
p26
tp27
Rp28
ag10
(g14
S'\xd6"\xdb\x99\x1dEAA'
p29
tp30
Rp31
ag10
(g14
S'\xef&1\xf8\xe5DAA'
p32
tp33
Rp34
ag10
(g14
S'\n\x81\x95\x13+EAA'
p35
tp36
Rp37
ag10
(g14
S'\x0eX9\x94\x0fEAA'
p38
tp39
Rp40
ag10
(g14
S'\xd3Mb\xa0BEAA'
p41
tp42
Rp43
ag10
(g14
S'?|\x86\xfd\x8dDAA'
p44
tp45
Rp46
ag10
(g14
S'\x0b\xd7\xa3p\xa8EAA'
p47
tp48
Rp49
ag10
(g14
S'\x8d\x16\xd9\xceCEAA'
p50
tp51
Rp52
ag10
(g14
S'\x03r\xaf\xe9nEAA'
p53
tp54
Rp55
ag10
(g14
S'vh\x91=1EAA'
p56
tp57
Rp58
ag10
(g14
S'F|\x86mQEAA'
p59
tp60
Rp61
ag10
(g14
S'\x17/\xddt0EAA'
p62
tp63
Rp64
ag10
(g14
S'\xa7\xc6K\xc7MEAA'
p65
tp66
Rp67
ag10
(g14
S'\xd1\x94\x8a\xe3=EAA'
p68
tp69
Rp70
ag10
(g14
S'433\xe3\xe3DAA'
p71
tp72
Rp73
ag10
(g14
S'\xbe<Q\xefJEAA'
p74
tp75
Rp76
asS'target'
p77
(lp78
g10
(g14
S'\x91\x97n\x12\x83Lw@'
p79
tp80
Rp81
ag10
(g14
S'\xb4\xca\xa1E\xb6\xfbw@'
p82
tp83
Rp84
ag10
(g14
S'\x9f\xc6K7\x89\xffr@'
p85
tp86
Rp87
ag10
(g14
S'/\xdd$\x06\x81\xb1t@'
p88
tp89
Rp90
ag10
(g14
S'\xaf\xc8v\xbe\x9f~s@'
p91
tp92
Rp93
ag10
(g14
S'\xe7Q\xb8\x1e\x85\xcf|@'
p94
tp95
Rp96
ag10
(g14
S'(\\\x8f\xc2\xf5\xb4p@'
p97
tp98
Rp99
ag10
(g14
S'@^\xbaI\x0c\xa4|@'
p100
tp101
Rp102
ag10
(g14
S'_ffff\xf9y@'
p103
tp104
Rp105
ag10
(g14
S'\xc6\xa1E\xb6\xf3w\x81@'
p106
tp107
Rp108
ag10
(g14
S'\x02\xac\x1cZd9w@'
p109
tp110
Rp111
ag10
(g14
S'\xd8x\xe9&1\x9cz@'
p112
tp113
Rp114
ag10
(g14
S'\xd2Mb\x10X\rq@'
p115
tp116
Rp117
ag10
(g14
S'\xbb\x9f\x1a/\xdd\xacs@'
p118
tp119
Rp120
ag10
(g14
S'\xff\x01+\x87\x16\xdbz@'
p121
tp122
Rp123
ag10
(g14
S'>\xdfO\x8d\x97\xe2|@'
p124
tp125
Rp126
ag10
(g14
S'\xd1x\xe9&1,t@'
p127
tp128
Rp129
ag10
(g14
S'ph\x91\xed|\x91q@'
p130
tp131
Rp132
ag10
(g14
S'G\xb6\xf3\xfd\xd4\x1b\x80@'
p133
tp134
Rp135
ag10
(g14
S',3333\xb5x@'
p136
tp137
Rp138
asssss.