(dp0
S'../Data/sqlite_68.csv'
p1
(dp2
S'../Data/sqlite_85.csv'
p3
(dp4
F0.25
(dp5
S'mmre'
p6
(dp7
S'bellwether'
p8
(lp9
cnumpy.core.multiarray
scalar
p10
(cnumpy
dtype
p11
(S'f8'
p12
I0
I1
tp13
Rp14
(I3
S'<'
p15
NNNI-1
I-1
I0
tp16
bS'\x9f\x98Wl$_X@'
p17
tp18
Rp19
ag10
(g14
S'\x82j\xf8\x1c~^X@'
p20
tp21
Rp22
ag10
(g14
S'BNv|\t\\X@'
p23
tp24
Rp25
ag10
(g14
S'\\Qs\x8a`[X@'
p26
tp27
Rp28
ag10
(g14
S'\xab=Y\xe2\x8fYX@'
p29
tp30
Rp31
ag10
(g14
S'x\xfam\t\xae^X@'
p32
tp33
Rp34
ag10
(g14
S'\xa1\x90\x17\xa9\ndX@'
p35
tp36
Rp37
ag10
(g14
S'lZ8\x14\xf5dX@'
p38
tp39
Rp40
ag10
(g14
S'\n\xce\x05\xb7N[X@'
p41
tp42
Rp43
ag10
(g14
S'O5\xe6k\x92\\X@'
p44
tp45
Rp46
ag10
(g14
S'\x0cWz\xe1\x90]X@'
p47
tp48
Rp49
ag10
(g14
S'\\\x8c.\x8e\x1eXX@'
p50
tp51
Rp52
ag10
(g14
S'\xeb:\\\xdfPVX@'
p53
tp54
Rp55
ag10
(g14
S"\x11\xeb7'\x11[X@"
p56
tp57
Rp58
ag10
(g14
S'\x9a\x92<\xafX[X@'
p59
tp60
Rp61
ag10
(g14
S'1\xe4\xa7{eZX@'
p62
tp63
Rp64
ag10
(g14
S'K1P\xd3^]X@'
p65
tp66
Rp67
ag10
(g14
S'\xd3\xb9#\x81\xf9[X@'
p68
tp69
Rp70
ag10
(g14
S'o\\\xc1l\xab`X@'
p71
tp72
Rp73
ag10
(g14
S'8\x99\x9d\xfea[X@'
p74
tp75
Rp76
asS'target'
p77
(lp78
g10
(g14
S'\xab\x85 \xefD\xcaQ@'
p79
tp80
Rp81
ag10
(g14
S'cQ\x1e0\xe5\x82T@'
p82
tp83
Rp84
ag10
(g14
S'\x90\x16\xd5\xc7O\xeeP@'
p85
tp86
Rp87
ag10
(g14
S'rZD\xe6M\xb9Q@'
p88
tp89
Rp90
ag10
(g14
S'Q@\xc6\xbdY\xdcS@'
p91
tp92
Rp93
ag10
(g14
S'\xf9\x1du\xedB\xd6S@'
p94
tp95
Rp96
ag10
(g14
S'V*\xdf\x03!XP@'
p97
tp98
Rp99
ag10
(g14
S'\x8e\xb2\xd8v$bR@'
p100
tp101
Rp102
ag10
(g14
S'\xa5\\2\xec\n\x83U@'
p103
tp104
Rp105
ag10
(g14
S'\x1e\x8c\x03\'"\xf7R@'
p106
tp107
Rp108
ag10
(g14
S'O\xa1I@\x87]S@'
p109
tp110
Rp111
ag10
(g14
S'\xc23=\r\xeaoT@'
p112
tp113
Rp114
ag10
(g14
S'gw?\x84\xf1?T@'
p115
tp116
Rp117
ag10
(g14
S'\xbc\x9a)\xe1\nLR@'
p118
tp119
Rp120
ag10
(g14
S'\x0c:r\xb6Z\x85R@'
p121
tp122
Rp123
ag10
(g14
S'z4h\xe0\x9d\xd6S@'
p124
tp125
Rp126
ag10
(g14
S'+]\xac*\xd3vR@'
p127
tp128
Rp129
ag10
(g14
S'|\xacpF\xa0wS@'
p130
tp131
Rp132
ag10
(g14
S'\xef\x15\xfb6\x86zP@'
p133
tp134
Rp135
ag10
(g14
S'QW\xe6\xa5 }S@'
p136
tp137
Rp138
asssss.