(dp0
S'../Data/sqlite_9.csv'
p1
(dp2
S'../Data/sqlite_96.csv'
p3
(dp4
F0.4
(dp5
S'mmre'
p6
(dp7
S'bellwether'
p8
(lp9
cnumpy.core.multiarray
scalar
p10
(cnumpy
dtype
p11
(S'f8'
p12
I0
I1
tp13
Rp14
(I3
S'<'
p15
NNNI-1
I-1
I0
tp16
bS'&]\xf50\x81(X@'
p17
tp18
Rp19
ag10
(g14
S'q\x85\xf0\xfa\xce$X@'
p20
tp21
Rp22
ag10
(g14
S'\xb2\xe0[\x11\x84)X@'
p23
tp24
Rp25
ag10
(g14
S'`L7\x8b\x04)X@'
p26
tp27
Rp28
ag10
(g14
S'\xde\xdaU\x1dm(X@'
p29
tp30
Rp31
ag10
(g14
S"p\xb2\xa8\x00\x7f'X@"
p32
tp33
Rp34
ag10
(g14
S'\x1d\x10\xeb\xc1\xb6&X@'
p35
tp36
Rp37
ag10
(g14
S'\x84\x93\xf4\r\t&X@'
p38
tp39
Rp40
ag10
(g14
S"\xda\xed\xacT\xc9'X@"
p41
tp42
Rp43
ag10
(g14
S'\x889\xa4\xda\xe9&X@'
p44
tp45
Rp46
ag10
(g14
S'$\x8d\x99\x89W*X@'
p47
tp48
Rp49
ag10
(g14
S'@\xa7\xcb\x0c\xe1&X@'
p50
tp51
Rp52
ag10
(g14
S'\x96@\x83\x8f\xb8&X@'
p53
tp54
Rp55
ag10
(g14
S"@3\x0b4\xf5'X@"
p56
tp57
Rp58
ag10
(g14
S'\r\x933Z\x1a%X@'
p59
tp60
Rp61
ag10
(g14
S'\x0eL\x96\xd4\xf4$X@'
p62
tp63
Rp64
ag10
(g14
S'\xfc\x06h\xb73%X@'
p65
tp66
Rp67
ag10
(g14
S'\x98\xfe= \x86)X@'
p68
tp69
Rp70
ag10
(g14
S'\x9d\xaf\xc2\x7fg(X@'
p71
tp72
Rp73
ag10
(g14
S"\xa02\xb4C\x85'X@"
p74
tp75
Rp76
asS'target'
p77
(lp78
g10
(g14
S'\xf3$\xa3vP\x82X@'
p79
tp80
Rp81
ag10
(g14
S'}\xe4.u\\GU@'
p82
tp83
Rp84
ag10
(g14
S'k9D\xe0\x8dGV@'
p85
tp86
Rp87
ag10
(g14
S'\xe91Y]\xa0\xbbS@'
p88
tp89
Rp90
ag10
(g14
S'\x01\xbd\xa8\xbc\xf7LX@'
p91
tp92
Rp93
ag10
(g14
S'\x82\x87\x84B\xa5tP@'
p94
tp95
Rp96
ag10
(g14
S'0\xbd@\xdbJYS@'
p97
tp98
Rp99
ag10
(g14
S'o^\x00\xbd\x99\xd5Z@'
p100
tp101
Rp102
ag10
(g14
S'\xb5\x10B\xe8p+[@'
p103
tp104
Rp105
ag10
(g14
S'\x91!_\xfc<KR@'
p106
tp107
Rp108
ag10
(g14
S'\x10q\xca\x95\xfe\x9dX@'
p109
tp110
Rp111
ag10
(g14
S'\xe0=2Q&\xebR@'
p112
tp113
Rp114
ag10
(g14
S'W%\xd2s\x9b\xe9U@'
p115
tp116
Rp117
ag10
(g14
S'\nT\x8d[\x06q\\@'
p118
tp119
Rp120
ag10
(g14
S'J\xc1\xf9\\t\x9bV@'
p121
tp122
Rp123
ag10
(g14
S'#\r/\xd8\xfe\xf5U@'
p124
tp125
Rp126
ag10
(g14
S'e\xba \xe8\x04;Z@'
p127
tp128
Rp129
ag10
(g14
S"$'\x1c8\x01*P@"
p130
tp131
Rp132
ag10
(g14
S'uWiM\xf7oL@'
p133
tp134
Rp135
ag10
(g14
S'O\x16p\xe4\t\xddU@'
p136
tp137
Rp138
asssss.