(dp0
S'../Data/sqlite_57.csv'
p1
(dp2
S'../Data/sqlite_14.csv'
p3
(dp4
F0.2
(dp5
S'abs_res'
p6
(dp7
S'bellwether'
p8
(lp9
cnumpy.core.multiarray
scalar
p10
(cnumpy
dtype
p11
(S'f8'
p12
I0
I1
tp13
Rp14
(I3
S'<'
p15
NNNI-1
I-1
I0
tp16
bS'J7\x89\xf1\xf4GgA'
p17
tp18
Rp19
ag10
(g14
S'\xabp=rNIgA'
p20
tp21
Rp22
ag10
(g14
S'\x0c\xac\x1cB\xaeDgA'
p23
tp24
Rp25
ag10
(g14
S'\x88\x16\xd9\xf66GgA'
p26
tp27
Rp28
ag10
(g14
S'\xcc"\xdb\xa5\xcaHgA'
p29
tp30
Rp31
ag10
(g14
S'\xdf$\x06I\x90UgA'
p32
tp33
Rp34
ag10
(g14
S'O\x0c\x02\x97[JgA'
p35
tp36
Rp37
ag10
(g14
S'4\xb2\x9d\x93\xaeFgA'
p38
tp39
Rp40
ag10
(g14
S'\xe1\xf9~:fHgA'
p41
tp42
Rp43
ag10
(g14
S'5\xdfO\xd5THgA'
p44
tp45
Rp46
ag10
(g14
S'H\xb8\x1eU\xdbPgA'
p47
tp48
Rp49
ag10
(g14
S'x\x93\x18@\x1dOgA'
p50
tp51
Rp52
ag10
(g14
S'\x1cZd\xfb\xafAgA'
p53
tp54
Rp55
ag10
(g14
S'\xd2"\xdb=1JgA'
p56
tp57
Rp58
ag10
(g14
S'\x86\xc0\xca\xe1TJgA'
p59
tp60
Rp61
ag10
(g14
S'o\x91\xedpt<gA'
p62
tp63
Rp64
ag10
(g14
S'\xc8 \xb0\xa6\x11GgA'
p65
tp66
Rp67
ag10
(g14
S'\x94l\xe7_8LgA'
p68
tp69
Rp70
ag10
(g14
S'/1\x08\x94%IgA'
p71
tp72
Rp73
ag10
(g14
S'\x7f\x93\x18\x8c\x9dOgA'
p74
tp75
Rp76
asS'target'
p77
(lp78
g10
(g14
S'k\x91\xed|?\x9bb@'
p79
tp80
Rp81
ag10
(g14
S'\x8a\xc0\xca\xa1End@'
p82
tp83
Rp84
ag10
(g14
S'v\xe9&1\x08 c@'
p85
tp86
Rp87
ag10
(g14
S'h;\xdfO\x8d1e@'
p88
tp89
Rp90
ag10
(g14
S'\xa5p=\n\xd7\xc7c@'
p91
tp92
Rp93
ag10
(g14
S';\xdfO\x8d\x976d@'
p94
tp95
Rp96
ag10
(g14
S'k\x91\xed|?\x1bc@'
p97
tp98
Rp99
ag10
(g14
S'Y\x8f\xc2\xf5(\xa0c@'
p100
tp101
Rp102
ag10
(g14
S'\x8f\xc2\xf5(\\\xafb@'
p103
tp104
Rp105
ag10
(g14
S'\x9f\xc4 \xb0r\xe8b@'
p106
tp107
Rp108
ag10
(g14
S'[\x0e-\xb2\x9d\xbbd@'
p109
tp110
Rp111
ag10
(g14
S'\xb1rh\x91\xed*d@'
p112
tp113
Rp114
ag10
(g14
S'\xa1\x99\x99\x99\x99}d@'
p115
tp116
Rp117
ag10
(g14
S'\xe8&1\x08\xac\x82d@'
p118
tp119
Rp120
ag10
(g14
S'1\x87\x16\xd9\xceGc@'
p121
tp122
Rp123
ag10
(g14
S'\xd0\xa1E\xb6\xf3\x85d@'
p124
tp125
Rp126
ag10
(g14
S'\x9a\x99\x99\x99\x99\xe9c@'
p127
tp128
Rp129
ag10
(g14
S'V\x8f\xc2\xf5(\xc4c@'
p130
tp131
Rp132
ag10
(g14
S'\xf6~j\xbct\xa7d@'
p133
tp134
Rp135
ag10
(g14
S'\xa9p=\n\xd7\x97e@'
p136
tp137
Rp138
asssss.