(dp0
S'../Data/sqlite_49.csv'
p1
(dp2
S'../Data/sqlite_92.csv'
p3
(dp4
F0.35
(dp5
S'mmre'
p6
(dp7
S'bellwether'
p8
(lp9
cnumpy.core.multiarray
scalar
p10
(cnumpy
dtype
p11
(S'f8'
p12
I0
I1
tp13
Rp14
(I3
S'<'
p15
NNNI-1
I-1
I0
tp16
bS'\xfc\xb2\x0el9\x02c@'
p17
tp18
Rp19
ag10
(g14
S'\xae1\xcbX\x91+c@'
p20
tp21
Rp22
ag10
(g14
S'\x93\x01X^\xca^c@'
p23
tp24
Rp25
ag10
(g14
S'\xbd7\xbf?<.c@'
p26
tp27
Rp28
ag10
(g14
S'7w\xb4\x01/\x18c@'
p29
tp30
Rp31
ag10
(g14
S'\xdf\xbeTL9:c@'
p32
tp33
Rp34
ag10
(g14
S'\x15\x85&\x1a\xa5\x12c@'
p35
tp36
Rp37
ag10
(g14
S'\\g\x8b\x04[Nc@'
p38
tp39
Rp40
ag10
(g14
S'\x8f\xca\xfb\x82\x94uc@'
p41
tp42
Rp43
ag10
(g14
S'Po\xd4<i0c@'
p44
tp45
Rp46
ag10
(g14
S'\xeb\x07\x1c\x10o^c@'
p47
tp48
Rp49
ag10
(g14
S'\xf7\xe3Qu\xcf\xe5b@'
p50
tp51
Rp52
ag10
(g14
S'\x88\\\x0c=\x7f]c@'
p53
tp54
Rp55
ag10
(g14
S'\x93\xdb\xd9\xb9\xccYc@'
p56
tp57
Rp58
ag10
(g14
S'\xf1sT\xfa\x08\xf1b@'
p59
tp60
Rp61
ag10
(g14
S'\xa5)F\x07MXc@'
p62
tp63
Rp64
ag10
(g14
S'\x82\x8cPY\xc2ac@'
p65
tp66
Rp67
ag10
(g14
S'\x92y\xf7\x80\x142c@'
p68
tp69
Rp70
ag10
(g14
S'\xd20U\x7f\xb5bc@'
p71
tp72
Rp73
ag10
(g14
S'\xdcJv{\xf5Ac@'
p74
tp75
Rp76
asS'target'
p77
(lp78
g10
(g14
S'\xfb9\xbayA\x90S@'
p79
tp80
Rp81
ag10
(g14
S'\r\xc5\xe0\x14\xe4\x9bR@'
p82
tp83
Rp84
ag10
(g14
S'\x91h\xbb\xddP\xc6R@'
p85
tp86
Rp87
ag10
(g14
S'\x7f:"\xfaD\xefR@'
p88
tp89
Rp90
ag10
(g14
S'\xe0\x9c\xbd\x02~\xe4W@'
p91
tp92
Rp93
ag10
(g14
S'T\xf0]\x9co\x04W@'
p94
tp95
Rp96
ag10
(g14
S'3\x83rV\x1d\xd1G@'
p97
tp98
Rp99
ag10
(g14
S'o}e\xb0\xdeON@'
p100
tp101
Rp102
ag10
(g14
S'P\x87U>yhS@'
p103
tp104
Rp105
ag10
(g14
S'%\x8dN\x12\xcc\x82N@'
p106
tp107
Rp108
ag10
(g14
S'\xa1Es\xf2<\x8aP@'
p109
tp110
Rp111
ag10
(g14
S'\xb6\x04k|`\x08O@'
p112
tp113
Rp114
ag10
(g14
S'\xec\tJ\x1d\x85\x92T@'
p115
tp116
Rp117
ag10
(g14
S'y\xcb\xdf\xce|\xd7U@'
p118
tp119
Rp120
ag10
(g14
S'Q\xb1(Fd\xabP@'
p121
tp122
Rp123
ag10
(g14
S'\x14\x86\xb4\xd5hPV@'
p124
tp125
Rp126
ag10
(g14
S'+>D9D\xa9K@'
p127
tp128
Rp129
ag10
(g14
S'\xd5XA\xd2\r\xbeU@'
p130
tp131
Rp132
ag10
(g14
S'\x01\x9c\xeez\xabER@'
p133
tp134
Rp135
ag10
(g14
S'r\x8aP\xa9\xe1\xf6R@'
p136
tp137
Rp138
asssss.