(dp0
S'../Data/sqlite_87.csv'
p1
(dp2
S'../Data/sqlite_86.csv'
p3
(dp4
F0.15
(dp5
S'mmre'
p6
(dp7
S'bellwether'
p8
(lp9
cnumpy.core.multiarray
scalar
p10
(cnumpy
dtype
p11
(S'f8'
p12
I0
I1
tp13
Rp14
(I3
S'<'
p15
NNNI-1
I-1
I0
tp16
bS'\xbb\xe52\x9b}iw@'
p17
tp18
Rp19
ag10
(g14
S'\xb5}\xa8\x8b\xc7qw@'
p20
tp21
Rp22
ag10
(g14
S'\xc4\xd1[\xb9\xa3~w@'
p23
tp24
Rp25
ag10
(g14
S'\x82`\xf7k\x04Vw@'
p26
tp27
Rp28
ag10
(g14
S'\xca\\TT\x0chw@'
p29
tp30
Rp31
ag10
(g14
S'\x88\x94\xb0\xc9Yrw@'
p32
tp33
Rp34
ag10
(g14
S'\xd5\x80!=h\xa0w@'
p35
tp36
Rp37
ag10
(g14
S'\xad/F6\xc5xw@'
p38
tp39
Rp40
ag10
(g14
S'\xcd\xea\xec4Qaw@'
p41
tp42
Rp43
ag10
(g14
S'\xef0\xd7\x97.rw@'
p44
tp45
Rp46
ag10
(g14
S'(\xf0v\x1b\x9fnw@'
p47
tp48
Rp49
ag10
(g14
S'\x16\xb3\xb3\x0f#`w@'
p50
tp51
Rp52
ag10
(g14
S"\xd1'I)\xd6Kw@"
p53
tp54
Rp55
ag10
(g14
S'52c\x83o]w@'
p56
tp57
Rp58
ag10
(g14
S'K\xb7\x98\x87iVw@'
p59
tp60
Rp61
ag10
(g14
S'\x9e\x1f5\xcdxrw@'
p62
tp63
Rp64
ag10
(g14
S'\\\x10\x17\xee}tw@'
p65
tp66
Rp67
ag10
(g14
S'`\x17u\x15\xf9nw@'
p68
tp69
Rp70
ag10
(g14
S'\xea\x82ub}|w@'
p71
tp72
Rp73
ag10
(g14
S'\xa8\xb8S\xee^Yw@'
p74
tp75
Rp76
asS'target'
p77
(lp78
g10
(g14
S'/\xaf-&\xc9,Q@'
p79
tp80
Rp81
ag10
(g14
S'\xc0*2\x17J\xc5Z@'
p82
tp83
Rp84
ag10
(g14
S'\xe8(\xdb\xb1\xe9\xf3Q@'
p85
tp86
Rp87
ag10
(g14
S'\x05bS\xfa&_S@'
p88
tp89
Rp90
ag10
(g14
S'\xc2\xe4\xdc.\x1f\xb3Q@'
p91
tp92
Rp93
ag10
(g14
S'\xba\xc4\x97\xedz\xe7R@'
p94
tp95
Rp96
ag10
(g14
S'\x12$\xbc\\zzJ@'
p97
tp98
Rp99
ag10
(g14
S'\xbb\xa3k0>\xe8R@'
p100
tp101
Rp102
ag10
(g14
S'S\xdc\xb8H\xae\xfbT@'
p103
tp104
Rp105
ag10
(g14
S'\x0c(R\xc5^\xdeQ@'
p106
tp107
Rp108
ag10
(g14
S'\xec^Jk\xcb#M@'
p109
tp110
Rp111
ag10
(g14
S'\x90\x88\xd1l\x0e1K@'
p112
tp113
Rp114
ag10
(g14
S'm\xc3/\xabaAM@'
p115
tp116
Rp117
ag10
(g14
S'u\x16F<\xf1\x1eG@'
p118
tp119
Rp120
ag10
(g14
S'\x13O\x12l\xdf\x02U@'
p121
tp122
Rp123
ag10
(g14
S'_\xc3\xd0"}XJ@'
p124
tp125
Rp126
ag10
(g14
S'7\xf7.\xd9\x19cQ@'
p127
tp128
Rp129
ag10
(g14
S'\x19\x0b\xb4\x88P\xf0I@'
p130
tp131
Rp132
ag10
(g14
S'\xd7k\\\xff+xR@'
p133
tp134
Rp135
ag10
(g14
S'\x1ej\xcc\xd6\xdf\xcbG@'
p136
tp137
Rp138
asssss.