(dp0
S'../Data/sqlite_74.csv'
p1
(dp2
S'../Data/sqlite_42.csv'
p3
(dp4
F0.25
(dp5
S'abs_res'
p6
(dp7
S'bellwether'
p8
(lp9
cnumpy.core.multiarray
scalar
p10
(cnumpy
dtype
p11
(S'f8'
p12
I0
I1
tp13
Rp14
(I3
S'<'
p15
NNNI-1
I-1
I0
tp16
bS'[\xabc\xaeheiA'
p17
tp18
Rp19
ag10
(g14
S'\xd0v\xbe#_`iA'
p20
tp21
Rp22
ag10
(g14
S'\x17\xd9\xce3\x14_iA'
p23
tp24
Rp25
ag10
(g14
S'`d;\x97\xc7fiA'
p26
tp27
Rp28
ag10
(g14
S'\xe8\xfb\xa9\x85\xaahiA'
p29
tp30
Rp31
ag10
(g14
S'F(\xa3K\x97biA'
p32
tp33
Rp34
ag10
(g14
S'\xa2\xb7e\xd1\x12liA'
p35
tp36
Rp37
ag10
(g14
S'\xc9t\x93<\xeb[iA'
p38
tp39
Rp40
ag10
(g14
S'\xfa\x9a\x0bu\xbfjiA'
p41
tp42
Rp43
ag10
(g14
S'k\xf4\xb6\x94\xdb\\iA'
p44
tp45
Rp46
ag10
(g14
S'\x068B\xc1\x00]iA'
p47
tp48
Rp49
ag10
(g14
S'i\x91\xed \xfdeiA'
p50
tp51
Rp52
ag10
(g14
S'\x1f\xbd-o\xf7\\iA'
p53
tp54
Rp55
ag10
(g14
S'3z[\xee\x08eiA'
p56
tp57
Rp58
ag10
(g14
S'\xec\xd0"[feiA'
p59
tp60
Rp61
ag10
(g14
S'X\xf2\x8b\t\xd7piA'
p62
tp63
Rp64
ag10
(g14
S'\xdc$\x06\xb5`ciA'
p65
tp66
Rp67
ag10
(g14
S'}\xe9&q\xf3eiA'
p68
tp69
Rp70
ag10
(g14
S'  \xf7\xfe,YiA'
p71
tp72
Rp73
ag10
(g14
S'\x17 \xf7\xc6\x10aiA'
p74
tp75
Rp76
asS'target'
p77
(lp78
g10
(g14
S'\xc8"\xdb\xf9~rf@'
p79
tp80
Rp81
ag10
(g14
S'\xc5K7\x89A\xfae@'
p82
tp83
Rp84
ag10
(g14
S'\xe3O\x8d\x97nBd@'
p85
tp86
Rp87
ag10
(g14
S'\x1c/\xdd$\x06\xf9e@'
p88
tp89
Rp90
ag10
(g14
S'\xc2 \xb0rhKf@'
p91
tp92
Rp93
ag10
(g14
S'\xc1\xca\xa1E\xb6?d@'
p94
tp95
Rp96
ag10
(g14
S'\x0f\x02+\x87\x16]f@'
p97
tp98
Rp99
ag10
(g14
S'z?5^\xba\x9ff@'
p100
tp101
Rp102
ag10
(g14
S'\x1f\xdb\xf9~j\xb8e@'
p103
tp104
Rp105
ag10
(g14
S'\x93n\x12\x83\xc0ff@'
p106
tp107
Rp108
ag10
(g14
S'H\x0c\x02+\x87jf@'
p109
tp110
Rp111
ag10
(g14
S'\xafrh\x91\xedZe@'
p112
tp113
Rp114
ag10
(g14
S';`\xe5\xd0";f@'
p115
tp116
Rp117
ag10
(g14
S'zj\xbct\x93\\e@'
p118
tp119
Rp120
ag10
(g14
S'\xf8(\\\x8f\xc2\x05f@'
p121
tp122
Rp123
ag10
(g14
S'^\xe5\xd0"\xdb\xb1e@'
p124
tp125
Rp126
ag10
(g14
S'\xbf \xb0rh#e@'
p127
tp128
Rp129
ag10
(g14
S'\xa6\xc6K7\x89\xcbe@'
p130
tp131
Rp132
ag10
(g14
S'*\x08\xac\x1cZ\\f@'
p133
tp134
Rp135
ag10
(g14
S'\xbfI\x0c\x02+Oe@'
p136
tp137
Rp138
asssss.