(dp0
S'../Data/sqlite_3.csv'
p1
(dp2
S'../Data/sqlite_89.csv'
p3
(dp4
F0.2
(dp5
S'mmre'
p6
(dp7
S'bellwether'
p8
(lp9
cnumpy.core.multiarray
scalar
p10
(cnumpy
dtype
p11
(S'f8'
p12
I0
I1
tp13
Rp14
(I3
S'<'
p15
NNNI-1
I-1
I0
tp16
bS'\xe6\x8d#\xb0c\x90;@'
p17
tp18
Rp19
ag10
(g14
S'jh\xbd_?\x83;@'
p20
tp21
Rp22
ag10
(g14
S'>un\xe2\xe7};@'
p23
tp24
Rp25
ag10
(g14
S'*|\xe6\xffg\x00<@'
p26
tp27
Rp28
ag10
(g14
S'\xc2?$_I\x9a;@'
p29
tp30
Rp31
ag10
(g14
S'me&\x10\xb9\xff;@'
p32
tp33
Rp34
ag10
(g14
S'`G[\xda\x96\x7f<@'
p35
tp36
Rp37
ag10
(g14
S'\x804\xc7`)x;@'
p38
tp39
Rp40
ag10
(g14
S'\x11\x8bT=\x82\xbf;@'
p41
tp42
Rp43
ag10
(g14
S'\x1a\xef@\xac4\x96;@'
p44
tp45
Rp46
ag10
(g14
S'\xd3\x1d\xab\xb6%H<@'
p47
tp48
Rp49
ag10
(g14
S'%\xd5\xf2\xa7\xbb>;@'
p50
tp51
Rp52
ag10
(g14
S'\x15\xaa\xeb\xb8.];@'
p53
tp54
Rp55
ag10
(g14
S'\xbc\xf9\xd1N\xb0\x1b<@'
p56
tp57
Rp58
ag10
(g14
S'3\xb0\xb9\xd4\xb3\xb3;@'
p59
tp60
Rp61
ag10
(g14
S'$\xb7\x891\xb9\x89;@'
p62
tp63
Rp64
ag10
(g14
S'xk\x06\x8dUG<@'
p65
tp66
Rp67
ag10
(g14
S'^.?\x88\xd1\xee;@'
p68
tp69
Rp70
ag10
(g14
S'\x88\xd2\xcb3S\x96;@'
p71
tp72
Rp73
ag10
(g14
S'\x0e\x0f?u\r7;@'
p74
tp75
Rp76
asS'target'
p77
(lp78
g10
(g14
S'h.s\xd9=\xcfQ@'
p79
tp80
Rp81
ag10
(g14
S'7\xe7\t\x81\xf0qU@'
p82
tp83
Rp84
ag10
(g14
S'\x13mq\x8d\xae\x1fM@'
p85
tp86
Rp87
ag10
(g14
S'\xdaP`%g!M@'
p88
tp89
Rp90
ag10
(g14
S'\x1cSF\x8b\x01KS@'
p91
tp92
Rp93
ag10
(g14
S'`w,\xa1\x81LR@'
p94
tp95
Rp96
ag10
(g14
S'\xa4\xdf\x86\xc6\xdc\xb5I@'
p97
tp98
Rp99
ag10
(g14
S'\xf6"\xec\xae\xbd\xcbL@'
p100
tp101
Rp102
ag10
(g14
S'\x92;\xd1"\xa9>P@'
p103
tp104
Rp105
ag10
(g14
S'\xcck\xfc\xd13\xd5Q@'
p106
tp107
Rp108
ag10
(g14
S'cJ\x9c\x8d\xf2\x1dN@'
p109
tp110
Rp111
ag10
(g14
S'\t\r8[\xd4\xb0X@'
p112
tp113
Rp114
ag10
(g14
S'\x98\xdd\x8a\xb3ZXS@'
p115
tp116
Rp117
ag10
(g14
S'T0D^\xbd\x17T@'
p118
tp119
Rp120
ag10
(g14
S'o\xb8\xa3er\x18Q@'
p121
tp122
Rp123
ag10
(g14
S'\xc5\t-~P\xc3N@'
p124
tp125
Rp126
ag10
(g14
S'\x80\x93{\x89\xaa\xd2M@'
p127
tp128
Rp129
ag10
(g14
S'\x0cP\xc6\xcf\xdaeQ@'
p130
tp131
Rp132
ag10
(g14
S'\xa2\x95(\xe86wS@'
p133
tp134
Rp135
ag10
(g14
S'\xdd\x92\x83Gj~S@'
p136
tp137
Rp138
asssss.