(dp0
S'../Data/sqlite_77.csv'
p1
(dp2
S'../Data/sqlite_95.csv'
p3
(dp4
F0.2
(dp5
S'mmre'
p6
(dp7
S'bellwether'
p8
(lp9
cnumpy.core.multiarray
scalar
p10
(cnumpy
dtype
p11
(S'f8'
p12
I0
I1
tp13
Rp14
(I3
S'<'
p15
NNNI-1
I-1
I0
tp16
bS'"\xe5t\x9ceGX@'
p17
tp18
Rp19
ag10
(g14
S'f\x1e\xb6\xbdLIX@'
p20
tp21
Rp22
ag10
(g14
S'X@\xcc\x92\x9fIX@'
p23
tp24
Rp25
ag10
(g14
S'\x14\xdbj\x0e\xd3HX@'
p26
tp27
Rp28
ag10
(g14
S'd\x87D\xd9\xa7FX@'
p29
tp30
Rp31
ag10
(g14
S'\x92om\t\xb1HX@'
p32
tp33
Rp34
ag10
(g14
S'Y\xb9\x060\xe8IX@'
p35
tp36
Rp37
ag10
(g14
S'"\x82\xc8~\xc2IX@'
p38
tp39
Rp40
ag10
(g14
S'7+:H\xd4HX@'
p41
tp42
Rp43
ag10
(g14
S'\xec\xba\xf3\x1b\x87HX@'
p44
tp45
Rp46
ag10
(g14
S'0\r\x8cb\xdcGX@'
p47
tp48
Rp49
ag10
(g14
S'\xe3\xa12FhHX@'
p50
tp51
Rp52
ag10
(g14
S'\x9c\xb1\xa9\xad\x19IX@'
p53
tp54
Rp55
ag10
(g14
S'\xf8\xefm\xb3%JX@'
p56
tp57
Rp58
ag10
(g14
S'j\xcb\x9f\xdd\xeeGX@'
p59
tp60
Rp61
ag10
(g14
S'f\x0b\x1b-\x1eHX@'
p62
tp63
Rp64
ag10
(g14
S'\xce<*)\x18HX@'
p65
tp66
Rp67
ag10
(g14
S']\xdb\xe7\x18\xfeHX@'
p68
tp69
Rp70
ag10
(g14
S'HL\xb2\x0eVIX@'
p71
tp72
Rp73
ag10
(g14
S'\xfe\x13\x12\rsHX@'
p74
tp75
Rp76
asS'target'
p77
(lp78
g10
(g14
S'\xfeF\xcaN8lD@'
p79
tp80
Rp81
ag10
(g14
S'\xb1\xd6\xe6\xfd\x8c@A@'
p82
tp83
Rp84
ag10
(g14
S'x\x1ef\x12K\xb4B@'
p85
tp86
Rp87
ag10
(g14
S'dR\xc6\xaaW3C@'
p88
tp89
Rp90
ag10
(g14
S'b\x03\x0b\xdd\x0e&?@'
p91
tp92
Rp93
ag10
(g14
S'\x91\xa6\xaa\x91\xa7\x07A@'
p94
tp95
Rp96
ag10
(g14
S'\x1eJa\xab\xc7p@@'
p97
tp98
Rp99
ag10
(g14
S'\x02\xee\xc3r\xae\x11B@'
p100
tp101
Rp102
ag10
(g14
S'K)\xc2\x014EA@'
p103
tp104
Rp105
ag10
(g14
S'\x9b\x01\x9f\\wE?@'
p106
tp107
Rp108
ag10
(g14
S'\xfcR-\x16e\x1bA@'
p109
tp110
Rp111
ag10
(g14
S'\xbe\xa7hb\xa7H@@'
p112
tp113
Rp114
ag10
(g14
S'8\xa06\xba\xb7\xc6A@'
p115
tp116
Rp117
ag10
(g14
S';>)\xd2\x89\xf9>@'
p118
tp119
Rp120
ag10
(g14
S'|\xceDBe|C@'
p121
tp122
Rp123
ag10
(g14
S'\xe8\x95C\xa11\x11@@'
p124
tp125
Rp126
ag10
(g14
S'\xe0\xbcI\xb0#\xb8D@'
p127
tp128
Rp129
ag10
(g14
S'\x14\x11\xediF\x95D@'
p130
tp131
Rp132
ag10
(g14
S'5\xbep\xef@\xacC@'
p133
tp134
Rp135
ag10
(g14
S'\xac\xda\xd0M(MB@'
p136
tp137
Rp138
asssss.