(dp0
S'../Data/sqlite_38.csv'
p1
(dp2
S'../Data/sqlite_95.csv'
p3
(dp4
F0.4
(dp5
S'mmre'
p6
(dp7
S'bellwether'
p8
(lp9
cnumpy.core.multiarray
scalar
p10
(cnumpy
dtype
p11
(S'f8'
p12
I0
I1
tp13
Rp14
(I3
S'<'
p15
NNNI-1
I-1
I0
tp16
bS'\xd0!\xcbk\x1d#V@'
p17
tp18
Rp19
ag10
(g14
S'p\x0eD\x08++V@'
p20
tp21
Rp22
ag10
(g14
S'hw\x95\xed\n V@'
p23
tp24
Rp25
ag10
(g14
S'\x0c\xb8\x93\t\x85\x1dV@'
p26
tp27
Rp28
ag10
(g14
S'\xf0\xc1\xdbX\xeb\x1fV@'
p29
tp30
Rp31
ag10
(g14
S'\xae\xe5\x98dp"V@'
p32
tp33
Rp34
ag10
(g14
S'\xf8:\x1f?\x04\x1cV@'
p35
tp36
Rp37
ag10
(g14
S'ag\xca\xe5`,V@'
p38
tp39
Rp40
ag10
(g14
S'U\xdcT\x86\xf6\x16V@'
p41
tp42
Rp43
ag10
(g14
S'\x03W\xc5g\x9f(V@'
p44
tp45
Rp46
ag10
(g14
S'\xa5\\<\x9d\x1c%V@'
p47
tp48
Rp49
ag10
(g14
S'\'@iza"V@'
p50
tp51
Rp52
ag10
(g14
S'\x9b\x91\xe7\xdc\xf3(V@'
p53
tp54
Rp55
ag10
(g14
S'\xbay\xa1\xb7\xe7$V@'
p56
tp57
Rp58
ag10
(g14
S'p\xfc\xc7\\\xdc\x1cV@'
p59
tp60
Rp61
ag10
(g14
S'p\x07o\t2#V@'
p62
tp63
Rp64
ag10
(g14
S'.\x80v\x8ek#V@'
p65
tp66
Rp67
ag10
(g14
S'\xde\tt\xff\x03#V@'
p68
tp69
Rp70
ag10
(g14
S'\x1da\xfa}`$V@'
p71
tp72
Rp73
ag10
(g14
S'%\xd8#BB#V@'
p74
tp75
Rp76
asS'target'
p77
(lp78
g10
(g14
S':\xfc4\x16\xde\xcf<@'
p79
tp80
Rp81
ag10
(g14
S'\x8df\xeb\x83\xf2\xc1=@'
p82
tp83
Rp84
ag10
(g14
S' \xe8\x80\xaa\xfc\xac@@'
p85
tp86
Rp87
ag10
(g14
S'\xc9\xa8;;v{@@'
p88
tp89
Rp90
ag10
(g14
S'}m\xfah\xf2\xb0B@'
p91
tp92
Rp93
ag10
(g14
S'\xb5\x0e\xc93\xd1q@@'
p94
tp95
Rp96
ag10
(g14
S'\x11\xe7\xab\xa4\xf07B@'
p97
tp98
Rp99
ag10
(g14
S'\xec\x06\x82b\xadfC@'
p100
tp101
Rp102
ag10
(g14
S'V\x11\xa9&?\xbcC@'
p103
tp104
Rp105
ag10
(g14
S'>\x8bP\xa2VeA@'
p106
tp107
Rp108
ag10
(g14
S'P\xe1M\xfaU\x14A@'
p109
tp110
Rp111
ag10
(g14
S'\xadhkJGr@@'
p112
tp113
Rp114
ag10
(g14
S'\xfdX\xb1\x89\x85\xed>@'
p115
tp116
Rp117
ag10
(g14
S'\x18\xd3\n\x82\x19\xf0@@'
p118
tp119
Rp120
ag10
(g14
S'\xa1\x8e/\x17\x08\xa1@@'
p121
tp122
Rp123
ag10
(g14
S'\xaeN\xed!\x1a#?@'
p124
tp125
Rp126
ag10
(g14
S'\x80:\xb9\xd9C\x9cB@'
p127
tp128
Rp129
ag10
(g14
S'R\x99\xf3\xc2Tu?@'
p130
tp131
Rp132
ag10
(g14
S'`|A\x19\xa4\xa0@@'
p133
tp134
Rp135
ag10
(g14
S'\x80\xf1\xdc\xd2\xf0@>@'
p136
tp137
Rp138
asssss.