(dp0
S'../Data/sqlite_37.csv'
p1
(dp2
S'../Data/sqlite_84.csv'
p3
(dp4
F0.25
(dp5
S'mmre'
p6
(dp7
S'bellwether'
p8
(lp9
cnumpy.core.multiarray
scalar
p10
(cnumpy
dtype
p11
(S'f8'
p12
I0
I1
tp13
Rp14
(I3
S'<'
p15
NNNI-1
I-1
I0
tp16
bS'\x8d\xf0@\x1e\x18 U@'
p17
tp18
Rp19
ag10
(g14
S'\xe6\x8f1\xd4N\x1eU@'
p20
tp21
Rp22
ag10
(g14
S'\xbct\xad\x9e?\x1dU@'
p23
tp24
Rp25
ag10
(g14
S'\x81A\xe04\x96+U@'
p26
tp27
Rp28
ag10
(g14
S'\xe6\x9bz9\xfb#U@'
p29
tp30
Rp31
ag10
(g14
S'\xf4J\\\xe3\xe3 U@'
p32
tp33
Rp34
ag10
(g14
S'v\x84\x04\xca\xf0+U@'
p35
tp36
Rp37
ag10
(g14
S'\xe8\xf5\xbdD\xb6#U@'
p38
tp39
Rp40
ag10
(g14
S'\xaf\x99\x86o\xee*U@'
p41
tp42
Rp43
ag10
(g14
S'\xb7n\xc4\xa5- U@'
p44
tp45
Rp46
ag10
(g14
S'\xed;)\xe2\x19)U@'
p47
tp48
Rp49
ag10
(g14
S'\xdar\xac\xe6\xc5\x18U@'
p50
tp51
Rp52
ag10
(g14
S'\xa2Ph\xe4\xfc\x1cU@'
p53
tp54
Rp55
ag10
(g14
S'\\\xc9\xd7\x9e\xa0)U@'
p56
tp57
Rp58
ag10
(g14
S'Fj\xe7$&&U@'
p59
tp60
Rp61
ag10
(g14
S'\x03?\xa4`\xcc0U@'
p62
tp63
Rp64
ag10
(g14
S"'\xeak&\xb2&U@"
p65
tp66
Rp67
ag10
(g14
S'8\xdas\xe8\xa7\x1fU@'
p68
tp69
Rp70
ag10
(g14
S'=(X\xd1& U@'
p71
tp72
Rp73
ag10
(g14
S'\xa8\xffA\xd0]$U@'
p74
tp75
Rp76
asS'target'
p77
(lp78
g10
(g14
S'&2F!A\x95O@'
p79
tp80
Rp81
ag10
(g14
S'$\x18~\xcfn\xb1L@'
p82
tp83
Rp84
ag10
(g14
S'\xd3o\r\xe9\x84\xe9R@'
p85
tp86
Rp87
ag10
(g14
S'.\xf6q5\x8frJ@'
p88
tp89
Rp90
ag10
(g14
S'+@\x9f\xbb\xb4)R@'
p91
tp92
Rp93
ag10
(g14
S'.>&\xe4D;P@'
p94
tp95
Rp96
ag10
(g14
S'q\x15\x87\x97=\xecQ@'
p97
tp98
Rp99
ag10
(g14
S'C,\xfe\xe6\xa52M@'
p100
tp101
Rp102
ag10
(g14
S';\xfc\x88l\x00\rK@'
p103
tp104
Rp105
ag10
(g14
S'\xdc\xdf\xd8sAQF@'
p106
tp107
Rp108
ag10
(g14
S'\xaa\x91Z\xae\x81\x0eQ@'
p109
tp110
Rp111
ag10
(g14
S'^\xaa\xd3-\xd3uH@'
p112
tp113
Rp114
ag10
(g14
S'\\\x06V\x1c#\xceS@'
p115
tp116
Rp117
ag10
(g14
S'\xb9\x88!\xbb\xac&S@'
p118
tp119
Rp120
ag10
(g14
S'\xc3\x8b\x8dB=>P@'
p121
tp122
Rp123
ag10
(g14
S'!\xaf\\\x8f\x89\xe6@@'
p124
tp125
Rp126
ag10
(g14
S"\xf7\x1e\xd7*\n'K@"
p127
tp128
Rp129
ag10
(g14
S'-\xe8\x15\x01\x82\nR@'
p130
tp131
Rp132
ag10
(g14
S'\x84\xa8\x98\xd6\x05\nM@'
p133
tp134
Rp135
ag10
(g14
S'\x15m\x94\xea#\xd6T@'
p136
tp137
Rp138
asssss.