(dp0
S'../Data/sqlite_44.csv'
p1
(dp2
S'../Data/sqlite_97.csv'
p3
(dp4
F0.3
(dp5
S'mmre'
p6
(dp7
S'bellwether'
p8
(lp9
cnumpy.core.multiarray
scalar
p10
(cnumpy
dtype
p11
(S'f8'
p12
I0
I1
tp13
Rp14
(I3
S'<'
p15
NNNI-1
I-1
I0
tp16
bS'Tj\x13+\x8dzW@'
p17
tp18
Rp19
ag10
(g14
S'Db.\xc06|W@'
p20
tp21
Rp22
ag10
(g14
S'\xfbtz\xd0\xd5yW@'
p23
tp24
Rp25
ag10
(g14
S'\xb6rJ\xe2\x03vW@'
p26
tp27
Rp28
ag10
(g14
S'\x99\x817\xcf\xee\x7fW@'
p29
tp30
Rp31
ag10
(g14
S'#\xd6\xcc)W}W@'
p32
tp33
Rp34
ag10
(g14
S'\x85OB@\x95{W@'
p35
tp36
Rp37
ag10
(g14
S'"Wv\x8e2{W@'
p38
tp39
Rp40
ag10
(g14
S'ne\r\xec2\x7fW@'
p41
tp42
Rp43
ag10
(g14
S'\xc8\t\xb6\xa4\xf6vW@'
p44
tp45
Rp46
ag10
(g14
S'\xc4S\xd3\x8c\xb4}W@'
p47
tp48
Rp49
ag10
(g14
S'\x96\xa4\x88l\x8dwW@'
p50
tp51
Rp52
ag10
(g14
S'\xb2\xc0XgB}W@'
p53
tp54
Rp55
ag10
(g14
S'\x12\xcf7RS{W@'
p56
tp57
Rp58
ag10
(g14
S'\x9d\xc6{W\x12\x80W@'
p59
tp60
Rp61
ag10
(g14
S'\xf78$\\\xe2zW@'
p62
tp63
Rp64
ag10
(g14
S'|\x8b\xb1\xdc\xea}W@'
p65
tp66
Rp67
ag10
(g14
S'\xc9\xe3\x0f\x0ekzW@'
p68
tp69
Rp70
ag10
(g14
S'e\xa9}\xaf\xa4zW@'
p71
tp72
Rp73
ag10
(g14
S'"\xb1\xe2\x01r{W@'
p74
tp75
Rp76
asS'target'
p77
(lp78
g10
(g14
S'\x9c\xf9i\xd8%\x8eV@'
p79
tp80
Rp81
ag10
(g14
S"y\x14'67\x08V@"
p82
tp83
Rp84
ag10
(g14
S'\xf92\xf4\xb5&$R@'
p85
tp86
Rp87
ag10
(g14
S'\xb8\xaa}\x12\xd0\xa8]@'
p88
tp89
Rp90
ag10
(g14
S'h{P\x9d]\xb6Q@'
p91
tp92
Rp93
ag10
(g14
S'\xde\xfe\x92\xa6B\xaaV@'
p94
tp95
Rp96
ag10
(g14
S'\xf7R\xceW\x14\xd6W@'
p97
tp98
Rp99
ag10
(g14
S'\xf0me#1\x9aU@'
p100
tp101
Rp102
ag10
(g14
S'\xc0\x97\x86L\xab\xe2T@'
p103
tp104
Rp105
ag10
(g14
S' u\xfa\xeb\x14\xeaV@'
p106
tp107
Rp108
ag10
(g14
S'q\xcc;\xcb\xf8IW@'
p109
tp110
Rp111
ag10
(g14
S'?~\xf4]\xf1OY@'
p112
tp113
Rp114
ag10
(g14
S'\xcd5\x99\xa68\x7fH@'
p115
tp116
Rp117
ag10
(g14
S'\xc7(iL/\xaaY@'
p118
tp119
Rp120
ag10
(g14
S'\x88\xa0!\xe2\xfexK@'
p121
tp122
Rp123
ag10
(g14
S'\xc8DgxA\x97W@'
p124
tp125
Rp126
ag10
(g14
S'\xf5\xd4\xa7DJ{U@'
p127
tp128
Rp129
ag10
(g14
S'6\xb2\x90\x98\xdf\xf8[@'
p130
tp131
Rp132
ag10
(g14
S'@`\xb9\x0fA\x83Z@'
p133
tp134
Rp135
ag10
(g14
S'\x9e\x14*U\x80\xe7S@'
p136
tp137
Rp138
asssss.