(dp0
S'../Data/sqlite_1.csv'
p1
(dp2
S'../Data/sqlite_22.csv'
p3
(dp4
F0.15
(dp5
S'abs_res'
p6
(dp7
S'bellwether'
p8
(lp9
cnumpy.core.multiarray
scalar
p10
(cnumpy
dtype
p11
(S'f8'
p12
I0
I1
tp13
Rp14
(I3
S'<'
p15
NNNI-1
I-1
I0
tp16
bS'\x81\xc0\xca\xa1\xffK@A'
p17
tp18
Rp19
ag10
(g14
S'u0O\x84\x0bK@A'
p20
tp21
Rp22
ag10
(g14
S'\xd6\xbf\x11Z\xf3K@A'
p23
tp24
Rp25
ag10
(g14
S'\xe1\xa5\x9btmK@A'
p26
tp27
Rp28
ag10
(g14
S';\n\xd7#vK@A'
p29
tp30
Rp31
ag10
(g14
S'{\xe9&\xf1\xc4K@A'
p32
tp33
Rp34
ag10
(g14
S'\xec\xc3gxwK@A'
p35
tp36
Rp37
ag10
(g14
S'\x81\x95C\xfb\x06L@A'
p38
tp39
Rp40
ag10
(g14
S'\xe5\xc1<q\x1eL@A'
p41
tp42
Rp43
ag10
(g14
S'\\\xd6\xea\x88\x83K@A'
p44
tp45
Rp46
ag10
(g14
S'\xec\n\x90\x0b\xe7J@A'
p47
tp48
Rp49
ag10
(g14
S'=5^\x8afK@A'
p50
tp51
Rp52
ag10
(g14
S'\x1av\x05\xf8\xf1K@A'
p53
tp54
Rp55
ag10
(g14
S'\xe4\xec\xc3\xa7\xa4K@A'
p56
tp57
Rp58
ag10
(g14
S'\xe7&1\x18\xdcJ@A'
p59
tp60
Rp61
ag10
(g14
S'U9\xb4(\xeeJ@A'
p62
tp63
Rp64
ag10
(g14
S'(\xf9\xc5BTK@A'
p65
tp66
Rp67
ag10
(g14
S'#""r\xc5K@A'
p68
tp69
Rp70
ag10
(g14
S'O\xd4\xbf\xd1\x9aJ@A'
p71
tp72
Rp73
ag10
(g14
S'\x83\x07\xf3d\xe5K@A'
p74
tp75
Rp76
asS'target'
p77
(lp78
g10
(g14
S'G7\x89A`=[@'
p79
tp80
Rp81
ag10
(g14
S'Xb\x10X9TZ@'
p82
tp83
Rp84
ag10
(g14
S'\xb2rh\x91\xed\x14V@'
p85
tp86
Rp87
ag10
(g14
S'\xe7\xa5\x9b\xc4 \x00Y@'
p88
tp89
Rp90
ag10
(g14
S'\xf8~j\xbct3X@'
p91
tp92
Rp93
ag10
(g14
S'#Zd;\xdf\xa7X@'
p94
tp95
Rp96
ag10
(g14
S'\x8el\xe7\xfb\xa9\xf9X@'
p97
tp98
Rp99
ag10
(g14
S'\xafG\xe1z\x14\x06[@'
p100
tp101
Rp102
ag10
(g14
S'\xd4$\x06\x81\x95\x13[@'
p103
tp104
Rp105
ag10
(g14
S'\x9b\x97n\x12\x83x[@'
p106
tp107
Rp108
ag10
(g14
S'I\xe3\xa5\x9b\xc4hY@'
p109
tp110
Rp111
ag10
(g14
S'V9\xb4\xc8vvW@'
p112
tp113
Rp114
ag10
(g14
S">\xb4\xc8v\xbe'X@"
p115
tp116
Rp117
ag10
(g14
S'K\x0c\x02+\x87\xc6Y@'
p118
tp119
Rp120
ag10
(g14
S'\xc9\xcc\xcc\xcc\xcctZ@'
p121
tp122
Rp123
ag10
(g14
S'\x03\xaa\xf1\xd2M\x9aX@'
p124
tp125
Rp126
ag10
(g14
S')1\x08\xac\x1c2[@'
p127
tp128
Rp129
ag10
(g14
S'\x00\xaa\xf1\xd2MjW@'
p130
tp131
Rp132
ag10
(g14
S'\x9f\x1a/\xdd$\x86Y@'
p133
tp134
Rp135
ag10
(g14
S'\xe3|?5^\xdaZ@'
p136
tp137
Rp138
asssss.