(dp0
S'../Data/sqlite_56.csv'
p1
(dp2
S'../Data/sqlite_76.csv'
p3
(dp4
F0.1
(dp5
S'mmre'
p6
(dp7
S'bellwether'
p8
(lp9
cnumpy.core.multiarray
scalar
p10
(cnumpy
dtype
p11
(S'f8'
p12
I0
I1
tp13
Rp14
(I3
S'<'
p15
NNNI-1
I-1
I0
tp16
bS"'%\xedo>,P@"
p17
tp18
Rp19
ag10
(g14
S'z\xe8V\xbb\xfa*P@'
p20
tp21
Rp22
ag10
(g14
S')\x12Vz\x8c-P@'
p23
tp24
Rp25
ag10
(g14
S'\xe3\xe3\xd6\x85\x99$P@'
p26
tp27
Rp28
ag10
(g14
S'l.\x15\xfc\xd3.P@'
p29
tp30
Rp31
ag10
(g14
S'\xfe"\xeef\xe8-P@'
p32
tp33
Rp34
ag10
(g14
S'\xedtRuC/P@'
p35
tp36
Rp37
ag10
(g14
S'Af\xbf\xc2,,P@'
p38
tp39
Rp40
ag10
(g14
S'@!\x0b\xc0y+P@'
p41
tp42
Rp43
ag10
(g14
S'N\xbd\x87;G,P@'
p44
tp45
Rp46
ag10
(g14
S'0WS\xe1\xc7*P@'
p47
tp48
Rp49
ag10
(g14
S'\xc3\x01\xfab\xd2)P@'
p50
tp51
Rp52
ag10
(g14
S"mX\t\xb2C'P@"
p53
tp54
Rp55
ag10
(g14
S'H\x84\xfey\xb2+P@'
p56
tp57
Rp58
ag10
(g14
S'\x95nL\xa1S+P@'
p59
tp60
Rp61
ag10
(g14
S'/x\xe5\xcb\xff/P@'
p62
tp63
Rp64
ag10
(g14
S'\x05\x11\x90%\x06,P@'
p65
tp66
Rp67
ag10
(g14
S'\x8a/\x85\xb9\x070P@'
p68
tp69
Rp70
ag10
(g14
S'[\x05\xa79\xa89P@'
p71
tp72
Rp73
ag10
(g14
S'W\x0b\x8f\x07\xd7)P@'
p74
tp75
Rp76
asS'target'
p77
(lp78
g10
(g14
S'\x8bqQ\xa1\x1d\x8f2@'
p79
tp80
Rp81
ag10
(g14
S'\xc7/\xbc\x9fSf0@'
p82
tp83
Rp84
ag10
(g14
S'\x90\xd02\x13\xa7B2@'
p85
tp86
Rp87
ag10
(g14
S'\xc9\x8c\xe5\xfaI\xe52@'
p88
tp89
Rp90
ag10
(g14
S'\x94\xf4,.\xa2\x0e0@'
p91
tp92
Rp93
ag10
(g14
S'\xb4\x87m^\xd8\xdb0@'
p94
tp95
Rp96
ag10
(g14
S'\xba]Fm\xf0\t1@'
p97
tp98
Rp99
ag10
(g14
S'\xa1\x1f}\x90(V0@'
p100
tp101
Rp102
ag10
(g14
S'\xc4+^\xa6\x85~0@'
p103
tp104
Rp105
ag10
(g14
S'>KX\x87m\x860@'
p106
tp107
Rp108
ag10
(g14
S'\xe9\x016&G\xba0@'
p109
tp110
Rp111
ag10
(g14
S'\xb6\xcfa\x89?\xfe1@'
p112
tp113
Rp114
ag10
(g14
S'>\x89^\xc4\x95\xec2@'
p115
tp116
Rp117
ag10
(g14
S'\x87\xed\x1e\xa7\x13\x97/@'
p118
tp119
Rp120
ag10
(g14
S'\x05V\x9f\x91\x90W1@'
p121
tp122
Rp123
ag10
(g14
S'\x10\x81\x9b\x04LV1@'
p124
tp125
Rp126
ag10
(g14
S'\x039/\xa3\xcf\x990@'
p127
tp128
Rp129
ag10
(g14
S']\xa5\xbe,\x8b\xa11@'
p130
tp131
Rp132
ag10
(g14
S'dA\xbaN\x1e\x870@'
p133
tp134
Rp135
ag10
(g14
S'\x9a!b\x15\x06l3@'
p136
tp137
Rp138
asssss.