(dp0
S'../Data/sqlite_29.csv'
p1
(dp2
S'../Data/sqlite_50.csv'
p3
(dp4
F0.1
(dp5
S'abs_res'
p6
(dp7
S'bellwether'
p8
(lp9
cnumpy.core.multiarray
scalar
p10
(cnumpy
dtype
p11
(S'f8'
p12
I0
I1
tp13
Rp14
(I3
S'<'
p15
NNNI-1
I-1
I0
tp16
bS'w\xbe\x9f\xca\xf4)DA'
p17
tp18
Rp19
ag10
(g14
S'\xa5\x9b\xc40\xca*DA'
p20
tp21
Rp22
ag10
(g14
S'affvg*DA'
p23
tp24
Rp25
ag10
(g14
S'g\x91\xed\x9c\xe3)DA'
p26
tp27
Rp28
ag10
(g14
S'I\xa98\xcb\xca)DA'
p29
tp30
Rp31
ag10
(g14
S'B`\xe5\xf00*DA'
p32
tp33
Rp34
ag10
(g14
S'\xfe\xab\x1c\x8am*DA'
p35
tp36
Rp37
ag10
(g14
S'\x0c\xf5oT\xfb)DA'
p38
tp39
Rp40
ag10
(g14
S'E~\xb1\x84<*DA'
p41
tp42
Rp43
ag10
(g14
S'Y9\xb4\xc8\xb3*DA'
p44
tp45
Rp46
ag10
(g14
S'L~\xb1Tx*DA'
p47
tp48
Rp49
ag10
(g14
S'\xf7(\\\xcf7*DA'
p50
tp51
Rp52
ag10
(g14
S'(M\xa98\x14*DA'
p53
tp54
Rp55
ag10
(g14
S'\x9f\x8c\xdevE*DA'
p56
tp57
Rp58
ag10
(g14
S'\xe3O\x8d7\xd1*DA'
p59
tp60
Rp61
ag10
(g14
S'\xdf$\x06\xe1\xbd*DA'
p62
tp63
Rp64
ag10
(g14
S'\xf4(\\\x8f\xfc)DA'
p65
tp66
Rp67
ag10
(g14
S'\xf8D\xfd\xcb+*DA'
p68
tp69
Rp70
ag10
(g14
S'\x9e\x9b\xc4\x103*DA'
p71
tp72
Rp73
ag10
(g14
S']s!\x19\x1f*DA'
p74
tp75
Rp76
asS'target'
p77
(lp78
g10
(g14
S'-^\xbaI\x0c\x8aZ@'
p79
tp80
Rp81
ag10
(g14
S'\xf0\xd0"\xdb\xf9F^@'
p82
tp83
Rp84
ag10
(g14
S'\xdc\xf9~j\xbc\xe4]@'
p85
tp86
Rp87
ag10
(g14
S'-1\x08\xac\x1c\x82]@'
p88
tp89
Rp90
ag10
(g14
S'\xe6$\x06\x81\x95\xd3\\@'
p91
tp92
Rp93
ag10
(g14
S'\x83?5^\xba9Z@'
p94
tp95
Rp96
ag10
(g14
S'\xf1\xd2Mb\x10P[@'
p97
tp98
Rp99
ag10
(g14
S'M\x0c\x02+\x87N\\@'
p100
tp101
Rp102
ag10
(g14
S'\x1e\xaeG\xe1z\\[@'
p103
tp104
Rp105
ag10
(g14
S'{h\x91\xed|;\\@'
p106
tp107
Rp108
ag10
(g14
S'\n\x00\x00\x00\x00\xf8Z@'
p109
tp110
Rp111
ag10
(g14
S'\x92\xc2\xf5(\\W^@'
p112
tp113
Rp114
ag10
(g14
S'\x9c\x1a/\xdd$\x8e[@'
p115
tp116
Rp117
ag10
(g14
S'\xf3Q\xb8\x1e\x85\xeb]@'
p118
tp119
Rp120
ag10
(g14
S'\tV\x0e-\xb2MZ@'
p121
tp122
Rp123
ag10
(g14
S'y\x14\xaeG\xe1\x92[@'
p124
tp125
Rp126
ag10
(g14
S'\x18\xd9\xce\xf7SK\\@'
p127
tp128
Rp129
ag10
(g14
S'\x04\xaa\xf1\xd2Mb]@'
p130
tp131
Rp132
ag10
(g14
S"'\x85\xebQ\xb8\x86`@"
p133
tp134
Rp135
ag10
(g14
S'\x81\x95C\x8bl\xef[@'
p136
tp137
Rp138
asssss.