(dp0
S'../Data/sqlite_9.csv'
p1
(dp2
S'../Data/sqlite_59.csv'
p3
(dp4
F0.35
(dp5
S'mmre'
p6
(dp7
S'bellwether'
p8
(lp9
cnumpy.core.multiarray
scalar
p10
(cnumpy
dtype
p11
(S'f8'
p12
I0
I1
tp13
Rp14
(I3
S'<'
p15
NNNI-1
I-1
I0
tp16
bS'\x03\xb9\xa9\xa6D.W@'
p17
tp18
Rp19
ag10
(g14
S'\x92A\x18\xd6x.W@'
p20
tp21
Rp22
ag10
(g14
S'*EM\xed\x9a*W@'
p23
tp24
Rp25
ag10
(g14
S'\xe0)k5C-W@'
p26
tp27
Rp28
ag10
(g14
S'Q\x94\xdd\xd9 *W@'
p29
tp30
Rp31
ag10
(g14
S'm\x12th\xcc,W@'
p32
tp33
Rp34
ag10
(g14
S'%\xc4\xcb\xf5\xad.W@'
p35
tp36
Rp37
ag10
(g14
S'\xdc8\x81\xdb\x19+W@'
p38
tp39
Rp40
ag10
(g14
S'\xef\xa93\xf9\xed.W@'
p41
tp42
Rp43
ag10
(g14
S'J\xdb\xe0#c,W@'
p44
tp45
Rp46
ag10
(g14
S'|fc\xbaD-W@'
p47
tp48
Rp49
ag10
(g14
S"\xb3&a'\xc9-W@"
p50
tp51
Rp52
ag10
(g14
S"\xa6'\xf2\x8e\x15,W@"
p53
tp54
Rp55
ag10
(g14
S'1{@e\xb8,W@'
p56
tp57
Rp58
ag10
(g14
S'\xf54\x0b\xe4\xf9+W@'
p59
tp60
Rp61
ag10
(g14
S'\x1eo\xc0\xf1\xdb+W@'
p62
tp63
Rp64
ag10
(g14
S'\xed\x88iA\xe7/W@'
p65
tp66
Rp67
ag10
(g14
S'\xdc.\xcb\xc5\xbb+W@'
p68
tp69
Rp70
ag10
(g14
S'\x06w\xbc"20W@'
p71
tp72
Rp73
ag10
(g14
S'\xaf\x8f3\xa2\xc2-W@'
p74
tp75
Rp76
asS'target'
p77
(lp78
g10
(g14
S'\xd46\x85A\xe0\x9f$@'
p79
tp80
Rp81
ag10
(g14
S'6$\xb5lbd$@'
p82
tp83
Rp84
ag10
(g14
S'\x8f\xfc\xa8\x8c\xc1\xd4&@'
p85
tp86
Rp87
ag10
(g14
S'(e\xe5\xe9e\xeb$@'
p88
tp89
Rp90
ag10
(g14
S'\x00\xf3\xf5\xeb\xb4\x8e&@'
p91
tp92
Rp93
ag10
(g14
S'i\xe0\x15\x05\xe4\x80&@'
p94
tp95
Rp96
ag10
(g14
S'B\x82\x1d\x10:l%@'
p97
tp98
Rp99
ag10
(g14
S'\xfeh\x84i\x16a&@'
p100
tp101
Rp102
ag10
(g14
S'\xa9b\x1e\x05\xea\xdc&@'
p103
tp104
Rp105
ag10
(g14
S'.\xb7\xea\x8cD\xf3%@'
p106
tp107
Rp108
ag10
(g14
S'\xafZ>nQ\x8b%@'
p109
tp110
Rp111
ag10
(g14
S'>\xf7 \xf7\x12M%@'
p112
tp113
Rp114
ag10
(g14
S'R<\x98#\x98=&@'
p115
tp116
Rp117
ag10
(g14
S'\xd8\xb6\xef!3?&@'
p118
tp119
Rp120
ag10
(g14
S"U\xa5\x91uhL'@"
p121
tp122
Rp123
ag10
(g14
S"4\x91\xbd\xb5\x08'%@"
p124
tp125
Rp126
ag10
(g14
S"\xe0\xb1g\xefo\x03'@"
p127
tp128
Rp129
ag10
(g14
S"W\xb0\xb0V\x95\xa2'@"
p130
tp131
Rp132
ag10
(g14
S'\xad(\xd2\xd1\x988%@'
p133
tp134
Rp135
ag10
(g14
S'>\x8fY\xecVF&@'
p136
tp137
Rp138
asssss.