(dp0
S'../Data/sqlite_6.csv'
p1
(dp2
S'../Data/sqlite_78.csv'
p3
(dp4
F0.35
(dp5
S'mmre'
p6
(dp7
S'bellwether'
p8
(lp9
cnumpy.core.multiarray
scalar
p10
(cnumpy
dtype
p11
(S'f8'
p12
I0
I1
tp13
Rp14
(I3
S'<'
p15
NNNI-1
I-1
I0
tp16
bS'\xbe\x8f\x88\xbf\xa9eU@'
p17
tp18
Rp19
ag10
(g14
S'f\xfa7Ah\xaaU@'
p20
tp21
Rp22
ag10
(g14
S'\x06\xb2\xba\xaa\xb4kU@'
p23
tp24
Rp25
ag10
(g14
S'C\x13Q_\x80rU@'
p26
tp27
Rp28
ag10
(g14
S')rd"\xc7\xb2U@'
p29
tp30
Rp31
ag10
(g14
S'\x05\x12\xe6@\xa0]U@'
p32
tp33
Rp34
ag10
(g14
S'6yb\xa8k\xa0U@'
p35
tp36
Rp37
ag10
(g14
S'\xc2\xc9-\x02\xe5wU@'
p38
tp39
Rp40
ag10
(g14
S'\xf5\x16a\xc1\x84\xbbU@'
p41
tp42
Rp43
ag10
(g14
S'\xe0j\x12\xfc\x08WU@'
p44
tp45
Rp46
ag10
(g14
S"\xf7 '\xdf\xb5kU@"
p47
tp48
Rp49
ag10
(g14
S'\x1bN\xd23\xd2\x99U@'
p50
tp51
Rp52
ag10
(g14
S"EW\x13\xf3'\xfaT@"
p53
tp54
Rp55
ag10
(g14
S'\x8b\x07\xa0\xbd\xa5\x9eU@'
p56
tp57
Rp58
ag10
(g14
S'\xd8ir)\xf6\xc8U@'
p59
tp60
Rp61
ag10
(g14
S'\x02<\xdb[d\xaaU@'
p62
tp63
Rp64
ag10
(g14
S',+\xae\x86\xdd\xb0U@'
p65
tp66
Rp67
ag10
(g14
S'\xbb>\\\xf2afU@'
p68
tp69
Rp70
ag10
(g14
S']a\xdeJ\xf8\x83U@'
p71
tp72
Rp73
ag10
(g14
S'C-K\x01\xac\x9aU@'
p74
tp75
Rp76
asS'target'
p77
(lp78
g10
(g14
S'\xcb\xdf\xb9\xa8\xc0Q2@'
p79
tp80
Rp81
ag10
(g14
S'\x8a3Hi\xd5y2@'
p82
tp83
Rp84
ag10
(g14
S'}|{[\xbbu2@'
p85
tp86
Rp87
ag10
(g14
S'#?\xc4\x88>{4@'
p88
tp89
Rp90
ag10
(g14
S'\xeap\xfa\n[\xb23@'
p91
tp92
Rp93
ag10
(g14
S'\xd9i\xb6\xb9\x0e\x9d4@'
p94
tp95
Rp96
ag10
(g14
S'\x1cE*,!\xad3@'
p97
tp98
Rp99
ag10
(g14
S'o\xb2`\xdf\x01s4@'
p100
tp101
Rp102
ag10
(g14
S'JHg\n\x9a{4@'
p103
tp104
Rp105
ag10
(g14
S'f\x13\x9c\xf1\x88\xaf5@'
p106
tp107
Rp108
ag10
(g14
S'\\\xe5e\x0c~b3@'
p109
tp110
Rp111
ag10
(g14
S'0Jum{L4@'
p112
tp113
Rp114
ag10
(g14
S'\xb4\x94\xac\x98G\x044@'
p115
tp116
Rp117
ag10
(g14
S'\xaa\xe2d\xf9`\xab3@'
p118
tp119
Rp120
ag10
(g14
S'\x04NP^n\x9e2@'
p121
tp122
Rp123
ag10
(g14
S'\x8f\xe2\xe6;\x84Q2@'
p124
tp125
Rp126
ag10
(g14
S'}P\xd0\xa1k\xe23@'
p127
tp128
Rp129
ag10
(g14
S'\x91\x0b<B\xea\x083@'
p130
tp131
Rp132
ag10
(g14
S'\x1e\xc5\xed,\x0f\xa84@'
p133
tp134
Rp135
ag10
(g14
S'\xe4\xd5\xe9r\x06\xc83@'
p136
tp137
Rp138
asssss.