(dp0
S'../Data/sqlite_15.csv'
p1
(dp2
S'../Data/sqlite_42.csv'
p3
(dp4
F0.3
(dp5
S'abs_res'
p6
(dp7
S'bellwether'
p8
(lp9
cnumpy.core.multiarray
scalar
p10
(cnumpy
dtype
p11
(S'f8'
p12
I0
I1
tp13
Rp14
(I3
S'<'
p15
NNNI-1
I-1
I0
tp16
bS'GS*\x0e\xd2\xa0:A'
p17
tp18
Rp19
ag10
(g14
S'\x00\xd5x\xe9\x0e\xa0:A'
p20
tp21
Rp22
ag10
(g14
S'\xd9\xbf\x11*\xfb\xa1:A'
p23
tp24
Rp25
ag10
(g14
S't=\n\xb7%\xa0:A'
p26
tp27
Rp28
ag10
(g14
S'\xa0Rq6!\xa0:A'
p29
tp30
Rp31
ag10
(g14
S'\x7f2z\xbb\xc2\xa0:A'
p32
tp33
Rp34
ag10
(g14
S'kfff\xb4\xa1:A'
p35
tp36
Rp37
ag10
(g14
S'_\xe5\xd0\xa2A\xa0:A'
p38
tp39
Rp40
ag10
(g14
S'\xa5\x99\x99\xd98\xa1:A'
p41
tp42
Rp43
ag10
(g14
S'0\xa5\xe2lC\xa1:A'
p44
tp45
Rp46
ag10
(g14
S'\xf6S\xe3e\n\xa1:A'
p47
tp48
Rp49
ag10
(g14
S'cW\x80\x1c\x97\xa1:A'
p50
tp51
Rp52
ag10
(g14
S'\x9a4\xa5\xc2\x07\xa1:A'
p53
tp54
Rp55
ag10
(g14
S']UU\xb5T\x9f:A'
p56
tp57
Rp58
ag10
(g14
S'5kuL\x11\xa1:A'
p59
tp60
Rp61
ag10
(g14
S'\xa4p=*b\xa1:A'
p62
tp63
Rp64
ag10
(g14
S'*\xea\xdf\xa8d\xa0:A'
p65
tp66
Rp67
ag10
(g14
S'\x93\x88\x88Hp\xa2:A'
p68
tp69
Rp70
ag10
(g14
S'\x02\xc8\xbd\x86(\x9f:A'
p71
tp72
Rp73
ag10
(g14
S'\x1b/\xdd\x04i\xa2:A'
p74
tp75
Rp76
asS'target'
p77
(lp78
g10
(g14
S'\x15\x04V\x0e-\ne@'
p79
tp80
Rp81
ag10
(g14
S'e\x10X9\xb4\x12c@'
p82
tp83
Rp84
ag10
(g14
S'\xa2rh\x91\xed8e@'
p85
tp86
Rp87
ag10
(g14
S'\x8b\x97n\x12\x83\x8ad@'
p88
tp89
Rp90
ag10
(g14
S'\xfdU\x0e-\xb2-d@'
p91
tp92
Rp93
ag10
(g14
S'.\xb4\xc8v\xbe3e@'
p94
tp95
Rp96
ag10
(g14
S'|?5^\xba\xcdc@'
p97
tp98
Rp99
ag10
(g14
S'\x10\xaeG\xe1z8e@'
p100
tp101
Rp102
ag10
(g14
S'\xd5x\xe9&1\x08e@'
p103
tp104
Rp105
ag10
(g14
S'R\x0c\x02+\x87dd@'
p106
tp107
Rp108
ag10
(g14
S'33333\x13e@'
p109
tp110
Rp111
ag10
(g14
S'\t\x81\x95C\x8b\xdcc@'
p112
tp113
Rp114
ag10
(g14
S'z?5^\xba=d@'
p115
tp116
Rp117
ag10
(g14
S'\xa5\xc4 \xb0r\\d@'
p118
tp119
Rp120
ag10
(g14
S'\xb8\x1e\x85\xebQ\xf4b@'
p121
tp122
Rp123
ag10
(g14
S'\xf9\xd4x\xe9&kc@'
p124
tp125
Rp126
ag10
(g14
S'E\x8bl\xe7\xfb\xabd@'
p127
tp128
Rp129
ag10
(g14
S'L`\xe5\xd0"Mc@'
p130
tp131
Rp132
ag10
(g14
S'\xe5\xfb\xa9\xf1\xd2\xbbe@'
p133
tp134
Rp135
ag10
(g14
S'\x14X9\xb4\xc8>e@'
p136
tp137
Rp138
asssss.