(dp0
S'../Data/sqlite_9.csv'
p1
(dp2
S'../Data/sqlite_63.csv'
p3
(dp4
F0.25
(dp5
S'mmre'
p6
(dp7
S'bellwether'
p8
(lp9
cnumpy.core.multiarray
scalar
p10
(cnumpy
dtype
p11
(S'f8'
p12
I0
I1
tp13
Rp14
(I3
S'<'
p15
NNNI-1
I-1
I0
tp16
bS'\x05\xe77c\xf3nW@'
p17
tp18
Rp19
ag10
(g14
S'\xf1\x9c\x15\x0e\xffpW@'
p20
tp21
Rp22
ag10
(g14
S's\x1dW\x02\x85pW@'
p23
tp24
Rp25
ag10
(g14
S'e\xa6\x83\xd5=pW@'
p26
tp27
Rp28
ag10
(g14
S'\xa6k \xc07pW@'
p29
tp30
Rp31
ag10
(g14
S'H\xb9~\xa0\x97oW@'
p32
tp33
Rp34
ag10
(g14
S'\x1e\xcfsw(pW@'
p35
tp36
Rp37
ag10
(g14
S'p\xa5\xf8U\xc5oW@'
p38
tp39
Rp40
ag10
(g14
S'QOk),oW@'
p41
tp42
Rp43
ag10
(g14
S'\x83@6\xb1\x9boW@'
p44
tp45
Rp46
ag10
(g14
S'\x0b4+\xa6\xafoW@'
p47
tp48
Rp49
ag10
(g14
S'"\x0ed\'^pW@'
p50
tp51
Rp52
ag10
(g14
S'\xd1\xb8lTooW@'
p53
tp54
Rp55
ag10
(g14
S'\xf1\x8e\x8d\xf2\rpW@'
p56
tp57
Rp58
ag10
(g14
S'\xa8\xd1wO\xa6oW@'
p59
tp60
Rp61
ag10
(g14
S'\xf4\x0c\x0c\x06\xa6oW@'
p62
tp63
Rp64
ag10
(g14
S'<\xd5\x1e2\xb0oW@'
p65
tp66
Rp67
ag10
(g14
S'\t`\xa6\xc3+pW@'
p68
tp69
Rp70
ag10
(g14
S'y\x0b\xa4.\xe8oW@'
p71
tp72
Rp73
ag10
(g14
S'\xc6!G\xa3\xcbpW@'
p74
tp75
Rp76
asS'target'
p77
(lp78
g10
(g14
S'\xb9m\xd2\x1fF\xef"@'
p79
tp80
Rp81
ag10
(g14
S'\x9f\xa5\xd5\xa3%j#@'
p82
tp83
Rp84
ag10
(g14
S'D ^\xb0z\xed!@'
p85
tp86
Rp87
ag10
(g14
S'(\xdf\x1c\xf4Zd"@'
p88
tp89
Rp90
ag10
(g14
S'\x19OT\xe5n\xa2#@'
p91
tp92
Rp93
ag10
(g14
S'\x83\xf2Yxlk!@'
p94
tp95
Rp96
ag10
(g14
S'\xe6\xe8\xf1\xba?\x01"@'
p97
tp98
Rp99
ag10
(g14
S'\xd3\xa4\x1a\xd3\xe5\xcd!@'
p100
tp101
Rp102
ag10
(g14
S'3=\x08L\xef\x1c#@'
p103
tp104
Rp105
ag10
(g14
S' \xd3\x8ejS\xd7"@'
p106
tp107
Rp108
ag10
(g14
S'\xa4\xa77\xc1c\xec"@'
p109
tp110
Rp111
ag10
(g14
S'\xafct\xf5\xda\xf6"@'
p112
tp113
Rp114
ag10
(g14
S'\xb2r\xb7r\xba\x88"@'
p115
tp116
Rp117
ag10
(g14
S'\xfc6\xd6\xad~\xf9#@'
p118
tp119
Rp120
ag10
(g14
S')\xe6\xce\xdbZ\xed!@'
p121
tp122
Rp123
ag10
(g14
S'\xa5Z\xb7\xc3\xc6@"@'
p124
tp125
Rp126
ag10
(g14
S':\xc2\xd2o\x12T#@'
p127
tp128
Rp129
ag10
(g14
S'\x1b\x07\xacv\xac0#@'
p130
tp131
Rp132
ag10
(g14
S'\xa1\x11\x95\xfa\x85."@'
p133
tp134
Rp135
ag10
(g14
S'y7\xbc\xd4\xad-"@'
p136
tp137
Rp138
asssss.