(dp0
S'../Data/sqlite_57.csv'
p1
(dp2
S'../Data/sqlite_45.csv'
p3
(dp4
F0.3
(dp5
S'abs_res'
p6
(dp7
S'bellwether'
p8
(lp9
cnumpy.core.multiarray
scalar
p10
(cnumpy
dtype
p11
(S'f8'
p12
I0
I1
tp13
Rp14
(I3
S'<'
p15
NNNI-1
I-1
I0
tp16
bS'\xe1\xf9~\x8eHWdA'
p17
tp18
Rp19
ag10
(g14
S'>\n\xd7\xa7\xe9VdA'
p20
tp21
Rp22
ag10
(g14
S'\xaa\x9b\xc4\xc8v`dA'
p23
tp24
Rp25
ag10
(g14
S'\xb2\xf3\xfd\xa4\xaf]dA'
p26
tp27
Rp28
ag10
(g14
S'\xe8|?\x95*YdA'
p29
tp30
Rp31
ag10
(g14
S'!\x85\xeb\xdd\xb6[dA'
p32
tp33
Rp34
ag10
(g14
S'k=\n{\x9acdA'
p35
tp36
Rp37
ag10
(g14
S'Ud;\xab\xbbedA'
p38
tp39
Rp40
ag10
(g14
S'!1\x08\xe0.XdA'
p41
tp42
Rp43
ag10
(g14
S'h\xe5\xd0\xfe\x95YdA'
p44
tp45
Rp46
ag10
(g14
S'\x17\xd9\xce;\x85adA'
p47
tp48
Rp49
ag10
(g14
S'!Zd#\xa3UdA'
p50
tp51
Rp52
ag10
(g14
S'\xba\x1e\x85\xb3\xa5edA'
p53
tp54
Rp55
ag10
(g14
S'\x8f\xed|\xf3\xbf[dA'
p56
tp57
Rp58
ag10
(g14
S'\xd5Mb\xd4ITdA'
p59
tp60
Rp61
ag10
(g14
S'v\xbe\x9f\xce-ddA'
p62
tp63
Rp64
ag10
(g14
S'hff\x9a\xca[dA'
p65
tp66
Rp67
ag10
(g14
S'\x1e\x85\xeb\x19\xa7bdA'
p68
tp69
Rp70
ag10
(g14
S'\xaa\x9d\xefohZdA'
p71
tp72
Rp73
ag10
(g14
S'\xe0\xf9~n<bdA'
p74
tp75
Rp76
asS'target'
p77
(lp78
g10
(g14
S'\xc2I\x0c\x02+cj@'
p79
tp80
Rp81
ag10
(g14
S'\xecQ\xb8\x1e\x85\x93h@'
p82
tp83
Rp84
ag10
(g14
S'}\x93\x18\x04Vvj@'
p85
tp86
Rp87
ag10
(g14
S'\xea|?5^\xech@'
p88
tp89
Rp90
ag10
(g14
S'\x86l\xe7\xfb\xa9Mj@'
p91
tp92
Rp93
ag10
(g14
S'g\xe7\xfb\xa9\xf1\xd0i@'
p94
tp95
Rp96
ag10
(g14
S'\x98\xc4 \xb0r\x8ck@'
p97
tp98
Rp99
ag10
(g14
S'\x98\xc4 \xb0r\xa8i@'
p100
tp101
Rp102
ag10
(g14
S'\\;\xdfO\x8d?j@'
p103
tp104
Rp105
ag10
(g14
S'Z9\xb4\xc8v|h@'
p106
tp107
Rp108
ag10
(g14
S'\\;\xdfO\x8d\x7fj@'
p109
tp110
Rp111
ag10
(g14
S'w\xbe\x9f\x1a/-i@'
p112
tp113
Rp114
ag10
(g14
S'\xca \xb0rh\x13h@'
p115
tp116
Rp117
ag10
(g14
S'd\x10X9\xb4Li@'
p118
tp119
Rp120
ag10
(g14
S'\xadE\xb6\xf3\xfd\xfah@'
p121
tp122
Rp123
ag10
(g14
S'(\x08\xac\x1cZ\xb8i@'
p124
tp125
Rp126
ag10
(g14
S'\xda$\x06\x81\x95\xcfh@'
p127
tp128
Rp129
ag10
(g14
S'\xd6\x94\x8a\xb3\x0f%j@'
p130
tp131
Rp132
ag10
(g14
S'\xc2\xa1E\xb6\xf3\x03j@'
p133
tp134
Rp135
ag10
(g14
S'\xa8\x1cZd;[i@'
p136
tp137
Rp138
asssss.