(dp0
S'../Data/sqlite_31.csv'
p1
(dp2
S'../Data/sqlite_62.csv'
p3
(dp4
F0.15
(dp5
S'mmre'
p6
(dp7
S'bellwether'
p8
(lp9
cnumpy.core.multiarray
scalar
p10
(cnumpy
dtype
p11
(S'f8'
p12
I0
I1
tp13
Rp14
(I3
S'<'
p15
NNNI-1
I-1
I0
tp16
bS'\x8d\xb3\xcf\xa4:?N@'
p17
tp18
Rp19
ag10
(g14
S'lv\x8a\xb4\x9b>N@'
p20
tp21
Rp22
ag10
(g14
S'y\x18,W\xa5CN@'
p23
tp24
Rp25
ag10
(g14
S'\xdc\x97\xf7\x92\\@N@'
p26
tp27
Rp28
ag10
(g14
S'}!\xfe\xd0\xb0>N@'
p29
tp30
Rp31
ag10
(g14
S'90Z\x10)IN@'
p32
tp33
Rp34
ag10
(g14
S'\xea\xe1\xb3JbBN@'
p35
tp36
Rp37
ag10
(g14
S'\xcf\xe6VE\xe1EN@'
p38
tp39
Rp40
ag10
(g14
S'\xad\\nk\xd2?N@'
p41
tp42
Rp43
ag10
(g14
S'\xd8Ky\xc9\xceCN@'
p44
tp45
Rp46
ag10
(g14
S'\x96\xeb ]\x076N@'
p47
tp48
Rp49
ag10
(g14
S'\x00\x815\x15G;N@'
p50
tp51
Rp52
ag10
(g14
S'\xc4\xc0\\\xb6\x96FN@'
p53
tp54
Rp55
ag10
(g14
S'\xc4`D \x1e:N@'
p56
tp57
Rp58
ag10
(g14
S'\x81\xd3\x90|\x16@N@'
p59
tp60
Rp61
ag10
(g14
S'w(\x07\x8e\xfeEN@'
p62
tp63
Rp64
ag10
(g14
S'\x1e\x8b.\x8f)FN@'
p65
tp66
Rp67
ag10
(g14
S'C\x0b>\xce\xbe:N@'
p68
tp69
Rp70
ag10
(g14
S'\xfeM\x9d\xc6\x15>N@'
p71
tp72
Rp73
ag10
(g14
S'\xe0/\x96r\xb4EN@'
p74
tp75
Rp76
asS'target'
p77
(lp78
g10
(g14
S'#p\x94\xf7\xe3\xb4 @'
p79
tp80
Rp81
ag10
(g14
S'D\xbb\x9b\xd9+\xc1 @'
p82
tp83
Rp84
ag10
(g14
S'\xc6\x92\xf9\xf0\xd6F @'
p85
tp86
Rp87
ag10
(g14
S'1f\xcb\x1f\x8e\xcf @'
p88
tp89
Rp90
ag10
(g14
S'\x1a~\x9c\xa9\xed\xbd!@'
p91
tp92
Rp93
ag10
(g14
S'\x89\nTa}c"@'
p94
tp95
Rp96
ag10
(g14
S'\xcc\x8c\x95\\\xf9\x04#@'
p97
tp98
Rp99
ag10
(g14
S'\xa7 C\xc3\xb6\x14!@'
p100
tp101
Rp102
ag10
(g14
S'\xe0O\x8a\xael\x81!@'
p103
tp104
Rp105
ag10
(g14
S'x\xca\xbd\xd5R$"@'
p106
tp107
Rp108
ag10
(g14
S'gJ{~au#@'
p109
tp110
Rp111
ag10
(g14
S'7I\xb1"\xd5-!@'
p112
tp113
Rp114
ag10
(g14
S'\xc3\xb6\xf0_\xe6\x1f!@'
p115
tp116
Rp117
ag10
(g14
S'\xfb\x82\xe0K\xe7\xa5 @'
p118
tp119
Rp120
ag10
(g14
S'0b\xde\xfc\x01K"@'
p121
tp122
Rp123
ag10
(g14
S'-\xa4e\xdb\xa8\xd9"@'
p124
tp125
Rp126
ag10
(g14
S'3\x8aC$;\x84!@'
p127
tp128
Rp129
ag10
(g14
S'\x98\x0c\xe9\xe4<\xed!@'
p130
tp131
Rp132
ag10
(g14
S'Y\xed\xcb\x1c\x1d#"@'
p133
tp134
Rp135
ag10
(g14
S'}\xe8W\xbfI\xc9!@'
p136
tp137
Rp138
asssss.