(dp0
S'../Data/sqlite_40.csv'
p1
(dp2
S'../Data/sqlite_95.csv'
p3
(dp4
F0.1
(dp5
S'abs_res'
p6
(dp7
S'bellwether'
p8
(lp9
cnumpy.core.multiarray
scalar
p10
(cnumpy
dtype
p11
(S'f8'
p12
I0
I1
tp13
Rp14
(I3
S'<'
p15
NNNI-1
I-1
I0
tp16
bS'|\x95C\xab\xcdO:A'
p17
tp18
Rp19
ag10
(g14
S'933sK?:A'
p20
tp21
Rp22
ag10
(g14
S'\xa2\xf1\xd2\xcd\x92r:A'
p23
tp24
Rp25
ag10
(g14
S'M\xb8\x1e\x15.a:A'
p26
tp27
Rp28
ag10
(g14
S'\x93\xc2\xf5\x88\xfe^:A'
p29
tp30
Rp31
ag10
(g14
S"z\xe9&1\xd9':A"
p32
tp33
Rp34
ag10
(g14
S']\xb8\x1eE8D:A'
p35
tp36
Rp37
ag10
(g14
S'$\x85\xeb\xd1\xa16:A'
p38
tp39
Rp40
ag10
(g14
S':\xdfO]\x95#:A'
p41
tp42
Rp43
ag10
(g14
S'\xcdMbp\x7f,:A'
p44
tp45
Rp46
ag10
(g14
S'o=\n\xc7Ur:A'
p47
tp48
Rp49
ag10
(g14
S']\x8f\xc2\xd5\x1fT:A'
p50
tp51
Rp52
ag10
(g14
S'h\x10X\xe9\xd2d:A'
p53
tp54
Rp55
ag10
(g14
S'\xa3\xc6K\xb7}U:A'
p56
tp57
Rp58
ag10
(g14
S'\x84\xc0\xca\xe1|/:A'
p59
tp60
Rp61
ag10
(g14
S'\xd7Mb\x80\x06W:A'
p62
tp63
Rp64
ag10
(g14
S'\xfc*\x876J*:A'
p65
tp66
Rp67
ag10
(g14
S'L7\x89\xd1\xda[:A'
p68
tp69
Rp70
ag10
(g14
S'(^\xba\t\n$:A'
p71
tp72
Rp73
ag10
(g14
S'\xa4\x1a/\xbd\x83):A'
p74
tp75
Rp76
asS'target'
p77
(lp78
g10
(g14
S'\xe8Q\xb8\x9e\x04\x0b!A'
p79
tp80
Rp81
ag10
(g14
S'z\x14\xaeGZ\xcb"A'
p82
tp83
Rp84
ag10
(g14
S'S\xe1z\x14\x99i\x1eA'
p85
tp86
Rp87
ag10
(g14
S'S\xe1z\x14\xd8$\x19A'
p88
tp89
Rp90
ag10
(g14
S"'\\\x8f\xc2}w\x1fA"
p91
tp92
Rp93
ag10
(g14
S'\r\xd7\xa3p[V)A'
p94
tp95
Rp96
ag10
(g14
S'\x1b\x85\xebQ"\xca\x1cA'
p97
tp98
Rp99
ag10
(g14
S'2333\x1a`%A'
p100
tp101
Rp102
ag10
(g14
S'@\xe1z\x94(\xe6!A'
p103
tp104
Rp105
ag10
(g14
S'{\x14\xaeG\x943 A'
p106
tp107
Rp108
ag10
(g14
S'n=\n\xd7+\xfd\x1dA'
p109
tp110
Rp111
ag10
(g14
S'\x8e\xc2\xf5(\n\x0b A'
p112
tp113
Rp114
ag10
(g14
S'\x9b\x99\x99\x99_w\x1aA'
p115
tp116
Rp117
ag10
(g14
S')\\\x8f\xc2?h\x1bA'
p118
tp119
Rp120
ag10
(g14
S'&\x85\xebQ\xb9!"A'
p121
tp122
Rp123
ag10
(g14
S'\xf8(\\\x0fh\xa5%A'
p124
tp125
Rp126
ag10
(g14
S'q=\nW\x03\xbf#A'
p127
tp128
Rp129
ag10
(g14
S'\x89\xc2\xf5(\xfd\xba!A'
p130
tp131
Rp132
ag10
(g14
S'\xf5(\\\x8fk\x96%A'
p133
tp134
Rp135
ag10
(g14
S'\x11\xd7\xa3\xf0\xed\x90"A'
p136
tp137
Rp138
asssss.