(dp0
S'../Data/sqlite_60.csv'
p1
(dp2
S'../Data/sqlite_48.csv'
p3
(dp4
F0.15
(dp5
S'abs_res'
p6
(dp7
S'bellwether'
p8
(lp9
cnumpy.core.multiarray
scalar
p10
(cnumpy
dtype
p11
(S'f8'
p12
I0
I1
tp13
Rp14
(I3
S'<'
p15
NNNI-1
I-1
I0
tp16
bS'V\x0e-\xb6\xab.hA'
p17
tp18
Rp19
ag10
(g14
S'B5^\xce\x16/hA'
p20
tp21
Rp22
ag10
(g14
S'\xfb\xb6\xac\x89\xfc(hA'
p23
tp24
Rp25
ag10
(g14
S'd\x8f\xc2!U#hA'
p26
tp27
Rp28
ag10
(g14
S'\x03\xbb\x02\xe8\x995hA'
p29
tp30
Rp31
ag10
(g14
S'\x8d\xc2\xf5\\u)hA'
p32
tp33
Rp34
ag10
(g14
S'\\d;;L5hA'
p35
tp36
Rp37
ag10
(g14
S'\x86\xc0\xcaU\xf5/hA'
p38
tp39
Rp40
ag10
(g14
S'$\xb0r\x80*3hA'
p41
tp42
Rp43
ag10
(g14
S'\xad\xd3\x06\xca\xa2,hA'
p44
tp45
Rp46
ag10
(g14
S'\xed|?\x05 4hA'
p47
tp48
Rp49
ag10
(g14
S'\x0e\xd7\xa3\xf8\xfc)hA'
p50
tp51
Rp52
ag10
(g14
S'A\xdfO5!-hA'
p53
tp54
Rp55
ag10
(g14
S'u\x91\xedt\xaf+hA'
p56
tp57
Rp58
ag10
(g14
S'D\xe1z\x9c\x05/hA'
p59
tp60
Rp61
ag10
(g14
S'\xdd\xf9~\xde\x1a3hA'
p62
tp63
Rp64
ag10
(g14
S'\xfb\xd4x\xddT/hA'
p65
tp66
Rp67
ag10
(g14
S'\x95PF;b.hA'
p68
tp69
Rp70
ag10
(g14
S'\xde\xce\xf7\x9fs7hA'
p71
tp72
Rp73
ag10
(g14
S'\xaaT\x9c}\xcb)hA'
p74
tp75
Rp76
asS'target'
p77
(lp78
g10
(g14
S'_\xbaI\x0c\x02\xebr@'
p79
tp80
Rp81
ag10
(g14
S'1\xdd$\x06\x81\xcbs@'
p82
tp83
Rp84
ag10
(g14
S'h\x91\xed|?Cr@'
p85
tp86
Rp87
ag10
(g14
S'\xce\xa1E\xb6\xf3Ht@'
p88
tp89
Rp90
ag10
(g14
S'\xe0\xf9~j\xbc\x16s@'
p91
tp92
Rp93
ag10
(g14
S';^\xbaI\x0c\xa4r@'
p94
tp95
Rp96
ag10
(g14
S'y\xe9&1\x08\xabs@'
p97
tp98
Rp99
ag10
(g14
S'\xb0\xf3\xfd\xd4xMs@'
p100
tp101
Rp102
ag10
(g14
S'}\xe9&1\x08Fr@'
p103
tp104
Rp105
ag10
(g14
S'\xb8\x1e\x85\xebQ\xa0s@'
p106
tp107
Rp108
ag10
(g14
S'S\x0e-\xb2\x9dwr@'
p109
tp110
Rp111
ag10
(g14
S'\xae\x1cZd;ks@'
p112
tp113
Rp114
ag10
(g14
S'\xbc\x1e\x85\xebQ\xe8r@'
p115
tp116
Rp117
ag10
(g14
S'k\x10X9\xb4\x84r@'
p118
tp119
Rp120
ag10
(g14
S'\xe6z\x14\xaeG\xbds@'
p121
tp122
Rp123
ag10
(g14
S'q=\n\xd7\xa3nu@'
p124
tp125
Rp126
ag10
(g14
S'\xf0\xd2Mb\x10\xbar@'
p127
tp128
Rp129
ag10
(g14
S'Z\xe5\xd0"\xdb\xc7r@'
p130
tp131
Rp132
ag10
(g14
S'A`\xe5\xd0"[r@'
p133
tp134
Rp135
ag10
(g14
S'\xa0p=\n\xd7_s@'
p136
tp137
Rp138
asssss.