(dp0
S'../Data/sqlite_42.csv'
p1
(dp2
S'../Data/sqlite_85.csv'
p3
(dp4
F0.3
(dp5
S'abs_res'
p6
(dp7
S'bellwether'
p8
(lp9
cnumpy.core.multiarray
scalar
p10
(cnumpy
dtype
p11
(S'f8'
p12
I0
I1
tp13
Rp14
(I3
S'<'
p15
NNNI-1
I-1
I0
tp16
bS'\xba\xca\xa19]\x92SA'
p17
tp18
Rp19
ag10
(g14
S'\x88\xed|\xf7\xbb\x8cSA'
p20
tp21
Rp22
ag10
(g14
S'\xfdU\x0e\xfd\x914SA'
p23
tp24
Rp25
ag10
(g14
S'\xde$\x06\x152>SA'
p26
tp27
Rp28
ag10
(g14
S'h\xe7\xfb}\xd7WSA'
p29
tp30
Rp31
ag10
(g14
S'\x90\xed|\x9f0nSA'
p32
tp33
Rp34
ag10
(g14
S'1\xdd$^e\x1aSA'
p35
tp36
Rp37
ag10
(g14
S'8\xb4\xc8\x06\xa8\x07SA'
p38
tp39
Rp40
ag10
(g14
S'\xc5v\xbe\xd3\x13%SA'
p41
tp42
Rp43
ag10
(g14
S'\xfa\xa9\xf1\x86\xe0<SA'
p44
tp45
Rp46
ag10
(g14
S'\xf9\xd4x\x91}5SA'
p47
tp48
Rp49
ag10
(g14
S'\x92\xef\xa7R\x1dtSA'
p50
tp51
Rp52
ag10
(g14
S'\x06\xd7\xa3\x08\xaeRSA'
p53
tp54
Rp55
ag10
(g14
S"`\xe5\xd0&\x18'SA"
p56
tp57
Rp58
ag10
(g14
S'\x8bA`Ye5SA'
p59
tp60
Rp61
ag10
(g14
S'\xfc\x80\x95w)}SA'
p62
tp63
Rp64
ag10
(g14
S'\xc6v\xbe\x17\x8fwSA'
p65
tp66
Rp67
ag10
(g14
S'f\xe7\xfb\xc9)\x1cSA'
p68
tp69
Rp70
ag10
(g14
S"'\xdb\xf9\x9e\xb9[SA"
p71
tp72
Rp73
ag10
(g14
S'n=\nS\xc26SA'
p74
tp75
Rp76
asS'target'
p77
(lp78
g10
(g14
S'\xd7\xa3p=_n=A'
p79
tp80
Rp81
ag10
(g14
S'+\\\x8fB\x12p<A'
p82
tp83
Rp84
ag10
(g14
S'\xfe\xff\xff\xff\xadr>A'
p85
tp86
Rp87
ag10
(g14
S'\x95\x99\x99\xd9\x8e\xf1<A'
p88
tp89
Rp90
ag10
(g14
S'ffffQ\x07>A'
p91
tp92
Rp93
ag10
(g14
S's=\n\xd7@+>A'
p94
tp95
Rp96
ag10
(g14
S'fff\xf6\nPAA'
p97
tp98
Rp99
ag10
(g14
S'"\x85\xeb\xd1=\xfa@A'
p100
tp101
Rp102
ag10
(g14
S"'\\\x8f\xa2\x02Z?A"
p103
tp104
Rp105
ag10
(g14
S'\x8f\xc2\xf5h(?>A'
p106
tp107
Rp108
ag10
(g14
S'\xee(\\\x0f\xd8`;A'
p109
tp110
Rp111
ag10
(g14
S'?\xe1z\xd4\x1d\n>A'
p112
tp113
Rp114
ag10
(g14
S'\x1b\x85\xebQ\xd0\x1c<A'
p115
tp116
Rp117
ag10
(g14
S'(\x85\xeb\x91\x7f\x8d=A'
p118
tp119
Rp120
ag10
(g14
S'033\xd3\xf8h<A'
p121
tp122
Rp123
ag10
(g14
S'\xa8G\xe1:K\xe0>A'
p124
tp125
Rp126
ag10
(g14
S'\x16\xaeG\xb1\xbbq@A'
p127
tp128
Rp129
ag10
(g14
S'cff&\xdb\xe6=A'
p130
tp131
Rp132
ag10
(g14
S'\xeaQ\xb8\x1e\x17\xed<A'
p133
tp134
Rp135
ag10
(g14
S'+\\\x8fB\x83I>A'
p136
tp137
Rp138
asssss.