(dp0
S'../Data/sqlite_34.csv'
p1
(dp2
S'../Data/sqlite_78.csv'
p3
(dp4
F0.3
(dp5
S'mmre'
p6
(dp7
S'bellwether'
p8
(lp9
cnumpy.core.multiarray
scalar
p10
(cnumpy
dtype
p11
(S'f8'
p12
I0
I1
tp13
Rp14
(I3
S'<'
p15
NNNI-1
I-1
I0
tp16
bS'\xb4l\x1e\x03\xd8\xcaR@'
p17
tp18
Rp19
ag10
(g14
S'\xb9dB\n\xcfSS@'
p20
tp21
Rp22
ag10
(g14
S'T\x05S\x9d\xb2lS@'
p23
tp24
Rp25
ag10
(g14
S'\xf1\x9d\xaefQMS@'
p26
tp27
Rp28
ag10
(g14
S'\xcf\xf0Uu\xdb9S@'
p29
tp30
Rp31
ag10
(g14
S'$\xb2\xd2\xd8\xac1S@'
p32
tp33
Rp34
ag10
(g14
S'\xfc\xd6\xdd"\xf8$S@'
p35
tp36
Rp37
ag10
(g14
S'$~>\xaf\xd3:S@'
p38
tp39
Rp40
ag10
(g14
S'\x05\x8d\xa0\xd7VSS@'
p41
tp42
Rp43
ag10
(g14
S'\xf7*~G\xf8DS@'
p44
tp45
Rp46
ag10
(g14
S'\x04<\xe0\xe2\xfa,S@'
p47
tp48
Rp49
ag10
(g14
S'\xc0\x02\x9e\x06\xdfTS@'
p50
tp51
Rp52
ag10
(g14
S'\xa6j\xd4\x0foOS@'
p53
tp54
Rp55
ag10
(g14
S'#\x1er\xfe\x0e]S@'
p56
tp57
Rp58
ag10
(g14
S'm\xbb\x85uf3S@'
p59
tp60
Rp61
ag10
(g14
S'\xb4QV\xb7\xb0\x02S@'
p62
tp63
Rp64
ag10
(g14
S'\x15g\xa2\xf8\xf8)S@'
p65
tp66
Rp67
ag10
(g14
S"E*\x02'$]S@"
p68
tp69
Rp70
ag10
(g14
S'\x92\xce\xa0\x9eztS@'
p71
tp72
Rp73
ag10
(g14
S'@\xa7?\xd7IuS@'
p74
tp75
Rp76
asS'target'
p77
(lp78
g10
(g14
S'\x1b\xe1\x19J\x88\x912@'
p79
tp80
Rp81
ag10
(g14
S'\x01\xa08/C\x9f3@'
p82
tp83
Rp84
ag10
(g14
S'\x8c(v:\xb2\xda5@'
p85
tp86
Rp87
ag10
(g14
S'/\xfb\xf1\x80\xb9z3@'
p88
tp89
Rp90
ag10
(g14
S'\xc0\x94v\x8b\x9b\x125@'
p91
tp92
Rp93
ag10
(g14
S'gm\x914{\x863@'
p94
tp95
Rp96
ag10
(g14
S'\x01`\x02[]\xe14@'
p97
tp98
Rp99
ag10
(g14
S'\x10\x0782L\xe53@'
p100
tp101
Rp102
ag10
(g14
S'\x08\x86x\x19\xc1\xc22@'
p103
tp104
Rp105
ag10
(g14
S'wj\x91\xfb\x0bb4@'
p106
tp107
Rp108
ag10
(g14
S'\x05\x84\xc6\xc58\x8d3@'
p109
tp110
Rp111
ag10
(g14
S'D7,\x16\xd8k3@'
p112
tp113
Rp114
ag10
(g14
S'`YC\xf3f\x033@'
p115
tp116
Rp117
ag10
(g14
S'<\x90L\xefn14@'
p118
tp119
Rp120
ag10
(g14
S'`YJ\x806e3@'
p121
tp122
Rp123
ag10
(g14
S'T|o\xdb\xbfY3@'
p124
tp125
Rp126
ag10
(g14
S'FXF\xad\x06\xda3@'
p127
tp128
Rp129
ag10
(g14
S';\xff\x00nu95@'
p130
tp131
Rp132
ag10
(g14
S'$hQz\x0c\x104@'
p133
tp134
Rp135
ag10
(g14
S'\xfa\x88\x88\t\xa5\xc03@'
p136
tp137
Rp138
asssss.