(dp0
S'../Data/sqlite_44.csv'
p1
(dp2
S'../Data/sqlite_90.csv'
p3
(dp4
F0.05
(dp5
S'mmre'
p6
(dp7
S'bellwether'
p8
(lp9
cnumpy.core.multiarray
scalar
p10
(cnumpy
dtype
p11
(S'f8'
p12
I0
I1
tp13
Rp14
(I3
S'<'
p15
NNNI-1
I-1
I0
tp16
bS'H\xc5\x0e\xf7rBX@'
p17
tp18
Rp19
ag10
(g14
S'\x19\x99{X\x93CX@'
p20
tp21
Rp22
ag10
(g14
S'oj\t\x8a\xc1BX@'
p23
tp24
Rp25
ag10
(g14
S'\xf9\xbe\xf3J\xd8AX@'
p26
tp27
Rp28
ag10
(g14
S'\xac/P\xb5\xadDX@'
p29
tp30
Rp31
ag10
(g14
S'\xb9F\x9c\xae|CX@'
p32
tp33
Rp34
ag10
(g14
S'p\x96\x1d)aDX@'
p35
tp36
Rp37
ag10
(g14
S'\x11X\xb2\x95\xaeBX@'
p38
tp39
Rp40
ag10
(g14
S'jz\xc00ZBX@'
p41
tp42
Rp43
ag10
(g14
S'\x0e\x96BwhBX@'
p44
tp45
Rp46
ag10
(g14
S'\x81\x86\xd7\x92TCX@'
p47
tp48
Rp49
ag10
(g14
S'\x1d\xa3+\x11-DX@'
p50
tp51
Rp52
ag10
(g14
S' O\xca]-FX@'
p53
tp54
Rp55
ag10
(g14
S';c\xc9Q\x8cBX@'
p56
tp57
Rp58
ag10
(g14
S'\x14\x89\xaauMFX@'
p59
tp60
Rp61
ag10
(g14
S'\xc3\xc9\xe0\xf6\x8fDX@'
p62
tp63
Rp64
ag10
(g14
S"\x1b\xa4\xc8\xe0'EX@"
p65
tp66
Rp67
ag10
(g14
S'R5~\xe8-DX@'
p68
tp69
Rp70
ag10
(g14
S'\xa6\xa8\xea\xfa\xb4EX@'
p71
tp72
Rp73
ag10
(g14
S'\x80\xf8\xd5\tiCX@'
p74
tp75
Rp76
asS'target'
p77
(lp78
g10
(g14
S'3\x8a\x9e\x7f\x8cb>@'
p79
tp80
Rp81
ag10
(g14
S'\x12kj\xc9\xef\xa9B@'
p82
tp83
Rp84
ag10
(g14
S'[\x16\xd1\x98w\xdfC@'
p85
tp86
Rp87
ag10
(g14
S'+4;\r<\xd5C@'
p88
tp89
Rp90
ag10
(g14
S'\xdd\x1aTX\xec\xbcB@'
p91
tp92
Rp93
ag10
(g14
S'\x0b\xa2 t\xc5z@@'
p94
tp95
Rp96
ag10
(g14
S'\x9d&\x1e\xa1L\x7fA@'
p97
tp98
Rp99
ag10
(g14
S'\xadF\x9a\xa0\xf2VB@'
p100
tp101
Rp102
ag10
(g14
S'\xfa\xa9\r\xa1h7B@'
p103
tp104
Rp105
ag10
(g14
S'\x8f"\xe3\xf6\xc7/@@'
p106
tp107
Rp108
ag10
(g14
S'\xbc\xe9\r\xad\xf4\xe6?@'
p109
tp110
Rp111
ag10
(g14
S'\xd0\xd71\xed^mA@'
p112
tp113
Rp114
ag10
(g14
S'\x82e\x9a,\xe0\x94A@'
p115
tp116
Rp117
ag10
(g14
S'N?\xca\xe1}Y@@'
p118
tp119
Rp120
ag10
(g14
S'\xdd9j\xf2\xb2DB@'
p121
tp122
Rp123
ag10
(g14
S'\x95\xe3\xb7\x08r\xd1A@'
p124
tp125
Rp126
ag10
(g14
S'\xc2\x91L\xd3K\xc0A@'
p127
tp128
Rp129
ag10
(g14
S'R\xe0n\xb6j\xedA@'
p130
tp131
Rp132
ag10
(g14
S'\xde\x8a\x12+t9B@'
p133
tp134
Rp135
ag10
(g14
S'O\x935\x9aE@F@'
p136
tp137
Rp138
asssss.