(dp0
S'../Data/sqlite_37.csv'
p1
(dp2
S'../Data/sqlite_4.csv'
p3
(dp4
F0.35
(dp5
S'abs_res'
p6
(dp7
S'bellwether'
p8
(lp9
cnumpy.core.multiarray
scalar
p10
(cnumpy
dtype
p11
(S'f8'
p12
I0
I1
tp13
Rp14
(I3
S'<'
p15
NNNI-1
I-1
I0
tp16
bS'\xa6p=*9e9A'
p17
tp18
Rp19
ag10
(g14
S'\xc2\xa1E&Ug9A'
p20
tp21
Rp22
ag10
(g14
S'\xc4\xf5(\xfc\xbbg9A'
p23
tp24
Rp25
ag10
(g14
S'k\x12\x83`\x8eg9A'
p26
tp27
Rp28
ag10
(g14
S'b\xbct\x93yf9A'
p29
tp30
Rp31
ag10
(g14
S'\x8bC\x8b<\x0bh9A'
p32
tp33
Rp34
ag10
(g14
S'"\x06\x815eh9A'
p35
tp36
Rp37
ag10
(g14
S'\xbeK7iMf9A'
p38
tp39
Rp40
ag10
(g14
S'\x10X9$Xf9A'
p41
tp42
Rp43
ag10
(g14
S'\xab\x9d\xef\xe7\x9eg9A'
p44
tp45
Rp46
ag10
(g14
S'7\xb4\xc8\xa6 f9A'
p47
tp48
Rp49
ag10
(g14
S'\xd9O\x8d\x07^h9A'
p50
tp51
Rp52
ag10
(g14
S'\xe2&1H\xd5e9A'
p53
tp54
Rp55
ag10
(g14
S'\x1aZd\xab]g9A'
p56
tp57
Rp58
ag10
(g14
S'\xf7\xa9\xf1R\xb3f9A'
p59
tp60
Rp61
ag10
(g14
S'O\x0e-\xe2\xfff9A'
p62
tp63
Rp64
ag10
(g14
S'\xd0Mb\xa0,g9A'
p65
tp66
Rp67
ag10
(g14
S'\x0eX9\xf4%h9A'
p68
tp69
Rp70
ag10
(g14
S'\xc3"\xdb\xb9\xabg9A'
p71
tp72
Rp73
ag10
(g14
S')^\xba\xc9!h9A'
p74
tp75
Rp76
asS'target'
p77
(lp78
g10
(g14
S'\xfa\xff\xff\xff?\xaa\xcc@'
p79
tp80
Rp81
ag10
(g14
S'\xc8\xcc\xcc\xccl\x99\xcd@'
p82
tp83
Rp84
ag10
(g14
S'ffff\xc6:\xcf@'
p85
tp86
Rp87
ag10
(g14
S'*3333\xb7\xcd@'
p88
tp89
Rp90
ag10
(g14
S'6333s\xa9\xce@'
p91
tp92
Rp93
ag10
(g14
S'\x94\x99\x99\x99\xb9\x88\xce@'
p94
tp95
Rp96
ag10
(g14
S'\xfd\xff\xff\xff\xbf\xe5\xce@'
p97
tp98
Rp99
ag10
(g14
S'gffff\xd6\xcd@'
p100
tp101
Rp102
ag10
(g14
S'dfff\xc6\xa5\xcd@'
p103
tp104
Rp105
ag10
(g14
S'8333s\xcc\xce@'
p106
tp107
Rp108
ag10
(g14
S"\xfc\xff\xff\xff\x7f'\xce@"
p109
tp110
Rp111
ag10
(g14
S'+333\xf3\x8f\xcd@'
p112
tp113
Rp114
ag10
(g14
S'5333S\x8f\xcd@'
p115
tp116
Rp117
ag10
(g14
S'*333\x13M\xcf@'
p118
tp119
Rp120
ag10
(g14
S'\xf9\xff\xff\xff\x7fB\xcf@'
p121
tp122
Rp123
ag10
(g14
S'0333\xf3\xfc\xcc@'
p124
tp125
Rp126
ag10
(g14
S'\xc4\xcc\xcc\xcc,d\xcf@'
p127
tp128
Rp129
ag10
(g14
S'dfff\xa6\x9b\xcd@'
p130
tp131
Rp132
ag10
(g14
S'hfff\x86\xa1\xcf@'
p133
tp134
Rp135
ag10
(g14
S'\x02\x00\x00\x00\x00X\xcf@'
p136
tp137
Rp138
asssss.