(dp0
S'../Data/sqlite_43.csv'
p1
(dp2
S'../Data/sqlite_50.csv'
p3
(dp4
F0.2
(dp5
S'abs_res'
p6
(dp7
S'bellwether'
p8
(lp9
cnumpy.core.multiarray
scalar
p10
(cnumpy
dtype
p11
(S'f8'
p12
I0
I1
tp13
Rp14
(I3
S'<'
p15
NNNI-1
I-1
I0
tp16
bS'Jo\xcbz\x83c>A'
p17
tp18
Rp19
ag10
(g14
S'w=\n\x97\x8cd>A'
p20
tp21
Rp22
ag10
(g14
S'\xe7mY\xab\xe8c>A'
p23
tp24
Rp25
ag10
(g14
S'\xe7\xd0"\x1b\xc2d>A'
p26
tp27
Rp28
ag10
(g14
S'G\n\xd7#\xe7d>A'
p29
tp30
Rp31
ag10
(g14
S'\xfe\xd4xiRd>A'
p32
tp33
Rp34
ag10
(g14
S':5^zrc>A'
p35
tp36
Rp37
ag10
(g14
S'+x0/~d>A'
p38
tp39
Rp40
ag10
(g14
S'\xafrh1He>A'
p41
tp42
Rp43
ag10
(g14
S'\x83\x86]\x81\xe2c>A'
p44
tp45
Rp46
ag10
(g14
S'n\xe7\xfbI\xe2e>A'
p47
tp48
Rp49
ag10
(g14
S'@^\xba\xa9\xebb>A'
p50
tp51
Rp52
ag10
(g14
S'}?5>\xe2c>A'
p53
tp54
Rp55
ag10
(g14
S'\x16\x04V\x8e\x94d>A'
p56
tp57
Rp58
ag10
(g14
S'\xe3\xc1<\x11<d>A'
p59
tp60
Rp61
ag10
(g14
S'\xc3\xbd\xe6\x02Xd>A'
p62
tp63
Rp64
ag10
(g14
S'\x1c\xd9\xce\x17\x1ed>A'
p65
tp66
Rp67
ag10
(g14
S'\x83\xc2\xf5\xa8\x16c>A'
p68
tp69
Rp70
ag10
(g14
S'\xa6\x1a/\xbdwc>A'
p71
tp72
Rp73
ag10
(g14
S"\x98'\xea\xdfse>A"
p74
tp75
Rp76
asS'target'
p77
(lp78
g10
(g14
S'\xd9x\xe9&1\x80Z@'
p79
tp80
Rp81
ag10
(g14
S'\x96\xed|?5\xa6W@'
p82
tp83
Rp84
ag10
(g14
S'K\n\xd7\xa3p\xddX@'
p85
tp86
Rp87
ag10
(g14
S'\xbet\x93\x18\x04zY@'
p88
tp89
Rp90
ag10
(g14
S'\x18\x04V\x0e-\x02Y@'
p91
tp92
Rp93
ag10
(g14
S'G\x8bl\xe7\xfb\xf9Z@'
p94
tp95
Rp96
ag10
(g14
S'\x04\x7fj\xbct\x9fY@'
p97
tp98
Rp99
ag10
(g14
S'\x11-\xb2\x9d\xef\x1fZ@'
p100
tp101
Rp102
ag10
(g14
S'\x07\x00\x00\x00\x00\xf8X@'
p103
tp104
Rp105
ag10
(g14
S'.\\\x8f\xc2\xf5\xa8X@'
p106
tp107
Rp108
ag10
(g14
S'ad;\xdfO\xb5[@'
p109
tp110
Rp111
ag10
(g14
S'*\xdd$\x06\x81\xddY@'
p112
tp113
Rp114
ag10
(g14
S'\xe1\xf9~j\xbc\x84Z@'
p115
tp116
Rp117
ag10
(g14
S'\xd4x\xe9&1lY@'
p118
tp119
Rp120
ag10
(g14
S'\xe6\xce\xf7S\xe35[@'
p121
tp122
Rp123
ag10
(g14
S'\x1a\x83\xc0\xca\xa1\x15X@'
p124
tp125
Rp126
ag10
(g14
S'\x90\x97n\x12\x83dY@'
p127
tp128
Rp129
ag10
(g14
S'\xb5\x9d\xef\xa7\xc6[]@'
p130
tp131
Rp132
ag10
(g14
S'$/\xdd$\x06IY@'
p133
tp134
Rp135
ag10
(g14
S'\t\xac\x1cZd\xbbY@'
p136
tp137
Rp138
asssss.