(dp0
S'../Data/sqlite_9.csv'
p1
(dp2
S'../Data/sqlite_23.csv'
p3
(dp4
F0.4
(dp5
S'abs_res'
p6
(dp7
S'bellwether'
p8
(lp9
cnumpy.core.multiarray
scalar
p10
(cnumpy
dtype
p11
(S'f8'
p12
I0
I1
tp13
Rp14
(I3
S'<'
p15
NNNI-1
I-1
I0
tp16
bS'\x04\x90{\xcd\x85\x945@'
p17
tp18
Rp19
ag10
(g14
S'jJ\xc5\xd9\x87o6@'
p20
tp21
Rp22
ag10
(g14
S' \xcc\x13\xf5o\xf46@'
p23
tp24
Rp25
ag10
(g14
S'\xf1|?5^\xaa5@'
p26
tp27
Rp28
ag10
(g14
S'\xe4\xc1<Q\xfff5@'
p29
tp30
Rp31
ag10
(g14
S'YUUUU\xe55@'
p32
tp33
Rp34
ag10
(g14
S'\xfcS\xe3\xa5\x9b\x845@'
p35
tp36
Rp37
ag10
(g14
S'\x88]\x01r\xaf\x195@'
p38
tp39
Rp40
ag10
(g14
S'\xf7\xb6\xac\xd51Q6@'
p41
tp42
Rp43
ag10
(g14
S'\xb1G\xe1z\x14n5@'
p44
tp45
Rp46
ag10
(g14
S'f\x9e\xa8\x7f#45@'
p47
tp48
Rp49
ag10
(g14
S'\xb7\xac\xd51\xc1\xe35@'
p50
tp51
Rp52
ag10
(g14
S'g\x1f>\xc3\xae\xa07@'
p53
tp54
Rp55
ag10
(g14
S'\x17\x92\xa6T\x9c\xed5@'
p56
tp57
Rp58
ag10
(g14
S'\x1b\xf5o\x842\xea4@'
p59
tp60
Rp61
ag10
(g14
S'MUUUU\xc55@'
p62
tp63
Rp64
ag10
(g14
S'\x7f#\x94\xd1\xdbb5@'
p65
tp66
Rp67
ag10
(g14
S'V\x80\xdck.\x944@'
p68
tp69
Rp70
ag10
(g14
S'\xb8-kuL\xc05@'
p71
tp72
Rp73
ag10
(g14
S'\xd6i\x03\x9d6\xa06@'
p74
tp75
Rp76
asS'target'
p77
(lp78
g10
(g14
S'\x1b\xb0rh\x91\xcd8@'
p79
tp80
Rp81
ag10
(g14
S'\xff\xa9\xf1\xd2M27@'
p82
tp83
Rp84
ag10
(g14
S'\xd9x\xe9&1x8@'
p85
tp86
Rp87
ag10
(g14
S'N7\x89A`\x158@'
p88
tp89
Rp90
ag10
(g14
S'\x9dn\x12\x83\xc0\x9a9@'
p91
tp92
Rp93
ag10
(g14
S'\x9b\xed|?5N6@'
p94
tp95
Rp96
ag10
(g14
S'\xa5)\x15g\x1f\xce7@'
p97
tp98
Rp99
ag10
(g14
S'\xd2\xce\xf7S\xe3E6@'
p100
tp101
Rp102
ag10
(g14
S'\xaap=\n\xd73:@'
p103
tp104
Rp105
ag10
(g14
S'\xa4p=\n\xd7C8@'
p106
tp107
Rp108
ag10
(g14
S'\xec\xfb\xa9\xf1\xd2\x8d8@'
p109
tp110
Rp111
ag10
(g14
S'A\n\xd7\xa3pM7@'
p112
tp113
Rp114
ag10
(g14
S'\xf8|?5^:8@'
p115
tp116
Rp117
ag10
(g14
S'43333c5@'
p118
tp119
Rp120
ag10
(g14
S'8\x89A`\xe5\xc06@'
p121
tp122
Rp123
ag10
(g14
S'\xaa\x9b\xc4 \xb0B8@'
p124
tp125
Rp126
ag10
(g14
S'\xe8\xfb\xa9\xf1\xd2m6@'
p127
tp128
Rp129
ag10
(g14
S'/\x08\xac\x1cZ$8@'
p130
tp131
Rp132
ag10
(g14
S'\xb2rh\x91\xed,8@'
p133
tp134
Rp135
ag10
(g14
S'\x9a\xef\xa7\xc6K\x177@'
p136
tp137
Rp138
asssss.