(dp0
S'../Data/sqlite_87.csv'
p1
(dp2
S'../Data/sqlite_63.csv'
p3
(dp4
F0.3
(dp5
S'mmre'
p6
(dp7
S'bellwether'
p8
(lp9
cnumpy.core.multiarray
scalar
p10
(cnumpy
dtype
p11
(S'f8'
p12
I0
I1
tp13
Rp14
(I3
S'<'
p15
NNNI-1
I-1
I0
tp16
bS'V -\rL%F@'
p17
tp18
Rp19
ag10
(g14
S'>{\xea\x1a\xe9\xecE@'
p20
tp21
Rp22
ag10
(g14
S'\x9c2\x02P\xce\xc6D@'
p23
tp24
Rp25
ag10
(g14
S'\x98q\xd6\x9d\xa9\xfdE@'
p26
tp27
Rp28
ag10
(g14
S'\xacJ\xb5L0\xd4E@'
p29
tp30
Rp31
ag10
(g14
S'?/\xbc`\xd6\x84E@'
p32
tp33
Rp34
ag10
(g14
S'M\xcf\x90\xff\x83eD@'
p35
tp36
Rp37
ag10
(g14
S'\xc1~rtg*E@'
p38
tp39
Rp40
ag10
(g14
S'g1\xb2{#\xd7D@'
p41
tp42
Rp43
ag10
(g14
S'\xb2\x17$bqcF@'
p44
tp45
Rp46
ag10
(g14
S'Nh4\xf4{\x9aE@'
p47
tp48
Rp49
ag10
(g14
S'\xb7\xf4\x0e/\xc8FD@'
p50
tp51
Rp52
ag10
(g14
S'@Ev\x7f\xedsD@'
p53
tp54
Rp55
ag10
(g14
S'\x89\x02\xd8\xd0O\xa5E@'
p56
tp57
Rp58
ag10
(g14
S'\x14.d\x0f4SE@'
p59
tp60
Rp61
ag10
(g14
S'\xe4:E\xe3L\x88F@'
p62
tp63
Rp64
ag10
(g14
S'}\\\x1f\xb3\x9c\xfaE@'
p65
tp66
Rp67
ag10
(g14
S'\xf8t\xfa\xd0\n]D@'
p68
tp69
Rp70
ag10
(g14
S'ME\xd5\x8aP\x1aF@'
p71
tp72
Rp73
ag10
(g14
S'-\n\x02\x15q\x80E@'
p74
tp75
Rp76
asS'target'
p77
(lp78
g10
(g14
S'%y\x82L\xcf\xd4"@'
p79
tp80
Rp81
ag10
(g14
S'\xb5\x17\xee\xc6b\x8f!@'
p82
tp83
Rp84
ag10
(g14
S'X\x1e\xf9\xf0\x02\x9b!@'
p85
tp86
Rp87
ag10
(g14
S'E,\xecWO5"@'
p88
tp89
Rp90
ag10
(g14
S'p\x82y\xf8\x86\xdd"@'
p91
tp92
Rp93
ag10
(g14
S'\x10&\xc8\xdd\xeb\x81"@'
p94
tp95
Rp96
ag10
(g14
S'}\xdc\xab\xc0\xcb\xb9"@'
p97
tp98
Rp99
ag10
(g14
S'\x93l\x1f\x98\xee%"@'
p100
tp101
Rp102
ag10
(g14
S'\x1b\x85O\xfav>"@'
p103
tp104
Rp105
ag10
(g14
S'\xba\x7f\x98v"\xc3"@'
p106
tp107
Rp108
ag10
(g14
S'0\xba\xc8q1+#@'
p109
tp110
Rp111
ag10
(g14
S"\xc1\x8c'\xad\xbaT#@"
p112
tp113
Rp114
ag10
(g14
S'nk\x16Gr^"@'
p115
tp116
Rp117
ag10
(g14
S'\x88\xa1\x90/\x96\xf2!@'
p118
tp119
Rp120
ag10
(g14
S'\xcd\r\xfac\x89)"@'
p121
tp122
Rp123
ag10
(g14
S'\x88AqPB\x85"@'
p124
tp125
Rp126
ag10
(g14
S'\xa10\x0c\x96"\xf4#@'
p127
tp128
Rp129
ag10
(g14
S'u\xf6\x88\x86`\x94#@'
p130
tp131
Rp132
ag10
(g14
S'\x1a\xac\xf3\xe8\xcb;"@'
p133
tp134
Rp135
ag10
(g14
S'3\x07\xc0\xb8\x9a\x8b!@'
p136
tp137
Rp138
asssss.