(dp0
S'../Data/sqlite_48.csv'
p1
(dp2
S'../Data/sqlite_77.csv'
p3
(dp4
F0.3
(dp5
S'mmre'
p6
(dp7
S'bellwether'
p8
(lp9
cnumpy.core.multiarray
scalar
p10
(cnumpy
dtype
p11
(S'f8'
p12
I0
I1
tp13
Rp14
(I3
S'<'
p15
NNNI-1
I-1
I0
tp16
bS'\x0b\xf4Kuc|J@'
p17
tp18
Rp19
ag10
(g14
S',af\x19l7J@'
p20
tp21
Rp22
ag10
(g14
S'\x1c\x87\x15\xf1\x8c\\J@'
p23
tp24
Rp25
ag10
(g14
S'\x95\ruR\xed$J@'
p26
tp27
Rp28
ag10
(g14
S'C\xf2p\xa4\xbcGJ@'
p29
tp30
Rp31
ag10
(g14
S'&\xe6\x95pPGJ@'
p32
tp33
Rp34
ag10
(g14
S';w\xae\xaa\x04FJ@'
p35
tp36
Rp37
ag10
(g14
S"}F'\xe2:MJ@"
p38
tp39
Rp40
ag10
(g14
S'\xce\x80\xabG\xa2eJ@'
p41
tp42
Rp43
ag10
(g14
S'W\xf4T\xf8=*J@'
p44
tp45
Rp46
ag10
(g14
S'9;\x0f\x8f\xb3>J@'
p47
tp48
Rp49
ag10
(g14
S'$J\x1f\x98\xa2/J@'
p50
tp51
Rp52
ag10
(g14
S'\xee\xea\xa7q\xb9/J@'
p53
tp54
Rp55
ag10
(g14
S'\xb8`\xb1|\xa1-J@'
p56
tp57
Rp58
ag10
(g14
S'e\x88\x03\x930YJ@'
p59
tp60
Rp61
ag10
(g14
S'\xc8o\x856a3J@'
p62
tp63
Rp64
ag10
(g14
S'\xb7\x81\x9fY\x971J@'
p65
tp66
Rp67
ag10
(g14
S'\xe5\x9d-\x8c0KJ@'
p68
tp69
Rp70
ag10
(g14
S'}\x07\x8d\x15\xcaZJ@'
p71
tp72
Rp73
ag10
(g14
S'\x85b/\xda\xb6hJ@'
p74
tp75
Rp76
asS'target'
p77
(lp78
g10
(g14
S'\xe9#pF\x88\xc14@'
p79
tp80
Rp81
ag10
(g14
S'\xb7\t\x83\xdf\xf3\x806@'
p82
tp83
Rp84
ag10
(g14
S'R\x11\xac$\x8d\xa35@'
p85
tp86
Rp87
ag10
(g14
S'\xbafT\xeds\xbb6@'
p88
tp89
Rp90
ag10
(g14
S'\xaa\xf69\xfeK\xe84@'
p91
tp92
Rp93
ag10
(g14
S'\x90D\x1dx\xe7\x137@'
p94
tp95
Rp96
ag10
(g14
S'W\x0e^W\xb6\xd25@'
p97
tp98
Rp99
ag10
(g14
S'\xab%\xd7\x1fn?5@'
p100
tp101
Rp102
ag10
(g14
S'I\xaa\x10H\xf2\xc15@'
p103
tp104
Rp105
ag10
(g14
S'@\x16A\xb1b\t5@'
p106
tp107
Rp108
ag10
(g14
S'\x0e\x9f\xfc,\xc9#5@'
p109
tp110
Rp111
ag10
(g14
S'\xe0\xd1\x97\x10\xda\x9a5@'
p112
tp113
Rp114
ag10
(g14
S'\xe0\xd3;\x7fz{4@'
p115
tp116
Rp117
ag10
(g14
S'\xbe\r=\x0b9\xa65@'
p118
tp119
Rp120
ag10
(g14
S'b\x8f\xb3\xe9\xb0W5@'
p121
tp122
Rp123
ag10
(g14
S'\x8e\x10G\x01\x85\xd54@'
p124
tp125
Rp126
ag10
(g14
S'\xfe\xce\x89\x8a\xf6A5@'
p127
tp128
Rp129
ag10
(g14
S'\xe0<\xb2\x97kz6@'
p130
tp131
Rp132
ag10
(g14
S'B\x18\xc8\x85\xe4b5@'
p133
tp134
Rp135
ag10
(g14
S'\x9f2y\xbcC!5@'
p136
tp137
Rp138
asssss.