(dp0
S'../Data/sqlite_18.csv'
p1
(dp2
S'../Data/sqlite_8.csv'
p3
(dp4
F0.35
(dp5
S'abs_res'
p6
(dp7
S'bellwether'
p8
(lp9
cnumpy.core.multiarray
scalar
p10
(cnumpy
dtype
p11
(S'f8'
p12
I0
I1
tp13
Rp14
(I3
S'<'
p15
NNNI-1
I-1
I0
tp16
bS'W\xffF\x08W79A'
p17
tp18
Rp19
ag10
(g14
S'HS*\x8e(99A'
p20
tp21
Rp22
ag10
(g14
S'-\x87\x16Yi99A'
p23
tp24
Rp25
ag10
(g14
S'\xba\xe6BRh99A'
p26
tp27
Rp28
ag10
(g14
S'$\x15g\x9f\x9179A'
p29
tp30
Rp31
ag10
(g14
S"'\xea\xdf(\xd079A"
p32
tp33
Rp34
ag10
(g14
S'\xa6\xd3\x06\x1a!79A'
p35
tp36
Rp37
ag10
(g14
S'\xabG\xe1\xba\xdb99A'
p38
tp39
Rp40
ag10
(g14
S'\xd8\xa3p\xdd589A'
p41
tp42
Rp43
ag10
(g14
S'\x10t\xda`\x82:9A'
p44
tp45
Rp46
ag10
(g14
S'\xa26\xd0\xe9J99A'
p47
tp48
Rp49
ag10
(g14
S'e\x01r\xaf\xc2:9A'
p50
tp51
Rp52
ag10
(g14
S'bff\x86{89A'
p53
tp54
Rp55
ag10
(g14
S"'M\xa9x\xc879A"
p56
tp57
Rp58
ag10
(g14
S'\x13\xf5o$\xa389A'
p59
tp60
Rp61
ag10
(g14
S'M\xc5\xd9G\xc099A'
p62
tp63
Rp64
ag10
(g14
S'\xbf\x83y\xe2`79A'
p65
tp66
Rp67
ag10
(g14
S'\x89?5\x9e\xaa99A'
p68
tp69
Rp70
ag10
(g14
S'\xf4o\x84r8:9A'
p71
tp72
Rp73
ag10
(g14
S'\x9bC\x8b\xcc":9A'
p74
tp75
Rp76
asS'target'
p77
(lp78
g10
(g14
S'\xd0\xf7S\xe3\xa5sS@'
p79
tp80
Rp81
ag10
(g14
S'q=\n\xd7\xa3dV@'
p82
tp83
Rp84
ag10
(g14
S'N\x8d\x97n\x12KS@'
p85
tp86
Rp87
ag10
(g14
S'.\\\x8f\xc2\xf50S@'
p88
tp89
Rp90
ag10
(g14
S'\xad\x9d\xef\xa7\xc6\xebT@'
p91
tp92
Rp93
ag10
(g14
S"#\x06\x81\x95C'S@"
p94
tp95
Rp96
ag10
(g14
S'p\x12\x83\xc0\xcaqT@'
p97
tp98
Rp99
ag10
(g14
S'\x81\x95C\x8bl\xb7T@'
p100
tp101
Rp102
ag10
(g14
S'\x8e\x97n\x12\x83\x14U@'
p103
tp104
Rp105
ag10
(g14
S'}h\x91\xed|_T@'
p106
tp107
Rp108
ag10
(g14
S'L\xb6\xf3\xfd\xd4\x80V@'
p109
tp110
Rp111
ag10
(g14
S'L\x0c\x02+\x87.S@'
p112
tp113
Rp114
ag10
(g14
S'\x94\xde\x96\xb5:\x02U@'
p115
tp116
Rp117
ag10
(g14
S'\xe2\xce\xf7S\xe3\xb9T@'
p118
tp119
Rp120
ag10
(g14
S'[d;\xdfO\x1dS@'
p121
tp122
Rp123
ag10
(g14
S'(\x06\x81\x95CCT@'
p124
tp125
Rp126
ag10
(g14
S'z\x93\x18\x04V\xceS@'
p127
tp128
Rp129
ag10
(g14
S'\xa0\xef\xa7\xc6KwT@'
p130
tp131
Rp132
ag10
(g14
S'k\x12\x83\xc0\xcaIU@'
p133
tp134
Rp135
ag10
(g14
S'\x1a\xaeG\xe1z\x84T@'
p136
tp137
Rp138
asssss.