(dp0
S'../Data/sqlite_74.csv'
p1
(dp2
S'../Data/sqlite_6.csv'
p3
(dp4
F0.25
(dp5
S'abs_res'
p6
(dp7
S'bellwether'
p8
(lp9
cnumpy.core.multiarray
scalar
p10
(cnumpy
dtype
p11
(S'f8'
p12
I0
I1
tp13
Rp14
(I3
S'<'
p15
NNNI-1
I-1
I0
tp16
bS'\xdf\xf9~\xde\xf9]iA'
p17
tp18
Rp19
ag10
(g14
S'\xfb\x9a\x0bq\\\\iA'
p20
tp21
Rp22
ag10
(g14
S'\x1fx0\xeb\rWiA'
p23
tp24
Rp25
ag10
(g14
S'\xb7\xc8vNcWiA'
p26
tp27
Rp28
ag10
(g14
S'Z\x9c}\xech`iA'
p29
tp30
Rp31
ag10
(g14
S'\xedB\xd24c`iA'
p32
tp33
Rp34
ag10
(g14
S'x\x05\xc8\x99\xc9^iA'
p35
tp36
Rp37
ag10
(g14
S'a\x03\x9d\x9e\xe3JiA'
p38
tp39
Rp40
ag10
(g14
S"4\x98'\xbaCSiA"
p41
tp42
Rp43
ag10
(g14
S'\xab\x8c\xde\xae@giA'
p44
tp45
Rp46
ag10
(g14
S'\x83N\x1b\x8c\xb5\\iA'
p47
tp48
Rp49
ag10
(g14
S'\xf2\xc3g<\xd6\\iA'
p50
tp51
Rp52
ag10
(g14
S'\x03:mhT[iA'
p53
tp54
Rp55
ag10
(g14
S'\x9eaW\xb4\xf5fiA'
p56
tp57
Rp58
ag10
(g14
S'\x98\x0bI\xb7<_iA'
p59
tp60
Rp61
ag10
(g14
S'B\x8bl\xe7baiA'
p62
tp63
Rp64
ag10
(g14
S'\xeb$\x06Q\r\\iA'
p65
tp66
Rp67
ag10
(g14
S'\x10\xac\x1c\xeeTSiA'
p68
tp69
Rp70
ag10
(g14
S'[\xa98\xf7 `iA'
p71
tp72
Rp73
ag10
(g14
S"\x9c'\xea\x03SgiA"
p74
tp75
Rp76
asS'target'
p77
(lp78
g10
(g14
S'\xd3\xf7S\xe3\xa5;q@'
p79
tp80
Rp81
ag10
(g14
S'33333up@'
p82
tp83
Rp84
ag10
(g14
S'8\x89A`\xe5\x80o@'
p85
tp86
Rp87
ag10
(g14
S'\xd0"\xdb\xf9~qq@'
p88
tp89
Rp90
ag10
(g14
S'\xe0\xf9~j\xbc{p@'
p91
tp92
Rp93
ag10
(g14
S'\xa1\xc6K7\x89\xb0p@'
p94
tp95
Rp96
ag10
(g14
S'|\x14\xaeG\xe1\xe0p@'
p97
tp98
Rp99
ag10
(g14
S'\xf4(\\\x8f\xc2\xcbp@'
p100
tp101
Rp102
ag10
(g14
S'=\xdd$\x06\x81\xefn@'
p103
tp104
Rp105
ag10
(g14
S'\xe3\xfb\xa9\xf1\xd2\xa1o@'
p106
tp107
Rp108
ag10
(g14
S'\xa5\x1cZd;5q@'
p109
tp110
Rp111
ag10
(g14
S'\xc6v\xbe\x9f\x1a\x08p@'
p112
tp113
Rp114
ag10
(g14
S'\x7f\x95C\x8blvq@'
p115
tp116
Rp117
ag10
(g14
S'\x1c\xaeG\xe1z\x9bp@'
p118
tp119
Rp120
ag10
(g14
S'\x9a\x99\x99\x99\x99Rp@'
p121
tp122
Rp123
ag10
(g14
S'\xc0\xa1E\xb6\xf3\xe7p@'
p124
tp125
Rp126
ag10
(g14
S'E\x8bl\xe7\xfb\x03o@'
p127
tp128
Rp129
ag10
(g14
S'\x1c\x02+\x87\x16ko@'
p130
tp131
Rp132
ag10
(g14
S'O\x8d\x97n\x12Aq@'
p133
tp134
Rp135
ag10
(g14
S'{\xbe\x9f\x1a/\tn@'
p136
tp137
Rp138
asssss.