(dp0
S'../Data/sqlite_73.csv'
p1
(dp2
S'../Data/sqlite_96.csv'
p3
(dp4
F0.2
(dp5
S'mmre'
p6
(dp7
S'bellwether'
p8
(lp9
cnumpy.core.multiarray
scalar
p10
(cnumpy
dtype
p11
(S'f8'
p12
I0
I1
tp13
Rp14
(I3
S'<'
p15
NNNI-1
I-1
I0
tp16
bS'\xdd\xfd\x94^?8J@'
p17
tp18
Rp19
ag10
(g14
S'n\x92\x06\xb7\x82FJ@'
p20
tp21
Rp22
ag10
(g14
S'T\xd2\xb2O\xd8\xf8I@'
p23
tp24
Rp25
ag10
(g14
S'\x8fwEX\x15\rJ@'
p26
tp27
Rp28
ag10
(g14
S'\xc0\xe8\x1a\x02^?J@'
p29
tp30
Rp31
ag10
(g14
S'2[\xafmO\x0eJ@'
p32
tp33
Rp34
ag10
(g14
S'V0\xb2\x0f)"J@'
p35
tp36
Rp37
ag10
(g14
S'5\tp\xba!&J@'
p38
tp39
Rp40
ag10
(g14
S"\x9er$cv'J@"
p41
tp42
Rp43
ag10
(g14
S'\xff\xa7\x98\xa6 8J@'
p44
tp45
Rp46
ag10
(g14
S'r?5X\xc0\x11J@'
p47
tp48
Rp49
ag10
(g14
S'\x8dt\x85k\x8f#J@'
p50
tp51
Rp52
ag10
(g14
S'\xf8z\xb4[\x1a\x15J@'
p53
tp54
Rp55
ag10
(g14
S'D\xfd\x06:B!J@'
p56
tp57
Rp58
ag10
(g14
S'+*dxuMJ@'
p59
tp60
Rp61
ag10
(g14
S'\x02\xad\x1d}I\xebI@'
p62
tp63
Rp64
ag10
(g14
S'&7\x99N\x1f^J@'
p65
tp66
Rp67
ag10
(g14
S'>\xf6\x991\xc8\xfaI@'
p68
tp69
Rp70
ag10
(g14
S'(>\x1b\x96\x0c!J@'
p71
tp72
Rp73
ag10
(g14
S'(q\xf7g\xa8\rJ@'
p74
tp75
Rp76
asS'target'
p77
(lp78
g10
(g14
S'x.I\xc6^hT@'
p79
tp80
Rp81
ag10
(g14
S'\xad\x03\xda\x82*;J@'
p82
tp83
Rp84
ag10
(g14
S'\x0e\xf2\xe6$\xee2O@'
p85
tp86
Rp87
ag10
(g14
S'\xea\xdas\xc6\xa6\x80Q@'
p88
tp89
Rp90
ag10
(g14
S'PR\x0f\xbcwyS@'
p91
tp92
Rp93
ag10
(g14
S'n\xc9\xf7#\x9a\xf3S@'
p94
tp95
Rp96
ag10
(g14
S'(\x0cF\xa3\x99\x95O@'
p97
tp98
Rp99
ag10
(g14
S'\x06li\xe3\r\xe9Y@'
p100
tp101
Rp102
ag10
(g14
S'\xfe\xbe>9V\xfa\\@'
p103
tp104
Rp105
ag10
(g14
S'\x07Vy\xfdl\x9eX@'
p106
tp107
Rp108
ag10
(g14
S'\x1cb5u\xa0m`@'
p109
tp110
Rp111
ag10
(g14
S'-\x08\x85\x83P\xd0R@'
p112
tp113
Rp114
ag10
(g14
S'\x0c\xa7Qru\x8bH@'
p115
tp116
Rp117
ag10
(g14
S'X\xad-g\xe5\xbeU@'
p118
tp119
Rp120
ag10
(g14
S'4\xd9\xf31\x97]^@'
p121
tp122
Rp123
ag10
(g14
S'\xa7\xb3\x04\xdf\xe1OW@'
p124
tp125
Rp126
ag10
(g14
S'\x10D\x9e6NOP@'
p127
tp128
Rp129
ag10
(g14
S'\xee\xf1-Z\t\xc2O@'
p130
tp131
Rp132
ag10
(g14
S'<&\xf7\x05[\x86T@'
p133
tp134
Rp135
ag10
(g14
S'\x08\xd7\x05\xc2\x8d\xf4U@'
p136
tp137
Rp138
asssss.