(dp0
S'../Data/sqlite_34.csv'
p1
(dp2
S'../Data/sqlite_97.csv'
p3
(dp4
F0.3
(dp5
S'mmre'
p6
(dp7
S'bellwether'
p8
(lp9
cnumpy.core.multiarray
scalar
p10
(cnumpy
dtype
p11
(S'f8'
p12
I0
I1
tp13
Rp14
(I3
S'<'
p15
NNNI-1
I-1
I0
tp16
bS"\xa7\x0b\x9d+\xb0'R@"
p17
tp18
Rp19
ag10
(g14
S'cV;\r\x01?R@'
p20
tp21
Rp22
ag10
(g14
S'\xac\x9d\t\x9e\x8e%R@'
p23
tp24
Rp25
ag10
(g14
S'A\x184\x0e\x84\x19R@'
p26
tp27
Rp28
ag10
(g14
S'\x15/^\xa8;#R@'
p29
tp30
Rp31
ag10
(g14
S'K\x0e\x1a6\x94\x0fR@'
p32
tp33
Rp34
ag10
(g14
S'\xb7\x0e\xad\x1a^8R@'
p35
tp36
Rp37
ag10
(g14
S'\xc7Vd\x1c\xe24R@'
p38
tp39
Rp40
ag10
(g14
S'\x19H\x7f\x12U*R@'
p41
tp42
Rp43
ag10
(g14
S'\xea\x93\x1c\xc8j6R@'
p44
tp45
Rp46
ag10
(g14
S'k\\\xbf\xefl\x1fR@'
p47
tp48
Rp49
ag10
(g14
S'\x9b\xc4_.\xea!R@'
p50
tp51
Rp52
ag10
(g14
S'\x98:\xb9\xb0\x05\x17R@'
p53
tp54
Rp55
ag10
(g14
S'\xfbi\xabPu&R@'
p56
tp57
Rp58
ag10
(g14
S'uTA\xbbs\x1fR@'
p59
tp60
Rp61
ag10
(g14
S'\xef)\xf3\xc4\x83-R@'
p62
tp63
Rp64
ag10
(g14
S'q\xda\xb1ji\x19R@'
p65
tp66
Rp67
ag10
(g14
S'\xc1N\x7fH\xd9\x1aR@'
p68
tp69
Rp70
ag10
(g14
S'\xcc\x03.\xa2="R@'
p71
tp72
Rp73
ag10
(g14
S'"w\xd7l\x0e\x15R@'
p74
tp75
Rp76
asS'target'
p77
(lp78
g10
(g14
S'\x960?}>\x1dR@'
p79
tp80
Rp81
ag10
(g14
S'\xbe\xb2\xeeR\xff\xefP@'
p82
tp83
Rp84
ag10
(g14
S'\x7f\xdb=\x16dDR@'
p85
tp86
Rp87
ag10
(g14
S'\x1fz\xaf\xa8l\x84U@'
p88
tp89
Rp90
ag10
(g14
S'5*\xbfUz\xb7Q@'
p91
tp92
Rp93
ag10
(g14
S'\xc1zLds\xb6R@'
p94
tp95
Rp96
ag10
(g14
S'\xf5IO\xde\xbc\xb0O@'
p97
tp98
Rp99
ag10
(g14
S'\x1f\xef\xa5eW=Y@'
p100
tp101
Rp102
ag10
(g14
S'6\xeb\x1f\x91l\x01T@'
p103
tp104
Rp105
ag10
(g14
S']\xf6`\x06\x7fmU@'
p106
tp107
Rp108
ag10
(g14
S'*;\xd3pJ\xb6V@'
p109
tp110
Rp111
ag10
(g14
S'\x91\xbc\x0e}\xbf\n_@'
p112
tp113
Rp114
ag10
(g14
S"\x9b\x9av\xed;'J@"
p115
tp116
Rp117
ag10
(g14
S'\xf5\xfb\xcebr\xb8V@'
p118
tp119
Rp120
ag10
(g14
S'\xa6\x8d\xa7\xdbqPZ@'
p121
tp122
Rp123
ag10
(g14
S'"\x93\xc9m\x08pU@'
p124
tp125
Rp126
ag10
(g14
S'\x0e:\xc4\xe7\xfa\xbcY@'
p127
tp128
Rp129
ag10
(g14
S'\xbe\xd15Ba\x12T@'
p130
tp131
Rp132
ag10
(g14
S'\xe1\x84A\x85\xed\xdaT@'
p133
tp134
Rp135
ag10
(g14
S'\x99WQ\xe7\x1fOP@'
p136
tp137
Rp138
asssss.