(dp0
S'../Data/sqlite_85.csv'
p1
(dp2
S'../Data/sqlite_49.csv'
p3
(dp4
F0.15
(dp5
S'abs_res'
p6
(dp7
S'bellwether'
p8
(lp9
cnumpy.core.multiarray
scalar
p10
(cnumpy
dtype
p11
(S'f8'
p12
I0
I1
tp13
Rp14
(I3
S'<'
p15
NNNI-1
I-1
I0
tp16
bS'\xd7\x06:u\xaf:WA'
p17
tp18
Rp19
ag10
(g14
S'\xf6\xe13d\xe0UWA'
p20
tp21
Rp22
ag10
(g14
S'\x94\xfcb\t\x82|WA'
p23
tp24
Rp25
ag10
(g14
S'd\x91\xed\x14\xdauWA'
p26
tp27
Rp28
ag10
(g14
S'[q\xf6Y\xc6UWA'
p29
tp30
Rp31
ag10
(g14
S'\xf4|?M\xf3HWA'
p32
tp33
Rp34
ag10
(g14
S'\xa8E\xb6\x03\x8aiWA'
p35
tp36
Rp37
ag10
(g14
S'\x80\xa2\xfe\xddNuWA'
p38
tp39
Rp40
ag10
(g14
S'\x13-\xb2m\xac\x7fWA'
p41
tp42
Rp43
ag10
(g14
S'\xef\xe13<\xf5\x97WA'
p44
tp45
Rp46
ag10
(g14
S'\xd4Mb\xa8\x16kWA'
p47
tp48
Rp49
ag10
(g14
S'U\xe3\xa5kp<WA'
p50
tp51
Rp52
ag10
(g14
S'\xd5Mb0\xa2jWA'
p53
tp54
Rp55
ag10
(g14
S'\x15\x83\xc0R\x8aEWA'
p56
tp57
Rp58
ag10
(g14
S'\x83?5V\x1dpWA'
p59
tp60
Rp61
ag10
(g14
S';\n\xd7c\x18\x86WA'
p62
tp63
Rp64
ag10
(g14
S"{h\x91-'NWA"
p65
tp66
Rp67
ag10
(g14
S'\x8a{\xcd\xc5EuWA'
p68
tp69
Rp70
ag10
(g14
S'\xf4\xd2MR1XWA'
p71
tp72
Rp73
ag10
(g14
S'R\x0c\x02\xf3J1WA'
p74
tp75
Rp76
asS'target'
p77
(lp78
g10
(g14
S'\x9e\x99\x99\x99\x99Ah@'
p79
tp80
Rp81
ag10
(g14
S'L\xe1z\x14\xae\xd3f@'
p82
tp83
Rp84
ag10
(g14
S'C\x89A`\xe5hf@'
p85
tp86
Rp87
ag10
(g14
S'2\x89A`\xe5\xa4g@'
p88
tp89
Rp90
ag10
(g14
S'\xcd"\xdb\xf9~<i@'
p91
tp92
Rp93
ag10
(g14
S'63333gg@'
p94
tp95
Rp96
ag10
(g14
S'\xdaz\x14\xaeGef@'
p97
tp98
Rp99
ag10
(g14
S'\x8a\xed|?5\xfai@'
p100
tp101
Rp102
ag10
(g14
S'\xd3x\xe9&1\x12i@'
p103
tp104
Rp105
ag10
(g14
S'\xbarh\x91\xed,i@'
p106
tp107
Rp108
ag10
(g14
S'\x98\x99\x99\x99\x99\xd5f@'
p109
tp110
Rp111
ag10
(g14
S'\x8c\xc0\xca\xa1EVg@'
p112
tp113
Rp114
ag10
(g14
S'\x9e\x99\x99\x99\x995h@'
p115
tp116
Rp117
ag10
(g14
S'>\x89A`\xe5\xf4g@'
p118
tp119
Rp120
ag10
(g14
S'\x0bX9\xb4\xc8\x8ah@'
p121
tp122
Rp123
ag10
(g14
S'P\xe3\xa5\x9b\xc40g@'
p124
tp125
Rp126
ag10
(g14
S'A`\xe5\xd0"/h@'
p127
tp128
Rp129
ag10
(g14
S'X9\xb4\xc8v\xeef@'
p130
tp131
Rp132
ag10
(g14
S'\x00+\x87\x16\xd9ni@'
p133
tp134
Rp135
ag10
(g14
S'\xa4E\xb6\xf3\xfdPh@'
p136
tp137
Rp138
asssss.