(dp0
S'../Data/sqlite_37.csv'
p1
(dp2
S'../Data/sqlite_97.csv'
p3
(dp4
F0.35
(dp5
S'mmre'
p6
(dp7
S'bellwether'
p8
(lp9
cnumpy.core.multiarray
scalar
p10
(cnumpy
dtype
p11
(S'f8'
p12
I0
I1
tp13
Rp14
(I3
S'<'
p15
NNNI-1
I-1
I0
tp16
bS"\xa0\x8e,'\x0cQX@"
p17
tp18
Rp19
ag10
(g14
S'\x08\x15\x95\xbb`PX@'
p20
tp21
Rp22
ag10
(g14
S'\xbe|YC\xebPX@'
p23
tp24
Rp25
ag10
(g14
S'\xaaA\xe6\xa7\x8eNX@'
p26
tp27
Rp28
ag10
(g14
S'\x90h\xdcTFPX@'
p29
tp30
Rp31
ag10
(g14
S'~\xe9\xd73\xa1SX@'
p32
tp33
Rp34
ag10
(g14
S'\xb1`\xeb5\x18PX@'
p35
tp36
Rp37
ag10
(g14
S'n\x9e\x84hAOX@'
p38
tp39
Rp40
ag10
(g14
S'e\x05Z\xbd$RX@'
p41
tp42
Rp43
ag10
(g14
S'\x12><a\x92PX@'
p44
tp45
Rp46
ag10
(g14
S'\xa0U\x87K\x9ePX@'
p47
tp48
Rp49
ag10
(g14
S'\xe5\xa5\x9c\x9ePOX@'
p50
tp51
Rp52
ag10
(g14
S'\xa5=\xdf\x1e\x90MX@'
p53
tp54
Rp55
ag10
(g14
S'{\xda\x99\xe2\xc4PX@'
p56
tp57
Rp58
ag10
(g14
S'\xb6n\xfb\x0f6PX@'
p59
tp60
Rp61
ag10
(g14
S'A\xc4\xe3\x9b4RX@'
p62
tp63
Rp64
ag10
(g14
S'\xb4\xbe\x0bq\x87PX@'
p65
tp66
Rp67
ag10
(g14
S'\xb4\x102\xb3HOX@'
p68
tp69
Rp70
ag10
(g14
S'\x91\x01\x0f6)QX@'
p71
tp72
Rp73
ag10
(g14
S'\xc2\x7f\x81LOPX@'
p74
tp75
Rp76
asS'target'
p77
(lp78
g10
(g14
S'\xcd2D`\x06\x06L@'
p79
tp80
Rp81
ag10
(g14
S'\xdeY\xeb^\xa1\xdeS@'
p82
tp83
Rp84
ag10
(g14
S'Z\xf9*o\x1f^U@'
p85
tp86
Rp87
ag10
(g14
S'\xb5\x93\x08mV\nT@'
p88
tp89
Rp90
ag10
(g14
S'\x97\x92\xf5\xc9\xd0\x83T@'
p91
tp92
Rp93
ag10
(g14
S'\x16qA\xec\x07\xd4U@'
p94
tp95
Rp96
ag10
(g14
S'r\xd1\xae\xe9tu[@'
p97
tp98
Rp99
ag10
(g14
S'\x95nM\tV%P@'
p100
tp101
Rp102
ag10
(g14
S'\xe0H+\xc4$\xe4F@'
p103
tp104
Rp105
ag10
(g14
S'Y\xa6\xce\xacuXI@'
p106
tp107
Rp108
ag10
(g14
S'uA\x05\xe3\xc3\xa0T@'
p109
tp110
Rp111
ag10
(g14
S'\xe6\x94\xb6>\xceAS@'
p112
tp113
Rp114
ag10
(g14
S'\x88\xa7\x1f>\x0f\xbdW@'
p115
tp116
Rp117
ag10
(g14
S'o\x890\x9e\x9fQR@'
p118
tp119
Rp120
ag10
(g14
S'\xe3\xec\x1e\xf0\x16\xcaV@'
p121
tp122
Rp123
ag10
(g14
S'E\x10\xf5\x8d3#U@'
p124
tp125
Rp126
ag10
(g14
S'\x8aX\xf9\xec\xeaiV@'
p127
tp128
Rp129
ag10
(g14
S'/\xd0[z\xaa\xf5V@'
p130
tp131
Rp132
ag10
(g14
S'\x96\x97\xa0\xdc\xbeRU@'
p133
tp134
Rp135
ag10
(g14
S'\xfcs\xcb\x10{LR@'
p136
tp137
Rp138
asssss.