(dp0
S'../Data/sqlite_4.csv'
p1
(dp2
S'../Data/sqlite_56.csv'
p3
(dp4
F0.3
(dp5
S'abs_res'
p6
(dp7
S'bellwether'
p8
(lp9
cnumpy.core.multiarray
scalar
p10
(cnumpy
dtype
p11
(S'f8'
p12
I0
I1
tp13
Rp14
(I3
S'<'
p15
NNNI-1
I-1
I0
tp16
bS'\x84\xc0\xca\xa1H(;A'
p17
tp18
Rp19
ag10
(g14
S'V\xc7\x04\xcff);A'
p20
tp21
Rp22
ag10
(g14
S'tww\x17\xb5*;A'
p23
tp24
Rp25
ag10
(g14
S' /\xdd\xc4\x97*;A'
p26
tp27
Rp28
ag10
(g14
S'\xa5\x8e\t\xdeY+;A'
p29
tp30
Rp31
ag10
(g14
S"R\xb8\x1e\xa5\x9a';A"
p32
tp33
Rp34
ag10
(g14
S'U\xd6\xea\x98*+;A'
p35
tp36
Rp37
ag10
(g14
S'U\x0e-\xd2\xf3(;A'
p38
tp39
Rp40
ag10
(g14
S'\x18X9T\xfa*;A'
p41
tp42
Rp43
ag10
(g14
S'\xc4\x92_l\xaf(;A'
p44
tp45
Rp46
ag10
(g14
S'\x9b\xef\xa7\xc6|);A'
p47
tp48
Rp49
ag10
(g14
S'\xc3-kuA*;A'
p50
tp51
Rp52
ag10
(g14
S'4^\xbai\xe1(;A'
p53
tp54
Rp55
ag10
(g14
S"r\xaf\xb9p\xa5';A"
p56
tp57
Rp58
ag10
(g14
S'\x0f<\x98\xc7\xb9(;A'
p59
tp60
Rp61
ag10
(g14
S'\x83\xcf\xb0\xab\x0f);A'
p62
tp63
Rp64
ag10
(g14
S'\xfdb\xc9\xefy(;A'
p65
tp66
Rp67
ag10
(g14
S'\xc0g\xd8\xf5\x03*;A'
p68
tp69
Rp70
ag10
(g14
S'\xb7I\x0c\xe2\xff);A'
p71
tp72
Rp73
ag10
(g14
S'\x97\x18\x04\xb6\n*;A'
p74
tp75
Rp76
asS'target'
p77
(lp78
g10
(g14
S'\xfe~j\xbct+Z@'
p79
tp80
Rp81
ag10
(g14
S'\xc5"\xdb\xf9~&\\@'
p82
tp83
Rp84
ag10
(g14
S's\xbe\x9f\x1a/U[@'
p85
tp86
Rp87
ag10
(g14
S'\xc4v\xbe\x9f\x1a\x93^@'
p88
tp89
Rp90
ag10
(g14
S'\x81\x14\xaeG\xe1>[@'
p91
tp92
Rp93
ag10
(g14
S'n\x14\xaeG\xe1\xce\\@'
p94
tp95
Rp96
ag10
(g14
S'\xf2\xa7\xc6K7!\\@'
p97
tp98
Rp99
ag10
(g14
S'\x95\x99\x99\x99\x999]@'
p100
tp101
Rp102
ag10
(g14
S'l=\n\xd7\xa3\x00[@'
p103
tp104
Rp105
ag10
(g14
S'\x9bE\xb6\xf3\xfd\xc4]@'
p106
tp107
Rp108
ag10
(g14
S'R\x0e-\xb2\x9d\xcfZ@'
p109
tp110
Rp111
ag10
(g14
S'\n\x81\x95C\x8btZ@'
p112
tp113
Rp114
ag10
(g14
S'\xd3K7\x89A@]@'
p115
tp116
Rp117
ag10
(g14
S'\xef\xa7\xc6K7\xc9X@'
p118
tp119
Rp120
ag10
(g14
S'\xb3\xf3\xfd\xd4x}[@'
p121
tp122
Rp123
ag10
(g14
S'd;\xdfO\x8d\xbfZ@'
p124
tp125
Rp126
ag10
(g14
S'2\xb2\x9d\xef\xa7\xfaZ@'
p127
tp128
Rp129
ag10
(g14
S'f\x12\x83\xc0\xca\xb9[@'
p130
tp131
Rp132
ag10
(g14
S"\xd0\xa3p=\n'[@"
p133
tp134
Rp135
ag10
(g14
S'33333?Y@'
p136
tp137
Rp138
asssss.