(dp0
S'../Data/sqlite_51.csv'
p1
(dp2
S'../Data/sqlite_40.csv'
p3
(dp4
F0.25
(dp5
S'mmre'
p6
(dp7
S'bellwether'
p8
(lp9
cnumpy.core.multiarray
scalar
p10
(cnumpy
dtype
p11
(S'f8'
p12
I0
I1
tp13
Rp14
(I3
S'<'
p15
NNNI-1
I-1
I0
tp16
bS'x!Y\xab\\\rW@'
p17
tp18
Rp19
ag10
(g14
S'\xd1\x10l\xae_\rW@'
p20
tp21
Rp22
ag10
(g14
S'\x0fQ\x87\xa4}\rW@'
p23
tp24
Rp25
ag10
(g14
S'\x98\x92Z\x88\x13\rW@'
p26
tp27
Rp28
ag10
(g14
S'Nh!\xaaj\rW@'
p29
tp30
Rp31
ag10
(g14
S'\xb4\xd6\x8c\xc7t\rW@'
p32
tp33
Rp34
ag10
(g14
S'\x05*\xd0\x8cP\rW@'
p35
tp36
Rp37
ag10
(g14
S'N\xd6\xb0\xfa6\rW@'
p38
tp39
Rp40
ag10
(g14
S'`\x87\x8c\xc9z\rW@'
p41
tp42
Rp43
ag10
(g14
S'M\xdc\x87\xfe]\rW@'
p44
tp45
Rp46
ag10
(g14
S'7\x04rR"\rW@'
p47
tp48
Rp49
ag10
(g14
S'\x1f\x00_M\xaf\rW@'
p50
tp51
Rp52
ag10
(g14
S'\xfb\x0bnV\r\rW@'
p53
tp54
Rp55
ag10
(g14
S'X~\xf5NK\rW@'
p56
tp57
Rp58
ag10
(g14
S'1\xca\xd1\xfe~\rW@'
p59
tp60
Rp61
ag10
(g14
S'3;\x04\x18_\rW@'
p62
tp63
Rp64
ag10
(g14
S'\x16\\\n(\xd9\rW@'
p65
tp66
Rp67
ag10
(g14
S'K>c\x99p\rW@'
p68
tp69
Rp70
ag10
(g14
S'\x14\xa72\x1dc\rW@'
p71
tp72
Rp73
ag10
(g14
S'\x17\x812mT\rW@'
p74
tp75
Rp76
asS'target'
p77
(lp78
g10
(g14
S'\xe6\x06\xb9\xf2\xa3$\x01@'
p79
tp80
Rp81
ag10
(g14
S'\x00l\x85\xd7<\xad\x01@'
p82
tp83
Rp84
ag10
(g14
S'\xb3\xc07W\xdc\xd0\x00@'
p85
tp86
Rp87
ag10
(g14
S'\x1eP\x94n\xb7\t\x01@'
p88
tp89
Rp90
ag10
(g14
S'\xf6\xa5#_\xdb\xe7\x01@'
p91
tp92
Rp93
ag10
(g14
S'\xdd\xf1S\x8bI\xbb\x00@'
p94
tp95
Rp96
ag10
(g14
S'8x\xba.\x14Q\x00@'
p97
tp98
Rp99
ag10
(g14
S'\xe4ed\xca|\x1b\x04@'
p100
tp101
Rp102
ag10
(g14
S'.Aw\x82\x8cl\x00@'
p103
tp104
Rp105
ag10
(g14
S'\xfe\xe4\x15\x0e.A\x01@'
p106
tp107
Rp108
ag10
(g14
S'\xfd\x05%\xc8L\x89\xff?'
p109
tp110
Rp111
ag10
(g14
S'q\x1d\x13\xebBL\x01@'
p112
tp113
Rp114
ag10
(g14
S'\xf8{@v\xc2"\x01@'
p115
tp116
Rp117
ag10
(g14
S'3\xbfup/\t\x02@'
p118
tp119
Rp120
ag10
(g14
S'\xe4B\x04\x9d\xa9\xed\x00@'
p121
tp122
Rp123
ag10
(g14
S'F\xa0s\x9a\xfe\xd7\x02@'
p124
tp125
Rp126
ag10
(g14
S'\xcf\xf2\xff\xe3\xe3\xda\xff?'
p127
tp128
Rp129
ag10
(g14
S'\xaf\xbf\x1aC;\xb1\xff?'
p130
tp131
Rp132
ag10
(g14
S'+C=\x8a*#\x03@'
p133
tp134
Rp135
ag10
(g14
S':\x17\xed!{Y\x00@'
p136
tp137
Rp138
asssss.