(dp0
S'../Data/sqlite_46.csv'
p1
(dp2
S'../Data/sqlite_31.csv'
p3
(dp4
F0.15
(dp5
S'abs_res'
p6
(dp7
S'bellwether'
p8
(lp9
cnumpy.core.multiarray
scalar
p10
(cnumpy
dtype
p11
(S'f8'
p12
I0
I1
tp13
Rp14
(I3
S'<'
p15
NNNI-1
I-1
I0
tp16
bS'\xc8v\xbe\xdfZa@A'
p17
tp18
Rp19
ag10
(g14
S'\xb5\xf3\xfd$\x1ca@A'
p20
tp21
Rp22
ag10
(g14
S'n\x93\x18tQa@A'
p23
tp24
Rp25
ag10
(g14
S'6\xb4\xc8&w`@A'
p26
tp27
Rp28
ag10
(g14
S'333\xf3\x9f`@A'
p29
tp30
Rp31
ag10
(g14
S'\xaf\xc8vn\x84a@A'
p32
tp33
Rp34
ag10
(g14
S'\xea|?U/a@A'
p35
tp36
Rp37
ag10
(g14
S'X9\xb4\xc8\x8aa@A'
p38
tp39
Rp40
ag10
(g14
S'\x85\x97n\x92\xc4a@A'
p41
tp42
Rp43
ag10
(g14
S'e\xbct\xe3\x17a@A'
p44
tp45
Rp46
ag10
(g14
S'\xc1 \xb0B\xd5a@A'
p47
tp48
Rp49
ag10
(g14
S'>\x8bl\xb7\xafa@A'
p50
tp51
Rp52
ag10
(g14
S'\xa0p=\x8a[a@A'
p53
tp54
Rp55
ag10
(g14
S'/^\xba\xd9o`@A'
p56
tp57
Rp58
ag10
(g14
S'`;\xdf\xff\x15b@A'
p59
tp60
Rp61
ag10
(g14
S'Td;\x7fYa@A'
p62
tp63
Rp64
ag10
(g14
S'\x1b\xb0rh]a@A'
p65
tp66
Rp67
ag10
(g14
S'e\x91\xed\x0c\x94a@A'
p68
tp69
Rp70
ag10
(g14
S',\x08\xacl\xdd`@A'
p71
tp72
Rp73
ag10
(g14
S'\x19/\xdd\x144a@A'
p74
tp75
Rp76
asS'target'
p77
(lp78
g10
(g14
S'Fb\x10X9\x08f@'
p79
tp80
Rp81
ag10
(g14
S'\xd9\xa5\x9b\xc4 \\f@'
p82
tp83
Rp84
ag10
(g14
S'\xe9$\x06\x81\x95\xbfg@'
p85
tp86
Rp87
ag10
(g14
S'a\x8f\xc2\xf5(\\d@'
p88
tp89
Rp90
ag10
(g14
S'\xf0|?5^le@'
p91
tp92
Rp93
ag10
(g14
S'\xc9v\xbe\x9f\x1aWg@'
p94
tp95
Rp96
ag10
(g14
S'\xb7G\xe1z\x14\xecc@'
p97
tp98
Rp99
ag10
(g14
S'Ub\x10X9dd@'
p100
tp101
Rp102
ag10
(g14
S'\xd8\xf9~j\xbc\xc4e@'
p103
tp104
Rp105
ag10
(g14
S'\xd8$\x06\x81\x95\xb7d@'
p106
tp107
Rp108
ag10
(g14
S'\xc8\xf5(\\\x8f\xccd@'
p109
tp110
Rp111
ag10
(g14
S'\xbc\x9f\x1a/\xdd\x02d@'
p112
tp113
Rp114
ag10
(g14
S'\xb8\x9d\xef\xa7\xc6\x8fd@'
p115
tp116
Rp117
ag10
(g14
S'\x13\x02+\x87\x16\xe9f@'
p118
tp119
Rp120
ag10
(g14
S'\x0b\xd7\xa3p=\x92e@'
p121
tp122
Rp123
ag10
(g14
S'\xebQ\xb8\x1e\x85\xd9d@'
p124
tp125
Rp126
ag10
(g14
S'r=\n\xd7\xa3Xe@'
p127
tp128
Rp129
ag10
(g14
S'~\x16\xd9\xce\xf77f@'
p130
tp131
Rp132
ag10
(g14
S'\xff\x80\x95C\x8b,e@'
p133
tp134
Rp135
ag10
(g14
S'.\n\xd7\xa3pyd@'
p136
tp137
Rp138
asssss.