(dp0
S'../Data/sqlite_78.csv'
p1
(dp2
S'../Data/sqlite_94.csv'
p3
(dp4
F0.4
(dp5
S'mmre'
p6
(dp7
S'bellwether'
p8
(lp9
cnumpy.core.multiarray
scalar
p10
(cnumpy
dtype
p11
(S'f8'
p12
I0
I1
tp13
Rp14
(I3
S'<'
p15
NNNI-1
I-1
I0
tp16
bS'\xdbXD\xae\x88gX@'
p17
tp18
Rp19
ag10
(g14
S'\xe5s\xd3A\xbdgX@'
p20
tp21
Rp22
ag10
(g14
S'\x18\xa2H;thX@'
p23
tp24
Rp25
ag10
(g14
S'\xd1[&z\xc4dX@'
p26
tp27
Rp28
ag10
(g14
S'\xf3O\xea\x0b]fX@'
p29
tp30
Rp31
ag10
(g14
S'\xe5L\xb8f\x01hX@'
p32
tp33
Rp34
ag10
(g14
S'X\xfb\x1d\t\xf9gX@'
p35
tp36
Rp37
ag10
(g14
S'\xc4R\x15\xe0\xb1hX@'
p38
tp39
Rp40
ag10
(g14
S'\x11vxf(fX@'
p41
tp42
Rp43
ag10
(g14
S'\xb6\rq{zgX@'
p44
tp45
Rp46
ag10
(g14
S'\xf5\x1a\xc7(\xdbdX@'
p47
tp48
Rp49
ag10
(g14
S'\x8bWN\xf4^fX@'
p50
tp51
Rp52
ag10
(g14
S'\x93\xe3v\x11\xcfgX@'
p53
tp54
Rp55
ag10
(g14
S'\xfd\x9d{\xdb\xf1fX@'
p56
tp57
Rp58
ag10
(g14
S'\xa4/4`nhX@'
p59
tp60
Rp61
ag10
(g14
S'AN\xc0\xa2\xa4gX@'
p62
tp63
Rp64
ag10
(g14
S'+\x1d\xf6\x1b\xf8fX@'
p65
tp66
Rp67
ag10
(g14
S'\xdb4\x95EqhX@'
p68
tp69
Rp70
ag10
(g14
S'\xf6\xc1y\x02\xf8eX@'
p71
tp72
Rp73
ag10
(g14
S'l\xc4{\x080gX@'
p74
tp75
Rp76
asS'target'
p77
(lp78
g10
(g14
S'\x80}e\xd1#\xdeU@'
p79
tp80
Rp81
ag10
(g14
S'">\x0b\xd1l\x1dP@'
p82
tp83
Rp84
ag10
(g14
S'\xfc8\xa1\x9f\xf6\x97R@'
p85
tp86
Rp87
ag10
(g14
S'_\x8c]V\xeb\xf0O@'
p88
tp89
Rp90
ag10
(g14
S'tGu\x0cd\xd3R@'
p91
tp92
Rp93
ag10
(g14
S'\x89\xfd\xde\x08\xb6XR@'
p94
tp95
Rp96
ag10
(g14
S'v\xd7M\xe9\x8a.J@'
p97
tp98
Rp99
ag10
(g14
S'\x00~\xc5^\x0f\x8bJ@'
p100
tp101
Rp102
ag10
(g14
S'\xe5$\xac\x1c.\x94J@'
p103
tp104
Rp105
ag10
(g14
S'\xfd\xc9\xd6\xb89\xafU@'
p106
tp107
Rp108
ag10
(g14
S'\xc9\xdf? \xd8\x1dQ@'
p109
tp110
Rp111
ag10
(g14
S'\xa1R\x98\x14v\xfdN@'
p112
tp113
Rp114
ag10
(g14
S'\xd7\x18\xe2[A&N@'
p115
tp116
Rp117
ag10
(g14
S'w3\x14\xc4\x95\x1dQ@'
p118
tp119
Rp120
ag10
(g14
S'\xc9D\x94\xc4\t:F@'
p121
tp122
Rp123
ag10
(g14
S'XV\xf5e\xef\x8fO@'
p124
tp125
Rp126
ag10
(g14
S'S\xdcGR\x13CT@'
p127
tp128
Rp129
ag10
(g14
S'\xedq9\xe9:\x98L@'
p130
tp131
Rp132
ag10
(g14
S'y\x85R\x80\xa7WP@'
p133
tp134
Rp135
ag10
(g14
S'\xfb\xe5\xf0\x0b\x11(R@'
p136
tp137
Rp138
asssss.