(dp0
S'../Data/sqlite_74.csv'
p1
(dp2
S'../Data/sqlite_75.csv'
p3
(dp4
F0.4
(dp5
S'abs_res'
p6
(dp7
S'bellwether'
p8
(lp9
cnumpy.core.multiarray
scalar
p10
(cnumpy
dtype
p11
(S'f8'
p12
I0
I1
tp13
Rp14
(I3
S'<'
p15
NNNI-1
I-1
I0
tp16
bS'\x99Rq\xc6\x80PdA'
p17
tp18
Rp19
ag10
(g14
S'\x12\x9fa+\xeaKdA'
p20
tp21
Rp22
ag10
(g14
S'\x0b\x9fa\xeb\xfdIdA'
p23
tp24
Rp25
ag10
(g14
S'\xc9\x85\xa4=4MdA'
p26
tp27
Rp28
ag10
(g14
S'\xfd\xff\xffs\x00LdA'
p29
tp30
Rp31
ag10
(g14
S'\xc6\xf7S\x97\xe6OdA'
p32
tp33
Rp34
ag10
(g14
S'\xc5\xf5(tJYdA'
p35
tp36
Rp37
ag10
(g14
S'\xd2Mb|#MdA'
p38
tp39
Rp40
ag10
(g14
S'?|\x86\x1d\xa9FdA'
p41
tp42
Rp43
ag10
(g14
S'\x0b-\xb2\r\x92QdA'
p44
tp45
Rp46
ag10
(g14
S'\xb4\x02\xe4\xcafRdA'
p47
tp48
Rp49
ag10
(g14
S'C(\xa3\xf7<5dA'
p50
tp51
Rp52
ag10
(g14
S'\x8b\xfa7V\x9dRdA'
p53
tp54
Rp55
ag10
(g14
S'\xfbF(\xe3\x86IdA'
p56
tp57
Rp58
ag10
(g14
S'(\xce>\xbciMdA'
p59
tp60
Rp61
ag10
(g14
S'AQ\xffB\xf9RdA'
p62
tp63
Rp64
ag10
(g14
S'\x00\xb9\xd7\\;8dA'
p65
tp66
Rp67
ag10
(g14
S'\xf9D\xfd\x9b\xc6LdA'
p68
tp69
Rp70
ag10
(g14
S'\xea\xee\xee\xe6_UdA'
p71
tp72
Rp73
ag10
(g14
S'\xb3\xac\xd5\xcd=JdA'
p74
tp75
Rp76
asS'target'
p77
(lp78
g10
(g14
S'2\x89A`\xe54S@'
p79
tp80
Rp81
ag10
(g14
S'\x9eE\xb6\xf3\xfd`R@'
p82
tp83
Rp84
ag10
(g14
S'\xb2G\xe1z\x14\xa6S@'
p85
tp86
Rp87
ag10
(g14
S'~\xebQ\xb8\x1e\x89R@'
p88
tp89
Rp90
ag10
(g14
S'*\x08\xac\x1cZhS@'
p91
tp92
Rp93
ag10
(g14
S'\x1c\xb0rh\x91\x99Q@'
p94
tp95
Rp96
ag10
(g14
S'(3333ST@'
p97
tp98
Rp99
ag10
(g14
S'\xed\xd2Mb\x10LS@'
p100
tp101
Rp102
ag10
(g14
S'b\xbct\x93\x18<R@'
p103
tp104
Rp105
ag10
(g14
S'\x14\xaeG\xe1z\x84Q@'
p106
tp107
Rp108
ag10
(g14
S'\xbb\xca\xa1E\xb6+R@'
p109
tp110
Rp111
ag10
(g14
S'l\xe5\xd0"\xdb\xe1Q@'
p112
tp113
Rp114
ag10
(g14
S'\x1c\x04V\x0e-\xaeR@'
p115
tp116
Rp117
ag10
(g14
S'\xd7\xa3p=\n\x07S@'
p118
tp119
Rp120
ag10
(g14
S'\x84A`\xe5\xd0BR@'
p121
tp122
Rp123
ag10
(g14
S'\xd8$\x06\x81\x95?R@'
p124
tp125
Rp126
ag10
(g14
S'|?5^\xba\x1dR@'
p127
tp128
Rp129
ag10
(g14
S'J\xb6\xf3\xfd\xd4,R@'
p130
tp131
Rp132
ag10
(g14
S'\xe6\xa5\x9b\xc4 tR@'
p133
tp134
Rp135
ag10
(g14
S'\x9en\x12\x83\xc0bS@'
p136
tp137
Rp138
asssss.