(dp0
S'../Data/sqlite_18.csv'
p1
(dp2
S'../Data/sqlite_36.csv'
p3
(dp4
F0.1
(dp5
S'abs_res'
p6
(dp7
S'bellwether'
p8
(lp9
cnumpy.core.multiarray
scalar
p10
(cnumpy
dtype
p11
(S'f8'
p12
I0
I1
tp13
Rp14
(I3
S'<'
p15
NNNI-1
I-1
I0
tp16
bS'\xd8\xf9~:}xAA'
p17
tp18
Rp19
ag10
(g14
S'p.$\x9d\x87wAA'
p20
tp21
Rp22
ag10
(g14
S'\xe6\xa5\x9bD\xfdwAA'
p23
tp24
Rp25
ag10
(g14
S'\x1f\xdb\xf9\xae\x8fwAA'
p26
tp27
Rp28
ag10
(g14
S'T\x9c}\xf8ewAA'
p29
tp30
Rp31
ag10
(g14
S'\xb9I\x0c\xe2QxAA'
p32
tp33
Rp34
ag10
(g14
S'\x0b\x02+\xe7\xf8wAA'
p35
tp36
Rp37
ag10
(g14
S'\xab\xc6K\x873xAA'
p38
tp39
Rp40
ag10
(g14
S'\xf87B\x99\xf1wAA'
p41
tp42
Rp43
ag10
(g14
S'Lb\x10H*xAA'
p44
tp45
Rp46
ag10
(g14
S'w\xdck\xae\xafwAA'
p47
tp48
Rp49
ag10
(g14
S'\xa3p=\xaaUxAA'
p50
tp51
Rp52
ag10
(g14
S'j\xf6\xe1c\xc3wAA'
p53
tp54
Rp55
ag10
(g14
S'\x16Zd;dxAA'
p56
tp57
Rp58
ag10
(g14
S'i\x12\x83P\x9exAA'
p59
tp60
Rp61
ag10
(g14
S'T9\xb48\x89xAA'
p62
tp63
Rp64
ag10
(g14
S']\xf2\x8b\x157xAA'
p65
tp66
Rp67
ag10
(g14
S'\xfe\xa9\xf12\xb0xAA'
p68
tp69
Rp70
ag10
(g14
S'Z\x0e-BBxAA'
p71
tp72
Rp73
ag10
(g14
S';5^\xfa\x12xAA'
p74
tp75
Rp76
asS'target'
p77
(lp78
g10
(g14
S'\xc1\x9f\x1a/\xdd\x0c_@'
p79
tp80
Rp81
ag10
(g14
S'\xd5\xcc\xcc\xcc\xcc\x1c^@'
p82
tp83
Rp84
ag10
(g14
S'\x94\xed|?5\xceX@'
p85
tp86
Rp87
ag10
(g14
S',\xdb\xf9~j\xd4W@'
p88
tp89
Rp90
ag10
(g14
S' Zd;\xdf?\\@'
p91
tp92
Rp93
ag10
(g14
S'\xd7\xce\xf7S\xe3\x85\\@'
p94
tp95
Rp96
ag10
(g14
S'\xe6O\x8d\x97nVX@'
p97
tp98
Rp99
ag10
(g14
S'F\x0c\x02+\x87\x0e[@'
p100
tp101
Rp102
ag10
(g14
S'k\xe7\xfb\xa9\xf1\x12X@'
p103
tp104
Rp105
ag10
(g14
S'xh\x91\xed|\x0fZ@'
p106
tp107
Rp108
ag10
(g14
S'\xc5\xa1E\xb6\xf35Y@'
p109
tp110
Rp111
ag10
(g14
S'\xa7E\xb6\xf3\xfd\xdcZ@'
p112
tp113
Rp114
ag10
(g14
S'\xfc\xa7\xc6K7\x89[@'
p115
tp116
Rp117
ag10
(g14
S'\x88\x16\xd9\xce\xf73Z@'
p118
tp119
Rp120
ag10
(g14
S'\xe9$\x06\x81\x95\x13[@'
p121
tp122
Rp123
ag10
(g14
S'yh\x91\xed|\xb7Y@'
p124
tp125
Rp126
ag10
(g14
S'\x7f\x93\x18\x04V\x96W@'
p127
tp128
Rp129
ag10
(g14
S'\x96\x99\x99\x99\x99IZ@'
p130
tp131
Rp132
ag10
(g14
S'?5^\xbaIdY@'
p133
tp134
Rp135
ag10
(g14
S'\xd4Mb\x10X\xbdX@'
p136
tp137
Rp138
asssss.