(dp0
S'../Data/sqlite_84.csv'
p1
(dp2
S'../Data/sqlite_97.csv'
p3
(dp4
F0.2
(dp5
S'mmre'
p6
(dp7
S'bellwether'
p8
(lp9
cnumpy.core.multiarray
scalar
p10
(cnumpy
dtype
p11
(S'f8'
p12
I0
I1
tp13
Rp14
(I3
S'<'
p15
NNNI-1
I-1
I0
tp16
bS'\xd1\tn\x16\x0f\x80T@'
p17
tp18
Rp19
ag10
(g14
S'\x9a\xd0\xf3\xa7yxT@'
p20
tp21
Rp22
ag10
(g14
S'd\xc7\x01\xa5={T@'
p23
tp24
Rp25
ag10
(g14
S'xQG\x83\x11|T@'
p26
tp27
Rp28
ag10
(g14
S'\xfeys\x939}T@'
p29
tp30
Rp31
ag10
(g14
S'2\t@G\x10tT@'
p32
tp33
Rp34
ag10
(g14
S'\xf4+*\xbe\xd9rT@'
p35
tp36
Rp37
ag10
(g14
S'[e\xdb\x0e\x0c}T@'
p38
tp39
Rp40
ag10
(g14
S'L\xe9!\x1f\x93|T@'
p41
tp42
Rp43
ag10
(g14
S'\xec^\xcd\r/tT@'
p44
tp45
Rp46
ag10
(g14
S'\xbe8EV\r|T@'
p47
tp48
Rp49
ag10
(g14
S'\xbc\xe0\xb1\x07\xcf{T@'
p50
tp51
Rp52
ag10
(g14
S'\xeaA\xaa\x98o{T@'
p53
tp54
Rp55
ag10
(g14
S'*\x1ab3`xT@'
p56
tp57
Rp58
ag10
(g14
S'\x80\x11\xf0^\xebqT@'
p59
tp60
Rp61
ag10
(g14
S'Z\xd5q\xcb\x9ezT@'
p62
tp63
Rp64
ag10
(g14
S'\x9e\xc7\xa4)\x89xT@'
p65
tp66
Rp67
ag10
(g14
S'\xfc8\xaf9\xc9uT@'
p68
tp69
Rp70
ag10
(g14
S'!u\x95\xfaVzT@'
p71
tp72
Rp73
ag10
(g14
S'>e\xdf`?xT@'
p74
tp75
Rp76
asS'target'
p77
(lp78
g10
(g14
S'v&S\xb3\x1eLT@'
p79
tp80
Rp81
ag10
(g14
S'\xb0\x1fl\xcf{\xf0U@'
p82
tp83
Rp84
ag10
(g14
S'\xe3\xec\xe7eM\xafM@'
p85
tp86
Rp87
ag10
(g14
S'\xec\x0f\xe6\xbe\xf5\x9dU@'
p88
tp89
Rp90
ag10
(g14
S'\x8c?\xe7)M\x9eR@'
p91
tp92
Rp93
ag10
(g14
S'\xdc\xde\xb7\xd2\xc0\xb9R@'
p94
tp95
Rp96
ag10
(g14
S'\x0e\xb1\x8bY\xd3\x07N@'
p97
tp98
Rp99
ag10
(g14
S'4\xcf\x7f\x11J\x8bJ@'
p100
tp101
Rp102
ag10
(g14
S'\xcd\xaa\x9a}\x81,K@'
p103
tp104
Rp105
ag10
(g14
S'Xf\xe9\xe0\xca\xb8Q@'
p106
tp107
Rp108
ag10
(g14
S'\x9e\x07\x15S\xb8GL@'
p109
tp110
Rp111
ag10
(g14
S';\xa2\xccw5%[@'
p112
tp113
Rp114
ag10
(g14
S'\xa8\xa91iq\x1aN@'
p115
tp116
Rp117
ag10
(g14
S'+\x90?\x98\x9c\xd9Z@'
p118
tp119
Rp120
ag10
(g14
S'\xe2\xc5\xf6v\x07-Z@'
p121
tp122
Rp123
ag10
(g14
S'+p\xe3t\x1a\xdaQ@'
p124
tp125
Rp126
ag10
(g14
S'\xc3\xa8\xe4[\xa5\x87I@'
p127
tp128
Rp129
ag10
(g14
S'F\x9bJu\x86ZX@'
p130
tp131
Rp132
ag10
(g14
S'\xb4@U\x17\x96\xc9U@'
p133
tp134
Rp135
ag10
(g14
S'\xb8\x05Bl\xf9\x8bP@'
p136
tp137
Rp138
asssss.