(dp0
S'../Data/sqlite_23.csv'
p1
(dp2
S'../Data/sqlite_73.csv'
p3
(dp4
F0.1
(dp5
S'mmre'
p6
(dp7
S'bellwether'
p8
(lp9
cnumpy.core.multiarray
scalar
p10
(cnumpy
dtype
p11
(S'f8'
p12
I0
I1
tp13
Rp14
(I3
S'<'
p15
NNNI-1
I-1
I0
tp16
bS'Jz\x8a\xa8!4W@'
p17
tp18
Rp19
ag10
(g14
S'\xb4s\x02\xcbT1W@'
p20
tp21
Rp22
ag10
(g14
S'\xdeyr\xfb%1W@'
p23
tp24
Rp25
ag10
(g14
S'\xf1\x84\xc7\xb2\x082W@'
p26
tp27
Rp28
ag10
(g14
S'u\x05\xab\x97.2W@'
p29
tp30
Rp31
ag10
(g14
S'wv\x02\x90B1W@'
p32
tp33
Rp34
ag10
(g14
S'R\xaa\x86A\x042W@'
p35
tp36
Rp37
ag10
(g14
S"g'\x909r3W@"
p38
tp39
Rp40
ag10
(g14
S'~\xa5%;\xfa2W@'
p41
tp42
Rp43
ag10
(g14
S'\xe1\xe6\xab\x80\x173W@'
p44
tp45
Rp46
ag10
(g14
S'Jl\x80\x82R2W@'
p47
tp48
Rp49
ag10
(g14
S'\x85\xcaEp\x172W@'
p50
tp51
Rp52
ag10
(g14
S'\xe1\xeb%\x02\x022W@'
p53
tp54
Rp55
ag10
(g14
S'\xfb&Q\x8cL2W@'
p56
tp57
Rp58
ag10
(g14
S'iM~\xd5\xd81W@'
p59
tp60
Rp61
ag10
(g14
S'\xd2^n9\xac1W@'
p62
tp63
Rp64
ag10
(g14
S'\xca\x07\xa3A\x192W@'
p65
tp66
Rp67
ag10
(g14
S'v\xe2\xd80h3W@'
p68
tp69
Rp70
ag10
(g14
S'\xed\xf3\xc2{h2W@'
p71
tp72
Rp73
ag10
(g14
S'\x9a%\x1e\n`2W@'
p74
tp75
Rp76
asS'target'
p77
(lp78
g10
(g14
S'\x97\xcfH\xba;\xbc*@'
p79
tp80
Rp81
ag10
(g14
S'\xed\x90\x08X\x99N+@'
p82
tp83
Rp84
ag10
(g14
S'\xba\x92\x12\xc9x\x19*@'
p85
tp86
Rp87
ag10
(g14
S'T\x95\x866\xc8\xc1-@'
p88
tp89
Rp90
ag10
(g14
S'\r^\x90\x99\xd7B-@'
p91
tp92
Rp93
ag10
(g14
S'\x10u3g\x04\r+@'
p94
tp95
Rp96
ag10
(g14
S'\xef\xca\xbcQ|\xaf)@'
p97
tp98
Rp99
ag10
(g14
S'\xe4h\x07\x0cwf+@'
p100
tp101
Rp102
ag10
(g14
S'J\xd3\x89\xfc\x01\xd8,@'
p103
tp104
Rp105
ag10
(g14
S'\xc3\xfa\xca\x115\xfa*@'
p106
tp107
Rp108
ag10
(g14
S"'CX\x03\x97a*@"
p109
tp110
Rp111
ag10
(g14
S'\xb5\xeaA*\xf4\x19+@'
p112
tp113
Rp114
ag10
(g14
S'\xf5\xb0r\x1c;R+@'
p115
tp116
Rp117
ag10
(g14
S'\xf9<\xf9\x87\n\xe2)@'
p118
tp119
Rp120
ag10
(g14
S'\x94\xff_9?\xee-@'
p121
tp122
Rp123
ag10
(g14
S'\xa1\xc5\xc9\xa9d\xbd.@'
p124
tp125
Rp126
ag10
(g14
S'"\xdf&\xc8|\xe8+@'
p127
tp128
Rp129
ag10
(g14
S'\xe5\x0e\xd9^B\xd5)@'
p130
tp131
Rp132
ag10
(g14
S'a\x05\xf0\x93 \x030@'
p133
tp134
Rp135
ag10
(g14
S'rk\x04^\xe6\x100@'
p136
tp137
Rp138
asssss.