(dp0
S'../Data/sqlite_28.csv'
p1
(dp2
S'../Data/sqlite_63.csv'
p3
(dp4
F0.1
(dp5
S'mmre'
p6
(dp7
S'bellwether'
p8
(lp9
cnumpy.core.multiarray
scalar
p10
(cnumpy
dtype
p11
(S'f8'
p12
I0
I1
tp13
Rp14
(I3
S'<'
p15
NNNI-1
I-1
I0
tp16
bS"yz\x17.M'R@"
p17
tp18
Rp19
ag10
(g14
S'\x01\xcc\x17\xbcX%R@'
p20
tp21
Rp22
ag10
(g14
S'\xa5%\xde\x1d%*R@'
p23
tp24
Rp25
ag10
(g14
S'm\x84\xdf\x06i(R@'
p26
tp27
Rp28
ag10
(g14
S'\xa5\x00\xb0\xf7\x87%R@'
p29
tp30
Rp31
ag10
(g14
S'\xfdO\x1cT\xb1)R@'
p32
tp33
Rp34
ag10
(g14
S'z;\xa0\x81\x03&R@'
p35
tp36
Rp37
ag10
(g14
S'\r\x93\x01\n$+R@'
p38
tp39
Rp40
ag10
(g14
S'\nt\xe5\xa9\x9a)R@'
p41
tp42
Rp43
ag10
(g14
S'*l\xedS\xf0)R@'
p44
tp45
Rp46
ag10
(g14
S'\xa4\xfd`;.)R@'
p47
tp48
Rp49
ag10
(g14
S"\x11\xed\x9e\x1c\xd2'R@"
p50
tp51
Rp52
ag10
(g14
S'_>\x08hp*R@'
p53
tp54
Rp55
ag10
(g14
S'\xc9X\x10 ]*R@'
p56
tp57
Rp58
ag10
(g14
S'U\xd4c8\xe6&R@'
p59
tp60
Rp61
ag10
(g14
S'\x82g\xeb\xb3=(R@'
p62
tp63
Rp64
ag10
(g14
S'\x12\xb8<\xe9\x87*R@'
p65
tp66
Rp67
ag10
(g14
S'\xbb\x9d\xc9hn+R@'
p68
tp69
Rp70
ag10
(g14
S'\x83r\x02+S+R@'
p71
tp72
Rp73
ag10
(g14
S'"]\x05mZ(R@'
p74
tp75
Rp76
asS'target'
p77
(lp78
g10
(g14
S'\x08\xc6?\xf9\xd8\x83"@'
p79
tp80
Rp81
ag10
(g14
S'\xae:T\x87\x02O#@'
p82
tp83
Rp84
ag10
(g14
S'[\xae\xce\x80\x01)%@'
p85
tp86
Rp87
ag10
(g14
S'\xe3>\x1cl\xe3`"@'
p88
tp89
Rp90
ag10
(g14
S'[m\xe8\xd1DD%@'
p91
tp92
Rp93
ag10
(g14
S'\x84\x9d\xb7,\x88\xe5"@'
p94
tp95
Rp96
ag10
(g14
S'\x0e(\xb3i\xe2P!@'
p97
tp98
Rp99
ag10
(g14
S'4q\x81\x00\xf7{"@'
p100
tp101
Rp102
ag10
(g14
S'\t\x13+\xf2\xd1x#@'
p103
tp104
Rp105
ag10
(g14
S'\xb4\xa7\xfe\x00\xb7\x96"@'
p106
tp107
Rp108
ag10
(g14
S'\xe7\xd3<\x037A#@'
p109
tp110
Rp111
ag10
(g14
S'#\xb2\x07H\xe3n"@'
p112
tp113
Rp114
ag10
(g14
S'@\\\x1a\x1a\xbe\x01#@'
p115
tp116
Rp117
ag10
(g14
S'C\xc72Sj\xe4!@'
p118
tp119
Rp120
ag10
(g14
S'\xfe\t\x1a\x03\x87c"@'
p121
tp122
Rp123
ag10
(g14
S"\x0e\xaf['\x04c#@"
p124
tp125
Rp126
ag10
(g14
S'\xa6nVi\x10\xe0"@'
p127
tp128
Rp129
ag10
(g14
S'\xc3\xf2<~z\xae!@'
p130
tp131
Rp132
ag10
(g14
S'0\x84ee\x0f\xb9!@'
p133
tp134
Rp135
ag10
(g14
S'\x1a\xf5\x9a\xd0\xb9\xfc!@'
p136
tp137
Rp138
asssss.