(dp0
S'../Data/sqlite_71.csv'
p1
(dp2
S'../Data/sqlite_48.csv'
p3
(dp4
F0.05
(dp5
S'abs_res'
p6
(dp7
S'bellwether'
p8
(lp9
cnumpy.core.multiarray
scalar
p10
(cnumpy
dtype
p11
(S'f8'
p12
I0
I1
tp13
Rp14
(I3
S'<'
p15
NNNI-1
I-1
I0
tp16
bS'o\x03\x9dP-<pA'
p17
tp18
Rp19
ag10
(g14
S'\x14\xaeG\x93";pA'
p20
tp21
Rp22
ag10
(g14
S']d;\xe9\xb0;pA'
p23
tp24
Rp25
ag10
(g14
S'y\xbe\x9f\xa4+>pA'
p26
tp27
Rp28
ag10
(g14
S'J7\x89\xd1\x82<pA'
p29
tp30
Rp31
ag10
(g14
S'F\xe1zpu?pA'
p32
tp33
Rp34
ag10
(g14
S'Y9\xb4\xc0}>pA'
p35
tp36
Rp37
ag10
(g14
S'\xa6\xc6K3};pA'
p38
tp39
Rp40
ag10
(g14
S'\x98n\x12\x0b\xb1>pA'
p41
tp42
Rp43
ag10
(g14
S'\x9cn\x12\r\x1d=pA'
p44
tp45
Rp46
ag10
(g14
S'\x92\x97n^\xbd=pA'
p47
tp48
Rp49
ag10
(g14
S'\xbd\x904\x1b\xd7=pA'
p50
tp51
Rp52
ag10
(g14
S'\xbe\x9f\x1a\x81\x82>pA'
p53
tp54
Rp55
ag10
(g14
S'Kb\x10\x1e\xed<pA'
p56
tp57
Rp58
ag10
(g14
S'H\xe1z\x14j@pA'
p59
tp60
Rp61
ag10
(g14
S'[\xabc& @pA'
p62
tp63
Rp64
ag10
(g14
S'\xaf\xc6K\x19\xed=pA'
p65
tp66
Rp67
ag10
(g14
S'\xde\xce\xf7C\xfe>pA'
p68
tp69
Rp70
ag10
(g14
S'\x04\x81\x95\x15\xc7;pA'
p71
tp72
Rp73
ag10
(g14
S'\x07V\x0e;\x1a=pA'
p74
tp75
Rp76
asS'target'
p77
(lp78
g10
(g14
S'|?5^\xba\x83t@'
p79
tp80
Rp81
ag10
(g14
S'A\xb6\xf3\xfd\xd4:t@'
p82
tp83
Rp84
ag10
(g14
S'\xa8\x1a/\xdd$\xaat@'
p85
tp86
Rp87
ag10
(g14
S'u\x14\xaeG\xe1\xcct@'
p88
tp89
Rp90
ag10
(g14
S'O\xe1z\x14\xae\x87v@'
p91
tp92
Rp93
ag10
(g14
S'(\xdb\xf9~j\x02y@'
p94
tp95
Rp96
ag10
(g14
S'\x83A`\xe5\xd0\x18w@'
p97
tp98
Rp99
ag10
(g14
S'\x8dC\x8bl\xe7\xa7{@'
p100
tp101
Rp102
ag10
(g14
S'\xc2 \xb0rh\x0ft@'
p103
tp104
Rp105
ag10
(g14
S'\xfb|?5^lw@'
p106
tp107
Rp108
ag10
(g14
S'\xbfK7\x89A~v@'
p109
tp110
Rp111
ag10
(g14
S'\xe0\xa5\x9b\xc4 \xbat@'
p112
tp113
Rp114
ag10
(g14
S'\xba\xc8v\xbe\x9f\xb8s@'
p115
tp116
Rp117
ag10
(g14
S'\xfbS\xe3\xa5\x9b\xa4w@'
p118
tp119
Rp120
ag10
(g14
S'$\x06\x81\x95C\x1dt@'
p121
tp122
Rp123
ag10
(g14
S'B5^\xbaI\x08t@'
p124
tp125
Rp126
ag10
(g14
S'{\x14\xaeG\xe1&u@'
p127
tp128
Rp129
ag10
(g14
S']d;\xdfO\xa9v@'
p130
tp131
Rp132
ag10
(g14
S'\xf1\xfd\xd4x\xe9\xe4v@'
p133
tp134
Rp135
ag10
(g14
S'\xa0\xc4 \xb0r\xfav@'
p136
tp137
Rp138
asssss.