(dp0
S'../Data/sqlite_46.csv'
p1
(dp2
S'../Data/sqlite_83.csv'
p3
(dp4
F0.35
(dp5
S'abs_res'
p6
(dp7
S'bellwether'
p8
(lp9
cnumpy.core.multiarray
scalar
p10
(cnumpy
dtype
p11
(S'f8'
p12
I0
I1
tp13
Rp14
(I3
S'<'
p15
NNNI-1
I-1
I0
tp16
bS'\xfeS\xe3\xa5\xcc|8A'
p17
tp18
Rp19
ag10
(g14
S'\xff\xd4x\xc9\xc7{8A'
p20
tp21
Rp22
ag10
(g14
S'\x15\xaeG\x81E|8A'
p23
tp24
Rp25
ag10
(g14
S'\xf9~j\xfc\x1e}8A'
p26
tp27
Rp28
ag10
(g14
S'01\x08L\x90}8A'
p29
tp30
Rp31
ag10
(g14
S'j=\n\x17r|8A'
p32
tp33
Rp34
ag10
(g14
S'\xa1E\xb6\xb3\x96|8A'
p35
tp36
Rp37
ag10
(g14
S'\xa3p=*\xb9{8A'
p38
tp39
Rp40
ag10
(g14
S'\x1f\xb0rh\x96}8A'
p41
tp42
Rp43
ag10
(g14
S'\xcb \xb0\xd2X}8A'
p44
tp45
Rp46
ag10
(g14
S'B`\xe5\xf0c{8A'
p47
tp48
Rp49
ag10
(g14
S'Ob\x10\xb8&|8A'
p50
tp51
Rp52
ag10
(g14
S'\xac\xc8v\x1e`z8A'
p53
tp54
Rp55
ag10
(g14
S'\xff\xa9\xf1\x92/}8A'
p56
tp57
Rp58
ag10
(g14
S'\x94n\x12\xa3\xf0|8A'
p59
tp60
Rp61
ag10
(g14
S"P7\x89\x01'{8A"
p62
tp63
Rp64
ag10
(g14
S')\x85\xeb\x91\x91{8A'
p65
tp66
Rp67
ag10
(g14
S'~j\xbc\xd4\x83|8A'
p68
tp69
Rp70
ag10
(g14
S'B`\xe5\xf0&|8A'
p71
tp72
Rp73
ag10
(g14
S'\xd2v\xbe?\xeb|8A'
p74
tp75
Rp76
asS'target'
p77
(lp78
g10
(g14
S'8\x08\xac\x1cZ\xaev@'
p79
tp80
Rp81
ag10
(g14
S'\x8fl\xe7\xfb\xa9H~@'
p82
tp83
Rp84
ag10
(g14
S'\\9\xb4\xc8v|x@'
p85
tp86
Rp87
ag10
(g14
S'\xf6S\xe3\xa5\x9bl|@'
p88
tp89
Rp90
ag10
(g14
S'0\\\x8f\xc2\xf5$w@'
p91
tp92
Rp93
ag10
(g14
S'\xabp=\n\xd7`\x81@'
p94
tp95
Rp96
ag10
(g14
S']\xe3\xa5\x9b\xc4\xd4|@'
p97
tp98
Rp99
ag10
(g14
S'\x82\xebQ\xb8\x1e\xaby@'
p100
tp101
Rp102
ag10
(g14
S'\x02X9\xb4\xc8\xc0t@'
p103
tp104
Rp105
ag10
(g14
S'\xe2\xa3p=\nUz@'
p106
tp107
Rp108
ag10
(g14
S'\xfe\xfd\xd4x\xe9gz@'
p109
tp110
Rp111
ag10
(g14
S'\xc6 \xb0rho\x7f@'
p112
tp113
Rp114
ag10
(g14
S'\xb2\x1cZd;_z@'
p115
tp116
Rp117
ag10
(g14
S'\n\xac\x1cZd\xf3w@'
p118
tp119
Rp120
ag10
(g14
S'\xefQ\xb8\x1e\x85I~@'
p121
tp122
Rp123
ag10
(g14
S'u\x12\x83\xc0\xca\x14|@'
p124
tp125
Rp126
ag10
(g14
S'F\xb6\xf3\xfd\xd4\xc0x@'
p127
tp128
Rp129
ag10
(g14
S'\xd1\xf7S\xe3\xa5uv@'
p130
tp131
Rp132
ag10
(g14
S'9\x06\x81\x95C\x19v@'
p133
tp134
Rp135
ag10
(g14
S'\x8cA`\xe5\xd0\x1dv@'
p136
tp137
Rp138
asssss.