(dp0
S'../Data/sqlite_93.csv'
p1
(dp2
S'../Data/sqlite_76.csv'
p3
(dp4
F0.05
(dp5
S'mmre'
p6
(dp7
S'bellwether'
p8
(lp9
cnumpy.core.multiarray
scalar
p10
(cnumpy
dtype
p11
(S'f8'
p12
I0
I1
tp13
Rp14
(I3
S'<'
p15
NNNI-1
I-1
I0
tp16
bS'B\xdf]\xf0(UW@'
p17
tp18
Rp19
ag10
(g14
S'Q\xf2k\xaf:TW@'
p20
tp21
Rp22
ag10
(g14
S'\x04\xc4p>fUW@'
p23
tp24
Rp25
ag10
(g14
S'\x8d\xb2\x99\xc2\xb0SW@'
p26
tp27
Rp28
ag10
(g14
S'\x03R\x10y%SW@'
p29
tp30
Rp31
ag10
(g14
S'\xe1\x00\xf8\x0e\xb3VW@'
p32
tp33
Rp34
ag10
(g14
S'\xe2\x9f\x95\x91\xc8UW@'
p35
tp36
Rp37
ag10
(g14
S'9g8\xa2\x94NW@'
p38
tp39
Rp40
ag10
(g14
S'\xcd\xe8\x1a\x94\x1fWW@'
p41
tp42
Rp43
ag10
(g14
S'\xd6\xc5uF@MW@'
p44
tp45
Rp46
ag10
(g14
S'kU\xffN\x00UW@'
p47
tp48
Rp49
ag10
(g14
S'\xf7\xac\x9b\xa6\xb7OW@'
p50
tp51
Rp52
ag10
(g14
S'\xe3\t\x90d\xbbMW@'
p53
tp54
Rp55
ag10
(g14
S'\x81\xf4\x040\xdfOW@'
p56
tp57
Rp58
ag10
(g14
S'Z\n\xa1X$[W@'
p59
tp60
Rp61
ag10
(g14
S'\xda\xfa\xcfkp[W@'
p62
tp63
Rp64
ag10
(g14
S'\xd4\xa2\\\xbdcSW@'
p65
tp66
Rp67
ag10
(g14
S'5q\xfc\\[NW@'
p68
tp69
Rp70
ag10
(g14
S'`\xb4\xac]\xcaTW@'
p71
tp72
Rp73
ag10
(g14
S'|ib\xd1`VW@'
p74
tp75
Rp76
asS'target'
p77
(lp78
g10
(g14
S'H\x85\xcd\r\x9e{0@'
p79
tp80
Rp81
ag10
(g14
S'k\xd0\xc1\\<e2@'
p82
tp83
Rp84
ag10
(g14
S'\x8c\xa4W\xba\xbd\xc31@'
p85
tp86
Rp87
ag10
(g14
S"\xaa\xde\x10'\x81S0@"
p88
tp89
Rp90
ag10
(g14
S'\x1eQ(c\xa3k2@'
p91
tp92
Rp93
ag10
(g14
S'\x9dF\xb5\xb5;\x7f0@'
p94
tp95
Rp96
ag10
(g14
S'\xf6\xb6\xb7\xadH\x000@'
p97
tp98
Rp99
ag10
(g14
S'0F\xe7\xaf\xa9\xc71@'
p100
tp101
Rp102
ag10
(g14
S'\x82\xf3\x83\xa3<\x803@'
p103
tp104
Rp105
ag10
(g14
S'|\xf1\x95\x92\xf3/0@'
p106
tp107
Rp108
ag10
(g14
S'\x90\xdd\xe4\xb6=\xd50@'
p109
tp110
Rp111
ag10
(g14
S'\x9aM\xa4d\xba\x9e0@'
p112
tp113
Rp114
ag10
(g14
S'\x12\xac\xfa\xe7\x95&0@'
p115
tp116
Rp117
ag10
(g14
S'\x16?\x8e\x19\x9e8/@'
p118
tp119
Rp120
ag10
(g14
S'Q\xb2\xc1\x90yF1@'
p121
tp122
Rp123
ag10
(g14
S'`\xddD\x10G\xed3@'
p124
tp125
Rp126
ag10
(g14
S'Q7\xd3\x7f\xc1\x030@'
p127
tp128
Rp129
ag10
(g14
S'_t\xbc\x8c|i3@'
p130
tp131
Rp132
ag10
(g14
S'd6\xe9\xad\xfa\x0e4@'
p133
tp134
Rp135
ag10
(g14
S'\x05_{aJ\xa40@'
p136
tp137
Rp138
asssss.