(dp0
S'../Data/sqlite_39.csv'
p1
(dp2
S'../Data/sqlite_63.csv'
p3
(dp4
F0.35
(dp5
S'mmre'
p6
(dp7
S'bellwether'
p8
(lp9
cnumpy.core.multiarray
scalar
p10
(cnumpy
dtype
p11
(S'f8'
p12
I0
I1
tp13
Rp14
(I3
S'<'
p15
NNNI-1
I-1
I0
tp16
bS's\xc9b\xd9\xdc\x86z@'
p17
tp18
Rp19
ag10
(g14
S'\x0f\xa75\xce\x7f{z@'
p20
tp21
Rp22
ag10
(g14
S'ym\x80m9xz@'
p23
tp24
Rp25
ag10
(g14
S'\x0b\xd96\xbf\x86\x90z@'
p26
tp27
Rp28
ag10
(g14
S'r\x1f|8\xab\x83z@'
p29
tp30
Rp31
ag10
(g14
S'\xcf!\x13sNtz@'
p32
tp33
Rp34
ag10
(g14
S'\xddD\xb58\xcdsz@'
p35
tp36
Rp37
ag10
(g14
S'T\x05\xe4z\xf6\x9az@'
p38
tp39
Rp40
ag10
(g14
S'\xcakp\xf6\xaa\x8cz@'
p41
tp42
Rp43
ag10
(g14
S' \x9b\x8b\\q\x80z@'
p44
tp45
Rp46
ag10
(g14
S'\xcd\xa9<>\x00\x96z@'
p47
tp48
Rp49
ag10
(g14
S'u?\x88\xbe\x9c\x97z@'
p50
tp51
Rp52
ag10
(g14
S'\x07h\xf4\xe3$rz@'
p53
tp54
Rp55
ag10
(g14
S'4j\xa0YWxz@'
p56
tp57
Rp58
ag10
(g14
S'\xf3\xe3N\xa0\xa3\x81z@'
p59
tp60
Rp61
ag10
(g14
S'\xd8\xfapGH\x94z@'
p62
tp63
Rp64
ag10
(g14
S'\x0f\x92,<Qwz@'
p65
tp66
Rp67
ag10
(g14
S'\xaf\xc7\xe6\xc6\x14\x97z@'
p68
tp69
Rp70
ag10
(g14
S'nO\xb0\x1aE{z@'
p71
tp72
Rp73
ag10
(g14
S'S\xa7\x80\x1c.\x8bz@'
p74
tp75
Rp76
asS'target'
p77
(lp78
g10
(g14
S'\xf0\x17@X\xde\xcd!@'
p79
tp80
Rp81
ag10
(g14
S'\xb1\x11\x04\xb9&l"@'
p82
tp83
Rp84
ag10
(g14
S'+B\xe1\xfe[E"@'
p85
tp86
Rp87
ag10
(g14
S'\x15hFq\xbe\x82#@'
p88
tp89
Rp90
ag10
(g14
S'\xb3JM\x96\x9a\x0e"@'
p91
tp92
Rp93
ag10
(g14
S'\x90D\xb9)?\xd2"@'
p94
tp95
Rp96
ag10
(g14
S'\xfeS>]\t\xcc"@'
p97
tp98
Rp99
ag10
(g14
S'\x02s\xa7oNJ$@'
p100
tp101
Rp102
ag10
(g14
S'\xf5=\t\x1a\xe2\xd3!@'
p103
tp104
Rp105
ag10
(g14
S'F\x03\xb8\xd1\xda\xba!@'
p106
tp107
Rp108
ag10
(g14
S'\x9eW\x883s\xcf!@'
p109
tp110
Rp111
ag10
(g14
S'#\xb7w\x06.\xe2#@'
p112
tp113
Rp114
ag10
(g14
S'\xd0\xbd\xc8:\x15t"@'
p115
tp116
Rp117
ag10
(g14
S'\xb3\x16IO6\x0e"@'
p118
tp119
Rp120
ag10
(g14
S'\x15&\xbaQ$D!@'
p121
tp122
Rp123
ag10
(g14
S'rK\xef(\xe8B!@'
p124
tp125
Rp126
ag10
(g14
S'`t>:\x93t"@'
p127
tp128
Rp129
ag10
(g14
S'\xad\x9f,:\x9d\x11$@'
p130
tp131
Rp132
ag10
(g14
S'\xef\xe1\xd1)\xc2\xac"@'
p133
tp134
Rp135
ag10
(g14
S'!\rA\x10\x9eY"@'
p136
tp137
Rp138
asssss.