(dp0
S'../Data/sqlite_8.csv'
p1
(dp2
S'../Data/sqlite_59.csv'
p3
(dp4
F0.3
(dp5
S'mmre'
p6
(dp7
S'bellwether'
p8
(lp9
cnumpy.core.multiarray
scalar
p10
(cnumpy
dtype
p11
(S'f8'
p12
I0
I1
tp13
Rp14
(I3
S'<'
p15
NNNI-1
I-1
I0
tp16
bS'\x9a-\x99L ;T@'
p17
tp18
Rp19
ag10
(g14
S'\xd2\xa3\\\x91(8T@'
p20
tp21
Rp22
ag10
(g14
S'\xbb\xb1\x01\xa7\xf96T@'
p23
tp24
Rp25
ag10
(g14
S'\x9c\xc8\xc8\xf4\r<T@'
p26
tp27
Rp28
ag10
(g14
S'\x9a\xba\xca\xa8c9T@'
p29
tp30
Rp31
ag10
(g14
S'*\xb0\xcba\xb0@T@'
p32
tp33
Rp34
ag10
(g14
S'\xf7\x002$\x9f>T@'
p35
tp36
Rp37
ag10
(g14
S'\r\x0e H#;T@'
p38
tp39
Rp40
ag10
(g14
S'Ur\xaa<\xd29T@'
p41
tp42
Rp43
ag10
(g14
S'\xf9A\xbc60;T@'
p44
tp45
Rp46
ag10
(g14
S'\xb2C\xc7\x8fr:T@'
p47
tp48
Rp49
ag10
(g14
S'\x0e\x8e\x85\xd6\xfd7T@'
p50
tp51
Rp52
ag10
(g14
S'Y5P\xeb/8T@'
p53
tp54
Rp55
ag10
(g14
S';\xcd\x83\x95\xdb7T@'
p56
tp57
Rp58
ag10
(g14
S'\xa3Z7#\x1e;T@'
p59
tp60
Rp61
ag10
(g14
S'9\xfa\xa0L\xdc?T@'
p62
tp63
Rp64
ag10
(g14
S'9\xec7Y\x92=T@'
p65
tp66
Rp67
ag10
(g14
S'\x8dV.7h6T@'
p68
tp69
Rp70
ag10
(g14
S'\x8b\x8f\x1e\r`8T@'
p71
tp72
Rp73
ag10
(g14
S'\x0b%\x97\xab\xe08T@'
p74
tp75
Rp76
asS'target'
p77
(lp78
g10
(g14
S'HQ\xec\x96\xd8G&@'
p79
tp80
Rp81
ag10
(g14
S'\x86l\xc7\xcb\xce\xb5&@'
p82
tp83
Rp84
ag10
(g14
S'\xd4\x13\xcc\x90\xd2\xe9&@'
p85
tp86
Rp87
ag10
(g14
S'\xa9\xff\x10\xbd0B&@'
p88
tp89
Rp90
ag10
(g14
S'\x8b"+\xed\x1do&@'
p91
tp92
Rp93
ag10
(g14
S'6+\x1bu~A$@'
p94
tp95
Rp96
ag10
(g14
S'`\xd5\x1b\xd3WS&@'
p97
tp98
Rp99
ag10
(g14
S'\xc7=\xb3\\\x8a&$@'
p100
tp101
Rp102
ag10
(g14
S'R\xe3\xbe\xe0\xecm(@'
p103
tp104
Rp105
ag10
(g14
S'\\<*\x8eU\xb8&@'
p106
tp107
Rp108
ag10
(g14
S'\x83I\xbe\xb6\xe0\x8d&@'
p109
tp110
Rp111
ag10
(g14
S"D\x9a\xdd^r\xe4'@"
p112
tp113
Rp114
ag10
(g14
S'\xf5\x1f^\xe87y%@'
p115
tp116
Rp117
ag10
(g14
S'\x94hrF\xf9\x05(@'
p118
tp119
Rp120
ag10
(g14
S'\x99\xcf\xe2\x92\xfeV$@'
p121
tp122
Rp123
ag10
(g14
S'?\xa7\xdb\x0f\x16z%@'
p124
tp125
Rp126
ag10
(g14
S'\x10\xa2\xe8I1\xa5#@'
p127
tp128
Rp129
ag10
(g14
S"\xd1\xe5\xae\xbd\x10$'@"
p130
tp131
Rp132
ag10
(g14
S'o\xf6\x13UO\xae&@'
p133
tp134
Rp135
ag10
(g14
S'\x9c2\x9b\xb3+C&@'
p136
tp137
Rp138
asssss.