(dp0
S'../Data/sqlite_20.csv'
p1
(dp2
S'../Data/sqlite_77.csv'
p3
(dp4
F0.2
(dp5
S'mmre'
p6
(dp7
S'bellwether'
p8
(lp9
cnumpy.core.multiarray
scalar
p10
(cnumpy
dtype
p11
(S'f8'
p12
I0
I1
tp13
Rp14
(I3
S'<'
p15
NNNI-1
I-1
I0
tp16
bS'P\x19A\xc0\xfeBJ@'
p17
tp18
Rp19
ag10
(g14
S'\xf9AT\xde\xa0\x80J@'
p20
tp21
Rp22
ag10
(g14
S'"_\x8d\x00\xc1xJ@'
p23
tp24
Rp25
ag10
(g14
S'\x99\xda9e<gJ@'
p26
tp27
Rp28
ag10
(g14
S'\xaf\x85mcE^J@'
p29
tp30
Rp31
ag10
(g14
S'\xbc\xc5s\x89\xb4mJ@'
p32
tp33
Rp34
ag10
(g14
S'\x94\x06\x85\x8f\xd4TJ@'
p35
tp36
Rp37
ag10
(g14
S'\xd9\x810(~iJ@'
p38
tp39
Rp40
ag10
(g14
S'\x1fX\xb5hX\x8aJ@'
p41
tp42
Rp43
ag10
(g14
S'AZ\xf6P+jJ@'
p44
tp45
Rp46
ag10
(g14
S'\xf2tt>\x9aqJ@'
p47
tp48
Rp49
ag10
(g14
S'`\xdf\xf8*\xfavJ@'
p50
tp51
Rp52
ag10
(g14
S'\xc5\xb5\xb6:\xa8LJ@'
p53
tp54
Rp55
ag10
(g14
S'P\x9evb\xa8mJ@'
p56
tp57
Rp58
ag10
(g14
S'\x10I\x07F\xe1]J@'
p59
tp60
Rp61
ag10
(g14
S'\x81\x9b\x05\x88\xceeJ@'
p62
tp63
Rp64
ag10
(g14
S'\xb0iN\xb3xZJ@'
p65
tp66
Rp67
ag10
(g14
S"\x17\x0cL\xd0'rJ@"
p68
tp69
Rp70
ag10
(g14
S'\xb0n{T\xf3gJ@'
p71
tp72
Rp73
ag10
(g14
S'G\x85,}\x83`J@'
p74
tp75
Rp76
asS'target'
p77
(lp78
g10
(g14
S'\n2\x9b\xf9Q\xac6@'
p79
tp80
Rp81
ag10
(g14
S'\xf1\x89\xac\x14=(5@'
p82
tp83
Rp84
ag10
(g14
S'\xd3\xe3G\x16\xc5\xae4@'
p85
tp86
Rp87
ag10
(g14
S'7\x8c\x8e\x9e\xb9\xc06@'
p88
tp89
Rp90
ag10
(g14
S'P8\xe2\x1a\t-6@'
p91
tp92
Rp93
ag10
(g14
S'\xbd)GE\xc0\x0b5@'
p94
tp95
Rp96
ag10
(g14
S'z\xa8\\\xd4 \xf26@'
p97
tp98
Rp99
ag10
(g14
S'\xdcH2\xf1\x0f\xea4@'
p100
tp101
Rp102
ag10
(g14
S'\x10\x8ec\xc0\xb094@'
p103
tp104
Rp105
ag10
(g14
S'\x07\xcb`\xd8\xd9\xff3@'
p106
tp107
Rp108
ag10
(g14
S'\x0e\xb6\r\xd8\x15y6@'
p109
tp110
Rp111
ag10
(g14
S'"\xf1\xe6T\xce\xd45@'
p112
tp113
Rp114
ag10
(g14
S'<q\xf2?\x15\x946@'
p115
tp116
Rp117
ag10
(g14
S'\xddH\xea\xfd"\x037@'
p118
tp119
Rp120
ag10
(g14
S'\xdc\xcfer]E6@'
p121
tp122
Rp123
ag10
(g14
S'Z\xb3td\xc156@'
p124
tp125
Rp126
ag10
(g14
S'\xea\xbb\xb8\x82\xb5\x1c7@'
p127
tp128
Rp129
ag10
(g14
S'.\x18\x06P\x92m5@'
p130
tp131
Rp132
ag10
(g14
S'R\xb8:\xf3\x95\x846@'
p133
tp134
Rp135
ag10
(g14
S'\xd2\x86\xad\x8d\xcf\x016@'
p136
tp137
Rp138
asssss.