(dp0
S'../Data/sqlite_51.csv'
p1
(dp2
S'../Data/sqlite_59.csv'
p3
(dp4
F0.15
(dp5
S'mmre'
p6
(dp7
S'bellwether'
p8
(lp9
cnumpy.core.multiarray
scalar
p10
(cnumpy
dtype
p11
(S'f8'
p12
I0
I1
tp13
Rp14
(I3
S'<'
p15
NNNI-1
I-1
I0
tp16
bS'\xdc\x9c(\xc4U%W@'
p17
tp18
Rp19
ag10
(g14
S'\xaaU\xfc\x88B$W@'
p20
tp21
Rp22
ag10
(g14
S'{R\xe3\x9a\x8c%W@'
p23
tp24
Rp25
ag10
(g14
S's4Jp\xac$W@'
p26
tp27
Rp28
ag10
(g14
S'\x18a"\x891&W@'
p29
tp30
Rp31
ag10
(g14
S'\xe5\xb4;\xba\xc6$W@'
p32
tp33
Rp34
ag10
(g14
S'\xaa=\xc9\x04\xe2%W@'
p35
tp36
Rp37
ag10
(g14
S'\xff\x9d\x11\xa1\xf2%W@'
p38
tp39
Rp40
ag10
(g14
S'\xf7\xdaf\x08d%W@'
p41
tp42
Rp43
ag10
(g14
S'KT\x91m\xf8#W@'
p44
tp45
Rp46
ag10
(g14
S'D\x10\x04?\xbc%W@'
p47
tp48
Rp49
ag10
(g14
S'\xfbm\x02\x85\xaf$W@'
p50
tp51
Rp52
ag10
(g14
S'S\x04\xaa\x04\xef$W@'
p53
tp54
Rp55
ag10
(g14
S'\xb8\x1a\x8f=v$W@'
p56
tp57
Rp58
ag10
(g14
S'S\xb1\x82\x028&W@'
p59
tp60
Rp61
ag10
(g14
S'N3\xe3\xa6O%W@'
p62
tp63
Rp64
ag10
(g14
S'~jL:\x00%W@'
p65
tp66
Rp67
ag10
(g14
S'\x96WZD\x16&W@'
p68
tp69
Rp70
ag10
(g14
S'\x1aM|\xb6\xd9$W@'
p71
tp72
Rp73
ag10
(g14
S'uK\\"\x84%W@'
p74
tp75
Rp76
asS'target'
p77
(lp78
g10
(g14
S'\x00U>"\xc1~&@'
p79
tp80
Rp81
ag10
(g14
S'\x90\x03%\x97r\t(@'
p82
tp83
Rp84
ag10
(g14
S'I\xcb\xf2Y\xf7\xe7%@'
p85
tp86
Rp87
ag10
(g14
S'~ff\xa2-\xd0(@'
p88
tp89
Rp90
ag10
(g14
S'N\xcf\xbbp\xe04$@'
p91
tp92
Rp93
ag10
(g14
S'\x80\xe3\xefs[n&@'
p94
tp95
Rp96
ag10
(g14
S'\xbd>%8\xda\xde&@'
p97
tp98
Rp99
ag10
(g14
S'\x81\x93\x8bR\x1b\x95$@'
p100
tp101
Rp102
ag10
(g14
S'\xf1]\xda4\xf75)@'
p103
tp104
Rp105
ag10
(g14
S'G\xd8_\x0b\xa2m(@'
p106
tp107
Rp108
ag10
(g14
S'\xa2Q\xd3\xb65>%@'
p109
tp110
Rp111
ag10
(g14
S'\x04\xa0\xcc\x82\xaa\xea$@'
p112
tp113
Rp114
ag10
(g14
S'\x00\x9fn\x10\\b&@'
p115
tp116
Rp117
ag10
(g14
S'RG\xdd3\x02,)@'
p118
tp119
Rp120
ag10
(g14
S'$\xcd\x85U&A%@'
p121
tp122
Rp123
ag10
(g14
S'\xe5\xc1\xef\xc5\xe3\x9a$@'
p124
tp125
Rp126
ag10
(g14
S"\xb0+\xb6\xfc5\x9c'@"
p127
tp128
Rp129
ag10
(g14
S'\xf1?\xf5\xc1\x1e\xbc$@'
p130
tp131
Rp132
ag10
(g14
S"!\x94F1<\x0e'@"
p133
tp134
Rp135
ag10
(g14
S"\xd5\xcbSD\xdc\x13'@"
p136
tp137
Rp138
asssss.