(dp0
S'../Data/sqlite_43.csv'
p1
(dp2
S'../Data/sqlite_49.csv'
p3
(dp4
F0.3
(dp5
S'abs_res'
p6
(dp7
S'bellwether'
p8
(lp9
cnumpy.core.multiarray
scalar
p10
(cnumpy
dtype
p11
(S'f8'
p12
I0
I1
tp13
Rp14
(I3
S'<'
p15
NNNI-1
I-1
I0
tp16
bS'\xd1"\xdby"r:A'
p17
tp18
Rp19
ag10
(g14
S't\xe9&\x91pr:A'
p20
tp21
Rp22
ag10
(g14
S'\xcc\xcc\xcc\xac\xcdr:A'
p23
tp24
Rp25
ag10
(g14
S'W\xd6\xea\x18\x89t:A'
p26
tp27
Rp28
ag10
(g14
S'\xa4\rt\x1aAs:A'
p29
tp30
Rp31
ag10
(g14
S'\x19\xf5o\xa4|t:A'
p32
tp33
Rp34
ag10
(g14
S'\x85\xebQ\xb8\x06r:A'
p35
tp36
Rp37
ag10
(g14
S' M\xa9\x98Ct:A'
p38
tp39
Rp40
ag10
(g14
S'\x0et\xda\xe0\xf6q:A'
p41
tp42
Rp43
ag10
(g14
S'\xb1\x1cZdPr:A'
p44
tp45
Rp46
ag10
(g14
S'\xeb\x19v\xa5?s:A'
p47
tp48
Rp49
ag10
(g14
S'Z\x01r\x8fEr:A'
p50
tp51
Rp52
ag10
(g14
S'\xd8$\x06\x81\xfer:A'
p53
tp54
Rp55
ag10
(g14
S'T*\xce\xbets:A'
p56
tp57
Rp58
ag10
(g14
S'\xf8\xd2M\xa2bs:A'
p59
tp60
Rp61
ag10
(g14
S':Q\xff\x06\xb5s:A'
p62
tp63
Rp64
ag10
(g14
S'Q*\xce\xbe\xf6s:A'
p65
tp66
Rp67
ag10
(g14
S';\xd0i\xa3\xf9r:A'
p68
tp69
Rp70
ag10
(g14
S'rh\x91m\x95s:A'
p71
tp72
Rp73
ag10
(g14
S'\xa9c\x82G,r:A'
p74
tp75
Rp76
asS'target'
p77
(lp78
g10
(g14
S'\xfb~j\xbct\x13d@'
p79
tp80
Rp81
ag10
(g14
S'\xf9S\xe3\xa5\x9b\xa2c@'
p82
tp83
Rp84
ag10
(g14
S'\x93A`\xe5\xd0Bd@'
p85
tp86
Rp87
ag10
(g14
S'\x1e1\x08\xac\x1crd@'
p88
tp89
Rp90
ag10
(g14
S'\x18\x85\xebQ\xb8\xaad@'
p91
tp92
Rp93
ag10
(g14
S')\x06\x81\x95Cwd@'
p94
tp95
Rp96
ag10
(g14
S'\xecD\xfd\x1b\xa1Pb@'
p97
tp98
Rp99
ag10
(g14
S'\xfa\xd4x\xe9&%d@'
p100
tp101
Rp102
ag10
(g14
S' Zd;\xdf\xbfd@'
p103
tp104
Rp105
ag10
(g14
S'\xc9 \xb0rh\xf3c@'
p106
tp107
Rp108
ag10
(g14
S'\xe9z\x14\xaeGkc@'
p109
tp110
Rp111
ag10
(g14
S'cffffnb@'
p112
tp113
Rp114
ag10
(g14
S'\x8d\x95C\x8bl\xe3c@'
p115
tp116
Rp117
ag10
(g14
S'm\xe7\xfb\xa9\xf1\xd2b@'
p118
tp119
Rp120
ag10
(g14
S'\x91\x18\x04V\x0e%c@'
p121
tp122
Rp123
ag10
(g14
S'\xfcS\xe3\xa5\x9bTd@'
p124
tp125
Rp126
ag10
(g14
S'\xa7\x9b\xc4 \xb0\xaad@'
p127
tp128
Rp129
ag10
(g14
S'\x16\x04V\x0e-:c@'
p130
tp131
Rp132
ag10
(g14
S'X\xe3\xa5\x9b\xc4\xf6b@'
p133
tp134
Rp135
ag10
(g14
S's\x93\x18\x04Vfb@'
p136
tp137
Rp138
asssss.