(dp0
S'../Data/sqlite_84.csv'
p1
(dp2
S'../Data/sqlite_94.csv'
p3
(dp4
F0.35
(dp5
S'mmre'
p6
(dp7
S'bellwether'
p8
(lp9
cnumpy.core.multiarray
scalar
p10
(cnumpy
dtype
p11
(S'f8'
p12
I0
I1
tp13
Rp14
(I3
S'<'
p15
NNNI-1
I-1
I0
tp16
bS'{O\x02\xd3\xc5OX@'
p17
tp18
Rp19
ag10
(g14
S'\xdbr\x84\xcf\xb1QX@'
p20
tp21
Rp22
ag10
(g14
S'\x98\x07\xdb\x9f\x15QX@'
p23
tp24
Rp25
ag10
(g14
S'\x04\xf4O\xb1\x9fPX@'
p26
tp27
Rp28
ag10
(g14
S'\xbd\xf3k\xfe\x95QX@'
p29
tp30
Rp31
ag10
(g14
S'\x14\x16\xde\xe6\xa3QX@'
p32
tp33
Rp34
ag10
(g14
S'OB@\xe6\xfcQX@'
p35
tp36
Rp37
ag10
(g14
S'\x14\xa0m\n\x07QX@'
p38
tp39
Rp40
ag10
(g14
S'\x87\xd9\xd3\xf8GQX@'
p41
tp42
Rp43
ag10
(g14
S'g\xb1\x9f\x18\xe1QX@'
p44
tp45
Rp46
ag10
(g14
S'\xc3J\x8aafRX@'
p47
tp48
Rp49
ag10
(g14
S'\x0c\xa4&E\xbaRX@'
p50
tp51
Rp52
ag10
(g14
S'\x84\x83\xd4q.RX@'
p53
tp54
Rp55
ag10
(g14
S',?\xb9&_RX@'
p56
tp57
Rp58
ag10
(g14
S'\xc0\xd3\x99<SPX@'
p59
tp60
Rp61
ag10
(g14
S'.L;J:OX@'
p62
tp63
Rp64
ag10
(g14
S'\x9b\xbc`\xc1"PX@'
p65
tp66
Rp67
ag10
(g14
S'\xf9\xd4G\x1a\xe5QX@'
p68
tp69
Rp70
ag10
(g14
S'E@]\r\x91PX@'
p71
tp72
Rp73
ag10
(g14
S'\xf9\xb0\xfc^\xa0PX@'
p74
tp75
Rp76
asS'target'
p77
(lp78
g10
(g14
S"\xc9-\xe4=>'R@"
p79
tp80
Rp81
ag10
(g14
S",E'\xd7\xd0\xc4P@"
p82
tp83
Rp84
ag10
(g14
S'k\x9b\x9fy\x86cS@'
p85
tp86
Rp87
ag10
(g14
S'Ct<\xee\xcb\xe6Q@'
p88
tp89
Rp90
ag10
(g14
S'a\x06lQ$fT@'
p91
tp92
Rp93
ag10
(g14
S'\xcf\xe0L@TnR@'
p94
tp95
Rp96
ag10
(g14
S'\xc5\xe7f;^\xc9Q@'
p97
tp98
Rp99
ag10
(g14
S'\x9b\x98\x1cG\x011P@'
p100
tp101
Rp102
ag10
(g14
S'"\x1e\x80\xc7":P@'
p103
tp104
Rp105
ag10
(g14
S'{+\xc13c\xfaF@'
p106
tp107
Rp108
ag10
(g14
S'n\x1f\xc5\x8d\xc3\x1fQ@'
p109
tp110
Rp111
ag10
(g14
S'\x05\xfb}\xfa_\x81M@'
p112
tp113
Rp114
ag10
(g14
S'%\x04\xf3M\xde\x15K@'
p115
tp116
Rp117
ag10
(g14
S':\xb1$\x1f\xfe\xd7R@'
p118
tp119
Rp120
ag10
(g14
S'X]\x8c\xd9\xc9\rS@'
p121
tp122
Rp123
ag10
(g14
S'\r\xcf\xee\x97\xb1SQ@'
p124
tp125
Rp126
ag10
(g14
S'\xd1\x8d\x95\xb2n\xc8S@'
p127
tp128
Rp129
ag10
(g14
S'\x0b\x80\x16\x84RGS@'
p130
tp131
Rp132
ag10
(g14
S'B\xb9y-\xcaCQ@'
p133
tp134
Rp135
ag10
(g14
S'\x16\x81\xa4\xa2\xe6\x0bR@'
p136
tp137
Rp138
asssss.