(dp0
S'../Data/sqlite_43.csv'
p1
(dp2
S'../Data/sqlite_30.csv'
p3
(dp4
F0.15
(dp5
S'abs_res'
p6
(dp7
S'bellwether'
p8
(lp9
cnumpy.core.multiarray
scalar
p10
(cnumpy
dtype
p11
(S'f8'
p12
I0
I1
tp13
Rp14
(I3
S'<'
p15
NNNI-1
I-1
I0
tp16
bS"\xaa\xc6K'@,@A"
p17
tp18
Rp19
ag10
(g14
S'f\x9e\xa8\x8fL,@A'
p20
tp21
Rp22
ag10
(g14
S"\x11-\xb2-',@A"
p23
tp24
Rp25
ag10
(g14
S'\x9f\xef\xa7&\xab+@A'
p26
tp27
Rp28
ag10
(g14
S'\x8a\t\x1e<Q,@A'
p29
tp30
Rp31
ag10
(g14
S'7\xec\n@d,@A'
p32
tp33
Rp34
ag10
(g14
S'\xa2\xd3\x06:\xe1+@A'
p35
tp36
Rp37
ag10
(g14
S'\xab\x7f#\xa4\xe0+@A'
p38
tp39
Rp40
ag10
(g14
S'\xf8S\xe3\xc5(,@A'
p41
tp42
Rp43
ag10
(g14
S'\xbeX\xf2\xbb3,@A'
p44
tp45
Rp46
ag10
(g14
S'\x1f\x04V\xfe\t,@A'
p47
tp48
Rp49
ag10
(g14
S'o=\ng\xf3+@A'
p50
tp51
Rp52
ag10
(g14
S'\xdc\xdd\xddm\xe7+@A'
p53
tp54
Rp55
ag10
(g14
S'\x9b\x99\x99\xe9\x9b+@A'
p56
tp57
Rp58
ag10
(g14
S'\xabc\x82\x17%,@A'
p59
tp60
Rp61
ag10
(g14
S'\xbbt\x93\x18~,@A'
p62
tp63
Rp64
ag10
(g14
S'\xfa\x8dP63,@A'
p65
tp66
Rp67
ag10
(g14
S'\xee&1\x88\xce+@A'
p68
tp69
Rp70
ag10
(g14
S'\x12\x9fa\xe72,@A'
p71
tp72
Rp73
ag10
(g14
S'\xc1\xca\xa1\x85G,@A'
p74
tp75
Rp76
asS'target'
p77
(lp78
g10
(g14
S'\xd3Mb\x10X\xa9G@'
p79
tp80
Rp81
ag10
(g14
S'I7\x89A`\x85F@'
p82
tp83
Rp84
ag10
(g14
S'l;\xdfO\x8d7E@'
p85
tp86
Rp87
ag10
(g14
S'\xbet\x93\x18\x04\xf6@@'
p88
tp89
Rp90
ag10
(g14
S'}\x93\x18\x04V\xaeD@'
p91
tp92
Rp93
ag10
(g14
S'$\xdb\xf9~j,C@'
p94
tp95
Rp96
ag10
(g14
S'\xc4 \xb0rh\xd1<@'
p97
tp98
Rp99
ag10
(g14
S'\x8c\xebQ\xb8\x1e\xddC@'
p100
tp101
Rp102
ag10
(g14
S'\xfb\xd2Mb\x10\x08B@'
p103
tp104
Rp105
ag10
(g14
S'\xef|?5^\xbaC@'
p106
tp107
Rp108
ag10
(g14
S'\xc9v\xbe\x9f\x1a\xbfE@'
p109
tp110
Rp111
ag10
(g14
S'\xe3\xf9~j\xbc\xe4E@'
p112
tp113
Rp114
ag10
(g14
S'\xf8\xa7\xc6K7\xb9A@'
p115
tp116
Rp117
ag10
(g14
S'\xb2\xf3\xfd\xd4x\xc9B@'
p118
tp119
Rp120
ag10
(g14
S',\x06\x81\x95C;C@'
p121
tp122
Rp123
ag10
(g14
S'\x9an\x12\x83\xc0\x1aA@'
p124
tp125
Rp126
ag10
(g14
S'\xd6\xa1E\xb6\xf3\rE@'
p127
tp128
Rp129
ag10
(g14
S'\xc9\xf7S\xe3\xa5+N@'
p130
tp131
Rp132
ag10
(g14
S'\x9f\x99\x99\x99\x99\x11F@'
p133
tp134
Rp135
ag10
(g14
S'\xaap=\n\xd7\xc3D@'
p136
tp137
Rp138
asssss.