(dp0
S'../Data/sqlite_85.csv'
p1
(dp2
S'../Data/sqlite_7.csv'
p3
(dp4
F0.3
(dp5
S'abs_res'
p6
(dp7
S'bellwether'
p8
(lp9
cnumpy.core.multiarray
scalar
p10
(cnumpy
dtype
p11
(S'f8'
p12
I0
I1
tp13
Rp14
(I3
S'<'
p15
NNNI-1
I-1
I0
tp16
bS'\xd4\xb0+\xa84?SA'
p17
tp18
Rp19
ag10
(g14
S'\x88\xa4)\xcd\x86FSA'
p20
tp21
Rp22
ag10
(g14
S'\x7fN\x1bH;\x1eSA'
p23
tp24
Rp25
ag10
(g14
S'\\\xd6\xeaP(SSA'
p26
tp27
Rp28
ag10
(g14
S'\xf9\x19v\x15\xf8{SA'
p29
tp30
Rp31
ag10
(g14
S'\xd5\xea\x98x\xe2#SA'
p32
tp33
Rp34
ag10
(g14
S'Oq\xf6\t\x9f+SA'
p35
tp36
Rp37
ag10
(g14
S'\x01c\xc9Oh@SA'
p38
tp39
Rp40
ag10
(g14
S'\xf4(\\_YYSA'
p41
tp42
Rp43
ag10
(g14
S'R7\x89\xb9B\x13SA'
p44
tp45
Rp46
ag10
(g14
S'\x0fg\x1f\xde\x15tSA'
p47
tp48
Rp49
ag10
(g14
S'\xb7-k\x9dy,SA'
p50
tp51
Rp52
ag10
(g14
S'\x16<\x98w\xabvSA'
p53
tp54
Rp55
ag10
(g14
S'\xfc\x8dPN\x04RSA'
p56
tp57
Rp58
ag10
(g14
S'\xe43\xecjb1SA'
p59
tp60
Rp61
ag10
(g14
S'\xcd\x06:\x1d\x9bYSA'
p62
tp63
Rp64
ag10
(g14
S'\xc0\x83y\x8a\x8e&SA'
p65
tp66
Rp67
ag10
(g14
S'2\x08\xac\x0c\xbfySA'
p68
tp69
Rp70
ag10
(g14
S'i\x1f>\xe3\xd0QSA'
p71
tp72
Rp73
ag10
(g14
S'A\x19\xbd\x05V*SA'
p74
tp75
Rp76
asS'target'
p77
(lp78
g10
(g14
S'\xaa\x1cZd;\x15h@'
p79
tp80
Rp81
ag10
(g14
S'H\xe1z\x14\xae\xd7i@'
p82
tp83
Rp84
ag10
(g14
S'\x14Zd;\xdf=g@'
p85
tp86
Rp87
ag10
(g14
S'^9\xb4\xc8vng@'
p88
tp89
Rp90
ag10
(g14
S'\x12\x04V\x0e-\xe0e@'
p91
tp92
Rp93
ag10
(g14
S'\xaa\x1cZd;=h@'
p94
tp95
Rp96
ag10
(g14
S'vh\x91\xed|\tf@'
p97
tp98
Rp99
ag10
(g14
S'\xa9\x9b\xc4 \xb0\x8ee@'
p100
tp101
Rp102
ag10
(g14
S'\xc6\xcc\xcc\xcc\xcc\xa2f@'
p103
tp104
Rp105
ag10
(g14
S'\xb2G\xe1z\x14\xdag@'
p106
tp107
Rp108
ag10
(g14
S'\xb3\xc8v\xbe\x9f\xcee@'
p109
tp110
Rp111
ag10
(g14
S'\x9dE\xb6\xf3\xfd\x00i@'
p112
tp113
Rp114
ag10
(g14
S'f\xbct\x93\x18\xb4f@'
p115
tp116
Rp117
ag10
(g14
S'p\x91\xed|?\x87h@'
p118
tp119
Rp120
ag10
(g14
S'\xc5K7\x89A\xf0f@'
p121
tp122
Rp123
ag10
(g14
S'4\x89A`\xe5pe@'
p124
tp125
Rp126
ag10
(g14
S'\x96\x99\x99\x99\x99]i@'
p127
tp128
Rp129
ag10
(g14
S'\x89j\xbct\x93\xd8k@'
p130
tp131
Rp132
ag10
(g14
S'\xdbO\x8d\x97nXg@'
p133
tp134
Rp135
ag10
(g14
S'g;\xdfO\x8d\x17g@'
p136
tp137
Rp138
asssss.