(dp0
S'../Data/sqlite_32.csv'
p1
(dp2
S'../Data/sqlite_79.csv'
p3
(dp4
F0.25
(dp5
S'abs_res'
p6
(dp7
S'bellwether'
p8
(lp9
cnumpy.core.multiarray
scalar
p10
(cnumpy
dtype
p11
(S'f8'
p12
I0
I1
tp13
Rp14
(I3
S'<'
p15
NNNI-1
I-1
I0
tp16
bS'\xffU\x0em\xcdWAA'
p17
tp18
Rp19
ag10
(g14
S'\xb8\x1e\x85\xab\x88XAA'
p20
tp21
Rp22
ag10
(g14
S'l\x12\x83\xd0\xccTAA'
p23
tp24
Rp25
ag10
(g14
S'=\xb4\xc8&\xdbWAA'
p26
tp27
Rp28
ag10
(g14
S'\xdb$\x06\xc1\xd2UAA'
p29
tp30
Rp31
ag10
(g14
S'\xdd$\x06!\x15UAA'
p32
tp33
Rp34
ag10
(g14
S'\x1b\x85\xeb\xb1\x1fUAA'
p35
tp36
Rp37
ag10
(g14
S'\x9a\xef\xa7f.WAA'
p38
tp39
Rp40
ag10
(g14
S'\xd8x\xe9\x16\xfbVAA'
p41
tp42
Rp43
ag10
(g14
S' Zd\x1b[WAA'
p44
tp45
Rp46
ag10
(g14
S'\xa3\x9b\xc4 \x03XAA'
p47
tp48
Rp49
ag10
(g14
S'1\xdd$\x16<WAA'
p50
tp51
Rp52
ag10
(g14
S'L`\xe5 yUAA'
p53
tp54
Rp55
ag10
(g14
S'+1\x08\xcc\x00WAA'
p56
tp57
Rp58
ag10
(g14
S'\x10\x83\xc0\xda.XAA'
p59
tp60
Rp61
ag10
(g14
S'\xe5\xd0"\xab\x06WAA'
p62
tp63
Rp64
ag10
(g14
S'\x11\x83\xc0\xfa\xf1WAA'
p65
tp66
Rp67
ag10
(g14
S'uh\x91\x8d\x19WAA'
p68
tp69
Rp70
ag10
(g14
S'.\xdd$\x16\xf7WAA'
p71
tp72
Rp73
ag10
(g14
S'\x0c-\xb2\xdd9WAA'
p74
tp75
Rp76
asS'target'
p77
(lp78
g10
(g14
S'W\x8f\xc2\xf5(tk@'
p79
tp80
Rp81
ag10
(g14
S'l=\n\xd7\xa3\xf5q@'
p82
tp83
Rp84
ag10
(g14
S'<\xdfO\x8d\x97\x84t@'
p85
tp86
Rp87
ag10
(g14
S'x?5^\xbaxq@'
p88
tp89
Rp90
ag10
(g14
S'\x06-\xb2\x9d\xef\x95q@'
p91
tp92
Rp93
ag10
(g14
S'\xf0|?5^dr@'
p94
tp95
Rp96
ag10
(g14
S'\x0eX9\xb4\xc8\x82t@'
p97
tp98
Rp99
ag10
(g14
S'C`\xe5\xd0"oy@'
p100
tp101
Rp102
ag10
(g14
S'\xa5\x1cZd;\xe7p@'
p103
tp104
Rp105
ag10
(g14
S'a;\xdfO\x8d\x15r@'
p106
tp107
Rp108
ag10
(g14
S'\xe1\xa5\x9b\xc4 ;v@'
p109
tp110
Rp111
ag10
(g14
S':5^\xbaI\x1cq@'
p112
tp113
Rp114
ag10
(g14
S'\x8b\xc2\xf5(\\\xf5t@'
p115
tp116
Rp117
ag10
(g14
S'\x87A`\xe5\xd0\xfen@'
p118
tp119
Rp120
ag10
(g14
S'\x17Zd;\xdf\x0br@'
p121
tp122
Rp123
ag10
(g14
S'a\xe5\xd0"\xdb\xa6s@'
p124
tp125
Rp126
ag10
(g14
S'13333\x0fv@'
p127
tp128
Rp129
ag10
(g14
S'\x9f\x9b\xc4 \xb0\xe2o@'
p130
tp131
Rp132
ag10
(g14
S'6\x89A`\xe5\x84p@'
p133
tp134
Rp135
ag10
(g14
S'0\xdd$\x06\x81\xedt@'
p136
tp137
Rp138
asssss.