(dp0
S'../Data/sqlite_31.csv'
p1
(dp2
S'../Data/sqlite_62.csv'
p3
(dp4
F0.25
(dp5
S'mmre'
p6
(dp7
S'bellwether'
p8
(lp9
cnumpy.core.multiarray
scalar
p10
(cnumpy
dtype
p11
(S'f8'
p12
I0
I1
tp13
Rp14
(I3
S'<'
p15
NNNI-1
I-1
I0
tp16
bS'\xd2\xb0oIz3N@'
p17
tp18
Rp19
ag10
(g14
S'w\xff\x85\xc1\x05FN@'
p20
tp21
Rp22
ag10
(g14
S'\xda\x15\xb78\x85JN@'
p23
tp24
Rp25
ag10
(g14
S'\xcc\x12\xea\xac[BN@'
p26
tp27
Rp28
ag10
(g14
S'\xfeu\xd4\x94\x93?N@'
p29
tp30
Rp31
ag10
(g14
S'\xe7\xf5\x95o\xf6JN@'
p32
tp33
Rp34
ag10
(g14
S'Y\x05\xb6c\xccCN@'
p35
tp36
Rp37
ag10
(g14
S'q\x80Q\xa9\xa3BN@'
p38
tp39
Rp40
ag10
(g14
S'\xb7\xe3\xf5\xe6\xc9IN@'
p41
tp42
Rp43
ag10
(g14
S'\xda:k\t\xce)N@'
p44
tp45
Rp46
ag10
(g14
S'\x11C\xb8,\x119N@'
p47
tp48
Rp49
ag10
(g14
S'\x19\x84w]EAN@'
p50
tp51
Rp52
ag10
(g14
S'\xa2\x86\xacg\x06DN@'
p53
tp54
Rp55
ag10
(g14
S'q\x92\x96\t\x94AN@'
p56
tp57
Rp58
ag10
(g14
S'v\xd6}&\x81AN@'
p59
tp60
Rp61
ag10
(g14
S'\x84.\x85Y7DN@'
p62
tp63
Rp64
ag10
(g14
S'\xbc\xf3(\x1a\x8eBN@'
p65
tp66
Rp67
ag10
(g14
S'\x82# \xa8rAN@'
p68
tp69
Rp70
ag10
(g14
S'\xf07h\xbe\x05FN@'
p71
tp72
Rp73
ag10
(g14
S'2\x0fyn\x19LN@'
p74
tp75
Rp76
asS'target'
p77
(lp78
g10
(g14
S'\x062H\xd6cX!@'
p79
tp80
Rp81
ag10
(g14
S'DC\xdeu\xae\xa5"@'
p82
tp83
Rp84
ag10
(g14
S'\xae\xcf\r*\xb4i"@'
p85
tp86
Rp87
ag10
(g14
S'*\x18\xcd\x82F# @'
p88
tp89
Rp90
ag10
(g14
S"B'q\x06\x98\xd6!@"
p91
tp92
Rp93
ag10
(g14
S'\x13+\xc2iO\xf8"@'
p94
tp95
Rp96
ag10
(g14
S'\xad\x82\\\\S\x9d!@'
p97
tp98
Rp99
ag10
(g14
S'\xc7\xa5v\x0c\x96\xc1 @'
p100
tp101
Rp102
ag10
(g14
S'\xa1\xd3\xf1\x92\xd1R!@'
p103
tp104
Rp105
ag10
(g14
S'L\x18\x10=N^"@'
p106
tp107
Rp108
ag10
(g14
S'+\xd0\x87\xcf\x84\xef @'
p109
tp110
Rp111
ag10
(g14
S'\xf5\xbc\xb1\x0e\xc5l!@'
p112
tp113
Rp114
ag10
(g14
S'u\xc3\xa8\xa6k\xa7!@'
p115
tp116
Rp117
ag10
(g14
S'\xf4ENb-\xfa @'
p118
tp119
Rp120
ag10
(g14
S'YY\xa5[4\xf1 @'
p121
tp122
Rp123
ag10
(g14
S'\\\xadn\x90B\xb1!@'
p124
tp125
Rp126
ag10
(g14
S'\xf3\x02w\xdfwE#@'
p127
tp128
Rp129
ag10
(g14
S'\xee\x84g\xaf\xfd*!@'
p130
tp131
Rp132
ag10
(g14
S'\x14\xf4:\xb9{\xcc!@'
p133
tp134
Rp135
ag10
(g14
S'\x0f\xf6\x87\x07\x87S!@'
p136
tp137
Rp138
asssss.