(dp0
S'../Data/sqlite_17.csv'
p1
(dp2
S'../Data/sqlite_63.csv'
p3
(dp4
F0.05
(dp5
S'mmre'
p6
(dp7
S'bellwether'
p8
(lp9
cnumpy.core.multiarray
scalar
p10
(cnumpy
dtype
p11
(S'f8'
p12
I0
I1
tp13
Rp14
(I3
S'<'
p15
NNNI-1
I-1
I0
tp16
bS'MG\x8cy\xa5%I@'
p17
tp18
Rp19
ag10
(g14
S'\x85@\xb9\x87\xc5+I@'
p20
tp21
Rp22
ag10
(g14
S'\xcb\xb0\xd7F\x1b-I@'
p23
tp24
Rp25
ag10
(g14
S'\xf0\x83#\xd5\x901I@'
p26
tp27
Rp28
ag10
(g14
S'\xa0\x9eZX\x1f-I@'
p29
tp30
Rp31
ag10
(g14
S'\xb6\xde\xa6\x8cg0I@'
p32
tp33
Rp34
ag10
(g14
S'\xe6)\xd97[,I@'
p35
tp36
Rp37
ag10
(g14
S'k\x14\xa6\xb6s/I@'
p38
tp39
Rp40
ag10
(g14
S'\xe7/\x8eL\x131I@'
p41
tp42
Rp43
ag10
(g14
S'\x82,\xc7ij,I@'
p44
tp45
Rp46
ag10
(g14
S'\xafy\xaf\xf5\xb66I@'
p47
tp48
Rp49
ag10
(g14
S'oE\xa3\xcf<1I@'
p50
tp51
Rp52
ag10
(g14
S'\xbc\xddwR\n4I@'
p53
tp54
Rp55
ag10
(g14
S'\x86\xab\xf3\x81%1I@'
p56
tp57
Rp58
ag10
(g14
S'\x82(\xbd\x01p)I@'
p59
tp60
Rp61
ag10
(g14
S'.\xd2\xda\xb6\x991I@'
p62
tp63
Rp64
ag10
(g14
S'\xb28\xd1\xb5\xf71I@'
p65
tp66
Rp67
ag10
(g14
S'@M\xf7-m(I@'
p68
tp69
Rp70
ag10
(g14
S'\x1d0\xd9\xae?2I@'
p71
tp72
Rp73
ag10
(g14
S'l\xb6\xecm\xfa,I@'
p74
tp75
Rp76
asS'target'
p77
(lp78
g10
(g14
S'\xc2\xa6f"/\xdd"@'
p79
tp80
Rp81
ag10
(g14
S'\xee\x9c\xador\x1a#@'
p82
tp83
Rp84
ag10
(g14
S'7\x8c"\xe0|\x95#@'
p85
tp86
Rp87
ag10
(g14
S'(\x8fG#6\xaf#@'
p88
tp89
Rp90
ag10
(g14
S'\xc7\r\xfc\x17\x06\xbb"@'
p91
tp92
Rp93
ag10
(g14
S'\xcar\xa9Rh\xbd @'
p94
tp95
Rp96
ag10
(g14
S'\xff\xdfv\nQE$@'
p97
tp98
Rp99
ag10
(g14
S'5k\x18-\x06y#@'
p100
tp101
Rp102
ag10
(g14
S'F\xf3\xa5\x87\xa5$!@'
p103
tp104
Rp105
ag10
(g14
S']\xff*\x82\xd6\xb0"@'
p106
tp107
Rp108
ag10
(g14
S'2b\x9a\x7fFL#@'
p109
tp110
Rp111
ag10
(g14
S'\xb4n\xd8t\x80%$@'
p112
tp113
Rp114
ag10
(g14
S'$\xfd\xe7\x95H\xb5"@'
p115
tp116
Rp117
ag10
(g14
S'S\xd0Br}\xc2!@'
p118
tp119
Rp120
ag10
(g14
S'J\xa44sL\xf0#@'
p121
tp122
Rp123
ag10
(g14
S'\xe8\\\xf7\x83\xc8\x03$@'
p124
tp125
Rp126
ag10
(g14
S'\xff\xd7x\xb2\x86\xcd$@'
p127
tp128
Rp129
ag10
(g14
S'Sk\x83\xc5\xdd\xd6 @'
p130
tp131
Rp132
ag10
(g14
S'?\xdbOhK\xe9!@'
p133
tp134
Rp135
ag10
(g14
S'\x08kC\xb9\xad\xca#@'
p136
tp137
Rp138
asssss.