(dp0
S'../Data/sqlite_15.csv'
p1
(dp2
S'../Data/sqlite_0.csv'
p3
(dp4
F0.15
(dp5
S'abs_res'
p6
(dp7
S'bellwether'
p8
(lp9
cnumpy.core.multiarray
scalar
p10
(cnumpy
dtype
p11
(S'f8'
p12
I0
I1
tp13
Rp14
(I3
S'<'
p15
NNNI-1
I-1
I0
tp16
bS'\x0f\xac\x1c\xfa\x89*@A'
p17
tp18
Rp19
ag10
(g14
S'\xcd\xf7SC%+@A'
p20
tp21
Rp22
ag10
(g14
S's\x12\x83P\xeb*@A'
p23
tp24
Rp25
ag10
(g14
S'\x12X9TL+@A'
p26
tp27
Rp28
ag10
(g14
S'\xc7 \xb0b\x8a*@A'
p29
tp30
Rp31
ag10
(g14
S'E\n\xd7\xd3\xf4*@A'
p32
tp33
Rp34
ag10
(g14
S'IDD$#+@A'
p35
tp36
Rp37
ag10
(g14
S'\x86?5\xbe\x94*@A'
p38
tp39
Rp40
ag10
(g14
S'\xf0\xfb\xa9!\x98*@A'
p41
tp42
Rp43
ag10
(g14
S'\x96PF\xcf\xed*@A'
p44
tp45
Rp46
ag10
(g14
S'\xb6+@.\x8a*@A'
p47
tp48
Rp49
ag10
(g14
S'\xc0\x9f\x1a\xef\xaf*@A'
p50
tp51
Rp52
ag10
(g14
S'\xcf\xcc\xcc\xccB*@A'
p53
tp54
Rp55
ag10
(g14
S'\x08\xe4^\xb3V+@A'
p56
tp57
Rp58
ag10
(g14
S'\x98\xa6T,\xb2*@A'
p59
tp60
Rp61
ag10
(g14
S'L\xb6\xf3m\xf5*@A'
p62
tp63
Rp64
ag10
(g14
S'\x9e\x99\x99\t +@A'
p65
tp66
Rp67
ag10
(g14
S'th\x91}"+@A'
p68
tp69
Rp70
ag10
(g14
S'f;\xdfO\xed*@A'
p71
tp72
Rp73
ag10
(g14
S'\xe1k.\xe4\xc8*@A'
p74
tp75
Rp76
asS'target'
p77
(lp78
g10
(g14
S'\xc9t\x93\x18\x04ve@'
p79
tp80
Rp81
ag10
(g14
S'S\xb8\x1e\x85\xebEh@'
p82
tp83
Rp84
ag10
(g14
S'R\x0e-\xb2\x9d\x83f@'
p85
tp86
Rp87
ag10
(g14
S'\xe8\xfd\xd4x\xe9\xaag@'
p88
tp89
Rp90
ag10
(g14
S'L\xb8\x1e\x85\xebyh@'
p91
tp92
Rp93
ag10
(g14
S'z\x12\x83\xc0\xca%g@'
p94
tp95
Rp96
ag10
(g14
S'\xe5\xa5\x9b\xc4 |h@'
p97
tp98
Rp99
ag10
(g14
S'_\xe5\xd0"\xdb\xadg@'
p100
tp101
Rp102
ag10
(g14
S':\x89A`\xe5\xe8j@'
p103
tp104
Rp105
ag10
(g14
S'j\x10X9\xb4\xf0g@'
p106
tp107
Rp108
ag10
(g14
S'\xe6|?5^Nf@'
p109
tp110
Rp111
ag10
(g14
S'\x9bn\x12\x83\xc0\x9ef@'
p112
tp113
Rp114
ag10
(g14
S'\xc5\xf5(\\\x8f\x16h@'
p115
tp116
Rp117
ag10
(g14
S'l;\xdfO\x8dwg@'
p118
tp119
Rp120
ag10
(g14
S'\xb6\x1e\x85\xebQxh@'
p121
tp122
Rp123
ag10
(g14
S'N\x8d\x97n\x12_g@'
p124
tp125
Rp126
ag10
(g14
S'\x85\xc0\xca\xa1E\xe6g@'
p127
tp128
Rp129
ag10
(g14
S'\x85\xebQ\xb8\x1e\xe5e@'
p130
tp131
Rp132
ag10
(g14
S'\x80\xe9&1\x08pg@'
p133
tp134
Rp135
ag10
(g14
S'4\xb2\x9d\xef\xa7\x8ed@'
p136
tp137
Rp138
asssss.