(dp0
S'../Data/sqlite_17.csv'
p1
(dp2
S'../Data/sqlite_63.csv'
p3
(dp4
F0.3
(dp5
S'mmre'
p6
(dp7
S'bellwether'
p8
(lp9
cnumpy.core.multiarray
scalar
p10
(cnumpy
dtype
p11
(S'f8'
p12
I0
I1
tp13
Rp14
(I3
S'<'
p15
NNNI-1
I-1
I0
tp16
bS'\xcf\xd4\xc1\xf9-4I@'
p17
tp18
Rp19
ag10
(g14
S'\xd1\xab\xbfx\x845I@'
p20
tp21
Rp22
ag10
(g14
S'l\xc3\x85\xe9i I@'
p23
tp24
Rp25
ag10
(g14
S'\xb02>\xdb\xd6<I@'
p26
tp27
Rp28
ag10
(g14
S'|{;s\xea4I@'
p29
tp30
Rp31
ag10
(g14
S'\xaaG\xd4\xfa\xc78I@'
p32
tp33
Rp34
ag10
(g14
S'\x90\xeb\x10\xf7\x85-I@'
p35
tp36
Rp37
ag10
(g14
S'D3\xdc\x15\n9I@'
p38
tp39
Rp40
ag10
(g14
S'J\xfez\xca\x8e6I@'
p41
tp42
Rp43
ag10
(g14
S'>\xce\x14\xcd\x8f\x1bI@'
p44
tp45
Rp46
ag10
(g14
S'\x89\xc8\x1b\xca\x80\x1aI@'
p47
tp48
Rp49
ag10
(g14
S'@z\x1cz\r(I@'
p50
tp51
Rp52
ag10
(g14
S'\x9e\xd6\x97\xdd\xce0I@'
p53
tp54
Rp55
ag10
(g14
S']7K\xe4\x8e\x0eI@'
p56
tp57
Rp58
ag10
(g14
S'\xae\n\n\xd4\xd42I@'
p59
tp60
Rp61
ag10
(g14
S'\x06Rr\xaaS)I@'
p62
tp63
Rp64
ag10
(g14
S'Rm\x91_\xffCI@'
p65
tp66
Rp67
ag10
(g14
S'\xb9\x930\xb9\xe5-I@'
p68
tp69
Rp70
ag10
(g14
S"\xac\xb4\x14b\xa9'I@"
p71
tp72
Rp73
ag10
(g14
S'\xab\xaa\xc3\xe0?#I@'
p74
tp75
Rp76
asS'target'
p77
(lp78
g10
(g14
S'\xca\xc2s\xd6=\xf8"@'
p79
tp80
Rp81
ag10
(g14
S'\xec\xca\xb5e\r\x86#@'
p82
tp83
Rp84
ag10
(g14
S'Q.SO\xe3\xb2!@'
p85
tp86
Rp87
ag10
(g14
S'.U\xf4\x81f-#@'
p88
tp89
Rp90
ag10
(g14
S"'!oJ\xcc\xdc!@"
p91
tp92
Rp93
ag10
(g14
S'\x12\xe1yp$9#@'
p94
tp95
Rp96
ag10
(g14
S'\xf7\xe5\x15\x0c\xfc\xc9"@'
p97
tp98
Rp99
ag10
(g14
S'\xa0\x81O\xb9\nx"@'
p100
tp101
Rp102
ag10
(g14
S'Wz(;\xab\x19"@'
p103
tp104
Rp105
ag10
(g14
S'\x8aZ\x9bo\xdf #@'
p106
tp107
Rp108
ag10
(g14
S'@gU?d/#@'
p109
tp110
Rp111
ag10
(g14
S'Kb\xd4\xce(["@'
p112
tp113
Rp114
ag10
(g14
S'\xa4\x9c\xa8\xf62\x9c"@'
p115
tp116
Rp117
ag10
(g14
S'\xd2\xe4*\x18\xfc%#@'
p118
tp119
Rp120
ag10
(g14
S'\x94\'b$\x1dx"@'
p121
tp122
Rp123
ag10
(g14
S'.\xfaBVb\xad"@'
p124
tp125
Rp126
ag10
(g14
S'\xae\xa7.\xa5i!"@'
p127
tp128
Rp129
ag10
(g14
S'\xd5\x0b\x10\xe6\xe1&#@'
p130
tp131
Rp132
ag10
(g14
S',\xfa<D\x12t"@'
p133
tp134
Rp135
ag10
(g14
S'\xb4T\xc6\x99h\xa5"@'
p136
tp137
Rp138
asssss.