(dp0
S'../Data/sqlite_14.csv'
p1
(dp2
S'../Data/sqlite_91.csv'
p3
(dp4
F0.05
(dp5
S'mmre'
p6
(dp7
S'bellwether'
p8
(lp9
cnumpy.core.multiarray
scalar
p10
(cnumpy
dtype
p11
(S'f8'
p12
I0
I1
tp13
Rp14
(I3
S'<'
p15
NNNI-1
I-1
I0
tp16
bS'F\x8a\xe69\x9dtX@'
p17
tp18
Rp19
ag10
(g14
S'%\xb5\xc8\x05*sX@'
p20
tp21
Rp22
ag10
(g14
S'\xb5\xf3$\x8b\xe9qX@'
p23
tp24
Rp25
ag10
(g14
S'\x16[\xac\x07\xdauX@'
p26
tp27
Rp28
ag10
(g14
S'Kb\\weuX@'
p29
tp30
Rp31
ag10
(g14
S'\xb4\x00:\x0cDqX@'
p32
tp33
Rp34
ag10
(g14
S'E~\xbd\xf3DsX@'
p35
tp36
Rp37
ag10
(g14
S'\x9b-\x92\x94(wX@'
p38
tp39
Rp40
ag10
(g14
S'\x98\xc5\x85&vvX@'
p41
tp42
Rp43
ag10
(g14
S'\x9feGh\xb8tX@'
p44
tp45
Rp46
ag10
(g14
S'\xbeM\xecICqX@'
p47
tp48
Rp49
ag10
(g14
S'\xb6\xba\xd4p\x0bsX@'
p50
tp51
Rp52
ag10
(g14
S'\xa3O\xc8}\x18sX@'
p53
tp54
Rp55
ag10
(g14
S'P\x93\x10\xd5\x83qX@'
p56
tp57
Rp58
ag10
(g14
S'$N^\xdb\xa1qX@'
p59
tp60
Rp61
ag10
(g14
S'\x94\xbd\x84FdqX@'
p62
tp63
Rp64
ag10
(g14
S'\x82\x86\xc8\xef1qX@'
p65
tp66
Rp67
ag10
(g14
S'\x94\xce\xda\xd9\xcasX@'
p68
tp69
Rp70
ag10
(g14
S'\x04<#A\xb4uX@'
p71
tp72
Rp73
ag10
(g14
S'\xe5\xef\x8b\x03\x87sX@'
p74
tp75
Rp76
asS'target'
p77
(lp78
g10
(g14
S'\xc3\xe1\xc4\\>\xa2O@'
p79
tp80
Rp81
ag10
(g14
S'\xcbw+\xb6e\x95N@'
p82
tp83
Rp84
ag10
(g14
S'p\xc2B\xcc%1Q@'
p85
tp86
Rp87
ag10
(g14
S'8\xfdl\xee\xf5CM@'
p88
tp89
Rp90
ag10
(g14
S'\xf6\xc9\xb0W\x91IL@'
p91
tp92
Rp93
ag10
(g14
S'\xb6\x9e8\xe7\x01\x08P@'
p94
tp95
Rp96
ag10
(g14
S'\x1b7\xc4\xc1\xe7\x87N@'
p97
tp98
Rp99
ag10
(g14
S'q\x87\\\xadMDP@'
p100
tp101
Rp102
ag10
(g14
S'M~\xa0p.\xa6N@'
p103
tp104
Rp105
ag10
(g14
S'V%6D\x84!P@'
p106
tp107
Rp108
ag10
(g14
S'\xf9\x153\xb7\xf3#P@'
p109
tp110
Rp111
ag10
(g14
S'\xf6\xdf\xcd\xa02CP@'
p112
tp113
Rp114
ag10
(g14
S'(\xb9hH-!Q@'
p115
tp116
Rp117
ag10
(g14
S'\x1aV~;\x8avP@'
p118
tp119
Rp120
ag10
(g14
S'\xa3\xb2P\x19[\xa4N@'
p121
tp122
Rp123
ag10
(g14
S'\x8c\xe4lH`\xc2O@'
p124
tp125
Rp126
ag10
(g14
S'\x9d\xb4/\x05\xad\xb3P@'
p127
tp128
Rp129
ag10
(g14
S'\x87\x06}\xc4\xfe\x1cO@'
p130
tp131
Rp132
ag10
(g14
S'\xe1N\xdb\xba\x9dSO@'
p133
tp134
Rp135
ag10
(g14
S'e\xcf\x13g\xb3yO@'
p136
tp137
Rp138
asssss.