(dp0
S'../Data/sqlite_15.csv'
p1
(dp2
S'../Data/sqlite_44.csv'
p3
(dp4
F0.1
(dp5
S'abs_res'
p6
(dp7
S'bellwether'
p8
(lp9
cnumpy.core.multiarray
scalar
p10
(cnumpy
dtype
p11
(S'f8'
p12
I0
I1
tp13
Rp14
(I3
S'<'
p15
NNNI-1
I-1
I0
tp16
bS'\xcfMb@R+AA'
p17
tp18
Rp19
ag10
(g14
S'a\xbaI|\xaf*AA'
p20
tp21
Rp22
ag10
(g14
S'\x95\x18\x04\xb6v+AA'
p23
tp24
Rp25
ag10
(g14
S'<`\xe5\xa0\xc1*AA'
p26
tp27
Rp28
ag10
(g14
S"'\\\x8fR$+AA"
p29
tp30
Rp31
ag10
(g14
S'\xc7K7YO+AA'
p32
tp33
Rp34
ag10
(g14
S'\xa9\xf1\xd2M.+AA'
p35
tp36
Rp37
ag10
(g14
S'\x83\x95C\x8b\x97+AA'
p38
tp39
Rp40
ag10
(g14
S'\xa4p=\xaa\x83+AA'
p41
tp42
Rp43
ag10
(g14
S'\x19\xd9\xce\xc78+AA'
p44
tp45
Rp46
ag10
(g14
S'\xf4\xe13\xdc\xa3+AA'
p47
tp48
Rp49
ag10
(g14
S'\x1c/\xdd\xa4\x90+AA'
p50
tp51
Rp52
ag10
(g14
S'k=\n\xf7\xb2+AA'
p53
tp54
Rp55
ag10
(g14
S'<\n\xd7\x13\xb4*AA'
p56
tp57
Rp58
ag10
(g14
S'\xf9(\\O\xed*AA'
p59
tp60
Rp61
ag10
(g14
S'\xbeX\xf2\xcb\x90+AA'
p62
tp63
Rp64
ag10
(g14
S'\xd2Mb\x10\x86+AA'
p65
tp66
Rp67
ag10
(g14
S'"iJ\x05\x10,AA'
p68
tp69
Rp70
ag10
(g14
S"\x9a'\xea\x9f\x7f+AA"
p71
tp72
Rp73
ag10
(g14
S'I\xc5\xd9G\x0c+AA'
p74
tp75
Rp76
asS'target'
p77
(lp78
g10
(g14
S'\xc1\xca\xa1E\xb6\xdbP@'
p79
tp80
Rp81
ag10
(g14
S'\xcdx\xe9&1XN@'
p82
tp83
Rp84
ag10
(g14
S'a\xe5\xd0"\xdb)R@'
p85
tp86
Rp87
ag10
(g14
S'\n\xac\x1cZd\x0bN@'
p88
tp89
Rp90
ag10
(g14
S'}j\xbct\x93\x98Q@'
p91
tp92
Rp93
ag10
(g14
S'\x99\x99\x99\x99\x991R@'
p94
tp95
Rp96
ag10
(g14
S'\xa6\x1a/\xdd$\xbeW@'
p97
tp98
Rp99
ag10
(g14
S'\x03\xac\x1cZd\xdbN@'
p100
tp101
Rp102
ag10
(g14
S'$\xb0rh\x91\x9dR@'
p103
tp104
Rp105
ag10
(g14
S'U\xb8\x1e\x85\xebQP@'
p106
tp107
Rp108
ag10
(g14
S'\x13\x83\xc0\xca\xa1eR@'
p109
tp110
Rp111
ag10
(g14
S'?\x8bl\xe7\xfb\x11P@'
p112
tp113
Rp114
ag10
(g14
S'\xe9\xa7\xc6K7YL@'
p115
tp116
Rp117
ag10
(g14
S'k\x91\xed|?UQ@'
p118
tp119
Rp120
ag10
(g14
S'?\xdfO\x8d\x97\xfeT@'
p121
tp122
Rp123
ag10
(g14
S'I\x0c\x02+\x87\xa6Q@'
p124
tp125
Rp126
ag10
(g14
S'\xd5\xa3p=\n7P@'
p127
tp128
Rp129
ag10
(g14
S'\xd3\xa3p=\nWS@'
p130
tp131
Rp132
ag10
(g14
S'\x98\x97n\x12\x83\xc4U@'
p133
tp134
Rp135
ag10
(g14
S'\xfdS\xe3\xa5\x9b$V@'
p136
tp137
Rp138
asssss.