(dp0
S'../Data/sqlite_79.csv'
p1
(dp2
S'../Data/sqlite_18.csv'
p3
(dp4
F0.35
(dp5
S'abs_res'
p6
(dp7
S'bellwether'
p8
(lp9
cnumpy.core.multiarray
scalar
p10
(cnumpy
dtype
p11
(S'f8'
p12
I0
I1
tp13
Rp14
(I3
S'<'
p15
NNNI-1
I-1
I0
tp16
bS'\x9b6\xd0)m=9A'
p17
tp18
Rp19
ag10
(g14
S'\xd9z\x14.T=9A'
p20
tp21
Rp22
ag10
(g14
S'LS*\xde\x1b?9A'
p23
tp24
Rp25
ag10
(g14
S'\x01e\xf4\xc6\x94?9A'
p26
tp27
Rp28
ag10
(g14
S'I\x0c\x02\xdb"@9A'
p29
tp30
Rp31
ag10
(g14
S'&\xbfX\xe2"?9A'
p32
tp33
Rp34
ag10
(g14
S'C\x19\xbd\xed\xb6?9A'
p35
tp36
Rp37
ag10
(g14
S'%\x94\xd1\x1bz?9A'
p38
tp39
Rp40
ag10
(g14
S'T9\xb4\xb8x?9A'
p41
tp42
Rp43
ag10
(g14
S"\xd8\x15 '\xce?9A"
p44
tp45
Rp46
ag10
(g14
S'\xd4>|V\xd4?9A'
p47
tp48
Rp49
ag10
(g14
S'\xd9$\x061\xbf>9A'
p50
tp51
Rp52
ag10
(g14
S'F\xf0`.\xda?9A'
p53
tp54
Rp55
ag10
(g14
S';\xc3\xae`@@9A'
p56
tp57
Rp58
ag10
(g14
S'\x8d\xc2\xf5\xa8\xd5>9A'
p59
tp60
Rp61
ag10
(g14
S'www\xf7\x90=9A'
p62
tp63
Rp64
ag10
(g14
S'\x8e%\xbfh\x0c>9A'
p65
tp66
Rp67
ag10
(g14
S"7\x98'\x1a\x1d>9A"
p68
tp69
Rp70
ag10
(g14
S'X\xe3\xa5+\x96>9A'
p71
tp72
Rp73
ag10
(g14
S'\x01\x1c\xa1\xece<9A'
p74
tp75
Rp76
asS'target'
p77
(lp78
g10
(g14
S'\xc9\xcc\xcc\xcc\xecf\xcc@'
p79
tp80
Rp81
ag10
(g14
S',333sn\xcb@'
p82
tp83
Rp84
ag10
(g14
S'\r\x00\x00\x00\xe0F\xce@'
p85
tp86
Rp87
ag10
(g14
S'7333\xf3\xf6\xcd@'
p88
tp89
Rp90
ag10
(g14
S'dfff\x06\xc0\xcb@'
p91
tp92
Rp93
ag10
(g14
S'\x9a\x99\x99\x99\x19\xc9\xca@'
p94
tp95
Rp96
ag10
(g14
S'lfff\xe6\xb4\xcc@'
p97
tp98
Rp99
ag10
(g14
S'\xf2\xff\xff\xff\xdfl\xcc@'
p100
tp101
Rp102
ag10
(g14
S'0333\x93\xec\xca@'
p103
tp104
Rp105
ag10
(g14
S')333Se\xcb@'
p106
tp107
Rp108
ag10
(g14
S'\x98\x99\x99\x99Y\xc0\xcd@'
p109
tp110
Rp111
ag10
(g14
S'hffff5\xcd@'
p112
tp113
Rp114
ag10
(g14
S'Vfff\xe6\x0e\xcb@'
p115
tp116
Rp117
ag10
(g14
S'\x9a\x99\x99\x99\xf9E\xcc@'
p118
tp119
Rp120
ag10
(g14
S'ffff\x86\x1b\xcd@'
p121
tp122
Rp123
ag10
(g14
S'efff\x06\x96\xcd@'
p124
tp125
Rp126
ag10
(g14
S'\xc8\xcc\xcc\xcc\xcc\x19\xcc@'
p127
tp128
Rp129
ag10
(g14
S'\xc6\xcc\xcc\xccl\xb5\xcb@'
p130
tp131
Rp132
ag10
(g14
S'&3333\xd5\xca@'
p133
tp134
Rp135
ag10
(g14
S'efff&S\xce@'
p136
tp137
Rp138
asssss.