(dp0
S'../Data/sqlite_63.csv'
p1
(dp2
S'../Data/sqlite_76.csv'
p3
(dp4
F0.1
(dp5
S'mmre'
p6
(dp7
S'bellwether'
p8
(lp9
cnumpy.core.multiarray
scalar
p10
(cnumpy
dtype
p11
(S'f8'
p12
I0
I1
tp13
Rp14
(I3
S'<'
p15
NNNI-1
I-1
I0
tp16
bS'H\xec\xb0|(^@@'
p17
tp18
Rp19
ag10
(g14
S'\x17\xd5\x0bYvZ@@'
p20
tp21
Rp22
ag10
(g14
S'\xa4"\xbb2xV@@'
p23
tp24
Rp25
ag10
(g14
S'b\xd2x\x06ZT@@'
p26
tp27
Rp28
ag10
(g14
S'Y\xd6\x8a\xef)M@@'
p29
tp30
Rp31
ag10
(g14
S' [\x98\x13\xfan@@'
p32
tp33
Rp34
ag10
(g14
S'g2\x82C\xe0<@@'
p35
tp36
Rp37
ag10
(g14
S'$\x84I\xae\x0e.@@'
p38
tp39
Rp40
ag10
(g14
S'D\xd0\xcaM\xab?@@'
p41
tp42
Rp43
ag10
(g14
S'1x@\xe7v:@@'
p44
tp45
Rp46
ag10
(g14
S'\xfc\xaa\xf9\x80\x8f"@@'
p47
tp48
Rp49
ag10
(g14
S'U\xcch\xe4pL@@'
p50
tp51
Rp52
ag10
(g14
S'\x82\xd1e0\x84@@@'
p53
tp54
Rp55
ag10
(g14
S'\x02p\xb9<\xa6S@@'
p56
tp57
Rp58
ag10
(g14
S'\x90^P\x17:A@@'
p59
tp60
Rp61
ag10
(g14
S'\xd7(P=\x18@@@'
p62
tp63
Rp64
ag10
(g14
S'z\xb9\x05O\xd6D@@'
p65
tp66
Rp67
ag10
(g14
S'-\x9f\\\x9e\xeff@@'
p68
tp69
Rp70
ag10
(g14
S'a|\x97\x97LO@@'
p71
tp72
Rp73
ag10
(g14
S'X\x1e>\xb3\x9cE@@'
p74
tp75
Rp76
asS'target'
p77
(lp78
g10
(g14
S'\xf9\xc1\x8d)\xef\xae1@'
p79
tp80
Rp81
ag10
(g14
S'5\xd7\xc5\x9f\x99}0@'
p82
tp83
Rp84
ag10
(g14
S'\xd5\xe72)\\51@'
p85
tp86
Rp87
ag10
(g14
S',]\x8cX\x89\xe80@'
p88
tp89
Rp90
ag10
(g14
S'F\x8cgJ\xf701@'
p91
tp92
Rp93
ag10
(g14
S'\xb2\x9fiZ\x88v/@'
p94
tp95
Rp96
ag10
(g14
S'\xf5\x90-Hr\xe92@'
p97
tp98
Rp99
ag10
(g14
S'h\x9e\x13\xe0\x19\xdd0@'
p100
tp101
Rp102
ag10
(g14
S'\xa5N\x13\xfb\xe0\xa61@'
p103
tp104
Rp105
ag10
(g14
S'\x89\xb1l\x9b\xee)1@'
p106
tp107
Rp108
ag10
(g14
S'\x8b%\xb3\xe9\x96\x033@'
p109
tp110
Rp111
ag10
(g14
S'\x8f\xc7\x04\xcb\xbfj2@'
p112
tp113
Rp114
ag10
(g14
S'5\x1a\x1eoQ\xe60@'
p115
tp116
Rp117
ag10
(g14
S'\xc2/\x00|\xb6D1@'
p118
tp119
Rp120
ag10
(g14
S'\x91\xa3\x15\xf1Q\x8f2@'
p121
tp122
Rp123
ag10
(g14
S'\x91\xbd78\r|1@'
p124
tp125
Rp126
ag10
(g14
S'\x1c)x\x95-\xb40@'
p127
tp128
Rp129
ag10
(g14
S'\xccz\xd0\xd0\xe4\x7f0@'
p130
tp131
Rp132
ag10
(g14
S'\x9c7\xb0\xa2\x1a60@'
p133
tp134
Rp135
ag10
(g14
S' \x8f`\x00\x11G0@'
p136
tp137
Rp138
asssss.