(dp0
S'../Data/sqlite_57.csv'
p1
(dp2
S'../Data/sqlite_0.csv'
p3
(dp4
F0.1
(dp5
S'abs_res'
p6
(dp7
S'bellwether'
p8
(lp9
cnumpy.core.multiarray
scalar
p10
(cnumpy
dtype
p11
(S'f8'
p12
I0
I1
tp13
Rp14
(I3
S'<'
p15
NNNI-1
I-1
I0
tp16
bS'#1\x08\x04\xa0.jA'
p17
tp18
Rp19
ag10
(g14
S'\xcd\xf7S\xabl0jA'
p20
tp21
Rp22
ag10
(g14
S'h\xbct\xb3\xcb1jA'
p23
tp24
Rp25
ag10
(g14
S'\x9a\x1a/\xd9\xc68jA'
p26
tp27
Rp28
ag10
(g14
S'\x8dA`\xf5</jA'
p29
tp30
Rp31
ag10
(g14
S'\xc6\xcc\xccHG3jA'
p32
tp33
Rp34
ag10
(g14
S'\xdf\xd0"+\xdc4jA'
p35
tp36
Rp37
ag10
(g14
S'\xee\xa7\xc6\xdf\x030jA'
p38
tp39
Rp40
ag10
(g14
S'\xc9K7y!1jA'
p41
tp42
Rp43
ag10
(g14
S'&\\\x8f\xa6\r1jA'
p44
tp45
Rp46
ag10
(g14
S'\xa7\x9b\xc4\xd0\xaa1jA'
p47
tp48
Rp49
ag10
(g14
S'\xc4\xca\xa1U$-jA'
p50
tp51
Rp52
ag10
(g14
S'\x1f\x06\x81\x01\xdc9jA'
p53
tp54
Rp55
ag10
(g14
S'#\xdb\xf9\x1a\xde0jA'
p56
tp57
Rp58
ag10
(g14
S'\xd3"\xdb\x11\x9a3jA'
p59
tp60
Rp61
ag10
(g14
S'\xf6\xff\xffw^0jA'
p62
tp63
Rp64
ag10
(g14
S'\x19/\xddX_5jA'
p65
tp66
Rp67
ag10
(g14
S',\x08\xac8\xaf,jA'
p68
tp69
Rp70
ag10
(g14
S']\x8f\xc2\x19\x132jA'
p71
tp72
Rp73
ag10
(g14
S'\xbd\xca\xa1\x19\x100jA'
p74
tp75
Rp76
asS'target'
p77
(lp78
g10
(g14
S'\x01\xd7\xa3p=Rh@'
p79
tp80
Rp81
ag10
(g14
S'\xe5\xf9~j\xbc\x8cf@'
p82
tp83
Rp84
ag10
(g14
S'\x83?5^\xba\xadf@'
p85
tp86
Rp87
ag10
(g14
S'\x01\x7fj\xbctOj@'
p88
tp89
Rp90
ag10
(g14
S'\x07\xac\x1cZd\xe7h@'
p91
tp92
Rp93
ag10
(g14
S'g\xbct\x93\x18\xa8h@'
p94
tp95
Rp96
ag10
(g14
S'\x9bC\x8bl\xe7\xa7g@'
p97
tp98
Rp99
ag10
(g14
S"Y;\xdfO\x8d'i@"
p100
tp101
Rp102
ag10
(g14
S'L\xe1z\x14\xae\xebg@'
p103
tp104
Rp105
ag10
(g14
S'\xbdG\xe1z\x14\x82m@'
p106
tp107
Rp108
ag10
(g14
S'\xb7\x1cZd;\x1bn@'
p109
tp110
Rp111
ag10
(g14
S'[b\x10X9\x84i@'
p112
tp113
Rp114
ag10
(g14
S'|\xebQ\xb8\x1eam@'
p115
tp116
Rp117
ag10
(g14
S'3\xdfO\x8d\x97Rj@'
p118
tp119
Rp120
ag10
(g14
S'\x8cl\xe7\xfb\xa9\ti@'
p121
tp122
Rp123
ag10
(g14
S'3\x87\x16\xd9\xce\xafj@'
p124
tp125
Rp126
ag10
(g14
S'hffff\nj@'
p127
tp128
Rp129
ag10
(g14
S'Z\x0e-\xb2\x9dSi@'
p130
tp131
Rp132
ag10
(g14
S':\x08\xac\x1cZpg@'
p133
tp134
Rp135
ag10
(g14
S'\xdf\xf9~j\xbc\x00h@'
p136
tp137
Rp138
asssss.