(dp0
S'../Data/sqlite_26.csv'
p1
(dp2
S'../Data/sqlite_59.csv'
p3
(dp4
F0.4
(dp5
S'mmre'
p6
(dp7
S'bellwether'
p8
(lp9
cnumpy.core.multiarray
scalar
p10
(cnumpy
dtype
p11
(S'f8'
p12
I0
I1
tp13
Rp14
(I3
S'<'
p15
NNNI-1
I-1
I0
tp16
bS'\xbbOC\x18PGV@'
p17
tp18
Rp19
ag10
(g14
S'\x18\xf2\xda\xd8\xb0JV@'
p20
tp21
Rp22
ag10
(g14
S'^U\xe837\x15V@'
p23
tp24
Rp25
ag10
(g14
S'\x8b\xd6\xb2S\xf1\x1bV@'
p26
tp27
Rp28
ag10
(g14
S'\x83\xde,\xec\xd0;V@'
p29
tp30
Rp31
ag10
(g14
S'\xb8\xb9V\xc6\xe6|V@'
p32
tp33
Rp34
ag10
(g14
S'\xf050I\x7fbV@'
p35
tp36
Rp37
ag10
(g14
S'\xc3\xafn\x0cI+V@'
p38
tp39
Rp40
ag10
(g14
S'\xc8S\xcb\x7f$\x1bV@'
p41
tp42
Rp43
ag10
(g14
S'\xf8s\xc1k)\x85V@'
p44
tp45
Rp46
ag10
(g14
S'\nn)\xaa\x05FV@'
p47
tp48
Rp49
ag10
(g14
S'\x8b\xbct"\xfeOV@'
p50
tp51
Rp52
ag10
(g14
S'\x88\x93\xb2c\xdf\xf8U@'
p53
tp54
Rp55
ag10
(g14
S'<\xc7}\x019kV@'
p56
tp57
Rp58
ag10
(g14
S'\xd8?\xfc?\x83+V@'
p59
tp60
Rp61
ag10
(g14
S'\xbdI\xa5j%\x10V@'
p62
tp63
Rp64
ag10
(g14
S'\xf9\xfa*k\x13\xf3U@'
p65
tp66
Rp67
ag10
(g14
S'n\x85\x0c3t8V@'
p68
tp69
Rp70
ag10
(g14
S'\x1dG\xf9>\xa3\x16V@'
p71
tp72
Rp73
ag10
(g14
S'w\x9d[V\xea\x12V@'
p74
tp75
Rp76
asS'target'
p77
(lp78
g10
(g14
S'K\xd2g\xf5O}&@'
p79
tp80
Rp81
ag10
(g14
S'N0f\xf0\xca\xb7$@'
p82
tp83
Rp84
ag10
(g14
S'e\x12\xd1\xd1\xacU&@'
p85
tp86
Rp87
ag10
(g14
S'6\x18eeF\xa5$@'
p88
tp89
Rp90
ag10
(g14
S'\xb5\xf9\xfa}?L%@'
p91
tp92
Rp93
ag10
(g14
S'e\xf43x+\x1b$@'
p94
tp95
Rp96
ag10
(g14
S"{5\x80\x92H\xf9'@"
p97
tp98
Rp99
ag10
(g14
S'\xfe\xa8\x82\x15s\x0b%@'
p100
tp101
Rp102
ag10
(g14
S'\xe0\x9b\xdb\xf6\x10f&@'
p103
tp104
Rp105
ag10
(g14
S'm=\x9f\x89\x96|%@'
p106
tp107
Rp108
ag10
(g14
S'\x0b\x16\x18\x9f8\x07&@'
p109
tp110
Rp111
ag10
(g14
S"\x9e\t\xf9m#M'@"
p112
tp113
Rp114
ag10
(g14
S'xD\xb4(wG$@'
p115
tp116
Rp117
ag10
(g14
S'U\x83\xfd{\xa4\xe2%@'
p118
tp119
Rp120
ag10
(g14
S'\xc3\xe12\xfe\x07-&@'
p121
tp122
Rp123
ag10
(g14
S'x\x81a\x03\xe6\xa2$@'
p124
tp125
Rp126
ag10
(g14
S'\\\x8b\xdb\xa4\xd1!%@'
p127
tp128
Rp129
ag10
(g14
S"\xfb;D\xb9\x1dc'@"
p130
tp131
Rp132
ag10
(g14
S'C1\x9c3E\x8a&@'
p133
tp134
Rp135
ag10
(g14
S"\xf4\xf4\xf4\xb6\x8d\x02'@"
p136
tp137
Rp138
asssss.