(dp0
S'../Data/sqlite_65.csv'
p1
(dp2
S'../Data/sqlite_59.csv'
p3
(dp4
F0.3
(dp5
S'mmre'
p6
(dp7
S'bellwether'
p8
(lp9
cnumpy.core.multiarray
scalar
p10
(cnumpy
dtype
p11
(S'f8'
p12
I0
I1
tp13
Rp14
(I3
S'<'
p15
NNNI-1
I-1
I0
tp16
bS'\x10\x12\x19D\xedUV@'
p17
tp18
Rp19
ag10
(g14
S'\xdeg\x8e\xf1\xb7WV@'
p20
tp21
Rp22
ag10
(g14
S'\xd1\xd7t\\gSV@'
p23
tp24
Rp25
ag10
(g14
S'A\x85 I\xc2WV@'
p26
tp27
Rp28
ag10
(g14
S'\xe87\x8b\xc7PVV@'
p29
tp30
Rp31
ag10
(g14
S'\xf6\xdf\xdc\tGXV@'
p32
tp33
Rp34
ag10
(g14
S'\xf9+\x7fc%UV@'
p35
tp36
Rp37
ag10
(g14
S'^\xa1\xb7&yYV@'
p38
tp39
Rp40
ag10
(g14
S'\x0c\xd4\xb4\xa1PUV@'
p41
tp42
Rp43
ag10
(g14
S'u7T\xe1\xaeXV@'
p44
tp45
Rp46
ag10
(g14
S'\xc4\x03\xfc8ZTV@'
p47
tp48
Rp49
ag10
(g14
S'\xd9\xf2\x80\x8e\xacWV@'
p50
tp51
Rp52
ag10
(g14
S'lr1.\x03VV@'
p53
tp54
Rp55
ag10
(g14
S'\x7fj\xb1jnVV@'
p56
tp57
Rp58
ag10
(g14
S'\xbd\x9c%\xc5DVV@'
p59
tp60
Rp61
ag10
(g14
S'\\k\x9b\x8f\x9bTV@'
p62
tp63
Rp64
ag10
(g14
S'\xfea\x9er(UV@'
p65
tp66
Rp67
ag10
(g14
S'\'\x17"\\\xb8YV@'
p68
tp69
Rp70
ag10
(g14
S'\xa6\x19\x11\x19_VV@'
p71
tp72
Rp73
ag10
(g14
S'\xf9z \xa0FUV@'
p74
tp75
Rp76
asS'target'
p77
(lp78
g10
(g14
S'>F\x11\xbc\xfc;%@'
p79
tp80
Rp81
ag10
(g14
S'\xd8as9\xd3g&@'
p82
tp83
Rp84
ag10
(g14
S'\xc2\xd1:\xf9,\x0b%@'
p85
tp86
Rp87
ag10
(g14
S"@\xa4\x85\xe6\xffd'@"
p88
tp89
Rp90
ag10
(g14
S'\x894zB1\x9d%@'
p91
tp92
Rp93
ag10
(g14
S'=\x9e}\xf0\x80.&@'
p94
tp95
Rp96
ag10
(g14
S"\x02\x8f\x94\x99\xfc\xc4'@"
p97
tp98
Rp99
ag10
(g14
S'.L\x00\x01X~%@'
p100
tp101
Rp102
ag10
(g14
S'\xc0\xea\x9dw\x9e\xe4$@'
p103
tp104
Rp105
ag10
(g14
S'CD_{\x8b\x9f%@'
p106
tp107
Rp108
ag10
(g14
S'|\xd8 \xc1g\x7f%@'
p109
tp110
Rp111
ag10
(g14
S'\xad\xc3I\xc6\xa3\xcc&@'
p112
tp113
Rp114
ag10
(g14
S' \xe0\xa9\x16]\xe6$@'
p115
tp116
Rp117
ag10
(g14
S't_\xe5>\xcb\xc6%@'
p118
tp119
Rp120
ag10
(g14
S'\xc9\xfb\xb1<\x1c\x83&@'
p121
tp122
Rp123
ag10
(g14
S'\xd3\xfe`I\x8b\xdb%@'
p124
tp125
Rp126
ag10
(g14
S'\x892\xb4\xa8*l&@'
p127
tp128
Rp129
ag10
(g14
S'2\xb4)\xe3\x04-%@'
p130
tp131
Rp132
ag10
(g14
S"\x07d\xb6\xfa\x1d['@"
p133
tp134
Rp135
ag10
(g14
S'\x1e\xd2\xdb\x96)h%@'
p136
tp137
Rp138
asssss.