(dp0
S'../Data/sqlite_67.csv'
p1
(dp2
S'../Data/sqlite_85.csv'
p3
(dp4
F0.35
(dp5
S'abs_res'
p6
(dp7
S'bellwether'
p8
(lp9
cnumpy.core.multiarray
scalar
p10
(cnumpy
dtype
p11
(S'f8'
p12
I0
I1
tp13
Rp14
(I3
S'<'
p15
NNNI-1
I-1
I0
tp16
bS'yww\x1fh!PA'
p17
tp18
Rp19
ag10
(g14
S'433\xe3Y^PA'
p20
tp21
Rp22
ag10
(g14
S'\xda@\xa7\x95\xc3\x1ePA'
p23
tp24
Rp25
ag10
(g14
S'r\xa0\xd3\xc67APA'
p26
tp27
Rp28
ag10
(g14
S'\x19K~QV\x8bPA'
p29
tp30
Rp31
ag10
(g14
S'\xe7z\x14F(HPA'
p32
tp33
Rp34
ag10
(g14
S'\x9a\xfcbi\xa1\xd8OA'
p35
tp36
Rp37
ag10
(g14
S'\xe2\xdd\xdd\x1dP(PA'
p38
tp39
Rp40
ag10
(g14
S'u=\n7\x99\xd1OA'
p41
tp42
Rp43
ag10
(g14
S'\xde@\xa7\xf5d,PA'
p44
tp45
Rp46
ag10
(g14
S'\xc0X\xf2\x03\x8c\x0bPA'
p47
tp48
Rp49
ag10
(g14
S'}ww\xb7\x88/PA'
p50
tp51
Rp52
ag10
(g14
S'\xc8\x92_\xd4\x1b\x19PA'
p53
tp54
Rp55
ag10
(g14
S'u\xa0\xd3.\x065PA'
p56
tp57
Rp58
ag10
(g14
S'\xfd\xc5\x92\xaf\x0f\nPA'
p59
tp60
Rp61
ag10
(g14
S'\xbeX\xf2\xd3M\x05PA'
p62
tp63
Rp64
ag10
(g14
S'\x12t\xdapg&PA'
p65
tp66
Rp67
ag10
(g14
S'EDD,O?PA'
p68
tp69
Rp70
ag10
(g14
S'\xcc/\x96,\x06\x04PA'
p71
tp72
Rp73
ag10
(g14
S'\t:mH\xd9nPA'
p74
tp75
Rp76
asS'target'
p77
(lp78
g10
(g14
S'R\xb8\x1e\x05\xd6\xc3:A'
p79
tp80
Rp81
ag10
(g14
S'\xd0\xcc\xcc\xcc\x8a\xbb:A'
p82
tp83
Rp84
ag10
(g14
S'9\n\xd7\xa3m\x14=A'
p85
tp86
Rp87
ag10
(g14
S'N\xe1z\xd4Z\xf7;A'
p88
tp89
Rp90
ag10
(g14
S'\x0e\xd7\xa3\xb0K\x92:A'
p91
tp92
Rp93
ag10
(g14
S']\x8f\xc2\xb5E\x1b=A'
p94
tp95
Rp96
ag10
(g14
S'~\xebQ8D];A'
p97
tp98
Rp99
ag10
(g14
S'433\xf3l\x0e;A'
p100
tp101
Rp102
ag10
(g14
S'\xd4@\xa7M\xc4\x1f<A'
p103
tp104
Rp105
ag10
(g14
S'b\x8f\xc2\xf5\xb4\xbf:A'
p106
tp107
Rp108
ag10
(g14
S'\x15\xaeGay,9A'
p109
tp110
Rp111
ag10
(g14
S'#\\\x8f\x02\xdd\x0f>A'
p112
tp113
Rp114
ag10
(g14
S'\xc2\x1e\x85k\x90">A'
p115
tp116
Rp117
ag10
(g14
S'\xe6\xa3p\xbd\xc0\xbe:A'
p118
tp119
Rp120
ag10
(g14
S'I\xe1zT\x81\x10;A'
p121
tp122
Rp123
ag10
(g14
S'\xc0\xf5(\\\x0el;A'
p124
tp125
Rp126
ag10
(g14
S'\xe8z\x14n+\x1a;A'
p127
tp128
Rp129
ag10
(g14
S'\xce\xcc\xcc\xcc\x1e\x00<A'
p130
tp131
Rp132
ag10
(g14
S'\xda\xa3p=\x19\x7f:A'
p133
tp134
Rp135
ag10
(g14
S'\xdbz\x14N]M<A'
p136
tp137
Rp138
asssss.