(dp0
S'../Data/sqlite_29.csv'
p1
(dp2
S'../Data/sqlite_82.csv'
p3
(dp4
F0.2
(dp5
S'abs_res'
p6
(dp7
S'bellwether'
p8
(lp9
cnumpy.core.multiarray
scalar
p10
(cnumpy
dtype
p11
(S'f8'
p12
I0
I1
tp13
Rp14
(I3
S'<'
p15
NNNI-1
I-1
I0
tp16
bS'\xc2\x92_LVyAA'
p17
tp18
Rp19
ag10
(g14
S'a\x82\x07\x13\xc1xAA'
p20
tp21
Rp22
ag10
(g14
S'4\xb4\xc8\xa6\x0cyAA'
p23
tp24
Rp25
ag10
(g14
S'\x0e-\xb2M\xfaxAA'
p26
tp27
Rp28
ag10
(g14
S'\xf6o\x84\xe2\xdcxAA'
p29
tp30
Rp31
ag10
(g14
S'!iJ\x85\xf3xAA'
p32
tp33
Rp34
ag10
(g14
S'X\xabc\x12qyAA'
p35
tp36
Rp37
ag10
(g14
S'\xa6\xe2\xecc"yAA'
p38
tp39
Rp40
ag10
(g14
S'?|\x86=\xd8yAA'
p41
tp42
Rp43
ag10
(g14
S'\x98\x0bI\xa3WzAA'
p44
tp45
Rp46
ag10
(g14
S'\x8b\xed|\x8feyAA'
p47
tp48
Rp49
ag10
(g14
S'\xa7p=\xdaYyAA'
p50
tp51
Rp52
ag10
(g14
S'*\xce>|\x00xAA'
p53
tp54
Rp55
ag10
(g14
S'\xba\xbb\xbb;\x8eyAA'
p56
tp57
Rp58
ag10
(g14
S'\xd7\xa3p\x8d\x7fyAA'
p59
tp60
Rp61
ag10
(g14
S'g\x03\x9d\x16\xebxAA'
p62
tp63
Rp64
ag10
(g14
S'\xf7*\x87F\x1eyAA'
p65
tp66
Rp67
ag10
(g14
S'\x05\xf3D=9yAA'
p68
tp69
Rp70
ag10
(g14
S'/33\x03\nyAA'
p71
tp72
Rp73
ag10
(g14
S'.\x08\xac\xbc{yAA'
p74
tp75
Rp76
asS'target'
p77
(lp78
g10
(g14
S'N\xe3\xa5\x9b\xc4\x1ez@'
p79
tp80
Rp81
ag10
(g14
S'h\x91\xed|?R\x84@'
p82
tp83
Rp84
ag10
(g14
S'\xd0Mb\x10Xy\x80@'
p85
tp86
Rp87
ag10
(g14
S'f;\xdfO\x8d\xf7u@'
p88
tp89
Rp90
ag10
(g14
S'\xa5E\xb6\xf3\xfd\x94w@'
p91
tp92
Rp93
ag10
(g14
S'>3333\x0c{@'
p94
tp95
Rp96
ag10
(g14
S'\t-\xb2\x9d\xefl{@'
p97
tp98
Rp99
ag10
(g14
S'\xb1\xf3\xfd\xd4\xf8\x18\x80@'
p100
tp101
Rp102
ag10
(g14
S'=\n\xd7\xa3\xf0\xd6\x82@'
p103
tp104
Rp105
ag10
(g14
S'\xf3\xfd\xd4x\xe9\x85\x80@'
p106
tp107
Rp108
ag10
(g14
S'1\x87\x16\xd9N0\x84@'
p109
tp110
Rp111
ag10
(g14
S'\xee(\\\x8f\xc2\x0bz@'
p112
tp113
Rp114
ag10
(g14
S'\x81\xc2\xf5(\\gx@'
p115
tp116
Rp117
ag10
(g14
S'`ffff\x01z@'
p118
tp119
Rp120
ag10
(g14
S'\x19\xdb\xf9~j\xe2\x80@'
p121
tp122
Rp123
ag10
(g14
S'\x1e1\x08\xac\x1c<v@'
p124
tp125
Rp126
ag10
(g14
S'[d;\xdfO\xb0}@'
p127
tp128
Rp129
ag10
(g14
S'~\x95C\x8bl}~@'
p130
tp131
Rp132
ag10
(g14
S'A7\x89A`i\x81@'
p133
tp134
Rp135
ag10
(g14
S'\x0e\x06\x81\x95C/|@'
p136
tp137
Rp138
asssss.