(dp0
S'../Data/sqlite_44.csv'
p1
(dp2
S'../Data/sqlite_90.csv'
p3
(dp4
F0.15
(dp5
S'mmre'
p6
(dp7
S'bellwether'
p8
(lp9
cnumpy.core.multiarray
scalar
p10
(cnumpy
dtype
p11
(S'f8'
p12
I0
I1
tp13
Rp14
(I3
S'<'
p15
NNNI-1
I-1
I0
tp16
bS'\n\xd2\xe3\xc1gDX@'
p17
tp18
Rp19
ag10
(g14
S'\xbfy\xa2)\x05EX@'
p20
tp21
Rp22
ag10
(g14
S'\xbc*\xd2\xc9\xafCX@'
p23
tp24
Rp25
ag10
(g14
S'\xc9\x9d\x95\x83\xd2BX@'
p26
tp27
Rp28
ag10
(g14
S'\x1c\xa0 =\nDX@'
p29
tp30
Rp31
ag10
(g14
S'\xadx\x97\xf74CX@'
p32
tp33
Rp34
ag10
(g14
S' \xdc\xc8,\x14AX@'
p35
tp36
Rp37
ag10
(g14
S'c\x1e\xd6\x99rAX@'
p38
tp39
Rp40
ag10
(g14
S'jcN\xb6\xdf?X@'
p41
tp42
Rp43
ag10
(g14
S'~{\x07^AEX@'
p44
tp45
Rp46
ag10
(g14
S'\xb1\xa0\xc0\x11\x07AX@'
p47
tp48
Rp49
ag10
(g14
S'\x88``<\x8bCX@'
p50
tp51
Rp52
ag10
(g14
S'\xd5\xf8\x13\xdb\xa4BX@'
p53
tp54
Rp55
ag10
(g14
S'\x8302\xc5ZDX@'
p56
tp57
Rp58
ag10
(g14
S'1\x87\x89Z\xd9BX@'
p59
tp60
Rp61
ag10
(g14
S'\xf7\xe4,}\x9b@X@'
p62
tp63
Rp64
ag10
(g14
S'3\x8f\xae\xcf\rDX@'
p65
tp66
Rp67
ag10
(g14
S't\xd5\xb0!\xadBX@'
p68
tp69
Rp70
ag10
(g14
S'i8\xd5c\xbd@X@'
p71
tp72
Rp73
ag10
(g14
S'\xf6\xf5h\x95\x11CX@'
p74
tp75
Rp76
asS'target'
p77
(lp78
g10
(g14
S'X\x98J\xe4\x94\xccA@'
p79
tp80
Rp81
ag10
(g14
S'\xda4\xae\x9a(\x07B@'
p82
tp83
Rp84
ag10
(g14
S'\xf5P\x18\x1br\xd2A@'
p85
tp86
Rp87
ag10
(g14
S'\xa6g\x11\x00\x00\x84A@'
p88
tp89
Rp90
ag10
(g14
S'\xe9y\xfe\xf6\xba6B@'
p91
tp92
Rp93
ag10
(g14
S'$\xed\x89\x8eO!B@'
p94
tp95
Rp96
ag10
(g14
S'H\x7f\x98+_\xe0A@'
p97
tp98
Rp99
ag10
(g14
S'\x03\xd4\xb3\xd7\xa6\xf4C@'
p100
tp101
Rp102
ag10
(g14
S'!\xd9\x0fPO\xc0@@'
p103
tp104
Rp105
ag10
(g14
S'\xf3\xf3<?\xd4,B@'
p106
tp107
Rp108
ag10
(g14
S'f\xed\xf3\xc7+\xe6B@'
p109
tp110
Rp111
ag10
(g14
S'}OX\x90:+A@'
p112
tp113
Rp114
ag10
(g14
S'P\xa3)B5\xeeA@'
p115
tp116
Rp117
ag10
(g14
S'b\xbd\x8fo\xbd\x1aA@'
p118
tp119
Rp120
ag10
(g14
S'\xdf\xae\x89\xf5\xb5\xfcA@'
p121
tp122
Rp123
ag10
(g14
S'\x13w\xb9*\xad}C@'
p124
tp125
Rp126
ag10
(g14
S'M$\x91\xf1\\.C@'
p127
tp128
Rp129
ag10
(g14
S'\x1aa\x984\xd6\xa9?@'
p130
tp131
Rp132
ag10
(g14
S'R\xf8(+\xc0\x8eA@'
p133
tp134
Rp135
ag10
(g14
S'\xa3\xd9U\x032GB@'
p136
tp137
Rp138
asssss.