(dp0
S'../Data/sqlite_58.csv'
p1
(dp2
S'../Data/sqlite_93.csv'
p3
(dp4
F0.05
(dp5
S'mmre'
p6
(dp7
S'bellwether'
p8
(lp9
cnumpy.core.multiarray
scalar
p10
(cnumpy
dtype
p11
(S'f8'
p12
I0
I1
tp13
Rp14
(I3
S'<'
p15
NNNI-1
I-1
I0
tp16
bS'"B\x9b\xb8}-g@'
p17
tp18
Rp19
ag10
(g14
S'\xca\xd7f\x16~Tg@'
p20
tp21
Rp22
ag10
(g14
S'\x8aE\xf6\xec.=g@'
p23
tp24
Rp25
ag10
(g14
S'\xf4n\x86W\x8bEg@'
p26
tp27
Rp28
ag10
(g14
S'O\x12xM\xb8Dg@'
p29
tp30
Rp31
ag10
(g14
S'\x91\x06\x08tnJg@'
p32
tp33
Rp34
ag10
(g14
S'\x98\xd7H\xae,$g@'
p35
tp36
Rp37
ag10
(g14
S'1(\x03\x93E:g@'
p38
tp39
Rp40
ag10
(g14
S';\x1c^\x92>*g@'
p41
tp42
Rp43
ag10
(g14
S':O-\x9d@\x18g@'
p44
tp45
Rp46
ag10
(g14
S'\xab\xe0\xfe\x98\xb5%g@'
p47
tp48
Rp49
ag10
(g14
S'X\xd7\\@+Cg@'
p50
tp51
Rp52
ag10
(g14
S'G6\xe6S\x96>g@'
p53
tp54
Rp55
ag10
(g14
S'\x8e!:4\xc5\x18g@'
p56
tp57
Rp58
ag10
(g14
S'Xm\r\x9f\xa0=g@'
p59
tp60
Rp61
ag10
(g14
S'\xf6\xa7\x8f\xfe\xaf7g@'
p62
tp63
Rp64
ag10
(g14
S'\x13|\xb4\xda\x965g@'
p65
tp66
Rp67
ag10
(g14
S"\xe4\xfb'\xabkDg@"
p68
tp69
Rp70
ag10
(g14
S'^\xb1n$c=g@'
p71
tp72
Rp73
ag10
(g14
S'%A21\xf5#g@'
p74
tp75
Rp76
asS'target'
p77
(lp78
g10
(g14
S'79t\xba\x9b\x12H@'
p79
tp80
Rp81
ag10
(g14
S'\xeb\x93\x94\xa67\x80V@'
p82
tp83
Rp84
ag10
(g14
S'<s\x99\xa5\xd2\xa7U@'
p85
tp86
Rp87
ag10
(g14
S'S\xad\x8a\xa5\x91\xbeY@'
p88
tp89
Rp90
ag10
(g14
S'x\xf6\xd2\x12H\x1cV@'
p91
tp92
Rp93
ag10
(g14
S'\xaf\xd2j>\xe6\x8a[@'
p94
tp95
Rp96
ag10
(g14
S'\x94\xe2I\xa5\xe7\xe2R@'
p97
tp98
Rp99
ag10
(g14
S'\xa3\x96\x8f\x8a??K@'
p100
tp101
Rp102
ag10
(g14
S'\xa6\x88Fk\x85\xb8W@'
p103
tp104
Rp105
ag10
(g14
S'\xfe\nO\x98Q=C@'
p106
tp107
Rp108
ag10
(g14
S'[\x1c\xe5c\xfd\xceE@'
p109
tp110
Rp111
ag10
(g14
S'`?\xc8\xc3\xec\xb9X@'
p112
tp113
Rp114
ag10
(g14
S'\x8f\x7f\xbe\x01\x00KH@'
p115
tp116
Rp117
ag10
(g14
S'\xe8u\xfd\xbf7\xb3=@'
p118
tp119
Rp120
ag10
(g14
S'rt~\xe2\x10m^@'
p121
tp122
Rp123
ag10
(g14
S'\xd1\xf3\xef\xf0!\xf6T@'
p124
tp125
Rp126
ag10
(g14
S'\xc3\xd3E\xc7s\x00U@'
p127
tp128
Rp129
ag10
(g14
S'\x11R\xb9\x82\xabWa@'
p130
tp131
Rp132
ag10
(g14
S'N\x02\x17\x16\xee\x96\\@'
p133
tp134
Rp135
ag10
(g14
S'\xff\xc5h\xd9b\x0cF@'
p136
tp137
Rp138
asssss.