(dp0
S'../Data/sqlite_45.csv'
p1
(dp2
S'../Data/sqlite_77.csv'
p3
(dp4
F0.15
(dp5
S'mmre'
p6
(dp7
S'bellwether'
p8
(lp9
cnumpy.core.multiarray
scalar
p10
(cnumpy
dtype
p11
(S'f8'
p12
I0
I1
tp13
Rp14
(I3
S'<'
p15
NNNI-1
I-1
I0
tp16
bS'1\xedF;<gN@'
p17
tp18
Rp19
ag10
(g14
S'\xed\xd1\xa7\xbe\xe9\\N@'
p20
tp21
Rp22
ag10
(g14
S'\xe58o\xca\x07oN@'
p23
tp24
Rp25
ag10
(g14
S'\x8aD)\x0e\xe0aN@'
p26
tp27
Rp28
ag10
(g14
S'<L\xdd\xee!YN@'
p29
tp30
Rp31
ag10
(g14
S'e\xacT@\xcfTN@'
p32
tp33
Rp34
ag10
(g14
S'h-\xe5aNvN@'
p35
tp36
Rp37
ag10
(g14
S'\xe0\xd0\xa8\xe7\xb8eN@'
p38
tp39
Rp40
ag10
(g14
S'3W\xa3C[fN@'
p41
tp42
Rp43
ag10
(g14
S'5\x14\xa4-\xb5cN@'
p44
tp45
Rp46
ag10
(g14
S'\xb2P\xfboS_N@'
p47
tp48
Rp49
ag10
(g14
S'\x1e\xb7\n\x8b\xc8lN@'
p50
tp51
Rp52
ag10
(g14
S'\xf7\xf3S3\xcd}N@'
p53
tp54
Rp55
ag10
(g14
S'\x1a\xfa\x98\x1c\x93mN@'
p56
tp57
Rp58
ag10
(g14
S'\xeeuC\xb3\xe1sN@'
p59
tp60
Rp61
ag10
(g14
S'\x800B\xc5\xb3dN@'
p62
tp63
Rp64
ag10
(g14
S'\x0c\xe8F\xf7onN@'
p65
tp66
Rp67
ag10
(g14
S'\xfa\x98F\xc2\xaagN@'
p68
tp69
Rp70
ag10
(g14
S'\xb7\x89\xc3\xbaHhN@'
p71
tp72
Rp73
ag10
(g14
S'\xfe\x1f\x14\x85\x9dSN@'
p74
tp75
Rp76
asS'target'
p77
(lp78
g10
(g14
S'\xe486ex\xc27@'
p79
tp80
Rp81
ag10
(g14
S"\xd8\x8e\xbd\x9a?'8@"
p82
tp83
Rp84
ag10
(g14
S'\xf7\x96\xee\xdcD\x934@'
p85
tp86
Rp87
ag10
(g14
S'\\D\xd05\xaa\xec6@'
p88
tp89
Rp90
ag10
(g14
S') x^Br6@'
p91
tp92
Rp93
ag10
(g14
S'k9\rhk66@'
p94
tp95
Rp96
ag10
(g14
S'\x8a8.X\x0c\x8c5@'
p97
tp98
Rp99
ag10
(g14
S'\x00\xe3\xf4?p$6@'
p100
tp101
Rp102
ag10
(g14
S'\x89\xf8m\xdd\x80t6@'
p103
tp104
Rp105
ag10
(g14
S' \xb6K<\x8b\x106@'
p106
tp107
Rp108
ag10
(g14
S'*\xc25]\\\xf25@'
p109
tp110
Rp111
ag10
(g14
S'|OJ\x00\xdcr4@'
p112
tp113
Rp114
ag10
(g14
S'?\x01G\x81\xa9Z5@'
p115
tp116
Rp117
ag10
(g14
S'\xe2S\x1e\xa9\xee\x876@'
p118
tp119
Rp120
ag10
(g14
S'\xba\xa1\xc8\xae\xbc\x894@'
p121
tp122
Rp123
ag10
(g14
S'\xe8~\xf2!\xc0\x8e6@'
p124
tp125
Rp126
ag10
(g14
S'\xb0&\xbfg\xc0}6@'
p127
tp128
Rp129
ag10
(g14
S'&\x88\x14\xab-\x1a4@'
p130
tp131
Rp132
ag10
(g14
S'\x95O\x89\x05y\xee5@'
p133
tp134
Rp135
ag10
(g14
S'\x84;V\xc9w]5@'
p136
tp137
Rp138
asssss.