(dp0
S'../Data/sqlite_32.csv'
p1
(dp2
S'../Data/sqlite_72.csv'
p3
(dp4
F0.3
(dp5
S'abs_res'
p6
(dp7
S'bellwether'
p8
(lp9
cnumpy.core.multiarray
scalar
p10
(cnumpy
dtype
p11
(S'f8'
p12
I0
I1
tp13
Rp14
(I3
S'<'
p15
NNNI-1
I-1
I0
tp16
bS'\xfa~j\\\xbf-@A'
p17
tp18
Rp19
ag10
(g14
S'L\xe1z$\xf3.@A'
p20
tp21
Rp22
ag10
(g14
S':^\xba\x99d0@A'
p23
tp24
Rp25
ag10
(g14
S'=\xdfO\xfd\x820@A'
p26
tp27
Rp28
ag10
(g14
S"J\x0c\x02K'0@A"
p29
tp30
Rp31
ag10
(g14
S'\xb9\xf3\xfdt\x030@A'
p32
tp33
Rp34
ag10
(g14
S'`\xbaI\x0c\xf5/@A'
p35
tp36
Rp37
ag10
(g14
S'#Zdk*0@A'
p38
tp39
Rp40
ag10
(g14
S'\x9bn\x12#F1@A'
p41
tp42
Rp43
ag10
(g14
S'\xca\xa1E\x063-@A'
p44
tp45
Rp46
ag10
(g14
S'D\x8bl\xb7\x140@A'
p47
tp48
Rp49
ag10
(g14
S'\xbd\xca\xa1\x05).@A'
p50
tp51
Rp52
ag10
(g14
S'\xec\xd0"\x8bM/@A'
p53
tp54
Rp55
ag10
(g14
S'\xd7x\xe9&;.@A'
p56
tp57
Rp58
ag10
(g14
S'6\x89A \xd2-@A'
p59
tp60
Rp61
ag10
(g14
S'\xf0Q\xb8\xdeW-@A'
p62
tp63
Rp64
ag10
(g14
S'\x7f\x95C\xebD0@A'
p65
tp66
Rp67
ag10
(g14
S'\x8a\x16\xd9\x9e\x99-@A'
p68
tp69
Rp70
ag10
(g14
S'\xee|?%l-@A'
p71
tp72
Rp73
ag10
(g14
S'\tV\x0e}\xcd0@A'
p74
tp75
Rp76
asS'target'
p77
(lp78
g10
(g14
S'\xe1O\x8d\x97n2O@'
p79
tp80
Rp81
ag10
(g14
S'1\x08\xac\x1cZ$P@'
p82
tp83
Rp84
ag10
(g14
S'\xd3Mb\x10XQP@'
p85
tp86
Rp87
ag10
(g14
S'\xc3\x9f\x1a/\xddPP@'
p88
tp89
Rp90
ag10
(g14
S'\x98\x99\x99\x99\x99\xb9M@'
p91
tp92
Rp93
ag10
(g14
S'*\x85\xebQ\xb8FN@'
p94
tp95
Rp96
ag10
(g14
S'@\x8bl\xe7\xfb\tO@'
p97
tp98
Rp99
ag10
(g14
S'<\xdfO\x8d\x97\xeeN@'
p100
tp101
Rp102
ag10
(g14
S'\x94\x99\x99\x99\x99\x99N@'
p103
tp104
Rp105
ag10
(g14
S'@`\xe5\xd0"\xd3P@'
p106
tp107
Rp108
ag10
(g14
S'\x18\xd9\xce\xf7SsO@'
p109
tp110
Rp111
ag10
(g14
S'A5^\xbaI\x9cN@'
p112
tp113
Rp114
ag10
(g14
S'\xa9\xc4 \xb0rxM@'
p115
tp116
Rp117
ag10
(g14
S'S7\x89A`%O@'
p118
tp119
Rp120
ag10
(g14
S'\x1eX9\xb4\xc8\x86O@'
p121
tp122
Rp123
ag10
(g14
S'\xd8\xa1E\xb6\xf3\x1dN@'
p124
tp125
Rp126
ag10
(g14
S'\xc8K7\x89A\x10O@'
p127
tp128
Rp129
ag10
(g14
S'\xb0G\xe1z\x14\xa6L@'
p130
tp131
Rp132
ag10
(g14
S'\x05\xd3Mb\x10\xe8N@'
p133
tp134
Rp135
ag10
(g14
S'\x8a?5^\xba\xe9O@'
p136
tp137
Rp138
asssss.