(dp0
S'../Data/sqlite_95.csv'
p1
(dp2
S'../Data/sqlite_8.csv'
p3
(dp4
F0.25
(dp5
S'abs_res'
p6
(dp7
S'bellwether'
p8
(lp9
cnumpy.core.multiarray
scalar
p10
(cnumpy
dtype
p11
(S'f8'
p12
I0
I1
tp13
Rp14
(I3
S'<'
p15
NNNI-1
I-1
I0
tp16
bS'\x14t\xda`\xd6=6A'
p17
tp18
Rp19
ag10
(g14
S'=&xP?)6A'
p20
tp21
Rp22
ag10
(g14
S'8z[v\x98H6A'
p23
tp24
Rp25
ag10
(g14
S'\xc8\xf7S#"\xeb5A'
p26
tp27
Rp28
ag10
(g14
S'\x9b\xe0\xc1\\\xb7\xf15A'
p29
tp30
Rp31
ag10
(g14
S'\x98\x8a\xb3o\xd7/6A'
p32
tp33
Rp34
ag10
(g14
S'K\xb6\xf3]F\x166A'
p35
tp36
Rp37
ag10
(g14
S'b\xc9/\xd6\x95\x1e6A'
p38
tp39
Rp40
ag10
(g14
S'\xf8S\xe3\xa5\xed!6A'
p41
tp42
Rp43
ag10
(g14
S'\nIS\xaa\x8eD6A'
p44
tp45
Rp46
ag10
(g14
S'x=\nW\xa4\x186A'
p47
tp48
Rp49
ag10
(g14
S'\x9cC\x8bl\x0c_6A'
p50
tp51
Rp52
ag10
(g14
S'x\x14\xae\xc7\xd716A'
p53
tp54
Rp55
ag10
(g14
S'dW\x80|<\x126A'
p56
tp57
Rp58
ag10
(g14
S':\xd0iczZ6A'
p59
tp60
Rp61
ag10
(g14
S'U\xd4\xbfq|E6A'
p62
tp63
Rp64
ag10
(g14
S'\xfb\xa9\xf1R336A'
p65
tp66
Rp67
ag10
(g14
S'\xac\x8e\t^nA6A'
p68
tp69
Rp70
ag10
(g14
S'cd;\xbf7*6A'
p71
tp72
Rp73
ag10
(g14
S'\x06\x1e\xcc\xd3\x14\xe45A'
p74
tp75
Rp76
asS'target'
p77
(lp78
g10
(g14
S'e;\xdfO\x8d{W@'
p79
tp80
Rp81
ag10
(g14
S'\x0f\xd9\xce\xf7S[V@'
p82
tp83
Rp84
ag10
(g14
S'\x03\x7fj\xbctSX@'
p85
tp86
Rp87
ag10
(g14
S'\xd9\xa3p=\n\x17W@'
p88
tp89
Rp90
ag10
(g14
S'\xc7\xcc\xcc\xcc\xcc\x14Y@'
p91
tp92
Rp93
ag10
(g14
S'\x0cX9\xb4\xc8\xbeY@'
p94
tp95
Rp96
ag10
(g14
S'83333[\\@'
p97
tp98
Rp99
ag10
(g14
S'\xbf\xf1\xd2Mb\x08Y@'
p100
tp101
Rp102
ag10
(g14
S'f\x10X9\xb4\xc0V@'
p103
tp104
Rp105
ag10
(g14
S'\x18\xb0rh\x91\x99Y@'
p106
tp107
Rp108
ag10
(g14
S'\xa3rh\x91\xed\x0cW@'
p109
tp110
Rp111
ag10
(g14
S'\x98\xc4 \xb0r`W@'
p112
tp113
Rp114
ag10
(g14
S'\x90\xc2\xf5(\\\xcbU@'
p115
tp116
Rp117
ag10
(g14
S'\xff\xff\xff\xff\xff;W@'
p118
tp119
Rp120
ag10
(g14
S'+\xb2\x9d\xef\xa7\x8eY@'
p121
tp122
Rp123
ag10
(g14
S'\x90\xed|?5FV@'
p124
tp125
Rp126
ag10
(g14
S'\x03V\x0e-\xb2\xedU@'
p127
tp128
Rp129
ag10
(g14
S'v\xbe\x9f\x1a/UV@'
p130
tp131
Rp132
ag10
(g14
S'E\n\xd7\xa3paV@'
p133
tp134
Rp135
ag10
(g14
S'\xb0\x1cZd;OW@'
p136
tp137
Rp138
asssss.