(dp0
S'../Data/sqlite_77.csv'
p1
(dp2
S'../Data/sqlite_84.csv'
p3
(dp4
F0.1
(dp5
S'mmre'
p6
(dp7
S'bellwether'
p8
(lp9
cnumpy.core.multiarray
scalar
p10
(cnumpy
dtype
p11
(S'f8'
p12
I0
I1
tp13
Rp14
(I3
S'<'
p15
NNNI-1
I-1
I0
tp16
bS'\x10V\xe8Q~Gp@'
p17
tp18
Rp19
ag10
(g14
S'\xceS\xc9{Q<p@'
p20
tp21
Rp22
ag10
(g14
S'\xc2\x8b\x94~%,p@'
p23
tp24
Rp25
ag10
(g14
S'!\x93\xf81\xca.p@'
p26
tp27
Rp28
ag10
(g14
S'\xd4\xbc\xe0\x0f.\x07p@'
p29
tp30
Rp31
ag10
(g14
S'\xe2\xcefp"%p@'
p32
tp33
Rp34
ag10
(g14
S'\x92\xc5WB[9p@'
p35
tp36
Rp37
ag10
(g14
S'\x90J\xf2\x13\xdeHp@'
p38
tp39
Rp40
ag10
(g14
S'\xf6jk\x18\xc2#p@'
p41
tp42
Rp43
ag10
(g14
S'\xf8\xe4d9\x8e&p@'
p44
tp45
Rp46
ag10
(g14
S'\xc0;\x1b\xf2Q#p@'
p47
tp48
Rp49
ag10
(g14
S'#,\x81\xc55?p@'
p50
tp51
Rp52
ag10
(g14
S'\xd7\xbd<\xddR"p@'
p53
tp54
Rp55
ag10
(g14
S'\xb2\xf1\xf9[\xaf9p@'
p56
tp57
Rp58
ag10
(g14
S'`A\x8a\xd0\xdc1p@'
p59
tp60
Rp61
ag10
(g14
S'\x96]\xd1\xa0\x8f2p@'
p62
tp63
Rp64
ag10
(g14
S'\x89\xf3\xf9\xab\xd6\x0cp@'
p65
tp66
Rp67
ag10
(g14
S'\xae\xc5B\xca\xa5;p@'
p68
tp69
Rp70
ag10
(g14
S'2|\xa9V\x8b$p@'
p71
tp72
Rp73
ag10
(g14
S'\xd97jn\x19(p@'
p74
tp75
Rp76
asS'target'
p77
(lp78
g10
(g14
S'\xad\xaf\xcav|\xe0R@'
p79
tp80
Rp81
ag10
(g14
S'6\xb2t4\xd3\x0bR@'
p82
tp83
Rp84
ag10
(g14
S'\x7fT:\xb0?rS@'
p85
tp86
Rp87
ag10
(g14
S'p\x17\xd4\x9fZ|K@'
p88
tp89
Rp90
ag10
(g14
S'+\x9c\xb5\x80\xe1+P@'
p91
tp92
Rp93
ag10
(g14
S'\xa2%\xfd\xad2\x98R@'
p94
tp95
Rp96
ag10
(g14
S'\x03\x85+!\xb7\x8dI@'
p97
tp98
Rp99
ag10
(g14
S'\x17\xc0\xc2\xf0{\xa8O@'
p100
tp101
Rp102
ag10
(g14
S'c\x83\x19$zQM@'
p103
tp104
Rp105
ag10
(g14
S"ZHT\x1b'\x14@@"
p106
tp107
Rp108
ag10
(g14
S'F3\xd9@{\x98O@'
p109
tp110
Rp111
ag10
(g14
S'\xa4\xfd\x0f\x01\x06\xbfO@'
p112
tp113
Rp114
ag10
(g14
S'\xfc\xcf)8\xe4*B@'
p115
tp116
Rp117
ag10
(g14
S'\x8e\x87\x06{\xb1\x0cR@'
p118
tp119
Rp120
ag10
(g14
S'\x19(\xf9\x8ffKO@'
p121
tp122
Rp123
ag10
(g14
S'\x8cZ9\xcd\xe7\xf4A@'
p124
tp125
Rp126
ag10
(g14
S'N8\x13hR/O@'
p127
tp128
Rp129
ag10
(g14
S'\xfe\xbeW\x04\xad\xc7U@'
p130
tp131
Rp132
ag10
(g14
S'2\xfe]\xd7\x9a\xcaO@'
p133
tp134
Rp135
ag10
(g14
S'\xe0\x88r\x9a\xdf2S@'
p136
tp137
Rp138
asssss.