(dp0
S'../Data/sqlite_78.csv'
p1
(dp2
S'../Data/sqlite_91.csv'
p3
(dp4
F0.35
(dp5
S'mmre'
p6
(dp7
S'bellwether'
p8
(lp9
cnumpy.core.multiarray
scalar
p10
(cnumpy
dtype
p11
(S'f8'
p12
I0
I1
tp13
Rp14
(I3
S'<'
p15
NNNI-1
I-1
I0
tp16
bS'S\xdd\xed\xac\xa0pX@'
p17
tp18
Rp19
ag10
(g14
S'Qe\xda\x0e|tX@'
p20
tp21
Rp22
ag10
(g14
S'\x93\xd4~T\x84sX@'
p23
tp24
Rp25
ag10
(g14
S'\x85\x15\x8a\x11ilX@'
p26
tp27
Rp28
ag10
(g14
S'%\xfe\xd0\x1d\x94sX@'
p29
tp30
Rp31
ag10
(g14
S'\xcaC\xa2\xf7\x9dpX@'
p32
tp33
Rp34
ag10
(g14
S'\xe3\x1d#\xe3\x19rX@'
p35
tp36
Rp37
ag10
(g14
S'\xf8\xf4*etyX@'
p38
tp39
Rp40
ag10
(g14
S'\xd4\xe6\xafW\x19fX@'
p41
tp42
Rp43
ag10
(g14
S'x\xa4\\rmkX@'
p44
tp45
Rp46
ag10
(g14
S'\xd5Q5\x0eziX@'
p47
tp48
Rp49
ag10
(g14
S'\\V\x88LMzX@'
p50
tp51
Rp52
ag10
(g14
S'\xd2\xb98H\x9ayX@'
p53
tp54
Rp55
ag10
(g14
S'44\xaa\x8c\xf1lX@'
p56
tp57
Rp58
ag10
(g14
S"'UL\x92\x8beX@"
p59
tp60
Rp61
ag10
(g14
S'\xc5z\xc6E\xdckX@'
p62
tp63
Rp64
ag10
(g14
S'\x16\xa6ut\xadmX@'
p65
tp66
Rp67
ag10
(g14
S'\n\x16\xfc\xd1\x99xX@'
p68
tp69
Rp70
ag10
(g14
S'\xea\x9c;d\xabcX@'
p71
tp72
Rp73
ag10
(g14
S'G\x00d\xd9<iX@'
p74
tp75
Rp76
asS'target'
p77
(lp78
g10
(g14
S'b\x81\xe0\xe8\x19\x97J@'
p79
tp80
Rp81
ag10
(g14
S'\x94\x17\xda\xf9d\xc2L@'
p82
tp83
Rp84
ag10
(g14
S'\xa1\xc5\x1dS\x12=K@'
p85
tp86
Rp87
ag10
(g14
S'6V&\xa4W\xd2Q@'
p88
tp89
Rp90
ag10
(g14
S'\x9f/\x86\x1f\xadPM@'
p91
tp92
Rp93
ag10
(g14
S'n\xab\xe150\xf5N@'
p94
tp95
Rp96
ag10
(g14
S'\xear\x0f5R\xe3O@'
p97
tp98
Rp99
ag10
(g14
S'\xe4\x87t\xd1 [G@'
p100
tp101
Rp102
ag10
(g14
S'\xd8\xe7c$\xa1=S@'
p103
tp104
Rp105
ag10
(g14
S"\x1d\xa9\xbd'3\xe6Q@"
p106
tp107
Rp108
ag10
(g14
S'~6^S\xb8TQ@'
p109
tp110
Rp111
ag10
(g14
S'>\x95n\x19\xd5\x95J@'
p112
tp113
Rp114
ag10
(g14
S'q\xbd\xc3\x95\x1f\x92G@'
p115
tp116
Rp117
ag10
(g14
S'\xdee\x19\xdd\xe6\xd5Q@'
p118
tp119
Rp120
ag10
(g14
S'\xea\x9dh\x9c_*R@'
p121
tp122
Rp123
ag10
(g14
S'dP\xde\xb0\x90\x9eM@'
p124
tp125
Rp126
ag10
(g14
S'\xecm\x91j\xa1\x06P@'
p127
tp128
Rp129
ag10
(g14
S'#\x7f\xd1\xb2@-J@'
p130
tp131
Rp132
ag10
(g14
S'Y\x0b\xd36\x8e\xf5R@'
p133
tp134
Rp135
ag10
(g14
S'<@\x88-i\xccP@'
p136
tp137
Rp138
asssss.