(dp0
S'../Data/sqlite_43.csv'
p1
(dp2
S'../Data/sqlite_80.csv'
p3
(dp4
F0.1
(dp5
S'abs_res'
p6
(dp7
S'bellwether'
p8
(lp9
cnumpy.core.multiarray
scalar
p10
(cnumpy
dtype
p11
(S'f8'
p12
I0
I1
tp13
Rp14
(I3
S'<'
p15
NNNI-1
I-1
I0
tp16
bS'/33\xb3/\r=A'
p17
tp18
Rp19
ag10
(g14
S'\xe5z\x14nN\x0e=A'
p20
tp21
Rp22
ag10
(g14
S' \\\x8f\x826\r=A'
p23
tp24
Rp25
ag10
(g14
S'\xf3(\\Oa\r=A'
p26
tp27
Rp28
ag10
(g14
S'VUUU&\r=A'
p29
tp30
Rp31
ag10
(g14
S'\xb2\x81N\x1bE\r=A'
p32
tp33
Rp34
ag10
(g14
S'\xe9\x8b%\x7f\xae\x0c=A'
p35
tp36
Rp37
ag10
(g14
S'?\n\xd7c.\r=A'
p38
tp39
Rp40
ag10
(g14
S']ff&j\r=A'
p41
tp42
Rp43
ag10
(g14
S'\xa0\rt\x1a5\r=A'
p44
tp45
Rp46
ag10
(g14
S'E\xe1z\x94\x8d\x0c=A'
p47
tp48
Rp49
ag10
(g14
S'h=\n\xd7~\r=A'
p50
tp51
Rp52
ag10
(g14
S'\xab\rt\xda\xb0\x0c=A'
p53
tp54
Rp55
ag10
(g14
S'6333/\r=A'
p56
tp57
Rp58
ag10
(g14
S'\xec@\xa7\xcdP\r=A'
p59
tp60
Rp61
ag10
(g14
S'\x7f\xb1\xe4\x97i\r=A'
p62
tp63
Rp64
ag10
(g14
S'\xabG\xe1z\x9e\r=A'
p65
tp66
Rp67
ag10
(g14
S'\xc3\x92_l_\r=A'
p68
tp69
Rp70
ag10
(g14
S'\x80\xb1\xe4\x17\xb1\x0c=A'
p71
tp72
Rp73
ag10
(g14
S'\tt\xda\x00\x08\r=A'
p74
tp75
Rp76
asS'target'
p77
(lp78
g10
(g14
S'\xf2(\\\x8f\xc2\xfb\xa6@'
p79
tp80
Rp81
ag10
(g14
S'\xa5G\xe1z\x14x\xa8@'
p82
tp83
Rp84
ag10
(g14
S'\xa8p=\nW\x8a\xaa@'
p85
tp86
Rp87
ag10
(g14
S'ffff\xe6 \xa9@'
p88
tp89
Rp90
ag10
(g14
S'f\x14\xaeG\xe1\xc5\xaa@'
p91
tp92
Rp93
ag10
(g14
S'\\\x8f\xc2\xf5\xa8\xd5\xab@'
p94
tp95
Rp96
ag10
(g14
S'\xe2z\x14\xae\xc7N\xa8@'
p97
tp98
Rp99
ag10
(g14
S'\xd8\xa3p=\nV\xab@'
p100
tp101
Rp102
ag10
(g14
S'\xebz\x14\xae\xc7\x01\xaa@'
p103
tp104
Rp105
ag10
(g14
S'\x8a\xc2\xf5(\xdc\xe0\xa9@'
p106
tp107
Rp108
ag10
(g14
S'\xc1\xf5(\\\x8f\xd4\xaa@'
p109
tp110
Rp111
ag10
(g14
S'affff\xef\xac@'
p112
tp113
Rp114
ag10
(g14
S'3333\xb3c\xaa@'
p115
tp116
Rp117
ag10
(g14
S'\xb4\xf5(\\\x0f\xe0\xa8@'
p118
tp119
Rp120
ag10
(g14
S'\xbd\x1e\x85\xebQ\xe5\xaa@'
p121
tp122
Rp123
ag10
(g14
S'"\\\x8f\xc2u\x8b\xa8@'
p124
tp125
Rp126
ag10
(g14
S'\x7f\xebQ\xb8\x9eT\xac@'
p127
tp128
Rp129
ag10
(g14
S'\x12\xd7\xa3p=@\xac@'
p130
tp131
Rp132
ag10
(g14
S'^\x8f\xc2\xf5\xa8\x9e\xaf@'
p133
tp134
Rp135
ag10
(g14
S'q=\n\xd7#N\xac@'
p136
tp137
Rp138
asssss.