(dp0
S'../Data/sqlite_0.csv'
p1
(dp2
S'../Data/sqlite_94.csv'
p3
(dp4
F0.3
(dp5
S'mmre'
p6
(dp7
S'bellwether'
p8
(lp9
cnumpy.core.multiarray
scalar
p10
(cnumpy
dtype
p11
(S'f8'
p12
I0
I1
tp13
Rp14
(I3
S'<'
p15
NNNI-1
I-1
I0
tp16
bS'\x18v\xbc\xbd@oX@'
p17
tp18
Rp19
ag10
(g14
S'\x17c\x0b\xb0)lX@'
p20
tp21
Rp22
ag10
(g14
S'\xe8\xb9\xd2\x04^kX@'
p23
tp24
Rp25
ag10
(g14
S'\x8b\xf4v\xeb\x12mX@'
p26
tp27
Rp28
ag10
(g14
S'`\x9f\x17\x11\x06nX@'
p29
tp30
Rp31
ag10
(g14
S'\t\xbdu\x03\x1elX@'
p32
tp33
Rp34
ag10
(g14
S'\xf2]\xde\xf2hoX@'
p35
tp36
Rp37
ag10
(g14
S'\xeeC\xcb\x9cYlX@'
p38
tp39
Rp40
ag10
(g14
S'J^\xc9\x86\xdcmX@'
p41
tp42
Rp43
ag10
(g14
S'ii\xab\x86\xabmX@'
p44
tp45
Rp46
ag10
(g14
S'ta\x9f\xde\nnX@'
p47
tp48
Rp49
ag10
(g14
S'l\xf5\x07J2oX@'
p50
tp51
Rp52
ag10
(g14
S'!\xcb\x14m\xe7lX@'
p53
tp54
Rp55
ag10
(g14
S'\xb7\xe1\t\x04\\nX@'
p56
tp57
Rp58
ag10
(g14
S'6\x81\xab.>nX@'
p59
tp60
Rp61
ag10
(g14
S'\x02^\nG\x83mX@'
p62
tp63
Rp64
ag10
(g14
S'p/\xfa\xd3\xa0mX@'
p65
tp66
Rp67
ag10
(g14
S'?A\xd3\xedPmX@'
p68
tp69
Rp70
ag10
(g14
S'E\x1d\xdfpgnX@'
p71
tp72
Rp73
ag10
(g14
S'\x99\xea\x94b.mX@'
p74
tp75
Rp76
asS'target'
p77
(lp78
g10
(g14
S'G<\xa7\xa9\xd6\xa1R@'
p79
tp80
Rp81
ag10
(g14
S'\xbb\x92\xf2\xa20gW@'
p82
tp83
Rp84
ag10
(g14
S'\xb5\xcc\xf6\xa2(kT@'
p85
tp86
Rp87
ag10
(g14
S'k\x8b\x8e\xae91R@'
p88
tp89
Rp90
ag10
(g14
S'\xb5\x8f\xd7`\xb5~D@'
p91
tp92
Rp93
ag10
(g14
S'\xdd\xf8\xca\xb44%R@'
p94
tp95
Rp96
ag10
(g14
S"c\xdbb)\x9c'M@"
p97
tp98
Rp99
ag10
(g14
S'j\xbf\xc0m{IV@'
p100
tp101
Rp102
ag10
(g14
S'\x10\xb2\xe4M\xeeXL@'
p103
tp104
Rp105
ag10
(g14
S'\x8c@\x8b\x8b\xc2\xb0S@'
p106
tp107
Rp108
ag10
(g14
S'\xc1kas\xc7\xedG@'
p109
tp110
Rp111
ag10
(g14
S'\x96\xac1\xddm\x03P@'
p112
tp113
Rp114
ag10
(g14
S'H\xba]\x13\xaa\xa7R@'
p115
tp116
Rp117
ag10
(g14
S'\x0e\xeee\x9e\xec\xbcF@'
p118
tp119
Rp120
ag10
(g14
S'Lg\x97\x8a\xaarP@'
p121
tp122
Rp123
ag10
(g14
S'\x03|\xb6\xa0\xcf\xc9Q@'
p124
tp125
Rp126
ag10
(g14
S'|\xe0-B\xc0\nR@'
p127
tp128
Rp129
ag10
(g14
S'\xbe~!e\x1aML@'
p130
tp131
Rp132
ag10
(g14
S'\xbd\xc9T\x10\x81\xa8P@'
p133
tp134
Rp135
ag10
(g14
S'\xba>@S\x13\xdeJ@'
p136
tp137
Rp138
asssss.