(dp0
S'../Data/sqlite_13.csv'
p1
(dp2
S'../Data/sqlite_89.csv'
p3
(dp4
F0.1
(dp5
S'mmre'
p6
(dp7
S'bellwether'
p8
(lp9
cnumpy.core.multiarray
scalar
p10
(cnumpy
dtype
p11
(S'f8'
p12
I0
I1
tp13
Rp14
(I3
S'<'
p15
NNNI-1
I-1
I0
tp16
bS'\x95\x17&\xc8<]i@'
p17
tp18
Rp19
ag10
(g14
S'\x8b1\x80\xfe"ai@'
p20
tp21
Rp22
ag10
(g14
S'CQ\xfe\xc6\xdf7i@'
p23
tp24
Rp25
ag10
(g14
S'\x00-\xf5\x8cCUi@'
p26
tp27
Rp28
ag10
(g14
S'\xe4\xbb\xfb\xd8ZZi@'
p29
tp30
Rp31
ag10
(g14
S'\xfe\x84\xa9D\xa7ji@'
p32
tp33
Rp34
ag10
(g14
S'\xa5B\xb8R\\Xi@'
p35
tp36
Rp37
ag10
(g14
S'\xc7\xcfU\x0b\x8e:i@'
p38
tp39
Rp40
ag10
(g14
S'\xd0d%Q\xa1ui@'
p41
tp42
Rp43
ag10
(g14
S'I\x06\x0b\x04\xaaPi@'
p44
tp45
Rp46
ag10
(g14
S'\xcf\x8cl\xcc\xfdHi@'
p47
tp48
Rp49
ag10
(g14
S'\xac\xcc{,\x067i@'
p50
tp51
Rp52
ag10
(g14
S'\xec\xfe\x04h\xfcZi@'
p53
tp54
Rp55
ag10
(g14
S'\xb7T\xb1\xa3\x0bMi@'
p56
tp57
Rp58
ag10
(g14
S'9v\xd2v\x13Di@'
p59
tp60
Rp61
ag10
(g14
S'\x01\xd9@>\x96~i@'
p62
tp63
Rp64
ag10
(g14
S'\x11f\xe4I1Bi@'
p65
tp66
Rp67
ag10
(g14
S'\x19}!\x9d\xc9qi@'
p68
tp69
Rp70
ag10
(g14
S'eW$\xe5\x81^i@'
p71
tp72
Rp73
ag10
(g14
S'\xef\xb4o\xb5\x10\x85i@'
p74
tp75
Rp76
asS'target'
p77
(lp78
g10
(g14
S'\xa04\xe2\xec\xefQM@'
p79
tp80
Rp81
ag10
(g14
S'\r\td5vMW@'
p82
tp83
Rp84
ag10
(g14
S'\xa9{\x9c\x83\x03)U@'
p85
tp86
Rp87
ag10
(g14
S'[\n\xf8\xa8vWM@'
p88
tp89
Rp90
ag10
(g14
S'\xd2\xaf&\x88\x8bFT@'
p91
tp92
Rp93
ag10
(g14
S'\xd4\x9d\x86<\x06\x0bK@'
p94
tp95
Rp96
ag10
(g14
S"k%\xee'\x01\xc3S@"
p97
tp98
Rp99
ag10
(g14
S'\xf0"\xc6\xd4xpM@'
p100
tp101
Rp102
ag10
(g14
S'\x08/X5\x8c\xcaN@'
p103
tp104
Rp105
ag10
(g14
S'\xc6\x07J\x96\xbd]L@'
p106
tp107
Rp108
ag10
(g14
S'\xe9\x95j\xe3U\x8e`@'
p109
tp110
Rp111
ag10
(g14
S'1\xbe}\x98\x1c>M@'
p112
tp113
Rp114
ag10
(g14
S' q\xd1*\x0c\x08V@'
p115
tp116
Rp117
ag10
(g14
S'0\x94\x19_\x19\xd4T@'
p118
tp119
Rp120
ag10
(g14
S'\xe1KP\xf1\xd1\x8dS@'
p121
tp122
Rp123
ag10
(g14
S'):\xcf@H\x1aQ@'
p124
tp125
Rp126
ag10
(g14
S'%~o\xe6\xa5\xbcW@'
p127
tp128
Rp129
ag10
(g14
S'xRU+B\rR@'
p130
tp131
Rp132
ag10
(g14
S'NH\x01\x8d\xdd\xdcJ@'
p133
tp134
Rp135
ag10
(g14
S'\x07a\x07~4eO@'
p136
tp137
Rp138
asssss.