(dp0
S'../Data/sqlite_76.csv'
p1
(dp2
S'../Data/sqlite_59.csv'
p3
(dp4
F0.05
(dp5
S'mmre'
p6
(dp7
S'bellwether'
p8
(lp9
cnumpy.core.multiarray
scalar
p10
(cnumpy
dtype
p11
(S'f8'
p12
I0
I1
tp13
Rp14
(I3
S'<'
p15
NNNI-1
I-1
I0
tp16
bS'{uQb)[S@'
p17
tp18
Rp19
ag10
(g14
S"iZ`'\xcdWS@"
p20
tp21
Rp22
ag10
(g14
S'\r\x13\xaa\xcbVeS@'
p23
tp24
Rp25
ag10
(g14
S'\xaa\x16\xe0\xba@[S@'
p26
tp27
Rp28
ag10
(g14
S'\x93=\xda\xb5\x11jS@'
p29
tp30
Rp31
ag10
(g14
S'.\x1fa\xed\xdeyS@'
p32
tp33
Rp34
ag10
(g14
S'\x02DX\xf7\xe5cS@'
p35
tp36
Rp37
ag10
(g14
S'\r\xce\x07L\xe7`S@'
p38
tp39
Rp40
ag10
(g14
S'\x04\xf5\xc6q\x90rS@'
p41
tp42
Rp43
ag10
(g14
S'\xe2RakaMS@'
p44
tp45
Rp46
ag10
(g14
S'\x12\x10\xd7l_aS@'
p47
tp48
Rp49
ag10
(g14
S'\xa3\x88%\x96\xd9^S@'
p50
tp51
Rp52
ag10
(g14
S'e\x1f\xd5)\x00bS@'
p53
tp54
Rp55
ag10
(g14
S'\xd9\x17=|\xa1aS@'
p56
tp57
Rp58
ag10
(g14
S'\xe5=OMj{S@'
p59
tp60
Rp61
ag10
(g14
S'hr\xd0z\xd9cS@'
p62
tp63
Rp64
ag10
(g14
S'\x80A\x91\xe8!XS@'
p65
tp66
Rp67
ag10
(g14
S'Xq\x8eUeYS@'
p68
tp69
Rp70
ag10
(g14
S'\x837G\xa7o`S@'
p71
tp72
Rp73
ag10
(g14
S'\xefk\xea\xbf\x88`S@'
p74
tp75
Rp76
asS'target'
p77
(lp78
g10
(g14
S'\x93Lz\xaej\x8f)@'
p79
tp80
Rp81
ag10
(g14
S'\xa9\x0cq@y}&@'
p82
tp83
Rp84
ag10
(g14
S'/\x14U\x9f\xcb/(@'
p85
tp86
Rp87
ag10
(g14
S'8XRY\x95\x1c&@'
p88
tp89
Rp90
ag10
(g14
S'\xe6\xccZ\xba\xa2W&@'
p91
tp92
Rp93
ag10
(g14
S'Q&\x11\x17\\,(@'
p94
tp95
Rp96
ag10
(g14
S'\xbe\xb0\xcbr\xf2\xc5&@'
p97
tp98
Rp99
ag10
(g14
S'6\x05\x0cX\x1e\xef(@'
p100
tp101
Rp102
ag10
(g14
S'bu\x9a\x95,\xf6&@'
p103
tp104
Rp105
ag10
(g14
S'\x14\x19c\xb0r\xe0%@'
p106
tp107
Rp108
ag10
(g14
S'\xfb\xae\xdc\x96\x9c9%@'
p109
tp110
Rp111
ag10
(g14
S'\x8e\x9aX\xd7tX&@'
p112
tp113
Rp114
ag10
(g14
S'\xe07t\xd6\x15B(@'
p115
tp116
Rp117
ag10
(g14
S'\xae\xde\xc9\xcd\x9c\xcd!@'
p118
tp119
Rp120
ag10
(g14
S'F\xd9\xe5\xb6~\x7f&@'
p121
tp122
Rp123
ag10
(g14
S'\xe5\xac\xbd\xcda(#@'
p124
tp125
Rp126
ag10
(g14
S'\x8c\xb1\x0f#\x0fX&@'
p127
tp128
Rp129
ag10
(g14
S"\xab\xff\xe5\x01\xf8\xfc'@"
p130
tp131
Rp132
ag10
(g14
S'\xa0\xbc\x8f9\xa2\x16%@'
p133
tp134
Rp135
ag10
(g14
S'+\x9cS\xee|\xfc%@'
p136
tp137
Rp138
asssss.