(dp0
S'../Data/sqlite_4.csv'
p1
(dp2
S'../Data/sqlite_56.csv'
p3
(dp4
F0.4
(dp5
S'abs_res'
p6
(dp7
S'bellwether'
p8
(lp9
cnumpy.core.multiarray
scalar
p10
(cnumpy
dtype
p11
(S'f8'
p12
I0
I1
tp13
Rp14
(I3
S'<'
p15
NNNI-1
I-1
I0
tp16
bS'\x89%\xbf\xf8bH7A'
p17
tp18
Rp19
ag10
(g14
S'\xe9\xec\xc3\x87\x02I7A'
p20
tp21
Rp22
ag10
(g14
S'B\xa7\rt\xccH7A'
p23
tp24
Rp25
ag10
(g14
S'\xac\xd51A[J7A'
p26
tp27
Rp28
ag10
(g14
S'\xc5-k\xf5\xe7H7A'
p29
tp30
Rp31
ag10
(g14
S'@\xa7\r\xd4\xf7F7A'
p32
tp33
Rp34
ag10
(g14
S'1\xec\n\xd0uH7A'
p35
tp36
Rp37
ag10
(g14
S'\x8e\xb3\x0f\x7f\x8dG7A'
p38
tp39
Rp40
ag10
(g14
S'\x1e\x94\xd1[\xfbH7A'
p41
tp42
Rp43
ag10
(g14
S'OUUu\x9dH7A'
p44
tp45
Rp46
ag10
(g14
S'\x8f\t\x1e,\xacG7A'
p47
tp48
Rp49
ag10
(g14
S'muL\xd0yH7A'
p50
tp51
Rp52
ag10
(g14
S'\xe0\x17K>\x04I7A'
p53
tp54
Rp55
ag10
(g14
S'P~\xb1d\x16E7A'
p56
tp57
Rp58
ag10
(g14
S'\x02r\xaf9\x15H7A'
p59
tp60
Rp61
ag10
(g14
S'\xf7\xd2M\xc2\x9eI7A'
p62
tp63
Rp64
ag10
(g14
S'%iJeNG7A'
p65
tp66
Rp67
ag10
(g14
S'\xdfk.\xe4\xb5G7A'
p68
tp69
Rp70
ag10
(g14
S'\x98\xe0\xc1\xbcqF7A'
p71
tp72
Rp73
ag10
(g14
S'\x15\xbd-\x0bWG7A'
p74
tp75
Rp76
asS'target'
p77
(lp78
g10
(g14
S't?5^\xba\xf5V@'
p79
tp80
Rp81
ag10
(g14
S'\x83?5^\xba1X@'
p82
tp83
Rp84
ag10
(g14
S'.\x87\x16\xd9\xceOV@'
p85
tp86
Rp87
ag10
(g14
S'\xccv\xbe\x9f\x1a\xcfU@'
p88
tp89
Rp90
ag10
(g14
S'\xf8\xa9\xf1\xd2M&X@'
p91
tp92
Rp93
ag10
(g14
S'\xc0\xca\xa1E\xb6\x9fW@'
p94
tp95
Rp96
ag10
(g14
S'ad;\xdfO\xf5V@'
p97
tp98
Rp99
ag10
(g14
S'8\x89A`\xe5hW@'
p100
tp101
Rp102
ag10
(g14
S'\x1f\x85\xebQ\xb8\xbeW@'
p103
tp104
Rp105
ag10
(g14
S'\xe2\xfb\xa9\xf1\xd2\xa1W@'
p106
tp107
Rp108
ag10
(g14
S'\xd7$\x06\x81\x95#W@'
p109
tp110
Rp111
ag10
(g14
S'b\x10X9\xb4\xa8W@'
p112
tp113
Rp114
ag10
(g14
S'~\x93\x18\x04V^W@'
p115
tp116
Rp117
ag10
(g14
S'z?5^\xba\tW@'
p118
tp119
Rp120
ag10
(g14
S'\xd6\xf9~j\xbcDW@'
p121
tp122
Rp123
ag10
(g14
S'C\xee5\x17\x92\xbeU@'
p124
tp125
Rp126
ag10
(g14
S'\xbf\x1e\x85\xebQ<W@'
p127
tp128
Rp129
ag10
(g14
S'\xc4\xf5(\\\x8f\xeaV@'
p130
tp131
Rp132
ag10
(g14
S'\xc7\xa1E\xb6\xf3\xe1W@'
p133
tp134
Rp135
ag10
(g14
S'\xc0I\x0c\x02+\x83W@'
p136
tp137
Rp138
asssss.