(dp0
S'../Data/sqlite_29.csv'
p1
(dp2
S'../Data/sqlite_65.csv'
p3
(dp4
F0.35
(dp5
S'abs_res'
p6
(dp7
S'bellwether'
p8
(lp9
cnumpy.core.multiarray
scalar
p10
(cnumpy
dtype
p11
(S'f8'
p12
I0
I1
tp13
Rp14
(I3
S'<'
p15
NNNI-1
I-1
I0
tp16
bS"\xde^s\xc1\xd1'=A"
p17
tp18
Rp19
ag10
(g14
S'\xbd \xb0R8(=A'
p20
tp21
Rp22
ag10
(g14
S"F\xf0`\xfe\xca'=A"
p23
tp24
Rp25
ag10
(g14
S"\x986\xd0\xe9\xef'=A"
p26
tp27
Rp28
ag10
(g14
S"\x11\x90{\rx'=A"
p29
tp30
Rp31
ag10
(g14
S'\xb2G\xe1Z\xc8&=A'
p32
tp33
Rp34
ag10
(g14
S'\x8ePF/\xa2(=A'
p35
tp36
Rp37
ag10
(g14
S"X\x01r\x0f\x16'=A"
p38
tp39
Rp40
ag10
(g14
S'fuLp&&=A'
p41
tp42
Rp43
ag10
(g14
S'3ku\xccK(=A'
p44
tp45
Rp46
ag10
(g14
S'\xb9\xbb\xbb;E)=A'
p47
tp48
Rp49
ag10
(g14
S'\xa9\xaa\xaa\x8a\xd3&=A'
p50
tp51
Rp52
ag10
(g14
S'\xd31\xc1#>(=A'
p53
tp54
Rp55
ag10
(g14
S"\x90\x18\x04V\t'=A"
p56
tp57
Rp58
ag10
(g14
S'*\x96\xfc\x82q)=A'
p59
tp60
Rp61
ag10
(g14
S'\xf5\xb6\xacu\xee(=A'
p62
tp63
Rp64
ag10
(g14
S'\xd0"\xdb\x19\xf2)=A'
p65
tp66
Rp67
ag10
(g14
S',B\x19\x9d&(=A'
p68
tp69
Rp70
ag10
(g14
S'\xb28\xfb\x90\x14*=A'
p71
tp72
Rp73
ag10
(g14
S'\x08\x00\x00\x80((=A'
p74
tp75
Rp76
asS'target'
p77
(lp78
g10
(g14
S'F`\xe5\xd0"\xbbX@'
p79
tp80
Rp81
ag10
(g14
S'53333\x9fT@'
p82
tp83
Rp84
ag10
(g14
S'\x7f\x14\xaeG\xe1\x8aW@'
p85
tp86
Rp87
ag10
(g14
S'\x9f\xc4 \xb0r\x88R@'
p88
tp89
Rp90
ag10
(g14
S'hffff\xd6S@'
p91
tp92
Rp93
ag10
(g14
S'\x91\xed|?5nS@'
p94
tp95
Rp96
ag10
(g14
S'\xd2Mb\x10X\xa9U@'
p97
tp98
Rp99
ag10
(g14
S'\x92\xed|?5\xceU@'
p100
tp101
Rp102
ag10
(g14
S'\xbf\x9f\x1a/\xdd@S@'
p103
tp104
Rp105
ag10
(g14
S'X\x0e-\xb2\x9d\x87U@'
p106
tp107
Rp108
ag10
(g14
S'\xea\xfb\xa9\xf1\xd2\xd5R@'
p109
tp110
Rp111
ag10
(g14
S'\x1eZd;\xdf\xd7T@'
p112
tp113
Rp114
ag10
(g14
S'\x04\xac\x1cZd\xebU@'
p115
tp116
Rp117
ag10
(g14
S'>\n\xd7\xa3p5S@'
p118
tp119
Rp120
ag10
(g14
S':`\xe5\xd0"\xbbV@'
p121
tp122
Rp123
ag10
(g14
S'\xeb|?5^\xfeU@'
p124
tp125
Rp126
ag10
(g14
S'\xb0\x1cZd;_Y@'
p127
tp128
Rp129
ag10
(g14
S'\x97\x18\x04V\x0e]T@'
p130
tp131
Rp132
ag10
(g14
S'\x7f\xc0\xca\xa1E\xf6V@'
p133
tp134
Rp135
ag10
(g14
S'\xb9\xf3\xfd\xd4xIU@'
p136
tp137
Rp138
asssss.