(dp0
S'../Data/sqlite_54.csv'
p1
(dp2
S'../Data/sqlite_84.csv'
p3
(dp4
F0.2
(dp5
S'mmre'
p6
(dp7
S'bellwether'
p8
(lp9
cnumpy.core.multiarray
scalar
p10
(cnumpy
dtype
p11
(S'f8'
p12
I0
I1
tp13
Rp14
(I3
S'<'
p15
NNNI-1
I-1
I0
tp16
bS'\x00V\x03\x8e\x7fcu@'
p17
tp18
Rp19
ag10
(g14
S'\x02\xaa\xc6\x13N2u@'
p20
tp21
Rp22
ag10
(g14
S'm\x04\xb2\xbb\x14\x8bu@'
p23
tp24
Rp25
ag10
(g14
S'\x11\x02\x01y\x07:u@'
p26
tp27
Rp28
ag10
(g14
S'\x94-\x10\x06$tu@'
p29
tp30
Rp31
ag10
(g14
S'j\xf6G\x96\x95$u@'
p32
tp33
Rp34
ag10
(g14
S'\x02\xcbr\xe8\xfbLu@'
p35
tp36
Rp37
ag10
(g14
S'\xfc\xd9\xcf\xc6\x82\xa7u@'
p38
tp39
Rp40
ag10
(g14
S'\xcbC>\xd2\xbasu@'
p41
tp42
Rp43
ag10
(g14
S'v\xc2@\x9e6Ou@'
p44
tp45
Rp46
ag10
(g14
S'\xe2\x15u\xabPsu@'
p47
tp48
Rp49
ag10
(g14
S'9\x80\xd4\xe5A\x10u@'
p50
tp51
Rp52
ag10
(g14
S'\x91(8\xec2~u@'
p53
tp54
Rp55
ag10
(g14
S'\x94 g\xa3\xee\x89u@'
p56
tp57
Rp58
ag10
(g14
S'(\xf7=;B)u@'
p59
tp60
Rp61
ag10
(g14
S'\xf8:\xfd\xe93Ju@'
p62
tp63
Rp64
ag10
(g14
S'.G\xd2\xe9%7u@'
p65
tp66
Rp67
ag10
(g14
S'\x10\xbd\xc6\x8f_gu@'
p68
tp69
Rp70
ag10
(g14
S'\xbc\x85YJ\xcf]u@'
p71
tp72
Rp73
ag10
(g14
S'<\xf5sM\x95Qu@'
p74
tp75
Rp76
asS'target'
p77
(lp78
g10
(g14
S'\xd2\xb2N\x01\x16<U@'
p79
tp80
Rp81
ag10
(g14
S'8\x89\xfaTFvR@'
p82
tp83
Rp84
ag10
(g14
S'7"}k?\x15R@'
p85
tp86
Rp87
ag10
(g14
S'\x82\x01\x92\x01\x9a\x1eT@'
p88
tp89
Rp90
ag10
(g14
S'$\xd5\xacq\x1d<K@'
p91
tp92
Rp93
ag10
(g14
S'k\xaaN\x85\xb55M@'
p94
tp95
Rp96
ag10
(g14
S'8\xd9\x1c\xfd\x11DI@'
p97
tp98
Rp99
ag10
(g14
S'C\xeb\x98\xa1\x87J\\@'
p100
tp101
Rp102
ag10
(g14
S'\x8c\n7\xea\xa0\xe7R@'
p103
tp104
Rp105
ag10
(g14
S'\xa2\xcfo}\xd2}C@'
p106
tp107
Rp108
ag10
(g14
S'\xccC\xfe\xf4]\xfcR@'
p109
tp110
Rp111
ag10
(g14
S'\xa0\x18\x17kw\xb4N@'
p112
tp113
Rp114
ag10
(g14
S'C\xab_\xbdTTT@'
p115
tp116
Rp117
ag10
(g14
S'kET\x00h\x12Q@'
p118
tp119
Rp120
ag10
(g14
S'\x85PHb\xe4\xd6D@'
p121
tp122
Rp123
ag10
(g14
S'R\xfcb@\x9f\x0eQ@'
p124
tp125
Rp126
ag10
(g14
S'\xc19ml\x08\xdeE@'
p127
tp128
Rp129
ag10
(g14
S'p\x0f6\x84\xd6\xabE@'
p130
tp131
Rp132
ag10
(g14
S'2\x8a\xe14^$V@'
p133
tp134
Rp135
ag10
(g14
S'\x11\x96\x1c\x8f\x9ddT@'
p136
tp137
Rp138
asssss.