(dp0
S'../Data/sqlite_50.csv'
p1
(dp2
S'../Data/sqlite_76.csv'
p3
(dp4
F0.2
(dp5
S'mmre'
p6
(dp7
S'bellwether'
p8
(lp9
cnumpy.core.multiarray
scalar
p10
(cnumpy
dtype
p11
(S'f8'
p12
I0
I1
tp13
Rp14
(I3
S'<'
p15
NNNI-1
I-1
I0
tp16
bS'\x95m\x83\x88\x98:V@'
p17
tp18
Rp19
ag10
(g14
S'\x9c\xe0\xea\xf8F7V@'
p20
tp21
Rp22
ag10
(g14
S'\xe8\x9721\xa95V@'
p23
tp24
Rp25
ag10
(g14
S'\xcdPzi\x00:V@'
p26
tp27
Rp28
ag10
(g14
S'2\xd5\xbeYd5V@'
p29
tp30
Rp31
ag10
(g14
S'\x84"\xf4\xbe\x1a7V@'
p32
tp33
Rp34
ag10
(g14
S'F"PbY4V@'
p35
tp36
Rp37
ag10
(g14
S'^\xf6\xf4\xf3Y<V@'
p38
tp39
Rp40
ag10
(g14
S'\xa7\xcb\xe4\xd8\xc17V@'
p41
tp42
Rp43
ag10
(g14
S'\x80\xdc\xef\x16\xd18V@'
p44
tp45
Rp46
ag10
(g14
S'&G\xd5L{5V@'
p47
tp48
Rp49
ag10
(g14
S'\xec\x08\x8bsI9V@'
p50
tp51
Rp52
ag10
(g14
S'\xdcX$\xfdi9V@'
p53
tp54
Rp55
ag10
(g14
S'\xbemN_\xce8V@'
p56
tp57
Rp58
ag10
(g14
S'\xcd\xc7K\xba\xc1:V@'
p59
tp60
Rp61
ag10
(g14
S'\xae\x97dc\xcc9V@'
p62
tp63
Rp64
ag10
(g14
S'\xe8\xd3\x18\xe0.5V@'
p65
tp66
Rp67
ag10
(g14
S'J\xe1\xff\x83\xe47V@'
p68
tp69
Rp70
ag10
(g14
S'8\xf2\xb5\x80\x9e3V@'
p71
tp72
Rp73
ag10
(g14
S'\x0f\xa1\x98TO;V@'
p74
tp75
Rp76
asS'target'
p77
(lp78
g10
(g14
S'F\r\x82\x8d\xbe\xe00@'
p79
tp80
Rp81
ag10
(g14
S',G\x99\xba\x10 0@'
p82
tp83
Rp84
ag10
(g14
S'\xe2\xa2RD\xe8;0@'
p85
tp86
Rp87
ag10
(g14
S'Q\xcf\xaa\xa0\x8b\x9c0@'
p88
tp89
Rp90
ag10
(g14
S'</\x14Cl31@'
p91
tp92
Rp93
ag10
(g14
S'\x8ci\xb1\n\r\xf60@'
p94
tp95
Rp96
ag10
(g14
S'\xa8\xc2\xec\xf5u\xa91@'
p97
tp98
Rp99
ag10
(g14
S'\x98\x10=]j\x1e1@'
p100
tp101
Rp102
ag10
(g14
S'_k\x8b\xaf\xb1\xf7/@'
p103
tp104
Rp105
ag10
(g14
S'\x04^|\x80\x8b\x071@'
p106
tp107
Rp108
ag10
(g14
S'\x84\x05\xd4J\xbe\xed0@'
p109
tp110
Rp111
ag10
(g14
S'Bw\xa4\xe7\xeb\x161@'
p112
tp113
Rp114
ag10
(g14
S'\xfc\x8bN\xc0\x0c@1@'
p115
tp116
Rp117
ag10
(g14
S'd\xfa4G\xb8x0@'
p118
tp119
Rp120
ag10
(g14
S'\xc6oX\x1f\xd6\xad1@'
p121
tp122
Rp123
ag10
(g14
S'W\xc6\x0b\xf96T1@'
p124
tp125
Rp126
ag10
(g14
S'K\xa8\xe4\tNm2@'
p127
tp128
Rp129
ag10
(g14
S'F*\x99X6\xe90@'
p130
tp131
Rp132
ag10
(g14
S']\xfaJY?22@'
p133
tp134
Rp135
ag10
(g14
S'\xf2\xc7\xf7\xeb\x1eJ1@'
p136
tp137
Rp138
asssss.