(dp0
S'../Data/sqlite_40.csv'
p1
(dp2
S'../Data/sqlite_97.csv'
p3
(dp4
F0.4
(dp5
S'mmre'
p6
(dp7
S'bellwether'
p8
(lp9
cnumpy.core.multiarray
scalar
p10
(cnumpy
dtype
p11
(S'f8'
p12
I0
I1
tp13
Rp14
(I3
S'<'
p15
NNNI-1
I-1
I0
tp16
bS'"\r\xc9\xa3\x1f|N@'
p17
tp18
Rp19
ag10
(g14
S'6B<\xbb\xbfGN@'
p20
tp21
Rp22
ag10
(g14
S'\xdc\x16`D3TN@'
p23
tp24
Rp25
ag10
(g14
S'R6/@NyN@'
p26
tp27
Rp28
ag10
(g14
S'!ASQ,FN@'
p29
tp30
Rp31
ag10
(g14
S'h\xf10F\x18\x9aN@'
p32
tp33
Rp34
ag10
(g14
S'\xf1c\xd5\xe1.sN@'
p35
tp36
Rp37
ag10
(g14
S'\t\xa4\x1d"\xc3KN@'
p38
tp39
Rp40
ag10
(g14
S';_\xa2\x14\x05\x81N@'
p41
tp42
Rp43
ag10
(g14
S'\x87.N\xaf\xbe\x82N@'
p44
tp45
Rp46
ag10
(g14
S'\xd7(W\x0f\x89=N@'
p47
tp48
Rp49
ag10
(g14
S'@\x98\xf9\xbeD<N@'
p50
tp51
Rp52
ag10
(g14
S'-`7\x97q\xe1M@'
p53
tp54
Rp55
ag10
(g14
S'\xfb\x19\xd0\xc2\xe0DN@'
p56
tp57
Rp58
ag10
(g14
S'\xe1\x847\x19+*N@'
p59
tp60
Rp61
ag10
(g14
S"*\x9f'\x1bzsN@"
p62
tp63
Rp64
ag10
(g14
S'g\x818\xe46WN@'
p65
tp66
Rp67
ag10
(g14
S'@\xfc\xde$\x9a\xa4N@'
p68
tp69
Rp70
ag10
(g14
S'\xb5\xa4\xbc\xd3\xcd\x80N@'
p71
tp72
Rp73
ag10
(g14
S'h\x9bn\x11wSN@'
p74
tp75
Rp76
asS'target'
p77
(lp78
g10
(g14
S'\x7f\xb3\xf8\xc6\xaa\xe9T@'
p79
tp80
Rp81
ag10
(g14
S'\\\x84v\xad5\xe7S@'
p82
tp83
Rp84
ag10
(g14
S'dZ\x8d;\xc9\xa3O@'
p85
tp86
Rp87
ag10
(g14
S'\x9fXa\xa2B\x03X@'
p88
tp89
Rp90
ag10
(g14
S'U\xb65\xdaZ]N@'
p91
tp92
Rp93
ag10
(g14
S'\xeb\xea\x06\xe8p#R@'
p94
tp95
Rp96
ag10
(g14
S'\x12\xb7xr\xe0\x7fP@'
p97
tp98
Rp99
ag10
(g14
S"'tG\xc4\xb4\xc8Q@"
p100
tp101
Rp102
ag10
(g14
S'"N\x18\xc6\xcf\xa7I@'
p103
tp104
Rp105
ag10
(g14
S'\xa0n\x14\xf6kyX@'
p106
tp107
Rp108
ag10
(g14
S'\xa2f\xbfZt|W@'
p109
tp110
Rp111
ag10
(g14
S'\xad\x06\xd5k\xf6\xabT@'
p112
tp113
Rp114
ag10
(g14
S'/\xcc*\xf5G\x00_@'
p115
tp116
Rp117
ag10
(g14
S'\xa04BU\xbc"T@'
p118
tp119
Rp120
ag10
(g14
S'\x8d\xb6Z\xbc+@V@'
p121
tp122
Rp123
ag10
(g14
S'\x03(\xfe#\x84\x03U@'
p124
tp125
Rp126
ag10
(g14
S'\xd2LQ\xdf,IU@'
p127
tp128
Rp129
ag10
(g14
S'\xac\xbfB#\x9d\xaeR@'
p130
tp131
Rp132
ag10
(g14
S'\xbd?-\x1f;\xf0U@'
p133
tp134
Rp135
ag10
(g14
S'\x83_\x19\xf9{&S@'
p136
tp137
Rp138
asssss.