(dp0
S'../Data/sqlite_51.csv'
p1
(dp2
S'../Data/sqlite_63.csv'
p3
(dp4
F0.3
(dp5
S'mmre'
p6
(dp7
S'bellwether'
p8
(lp9
cnumpy.core.multiarray
scalar
p10
(cnumpy
dtype
p11
(S'f8'
p12
I0
I1
tp13
Rp14
(I3
S'<'
p15
NNNI-1
I-1
I0
tp16
bS'Z\xbb\x14\xa4\xd6hW@'
p17
tp18
Rp19
ag10
(g14
S'dV\x9e\x8f\xd8hW@'
p20
tp21
Rp22
ag10
(g14
S'w\xd7^}\xd0hW@'
p23
tp24
Rp25
ag10
(g14
S'M\x8a\x10\xf6\x06jW@'
p26
tp27
Rp28
ag10
(g14
S'J\x96sU#iW@'
p29
tp30
Rp31
ag10
(g14
S'\x0b\xebW1|iW@'
p32
tp33
Rp34
ag10
(g14
S'z\x8e\xaf\xf5iiW@'
p35
tp36
Rp37
ag10
(g14
S'!\x94\xa6\xe2AiW@'
p38
tp39
Rp40
ag10
(g14
S'\x84\xb6#p)iW@'
p41
tp42
Rp43
ag10
(g14
S'P\x08t\x1d\x02hW@'
p44
tp45
Rp46
ag10
(g14
S'\xba\x0c\xdc\x1d\xa0iW@'
p47
tp48
Rp49
ag10
(g14
S'\xf1%\x1fv\xdchW@'
p50
tp51
Rp52
ag10
(g14
S'V\x7f/F.jW@'
p53
tp54
Rp55
ag10
(g14
S'\xe1\x9b\xea\x9c\xe1hW@'
p56
tp57
Rp58
ag10
(g14
S'\xa0\xa8\xdc\n9iW@'
p59
tp60
Rp61
ag10
(g14
S'\x9baN\xa0[iW@'
p62
tp63
Rp64
ag10
(g14
S'R\xa2\xca\xe9\xf1hW@'
p65
tp66
Rp67
ag10
(g14
S'\xb0b\xafK\x9ahW@'
p68
tp69
Rp70
ag10
(g14
S'e\xad\x8d\x10\x9ciW@'
p71
tp72
Rp73
ag10
(g14
S'\xab\x86\xab\xb9diW@'
p74
tp75
Rp76
asS'target'
p77
(lp78
g10
(g14
S'\xd0l\xe0|h;#@'
p79
tp80
Rp81
ag10
(g14
S'9\x83|<O\x05#@'
p82
tp83
Rp84
ag10
(g14
S'za?\xce\xad\x9d"@'
p85
tp86
Rp87
ag10
(g14
S'\xeb\xf6\x87m\xf9\x19"@'
p88
tp89
Rp90
ag10
(g14
S'\x1d\x8cJ\x04\xc7K"@'
p91
tp92
Rp93
ag10
(g14
S'**\x15\xfe1\xf3!@'
p94
tp95
Rp96
ag10
(g14
S'\xa3\x88aP\xbe{!@'
p97
tp98
Rp99
ag10
(g14
S'\xadh\xf5\xb6\xe6\xec!@'
p100
tp101
Rp102
ag10
(g14
S'\x8d\x01\xd3\xff\xc7@#@'
p103
tp104
Rp105
ag10
(g14
S"\x8d\xb9'\x10\r+#@"
p106
tp107
Rp108
ag10
(g14
S'\x1a2\xafE\x900#@'
p109
tp110
Rp111
ag10
(g14
S'Z[\xaf\xe5\xeas"@'
p112
tp113
Rp114
ag10
(g14
S'\xfd\x91\x0fr#I#@'
p115
tp116
Rp117
ag10
(g14
S'a\xad\x95\xb9tt#@'
p118
tp119
Rp120
ag10
(g14
S'\x99\x98u\xf2vY"@'
p121
tp122
Rp123
ag10
(g14
S'\x07\xf3\xc7\xb0\xb0\xcc!@'
p124
tp125
Rp126
ag10
(g14
S'2\xeaF\xc0`\x85"@'
p127
tp128
Rp129
ag10
(g14
S'\x1b\x9bw\xa1\xd4\xe4!@'
p130
tp131
Rp132
ag10
(g14
S'\xb4\x9ak\x7f(""@'
p133
tp134
Rp135
ag10
(g14
S"'W\xa7[\xd1\x00#@"
p136
tp137
Rp138
asssss.