(dp0
S'../Data/sqlite_79.csv'
p1
(dp2
S'../Data/sqlite_70.csv'
p3
(dp4
F0.4
(dp5
S'rank'
p6
(dp7
S'bellwether'
p8
(lp9
I19
aI52
aI23
aI49
aI45
aI51
aI29
aI54
aI24
aI26
aI39
aI23
aI24
aI21
aI24
aI165
aI59
aI30
aI26
aI27
asS'target'
p10
(lp11
I13
aI89
aI31
aI8
aI17
aI50
aI7
aI12
aI12
aI6
aI0
aI30
aI31
aI25
aI12
aI16
aI13
aI12
aI13
aI13
asssss.