(dp0
S'../Data/sqlite_93.csv'
p1
(dp2
S'../Data/sqlite_73.csv'
p3
(dp4
F0.05
(dp5
S'mmre'
p6
(dp7
S'bellwether'
p8
(lp9
cnumpy.core.multiarray
scalar
p10
(cnumpy
dtype
p11
(S'f8'
p12
I0
I1
tp13
Rp14
(I3
S'<'
p15
NNNI-1
I-1
I0
tp16
bS'\x0f\x1b5\xc1D+V@'
p17
tp18
Rp19
ag10
(g14
S'Bc\xe5\xff\x18)V@'
p20
tp21
Rp22
ag10
(g14
S'\x0c\x8bd\x01\xd40V@'
p23
tp24
Rp25
ag10
(g14
S'\xc0\xc7_!b$V@'
p26
tp27
Rp28
ag10
(g14
S'`\x8c\xcfS\x95\x1dV@'
p29
tp30
Rp31
ag10
(g14
S'\xc1\xa8O\xad\r%V@'
p32
tp33
Rp34
ag10
(g14
S'\x03^\x02\xc14 V@'
p35
tp36
Rp37
ag10
(g14
S'\x82f\xbc\xc9\xa7$V@'
p38
tp39
Rp40
ag10
(g14
S'\x80\x83\x05\xa9\x1d\x1dV@'
p41
tp42
Rp43
ag10
(g14
S'r\xfbMr\x891V@'
p44
tp45
Rp46
ag10
(g14
S'\x932PT|-V@'
p47
tp48
Rp49
ag10
(g14
S'\x8aA\x1ch@%V@'
p50
tp51
Rp52
ag10
(g14
S'\x06=\xa1\xf9c)V@'
p53
tp54
Rp55
ag10
(g14
S'\x02vq%d=V@'
p56
tp57
Rp58
ag10
(g14
S'<\xc5\xc1\xff\x13$V@'
p59
tp60
Rp61
ag10
(g14
S'\xf8s\x1b\x13\x1e+V@'
p62
tp63
Rp64
ag10
(g14
S'\xaf\x9a\xc4\x839\x1fV@'
p65
tp66
Rp67
ag10
(g14
S'G\xe7\x84\n\x94*V@'
p68
tp69
Rp70
ag10
(g14
S"\xc7\xdf\x9f\xceo'V@"
p71
tp72
Rp73
ag10
(g14
S'\xafHMSd!V@'
p74
tp75
Rp76
asS'target'
p77
(lp78
g10
(g14
S'\xa2^\xf3\xdaf\xff)@'
p79
tp80
Rp81
ag10
(g14
S'~g\xd6Du\x8f0@'
p82
tp83
Rp84
ag10
(g14
S'\xd7g8\xac\x90{)@'
p85
tp86
Rp87
ag10
(g14
S'q\\;Z\\q-@'
p88
tp89
Rp90
ag10
(g14
S'\xe8\xdfW\xdeq\xfa(@'
p91
tp92
Rp93
ag10
(g14
S'\xb1\x98\x9c\xb6\xa2-)@'
p94
tp95
Rp96
ag10
(g14
S'\xf5\xf8\x0b\xcd\x07\x98+@'
p97
tp98
Rp99
ag10
(g14
S'\xd4p\xe9\xa4!\xac+@'
p100
tp101
Rp102
ag10
(g14
S'\x1bz\xc8\xb0\x12\x12+@'
p103
tp104
Rp105
ag10
(g14
S'g,\x87\xaaJ\xcd)@'
p106
tp107
Rp108
ag10
(g14
S'\x84Z\xe5\xed\xf5\x14-@'
p109
tp110
Rp111
ag10
(g14
S'\xf6\xa5D\xa2c\xfe)@'
p112
tp113
Rp114
ag10
(g14
S'6\x82A\xd6\xbch*@'
p115
tp116
Rp117
ag10
(g14
S'{k\xf3\x91\xf7\x88)@'
p118
tp119
Rp120
ag10
(g14
S'|\xea\xde\xb5U\x18+@'
p121
tp122
Rp123
ag10
(g14
S'\x11\xab\xb9\xec\xdd|)@'
p124
tp125
Rp126
ag10
(g14
S'\xf5\xe7D\x82k\x88)@'
p127
tp128
Rp129
ag10
(g14
S'\xf8\xc3\xb9n\\\x92*@'
p130
tp131
Rp132
ag10
(g14
S'\x90@\n|j6+@'
p133
tp134
Rp135
ag10
(g14
S'Qja5+\x1a*@'
p136
tp137
Rp138
asssss.