(dp0
S'../Data/sqlite_32.csv'
p1
(dp2
S'../Data/sqlite_37.csv'
p3
(dp4
F0.3
(dp5
S'abs_res'
p6
(dp7
S'bellwether'
p8
(lp9
cnumpy.core.multiarray
scalar
p10
(cnumpy
dtype
p11
(S'f8'
p12
I0
I1
tp13
Rp14
(I3
S'<'
p15
NNNI-1
I-1
I0
tp16
bS'Nb\x10X{0@A'
p17
tp18
Rp19
ag10
(g14
S'\xb5\xf3\xfd$\xe81@A'
p20
tp21
Rp22
ag10
(g14
S'r=\n\x97k2@A'
p23
tp24
Rp25
ag10
(g14
S'}\x14\xae\xb7\xba2@A'
p26
tp27
Rp28
ag10
(g14
S'\xba\x1e\x85\xcb\x192@A'
p29
tp30
Rp31
ag10
(g14
S'\xe9\xd0"\x1b\xf42@A'
p32
tp33
Rp34
ag10
(g14
S'W\xb8\x1e\x15N1@A'
p35
tp36
Rp37
ag10
(g14
S'\x1c\xaeG\xb1s0@A'
p38
tp39
Rp40
ag10
(g14
S'\x8dl\xe7[\x912@A'
p41
tp42
Rp43
ag10
(g14
S'\xef&1(\xca/@A'
p44
tp45
Rp46
ag10
(g14
S'W\x0e-R\xfe2@A'
p47
tp48
Rp49
ag10
(g14
S'@5^\xea92@A'
p50
tp51
Rp52
ag10
(g14
S'R\x8d\x97\xee\x840@A'
p53
tp54
Rp55
ag10
(g14
S'Pb\x10\xf8\xe02@A'
p56
tp57
Rp58
ag10
(g14
S'\xad\xc6K\x07\x1d2@A'
p59
tp60
Rp61
ag10
(g14
S'\x7f?5NP2@A'
p62
tp63
Rp64
ag10
(g14
S'\x01\x00\x000\xbe/@A'
p65
tp66
Rp67
ag10
(g14
S'\xa4\xef\xa7\xf6\xb91@A'
p68
tp69
Rp70
ag10
(g14
S'H\x8bl\xe7i3@A'
p71
tp72
Rp73
ag10
(g14
S'L\xe1z\xd4\xd61@A'
p74
tp75
Rp76
asS'target'
p77
(lp78
g10
(g14
S'H\x8d\x97n\x12\x83L@'
p79
tp80
Rp81
ag10
(g14
S'\x06+\x87\x16\xd9.J@'
p82
tp83
Rp84
ag10
(g14
S'm\x91\xed|?UM@'
p85
tp86
Rp87
ag10
(g14
S'\xce\xa1E\xb6\xf3\x15K@'
p88
tp89
Rp90
ag10
(g14
S'\x8d\x95C\x8blgJ@'
p91
tp92
Rp93
ag10
(g14
S'<\xdfO\x8d\x97nL@'
p94
tp95
Rp96
ag10
(g14
S'\xf3\xd2Mb\x10HJ@'
p97
tp98
Rp99
ag10
(g14
S's\x93\x18\x04V.L@'
p100
tp101
Rp102
ag10
(g14
S'\\\x10X9\xb4\x88M@'
p103
tp104
Rp105
ag10
(g14
S'\xb0G\xe1z\x14\xceL@'
p106
tp107
Rp108
ag10
(g14
S'}\xe9&1\x08\xf4I@'
p109
tp110
Rp111
ag10
(g14
S'<\n\xd7\xa3p\xedK@'
p112
tp113
Rp114
ag10
(g14
S'\x1d\xaeG\xe1z|L@'
p115
tp116
Rp117
ag10
(g14
S'kffff\xa6L@'
p118
tp119
Rp120
ag10
(g14
S'\x17\x83\xc0\xca\xa15L@'
p121
tp122
Rp123
ag10
(g14
S'\xa6\xef\xa7\xc6KwM@'
p124
tp125
Rp126
ag10
(g14
S'\xa6E\xb6\xf3\xfdLK@'
p127
tp128
Rp129
ag10
(g14
S'D\xb6\xf3\xfd\xd4\xd0K@'
p130
tp131
Rp132
ag10
(g14
S'~=\n\xd7\xa3\x10K@'
p133
tp134
Rp135
ag10
(g14
S'/\xdd$\x06\x81\xc5K@'
p136
tp137
Rp138
asssss.