(dp0
S'../Data/sqlite_78.csv'
p1
(dp2
S'../Data/sqlite_87.csv'
p3
(dp4
F0.05
(dp5
S'mmre'
p6
(dp7
S'bellwether'
p8
(lp9
cnumpy.core.multiarray
scalar
p10
(cnumpy
dtype
p11
(S'f8'
p12
I0
I1
tp13
Rp14
(I3
S'<'
p15
NNNI-1
I-1
I0
tp16
bS'7\xae\x1fb5lK@'
p17
tp18
Rp19
ag10
(g14
S'\xcc\xfe\xb25n`K@'
p20
tp21
Rp22
ag10
(g14
S'\x04H\x1a\xfa@EK@'
p23
tp24
Rp25
ag10
(g14
S'b\x85\x82\x86TTK@'
p26
tp27
Rp28
ag10
(g14
S'\xe8R\xe4fa_K@'
p29
tp30
Rp31
ag10
(g14
S'Z\xb7 l\x02LK@'
p32
tp33
Rp34
ag10
(g14
S'\x9c\x9a{\x97\xbaUK@'
p35
tp36
Rp37
ag10
(g14
S'\xce\xe0^\x87\xb5WK@'
p38
tp39
Rp40
ag10
(g14
S' \xcbm\xfb<ZK@'
p41
tp42
Rp43
ag10
(g14
S'v/\xae\x82\x89aK@'
p44
tp45
Rp46
ag10
(g14
S'\xe8\n1\xbc3lK@'
p47
tp48
Rp49
ag10
(g14
S'\x8b\x15i\n"gK@'
p50
tp51
Rp52
ag10
(g14
S'\xa8\xb2&\x13\x85jK@'
p53
tp54
Rp55
ag10
(g14
S'\xff`\xafzzfK@'
p56
tp57
Rp58
ag10
(g14
S'\xff\xe1\x0f\x9b\x19VK@'
p59
tp60
Rp61
ag10
(g14
S'\x1b\x0b\t\xad\xf8rK@'
p62
tp63
Rp64
ag10
(g14
S'\xdfv8\xe7\x82hK@'
p65
tp66
Rp67
ag10
(g14
S'+\x1d\x8b\xcc\x02iK@'
p68
tp69
Rp70
ag10
(g14
S'\xdb\x1f\x19M(aK@'
p71
tp72
Rp73
ag10
(g14
S"'1\xe4^CQK@"
p74
tp75
Rp76
asS'target'
p77
(lp78
g10
(g14
S"\xd2\x93W#L'H@"
p79
tp80
Rp81
ag10
(g14
S'\x80\xde"\xf0;\xf8Z@'
p82
tp83
Rp84
ag10
(g14
S'MY.\xed\x94:P@'
p85
tp86
Rp87
ag10
(g14
S'|@\xbf]/\xc2O@'
p88
tp89
Rp90
ag10
(g14
S'9#\x03M*`S@'
p91
tp92
Rp93
ag10
(g14
S'\xb8\x8f\xcb\x8a\x10 M@'
p94
tp95
Rp96
ag10
(g14
S'\xc2#\xeeV)\x90D@'
p97
tp98
Rp99
ag10
(g14
S'\xe6w\x03\x84| Z@'
p100
tp101
Rp102
ag10
(g14
S'z\xc3\xe7\x01\x0f\xffR@'
p103
tp104
Rp105
ag10
(g14
S'\xefo@_NZQ@'
p106
tp107
Rp108
ag10
(g14
S'\xb2MQW+\x9cL@'
p109
tp110
Rp111
ag10
(g14
S'\x0c\xf7\xa7\xa1r\x01I@'
p112
tp113
Rp114
ag10
(g14
S'\xfd\xd9TM%\x17J@'
p115
tp116
Rp117
ag10
(g14
S'\xaaD\xa6u[GH@'
p118
tp119
Rp120
ag10
(g14
S'\xc7$\x8dx\x9b\xb6N@'
p121
tp122
Rp123
ag10
(g14
S'\xbdAs#\x07\x00S@'
p124
tp125
Rp126
ag10
(g14
S'{\x17\xb7htxQ@'
p127
tp128
Rp129
ag10
(g14
S'\xe5\xa4\x1d\xb4$\xdaI@'
p130
tp131
Rp132
ag10
(g14
S'\x91a\xce\xf7g\xe3G@'
p133
tp134
Rp135
ag10
(g14
S'\xed\x04\x84\xe9\xb0=X@'
p136
tp137
Rp138
asssss.