(dp0
S'../Data/sqlite_36.csv'
p1
(dp2
S'../Data/sqlite_90.csv'
p3
(dp4
F0.1
(dp5
S'mmre'
p6
(dp7
S'bellwether'
p8
(lp9
cnumpy.core.multiarray
scalar
p10
(cnumpy
dtype
p11
(S'f8'
p12
I0
I1
tp13
Rp14
(I3
S'<'
p15
NNNI-1
I-1
I0
tp16
bS'\xb8d\x17\x99\xfb8X@'
p17
tp18
Rp19
ag10
(g14
S'\x03M\x1e\x1555X@'
p20
tp21
Rp22
ag10
(g14
S'\xcb\xc70\x9a\x856X@'
p23
tp24
Rp25
ag10
(g14
S'^\x81\xda\xd2D8X@'
p26
tp27
Rp28
ag10
(g14
S'\x07i\xcc\x88\x1c8X@'
p29
tp30
Rp31
ag10
(g14
S'\x0e\xa6V@\xe37X@'
p32
tp33
Rp34
ag10
(g14
S'\x10g\xe2r\\5X@'
p35
tp36
Rp37
ag10
(g14
S'\xfca\xf1R[4X@'
p38
tp39
Rp40
ag10
(g14
S'\x87\xee9\xad\xa46X@'
p41
tp42
Rp43
ag10
(g14
S'\xa1{\x86\xa9\xbe7X@'
p44
tp45
Rp46
ag10
(g14
S'\xf0Y\xa0)l5X@'
p47
tp48
Rp49
ag10
(g14
S'N>w\xb0\x835X@'
p50
tp51
Rp52
ag10
(g14
S'\r>y\x95h4X@'
p53
tp54
Rp55
ag10
(g14
S'us`\xf3W6X@'
p56
tp57
Rp58
ag10
(g14
S'3\xf2l\x07\xee9X@'
p59
tp60
Rp61
ag10
(g14
S']ub\xeaJ7X@'
p62
tp63
Rp64
ag10
(g14
S'\x05T\x9d!j9X@'
p65
tp66
Rp67
ag10
(g14
S'|\xbf0\xe3\x075X@'
p68
tp69
Rp70
ag10
(g14
S'\x18^\x9e\xbd%6X@'
p71
tp72
Rp73
ag10
(g14
S'\xad\x00g\xe1\x0c5X@'
p74
tp75
Rp76
asS'target'
p77
(lp78
g10
(g14
S'E\x84\xe9i\x11\xc3@@'
p79
tp80
Rp81
ag10
(g14
S'\xdf\xf3\xe4E\xbf`A@'
p82
tp83
Rp84
ag10
(g14
S'\xd5A=\x08\x9c\xd8A@'
p85
tp86
Rp87
ag10
(g14
S'\x07\x80\xe5a!\xc9A@'
p88
tp89
Rp90
ag10
(g14
S't\x0c\x1ck\xd7\x04A@'
p91
tp92
Rp93
ag10
(g14
S'$\xa6kFQ?A@'
p94
tp95
Rp96
ag10
(g14
S'*\xde\xfd\x8a\xb4\xec@@'
p97
tp98
Rp99
ag10
(g14
S'\xa5,\xc6vr&B@'
p100
tp101
Rp102
ag10
(g14
S'v1\x92Q\xd7k?@'
p103
tp104
Rp105
ag10
(g14
S'c0\xab\xf1\xdakC@'
p106
tp107
Rp108
ag10
(g14
S'\xe0\xd6\x08\x94{\rA@'
p109
tp110
Rp111
ag10
(g14
S'B=\xb2\x8c\xc6\x8e@@'
p112
tp113
Rp114
ag10
(g14
S'U\xc3\x9b\xdf\x97\x92?@'
p115
tp116
Rp117
ag10
(g14
S'\xf5\xe0l3\xc5#B@'
p118
tp119
Rp120
ag10
(g14
S'%LI\xcaX B@'
p121
tp122
Rp123
ag10
(g14
S'~H\x86J\xb7 A@'
p124
tp125
Rp126
ag10
(g14
S'\xb7\x90\x08MU\xf4@@'
p127
tp128
Rp129
ag10
(g14
S'\xbb~\x99\xfe&<B@'
p130
tp131
Rp132
ag10
(g14
S'\xbb/\xf3\xfd\xe23?@'
p133
tp134
Rp135
ag10
(g14
S'\xec\x95\x99#%\x82@@'
p136
tp137
Rp138
asssss.