(dp0
S'../Data/sqlite_48.csv'
p1
(dp2
S'../Data/sqlite_95.csv'
p3
(dp4
F0.1
(dp5
S'abs_res'
p6
(dp7
S'bellwether'
p8
(lp9
cnumpy.core.multiarray
scalar
p10
(cnumpy
dtype
p11
(S'f8'
p12
I0
I1
tp13
Rp14
(I3
S'<'
p15
NNNI-1
I-1
I0
tp16
bS'\x1b\x02+wLU:A'
p17
tp18
Rp19
ag10
(g14
S'wh\x91]\x19t:A'
p20
tp21
Rp22
ag10
(g14
S'pff\xa6\rb:A'
p23
tp24
Rp25
ag10
(g14
S'\x07+\x876\x83P:A'
p26
tp27
Rp28
ag10
(g14
S'\x04\xaa\xf1\x92\xad\x8b:A'
p29
tp30
Rp31
ag10
(g14
S'\xc4\x1e\x85\x9b\xfbi:A'
p32
tp33
Rp34
ag10
(g14
S'W\x8d\x97>\x91Z:A'
p35
tp36
Rp37
ag10
(g14
S'D\x8blG\x08,:A'
p38
tp39
Rp40
ag10
(g14
S'/\\\x8fb\x14j:A'
p41
tp42
Rp43
ag10
(g14
S'\x98\x97n\xf2]V:A'
p44
tp45
Rp46
ag10
(g14
S'?\xdfO\xad\xd0~:A'
p47
tp48
Rp49
ag10
(g14
S'A\xd0i\xc3\xc33:A'
p50
tp51
Rp52
ag10
(g14
S'\xf3\xee\xee\xce\xe7t:A'
p53
tp54
Rp55
ag10
(g14
S'\xa44\xa5\xb2DF:A'
p56
tp57
Rp58
ag10
(g14
S'"\xd9\xce\'!2:A'
p59
tp60
Rp61
ag10
(g14
S"A\x98':fc:A"
p62
tp63
Rp64
ag10
(g14
S'\t\x9b\x0bY\xba]:A'
p65
tp66
Rp67
ag10
(g14
S'D\xb4\xc8\xd6Mb:A'
p68
tp69
Rp70
ag10
(g14
S'\xfc(\\\x7f\xe2::A'
p71
tp72
Rp73
ag10
(g14
S'\xc4\x9f\x1a/\nY:A'
p74
tp75
Rp76
asS'target'
p77
(lp78
g10
(g14
S'0333\xe9^%A'
p79
tp80
Rp81
ag10
(g14
S'Y\x8f\xc2uh\xdf#A'
p82
tp83
Rp84
ag10
(g14
S'\x15\xaeG\xe14\x17\x1fA'
p85
tp86
Rp87
ag10
(g14
S'\xb3\x1e\x85\xeb\r\x15$A'
p88
tp89
Rp90
ag10
(g14
S'|=\n\xd7Q&\x1dA'
p91
tp92
Rp93
ag10
(g14
S'mfff\xde\xb7\x1bA'
p94
tp95
Rp96
ag10
(g14
S'\xe0z\x14\xae\x1e\xfd A'
p97
tp98
Rp99
ag10
(g14
S'B\xe1z\x14\xb3H#A'
p100
tp101
Rp102
ag10
(g14
S'K\xe1z\x14\xc7\xbd A'
p103
tp104
Rp105
ag10
(g14
S'q=\n\xd7.\xf0#A'
p106
tp107
Rp108
ag10
(g14
S'\x91\xc2\xf5(\xa2J\x1dA'
p109
tp110
Rp111
ag10
(g14
S"\x9ap=\x8a\x81f'A"
p112
tp113
Rp114
ag10
(g14
S'\xbb\xf5(\\=\xc3\x1dA'
p115
tp116
Rp117
ag10
(g14
S'\x85\xebQ\xb8-\x87%A'
p118
tp119
Rp120
ag10
(g14
S'z\x14\xaeGb\x05%A'
p121
tp122
Rp123
ag10
(g14
S'\x02\x00\x00\x00\xa5\n"A'
p124
tp125
Rp126
ag10
(g14
S'\r\xd7\xa3\xf0\xeer!A'
p127
tp128
Rp129
ag10
(g14
S'_\x8f\xc2\xf5\xb2}\x1fA'
p130
tp131
Rp132
ag10
(g14
S'\xc9\xcc\xccLd8&A'
p133
tp134
Rp135
ag10
(g14
S'\xcc\xf5(\\\x05\xf9\x1bA'
p136
tp137
Rp138
asssss.