(dp0
S'../Data/sqlite_82.csv'
p1
(dp2
S'../Data/sqlite_89.csv'
p3
(dp4
F0.3
(dp5
S'mmre'
p6
(dp7
S'bellwether'
p8
(lp9
cnumpy.core.multiarray
scalar
p10
(cnumpy
dtype
p11
(S'f8'
p12
I0
I1
tp13
Rp14
(I3
S'<'
p15
NNNI-1
I-1
I0
tp16
bS'\xc7B\x97F\xca+o@'
p17
tp18
Rp19
ag10
(g14
S'/\x05W\xeb-,o@'
p20
tp21
Rp22
ag10
(g14
S'\xe9j\xb0\xef\x17|o@'
p23
tp24
Rp25
ag10
(g14
S'\xe0\xa5 z\xcd\xa0o@'
p26
tp27
Rp28
ag10
(g14
S'\xac\xebf\xb1O\x94n@'
p29
tp30
Rp31
ag10
(g14
S'T\x1e\x0c\xbf:Vo@'
p32
tp33
Rp34
ag10
(g14
S'D[\xb2w\xce\xaen@'
p35
tp36
Rp37
ag10
(g14
S'\xde\\\x97\xb0S*o@'
p38
tp39
Rp40
ag10
(g14
S'\x1b\xa8e\x80\x89\xaen@'
p41
tp42
Rp43
ag10
(g14
S'U\xf0\xcc\x10\xfaCo@'
p44
tp45
Rp46
ag10
(g14
S'<\xd1\xee\x1bl1o@'
p47
tp48
Rp49
ag10
(g14
S'\xb0/KL\x9e\xffn@'
p50
tp51
Rp52
ag10
(g14
S'u\x8d\xb8\x12ppo@'
p53
tp54
Rp55
ag10
(g14
S'\xe7)\x04\xa2\xa6\x15o@'
p56
tp57
Rp58
ag10
(g14
S'!^.\x1d)fo@'
p59
tp60
Rp61
ag10
(g14
S'>\x9d\xf7z\x02`o@'
p62
tp63
Rp64
ag10
(g14
S'\x11\xbd\x13-\xe0No@'
p65
tp66
Rp67
ag10
(g14
S'\x9a&2I\x7f,o@'
p68
tp69
Rp70
ag10
(g14
S'\x93\xcd\x97ww\x19o@'
p71
tp72
Rp73
ag10
(g14
S'J\x93Z\xfd\x9d\x01o@'
p74
tp75
Rp76
asS'target'
p77
(lp78
g10
(g14
S"c'%>NWL@"
p79
tp80
Rp81
ag10
(g14
S'_`_\t\xc9vP@'
p82
tp83
Rp84
ag10
(g14
S'\xd0\n\xd2\x01\x87\\P@'
p85
tp86
Rp87
ag10
(g14
S'zR\x18Hk%P@'
p88
tp89
Rp90
ag10
(g14
S'\xcf7\xa7+\x04\x1aQ@'
p91
tp92
Rp93
ag10
(g14
S'^\xfa\xdez\xdf{R@'
p94
tp95
Rp96
ag10
(g14
S'\x98\xb34\t\x1deI@'
p97
tp98
Rp99
ag10
(g14
S'\x16\x8e\xae^}\x86R@'
p100
tp101
Rp102
ag10
(g14
S'\xdc\xc9L\x94\xe9\x93P@'
p103
tp104
Rp105
ag10
(g14
S')z\xa7p\x10\x98T@'
p106
tp107
Rp108
ag10
(g14
S'\x9a\x8a\x88\xa5\xc4OS@'
p109
tp110
Rp111
ag10
(g14
S',!9\xcf\xc4\xafH@'
p112
tp113
Rp114
ag10
(g14
S'\x81\xc8\xa4dB\x80P@'
p115
tp116
Rp117
ag10
(g14
S']}\xf5W\x93\xfaT@'
p118
tp119
Rp120
ag10
(g14
S'\xd7V\xd9\x01\xcb\x13T@'
p121
tp122
Rp123
ag10
(g14
S'\xbdM\xc1\xa7\x9b\xf7N@'
p124
tp125
Rp126
ag10
(g14
S' S\xe3\xfa\x9fCU@'
p127
tp128
Rp129
ag10
(g14
S'\xdc\x91\x12\xed\xffTO@'
p130
tp131
Rp132
ag10
(g14
S"'9G\xe3nPS@"
p133
tp134
Rp135
ag10
(g14
S'a\x849\xe5\xe8\xe3T@'
p136
tp137
Rp138
asssss.