(dp0
S'../Data/sqlite_43.csv'
p1
(dp2
S'../Data/sqlite_7.csv'
p3
(dp4
F0.25
(dp5
S'abs_res'
p6
(dp7
S'bellwether'
p8
(lp9
cnumpy.core.multiarray
scalar
p10
(cnumpy
dtype
p11
(S'f8'
p12
I0
I1
tp13
Rp14
(I3
S'<'
p15
NNNI-1
I-1
I0
tp16
bS'\r\xf5o\xc4{W<A'
p17
tp18
Rp19
ag10
(g14
S'\x11\xf5o\xa4,Y<A'
p20
tp21
Rp22
ag10
(g14
S'\x1fO\xd4\xbf1X<A'
p23
tp24
Rp25
ag10
(g14
S'\x13/\xdd\xe4\x0eX<A'
p26
tp27
Rp28
ag10
(g14
S'-33\xb3\xb6X<A'
p29
tp30
Rp31
ag10
(g14
S'\x8d_,\x19XV<A'
p32
tp33
Rp34
ag10
(g14
S'K\xe3\xa5\xbb\xbaX<A'
p35
tp36
Rp37
ag10
(g14
S'\x11\x04V\xce\x1aY<A'
p38
tp39
Rp40
ag10
(g14
S'H\xd4\xbf\x91RV<A'
p41
tp42
Rp43
ag10
(g14
S'\x03\xc8\xbd&PX<A'
p44
tp45
Rp46
ag10
(g14
S'\xe4B\xd2\xb4@X<A'
p47
tp48
Rp49
ag10
(g14
S'\xee|?\xd5\xb3W<A'
p50
tp51
Rp52
ag10
(g14
S'kL\xf0`\xacW<A'
p53
tp54
Rp55
ag10
(g14
S'>o\xcbz\xc6X<A'
p56
tp57
Rp58
ag10
(g14
S'4\x89A\x00TX<A'
p59
tp60
Rp61
ag10
(g14
S'\x8c\xe0\xc1\xbc!W<A'
p62
tp63
Rp64
ag10
(g14
S'\xd9\x96\xb5\xdajW<A'
p65
tp66
Rp67
ag10
(g14
S'\x13-\xb2\xbd\xc3W<A'
p68
tp69
Rp70
ag10
(g14
S'.\xb4\xc8\xd6`W<A'
p71
tp72
Rp73
ag10
(g14
S'\xeb\xb6\xac\xf5\xc2X<A'
p74
tp75
Rp76
asS'target'
p77
(lp78
g10
(g14
S'\xd6\xf7S\xe3\xa5\x03h@'
p79
tp80
Rp81
ag10
(g14
S'q\x14\xaeG\xe1\xeeg@'
p82
tp83
Rp84
ag10
(g14
S'\x84?5^\xbaMj@'
p85
tp86
Rp87
ag10
(g14
S'\x8f\x18\x04V\x0e1h@'
p88
tp89
Rp90
ag10
(g14
S'Z9\xb4\xc8v\x18h@'
p91
tp92
Rp93
ag10
(g14
S'r\xe9&1\x08\x98h@'
p94
tp95
Rp96
ag10
(g14
S'\r\xac\x1cZd\xe3g@'
p97
tp98
Rp99
ag10
(g14
S'\xe2|?5^fh@'
p100
tp101
Rp102
ag10
(g14
S'\x8b\xed|?5\x12i@'
p103
tp104
Rp105
ag10
(g14
S'0\x08\xac\x1cZ.j@'
p106
tp107
Rp108
ag10
(g14
S'\x9f\x1a/\xdd$ri@'
p109
tp110
Rp111
ag10
(g14
S'\xe2$\x06\x81\x95\xf1g@'
p112
tp113
Rp114
ag10
(g14
S'T\xb8\x1e\x85\xeb\xcfh@'
p115
tp116
Rp117
ag10
(g14
S'\xb4\xf3\xfd\xd4x)j@'
p118
tp119
Rp120
ag10
(g14
S'\xdc\xf9~j\xbc\x88j@'
p121
tp122
Rp123
ag10
(g14
S'\x06/\xdd$\x06\th@'
p124
tp125
Rp126
ag10
(g14
S'D\x8bl\xe7\xfb\xddg@'
p127
tp128
Rp129
ag10
(g14
S'o\x91\xed|?\x9dh@'
p130
tp131
Rp132
ag10
(g14
S'i\x12\x83\xc0\xca\x01i@'
p133
tp134
Rp135
ag10
(g14
S'\x8a\xc2\xf5(\\\xcbi@'
p136
tp137
Rp138
asssss.