(dp0
S'../Data/sqlite_57.csv'
p1
(dp2
S'../Data/sqlite_23.csv'
p3
(dp4
F0.3
(dp5
S'abs_res'
p6
(dp7
S'bellwether'
p8
(lp9
cnumpy.core.multiarray
scalar
p10
(cnumpy
dtype
p11
(S'f8'
p12
I0
I1
tp13
Rp14
(I3
S'<'
p15
NNNI-1
I-1
I0
tp16
bS'=\xdfO\x19\x06hdA'
p17
tp18
Rp19
ag10
(g14
S'\xc9\xcc\xccL\xeafdA'
p20
tp21
Rp22
ag10
(g14
S'g\xbaI\x98\xc6YdA'
p23
tp24
Rp25
ag10
(g14
S'\xfe\xd4x)pbdA'
p26
tp27
Rp28
ag10
(g14
S'\x8fl\xe7\x97\xf2^dA'
p29
tp30
Rp31
ag10
(g14
S'\xcd\xa1EB\xe5RdA'
p32
tp33
Rp34
ag10
(g14
S'Z\x0e-\xf2\x9bedA'
p35
tp36
Rp37
ag10
(g14
S'\xf6(\\\xe3\x07edA'
p38
tp39
Rp40
ag10
(g14
S'\x97\xef\xa7J!WdA'
p41
tp42
Rp43
ag10
(g14
S'-\xdd$\xc2 kdA'
p44
tp45
Rp46
ag10
(g14
S'\x11\xaeG\xe9\x12kdA'
p47
tp48
Rp49
ag10
(g14
S'\x10X9\x007^dA'
p50
tp51
Rp52
ag10
(g14
S'[9\xb4T#pdA'
p53
tp54
Rp55
ag10
(g14
S'\xd1"\xdb\x89\x9fadA'
p56
tp57
Rp58
ag10
(g14
S'\xd1\xa1EV\xd0cdA'
p59
tp60
Rp61
ag10
(g14
S'2\xb4\xc8b\x0bgdA'
p62
tp63
Rp64
ag10
(g14
S'\xffU\x0e\xf5\xa3`dA'
p65
tp66
Rp67
ag10
(g14
S'v\xe9&\x99\xe5[dA'
p68
tp69
Rp70
ag10
(g14
S'\xe8&1\x08\x13]dA'
p71
tp72
Rp73
ag10
(g14
S'\x05+\x87v\xf6gdA'
p74
tp75
Rp76
asS'target'
p77
(lp78
g10
(g14
S'\xea&1\x08\xac\xbc;@'
p79
tp80
Rp81
ag10
(g14
S'e\x91\xed|?\xd5:@'
p82
tp83
Rp84
ag10
(g14
S'\x9e\x97n\x12\x83\xb0=@'
p85
tp86
Rp87
ag10
(g14
S'\x90\xed|?5\x9e:@'
p88
tp89
Rp90
ag10
(g14
S'?\xb4\xc8v\xbe\xbf<@'
p91
tp92
Rp93
ag10
(g14
S'\x00T\xe3\xa5\x9b\x04:@'
p94
tp95
Rp96
ag10
(g14
S'W\x8d\x97n\x12\x03=@'
p97
tp98
Rp99
ag10
(g14
S',3333\xa3;@'
p100
tp101
Rp102
ag10
(g14
S'\x8c\xed|?5\x1e:@'
p103
tp104
Rp105
ag10
(g14
S'\xc9K7\x89A`:@'
p106
tp107
Rp108
ag10
(g14
S'\xe9\xa5\x9b\xc4 \x10=@'
p109
tp110
Rp111
ag10
(g14
S'\xe1z\x14\xaeG19@'
p112
tp113
Rp114
ag10
(g14
S'\xfe~j\xbctS;@'
p115
tp116
Rp117
ag10
(g14
S'-\xdd$\x06\x81E:@'
p118
tp119
Rp120
ag10
(g14
S'\x89\xc0\xca\xa1Ev?@'
p121
tp122
Rp123
ag10
(g14
S'"\xdb\xf9~j|9@'
p124
tp125
Rp126
ag10
(g14
S'Z\xbaI\x0c\x02;>@'
p127
tp128
Rp129
ag10
(g14
S'u\x12\x83\xc0\xca\xc1:@'
p130
tp131
Rp132
ag10
(g14
S'6\x87\x16\xd9\xce7;@'
p133
tp134
Rp135
ag10
(g14
S'T\xb8\x1e\x85\xeb1<@'
p136
tp137
Rp138
asssss.