(dp0
S'../Data/sqlite_50.csv'
p1
(dp2
S'../Data/sqlite_62.csv'
p3
(dp4
F0.25
(dp5
S'mmre'
p6
(dp7
S'bellwether'
p8
(lp9
cnumpy.core.multiarray
scalar
p10
(cnumpy
dtype
p11
(S'f8'
p12
I0
I1
tp13
Rp14
(I3
S'<'
p15
NNNI-1
I-1
I0
tp16
bS'/\xf2 \xf4ZPU@'
p17
tp18
Rp19
ag10
(g14
S'\xd9\xf4O\x13\x89PU@'
p20
tp21
Rp22
ag10
(g14
S'\xaeJ\xdb\x88"RU@'
p23
tp24
Rp25
ag10
(g14
S'+7\xd6;\x92RU@'
p26
tp27
Rp28
ag10
(g14
S'\x82\x94NQ\xe8SU@'
p29
tp30
Rp31
ag10
(g14
S'[\xea\xcd\x0e\xf0PU@'
p32
tp33
Rp34
ag10
(g14
S'\xd1\x1e\x96n\xe2RU@'
p35
tp36
Rp37
ag10
(g14
S'3l\x08\x1azRU@'
p38
tp39
Rp40
ag10
(g14
S'\x00z\xc4vZQU@'
p41
tp42
Rp43
ag10
(g14
S'\xb3\r!\xaf]RU@'
p44
tp45
Rp46
ag10
(g14
S'\xc24\xa2\xea\xfcRU@'
p47
tp48
Rp49
ag10
(g14
S'\xf1X\x8e\n\x1dSU@'
p50
tp51
Rp52
ag10
(g14
S'\x9f\xd6\xac\xf6\x1eSU@'
p53
tp54
Rp55
ag10
(g14
S'\x88\xb6k]BSU@'
p56
tp57
Rp58
ag10
(g14
S'>b\xf9<\xb0SU@'
p59
tp60
Rp61
ag10
(g14
S'\x08\xc3\x99\xf7\xeeSU@'
p62
tp63
Rp64
ag10
(g14
S'\xf1=\xee\xf8qPU@'
p65
tp66
Rp67
ag10
(g14
S'\x84\x9f\x01Q\xc2QU@'
p68
tp69
Rp70
ag10
(g14
S'\xaf\xcbk\xa3\x8aUU@'
p71
tp72
Rp73
ag10
(g14
S'rp\x1d:\xbaPU@'
p74
tp75
Rp76
asS'target'
p77
(lp78
g10
(g14
S'pO\x9dKL""@'
p79
tp80
Rp81
ag10
(g14
S'HZ\x04t\xe54#@'
p82
tp83
Rp84
ag10
(g14
S'\xab\x8e\xb1\xe7I\x1a"@'
p85
tp86
Rp87
ag10
(g14
S'\xc9p$\x03\x8eI"@'
p88
tp89
Rp90
ag10
(g14
S'UQ\xcb\xd6v\xed!@'
p91
tp92
Rp93
ag10
(g14
S'\xc7\x15Bi\xb0\xbf!@'
p94
tp95
Rp96
ag10
(g14
S"\xa7'\x83r\x1cG!@"
p97
tp98
Rp99
ag10
(g14
S'\xf2nZ/\x9c\xf0 @'
p100
tp101
Rp102
ag10
(g14
S'\xc0\xcf\x16\xde\xb5\xe5!@'
p103
tp104
Rp105
ag10
(g14
S'm\xa1\xb1\x89\x81+!@'
p106
tp107
Rp108
ag10
(g14
S'W\x077|\x08\t @'
p109
tp110
Rp111
ag10
(g14
S'!\xaa\x9d\xf9/\x13!@'
p112
tp113
Rp114
ag10
(g14
S'S\x7fT\x14\xda\x9a!@'
p115
tp116
Rp117
ag10
(g14
S'\x9a\x91rK\xcc&"@'
p118
tp119
Rp120
ag10
(g14
S'\xfe%\xef\xf1\xd3\xa5 @'
p121
tp122
Rp123
ag10
(g14
S'\x90]\x01;ax!@'
p124
tp125
Rp126
ag10
(g14
S'E\x0b\x96\xc1\xa2j @'
p127
tp128
Rp129
ag10
(g14
S'\x80\x02C/\xb4b"@'
p130
tp131
Rp132
ag10
(g14
S'\x80\xa6\xde\xd8a\xdb!@'
p133
tp134
Rp135
ag10
(g14
S'vHI\x0b/y!@'
p136
tp137
Rp138
asssss.