(dp0
S'../Data/sqlite_65.csv'
p1
(dp2
S'../Data/sqlite_77.csv'
p3
(dp4
F0.15
(dp5
S'mmre'
p6
(dp7
S'bellwether'
p8
(lp9
cnumpy.core.multiarray
scalar
p10
(cnumpy
dtype
p11
(S'f8'
p12
I0
I1
tp13
Rp14
(I3
S'<'
p15
NNNI-1
I-1
I0
tp16
bS'+\x18\xacXS4W@'
p17
tp18
Rp19
ag10
(g14
S'\xe8\xd4\xcf\xb8\xa64W@'
p20
tp21
Rp22
ag10
(g14
S'\xbc.1\x0c\xdd5W@'
p23
tp24
Rp25
ag10
(g14
S'0\x07Fu`5W@'
p26
tp27
Rp28
ag10
(g14
S'p\xccl\xf4\n7W@'
p29
tp30
Rp31
ag10
(g14
S'\x06bb[e5W@'
p32
tp33
Rp34
ag10
(g14
S'\xc0\xd6!\xbd\xab4W@'
p35
tp36
Rp37
ag10
(g14
S'\x00r\xe6uT3W@'
p38
tp39
Rp40
ag10
(g14
S'`\xe4\xae\xa4\xb45W@'
p41
tp42
Rp43
ag10
(g14
S'\xf7\x9e[\t)6W@'
p44
tp45
Rp46
ag10
(g14
S'c%\x9d\xf3n4W@'
p47
tp48
Rp49
ag10
(g14
S'\xb1\xecQ\x0c13W@'
p50
tp51
Rp52
ag10
(g14
S'\x16\xf7>\xad\xb43W@'
p53
tp54
Rp55
ag10
(g14
S'\x04*81\xea3W@'
p56
tp57
Rp58
ag10
(g14
S'\xbf\x8e\xf2\x0eA6W@'
p59
tp60
Rp61
ag10
(g14
S'\x1d\xa5\t"\xd94W@'
p62
tp63
Rp64
ag10
(g14
S'z\xc1\x0f\xf6\x864W@'
p65
tp66
Rp67
ag10
(g14
S'/\x9b\xdc\xb3\xde3W@'
p68
tp69
Rp70
ag10
(g14
S'M\xc3\xfa\xea\xb66W@'
p71
tp72
Rp73
ag10
(g14
S'EA\xc8-\x885W@'
p74
tp75
Rp76
asS'target'
p77
(lp78
g10
(g14
S'\xcb\x904$\xd4\xd35@'
p79
tp80
Rp81
ag10
(g14
S'\xfd\xad-f\xbc\xc77@'
p82
tp83
Rp84
ag10
(g14
S'wfk\xbd\xad{6@'
p85
tp86
Rp87
ag10
(g14
S'\xd2\x14\xb83\x87\xea5@'
p88
tp89
Rp90
ag10
(g14
S'\xfe\x9e6\xc2\x8795@'
p91
tp92
Rp93
ag10
(g14
S'\x0b\xb9Dq O5@'
p94
tp95
Rp96
ag10
(g14
S'\t\x9c\x9bjAf6@'
p97
tp98
Rp99
ag10
(g14
S'I\x8c\x0cvv\x976@'
p100
tp101
Rp102
ag10
(g14
S'O\xf4\x9fu]B6@'
p103
tp104
Rp105
ag10
(g14
S'\x83\xe2\xda\xc3M\xc15@'
p106
tp107
Rp108
ag10
(g14
S'G\x8e\xddN\xf1\x106@'
p109
tp110
Rp111
ag10
(g14
S'\\\x8ak\xba\x10I6@'
p112
tp113
Rp114
ag10
(g14
S'\xc3u\xbcX\xcav5@'
p115
tp116
Rp117
ag10
(g14
S'=\xdf<g\rF7@'
p118
tp119
Rp120
ag10
(g14
S'\x00it\xf6 \xb05@'
p121
tp122
Rp123
ag10
(g14
S'\xf9\xef\x00\xd9\x12\x056@'
p124
tp125
Rp126
ag10
(g14
S'\xd0\xad7\x92\x9cu5@'
p127
tp128
Rp129
ag10
(g14
S'\xc2\xf5\xe4\xc0\xa7\xc14@'
p130
tp131
Rp132
ag10
(g14
S'F\xbb.h\xf9;6@'
p133
tp134
Rp135
ag10
(g14
S'^\x05\xb8\xb7\xe9\xfb7@'
p136
tp137
Rp138
asssss.