(dp0
S'../Data/sqlite_42.csv'
p1
(dp2
S'../Data/sqlite_87.csv'
p3
(dp4
F0.05
(dp5
S'mmre'
p6
(dp7
S'bellwether'
p8
(lp9
cnumpy.core.multiarray
scalar
p10
(cnumpy
dtype
p11
(S'f8'
p12
I0
I1
tp13
Rp14
(I3
S'<'
p15
NNNI-1
I-1
I0
tp16
bS'U\x9f\xfb4L1L@'
p17
tp18
Rp19
ag10
(g14
S'\xdb\xd3\x1fO\x9b5L@'
p20
tp21
Rp22
ag10
(g14
S'\x07\xa5V\xab\xea8L@'
p23
tp24
Rp25
ag10
(g14
S'{\xcfQ0\xcdSL@'
p26
tp27
Rp28
ag10
(g14
S'p\xb4xi\xb8OL@'
p29
tp30
Rp31
ag10
(g14
S'\xef\xaa\xf9z\xd4XL@'
p32
tp33
Rp34
ag10
(g14
S'\xd9\x97\x04R\x93DL@'
p35
tp36
Rp37
ag10
(g14
S'\xde\x80\xe1\x1e\xd5VL@'
p38
tp39
Rp40
ag10
(g14
S'\x902\x82XFDL@'
p41
tp42
Rp43
ag10
(g14
S'GN\xce#\x04=L@'
p44
tp45
Rp46
ag10
(g14
S'\xf0b\xef*\x1c;L@'
p47
tp48
Rp49
ag10
(g14
S'\xb2YI>\xd4DL@'
p50
tp51
Rp52
ag10
(g14
S'\xd1E\xd9\xc4\xf1NL@'
p53
tp54
Rp55
ag10
(g14
S'^\xc7Zg\x9eDL@'
p56
tp57
Rp58
ag10
(g14
S'\xfa\x93\xcd\x8b\x80SL@'
p59
tp60
Rp61
ag10
(g14
S'\x9dT\xff\x03\x137L@'
p62
tp63
Rp64
ag10
(g14
S'\x8a\x1e\xf2\x8f\x0bYL@'
p65
tp66
Rp67
ag10
(g14
S'\\^\x9c\xeb\x0eWL@'
p68
tp69
Rp70
ag10
(g14
S"\x9e\xf1\x86\xa5'YL@"
p71
tp72
Rp73
ag10
(g14
S'\xe9\x89\xcf\x84\xc9KL@'
p74
tp75
Rp76
asS'target'
p77
(lp78
g10
(g14
S'Gf\x10.\x89IW@'
p79
tp80
Rp81
ag10
(g14
S'\\\xe2\xb3`\xc8z^@'
p82
tp83
Rp84
ag10
(g14
S'\xbc*\x8b\xd6)\x9fY@'
p85
tp86
Rp87
ag10
(g14
S'f\x0f\x14B\xd8\xdfO@'
p88
tp89
Rp90
ag10
(g14
S'd\xf6G\xff\x9a\xc2E@'
p91
tp92
Rp93
ag10
(g14
S'N\x9f\x84\x1d\xf1\xbd@@'
p94
tp95
Rp96
ag10
(g14
S'hZ\x90\xb1\xf3pT@'
p97
tp98
Rp99
ag10
(g14
S'xv\xe9\xdd\x01\x8fP@'
p100
tp101
Rp102
ag10
(g14
S'\x17&R\xea;~W@'
p103
tp104
Rp105
ag10
(g14
S'\t\x9c\xb5P\x89Sa@'
p106
tp107
Rp108
ag10
(g14
S'Ll\xa3\xbc\xb9\x96\\@'
p109
tp110
Rp111
ag10
(g14
S'*\x88p\xbe\xeeUP@'
p112
tp113
Rp114
ag10
(g14
S'\xd2\x05\xc75\xfa\x1dS@'
p115
tp116
Rp117
ag10
(g14
S'\xcd\xd9s.]:X@'
p118
tp119
Rp120
ag10
(g14
S'2\xdc9X\x8e3I@'
p121
tp122
Rp123
ag10
(g14
S'\xb1[^jf\x17V@'
p124
tp125
Rp126
ag10
(g14
S'\xb8S\xe9\xe8\xf3\xcfG@'
p127
tp128
Rp129
ag10
(g14
S'L\x1b\xe8c\xc3*O@'
p130
tp131
Rp132
ag10
(g14
S'|7nA\xd2\x11C@'
p133
tp134
Rp135
ag10
(g14
S'a\x1fg\xa9\xb3QC@'
p136
tp137
Rp138
asssss.