(dp0
S'../Data/sqlite_26.csv'
p1
(dp2
S'../Data/sqlite_77.csv'
p3
(dp4
F0.4
(dp5
S'mmre'
p6
(dp7
S'bellwether'
p8
(lp9
cnumpy.core.multiarray
scalar
p10
(cnumpy
dtype
p11
(S'f8'
p12
I0
I1
tp13
Rp14
(I3
S'<'
p15
NNNI-1
I-1
I0
tp16
bS'\x07\x1f`\xafM\xb1<@'
p17
tp18
Rp19
ag10
(g14
S'g\x99\x10\xad\xe4.=@'
p20
tp21
Rp22
ag10
(g14
S'\xf4\xbd\xae\xbf\xe5\xfd=@'
p23
tp24
Rp25
ag10
(g14
S'K\xc9|h\x9e`<@'
p26
tp27
Rp28
ag10
(g14
S'\x17K/E\x15\xa6<@'
p29
tp30
Rp31
ag10
(g14
S'\xbf\xfey\xc4s\x84<@'
p32
tp33
Rp34
ag10
(g14
S'\xbb\x9d\xf5\xd3\xa0\x85>@'
p35
tp36
Rp37
ag10
(g14
S'o\\\xcb\x0c\xad\xb2<@'
p38
tp39
Rp40
ag10
(g14
S'\x8a1\x0f\xa7J\xc6=@'
p41
tp42
Rp43
ag10
(g14
S'\xa4\xc4{1\xbbF=@'
p44
tp45
Rp46
ag10
(g14
S'\xaa\xe5`9\xb63=@'
p47
tp48
Rp49
ag10
(g14
S'jC\x0e\xde<\xc0<@'
p50
tp51
Rp52
ag10
(g14
S'\x9eM\x15\xf2\xad\x0b=@'
p53
tp54
Rp55
ag10
(g14
S'~6\xff\x19\xe5P<@'
p56
tp57
Rp58
ag10
(g14
S'V}\x84F\xf1J=@'
p59
tp60
Rp61
ag10
(g14
S'\xa6|(G\x82M=@'
p62
tp63
Rp64
ag10
(g14
S'MGs\xb3\x84\x96<@'
p65
tp66
Rp67
ag10
(g14
S'I\xfbTjK\x02<@'
p68
tp69
Rp70
ag10
(g14
S"\xe8'FF\xe6\xaa=@"
p71
tp72
Rp73
ag10
(g14
S'\xdd\x9f\xc4~xg=@'
p74
tp75
Rp76
asS'target'
p77
(lp78
g10
(g14
S'd \xb6B\xb5\xbb5@'
p79
tp80
Rp81
ag10
(g14
S'rw\xab\x95\xcfI6@'
p82
tp83
Rp84
ag10
(g14
S'\x9c\xfd\xe7:\xdb<6@'
p85
tp86
Rp87
ag10
(g14
S'U\xcdn\xb3\xd4;5@'
p88
tp89
Rp90
ag10
(g14
S'l>\xa7f\xf7\xca4@'
p91
tp92
Rp93
ag10
(g14
S'x\xbf\x13\xfb|Y6@'
p94
tp95
Rp96
ag10
(g14
S'\xa8\xb8\x01\xec\x95X5@'
p97
tp98
Rp99
ag10
(g14
S'X\xd62%C\x935@'
p100
tp101
Rp102
ag10
(g14
S'\xe3\x99Pm\x7fE6@'
p103
tp104
Rp105
ag10
(g14
S'r\xe8\xa3\xd6\x8f\xf54@'
p106
tp107
Rp108
ag10
(g14
S'\xd0\xe5\xe7.}?6@'
p109
tp110
Rp111
ag10
(g14
S'B!^\x08.\n6@'
p112
tp113
Rp114
ag10
(g14
S'U?\xb9lyx5@'
p115
tp116
Rp117
ag10
(g14
S'\xed\x8e$\x12\xa9~6@'
p118
tp119
Rp120
ag10
(g14
S'\x06\x7f|\xb1TO4@'
p121
tp122
Rp123
ag10
(g14
S'\xc3\xc0\x98\xb7\xad\xdb5@'
p124
tp125
Rp126
ag10
(g14
S'\x9b\xb9\xaf\xfc\x9b\x886@'
p127
tp128
Rp129
ag10
(g14
S'U*Q\x9d\x07\x805@'
p130
tp131
Rp132
ag10
(g14
S'\nu~3\xf1B6@'
p133
tp134
Rp135
ag10
(g14
S'x,Tj\xa1\xbe7@'
p136
tp137
Rp138
asssss.