(dp0
S'../Data/sqlite_4.csv'
p1
(dp2
S'../Data/sqlite_8.csv'
p3
(dp4
F0.3
(dp5
S'abs_res'
p6
(dp7
S'bellwether'
p8
(lp9
cnumpy.core.multiarray
scalar
p10
(cnumpy
dtype
p11
(S'f8'
p12
I0
I1
tp13
Rp14
(I3
S'<'
p15
NNNI-1
I-1
I0
tp16
bS'\x9cn\x12#?Q;A'
p17
tp18
Rp19
ag10
(g14
S'\xd3\xf5(\xbcaP;A'
p20
tp21
Rp22
ag10
(g14
S't\x12\x83\xe0\x12O;A'
p23
tp24
Rp25
ag10
(g14
S'.\xce>\xbcQN;A'
p26
tp27
Rp28
ag10
(g14
S'nh\x91\r\xb3P;A'
p29
tp30
Rp31
ag10
(g14
S'v\xaf\xb9p\xb4O;A'
p32
tp33
Rp34
ag10
(g14
S'A|\x86\x1dGP;A'
p35
tp36
Rp37
ag10
(g14
S'3\xdd$f\xddO;A'
p38
tp39
Rp40
ag10
(g14
S'\xde\xa3p\xddGQ;A'
p41
tp42
Rp43
ag10
(g14
S'\x96\xed|?nO;A'
p44
tp45
Rp46
ag10
(g14
S'u\x82\x07s0P;A'
p47
tp48
Rp49
ag10
(g14
S'"\xcc\x13\x95hO;A'
p50
tp51
Rp52
ag10
(g14
S'\xfc\xd4x\xe9\tP;A'
p53
tp54
Rp55
ag10
(g14
S'\xc0\xe6B\xf2\xefP;A'
p56
tp57
Rp58
ag10
(g14
S'\x1fZd\xfb\xbeN;A'
p59
tp60
Rp61
ag10
(g14
S'\xad\xc6K7\x83P;A'
p62
tp63
Rp64
ag10
(g14
S'\x7f?5\xfetN;A'
p65
tp66
Rp67
ag10
(g14
S'\xd2<Q_eQ;A'
p68
tp69
Rp70
ag10
(g14
S'\x08\xb9\xd7<\x99O;A'
p71
tp72
Rp73
ag10
(g14
S'\xe0\xc1<\x91\x81O;A'
p74
tp75
Rp76
asS'target'
p77
(lp78
g10
(g14
S'\xeb|?5^\xb2W@'
p79
tp80
Rp81
ag10
(g14
S'\xbb\xf3\xfd\xd4x\xc9U@'
p82
tp83
Rp84
ag10
(g14
S'\x98C\x8bl\xe7gV@'
p85
tp86
Rp87
ag10
(g14
S'u=\n\xd7\xa3\x80U@'
p88
tp89
Rp90
ag10
(g14
S'#\xb0rh\x91\xadV@'
p91
tp92
Rp93
ag10
(g14
S'\x90C\x8bl\xe7[U@'
p94
tp95
Rp96
ag10
(g14
S'\x92\x18\x04V\x0e\xd5T@'
p97
tp98
Rp99
ag10
(g14
S'\x1c\xb0rh\x91\x01W@'
p100
tp101
Rp102
ag10
(g14
S'hffff\xf6V@'
p103
tp104
Rp105
ag10
(g14
S'\xcfMb\x10XYW@'
p106
tp107
Rp108
ag10
(g14
S'T\x0e-\xb2\x9d\x1bU@'
p109
tp110
Rp111
ag10
(g14
S'\xd4"\xdb\xf9~\xdaU@'
p112
tp113
Rp114
ag10
(g14
S'\x8al\xe7\xfb\xa9\x99V@'
p115
tp116
Rp117
ag10
(g14
S'\x89l\xe7\xfb\xa9\xb1U@'
p118
tp119
Rp120
ag10
(g14
S'\xdcx\xe9&1\xd4X@'
p121
tp122
Rp123
ag10
(g14
S'jffff\xf6U@'
p124
tp125
Rp126
ag10
(g14
S'\xbct\x93\x18\x04\xbeW@'
p127
tp128
Rp129
ag10
(g14
S'\\\x10X9\xb4\xf4T@'
p130
tp131
Rp132
ag10
(g14
S'\xda\xce\xf7S\xe3\tT@'
p133
tp134
Rp135
ag10
(g14
S'\xd2\xce\xf7S\xe35T@'
p136
tp137
Rp138
asssss.