(dp0
S'../Data/sqlite_59.csv'
p1
(dp2
S'../Data/sqlite_87.csv'
p3
(dp4
F0.1
(dp5
S'mmre'
p6
(dp7
S'bellwether'
p8
(lp9
cnumpy.core.multiarray
scalar
p10
(cnumpy
dtype
p11
(S'f8'
p12
I0
I1
tp13
Rp14
(I3
S'<'
p15
NNNI-1
I-1
I0
tp16
bS'\x1c\x0c\xa3v\xd9\x87B@'
p17
tp18
Rp19
ag10
(g14
S',\xb0\xe5\x02\x1dUB@'
p20
tp21
Rp22
ag10
(g14
S'\xbeQ\x90\xad\xeb\x9cB@'
p23
tp24
Rp25
ag10
(g14
S"G@'\x19IzB@"
p26
tp27
Rp28
ag10
(g14
S'\xb6\xcdM\xfb\xf7wB@'
p29
tp30
Rp31
ag10
(g14
S'uI>\x97N|B@'
p32
tp33
Rp34
ag10
(g14
S'\r\xc2A\x0c\x94\xdeA@'
p35
tp36
Rp37
ag10
(g14
S'Y\x05j\x87\xd9xB@'
p38
tp39
Rp40
ag10
(g14
S'\xbc\x90J\xb2\x9cOB@'
p41
tp42
Rp43
ag10
(g14
S'>\x86\xc3uh&B@'
p44
tp45
Rp46
ag10
(g14
S'\xae\xf0n2\xbe]B@'
p47
tp48
Rp49
ag10
(g14
S'5P\x83\xd4\xe42B@'
p50
tp51
Rp52
ag10
(g14
S'\xa4\xdb\xa5\x87\xd9hB@'
p53
tp54
Rp55
ag10
(g14
S'\xff\x8e-`yIB@'
p56
tp57
Rp58
ag10
(g14
S'\xdb_^G\x0c\x85B@'
p59
tp60
Rp61
ag10
(g14
S'\xc0\x971\x04\xb9dB@'
p62
tp63
Rp64
ag10
(g14
S'rHi\xe7\x8djB@'
p65
tp66
Rp67
ag10
(g14
S'N\xfe8\x9frsB@'
p68
tp69
Rp70
ag10
(g14
S'@\xd1xZ\xe37B@'
p71
tp72
Rp73
ag10
(g14
S'<\x1a5\xb6\x8cyB@'
p74
tp75
Rp76
asS'target'
p77
(lp78
g10
(g14
S'\x83:\xef\xd9wQM@'
p79
tp80
Rp81
ag10
(g14
S'\x18B\xe2\x11(\x81F@'
p82
tp83
Rp84
ag10
(g14
S'\xc7E\x03|\xed\x1bS@'
p85
tp86
Rp87
ag10
(g14
S'\xf4Iay4KV@'
p88
tp89
Rp90
ag10
(g14
S'\xce\xc8\x8c[\xdd\x1aO@'
p91
tp92
Rp93
ag10
(g14
S'\x12:8[\x8a8N@'
p94
tp95
Rp96
ag10
(g14
S'\xdf\xcd\x12\xad\xe4dM@'
p97
tp98
Rp99
ag10
(g14
S'\xa4\x1d9\xe8\xff\x16X@'
p100
tp101
Rp102
ag10
(g14
S'juQ\xad6\x97F@'
p103
tp104
Rp105
ag10
(g14
S'\x87\x9d(\xb8\xe1\x13T@'
p106
tp107
Rp108
ag10
(g14
S'\xc7x2\xdb\xe3\x8cZ@'
p109
tp110
Rp111
ag10
(g14
S'\x8c_\x01\xf5\xeb\xad[@'
p112
tp113
Rp114
ag10
(g14
S'\xef\xf4S\x93\t\xf2P@'
p115
tp116
Rp117
ag10
(g14
S']\xb0P2%NP@'
p118
tp119
Rp120
ag10
(g14
S'\xe3i\xcd\x85f,R@'
p121
tp122
Rp123
ag10
(g14
S'\xd0A\x19\xb4_\xbfR@'
p124
tp125
Rp126
ag10
(g14
S'D\x88\xe5pF\xe1P@'
p127
tp128
Rp129
ag10
(g14
S'[\xbc\x98Mb\xbdO@'
p130
tp131
Rp132
ag10
(g14
S'\xe4k\x1b\x10\x01pG@'
p133
tp134
Rp135
ag10
(g14
S'>\x1f~%\xe2\xaaP@'
p136
tp137
Rp138
asssss.