(dp0
S'../Data/sqlite_89.csv'
p1
(dp2
S'../Data/sqlite_92.csv'
p3
(dp4
F0.2
(dp5
S'mmre'
p6
(dp7
S'bellwether'
p8
(lp9
cnumpy.core.multiarray
scalar
p10
(cnumpy
dtype
p11
(S'f8'
p12
I0
I1
tp13
Rp14
(I3
S'<'
p15
NNNI-1
I-1
I0
tp16
bS'BG.\x07VWi@'
p17
tp18
Rp19
ag10
(g14
S'\x0e_\xcd \xca^i@'
p20
tp21
Rp22
ag10
(g14
S'\xc7m\x9bl\xfc\x1bi@'
p23
tp24
Rp25
ag10
(g14
S'\xea[Y\xfdvyi@'
p26
tp27
Rp28
ag10
(g14
S'NH\xc5\xe8\xd77i@'
p29
tp30
Rp31
ag10
(g14
S'4\xcf)?\x04Ui@'
p32
tp33
Rp34
ag10
(g14
S'\xd4\xba\x97v\x9cQi@'
p35
tp36
Rp37
ag10
(g14
S'\xb0x=\xa8\xddQi@'
p38
tp39
Rp40
ag10
(g14
S'UW\xad\x97\xcdui@'
p41
tp42
Rp43
ag10
(g14
S'a\x84 }F5i@'
p44
tp45
Rp46
ag10
(g14
S'\x18\xf2qW\xfdFi@'
p47
tp48
Rp49
ag10
(g14
S'\xa6\xafI\x8d\xa0pi@'
p50
tp51
Rp52
ag10
(g14
S'\x84|\xba\xfd\x14Zi@'
p53
tp54
Rp55
ag10
(g14
S'XTG\x1a\x89ki@'
p56
tp57
Rp58
ag10
(g14
S'\x1c\xbb\xf7\xaea9i@'
p59
tp60
Rp61
ag10
(g14
S'{u:\x98\xe7]i@'
p62
tp63
Rp64
ag10
(g14
S'?w\x9bh\xd80i@'
p65
tp66
Rp67
ag10
(g14
S'\xbf\xfc\x9f\x91"Si@'
p68
tp69
Rp70
ag10
(g14
S'\x16K\xe8\xc9\xee\x81i@'
p71
tp72
Rp73
ag10
(g14
S'.=\x98\xb6Fai@'
p74
tp75
Rp76
asS'target'
p77
(lp78
g10
(g14
S'\xe05\xdc\n\xed\xf7F@'
p79
tp80
Rp81
ag10
(g14
S'92r\xa0\xe2\xbcW@'
p82
tp83
Rp84
ag10
(g14
S'\x10\xfb\xb02\xf5\x8bR@'
p85
tp86
Rp87
ag10
(g14
S'H\x9e\x06yWqP@'
p88
tp89
Rp90
ag10
(g14
S'@\xdd\x00\xeb\x8e\xccH@'
p91
tp92
Rp93
ag10
(g14
S'\xab^\xd8\xcb7\x9aP@'
p94
tp95
Rp96
ag10
(g14
S'\x9cD\xcd\xd4\xd3OP@'
p97
tp98
Rp99
ag10
(g14
S'y\xf1\xd3\xd2\x17#Y@'
p100
tp101
Rp102
ag10
(g14
S'\x08\x9fD\xd0\xf5\xa2W@'
p103
tp104
Rp105
ag10
(g14
S'\x16\xdet\xffhEQ@'
p106
tp107
Rp108
ag10
(g14
S'\xcf\xc0\x10R\x055L@'
p109
tp110
Rp111
ag10
(g14
S'\xba\x12\xfd\xe9\xb2>K@'
p112
tp113
Rp114
ag10
(g14
S'z~\x90v?AH@'
p115
tp116
Rp117
ag10
(g14
S'\x9f^\x19\xb2\xa6\x8aX@'
p118
tp119
Rp120
ag10
(g14
S'\x1f\xd0\xa7_\x94\x01P@'
p121
tp122
Rp123
ag10
(g14
S'8n3Vq\x9aX@'
p124
tp125
Rp126
ag10
(g14
S'&DSU\x86\x1cV@'
p127
tp128
Rp129
ag10
(g14
S']L\xe6\x1e\x1a\xaeK@'
p130
tp131
Rp132
ag10
(g14
S'\x9e\xd3P\x86|\x86U@'
p133
tp134
Rp135
ag10
(g14
S'\xe4\x06\xe8F\xfc^W@'
p136
tp137
Rp138
asssss.