(dp0
S'../Data/sqlite_1.csv'
p1
(dp2
S'../Data/sqlite_31.csv'
p3
(dp4
F0.1
(dp5
S'abs_res'
p6
(dp7
S'bellwether'
p8
(lp9
cnumpy.core.multiarray
scalar
p10
(cnumpy
dtype
p11
(S'f8'
p12
I0
I1
tp13
Rp14
(I3
S'<'
p15
NNNI-1
I-1
I0
tp16
bS'B5^:\xa8-AA'
p17
tp18
Rp19
ag10
(g14
S'd\x10X9\xb2-AA'
p20
tp21
Rp22
ag10
(g14
S'h\xad\x8eY-.AA'
p23
tp24
Rp25
ag10
(g14
S'\xb9t\x93\xc8\xbb-AA'
p26
tp27
Rp28
ag10
(g14
S'\x9a\xc4 pq.AA'
p29
tp30
Rp31
ag10
(g14
S'5\xdd$&\xc8-AA'
p32
tp33
Rp34
ag10
(g14
S'6\xfb\xf09`-AA'
p35
tp36
Rp37
ag10
(g14
S'O*\xce\xfe\xfc,AA'
p38
tp39
Rp40
ag10
(g14
S'833\x931-AA'
p41
tp42
Rp43
ag10
(g14
S'@`\xe5\xa0y-AA'
p44
tp45
Rp46
ag10
(g14
S'\x8fC\x8b\\\x14-AA'
p47
tp48
Rp49
ag10
(g14
S'\xc9\xa1Ev\x1b-AA'
p50
tp51
Rp52
ag10
(g14
S';\n\xd7\xe3\x14-AA'
p53
tp54
Rp55
ag10
(g14
S'\x8c\x88\x88xU.AA'
p56
tp57
Rp58
ag10
(g14
S'7\x89A\xd0\xd6-AA'
p59
tp60
Rp61
ag10
(g14
S'\x12\xca\xe8\x9d\xa1-AA'
p62
tp63
Rp64
ag10
(g14
S'\xaf\x9d\xefw\x89-AA'
p65
tp66
Rp67
ag10
(g14
S'\x03\x1c\xa1\xac\xfa-AA'
p68
tp69
Rp70
ag10
(g14
S'\x11\x02+\xb7@-AA'
p71
tp72
Rp73
ag10
(g14
S'\x1e\xb0rx3.AA'
p74
tp75
Rp76
asS'target'
p77
(lp78
g10
(g14
S'\xa6p=\n\xd7\x83f@'
p79
tp80
Rp81
ag10
(g14
S'\x85A`\xe5\xd0\xb2g@'
p82
tp83
Rp84
ag10
(g14
S'\xba\x9f\x1a/\xdd0g@'
p85
tp86
Rp87
ag10
(g14
S'\xed\xfb\xa9\xf1\xd2ij@'
p88
tp89
Rp90
ag10
(g14
S'\x1a\xaeG\xe1z\x98e@'
p91
tp92
Rp93
ag10
(g14
S'\x9aE\xb6\xf3\xfdpe@'
p94
tp95
Rp96
ag10
(g14
S"'\xb2\x9d\xef\xa7\x12g@"
p97
tp98
Rp99
ag10
(g14
S'\xa9\xc6K7\x89Uk@'
p100
tp101
Rp102
ag10
(g14
S'h\x91\xed|?\x95f@'
p103
tp104
Rp105
ag10
(g14
S'\x87\xc0\xca\xa1E\x92f@'
p106
tp107
Rp108
ag10
(g14
S'.\xb2\x9d\xef\xa76i@'
p109
tp110
Rp111
ag10
(g14
S'\xf6\xa9\xf1\xd2MJj@'
p112
tp113
Rp114
ag10
(g14
S'\x97n\x12\x83\xc0\x1ei@'
p115
tp116
Rp117
ag10
(g14
S'\x10\xaeG\xe1z\xa8h@'
p118
tp119
Rp120
ag10
(g14
S'\xdd\xa3p=\n\x17g@'
p121
tp122
Rp123
ag10
(g14
S':\xdfO\x8d\x97\xbef@'
p124
tp125
Rp126
ag10
(g14
S'\xd2"\xdb\xf9~>h@'
p127
tp128
Rp129
ag10
(g14
S'@\n\xd7\xa3pAf@'
p130
tp131
Rp132
ag10
(g14
S'\x9b\xef\xa7\xc6K\x95i@'
p133
tp134
Rp135
ag10
(g14
S'\xa6\x1cZd;\xcbe@'
p136
tp137
Rp138
asssss.