(dp0
S'../Data/sqlite_51.csv'
p1
(dp2
S'../Data/sqlite_59.csv'
p3
(dp4
F0.05
(dp5
S'mmre'
p6
(dp7
S'bellwether'
p8
(lp9
cnumpy.core.multiarray
scalar
p10
(cnumpy
dtype
p11
(S'f8'
p12
I0
I1
tp13
Rp14
(I3
S'<'
p15
NNNI-1
I-1
I0
tp16
bS'\xcfhRi\xc8%W@'
p17
tp18
Rp19
ag10
(g14
S'1\xf2\x80\x1bP%W@'
p20
tp21
Rp22
ag10
(g14
S'X\xf9\x13\xabR$W@'
p23
tp24
Rp25
ag10
(g14
S'y\x07\x92Y\xbe$W@'
p26
tp27
Rp28
ag10
(g14
S'!ky\xe9\x97%W@'
p29
tp30
Rp31
ag10
(g14
S'S\xf65\xce\x84$W@'
p32
tp33
Rp34
ag10
(g14
S'o\x90\xb9R5%W@'
p35
tp36
Rp37
ag10
(g14
S'*s+\xf5\xdf$W@'
p38
tp39
Rp40
ag10
(g14
S'\x00\x1d \xffe%W@'
p41
tp42
Rp43
ag10
(g14
S'j\x94\xe0b<%W@'
p44
tp45
Rp46
ag10
(g14
S'\xfa\xa9_\xb5l%W@'
p47
tp48
Rp49
ag10
(g14
S'\xde\x8b\xc1\xc0\xf5$W@'
p50
tp51
Rp52
ag10
(g14
S'b\x9a\x14\xcaf%W@'
p53
tp54
Rp55
ag10
(g14
S'$%\x16\xf5\x11%W@'
p56
tp57
Rp58
ag10
(g14
S'\xc9\xdd@\xaf\xf9$W@'
p59
tp60
Rp61
ag10
(g14
S'\xf4\x12\x17\xde\x18%W@'
p62
tp63
Rp64
ag10
(g14
S'\xa8\xac\xb6\xac\xd0$W@'
p65
tp66
Rp67
ag10
(g14
S'ww\x92\xeeY%W@'
p68
tp69
Rp70
ag10
(g14
S'\xb7\xc2\xaa@\xe1$W@'
p71
tp72
Rp73
ag10
(g14
S'\x14\xc8.:\xc5$W@'
p74
tp75
Rp76
asS'target'
p77
(lp78
g10
(g14
S"\x8d'\x88\xf9\xad\x03&@"
p79
tp80
Rp81
ag10
(g14
S'\xc7\x9f\x97A\xf3\x80$@'
p82
tp83
Rp84
ag10
(g14
S'\xd3\x99xtej(@'
p85
tp86
Rp87
ag10
(g14
S'\x84\xf7*\xa4;\x82)@'
p88
tp89
Rp90
ag10
(g14
S'u\x83>\xd4\xe8\xc4$@'
p91
tp92
Rp93
ag10
(g14
S'\xec\xc5\'\xe6#"(@'
p94
tp95
Rp96
ag10
(g14
S'\xec}\xd9_\xfd\x9b)@'
p97
tp98
Rp99
ag10
(g14
S'c\xde{!$\xac"@'
p100
tp101
Rp102
ag10
(g14
S'\xb2\xf8\x1f\xfa\xb4\x18%@'
p103
tp104
Rp105
ag10
(g14
S'0\xde\x9a\x93$\xdc&@'
p106
tp107
Rp108
ag10
(g14
S'#w\xe0\xa8\xd1\xdd#@'
p109
tp110
Rp111
ag10
(g14
S'\x11\xd2"\xef\x8a\x1d+@'
p112
tp113
Rp114
ag10
(g14
S'{y\xaf\x00\x9c\x95&@'
p115
tp116
Rp117
ag10
(g14
S'\xe8{qf\xf4\x1a&@'
p118
tp119
Rp120
ag10
(g14
S'Yb#\xb8\xf3\xf4)@'
p121
tp122
Rp123
ag10
(g14
S"\xe0\xff\xc00D{'@"
p124
tp125
Rp126
ag10
(g14
S'\xafxr\xef$\x17&@'
p127
tp128
Rp129
ag10
(g14
S'\xa91\x16\xddz\xf8%@'
p130
tp131
Rp132
ag10
(g14
S'o\x98z\rQ8(@'
p133
tp134
Rp135
ag10
(g14
S'\xce/s\xe5:\r&@'
p136
tp137
Rp138
asssss.