(dp0
S'../Data/sqlite_45.csv'
p1
(dp2
S'../Data/sqlite_78.csv'
p3
(dp4
F0.4
(dp5
S'mmre'
p6
(dp7
S'bellwether'
p8
(lp9
cnumpy.core.multiarray
scalar
p10
(cnumpy
dtype
p11
(S'f8'
p12
I0
I1
tp13
Rp14
(I3
S'<'
p15
NNNI-1
I-1
I0
tp16
bS'\xcf\x86C-"eK@'
p17
tp18
Rp19
ag10
(g14
S'\xb4\xc1u\xc2\x0efK@'
p20
tp21
Rp22
ag10
(g14
S'0\x11D>W\x87K@'
p23
tp24
Rp25
ag10
(g14
S'\xb2.HN\x12\xa4K@'
p26
tp27
Rp28
ag10
(g14
S'\xf7\x98{\xceB\xcdK@'
p29
tp30
Rp31
ag10
(g14
S'\xb7\xf7\x92s\xcdtK@'
p32
tp33
Rp34
ag10
(g14
S'\xa2\x93r\x1fZxK@'
p35
tp36
Rp37
ag10
(g14
S'z\x1e\xcbI\x15VK@'
p38
tp39
Rp40
ag10
(g14
S'`\xcc[\x83\xc6cK@'
p41
tp42
Rp43
ag10
(g14
S'\x1d\x1aR\xe5\x9ecK@'
p44
tp45
Rp46
ag10
(g14
S'\x98\xfcn\x7f\xc16K@'
p47
tp48
Rp49
ag10
(g14
S'Q\x0e#;$HK@'
p50
tp51
Rp52
ag10
(g14
S'\xd3}c\x89\x1f6K@'
p53
tp54
Rp55
ag10
(g14
S"\xc5'G\xe0\x16\x80K@"
p56
tp57
Rp58
ag10
(g14
S'Y\xb9\xd3\x97\xa1\x8fK@'
p59
tp60
Rp61
ag10
(g14
S'\xad$\xb0G+.K@'
p62
tp63
Rp64
ag10
(g14
S'\xff\x1c\xba\\\x1eAK@'
p65
tp66
Rp67
ag10
(g14
S'`J\xbe:\xe8\x1eK@'
p68
tp69
Rp70
ag10
(g14
S'p\x7f286\xa7K@'
p71
tp72
Rp73
ag10
(g14
S's\xdcM\xf7EYK@'
p74
tp75
Rp76
asS'target'
p77
(lp78
g10
(g14
S'v\xd1\xaf\x133\n4@'
p79
tp80
Rp81
ag10
(g14
S'b8\xf3\x1e\xdf 4@'
p82
tp83
Rp84
ag10
(g14
S'\x96\x1dp\x8fY\xd83@'
p85
tp86
Rp87
ag10
(g14
S'\x92}\x13\xe8\xb3\xe53@'
p88
tp89
Rp90
ag10
(g14
S'n\xc2\xa68\xad\x165@'
p91
tp92
Rp93
ag10
(g14
S'\xe3\xb32\x81\xcd\xba3@'
p94
tp95
Rp96
ag10
(g14
S'\xe5ML%\x87=4@'
p97
tp98
Rp99
ag10
(g14
S'\x02\xd5Ik\xbbT4@'
p100
tp101
Rp102
ag10
(g14
S'\xf5H\x043VG4@'
p103
tp104
Rp105
ag10
(g14
S'fe\x02\xdef\x1c2@'
p106
tp107
Rp108
ag10
(g14
S'\xe0V\x02\x83%:3@'
p109
tp110
Rp111
ag10
(g14
S'\xe9)\x0e\x90Q\xc83@'
p112
tp113
Rp114
ag10
(g14
S'\xd6Be\xc1if3@'
p115
tp116
Rp117
ag10
(g14
S'D\xbb5Z\xda\x8d3@'
p118
tp119
Rp120
ag10
(g14
S'\xf2\xe0\t.\x9e 5@'
p121
tp122
Rp123
ag10
(g14
S"\xc9p\xfe'\xde;4@"
p124
tp125
Rp126
ag10
(g14
S'\x95s\xe2AX73@'
p127
tp128
Rp129
ag10
(g14
S'\xe6t\xb3\xe8\xea\xfc3@'
p130
tp131
Rp132
ag10
(g14
S'\xc1\x91O\x83\xf0\xc24@'
p133
tp134
Rp135
ag10
(g14
S'\x07\xb7:\x0c\xff_4@'
p136
tp137
Rp138
asssss.