(dp0
S'../Data/sqlite_3.csv'
p1
(dp2
S'../Data/sqlite_73.csv'
p3
(dp4
F0.2
(dp5
S'mmre'
p6
(dp7
S'bellwether'
p8
(lp9
cnumpy.core.multiarray
scalar
p10
(cnumpy
dtype
p11
(S'f8'
p12
I0
I1
tp13
Rp14
(I3
S'<'
p15
NNNI-1
I-1
I0
tp16
bS'Q=%\xa1\x93dE@'
p17
tp18
Rp19
ag10
(g14
S'`\xad\xdd\x04HzE@'
p20
tp21
Rp22
ag10
(g14
S'"g\xa4\x0b=\x8cE@'
p23
tp24
Rp25
ag10
(g14
S'#\xf9\x94\\\xb5oE@'
p26
tp27
Rp28
ag10
(g14
S'\xdd@+\x043yE@'
p29
tp30
Rp31
ag10
(g14
S' \xb7\xa8B\rhE@'
p32
tp33
Rp34
ag10
(g14
S'\x00\x98ow\xc4nE@'
p35
tp36
Rp37
ag10
(g14
S'@\x11\x82}\x11vE@'
p38
tp39
Rp40
ag10
(g14
S'W\x98\x1d\xdbG\x85E@'
p41
tp42
Rp43
ag10
(g14
S'_TO\xadfcE@'
p44
tp45
Rp46
ag10
(g14
S'`4\x9d\x99u{E@'
p47
tp48
Rp49
ag10
(g14
S'\x8c\xcaa\xe0P\x85E@'
p50
tp51
Rp52
ag10
(g14
S'x\x0bj]\x01lE@'
p53
tp54
Rp55
ag10
(g14
S'\xe7\xd2\xf3\xcd\x9apE@'
p56
tp57
Rp58
ag10
(g14
S'\x1e\xb0\xe5$Q}E@'
p59
tp60
Rp61
ag10
(g14
S'\x13\xc9\xd1\xff-\x8aE@'
p62
tp63
Rp64
ag10
(g14
S'\r\x07\xeb\x1a9sE@'
p65
tp66
Rp67
ag10
(g14
S'f\xd7j\x06\xc8\x7fE@'
p68
tp69
Rp70
ag10
(g14
S'\x9a0o\xdc\x13\x7fE@'
p71
tp72
Rp73
ag10
(g14
S'(\xf0\x86W\xa0qE@'
p74
tp75
Rp76
asS'target'
p77
(lp78
g10
(g14
S'\xd9\xddjm\\F+@'
p79
tp80
Rp81
ag10
(g14
S'\x95\xcetkRt+@'
p82
tp83
Rp84
ag10
(g14
S'\xb8\xb4\xbf\xac\xc5\xfe)@'
p85
tp86
Rp87
ag10
(g14
S'\x93\x8e\x18&^G,@'
p88
tp89
Rp90
ag10
(g14
S'/\xe543>[,@'
p91
tp92
Rp93
ag10
(g14
S'R\x87^\xee\xbd\n,@'
p94
tp95
Rp96
ag10
(g14
S'D\tH\xe8m\x13/@'
p97
tp98
Rp99
ag10
(g14
S'\xd4^\xd3\x92\x1a\xd1+@'
p100
tp101
Rp102
ag10
(g14
S'\xd2\xf3D\x0bV\xb1+@'
p103
tp104
Rp105
ag10
(g14
S'\x10`\xd0e\x1c\x92,@'
p106
tp107
Rp108
ag10
(g14
S'\x1c\xe7\x9c\xd3r+-@'
p109
tp110
Rp111
ag10
(g14
S'\x0b\x99\xf8\xc5?\xbc)@'
p112
tp113
Rp114
ag10
(g14
S'\xd802\xa6\xfc\xd0*@'
p115
tp116
Rp117
ag10
(g14
S'\xc9\x92\x1dQ\x01\xa0,@'
p118
tp119
Rp120
ag10
(g14
S'\xe2\xa0\xaaoG\x8a+@'
p121
tp122
Rp123
ag10
(g14
S'\x8e\xd2\x16A\xf6\x13,@'
p124
tp125
Rp126
ag10
(g14
S'C6Ex\xc1\x18+@'
p127
tp128
Rp129
ag10
(g14
S'<\x83\xbb\xc3\x818+@'
p130
tp131
Rp132
ag10
(g14
S'0\r\x14\xc1\xce9)@'
p133
tp134
Rp135
ag10
(g14
S'\xca\x8c,&\xe4\xcd)@'
p136
tp137
Rp138
asssss.