(dp0
S'../Data/sqlite_43.csv'
p1
(dp2
S'../Data/sqlite_44.csv'
p3
(dp4
F0.2
(dp5
S'abs_res'
p6
(dp7
S'bellwether'
p8
(lp9
cnumpy.core.multiarray
scalar
p10
(cnumpy
dtype
p11
(S'f8'
p12
I0
I1
tp13
Rp14
(I3
S'<'
p15
NNNI-1
I-1
I0
tp16
bS'\xb3\xb9\x90t\x14j>A'
p17
tp18
Rp19
ag10
(g14
S'\xc2\xca\xa1%\xf3h>A'
p20
tp21
Rp22
ag10
(g14
S'"1\x08\xcc\xa0h>A'
p23
tp24
Rp25
ag10
(g14
S'n\xaf\xb90hh>A'
p26
tp27
Rp28
ag10
(g14
S'\xe6@\xa7\x8dQi>A'
p29
tp30
Rp31
ag10
(g14
S'\xf9\x1b\xa1\xec-i>A'
p32
tp33
Rp34
ag10
(g14
S'\xe9|?U\xa0i>A'
p35
tp36
Rp37
ag10
(g14
S'\xbc:&8ti>A'
p38
tp39
Rp40
ag10
(g14
S'-O\xd4\xbf\xbah>A'
p41
tp42
Rp43
ag10
(g14
S'\xc4 \xb0Rai>A'
p44
tp45
Rp46
ag10
(g14
S'\xff~j|\xc6i>A'
p47
tp48
Rp49
ag10
(g14
S'\xa6\xb7e\xcd\xa8h>A'
p50
tp51
Rp52
ag10
(g14
S'/1\x08\x0cvi>A'
p53
tp54
Rp55
ag10
(g14
S':\xb4\xc8\x16\xc1i>A'
p56
tp57
Rp58
ag10
(g14
S'\xf4\xa7\xc6\xeblh>A'
p59
tp60
Rp61
ag10
(g14
S'\xf5\xfd\xd4\x18\xbfh>A'
p62
tp63
Rp64
ag10
(g14
S'%1\x08,\xebg>A'
p65
tp66
Rp67
ag10
(g14
S'[\xbaI\xcc\rj>A'
p68
tp69
Rp70
ag10
(g14
S'E`\xe5p\x08i>A'
p71
tp72
Rp73
ag10
(g14
S'\xc8K7\xa9\xb4h>A'
p74
tp75
Rp76
asS'target'
p77
(lp78
g10
(g14
S'9\xb4\xc8v\xbe\xd7K@'
p79
tp80
Rp81
ag10
(g14
S'\x93\xed|?5~O@'
p82
tp83
Rp84
ag10
(g14
S'H\n\xd7\xa3p\xcdO@'
p85
tp86
Rp87
ag10
(g14
S'\n\x02+\x87\x16\xf9J@'
p88
tp89
Rp90
ag10
(g14
S'\x8fA`\xe5\xd02P@'
p91
tp92
Rp93
ag10
(g14
S'\n\xac\x1cZd;M@'
p94
tp95
Rp96
ag10
(g14
S'N\x8d\x97n\x12\x93M@'
p97
tp98
Rp99
ag10
(g14
S'/\xdd$\x06\x81]R@'
p100
tp101
Rp102
ag10
(g14
S'\xc5 \xb0rh\xa9N@'
p103
tp104
Rp105
ag10
(g14
S'\xeb\xa5\x9b\xc4 \xf0M@'
p106
tp107
Rp108
ag10
(g14
S'\x02\xac\x1cZd\x1bQ@'
p109
tp110
Rp111
ag10
(g14
S'\xeb|?5^\x9aN@'
p112
tp113
Rp114
ag10
(g14
S'\xbc\x1e\x85\xebQ\xd8O@'
p115
tp116
Rp117
ag10
(g14
S'k\xbct\x93\x18\x14M@'
p118
tp119
Rp120
ag10
(g14
S'\xbe \xb0rh\x91N@'
p121
tp122
Rp123
ag10
(g14
S'\xdc\xce\xf7S\xe3\x01Q@'
p124
tp125
Rp126
ag10
(g14
S'11\x08\xac\x1c*N@'
p127
tp128
Rp129
ag10
(g14
S'\xc1\xf5(\\\x8f\xc6P@'
p130
tp131
Rp132
ag10
(g14
S'\x82\xc0\xca\xa1E&L@'
p133
tp134
Rp135
ag10
(g14
S'\xd3x\xe9&1\x88N@'
p136
tp137
Rp138
asssss.