(dp0
S'../Data/sqlite_23.csv'
p1
(dp2
S'../Data/sqlite_97.csv'
p3
(dp4
F0.1
(dp5
S'mmre'
p6
(dp7
S'bellwether'
p8
(lp9
cnumpy.core.multiarray
scalar
p10
(cnumpy
dtype
p11
(S'f8'
p12
I0
I1
tp13
Rp14
(I3
S'<'
p15
NNNI-1
I-1
I0
tp16
bS'\xd6\x9dOE@?X@'
p17
tp18
Rp19
ag10
(g14
S"\xf9];0'>X@"
p20
tp21
Rp22
ag10
(g14
S'3P7\x98W?X@'
p23
tp24
Rp25
ag10
(g14
S'[*|\xd3\xd8?X@'
p26
tp27
Rp28
ag10
(g14
S'\xe8\x19\xd4\x93\xad?X@'
p29
tp30
Rp31
ag10
(g14
S'2\x94\xd4\xbe\x07?X@'
p32
tp33
Rp34
ag10
(g14
S'\xdaJz\xfc\x89?X@'
p35
tp36
Rp37
ag10
(g14
S'YA\xae5\xa8>X@'
p38
tp39
Rp40
ag10
(g14
S'\xed\r\xea\x06\x13?X@'
p41
tp42
Rp43
ag10
(g14
S'\xdfqEy\x88?X@'
p44
tp45
Rp46
ag10
(g14
S')\x8a\xb0n\x9a?X@'
p47
tp48
Rp49
ag10
(g14
S'K\xafWN"@X@'
p50
tp51
Rp52
ag10
(g14
S'\x84\xda\x81"w@X@'
p53
tp54
Rp55
ag10
(g14
S'd\xb0\xe21\x9c?X@'
p56
tp57
Rp58
ag10
(g14
S'\xce\x89\xfci\xe2>X@'
p59
tp60
Rp61
ag10
(g14
S'=b\xc5\xd7\xd7>X@'
p62
tp63
Rp64
ag10
(g14
S'-\xb1\xbf\x0bK?X@'
p65
tp66
Rp67
ag10
(g14
S'2\xdc\x01\xb5&@X@'
p68
tp69
Rp70
ag10
(g14
S'\xb0\xdc\x01\xba:@X@'
p71
tp72
Rp73
ag10
(g14
S'\xb7\x17\xdd\x92\x93>X@'
p74
tp75
Rp76
asS'target'
p77
(lp78
g10
(g14
S'\xf7@\x8b2\x1c\x9bV@'
p79
tp80
Rp81
ag10
(g14
S'\xd1V\ny\x85\xf6]@'
p82
tp83
Rp84
ag10
(g14
S'X \xbcM\xd8<[@'
p85
tp86
Rp87
ag10
(g14
S'\x94>%A%\xbeD@'
p88
tp89
Rp90
ag10
(g14
S'\xeb\xd1\x98v2\x04_@'
p91
tp92
Rp93
ag10
(g14
S'l4\x91\xe2p\xabQ@'
p94
tp95
Rp96
ag10
(g14
S'\xfcc\xe5\xfa\x0f`R@'
p97
tp98
Rp99
ag10
(g14
S'\xee\x998\r\xb0rQ@'
p100
tp101
Rp102
ag10
(g14
S'\x99\xfe\xc1\xea\x8e\x13Q@'
p103
tp104
Rp105
ag10
(g14
S'\x0e7\x1e\x97"{Q@'
p106
tp107
Rp108
ag10
(g14
S'\xd2\xfe\xfd\x89>9N@'
p109
tp110
Rp111
ag10
(g14
S'$T\r;\xaf\x03[@'
p112
tp113
Rp114
ag10
(g14
S'tLX\xdc\xbcZS@'
p115
tp116
Rp117
ag10
(g14
S'\x87\x92\xc2F1\xd7S@'
p118
tp119
Rp120
ag10
(g14
S'7\xa2!,ibP@'
p121
tp122
Rp123
ag10
(g14
S"'\x10q1\xcc\x8dV@"
p124
tp125
Rp126
ag10
(g14
S'\xcf\xb1x\xd2\x1b\x96a@'
p127
tp128
Rp129
ag10
(g14
S'$z\xbd\xf5\tuL@'
p130
tp131
Rp132
ag10
(g14
S'^\xb3\tJ\x0e\x1bG@'
p133
tp134
Rp135
ag10
(g14
S'\xc9\x89&\xcb\x1b\xc3b@'
p136
tp137
Rp138
asssss.