(dp0
S'../Data/sqlite_2.csv'
p1
(dp2
S'../Data/sqlite_59.csv'
p3
(dp4
F0.3
(dp5
S'mmre'
p6
(dp7
S'bellwether'
p8
(lp9
cnumpy.core.multiarray
scalar
p10
(cnumpy
dtype
p11
(S'f8'
p12
I0
I1
tp13
Rp14
(I3
S'<'
p15
NNNI-1
I-1
I0
tp16
bS'6\x0cEAuUU@'
p17
tp18
Rp19
ag10
(g14
S'1\x8c@\x1f\xacVU@'
p20
tp21
Rp22
ag10
(g14
S'\x9aHkc\xc3RU@'
p23
tp24
Rp25
ag10
(g14
S'\x16\xfc\x15\xa7URU@'
p26
tp27
Rp28
ag10
(g14
S'\xca\xab8\x961RU@'
p29
tp30
Rp31
ag10
(g14
S'\xa4\xe1h\\\x99VU@'
p32
tp33
Rp34
ag10
(g14
S'\xbe\x9eR\xe5%VU@'
p35
tp36
Rp37
ag10
(g14
S'Bw\xf1\x1fkPU@'
p38
tp39
Rp40
ag10
(g14
S'y\x86T\xbf\x03TU@'
p41
tp42
Rp43
ag10
(g14
S'!\x04\x08\xe4tPU@'
p44
tp45
Rp46
ag10
(g14
S'0re8\x1aQU@'
p47
tp48
Rp49
ag10
(g14
S'\xc7\xe5\xde&\xef[U@'
p50
tp51
Rp52
ag10
(g14
S'>\xe8=)\xceRU@'
p53
tp54
Rp55
ag10
(g14
S'GNB&+TU@'
p56
tp57
Rp58
ag10
(g14
S'\xd8un\x05\x19VU@'
p59
tp60
Rp61
ag10
(g14
S'\t\xcc+\x07\x17WU@'
p62
tp63
Rp64
ag10
(g14
S'\x9c[\x06S6UU@'
p65
tp66
Rp67
ag10
(g14
S'\xf7\x0eGv)WU@'
p68
tp69
Rp70
ag10
(g14
S'\x02\x10\xa1\x0fkVU@'
p71
tp72
Rp73
ag10
(g14
S'\xbb\x18~\x08@SU@'
p74
tp75
Rp76
asS'target'
p77
(lp78
g10
(g14
S'\xcdnw\xd94k&@'
p79
tp80
Rp81
ag10
(g14
S'\xd0\x94\x132\x88\xdc$@'
p82
tp83
Rp84
ag10
(g14
S'4$,\xa9\xbb$&@'
p85
tp86
Rp87
ag10
(g14
S'i\x883>@\x82%@'
p88
tp89
Rp90
ag10
(g14
S'\xe6\xb7\xf9s9\x8d$@'
p91
tp92
Rp93
ag10
(g14
S'\x93\x87X\x9d\xads&@'
p94
tp95
Rp96
ag10
(g14
S'\x13!\x0e\x81C\xa2%@'
p97
tp98
Rp99
ag10
(g14
S' \x8b\xac1\xcf\xe1%@'
p100
tp101
Rp102
ag10
(g14
S'c\xac#\xa4g\xd4%@'
p103
tp104
Rp105
ag10
(g14
S'e\xec\x03\xd7\xab\xb8(@'
p106
tp107
Rp108
ag10
(g14
S"u\xca\xee\x91\xda\x04'@"
p109
tp110
Rp111
ag10
(g14
S'\x07o\xb5\xe7l\xc4%@'
p112
tp113
Rp114
ag10
(g14
S'\xa0\xc1a\xfe}\xf8%@'
p115
tp116
Rp117
ag10
(g14
S'4\xa8\xf0\xd0C\xf1%@'
p118
tp119
Rp120
ag10
(g14
S'\x7fx\xe1\xc8\x064&@'
p121
tp122
Rp123
ag10
(g14
S'\xde\xaf$\xb7\xf3\xd4%@'
p124
tp125
Rp126
ag10
(g14
S'\xf1\xb1;\xaa7B$@'
p127
tp128
Rp129
ag10
(g14
S'y\xf3\x13\xa4\xcci%@'
p130
tp131
Rp132
ag10
(g14
S'(\xbf0\xa0Z\xad&@'
p133
tp134
Rp135
ag10
(g14
S'\xd9\x7f\xca\xef\xc9\x0e(@'
p136
tp137
Rp138
asssss.