(dp0
S'../Data/sqlite_79.csv'
p1
(dp2
S'../Data/sqlite_76.csv'
p3
(dp4
F0.25
(dp5
S'mmre'
p6
(dp7
S'bellwether'
p8
(lp9
cnumpy.core.multiarray
scalar
p10
(cnumpy
dtype
p11
(S'f8'
p12
I0
I1
tp13
Rp14
(I3
S'<'
p15
NNNI-1
I-1
I0
tp16
bS'9\x85+\xe2\xeaNW@'
p17
tp18
Rp19
ag10
(g14
S'\x9c\xbe\xbf\\\xf1MW@'
p20
tp21
Rp22
ag10
(g14
S'\x1cyNl\xffPW@'
p23
tp24
Rp25
ag10
(g14
S'B\xa0|+\xc4PW@'
p26
tp27
Rp28
ag10
(g14
S'\x89\x06\xd3?NQW@'
p29
tp30
Rp31
ag10
(g14
S'\xb8\xf5\x11\xd1aPW@'
p32
tp33
Rp34
ag10
(g14
S'>\xa9\xcc\xee?PW@'
p35
tp36
Rp37
ag10
(g14
S'\x04\xd2\x99)\x1aPW@'
p38
tp39
Rp40
ag10
(g14
S"s~'\xfa\xd3OW@"
p41
tp42
Rp43
ag10
(g14
S'\xb7Kml\xa2PW@'
p44
tp45
Rp46
ag10
(g14
S'\xf6\x13\x8d\x9e9NW@'
p47
tp48
Rp49
ag10
(g14
S'M\x07\x12l>QW@'
p50
tp51
Rp52
ag10
(g14
S'\xcaBO\x89\xdcPW@'
p53
tp54
Rp55
ag10
(g14
S'\x15i\xbcu\xfaNW@'
p56
tp57
Rp58
ag10
(g14
S'@\xdf\xfeV\xafOW@'
p59
tp60
Rp61
ag10
(g14
S'\x9e\xfb\x9b\x8f\x14QW@'
p62
tp63
Rp64
ag10
(g14
S'MD\xce\xfd\xbeNW@'
p65
tp66
Rp67
ag10
(g14
S'b\x81W\xcc)QW@'
p68
tp69
Rp70
ag10
(g14
S'\xfa\xc4u\x8c\x9aOW@'
p71
tp72
Rp73
ag10
(g14
S'>\xf9\x80\tsPW@'
p74
tp75
Rp76
asS'target'
p77
(lp78
g10
(g14
S'5\x0c=\xc56t1@'
p79
tp80
Rp81
ag10
(g14
S'VM\xbf\xc0T\xa51@'
p82
tp83
Rp84
ag10
(g14
S'Cx\xe4/Q\xe90@'
p85
tp86
Rp87
ag10
(g14
S'\r\xfc\xb6Yt\xa00@'
p88
tp89
Rp90
ag10
(g14
S'o\x02\x95?\x0fz1@'
p91
tp92
Rp93
ag10
(g14
S'\xa6k7\xdc\xd3p1@'
p94
tp95
Rp96
ag10
(g14
S'jY\x0e\x10h\xa80@'
p97
tp98
Rp99
ag10
(g14
S'\x01\xd2F\xee\xf8-2@'
p100
tp101
Rp102
ag10
(g14
S'\xd1\xa5\xb0~\x81l2@'
p103
tp104
Rp105
ag10
(g14
S'\xd8\xbfM\x13\xd6\xe00@'
p106
tp107
Rp108
ag10
(g14
S';\xfc\x00\xe9C\xba2@'
p109
tp110
Rp111
ag10
(g14
S'W\xacp\x10\xa5(2@'
p112
tp113
Rp114
ag10
(g14
S'+\xaf\x93\xf1g\xf11@'
p115
tp116
Rp117
ag10
(g14
S'\xcc3{&u\xdd1@'
p118
tp119
Rp120
ag10
(g14
S'\nr\xb2\xf3N\xd31@'
p121
tp122
Rp123
ag10
(g14
S'`\x9c\xd6\x13\xdcG1@'
p124
tp125
Rp126
ag10
(g14
S'@\xd6Pc\xe4\x9c1@'
p127
tp128
Rp129
ag10
(g14
S'h\xb6\x06\x12\xdcy0@'
p130
tp131
Rp132
ag10
(g14
S'\\y03\xc9\xbf1@'
p133
tp134
Rp135
ag10
(g14
S'k\xe0\xb3+Se0@'
p136
tp137
Rp138
asssss.