(dp0
S'../Data/sqlite_43.csv'
p1
(dp2
S'../Data/sqlite_23.csv'
p3
(dp4
F0.2
(dp5
S'abs_res'
p6
(dp7
S'bellwether'
p8
(lp9
cnumpy.core.multiarray
scalar
p10
(cnumpy
dtype
p11
(S'f8'
p12
I0
I1
tp13
Rp14
(I3
S'<'
p15
NNNI-1
I-1
I0
tp16
bS'\xcc\xa1E6{q>A'
p17
tp18
Rp19
ag10
(g14
S'0$M\x89\xc7p>A'
p20
tp21
Rp22
ag10
(g14
S'\x954\xa5\xa2\xb6p>A'
p23
tp24
Rp25
ag10
(g14
S'\x8f\xed|\xffrq>A'
p26
tp27
Rp28
ag10
(g14
S'\xfbo\x84\xd2\xffp>A'
p29
tp30
Rp31
ag10
(g14
S'[W\x80\\kq>A'
p32
tp33
Rp34
ag10
(g14
S'\x04c\xc9\xaf\xddp>A'
p35
tp36
Rp37
ag10
(g14
S'A\xdfO\xcd\xa2r>A'
p38
tp39
Rp40
ag10
(g14
S'\xc2\xe6B\x92\xd8p>A'
p41
tp42
Rp43
ag10
(g14
S'L\x8blG\x13p>A'
p44
tp45
Rp46
ag10
(g14
S'\x08\x00\x00\xe08q>A'
p47
tp48
Rp49
ag10
(g14
S'\xc9\xe8m\x99\x1bp>A'
p50
tp51
Rp52
ag10
(g14
S'\x93\x8c\xdeV\x96p>A'
p53
tp54
Rp55
ag10
(g14
S'%x0O\xf9p>A'
p56
tp57
Rp58
ag10
(g14
S'H\n\xd7\xe3\xd1p>A'
p59
tp60
Rp61
ag10
(g14
S'0\xa3\xb7\xc5Fq>A'
p62
tp63
Rp64
ag10
(g14
S'H7\x89\x01\xdaq>A'
p65
tp66
Rp67
ag10
(g14
S'\xa2\x9b\xc4\x80\xb3q>A'
p68
tp69
Rp70
ag10
(g14
S'\x0f\x9d6pOq>A'
p71
tp72
Rp73
ag10
(g14
S'Wb\x10\xb8\xd0q>A'
p74
tp75
Rp76
asS'target'
p77
(lp78
g10
(g14
S'\xa2\x1a/\xdd$\xc6?@'
p79
tp80
Rp81
ag10
(g14
S'\xd4v\xbe\x9f\x1a\xef>@'
p82
tp83
Rp84
ag10
(g14
S'\xa8\x1a/\xdd$\xa6=@'
p85
tp86
Rp87
ag10
(g14
S'Z\xbaI\x0c\x02+<@'
p88
tp89
Rp90
ag10
(g14
S'\x18\xaeG\xe1zd=@'
p91
tp92
Rp93
ag10
(g14
S'x\x93\x18\x04V~A@'
p94
tp95
Rp96
ag10
(g14
S'n\x91\xed|?U@@'
p97
tp98
Rp99
ag10
(g14
S'\xa6\xc6K7\x89\xa1;@'
p100
tp101
Rp102
ag10
(g14
S'N\x0c\x02+\x876@@'
p103
tp104
Rp105
ag10
(g14
S"S\xe1z\x14\xae'<@"
p106
tp107
Rp108
ag10
(g14
S'd\xe5\xd0"\xdby=@'
p109
tp110
Rp111
ag10
(g14
S'/\x08\xac\x1cZ\x04?@'
p112
tp113
Rp114
ag10
(g14
S'9\xdfO\x8d\x97\xae>@'
p115
tp116
Rp117
ag10
(g14
S'\xf6~j\xbct\xf3<@'
p118
tp119
Rp120
ag10
(g14
S'\xfe\xa7\xc6K7\xb9>@'
p121
tp122
Rp123
ag10
(g14
S'\x94\x97n\x12\x83\xf8@@'
p124
tp125
Rp126
ag10
(g14
S'\xc9\xf5(\\\x8f\xa2;@'
p127
tp128
Rp129
ag10
(g14
S'\xc6\xf3\xfd\xd4x\t>@'
p130
tp131
Rp132
ag10
(g14
S'^ffff\x06>@'
p133
tp134
Rp135
ag10
(g14
S'\xafG\xe1z\x14n=@'
p136
tp137
Rp138
asssss.