(dp0
S'../Data/sqlite_50.csv'
p1
(dp2
S'../Data/sqlite_62.csv'
p3
(dp4
F0.15
(dp5
S'mmre'
p6
(dp7
S'bellwether'
p8
(lp9
cnumpy.core.multiarray
scalar
p10
(cnumpy
dtype
p11
(S'f8'
p12
I0
I1
tp13
Rp14
(I3
S'<'
p15
NNNI-1
I-1
I0
tp16
bS'm\xa7\x8cD\xf5RU@'
p17
tp18
Rp19
ag10
(g14
S"\x13x{\xb5'RU@"
p20
tp21
Rp22
ag10
(g14
S'sE\x1e\xf7dRU@'
p23
tp24
Rp25
ag10
(g14
S'\xbc\x19+\x12\xe9RU@'
p26
tp27
Rp28
ag10
(g14
S'j\xa5\x1co\xecRU@'
p29
tp30
Rp31
ag10
(g14
S'\xaaZ\x0c\xcc\xceSU@'
p32
tp33
Rp34
ag10
(g14
S'\x99\x8f\xce_PQU@'
p35
tp36
Rp37
ag10
(g14
S'\x85\xca~\x96\xc7RU@'
p38
tp39
Rp40
ag10
(g14
S'\xceg\x06\x03\x82SU@'
p41
tp42
Rp43
ag10
(g14
S':mpn\x8aQU@'
p44
tp45
Rp46
ag10
(g14
S'<\xactG\x02SU@'
p47
tp48
Rp49
ag10
(g14
S'1\xaf\xc1\xfa\xffQU@'
p50
tp51
Rp52
ag10
(g14
S'\xad\r\xd0\x00\x89PU@'
p53
tp54
Rp55
ag10
(g14
S'Mg=\xa8\rRU@'
p56
tp57
Rp58
ag10
(g14
S'\x8d\x83H\xf3\xfbPU@'
p59
tp60
Rp61
ag10
(g14
S')  (nPU@'
p62
tp63
Rp64
ag10
(g14
S'\xb9\xba\x85E\xf0QU@'
p65
tp66
Rp67
ag10
(g14
S'W\xff\x99A\xbeRU@'
p68
tp69
Rp70
ag10
(g14
S'\x1c\xd7\x87b\xb1QU@'
p71
tp72
Rp73
ag10
(g14
S'\xa7\xa1\xf0\xfa\x1dSU@'
p74
tp75
Rp76
asS'target'
p77
(lp78
g10
(g14
S'\x0f\x90\xb3N>r"@'
p79
tp80
Rp81
ag10
(g14
S'#\xa8u\n\xa9\xce @'
p82
tp83
Rp84
ag10
(g14
S'K\x8f\xb8&\xde?$@'
p85
tp86
Rp87
ag10
(g14
S'\xfe\x86\xdf\xc5\xe8K @'
p88
tp89
Rp90
ag10
(g14
S'o5\xd5t\xdc`!@'
p91
tp92
Rp93
ag10
(g14
S'\xf0\x11;\x0e\xbeu!@'
p94
tp95
Rp96
ag10
(g14
S'>\xaf\x10\xd2:r#@'
p97
tp98
Rp99
ag10
(g14
S'\x94I\xac\xe2\x16\xcb @'
p100
tp101
Rp102
ag10
(g14
S'V\xa1H\xa6>\x93 @'
p103
tp104
Rp105
ag10
(g14
S'\xde\xab\xf9\xa7\xa4\xe4\x1f@'
p106
tp107
Rp108
ag10
(g14
S'\xa7c\xcb\x88\xd3\xb1"@'
p109
tp110
Rp111
ag10
(g14
S'\x04\x0c\x08\xd8k\xfb @'
p112
tp113
Rp114
ag10
(g14
S'\xd7\xe2l[\xc5\xdc @'
p115
tp116
Rp117
ag10
(g14
S'of\xc11\x9am#@'
p118
tp119
Rp120
ag10
(g14
S'gi\xa9_\xc3]!@'
p121
tp122
Rp123
ag10
(g14
S'\x98L\xc1 {\xf0"@'
p124
tp125
Rp126
ag10
(g14
S'X;`\x08<\xfc!@'
p127
tp128
Rp129
ag10
(g14
S'B\x03O1\xa1\xfd!@'
p130
tp131
Rp132
ag10
(g14
S'\xaf\x8f:\x01t> @'
p133
tp134
Rp135
ag10
(g14
S"'\xc7B%7\xdb!@"
p136
tp137
Rp138
asssss.