(dp0
S'../Data/sqlite_2.csv'
p1
(dp2
S'../Data/sqlite_59.csv'
p3
(dp4
F0.05
(dp5
S'mmre'
p6
(dp7
S'bellwether'
p8
(lp9
cnumpy.core.multiarray
scalar
p10
(cnumpy
dtype
p11
(S'f8'
p12
I0
I1
tp13
Rp14
(I3
S'<'
p15
NNNI-1
I-1
I0
tp16
bS'\x0c3\xa8\x8d\xcaSU@'
p17
tp18
Rp19
ag10
(g14
S'\xdbA\x17\xe0OTU@'
p20
tp21
Rp22
ag10
(g14
S'\x19/"E\rTU@'
p23
tp24
Rp25
ag10
(g14
S'\x07\xb0\xe9K\rTU@'
p26
tp27
Rp28
ag10
(g14
S'\xa5$\xa6\x8a\x8dTU@'
p29
tp30
Rp31
ag10
(g14
S'\x8af\xab\xce\xa2TU@'
p32
tp33
Rp34
ag10
(g14
S'6\x86|%\xb8SU@'
p35
tp36
Rp37
ag10
(g14
S'\xf2\xf0\xa1-\x00UU@'
p38
tp39
Rp40
ag10
(g14
S'\xfb\xbf_\x17*UU@'
p41
tp42
Rp43
ag10
(g14
S'\xa9\xe1\xa3\xb23TU@'
p44
tp45
Rp46
ag10
(g14
S'U:\xd2)\xfaTU@'
p47
tp48
Rp49
ag10
(g14
S'\x94@\xa5+\x87TU@'
p50
tp51
Rp52
ag10
(g14
S'H!q\x15`UU@'
p53
tp54
Rp55
ag10
(g14
S'\x9c\xaayyuSU@'
p56
tp57
Rp58
ag10
(g14
S'\xc2\xb2\xc17\x0bUU@'
p59
tp60
Rp61
ag10
(g14
S'L\xb8&0NSU@'
p62
tp63
Rp64
ag10
(g14
S'\x12\x99\x934\x99UU@'
p65
tp66
Rp67
ag10
(g14
S'\xaf\xa0>\xdc\xfaTU@'
p68
tp69
Rp70
ag10
(g14
S'4\x86\xebOBSU@'
p71
tp72
Rp73
ag10
(g14
S'\xdeHO\x80\xcbSU@'
p74
tp75
Rp76
asS'target'
p77
(lp78
g10
(g14
S'\x1bK\xa3@bS(@'
p79
tp80
Rp81
ag10
(g14
S"6\xfc\xbfa\x8c5'@"
p82
tp83
Rp84
ag10
(g14
S"\xfb|\x19\xf5\xdbX'@"
p85
tp86
Rp87
ag10
(g14
S"\xad\x08\xa9_\t\x8a'@"
p88
tp89
Rp90
ag10
(g14
S'{/\x01\xfc\t\x02%@'
p91
tp92
Rp93
ag10
(g14
S'\x85F\xee8IA%@'
p94
tp95
Rp96
ag10
(g14
S'`u?\x92\x86\x0c*@'
p97
tp98
Rp99
ag10
(g14
S'\xf0)[\xaf\x88\x0e&@'
p100
tp101
Rp102
ag10
(g14
S'7\xd4\xc2\xda\xc8\x8f(@'
p103
tp104
Rp105
ag10
(g14
S'S\xf4\xdf\xe1\x84\x08+@'
p106
tp107
Rp108
ag10
(g14
S'CZ\x1a\x14\xe3\xfe%@'
p109
tp110
Rp111
ag10
(g14
S'\xe5~\x9f\xcfQf&@'
p112
tp113
Rp114
ag10
(g14
S"\xfdE\x89\x8e\xa5\x83'@"
p115
tp116
Rp117
ag10
(g14
S'\x1e\x1b\xd8z\xcdu&@'
p118
tp119
Rp120
ag10
(g14
S'T\xd6\xf3\x18\xc2\xec+@'
p121
tp122
Rp123
ag10
(g14
S'B\xfe\x13\xaf\xdc*(@'
p124
tp125
Rp126
ag10
(g14
S'\xe7\x13\xfaT\xd0\xde"@'
p127
tp128
Rp129
ag10
(g14
S'v\x80]\x15\xa1j$@'
p130
tp131
Rp132
ag10
(g14
S'Td\xd2\xe9^4,@'
p133
tp134
Rp135
ag10
(g14
S'\x82\xf7\xc8&-\xe7*@'
p136
tp137
Rp138
asssss.