(dp0
S'../Data/sqlite_35.csv'
p1
(dp2
S'../Data/sqlite_90.csv'
p3
(dp4
F0.05
(dp5
S'mmre'
p6
(dp7
S'bellwether'
p8
(lp9
cnumpy.core.multiarray
scalar
p10
(cnumpy
dtype
p11
(S'f8'
p12
I0
I1
tp13
Rp14
(I3
S'<'
p15
NNNI-1
I-1
I0
tp16
bS'(\xea\xc3N\rRV@'
p17
tp18
Rp19
ag10
(g14
S'N@\x10\x8a\xd1UV@'
p20
tp21
Rp22
ag10
(g14
S'\xe3\x8cO07QV@'
p23
tp24
Rp25
ag10
(g14
S'\x1b\x97\xd7\x89\x97PV@'
p26
tp27
Rp28
ag10
(g14
S'/\x04\xfe^\x8cRV@'
p29
tp30
Rp31
ag10
(g14
S'B\xa5\x1dz\xcbPV@'
p32
tp33
Rp34
ag10
(g14
S'q\xffxs\x07UV@'
p35
tp36
Rp37
ag10
(g14
S'\x94\x14,\xcd\x1aSV@'
p38
tp39
Rp40
ag10
(g14
S'q\x90\x82\x8a8VV@'
p41
tp42
Rp43
ag10
(g14
S'%j\xa0_)]V@'
p44
tp45
Rp46
ag10
(g14
S'J\xfa\xf8K\x0fVV@'
p47
tp48
Rp49
ag10
(g14
S'\x1b\xc4z\xb8?RV@'
p50
tp51
Rp52
ag10
(g14
S'\xfe:J\x84ITV@'
p53
tp54
Rp55
ag10
(g14
S'\xfb\x8d\xde\x94\xa7UV@'
p56
tp57
Rp58
ag10
(g14
S'\xf2/w\xed(PV@'
p59
tp60
Rp61
ag10
(g14
S'`J2\xebuWV@'
p62
tp63
Rp64
ag10
(g14
S'x\\+\x82\x0bQV@'
p65
tp66
Rp67
ag10
(g14
S'\xd6\xf1\x8b@\xd9QV@'
p68
tp69
Rp70
ag10
(g14
S'\x82\r)\xc8PXV@'
p71
tp72
Rp73
ag10
(g14
S'=\xce\x9a\xfb\xfeQV@'
p74
tp75
Rp76
asS'target'
p77
(lp78
g10
(g14
S'[\x19\xacU\xd6\xf4A@'
p79
tp80
Rp81
ag10
(g14
S'\r\x1b\xdd\x85\xbdUA@'
p82
tp83
Rp84
ag10
(g14
S'\x7f\xa5\x16\xb2+vD@'
p85
tp86
Rp87
ag10
(g14
S'\xfcJJ(*\xbbB@'
p88
tp89
Rp90
ag10
(g14
S'\xdb\xd5\x1d\xb1Y\xb0@@'
p91
tp92
Rp93
ag10
(g14
S'#f\xc6T\xdc\xb8@@'
p94
tp95
Rp96
ag10
(g14
S'\xc0x\x1e\x8f\x8f\x7f@@'
p97
tp98
Rp99
ag10
(g14
S'\x90\x9boi\r\xe6>@'
p100
tp101
Rp102
ag10
(g14
S'^:^\xfc\xa9\x89A@'
p103
tp104
Rp105
ag10
(g14
S'\x0cpw\xd0\xfcX@@'
p106
tp107
Rp108
ag10
(g14
S'\x8ej\xbbU\xc9\xfb@@'
p109
tp110
Rp111
ag10
(g14
S'\x8e\xba"4$R@@'
p112
tp113
Rp114
ag10
(g14
S'H\x19\xccs\x17>C@'
p115
tp116
Rp117
ag10
(g14
S'\xd3BUp\x97\xaa@@'
p118
tp119
Rp120
ag10
(g14
S'\x07e=\xd6\xe5\x01B@'
p121
tp122
Rp123
ag10
(g14
S'9\xc4U\xd1A\xa2@@'
p124
tp125
Rp126
ag10
(g14
S'\x12\x8cx7grC@'
p127
tp128
Rp129
ag10
(g14
S'u\xf5)\x87\x16+=@'
p130
tp131
Rp132
ag10
(g14
S'\xe2\x97\xcb"\xab\x94A@'
p133
tp134
Rp135
ag10
(g14
S'\xb1\xcdQH\xba\xd1@@'
p136
tp137
Rp138
asssss.