(dp0
S'../Data/sqlite_36.csv'
p1
(dp2
S'../Data/sqlite_87.csv'
p3
(dp4
F0.15
(dp5
S'mmre'
p6
(dp7
S'bellwether'
p8
(lp9
cnumpy.core.multiarray
scalar
p10
(cnumpy
dtype
p11
(S'f8'
p12
I0
I1
tp13
Rp14
(I3
S'<'
p15
NNNI-1
I-1
I0
tp16
bS'\xe3]\xfe@\xec`T@'
p17
tp18
Rp19
ag10
(g14
S'/}P\x7f\\nT@'
p20
tp21
Rp22
ag10
(g14
S'\xe7q\xd9\x08\xc6ZT@'
p23
tp24
Rp25
ag10
(g14
S'\xb2uO\xaf\x8ciT@'
p26
tp27
Rp28
ag10
(g14
S'W?\xa79\x07gT@'
p29
tp30
Rp31
ag10
(g14
S'\xdbq]\xca\x17aT@'
p32
tp33
Rp34
ag10
(g14
S'r\x00S\xae\xa2hT@'
p35
tp36
Rp37
ag10
(g14
S'\xa2\xc6\xaa\xcb\x10iT@'
p38
tp39
Rp40
ag10
(g14
S'\xe4\xddP~\x8eiT@'
p41
tp42
Rp43
ag10
(g14
S'\x9e\x0bW\x896`T@'
p44
tp45
Rp46
ag10
(g14
S'\x81\xfcY\xea\xafaT@'
p47
tp48
Rp49
ag10
(g14
S'\x1f`\x17Y8nT@'
p50
tp51
Rp52
ag10
(g14
S'n\x02B2\xb5^T@'
p53
tp54
Rp55
ag10
(g14
S'\x0c\x16\xd7\x0b\xbb_T@'
p56
tp57
Rp58
ag10
(g14
S'\xe0K\xb4 TgT@'
p59
tp60
Rp61
ag10
(g14
S'\xd5\xcf\xf1^\xed^T@'
p62
tp63
Rp64
ag10
(g14
S'o\xa4\x08\ridT@'
p65
tp66
Rp67
ag10
(g14
S'\xd0`\xc2\xb8\xbaeT@'
p68
tp69
Rp70
ag10
(g14
S'\x11Xx\x04/^T@'
p71
tp72
Rp73
ag10
(g14
S'U\xdf\x05-_gT@'
p74
tp75
Rp76
asS'target'
p77
(lp78
g10
(g14
S'4\xbc\xeb\x85^}P@'
p79
tp80
Rp81
ag10
(g14
S'M\xb1\x81^e?J@'
p82
tp83
Rp84
ag10
(g14
S'\x14\xfcQF\xa5\xbfX@'
p85
tp86
Rp87
ag10
(g14
S'\x0f\x8d$}_LQ@'
p88
tp89
Rp90
ag10
(g14
S'\x93z7x,qK@'
p91
tp92
Rp93
ag10
(g14
S'\xfc\xfbg{\x8e\xb6M@'
p94
tp95
Rp96
ag10
(g14
S'7\x867\xca\x8e\xd5P@'
p97
tp98
Rp99
ag10
(g14
S'\x85\xa4\x07\xac\t\xdaG@'
p100
tp101
Rp102
ag10
(g14
S'\xcf\x97-%\xcfg`@'
p103
tp104
Rp105
ag10
(g14
S'U\xf7\xdd\xd2elL@'
p106
tp107
Rp108
ag10
(g14
S'v\x80\xa7C\xba\xc2S@'
p109
tp110
Rp111
ag10
(g14
S'L\xc2r\xbaqVK@'
p112
tp113
Rp114
ag10
(g14
S'S\xd7\xe8[\x01\x9bX@'
p115
tp116
Rp117
ag10
(g14
S'\xd1*p\x84xUV@'
p118
tp119
Rp120
ag10
(g14
S'\xbb\xa2F\x86\xd1\xafR@'
p121
tp122
Rp123
ag10
(g14
S'\xdb\xcc\x1c\xcf\x16\xcfQ@'
p124
tp125
Rp126
ag10
(g14
S'm\xce\x8e\x99\xc7\x13Q@'
p127
tp128
Rp129
ag10
(g14
S'\x89\xa1\xa8B_\xceU@'
p130
tp131
Rp132
ag10
(g14
S'\x1c\xfbn\xab\xaeJT@'
p133
tp134
Rp135
ag10
(g14
S'\xcb\x19c\x16\xde\x1bU@'
p136
tp137
Rp138
asssss.