(dp0
S'../Data/sqlite_15.csv'
p1
(dp2
S'../Data/sqlite_70.csv'
p3
(dp4
F0.2
(dp5
S'abs_res'
p6
(dp7
S'bellwether'
p8
(lp9
cnumpy.core.multiarray
scalar
p10
(cnumpy
dtype
p11
(S'f8'
p12
I0
I1
tp13
Rp14
(I3
S'<'
p15
NNNI-1
I-1
I0
tp16
bS'\x80\x95C+\xadW>A'
p17
tp18
Rp19
ag10
(g14
S'k=\nW\x07Y>A'
p20
tp21
Rp22
ag10
(g14
S'\x02\xd5xi\x1aY>A'
p23
tp24
Rp25
ag10
(g14
S'FS*\xce\xd7W>A'
p26
tp27
Rp28
ag10
(g14
S'\xe8o\x84r\xbbX>A'
p29
tp30
Rp31
ag10
(g14
S'W\x8f\xc2\xf5\xe8X>A'
p32
tp33
Rp34
ag10
(g14
S'\xa2\xc6K7\x93X>A'
p35
tp36
Rp37
ag10
(g14
S'\x89C\x8b\xec~Y>A'
p38
tp39
Rp40
ag10
(g14
S'\x90\x8a\xb3\xaf\x80Z>A'
p41
tp42
Rp43
ag10
(g14
S'\xc8\xd9\x87\x0f\x10Y>A'
p44
tp45
Rp46
ag10
(g14
S'\xf8S\xe3%\xe6Y>A'
p47
tp48
Rp49
ag10
(g14
S'.\x89A \x04Z>A'
p50
tp51
Rp52
ag10
(g14
S'Y\x10X\x198X>A'
p53
tp54
Rp55
ag10
(g14
S'\xf1(\\\x8ffX>A'
p56
tp57
Rp58
ag10
(g14
S'ZW\x80\xbcFW>A'
p59
tp60
Rp61
ag10
(g14
S'\xc2/\x96|\xa2X>A'
p62
tp63
Rp64
ag10
(g14
S'%1\x08\xcc\xa7W>A'
p65
tp66
Rp67
ag10
(g14
S'{\x95Ck[W>A'
p68
tp69
Rp70
ag10
(g14
S'\x1e\x13<\xf8\xdcY>A'
p71
tp72
Rp73
ag10
(g14
S'\x1eM\xa9\xb8\x1fX>A'
p74
tp75
Rp76
asS'target'
p77
(lp78
g10
(g14
S'\x96\xef\xa7\xc6K\xa7^@'
p79
tp80
Rp81
ag10
(g14
S'kh\x91\xed|G_@'
p82
tp83
Rp84
ag10
(g14
S'w\x95C\x8bl\xc7^@'
p85
tp86
Rp87
ag10
(g14
S'\xb7I\x0c\x02+\x17`@'
p88
tp89
Rp90
ag10
(g14
S'~=\n\xd7\xa3p_@'
p91
tp92
Rp93
ag10
(g14
S'r\x14\xaeG\xe1\x12_@'
p94
tp95
Rp96
ag10
(g14
S'\x9ep=\n\xd77`@'
p97
tp98
Rp99
ag10
(g14
S'\n\xd7\xa3p=<`@'
p100
tp101
Rp102
ag10
(g14
S'{\x95C\x8bl\xd3]@'
p103
tp104
Rp105
ag10
(g14
S'|j\xbct\x93\xc4^@'
p106
tp107
Rp108
ag10
(g14
S'\xb6\xf5(\\\x8f\x82_@'
p109
tp110
Rp111
ag10
(g14
S'F7\x89A`M_@'
p112
tp113
Rp114
ag10
(g14
S'\xc1I\x0c\x02+\x17^@'
p115
tp116
Rp117
ag10
(g14
S'\xd7\xa3p=\n\xc1`@'
p118
tp119
Rp120
ag10
(g14
S'\x0c\x83\xc0\xca\xa1m`@'
p121
tp122
Rp123
ag10
(g14
S'\xd4\xcc\xcc\xcc\xcc\xd8^@'
p124
tp125
Rp126
ag10
(g14
S'<5^\xbaI$^@'
p127
tp128
Rp129
ag10
(g14
S'>\xdfO\x8d\x97\x1e_@'
p130
tp131
Rp132
ag10
(g14
S'\x1d1\x08\xac\x1c\xda]@'
p133
tp134
Rp135
ag10
(g14
S'\xd4\xf7S\xe3\xa5\x03_@'
p136
tp137
Rp138
asssss.