(dp0
S'../Data/sqlite_83.csv'
p1
(dp2
S'../Data/sqlite_29.csv'
p3
(dp4
F0.2
(dp5
S'mmre'
p6
(dp7
S'bellwether'
p8
(lp9
cnumpy.core.multiarray
scalar
p10
(cnumpy
dtype
p11
(S'f8'
p12
I0
I1
tp13
Rp14
(I3
S'<'
p15
NNNI-1
I-1
I0
tp16
bS'sll4R^X@'
p17
tp18
Rp19
ag10
(g14
S'\xbc\xd2c]W^X@'
p20
tp21
Rp22
ag10
(g14
S'c\x02\xe5B`^X@'
p23
tp24
Rp25
ag10
(g14
S'qf\xd1DL^X@'
p26
tp27
Rp28
ag10
(g14
S'\xeer\x17a\\^X@'
p29
tp30
Rp31
ag10
(g14
S'\x00gu\xe9c^X@'
p32
tp33
Rp34
ag10
(g14
S'\x8d\x15\x17\xb2Y^X@'
p35
tp36
Rp37
ag10
(g14
S'1H\x92At^X@'
p38
tp39
Rp40
ag10
(g14
S'\x842\xffc_^X@'
p41
tp42
Rp43
ag10
(g14
S'\x9bW\xf7\x8dd^X@'
p44
tp45
Rp46
ag10
(g14
S'\xfc\xce\x9f;V^X@'
p47
tp48
Rp49
ag10
(g14
S'%\xd3~NT^X@'
p50
tp51
Rp52
ag10
(g14
S'\xc6{\xa4s~^X@'
p53
tp54
Rp55
ag10
(g14
S'\\\x9c\x1a\xb5Y^X@'
p56
tp57
Rp58
ag10
(g14
S':\xbfH\xa5V^X@'
p59
tp60
Rp61
ag10
(g14
S'j\xcdb\xf2R^X@'
p62
tp63
Rp64
ag10
(g14
S'\xac\xd0\xd6\x1dH^X@'
p65
tp66
Rp67
ag10
(g14
S'\x02\xb5\x02\x16d^X@'
p68
tp69
Rp70
ag10
(g14
S'\x15.rWQ^X@'
p71
tp72
Rp73
ag10
(g14
S'O&osW^X@'
p74
tp75
Rp76
asS'target'
p77
(lp78
g10
(g14
S'\xc0\xcb-\xf4\x83\x8c\xe9?'
p79
tp80
Rp81
ag10
(g14
S'r\x92\x82\\\x9a\xa6\xe9?'
p82
tp83
Rp84
ag10
(g14
S'~\x97\xa1\x02\xd5p\xe9?'
p85
tp86
Rp87
ag10
(g14
S'\x1a\xfa7oZ\xc6\xe9?'
p88
tp89
Rp90
ag10
(g14
S'\xd4\xe53\x14\x109\xe8?'
p91
tp92
Rp93
ag10
(g14
S'\x94\x15Z\x02\xe9\xf5\xe9?'
p94
tp95
Rp96
ag10
(g14
S'fu\x9a\xd4\xb9/\xe8?'
p97
tp98
Rp99
ag10
(g14
S'l\xc9hr\x83\x9e\xe9?'
p100
tp101
Rp102
ag10
(g14
S"\xcd\xe4?*c'\xe9?"
p103
tp104
Rp105
ag10
(g14
S'Vmwo=\x92\xec?'
p106
tp107
Rp108
ag10
(g14
S'\xf4\x1b\xad&T\x8c\xea?'
p109
tp110
Rp111
ag10
(g14
S'\x8b\xb3\xe5h%\xf3\xe9?'
p112
tp113
Rp114
ag10
(g14
S'\xf5\xb68\xa9I\xef\xeb?'
p115
tp116
Rp117
ag10
(g14
S'\xc2\x9fdCg\xba\xe9?'
p118
tp119
Rp120
ag10
(g14
S'\x12\\\xc3\xdb6\xb2\xe9?'
p121
tp122
Rp123
ag10
(g14
S'R\xd0\x14B\x94\x1e\xeb?'
p124
tp125
Rp126
ag10
(g14
S'\xc8\xedh92$\xe9?'
p127
tp128
Rp129
ag10
(g14
S'\x8f\x15\xdfu\x87\x1d\xeb?'
p130
tp131
Rp132
ag10
(g14
S'\xa2\x1d\x1f5Y\xd5\xeb?'
p133
tp134
Rp135
ag10
(g14
S'\xa83\x16\xf1\x10V\xe9?'
p136
tp137
Rp138
asssss.