(dp0
S'../Data/sqlite_48.csv'
p1
(dp2
S'../Data/sqlite_84.csv'
p3
(dp4
F0.1
(dp5
S'mmre'
p6
(dp7
S'bellwether'
p8
(lp9
cnumpy.core.multiarray
scalar
p10
(cnumpy
dtype
p11
(S'f8'
p12
I0
I1
tp13
Rp14
(I3
S'<'
p15
NNNI-1
I-1
I0
tp16
bS"\xfd\x89D\x0c'\x08Q@"
p17
tp18
Rp19
ag10
(g14
S'>\x9c\x0fF\x15fQ@'
p20
tp21
Rp22
ag10
(g14
S'\xa0S4\xf5\xabVQ@'
p23
tp24
Rp25
ag10
(g14
S'\x17\xdcA\xaa\x0f<Q@'
p26
tp27
Rp28
ag10
(g14
S'\x948\x7f\x99\xb5FQ@'
p29
tp30
Rp31
ag10
(g14
S'\x89\xd5\x00<6hQ@'
p32
tp33
Rp34
ag10
(g14
S'\xe4\xa1\xe8\x05\xe9jQ@'
p35
tp36
Rp37
ag10
(g14
S'~*\xb7\xa5EsQ@'
p38
tp39
Rp40
ag10
(g14
S'\x91\x10K\xf1\x01mQ@'
p41
tp42
Rp43
ag10
(g14
S'7c\xee=\r8Q@'
p44
tp45
Rp46
ag10
(g14
S'\x1aA\xe6R^bQ@'
p47
tp48
Rp49
ag10
(g14
S'\x12\x01\x01\xb6MYQ@'
p50
tp51
Rp52
ag10
(g14
S'=\xa5\xdeAODQ@'
p53
tp54
Rp55
ag10
(g14
S'i;\x92Ud?Q@'
p56
tp57
Rp58
ag10
(g14
S'k.\xd7\xc4\xba<Q@'
p59
tp60
Rp61
ag10
(g14
S'E\x8f.\xd8\xacAQ@'
p62
tp63
Rp64
ag10
(g14
S'\xa5\x98W\x81n-Q@'
p65
tp66
Rp67
ag10
(g14
S'\xc6x\xb5@EQQ@'
p68
tp69
Rp70
ag10
(g14
S'#&F\x1c\xdcXQ@'
p71
tp72
Rp73
ag10
(g14
S'g\xc4\xdaC=;Q@'
p74
tp75
Rp76
asS'target'
p77
(lp78
g10
(g14
S'q\xa7\xbe\x94\xac9G@'
p79
tp80
Rp81
ag10
(g14
S'\t\x01\xc9\x80h\x97I@'
p82
tp83
Rp84
ag10
(g14
S'\xce9e\x18\x9c\x1eU@'
p85
tp86
Rp87
ag10
(g14
S'\xd7\x82\x1e\x1fW\xc8H@'
p88
tp89
Rp90
ag10
(g14
S'\xf3p\xea)7\x06P@'
p91
tp92
Rp93
ag10
(g14
S'\xda2\xc9O\xa7QO@'
p94
tp95
Rp96
ag10
(g14
S'\xd5#H\xeb\xc3\x0cA@'
p97
tp98
Rp99
ag10
(g14
S'\x05\xc26F\xafeH@'
p100
tp101
Rp102
ag10
(g14
S'\x92S\xb3~k@K@'
p103
tp104
Rp105
ag10
(g14
S'\xbf~\xf8\t\xcb\xb7P@'
p106
tp107
Rp108
ag10
(g14
S'\xa0\xf30\xd78\x08F@'
p109
tp110
Rp111
ag10
(g14
S'iK\xcbx\xb8WD@'
p112
tp113
Rp114
ag10
(g14
S'<\x8f\xbeX0\x80P@'
p115
tp116
Rp117
ag10
(g14
S'\n\x15cH\x13\xbfE@'
p118
tp119
Rp120
ag10
(g14
S'\x85M\xd5\xbd\x14\xe6M@'
p121
tp122
Rp123
ag10
(g14
S'\xbe"\x7f$\xd2\xeaE@'
p124
tp125
Rp126
ag10
(g14
S'xr\xca\x8c>VM@'
p127
tp128
Rp129
ag10
(g14
S'B@u[\xe1ER@'
p130
tp131
Rp132
ag10
(g14
S'\x95+Cc\xf3xL@'
p133
tp134
Rp135
ag10
(g14
S'-O\xd9\xectFG@'
p136
tp137
Rp138
asssss.