(dp0
S'../Data/sqlite_14.csv'
p1
(dp2
S'../Data/sqlite_97.csv'
p3
(dp4
F0.35
(dp5
S'mmre'
p6
(dp7
S'bellwether'
p8
(lp9
cnumpy.core.multiarray
scalar
p10
(cnumpy
dtype
p11
(S'f8'
p12
I0
I1
tp13
Rp14
(I3
S'<'
p15
NNNI-1
I-1
I0
tp16
bS'\x92^\x0ec\xe3/U@'
p17
tp18
Rp19
ag10
(g14
S'u\x01\xae\xb5;4U@'
p20
tp21
Rp22
ag10
(g14
S'`\xe1\xcc\xef4+U@'
p23
tp24
Rp25
ag10
(g14
S'\xb1)+=\x835U@'
p26
tp27
Rp28
ag10
(g14
S'\x7f^\xf57\r6U@'
p29
tp30
Rp31
ag10
(g14
S'\x96~\xca\xdc>4U@'
p32
tp33
Rp34
ag10
(g14
S'\xba-o\xe8\t)U@'
p35
tp36
Rp37
ag10
(g14
S'[\xa2\xa7|\r&U@'
p38
tp39
Rp40
ag10
(g14
S'\n\xa1\xc4\xe8_+U@'
p41
tp42
Rp43
ag10
(g14
S'\xefy\x94\r\xa6.U@'
p44
tp45
Rp46
ag10
(g14
S'\x96\x1a87Z8U@'
p47
tp48
Rp49
ag10
(g14
S'\x9f\xce\xf7\xe5\x8b2U@'
p50
tp51
Rp52
ag10
(g14
S'[\x8b%\xa1\xce-U@'
p53
tp54
Rp55
ag10
(g14
S'`r\x17\xe3\xeb(U@'
p56
tp57
Rp58
ag10
(g14
S'*7@\xf9\xed1U@'
p59
tp60
Rp61
ag10
(g14
S'\x94\x81\x98q\xba0U@'
p62
tp63
Rp64
ag10
(g14
S'v+|ZD1U@'
p65
tp66
Rp67
ag10
(g14
S'^\xee\x1cjp%U@'
p68
tp69
Rp70
ag10
(g14
S'\xb1\x88Q\xe4\xb83U@'
p71
tp72
Rp73
ag10
(g14
S'\x1b\xac\xbb\xec\xea,U@'
p74
tp75
Rp76
asS'target'
p77
(lp78
g10
(g14
S'y\xa6\x8c\xee\xfa8U@'
p79
tp80
Rp81
ag10
(g14
S'Xw?/\xe4\xa4T@'
p82
tp83
Rp84
ag10
(g14
S'\xfb\x9e\xca\xde{JT@'
p85
tp86
Rp87
ag10
(g14
S'\xbf\xf5\x8e[ \x1cQ@'
p88
tp89
Rp90
ag10
(g14
S'Sw\x8d$*\x0bN@'
p91
tp92
Rp93
ag10
(g14
S'5o\xc1\\\xa1\xd8S@'
p94
tp95
Rp96
ag10
(g14
S'\x98z\xc4\x823<S@'
p97
tp98
Rp99
ag10
(g14
S'\xcd`aR\xa9\x88S@'
p100
tp101
Rp102
ag10
(g14
S'\xb6CJZ\xab0P@'
p103
tp104
Rp105
ag10
(g14
S'\xee;\xb8i\xcfCQ@'
p106
tp107
Rp108
ag10
(g14
S'v\xaf\x8b\x1cp\x89L@'
p109
tp110
Rp111
ag10
(g14
S'RS\x9d\x9cG\xf4R@'
p112
tp113
Rp114
ag10
(g14
S'"K\xf44LvQ@'
p115
tp116
Rp117
ag10
(g14
S'@`\x819\x83J]@'
p118
tp119
Rp120
ag10
(g14
S'\x1b\x1a\xfe\x1c\xc8QW@'
p121
tp122
Rp123
ag10
(g14
S'-\xbd\xc5\xa0\x1bqQ@'
p124
tp125
Rp126
ag10
(g14
S'\x9an\x1a_A\rO@'
p127
tp128
Rp129
ag10
(g14
S'C\x19\xac\xc7\xac\x9cY@'
p130
tp131
Rp132
ag10
(g14
S'r1\xea\xb6?\xe2Q@'
p133
tp134
Rp135
ag10
(g14
S'\xe5"h\xa8kVV@'
p136
tp137
Rp138
asssss.