(dp0
S'../Data/sqlite_74.csv'
p1
(dp2
S'../Data/sqlite_31.csv'
p3
(dp4
F0.25
(dp5
S'abs_res'
p6
(dp7
S'bellwether'
p8
(lp9
cnumpy.core.multiarray
scalar
p10
(cnumpy
dtype
p11
(S'f8'
p12
I0
I1
tp13
Rp14
(I3
S'<'
p15
NNNI-1
I-1
I0
tp16
bS'\\\xabc\xdea[iA'
p17
tp18
Rp19
ag10
(g14
S'\x03\xe4^\x1f\xdeSiA'
p20
tp21
Rp22
ag10
(g14
S'\xd5\xea\x98\x948UiA'
p23
tp24
Rp25
ag10
(g14
S'\x8c\t\x1eL\xf7WiA'
p26
tp27
Rp28
ag10
(g14
S'=33\xff\x99biA'
p29
tp30
Rp31
ag10
(g14
S'\x82\x95C\xb3"PiA'
p32
tp33
Rp34
ag10
(g14
S'\xd7\x15 \xc3WViA'
p35
tp36
Rp37
ag10
(g14
S'\t\x81\x95\xbf|^iA'
p38
tp39
Rp40
ag10
(g14
S'\x02\x9d6x\x11]iA'
p41
tp42
Rp43
ag10
(g14
S'\xc7\xe8m\x95\xb4]iA'
p44
tp45
Rp46
ag10
(g14
S'\xa7\xc6K\xf3)fiA'
p47
tp48
Rp49
ag10
(g14
S'\xfc~j\xf0\xc5jiA'
p50
tp51
Rp52
ag10
(g14
S'\xd4\xf9~:\xeaaiA'
p53
tp54
Rp55
ag10
(g14
S'>\x8bl\xe3\x8e\\iA'
p56
tp57
Rp58
ag10
(g14
S'E\xb6\xf3\xed)^iA'
p59
tp60
Rp61
ag10
(g14
S'\xb0p=\xae\xdfbiA'
p62
tp63
Rp64
ag10
(g14
S'\x9f\xc4 \xc0bYiA'
p65
tp66
Rp67
ag10
(g14
S'\x01\x9d6\xacJQiA'
p68
tp69
Rp70
ag10
(g14
S'\xe6\xfb\xa9\x95EbiA'
p71
tp72
Rp73
ag10
(g14
S'\xc0\xe6B2:aiA'
p74
tp75
Rp76
asS'target'
p77
(lp78
g10
(g14
S'\xb2\xf3\xfd\xd4x\xffb@'
p79
tp80
Rp81
ag10
(g14
S'\x02+\x87\x16\xd9~b@'
p82
tp83
Rp84
ag10
(g14
S'$\xb0rh\x91\x1fd@'
p85
tp86
Rp87
ag10
(g14
S'\xcb \xb0rh\xb9a@'
p88
tp89
Rp90
ag10
(g14
S'p=\n\xd7\xa3\x00e@'
p91
tp92
Rp93
ag10
(g14
S'\xd5Mb\x10XQc@'
p94
tp95
Rp96
ag10
(g14
S'\xbe\x9f\x1a/\xdd\x08c@'
p97
tp98
Rp99
ag10
(g14
S'}?5^\xba\rb@'
p100
tp101
Rp102
ag10
(g14
S'2^\xbaI\x0c\x1ec@'
p103
tp104
Rp105
ag10
(g14
S'\x13\x04V\x0e-\xb2c@'
p106
tp107
Rp108
ag10
(g14
S'\xb7\x1e\x85\xebQ\x9eb@'
p109
tp110
Rp111
ag10
(g14
S"'\\\x8f\xc2\xf5\x1cb@"
p112
tp113
Rp114
ag10
(g14
S'r\xbe\x9f\x1a/\x89c@'
p115
tp116
Rp117
ag10
(g14
S'\n\xac\x1cZd\x8fc@'
p118
tp119
Rp120
ag10
(g14
S'\x92\xa6T\x9c}\x9ca@'
p121
tp122
Rp123
ag10
(g14
S'D`\xe5\xd0"\rd@'
p124
tp125
Rp126
ag10
(g14
S'b;\xdfO\x8d\x87c@'
p127
tp128
Rp129
ag10
(g14
S'\xf7S\xe3\xa5\x9b\x90b@'
p130
tp131
Rp132
ag10
(g14
S'Pb\x10X9\x10c@'
p133
tp134
Rp135
ag10
(g14
S'\xe2\xd0"\xdb\xf9\xc2b@'
p136
tp137
Rp138
asssss.