(dp0
S'../Data/sqlite_91.csv'
p1
(dp2
S'../Data/sqlite_90.csv'
p3
(dp4
F0.05
(dp5
S'mmre'
p6
(dp7
S'bellwether'
p8
(lp9
cnumpy.core.multiarray
scalar
p10
(cnumpy
dtype
p11
(S'f8'
p12
I0
I1
tp13
Rp14
(I3
S'<'
p15
NNNI-1
I-1
I0
tp16
bS'f*F;\xeeUv@'
p17
tp18
Rp19
ag10
(g14
S'\xdeQ\xefp\xa3av@'
p20
tp21
Rp22
ag10
(g14
S'e\x9fq\xfc\xa5kv@'
p23
tp24
Rp25
ag10
(g14
S'\xfcW\x8cN\x93nv@'
p26
tp27
Rp28
ag10
(g14
S'2o\x8f\xad\xdclv@'
p29
tp30
Rp31
ag10
(g14
S'cJ\x01`\xf1fv@'
p32
tp33
Rp34
ag10
(g14
S'\x7f\xe1 n:jv@'
p35
tp36
Rp37
ag10
(g14
S'>7\xae\xf0ncv@'
p38
tp39
Rp40
ag10
(g14
S'\x08\x8e!\xaa\x85Vv@'
p41
tp42
Rp43
ag10
(g14
S'\xb8\xbeH\xa1\x91ev@'
p44
tp45
Rp46
ag10
(g14
S'\xdd"4\xf7<av@'
p47
tp48
Rp49
ag10
(g14
S'\xeb"\xcd\x98Dhv@'
p50
tp51
Rp52
ag10
(g14
S'\xbc&$\xfd\xf5gv@'
p53
tp54
Rp55
ag10
(g14
S'\xf9\x90Q\x81ddv@'
p56
tp57
Rp58
ag10
(g14
S'\x0f\x9f\x0f\xb1#jv@'
p59
tp60
Rp61
ag10
(g14
S'\x16}\x18z2bv@'
p62
tp63
Rp64
ag10
(g14
S'\xadQ\xfc\t2qv@'
p65
tp66
Rp67
ag10
(g14
S'\xda\xb6^H9nv@'
p68
tp69
Rp70
ag10
(g14
S'\xdc\xfa\xea\x02\x7f`v@'
p71
tp72
Rp73
ag10
(g14
S'\x12U\xc8pPgv@'
p74
tp75
Rp76
asS'target'
p77
(lp78
g10
(g14
S'\xdaZ\xdb\xc2\xd0`@@'
p79
tp80
Rp81
ag10
(g14
S'\xdf\xce\xbe\xa9\xa6,B@'
p82
tp83
Rp84
ag10
(g14
S'\x86h\xaf\xd0\x04\xb4A@'
p85
tp86
Rp87
ag10
(g14
S'\xa1\xf6<\x19\x1f#@@'
p88
tp89
Rp90
ag10
(g14
S'E\x91\xfaa\xc4-A@'
p91
tp92
Rp93
ag10
(g14
S'\xac\x0f\x15\x84,\xb0A@'
p94
tp95
Rp96
ag10
(g14
S'\xb8c#\xad\x16EC@'
p97
tp98
Rp99
ag10
(g14
S'\xc3\xc6^\xea\xf7\x01E@'
p100
tp101
Rp102
ag10
(g14
S'?\x9f\xd7\x81\x83\xb0?@'
p103
tp104
Rp105
ag10
(g14
S';\xe9f\xbb>\xe5B@'
p106
tp107
Rp108
ag10
(g14
S'\x89\xfa\xf90\x8aD=@'
p109
tp110
Rp111
ag10
(g14
S'~\x95\xea\xbfB\xa3B@'
p112
tp113
Rp114
ag10
(g14
S'qhI+\x8d8A@'
p115
tp116
Rp117
ag10
(g14
S'Yjr\x15\xf2<A@'
p118
tp119
Rp120
ag10
(g14
S'C_\x11\x86\x94\xd0@@'
p121
tp122
Rp123
ag10
(g14
S'\x8b\xbc\xc7*Z\xef@@'
p124
tp125
Rp126
ag10
(g14
S'\xd9\x06\xaen]\xa7B@'
p127
tp128
Rp129
ag10
(g14
S'\xdb\x17*\x8a\xe5<B@'
p130
tp131
Rp132
ag10
(g14
S',B\xd6\xcb\xba\x91>@'
p133
tp134
Rp135
ag10
(g14
S'?\x86\xd7\x0c\x89\x97B@'
p136
tp137
Rp138
asssss.