(dp0
S'../Data/sqlite_43.csv'
p1
(dp2
S'../Data/sqlite_40.csv'
p3
(dp4
F0.25
(dp5
S'abs_res'
p6
(dp7
S'bellwether'
p8
(lp9
cnumpy.core.multiarray
scalar
p10
(cnumpy
dtype
p11
(S'f8'
p12
I0
I1
tp13
Rp14
(I3
S'<'
p15
NNNI-1
I-1
I0
tp16
bS'\r\x11\x11q\xc43<A'
p17
tp18
Rp19
ag10
(g14
S'\xd0x\xe9\xe6\t4<A'
p20
tp21
Rp22
ag10
(g14
S'\xbe\xe6B\x92x5<A'
p23
tp24
Rp25
ag10
(g14
S'\xbb\x92_\xcc{3<A'
p26
tp27
Rp28
ag10
(g14
S'7\xfb\xf0\x99\xbf3<A'
p29
tp30
Rp31
ag10
(g14
S'\xacG\xe1\x1a\xc46<A'
p32
tp33
Rp34
ag10
(g14
S'\xa9\xb9\x904\x884<A'
p35
tp36
Rp37
ag10
(g14
S'\xb7I\x0c"\x055<A'
p38
tp39
Rp40
ag10
(g14
S'\xd5\xf9~J\xfd5<A'
p41
tp42
Rp43
ag10
(g14
S'\xe9\xfd\xd4\x18+5<A'
p44
tp45
Rp46
ag10
(g14
S'+33\xf3\x825<A'
p47
tp48
Rp49
ag10
(g14
S'\xd6k.\xc4\xfc4<A'
p50
tp51
Rp52
ag10
(g14
S'&\x15g_\xc43<A'
p53
tp54
Rp55
ag10
(g14
S'\xf1D\xfd\xfb}3<A'
p56
tp57
Rp58
ag10
(g14
S'\xfeq\xaf\xd9\x985<A'
p59
tp60
Rp61
ag10
(g14
S'\x82l\xe7{E3<A'
p62
tp63
Rp64
ag10
(g14
S'\xd8\x96\xb5\x1ad4<A'
p65
tp66
Rp67
ag10
(g14
S'\x17Zd\x9b\xe44<A'
p68
tp69
Rp70
ag10
(g14
S'\x1eM\xa98\xe23<A'
p71
tp72
Rp73
ag10
(g14
S'u\xe9&\x91\xeb4<A'
p74
tp75
Rp76
asS'target'
p77
(lp78
g10
(g14
S'K\x8bl\xe7\xfb-}@'
p79
tp80
Rp81
ag10
(g14
S'\xf0\xfd\xd4x\xe9n\x7f@'
p82
tp83
Rp84
ag10
(g14
S'\x81\xebQ\xb8\x1eh}@'
p85
tp86
Rp87
ag10
(g14
S'5^\xbaI\x0c(~@'
p88
tp89
Rp90
ag10
(g14
S'D\x8bl\xe7\xfbi\x7f@'
p91
tp92
Rp93
ag10
(g14
S'/\\\x8f\xc2\xf5O~@'
p94
tp95
Rp96
ag10
(g14
S'.\x87\x16\xd9NA\x80@'
p97
tp98
Rp99
ag10
(g14
S'\x80j\xbct\x13G\x82@'
p100
tp101
Rp102
ag10
(g14
S'\x9f\xef\xa7\xc6K_~@'
p103
tp104
Rp105
ag10
(g14
S'\xee|?5^\x07\x80@'
p106
tp107
Rp108
ag10
(g14
S'\x8f\xc2\xf5(\\\xf8\x80@'
p109
tp110
Rp111
ag10
(g14
S'i\x10X9\xb4\\~@'
p112
tp113
Rp114
ag10
(g14
S's=\n\xd7\xa30~@'
p115
tp116
Rp117
ag10
(g14
S'\xa5\x9b\xc4 \xb0\xea\x83@'
p118
tp119
Rp120
ag10
(g14
S'\xbd \xb0rhz~@'
p121
tp122
Rp123
ag10
(g14
S'\x92\x18\x04V\x0e\x9f\x7f@'
p124
tp125
Rp126
ag10
(g14
S'\xd8\xa3p=\n\xde|@'
p127
tp128
Rp129
ag10
(g14
S'\xc0\x9f\x1a/]b\x80@'
p130
tp131
Rp132
ag10
(g14
S'x\x93\x18\x04V)~@'
p133
tp134
Rp135
ag10
(g14
S'{\x95C\x8bl8|@'
p136
tp137
Rp138
asssss.