(dp0
S'../Data/sqlite_9.csv'
p1
(dp2
S'../Data/sqlite_78.csv'
p3
(dp4
F0.2
(dp5
S'mmre'
p6
(dp7
S'bellwether'
p8
(lp9
cnumpy.core.multiarray
scalar
p10
(cnumpy
dtype
p11
(S'f8'
p12
I0
I1
tp13
Rp14
(I3
S'<'
p15
NNNI-1
I-1
I0
tp16
bS'z7.h9!T@'
p17
tp18
Rp19
ag10
(g14
S'\xd6\xd2^\xf24)T@'
p20
tp21
Rp22
ag10
(g14
S'\xe2?\x1cR\x99+T@'
p23
tp24
Rp25
ag10
(g14
S'\xb9\r\xd2\x19\xf9&T@'
p26
tp27
Rp28
ag10
(g14
S'l\xa9\xcb\xf0X!T@'
p29
tp30
Rp31
ag10
(g14
S'\x82\xd2\xc2\x8b\xdd T@'
p32
tp33
Rp34
ag10
(g14
S'\xb0\xee&_#&T@'
p35
tp36
Rp37
ag10
(g14
S'\x9e\xd8g\xc4\x19!T@'
p38
tp39
Rp40
ag10
(g14
S'\xb9Y\x16]\x16&T@'
p41
tp42
Rp43
ag10
(g14
S'\xe8:A\xc4(&T@'
p44
tp45
Rp46
ag10
(g14
S'$#\xeafR%T@'
p47
tp48
Rp49
ag10
(g14
S'\x867e\xe7\x7f(T@'
p50
tp51
Rp52
ag10
(g14
S'f\xbc\x8b\r\xcb$T@'
p53
tp54
Rp55
ag10
(g14
S'\xe6\x05f\xf6v%T@'
p56
tp57
Rp58
ag10
(g14
S'\x0eH\xdeX\x1c*T@'
p59
tp60
Rp61
ag10
(g14
S'\xb8\xae^\xbba%T@'
p62
tp63
Rp64
ag10
(g14
S'\xca6\xa3}\x83\x1fT@'
p65
tp66
Rp67
ag10
(g14
S'\xf4\xe7\x1a\xd4\xa2&T@'
p68
tp69
Rp70
ag10
(g14
S'TB\xad\x92Z%T@'
p71
tp72
Rp73
ag10
(g14
S'\x9c\x1139\xc8"T@'
p74
tp75
Rp76
asS'target'
p77
(lp78
g10
(g14
S'\xc4\x7f\x93\x1b\xc6\xd62@'
p79
tp80
Rp81
ag10
(g14
S'\xc4h\x9f\xaa\x92\x193@'
p82
tp83
Rp84
ag10
(g14
S'5o\x0eG\xdd\x843@'
p85
tp86
Rp87
ag10
(g14
S'\x8a\xbd\xf6_^@4@'
p88
tp89
Rp90
ag10
(g14
S'\xb2\xfe4\xbf\xbc\xec4@'
p91
tp92
Rp93
ag10
(g14
S"F'a\xbb\xc3Z4@"
p94
tp95
Rp96
ag10
(g14
S'\x94k\xbfd4z3@'
p97
tp98
Rp99
ag10
(g14
S'\x00\x82 \xd5zo4@'
p100
tp101
Rp102
ag10
(g14
S'\x80\x19\x04\x0f^\xe62@'
p103
tp104
Rp105
ag10
(g14
S'0v4nWc4@'
p106
tp107
Rp108
ag10
(g14
S'\xe4\xb2p\xcds\x004@'
p109
tp110
Rp111
ag10
(g14
S'\x04\x06\xd1C\x1em2@'
p112
tp113
Rp114
ag10
(g14
S'SnE\x85\x1c\x8b2@'
p115
tp116
Rp117
ag10
(g14
S'\xf0\x9e\xb5\xf6\x1d\x882@'
p118
tp119
Rp120
ag10
(g14
S'6p\xeb;\xe7\x143@'
p121
tp122
Rp123
ag10
(g14
S'\xb2\xd0\xb9\x0c\x93o3@'
p124
tp125
Rp126
ag10
(g14
S'(\x10\x15\xba\xa3G4@'
p127
tp128
Rp129
ag10
(g14
S'.\xf2\x01U\xd0k3@'
p130
tp131
Rp132
ag10
(g14
S'\xfd$\xbb\xab}.4@'
p133
tp134
Rp135
ag10
(g14
S'T\xf4\x86K\xcf\xe74@'
p136
tp137
Rp138
asssss.