(dp0
S'../Data/sqlite_82.csv'
p1
(dp2
S'../Data/sqlite_94.csv'
p3
(dp4
F0.35
(dp5
S'mmre'
p6
(dp7
S'bellwether'
p8
(lp9
cnumpy.core.multiarray
scalar
p10
(cnumpy
dtype
p11
(S'f8'
p12
I0
I1
tp13
Rp14
(I3
S'<'
p15
NNNI-1
I-1
I0
tp16
bS'y\x1b\x8f\x08Q;U@'
p17
tp18
Rp19
ag10
(g14
S'\xbdq\xb0L\x85GU@'
p20
tp21
Rp22
ag10
(g14
S'}\xd3\xc9\xd2\xaaLU@'
p23
tp24
Rp25
ag10
(g14
S'\xf6\xc8\xa9A\xc4CU@'
p26
tp27
Rp28
ag10
(g14
S'\xf4x\n\xb6\xacGU@'
p29
tp30
Rp31
ag10
(g14
S'\xd8\x8a\x9f\xe3\xc1IU@'
p32
tp33
Rp34
ag10
(g14
S'"\xff:f\xca@U@'
p35
tp36
Rp37
ag10
(g14
S'\x88K\x17\xa8\xb2HU@'
p38
tp39
Rp40
ag10
(g14
S'Z\x07\xfb\x94mFU@'
p41
tp42
Rp43
ag10
(g14
S"\t)'\x08\xbeCU@"
p44
tp45
Rp46
ag10
(g14
S'\xd1\x8f\xbcfD4U@'
p47
tp48
Rp49
ag10
(g14
S'\xfb\xb2a\xfa&<U@'
p50
tp51
Rp52
ag10
(g14
S'\x99\x8bO"!CU@'
p53
tp54
Rp55
ag10
(g14
S'%?\x02\xd5ODU@'
p56
tp57
Rp58
ag10
(g14
S'\xa3{\xd1\xd581U@'
p59
tp60
Rp61
ag10
(g14
S'\xd1ToN*AU@'
p62
tp63
Rp64
ag10
(g14
S'*\xbe\xf8\xcb\x17BU@'
p65
tp66
Rp67
ag10
(g14
S'E\x13\xe2&\x17IU@'
p68
tp69
Rp70
ag10
(g14
S"\xf8'd~\x04>U@"
p71
tp72
Rp73
ag10
(g14
S'U\xd6X:q7U@'
p74
tp75
Rp76
asS'target'
p77
(lp78
g10
(g14
S'\xb9%\xdc\x85\xachL@'
p79
tp80
Rp81
ag10
(g14
S'\xd3E8\xbd\x9c\xfbO@'
p82
tp83
Rp84
ag10
(g14
S'li\xfcR\xf8\x9eP@'
p85
tp86
Rp87
ag10
(g14
S'@\x9b\x96\x1b\xaf.O@'
p88
tp89
Rp90
ag10
(g14
S'\x9ac\x15\xe3S\xc1P@'
p91
tp92
Rp93
ag10
(g14
S'Zi\xben<.K@'
p94
tp95
Rp96
ag10
(g14
S'b\xa9\x95U*-S@'
p97
tp98
Rp99
ag10
(g14
S'[\x03\xbb2\xa0\xd7[@'
p100
tp101
Rp102
ag10
(g14
S'\x15\x97\xe9t\x08\xd9I@'
p103
tp104
Rp105
ag10
(g14
S'\xb7\x89\\\xf8\xe8\x08R@'
p106
tp107
Rp108
ag10
(g14
S'&\x88K\xf4\x81\x05T@'
p109
tp110
Rp111
ag10
(g14
S'r\xd0\xd7_f\x07P@'
p112
tp113
Rp114
ag10
(g14
S'\xfa}\xa2\xe0\xb9EW@'
p115
tp116
Rp117
ag10
(g14
S'\x8c[\xaa1fSR@'
p118
tp119
Rp120
ag10
(g14
S'\x92\xb6\xaa\xdc*\xc0V@'
p121
tp122
Rp123
ag10
(g14
S'e\xc2H\xc8Z\x17R@'
p124
tp125
Rp126
ag10
(g14
S'$\x0f\xf6\xe2\xd0\x87R@'
p127
tp128
Rp129
ag10
(g14
S'\xe2I\xdf\x02"0I@'
p130
tp131
Rp132
ag10
(g14
S' \x86h\xe5\xf6\x04M@'
p133
tp134
Rp135
ag10
(g14
S'[\xb66M\x90\x83T@'
p136
tp137
Rp138
asssss.