(dp0
S'../Data/sqlite_22.csv'
p1
(dp2
S'../Data/sqlite_62.csv'
p3
(dp4
F0.1
(dp5
S'mmre'
p6
(dp7
S'bellwether'
p8
(lp9
cnumpy.core.multiarray
scalar
p10
(cnumpy
dtype
p11
(S'f8'
p12
I0
I1
tp13
Rp14
(I3
S'<'
p15
NNNI-1
I-1
I0
tp16
bS'\xde\xf0F4\xc3`U@'
p17
tp18
Rp19
ag10
(g14
S'#fn\xda\xec`U@'
p20
tp21
Rp22
ag10
(g14
S'.\x02?\x97t^U@'
p23
tp24
Rp25
ag10
(g14
S'l\x97\x83\xb8paU@'
p26
tp27
Rp28
ag10
(g14
S'\x88\xc8W\xebm_U@'
p29
tp30
Rp31
ag10
(g14
S'\xdfjY\xc9\taU@'
p32
tp33
Rp34
ag10
(g14
S'\xf0\x1d%%\x8e`U@'
p35
tp36
Rp37
ag10
(g14
S'\xd2<\x0f\xa9\xd6`U@'
p38
tp39
Rp40
ag10
(g14
S'\xeb\xd2\xbc^\xbeaU@'
p41
tp42
Rp43
ag10
(g14
S'\x10\x90\x8eA4aU@'
p44
tp45
Rp46
ag10
(g14
S'\x1bU\xeb;\xc7aU@'
p47
tp48
Rp49
ag10
(g14
S'\x8aV=\x1f\xb9^U@'
p50
tp51
Rp52
ag10
(g14
S'\xcc\xb2\x9e\x83\xce_U@'
p53
tp54
Rp55
ag10
(g14
S'\xc6y^\x82\x1daU@'
p56
tp57
Rp58
ag10
(g14
S'\x00Q\xd2>\xa2`U@'
p59
tp60
Rp61
ag10
(g14
S'\x93u\x84g\xe2`U@'
p62
tp63
Rp64
ag10
(g14
S'1\x1e\xc1\x16\xcd`U@'
p65
tp66
Rp67
ag10
(g14
S'\xd3O\xc4\xf7\xcc`U@'
p68
tp69
Rp70
ag10
(g14
S'\x8bR\x00|\xbd^U@'
p71
tp72
Rp73
ag10
(g14
S'\xc8\xa9{\xe0\xb0_U@'
p74
tp75
Rp76
asS'target'
p77
(lp78
g10
(g14
S'\xae>W\xf6Gm @'
p79
tp80
Rp81
ag10
(g14
S'[C1i\xf5p"@'
p82
tp83
Rp84
ag10
(g14
S'\xea\xecqcC\x9f"@'
p85
tp86
Rp87
ag10
(g14
S'\x07\xffT\x92\xdb\xde @'
p88
tp89
Rp90
ag10
(g14
S'g\xd9}\xf2\xae\xc5#@'
p91
tp92
Rp93
ag10
(g14
S'\x93$\xc7\xf71\xdb @'
p94
tp95
Rp96
ag10
(g14
S',\x17\x8cx\x90$ @'
p97
tp98
Rp99
ag10
(g14
S';\x9a!8rP!@'
p100
tp101
Rp102
ag10
(g14
S'\x91]*\xb1\xd9\x0f @'
p103
tp104
Rp105
ag10
(g14
S'_\xf2\xc2\xa3\xadZ"@'
p106
tp107
Rp108
ag10
(g14
S'`<F\xff\xff2 @'
p109
tp110
Rp111
ag10
(g14
S'\xf7;\xa2v\x14f#@'
p112
tp113
Rp114
ag10
(g14
S'\xd7\x02\xcc\xcffB"@'
p115
tp116
Rp117
ag10
(g14
S'\x9b\xa7c#\x1e\xb9!@'
p118
tp119
Rp120
ag10
(g14
S'\\*l$\xbd\xed#@'
p121
tp122
Rp123
ag10
(g14
S'!\xd3\xa6\xbe[\x8a!@'
p124
tp125
Rp126
ag10
(g14
S'{\x87r\x8c\xb4%"@'
p127
tp128
Rp129
ag10
(g14
S'\x03;\x15\x0f\xd3\x16 @'
p130
tp131
Rp132
ag10
(g14
S'\\D\x18{\xf0\xf8"@'
p133
tp134
Rp135
ag10
(g14
S'\x91\xaa\xfek\xb0["@'
p136
tp137
Rp138
asssss.