(dp0
S'../Data/sqlite_86.csv'
p1
(dp2
S'../Data/sqlite_63.csv'
p3
(dp4
F0.4
(dp5
S'mmre'
p6
(dp7
S'bellwether'
p8
(lp9
cnumpy.core.multiarray
scalar
p10
(cnumpy
dtype
p11
(S'f8'
p12
I0
I1
tp13
Rp14
(I3
S'<'
p15
NNNI-1
I-1
I0
tp16
bS'\xafO\xb6\xc1\xb7YT@'
p17
tp18
Rp19
ag10
(g14
S'\x90\xa4%\x91\x1bVT@'
p20
tp21
Rp22
ag10
(g14
S'\x99Q|lOzT@'
p23
tp24
Rp25
ag10
(g14
S'\xf4\xf5m\x9c\x04\\T@'
p26
tp27
Rp28
ag10
(g14
S'^\x84\x1e\x80`4T@'
p29
tp30
Rp31
ag10
(g14
S'\x94\xd3\xb8\xba\xaedT@'
p32
tp33
Rp34
ag10
(g14
S'\x1bkXK\xeaTT@'
p35
tp36
Rp37
ag10
(g14
S'\xc1&\xf6\x15czT@'
p38
tp39
Rp40
ag10
(g14
S'\x9a\xccn\x8f\x89rT@'
p41
tp42
Rp43
ag10
(g14
S'\xfb\x9a\xfaxPfT@'
p44
tp45
Rp46
ag10
(g14
S'\xeb\x91\xad \xfd\x88T@'
p47
tp48
Rp49
ag10
(g14
S'\xf3t`\xe7\x85PT@'
p50
tp51
Rp52
ag10
(g14
S'\xbb\xabN@URT@'
p53
tp54
Rp55
ag10
(g14
S'\x0ba\xcbR]pT@'
p56
tp57
Rp58
ag10
(g14
S'C\x86yH\xe1cT@'
p59
tp60
Rp61
ag10
(g14
S'\xd8\xd4jP\xe5XT@'
p62
tp63
Rp64
ag10
(g14
S'nh\xdeVOcT@'
p65
tp66
Rp67
ag10
(g14
S'\xd3\xf65O\xe8kT@'
p68
tp69
Rp70
ag10
(g14
S'\xb9!=\x96Z\x80T@'
p71
tp72
Rp73
ag10
(g14
S'M\xa3\x85\x12\xdc\x85T@'
p74
tp75
Rp76
asS'target'
p77
(lp78
g10
(g14
S'\xc3}8\x19&:"@'
p79
tp80
Rp81
ag10
(g14
S'`"\xdd\xb0^:#@'
p82
tp83
Rp84
ag10
(g14
S'\xda\xdf\x83\xcf$C!@'
p85
tp86
Rp87
ag10
(g14
S'b\x1bD\xfc\xfb\x9e"@'
p88
tp89
Rp90
ag10
(g14
S'\xc0\x0f\xe7N\xf7\xa4"@'
p91
tp92
Rp93
ag10
(g14
S'\xf7\xbc\x8e3\x86\xc0"@'
p94
tp95
Rp96
ag10
(g14
S'\xcf\xa3\xf5)x\x03#@'
p97
tp98
Rp99
ag10
(g14
S'\xf4!\xbc\xc7,w"@'
p100
tp101
Rp102
ag10
(g14
S'\x08Ua\r\xf3 "@'
p103
tp104
Rp105
ag10
(g14
S'\x03\x0f\xda\xd1$p"@'
p106
tp107
Rp108
ag10
(g14
S'B\xac\xec\x87\x15-"@'
p109
tp110
Rp111
ag10
(g14
S'\xc0k\xbbm\xb2y"@'
p112
tp113
Rp114
ag10
(g14
S'`\xe9\xb1\xa4\xe9\xfc!@'
p115
tp116
Rp117
ag10
(g14
S'\x99\x06\xde]\x06\x08#@'
p118
tp119
Rp120
ag10
(g14
S'\xad\xef\xa3c\xfb0$@'
p121
tp122
Rp123
ag10
(g14
S'%\x8d\x94\x1e\xde(#@'
p124
tp125
Rp126
ag10
(g14
S'\xd9M \x8d\x14\xa4"@'
p127
tp128
Rp129
ag10
(g14
S'xE\xe4O\xb6&#@'
p130
tp131
Rp132
ag10
(g14
S'`I9m\xf9H"@'
p133
tp134
Rp135
ag10
(g14
S'}\xe6\x92\xf2$\xc1"@'
p136
tp137
Rp138
asssss.