(dp0
S'../Data/sqlite_69.csv'
p1
(dp2
S'../Data/sqlite_63.csv'
p3
(dp4
F0.2
(dp5
S'mmre'
p6
(dp7
S'bellwether'
p8
(lp9
cnumpy.core.multiarray
scalar
p10
(cnumpy
dtype
p11
(S'f8'
p12
I0
I1
tp13
Rp14
(I3
S'<'
p15
NNNI-1
I-1
I0
tp16
bS'\xd2\xfa5\xc0\xfdjm@'
p17
tp18
Rp19
ag10
(g14
S'\xeb6\xf2*p\x81m@'
p20
tp21
Rp22
ag10
(g14
S'\xa4\xec_\x0f\xeaam@'
p23
tp24
Rp25
ag10
(g14
S'XK\xfa\xab{}m@'
p26
tp27
Rp28
ag10
(g14
S'71\x91\xdb\tmm@'
p29
tp30
Rp31
ag10
(g14
S'(_aXwhm@'
p32
tp33
Rp34
ag10
(g14
S'\x7ft="\x90mm@'
p35
tp36
Rp37
ag10
(g14
S'\xa6\x83\xc0k\xaetm@'
p38
tp39
Rp40
ag10
(g14
S'\xf9\x95\xdc\xf3\xfcnm@'
p41
tp42
Rp43
ag10
(g14
S'\xec4s^;km@'
p44
tp45
Rp46
ag10
(g14
S'\xf8f\x92\x1d\xf5gm@'
p47
tp48
Rp49
ag10
(g14
S'\xfcF\xd9~-\x80m@'
p50
tp51
Rp52
ag10
(g14
S'\xda\xde\x0b+\xaa}m@'
p53
tp54
Rp55
ag10
(g14
S'>.Gt{qm@'
p56
tp57
Rp58
ag10
(g14
S'/@\xde\xbcotm@'
p59
tp60
Rp61
ag10
(g14
S'\xa04<\xbf\xcfnm@'
p62
tp63
Rp64
ag10
(g14
S'}\xe5\x08&\xf7dm@'
p65
tp66
Rp67
ag10
(g14
S'\x98\xd7~X\xa3zm@'
p68
tp69
Rp70
ag10
(g14
S'\rw\x0c\x8c?~m@'
p71
tp72
Rp73
ag10
(g14
S'\xfcn\x00J\xeftm@'
p74
tp75
Rp76
asS'target'
p77
(lp78
g10
(g14
S'\xf4t\xa0\xe1\x18\xa4"@'
p79
tp80
Rp81
ag10
(g14
S'}\x85\xf6e\x14\x9b!@'
p82
tp83
Rp84
ag10
(g14
S'4\xe4"\x1b=n!@'
p85
tp86
Rp87
ag10
(g14
S'\xaa\ts(\x00\x06"@'
p88
tp89
Rp90
ag10
(g14
S'\x8d\x8d>\x05G\xd1 @'
p91
tp92
Rp93
ag10
(g14
S'\x16\xc0mS\xb9\xd2!@'
p94
tp95
Rp96
ag10
(g14
S'\xc0n\x86v\xf2\xce!@'
p97
tp98
Rp99
ag10
(g14
S'\xe8\x7fp\xceti"@'
p100
tp101
Rp102
ag10
(g14
S'G\x8b\xa4\xaf\x1by$@'
p103
tp104
Rp105
ag10
(g14
S'=|C\x1b\xe6%#@'
p106
tp107
Rp108
ag10
(g14
S'\xa0)X\x9d$\xfa"@'
p109
tp110
Rp111
ag10
(g14
S'\x1d\xee5\xf7\xa9Y"@'
p112
tp113
Rp114
ag10
(g14
S'\xc6\xf1R\xb6r(#@'
p115
tp116
Rp117
ag10
(g14
S' ;Q\x1c\xd5\xfe"@'
p118
tp119
Rp120
ag10
(g14
S'\xaf\xcc\x8b\x84\xc0\x14"@'
p121
tp122
Rp123
ag10
(g14
S'{3\x0b\xd9\xdd\x9a"@'
p124
tp125
Rp126
ag10
(g14
S'\x90$\x86\xb4IT!@'
p127
tp128
Rp129
ag10
(g14
S'(\x87\x84\xfcr\xa1"@'
p130
tp131
Rp132
ag10
(g14
S'^\x98\xdf^E\xdd!@'
p133
tp134
Rp135
ag10
(g14
S'\xdd\x1c\x06l)\\"@'
p136
tp137
Rp138
asssss.