(dp0
S'../Data/sqlite_77.csv'
p1
(dp2
S'../Data/sqlite_89.csv'
p3
(dp4
F0.05
(dp5
S'mmre'
p6
(dp7
S'bellwether'
p8
(lp9
cnumpy.core.multiarray
scalar
p10
(cnumpy
dtype
p11
(S'f8'
p12
I0
I1
tp13
Rp14
(I3
S'<'
p15
NNNI-1
I-1
I0
tp16
bS'\xd4R\xef\xf9\xefA_@'
p17
tp18
Rp19
ag10
(g14
S'\xf2\x8c\x95\x17\xa0G_@'
p20
tp21
Rp22
ag10
(g14
S'\xe9\xf8\x88\xf1\x8b7_@'
p23
tp24
Rp25
ag10
(g14
S'\x0f\xac\xc0\x12\xd2R_@'
p26
tp27
Rp28
ag10
(g14
S'\x16\x01\xaa7\xe3E_@'
p29
tp30
Rp31
ag10
(g14
S':\x83QK\xc4\x1d_@'
p32
tp33
Rp34
ag10
(g14
S'\x06\xe8`_\xb3\x12_@'
p35
tp36
Rp37
ag10
(g14
S'1_(\xc3\xa7\x06_@'
p38
tp39
Rp40
ag10
(g14
S'3V\xe6\xdc[C_@'
p41
tp42
Rp43
ag10
(g14
S'\xed\xed\xefJ\xaaF_@'
p44
tp45
Rp46
ag10
(g14
S'8\xf3\xbc\xc7a\xdc^@'
p47
tp48
Rp49
ag10
(g14
S'k\x1d*HB\x03_@'
p50
tp51
Rp52
ag10
(g14
S'L\xdb\xf62U,_@'
p53
tp54
Rp55
ag10
(g14
S'\x937\x9eI\xc49_@'
p56
tp57
Rp58
ag10
(g14
S'l\x82\xc7\x9e\x88=_@'
p59
tp60
Rp61
ag10
(g14
S'\x91=\xdfs*S_@'
p62
tp63
Rp64
ag10
(g14
S'\xb4\x08\x1d6P\xab_@'
p65
tp66
Rp67
ag10
(g14
S'h\xbf\x0b\n\x8fz_@'
p68
tp69
Rp70
ag10
(g14
S'Uo\xd1.\xb1\x02_@'
p71
tp72
Rp73
ag10
(g14
S'aO\nAh\x07_@'
p74
tp75
Rp76
asS'target'
p77
(lp78
g10
(g14
S'\x10J7}7iP@'
p79
tp80
Rp81
ag10
(g14
S'\xaa\xb8\x8b`\x1b\xeeW@'
p82
tp83
Rp84
ag10
(g14
S'\x1c1D^v\xc8F@'
p85
tp86
Rp87
ag10
(g14
S'1\xe7sA\xadYW@'
p88
tp89
Rp90
ag10
(g14
S'(I\xef\xc8@\x9fD@'
p91
tp92
Rp93
ag10
(g14
S'\xaa\xbf\xb7\x1e&\xe0P@'
p94
tp95
Rp96
ag10
(g14
S'=\xd0\xd1\xfe\xbb\xcdC@'
p97
tp98
Rp99
ag10
(g14
S'QO\x9a\x04\x04\xc3W@'
p100
tp101
Rp102
ag10
(g14
S'v\xfdS \x98\xeeQ@'
p103
tp104
Rp105
ag10
(g14
S'\xd5\\\xdaZ|BV@'
p106
tp107
Rp108
ag10
(g14
S'\xc8\xcd\xf4\xa5;\xbfA@'
p109
tp110
Rp111
ag10
(g14
S'\xa5\x85\xeeJ[\x16\\@'
p112
tp113
Rp114
ag10
(g14
S'\xcf\xf0/cy S@'
p115
tp116
Rp117
ag10
(g14
S'-z\x8bS\x1c\x88W@'
p118
tp119
Rp120
ag10
(g14
S'\xb8)\xc3S\xdeER@'
p121
tp122
Rp123
ag10
(g14
S'\x11@)j\xf4\x85_@'
p124
tp125
Rp126
ag10
(g14
S'\x9f\x03\xae\x97adZ@'
p127
tp128
Rp129
ag10
(g14
S'\xc9L\xc1{\xb9\x0fT@'
p130
tp131
Rp132
ag10
(g14
S"\x83\xfa\x0b*}'C@"
p133
tp134
Rp135
ag10
(g14
S'\x1e$Y!H\xd9H@'
p136
tp137
Rp138
asssss.