(dp0
S'../Data/sqlite_16.csv'
p1
(dp2
S'../Data/sqlite_96.csv'
p3
(dp4
F0.4
(dp5
S'mmre'
p6
(dp7
S'bellwether'
p8
(lp9
cnumpy.core.multiarray
scalar
p10
(cnumpy
dtype
p11
(S'f8'
p12
I0
I1
tp13
Rp14
(I3
S'<'
p15
NNNI-1
I-1
I0
tp16
bS'>\xb4f\x04!OW@'
p17
tp18
Rp19
ag10
(g14
S'\x84\xac\xfe\x9c\xf2AW@'
p20
tp21
Rp22
ag10
(g14
S'\xb8\x08z\xa0\xa8PW@'
p23
tp24
Rp25
ag10
(g14
S'y\xc8\xc7\xca\x03KW@'
p26
tp27
Rp28
ag10
(g14
S'\xa8\x8d\x13\xda;IW@'
p29
tp30
Rp31
ag10
(g14
S'Q\x0e\xe1\xaf\xe8JW@'
p32
tp33
Rp34
ag10
(g14
S'\x83R0\x04\xa5KW@'
p35
tp36
Rp37
ag10
(g14
S'."#\xad\xe0KW@'
p38
tp39
Rp40
ag10
(g14
S'/\xe9\xadi\xaeJW@'
p41
tp42
Rp43
ag10
(g14
S'P\x9et\xecXPW@'
p44
tp45
Rp46
ag10
(g14
S'\xba\x82\xb2l\xbcNW@'
p47
tp48
Rp49
ag10
(g14
S'\x18\xc6At\xc6HW@'
p50
tp51
Rp52
ag10
(g14
S'B*q\x8cmMW@'
p53
tp54
Rp55
ag10
(g14
S'hK\xadh\xb6OW@'
p56
tp57
Rp58
ag10
(g14
S'(\xed\xca9\x9cLW@'
p59
tp60
Rp61
ag10
(g14
S's\xd2\xa4\x11\xfbMW@'
p62
tp63
Rp64
ag10
(g14
S':\xe4uq>MW@'
p65
tp66
Rp67
ag10
(g14
S'\xb6\x86\x8e\xe39IW@'
p68
tp69
Rp70
ag10
(g14
S'D\x1d\xc9\x9f\x0cFW@'
p71
tp72
Rp73
ag10
(g14
S'`\xddL\xad!LW@'
p74
tp75
Rp76
asS'target'
p77
(lp78
g10
(g14
S'\xdcK\x99\x94\xca\xcaK@'
p79
tp80
Rp81
ag10
(g14
S'\xe8\xa3\xd5\xd8\x87!X@'
p82
tp83
Rp84
ag10
(g14
S'\xd9|8\xc5XcP@'
p85
tp86
Rp87
ag10
(g14
S'w\xe0D\xb8\x1a\x00N@'
p88
tp89
Rp90
ag10
(g14
S'\x81\xe9\x83\xearXT@'
p91
tp92
Rp93
ag10
(g14
S'\xa2\xaf\xad0\xf5eQ@'
p94
tp95
Rp96
ag10
(g14
S'\x1a\x83\t\xe2\x01\xa9W@'
p97
tp98
Rp99
ag10
(g14
S'=\x873C\x9a\xf6V@'
p100
tp101
Rp102
ag10
(g14
S'\xec\x8cML\x94sR@'
p103
tp104
Rp105
ag10
(g14
S'\xa1\xc41$\xbd\x02T@'
p106
tp107
Rp108
ag10
(g14
S'|\x9f;:\xce*V@'
p109
tp110
Rp111
ag10
(g14
S'm\xa2\x8e\x9d\xb5\x00U@'
p112
tp113
Rp114
ag10
(g14
S'L=\xb2jVGS@'
p115
tp116
Rp117
ag10
(g14
S'\xee\xea\x1eu QR@'
p118
tp119
Rp120
ag10
(g14
S'\xf4`#\x08\xb1\xbeR@'
p121
tp122
Rp123
ag10
(g14
S'8%\xb2\xac\x15\xf8O@'
p124
tp125
Rp126
ag10
(g14
S'\xe4\xefsdP\xa8Q@'
p127
tp128
Rp129
ag10
(g14
S'\x81?\x9a\x16\xb2\x02V@'
p130
tp131
Rp132
ag10
(g14
S'\x8d\x9f<\x1f}NS@'
p133
tp134
Rp135
ag10
(g14
S'b\x9aPTd\x86[@'
p136
tp137
Rp138
asssss.