(dp0
S'../Data/sqlite_91.csv'
p1
(dp2
S'../Data/sqlite_42.csv'
p3
(dp4
F0.15
(dp5
S'abs_res'
p6
(dp7
S'bellwether'
p8
(lp9
cnumpy.core.multiarray
scalar
p10
(cnumpy
dtype
p11
(S'f8'
p12
I0
I1
tp13
Rp14
(I3
S'<'
p15
NNNI-1
I-1
I0
tp16
bS'\xea|?u\xd5`%A'
p17
tp18
Rp19
ag10
(g14
S'\xdb$\x06Aq<%A'
p20
tp21
Rp22
ag10
(g14
S'M\x9aR\xf1\xd0P%A'
p23
tp24
Rp25
ag10
(g14
S'\x1c/\xdd\xa4\x14M%A'
p26
tp27
Rp28
ag10
(g14
S'P\xe3\xa5[\x12_%A'
p29
tp30
Rp31
ag10
(g14
S'\xfc\xb8\xd7\\\xedD%A'
p32
tp33
Rp34
ag10
(g14
S'y#\x94\x11\xead%A'
p35
tp36
Rp37
ag10
(g14
S'\xf1\x0c\xbb\xc2\xc3D%A'
p38
tp39
Rp40
ag10
(g14
S'\x15\x92\xa6\x14\xbc@%A'
p41
tp42
Rp43
ag10
(g14
S'\xaf\xf3\xfd\x14\xb7`%A'
p44
tp45
Rp46
ag10
(g14
S'8^\xbaIwM%A'
p47
tp48
Rp49
ag10
(g14
S'\xa3\xaa\xaaj_L%A'
p50
tp51
Rp52
ag10
(g14
S'A\n\xd7c\xa2r%A'
p53
tp54
Rp55
ag10
(g14
S'\xde\x08et%L%A'
p56
tp57
Rp58
ag10
(g14
S'\x84\x16\xd9\x0e\xabG%A'
p59
tp60
Rp61
ag10
(g14
S'\xc6\xca\xa1E\xc0c%A'
p62
tp63
Rp64
ag10
(g14
S'\xaa\xc6K\xf7\xe7V%A'
p65
tp66
Rp67
ag10
(g14
S'&\xb0r\xa8\x15S%A'
p68
tp69
Rp70
ag10
(g14
S'\x9b}\xf8\x0cRb%A'
p71
tp72
Rp73
ag10
(g14
S'\x9a\xef\xa7F\xceR%A'
p74
tp75
Rp76
asS'target'
p77
(lp78
g10
(g14
S'\x95n\x12\x83\xc0\xeee@'
p79
tp80
Rp81
ag10
(g14
S'\xcc\xcc\xcc\xcc\xcc(j@'
p82
tp83
Rp84
ag10
(g14
S'\xac\xf1\xd2Mb\x0ch@'
p85
tp86
Rp87
ag10
(g14
S'53333\xbfi@'
p88
tp89
Rp90
ag10
(g14
S'F5^\xbaI\xc0i@'
p91
tp92
Rp93
ag10
(g14
S'\x93A`\xe5\xd0\xf4i@'
p94
tp95
Rp96
ag10
(g14
S'=\n\xd7\xa3p]l@'
p97
tp98
Rp99
ag10
(g14
S'5\x87\x16\xd9\xcesh@'
p100
tp101
Rp102
ag10
(g14
S'G\x0c\x02+\x87\xf6k@'
p103
tp104
Rp105
ag10
(g14
S'\xd5x\xe9&1<i@'
p106
tp107
Rp108
ag10
(g14
S'v\x14\xaeG\xe1\x06i@'
p109
tp110
Rp111
ag10
(g14
S'S7\x89A`\xebh@'
p112
tp113
Rp114
ag10
(g14
S'\x1f\xb0rh\x91\xf5j@'
p115
tp116
Rp117
ag10
(g14
S'\xcb\xa1E\xb6\xf3Eg@'
p118
tp119
Rp120
ag10
(g14
S'N7\x89A`\xd5h@'
p121
tp122
Rp123
ag10
(g14
S'\xc7\xf5(\\\x8f\xd6g@'
p124
tp125
Rp126
ag10
(g14
S'\x98\x9b\xc4 \xb0^h@'
p127
tp128
Rp129
ag10
(g14
S't\xbe\x9f\x1a/Ah@'
p130
tp131
Rp132
ag10
(g14
S'\xcb \xb0rhKh@'
p133
tp134
Rp135
ag10
(g14
S'kffffLk@'
p136
tp137
Rp138
asssss.