(dp0
S'../Data/sqlite_19.csv'
p1
(dp2
S'../Data/sqlite_91.csv'
p3
(dp4
F0.35
(dp5
S'mmre'
p6
(dp7
S'bellwether'
p8
(lp9
cnumpy.core.multiarray
scalar
p10
(cnumpy
dtype
p11
(S'f8'
p12
I0
I1
tp13
Rp14
(I3
S'<'
p15
NNNI-1
I-1
I0
tp16
bS'\xe0\xab\xa0\xb7\xe5^X@'
p17
tp18
Rp19
ag10
(g14
S'\xf1\x8e$"\xcbiX@'
p20
tp21
Rp22
ag10
(g14
S'J\xd0!\x12\x90]X@'
p23
tp24
Rp25
ag10
(g14
S'\x82F\xd4y\x97PX@'
p26
tp27
Rp28
ag10
(g14
S'\x16\x98f\xbf$cX@'
p29
tp30
Rp31
ag10
(g14
S'G\xedGL\x15cX@'
p32
tp33
Rp34
ag10
(g14
S'\xd6\xf9\x97\x80\xe6aX@'
p35
tp36
Rp37
ag10
(g14
S'er\xeb/ gX@'
p38
tp39
Rp40
ag10
(g14
S'Y\xcc&\xc0\x85`X@'
p41
tp42
Rp43
ag10
(g14
S'\xc0\x1b\xb5\x17\xa0[X@'
p44
tp45
Rp46
ag10
(g14
S'\x02\x811{OTX@'
p47
tp48
Rp49
ag10
(g14
S'\xa3C\x10&\x8acX@'
p50
tp51
Rp52
ag10
(g14
S'\xd1\x11\x87\x87\xb7]X@'
p53
tp54
Rp55
ag10
(g14
S'\xa8\x1e\xf3\x10\xdddX@'
p56
tp57
Rp58
ag10
(g14
S'\x87+\xbb\x9d\xc0gX@'
p59
tp60
Rp61
ag10
(g14
S'\xc0rl\xd9\xbdgX@'
p62
tp63
Rp64
ag10
(g14
S'-W\x95\xb7 cX@'
p65
tp66
Rp67
ag10
(g14
S'x\xae=6bWX@'
p68
tp69
Rp70
ag10
(g14
S'\xc0\x15\xf4\xcd\xffVX@'
p71
tp72
Rp73
ag10
(g14
S'\xd2R@z\xca^X@'
p74
tp75
Rp76
asS'target'
p77
(lp78
g10
(g14
S'8\xc6}\xed\x1d(L@'
p79
tp80
Rp81
ag10
(g14
S'Y\xf7t;\xdc\xd9J@'
p82
tp83
Rp84
ag10
(g14
S'\xa7<}\xeb\x96\xd9P@'
p85
tp86
Rp87
ag10
(g14
S'\x92\xcfvae\x90T@'
p88
tp89
Rp90
ag10
(g14
S'\x9eza\xee\xb6\xadL@'
p91
tp92
Rp93
ag10
(g14
S'\xe7w\x94\x10 \x9cK@'
p94
tp95
Rp96
ag10
(g14
S'\x85\n\xa4\xdcM\xd4P@'
p97
tp98
Rp99
ag10
(g14
S'?\xc6\x92\xc7\x926N@'
p100
tp101
Rp102
ag10
(g14
S'\xd1#\x8eL\xe0\xd8N@'
p103
tp104
Rp105
ag10
(g14
S'\x81O\x0c\x18D/P@'
p106
tp107
Rp108
ag10
(g14
S'>KX\x9f\x87\x8dR@'
p109
tp110
Rp111
ag10
(g14
S'%\xc7\x11\xe5i\xedL@'
p112
tp113
Rp114
ag10
(g14
S'\xcf0>[\x83,P@'
p115
tp116
Rp117
ag10
(g14
S'\xbc\xa3]b\xaazH@'
p118
tp119
Rp120
ag10
(g14
S'\x85[\x8c%\x97\x99K@'
p121
tp122
Rp123
ag10
(g14
S'\x1cW}0\x10|M@'
p124
tp125
Rp126
ag10
(g14
S'{\x91\xa2\x8b`\xe0O@'
p127
tp128
Rp129
ag10
(g14
S'\xad\xefa@0|R@'
p130
tp131
Rp132
ag10
(g14
S'2Q\x81i\xa6\x1dQ@'
p133
tp134
Rp135
ag10
(g14
S'\xac\x02\t\x83&\x05Q@'
p136
tp137
Rp138
asssss.