(dp0
S'../Data/sqlite_54.csv'
p1
(dp2
S'../Data/sqlite_85.csv'
p3
(dp4
F0.15
(dp5
S'abs_res'
p6
(dp7
S'bellwether'
p8
(lp9
cnumpy.core.multiarray
scalar
p10
(cnumpy
dtype
p11
(S'f8'
p12
I0
I1
tp13
Rp14
(I3
S'<'
p15
NNNI-1
I-1
I0
tp16
bS'\x0fX9\xb0O%WA'
p17
tp18
Rp19
ag10
(g14
S'k\xe7\xfb\xbd\x86:WA'
p20
tp21
Rp22
ag10
(g14
S'5\xfd\x1b\xbd\xe2PWA'
p23
tp24
Rp25
ag10
(g14
S'affr\x1aKWA'
p26
tp27
Rp28
ag10
(g14
S'\xffU\x0e=\xbe@WA'
p29
tp30
Rp31
ag10
(g14
S'\xc0X\xf2\xebP<WA'
p32
tp33
Rp34
ag10
(g14
S'\x8d\xde\x96\x99a[WA'
p35
tp36
Rp37
ag10
(g14
S'\xca\xe8m}\xf50WA'
p38
tp39
Rp40
ag10
(g14
S'\\9\xb4\xe8WQWA'
p41
tp42
Rp43
ag10
(g14
S"'\x06\x81\xa9\x14!WA"
p44
tp45
Rp46
ag10
(g14
S'e\xe7\xfb\x9d\x8bJWA'
p47
tp48
Rp49
ag10
(g14
S'\x99E\xb6CI#WA'
p50
tp51
Rp52
ag10
(g14
S'\xad\x0f\x9f\xb9\xdeMWA'
p53
tp54
Rp55
ag10
(g14
S'\xbb\xf5(|8\x88WA'
p56
tp57
Rp58
ag10
(g14
S's\x14\xae3I1WA'
p59
tp60
Rp61
ag10
(g14
S'@\xd2\x94\xc2\xf9\xf7VA'
p62
tp63
Rp64
ag10
(g14
S'=\xa7\r\x98QJWA'
p65
tp66
Rp67
ag10
(g14
S'\xce@\xa7u\xe6mWA'
p68
tp69
Rp70
ag10
(g14
S'\xce\xa3p\x11\xa4=WA'
p71
tp72
Rp73
ag10
(g14
S'e=\n;\xfcBWA'
p74
tp75
Rp76
asS'target'
p77
(lp78
g10
(g14
S'7\n\xd7cjt>A'
p79
tp80
Rp81
ag10
(g14
S'|\x14\xae\x87\xc9\xe6BA'
p82
tp83
Rp84
ag10
(g14
S'\x01\x00\x00\x80\x87e?A'
p85
tp86
Rp87
ag10
(g14
S'\xa5p=\xca\xc0\x1fAA'
p88
tp89
Rp90
ag10
(g14
S'\x8b\xebQxw\x8aAA'
p91
tp92
Rp93
ag10
(g14
S'O\xb8\x1e\xa5\r\xe0@A'
p94
tp95
Rp96
ag10
(g14
S'a\x8f\xc2\x951\x89@A'
p97
tp98
Rp99
ag10
(g14
S'\xc6\xcc\xccL\xd7\x96AA'
p100
tp101
Rp102
ag10
(g14
S'\xe0z\x14\xce\x8f\x03CA'
p103
tp104
Rp105
ag10
(g14
S'I\xe1z\xb4`^@A'
p106
tp107
Rp108
ag10
(g14
S'S\xb8\x1e\x85 \x97@A'
p109
tp110
Rp111
ag10
(g14
S'F\xe1z\x14\n\x83AA'
p112
tp113
Rp114
ag10
(g14
S'\xbc\xf5(\\\xad\xffAA'
p115
tp116
Rp117
ag10
(g14
S'+\\\x8f\xc2\x17\x92DA'
p118
tp119
Rp120
ag10
(g14
S'\xeaQ\xb8\xbe\xf9SCA'
p121
tp122
Rp123
ag10
(g14
S'v=\n7\xa1\x11CA'
p124
tp125
Rp126
ag10
(g14
S'\xfb\xff\xff\x7fA\xb6@A'
p127
tp128
Rp129
ag10
(g14
S'\x93\xc2\xf5\xa80\tCA'
p130
tp131
Rp132
ag10
(g14
S'\xadp=\xcaaLCA'
p133
tp134
Rp135
ag10
(g14
S'\xadG\xe1\xba5pBA'
p136
tp137
Rp138
asssss.