(dp0
S'../Data/sqlite_32.csv'
p1
(dp2
S'../Data/sqlite_36.csv'
p3
(dp4
F0.2
(dp5
S'abs_res'
p6
(dp7
S'bellwether'
p8
(lp9
cnumpy.core.multiarray
scalar
p10
(cnumpy
dtype
p11
(S'f8'
p12
I0
I1
tp13
Rp14
(I3
S'<'
p15
NNNI-1
I-1
I0
tp16
bS'\xb9I\x0cB\x1e}BA'
p17
tp18
Rp19
ag10
(g14
S',\x08\xac\xcc)~BA'
p20
tp21
Rp22
ag10
(g14
S'\x9a\xc4 p\xa4zBA'
p23
tp24
Rp25
ag10
(g14
S'P\xbaIl\r}BA'
p26
tp27
Rp28
ag10
(g14
S'\xcb"\xdb9\xe0|BA'
p29
tp30
Rp31
ag10
(g14
S'.\xb2\x9d\xefz}BA'
p32
tp33
Rp34
ag10
(g14
S'\xdcz\x14\xfe\xba}BA'
p35
tp36
Rp37
ag10
(g14
S'\x1e\x06\x815^{BA'
p38
tp39
Rp40
ag10
(g14
S'\xf4~j<1~BA'
p41
tp42
Rp43
ag10
(g14
S'9\x89A@\xfczBA'
p44
tp45
Rp46
ag10
(g14
S'\xb5\xc8vNQ}BA'
p47
tp48
Rp49
ag10
(g14
S'\x07\xac\x1c\xca\xe7}BA'
p50
tp51
Rp52
ag10
(g14
S'Y9\xb4\xa8\xeb|BA'
p53
tp54
Rp55
ag10
(g14
S'u\x95C\xeb\x84}BA'
p56
tp57
Rp58
ag10
(g14
S'\x8e\x97nB\xc8|BA'
p59
tp60
Rp61
ag10
(g14
S'-\xb2\x9d\x9fGzBA'
p62
tp63
Rp64
ag10
(g14
S'~\xc0\xca\x91\x04{BA'
p65
tp66
Rp67
ag10
(g14
S'\xa2\xc6K\xe7rzBA'
p68
tp69
Rp70
ag10
(g14
S'\nX9\x84\xd6}BA'
p71
tp72
Rp73
ag10
(g14
S'b\x10X\x99\xb5|BA'
p74
tp75
Rp76
asS'target'
p77
(lp78
g10
(g14
S'E\xb6\xf3\xfd\xd4\x00W@'
p79
tp80
Rp81
ag10
(g14
S'\x0b\xac\x1cZd\x8fW@'
p82
tp83
Rp84
ag10
(g14
S'\xfe~j\xbct;W@'
p85
tp86
Rp87
ag10
(g14
S'\xb1\x1e\x85\xebQxU@'
p88
tp89
Rp90
ag10
(g14
S'V\x0e-\xb2\x9d\xbfV@'
p91
tp92
Rp93
ag10
(g14
S'\x93\xebQ\xb8\x1e\xe9W@'
p94
tp95
Rp96
ag10
(g14
S'\xe0\xfb\xa9\xf1\xd2\xcdV@'
p97
tp98
Rp99
ag10
(g14
S'\xe9\xa5\x9b\xc4 PW@'
p100
tp101
Rp102
ag10
(g14
S'\xe4\xa3p=\n\xc7X@'
p103
tp104
Rp105
ag10
(g14
S'\xdfO\x8d\x97n\xbaU@'
p106
tp107
Rp108
ag10
(g14
S'\xc7I\x0c\x02+\x9fW@'
p109
tp110
Rp111
ag10
(g14
S'\x9d\xc4 \xb0r\xf8W@'
p112
tp113
Rp114
ag10
(g14
S'\xa1p=\n\xd7\x8bW@'
p115
tp116
Rp117
ag10
(g14
S'\xb7\xf3\xfd\xd4xQW@'
p118
tp119
Rp120
ag10
(g14
S'\xe5O\x8d\x97nBW@'
p121
tp122
Rp123
ag10
(g14
S'c9\xb4\xc8v\x8eU@'
p124
tp125
Rp126
ag10
(g14
S'e\xe5\xd0"\xdb\xd5W@'
p127
tp128
Rp129
ag10
(g14
S'?\xdfO\x8d\x97\xaeV@'
p130
tp131
Rp132
ag10
(g14
S'\x15X9\xb4\xc8\xd6W@'
p133
tp134
Rp135
ag10
(g14
S'|?5^\xba\xe9V@'
p136
tp137
Rp138
asssss.