(dp0
S'../Data/sqlite_86.csv'
p1
(dp2
S'../Data/sqlite_93.csv'
p3
(dp4
F0.1
(dp5
S'mmre'
p6
(dp7
S'bellwether'
p8
(lp9
cnumpy.core.multiarray
scalar
p10
(cnumpy
dtype
p11
(S'f8'
p12
I0
I1
tp13
Rp14
(I3
S'<'
p15
NNNI-1
I-1
I0
tp16
bS'\x8ay\x9eam\x84[@'
p17
tp18
Rp19
ag10
(g14
S'\xee_C\xf2\xadv[@'
p20
tp21
Rp22
ag10
(g14
S'\xac\xcd\xd6\\\xcdf[@'
p23
tp24
Rp25
ag10
(g14
S'3\xb3\x12\xd1\xcev[@'
p26
tp27
Rp28
ag10
(g14
S'Wi\xe2\x16\xc6\x8d[@'
p29
tp30
Rp31
ag10
(g14
S'\x18=\x15\x05\x01][@'
p32
tp33
Rp34
ag10
(g14
S'(P >xp[@'
p35
tp36
Rp37
ag10
(g14
S')\x84Xj\x88\x89[@'
p38
tp39
Rp40
ag10
(g14
S'n\x97x\x8d@R[@'
p41
tp42
Rp43
ag10
(g14
S'$N\xbdi\x84}[@'
p44
tp45
Rp46
ag10
(g14
S'\x1e5\xc2\x01En[@'
p47
tp48
Rp49
ag10
(g14
S':\xd2{\x8a\x9eO[@'
p50
tp51
Rp52
ag10
(g14
S'\x11]\x83\x0cij[@'
p53
tp54
Rp55
ag10
(g14
S'\x85\x12\x93\xa0O\x83[@'
p56
tp57
Rp58
ag10
(g14
S'\xeb\x11\x07\xf9Xo[@'
p59
tp60
Rp61
ag10
(g14
S'\x069\x95KC\x7f[@'
p62
tp63
Rp64
ag10
(g14
S't\xaa\xcf\xde\x1fl[@'
p65
tp66
Rp67
ag10
(g14
S'\xc9\xa0\r\x19\xa7|[@'
p68
tp69
Rp70
ag10
(g14
S'\x15E\x0b\x17eh[@'
p71
tp72
Rp73
ag10
(g14
S'e\xaa\xb4\xb5R4[@'
p74
tp75
Rp76
asS'target'
p77
(lp78
g10
(g14
S'\xc7jz3\x87\x0eZ@'
p79
tp80
Rp81
ag10
(g14
S'\xbe~\xcb\xd7\xd2\xe2R@'
p82
tp83
Rp84
ag10
(g14
S'MI\x7f>m\xebQ@'
p85
tp86
Rp87
ag10
(g14
S'\xec\xe4\xbf\x04\n\xe9X@'
p88
tp89
Rp90
ag10
(g14
S'_uBe\xbbfP@'
p91
tp92
Rp93
ag10
(g14
S'p\x92sLCuS@'
p94
tp95
Rp96
ag10
(g14
S',B\x01\xe5\xa6\xa0D@'
p97
tp98
Rp99
ag10
(g14
S'u\x99@M\xf0\x8f[@'
p100
tp101
Rp102
ag10
(g14
S'\x19:\xb5\xd0\xff\xd8S@'
p103
tp104
Rp105
ag10
(g14
S'ka\xdbfl\x04P@'
p106
tp107
Rp108
ag10
(g14
S'\xb3\n}E,wW@'
p109
tp110
Rp111
ag10
(g14
S'\x87\xa0;\xf5\\\xc2D@'
p112
tp113
Rp114
ag10
(g14
S'l\xf1\xce_\xa6EM@'
p115
tp116
Rp117
ag10
(g14
S'IN}\xdd\x8c\x13U@'
p118
tp119
Rp120
ag10
(g14
S'\xf9\x1f-\xd9\xe5aC@'
p121
tp122
Rp123
ag10
(g14
S'\x83X\xd25\xb7\xd4Q@'
p124
tp125
Rp126
ag10
(g14
S'|\x87\x9c\xeaD\x87N@'
p127
tp128
Rp129
ag10
(g14
S'\x8ds\xf8\x83\x97\x7fQ@'
p130
tp131
Rp132
ag10
(g14
S'Iq%\xd3\x00\xb8B@'
p133
tp134
Rp135
ag10
(g14
S'\xc0O\xcb=\xfe\x96V@'
p136
tp137
Rp138
asssss.