(dp0
S'../Data/sqlite_57.csv'
p1
(dp2
S'../Data/sqlite_22.csv'
p3
(dp4
F0.1
(dp5
S'abs_res'
p6
(dp7
S'bellwether'
p8
(lp9
cnumpy.core.multiarray
scalar
p10
(cnumpy
dtype
p11
(S'f8'
p12
I0
I1
tp13
Rp14
(I3
S'<'
p15
NNNI-1
I-1
I0
tp16
bS'\x1f\x83\xc06`5jA'
p17
tp18
Rp19
ag10
(g14
S'\x91\xc2\xf5 \xb8/jA'
p20
tp21
Rp22
ag10
(g14
S'\xd3Mb \x0c,jA'
p23
tp24
Rp25
ag10
(g14
S"f;\xdf'z2jA"
p26
tp27
Rp28
ag10
(g14
S'\xb8\xf3\xfd\x88\xba3jA'
p29
tp30
Rp31
ag10
(g14
S'C\n\xd7\xff\xed3jA'
p32
tp33
Rp34
ag10
(g14
S'R7\x89\xb1\xbe1jA'
p35
tp36
Rp37
ag10
(g14
S'\xeaQ\xb8z`6jA'
p38
tp39
Rp40
ag10
(g14
S'q=\n\x07\x83/jA'
p41
tp42
Rp43
ag10
(g14
S'\xc4\xc8v\x06~4jA'
p44
tp45
Rp46
ag10
(g14
S'\x15\x02+\xdb\x9b,jA'
p47
tp48
Rp49
ag10
(g14
S'\xf0|?\xd5\xb54jA'
p50
tp51
Rp52
ag10
(g14
S'\xdax\xe9\x1ah6jA'
p53
tp54
Rp55
ag10
(g14
S'\\\x10X\xf5\xbf-jA'
p56
tp57
Rp58
ag10
(g14
S'i\x8f\xc2iG5jA'
p59
tp60
Rp61
ag10
(g14
S'\x9eE\xb6\xb3::jA'
p62
tp63
Rp64
ag10
(g14
S'\xe7\xa5\x9b \xb62jA'
p65
tp66
Rp67
ag10
(g14
S'G\xdfOa\xa5-jA'
p68
tp69
Rp70
ag10
(g14
S'`\x8f\xc2M\x96*jA'
p71
tp72
Rp73
ag10
(g14
S'\xb7G\xe1\xea\xb94jA'
p74
tp75
Rp76
asS'target'
p77
(lp78
g10
(g14
S'g;\xdfO\x8d\xc7Z@'
p79
tp80
Rp81
ag10
(g14
S'\x9c\xc2\xf5(\\\xcf\\@'
p82
tp83
Rp84
ag10
(g14
S'b\xe5\xd0"\xdb\x19[@'
p85
tp86
Rp87
ag10
(g14
S'\xfeS\xe3\xa5\x9b\xe4Z@'
p88
tp89
Rp90
ag10
(g14
S'^\x91\xed|?\xc5Y@'
p91
tp92
Rp93
ag10
(g14
S'\xba\xf1\xd2MbHX@'
p94
tp95
Rp96
ag10
(g14
S't\xbe\x9f\x1a/\xf5Z@'
p97
tp98
Rp99
ag10
(g14
S'\xa8p=\n\xd7SZ@'
p100
tp101
Rp102
ag10
(g14
S'\xd5\xf9~j\xbc\xb4^@'
p103
tp104
Rp105
ag10
(g14
S'w\x14\xaeG\xe16\\@'
p106
tp107
Rp108
ag10
(g14
S'c\x10X9\xb4x]@'
p109
tp110
Rp111
ag10
(g14
S'\xa9\x9b\xc4 \xb0:]@'
p112
tp113
Rp114
ag10
(g14
S'W\x8f\xc2\xf5(\x04_@'
p115
tp116
Rp117
ag10
(g14
S'\xe3\xd0"\xdb\xf9v^@'
p118
tp119
Rp120
ag10
(g14
S'\x93\xed|?5\xbeW@'
p121
tp122
Rp123
ag10
(g14
S'\x8d\x97n\x12\x83`X@'
p124
tp125
Rp126
ag10
(g14
S'\xc9\xf5(\\\x8f\xaa[@'
p127
tp128
Rp129
ag10
(g14
S'\xbe\x1e\x85\xebQ`Z@'
p130
tp131
Rp132
ag10
(g14
S'\x96\x99\x99\x99\x99\xb1_@'
p133
tp134
Rp135
ag10
(g14
S'{\xe9&1\x08\x0c]@'
p136
tp137
Rp138
asssss.