(dp0
S'../Data/sqlite_30.csv'
p1
(dp2
S'../Data/sqlite_73.csv'
p3
(dp4
F0.3
(dp5
S'mmre'
p6
(dp7
S'bellwether'
p8
(lp9
cnumpy.core.multiarray
scalar
p10
(cnumpy
dtype
p11
(S'f8'
p12
I0
I1
tp13
Rp14
(I3
S'<'
p15
NNNI-1
I-1
I0
tp16
bS'\x10g\xb6\tfHW@'
p17
tp18
Rp19
ag10
(g14
S'\xf7\x02\xeeF\x19HW@'
p20
tp21
Rp22
ag10
(g14
S'\xff\xe0c\x1a<FW@'
p23
tp24
Rp25
ag10
(g14
S'\xa5\xc0\x9d\xb0OHW@'
p26
tp27
Rp28
ag10
(g14
S'|\xdfY\xc2\xf8HW@'
p29
tp30
Rp31
ag10
(g14
S'\x19\x99\xbb~XJW@'
p32
tp33
Rp34
ag10
(g14
S'\xebE\xea\x94\x92HW@'
p35
tp36
Rp37
ag10
(g14
S'\xdc\x92w\x08\x84FW@'
p38
tp39
Rp40
ag10
(g14
S'\x9fCg\xe5\nFW@'
p41
tp42
Rp43
ag10
(g14
S'\x8e\xf4\xe3\x01:HW@'
p44
tp45
Rp46
ag10
(g14
S'\x03?\x80\xb0\x88GW@'
p47
tp48
Rp49
ag10
(g14
S'~\xba\xe8riHW@'
p50
tp51
Rp52
ag10
(g14
S'nZ+=\xaaHW@'
p53
tp54
Rp55
ag10
(g14
S'z\xabRlVEW@'
p56
tp57
Rp58
ag10
(g14
S'\xb9\xeex0\x02FW@'
p59
tp60
Rp61
ag10
(g14
S'\xcc\x01\xa0\xc8nIW@'
p62
tp63
Rp64
ag10
(g14
S'\xda]&\x01\xabGW@'
p65
tp66
Rp67
ag10
(g14
S'\x85;\xbe6dHW@'
p68
tp69
Rp70
ag10
(g14
S'J\xecm\x8c\xc0GW@'
p71
tp72
Rp73
ag10
(g14
S'\x89\xab\xdb(\x03GW@'
p74
tp75
Rp76
asS'target'
p77
(lp78
g10
(g14
S'],\xa5p\xadh-@'
p79
tp80
Rp81
ag10
(g14
S'S\x89\xba}^\x12,@'
p82
tp83
Rp84
ag10
(g14
S'\xee*\xa2/*\xb1+@'
p85
tp86
Rp87
ag10
(g14
S'\xdc5\xb4\x91E\x83+@'
p88
tp89
Rp90
ag10
(g14
S'\xde\xf8\x1b9N\xb3+@'
p91
tp92
Rp93
ag10
(g14
S'h- \xce\x1b\x93+@'
p94
tp95
Rp96
ag10
(g14
S'\x91z\x0b\xe4\xc4\xff*@'
p97
tp98
Rp99
ag10
(g14
S"'\xa6|\xb6\xf1[+@"
p100
tp101
Rp102
ag10
(g14
S'j%\xa9\x18\xb9\xc3+@'
p103
tp104
Rp105
ag10
(g14
S'\xe4\xd9\xa1D\xb8S+@'
p106
tp107
Rp108
ag10
(g14
S'\xc4\xbbJ,\xb1\x03*@'
p109
tp110
Rp111
ag10
(g14
S'P\xc5\xa6\xc8\x99f-@'
p112
tp113
Rp114
ag10
(g14
S'k\xdc\x13\xf0z\xce)@'
p115
tp116
Rp117
ag10
(g14
S'\xe0\xfdSR_\x8a+@'
p118
tp119
Rp120
ag10
(g14
S'\xc1\xefE>\t\\-@'
p121
tp122
Rp123
ag10
(g14
S'\xf9\xc6T\x12\r\xaa)@'
p124
tp125
Rp126
ag10
(g14
S'\x81:\x0e\x0c\x1fv*@'
p127
tp128
Rp129
ag10
(g14
S'(\x0b\x86\xff6|.@'
p130
tp131
Rp132
ag10
(g14
S'\xd0e\xef\xc2d\xef+@'
p133
tp134
Rp135
ag10
(g14
S'4\xbe\xea]4\xf5*@'
p136
tp137
Rp138
asssss.