(dp0
S'../Data/sqlite_67.csv'
p1
(dp2
S'../Data/sqlite_30.csv'
p3
(dp4
F0.25
(dp5
S'abs_res'
p6
(dp7
S'bellwether'
p8
(lp9
cnumpy.core.multiarray
scalar
p10
(cnumpy
dtype
p11
(S'f8'
p12
I0
I1
tp13
Rp14
(I3
S'<'
p15
NNNI-1
I-1
I0
tp16
bS'\x18\xe8\xb4A8O A'
p17
tp18
Rp19
ag10
(g14
S'U\x9c}8\xb1N A'
p20
tp21
Rp22
ag10
(g14
S'\xb2\xf3\xfd\x14\xf5N A'
p23
tp24
Rp25
ag10
(g14
S'8\xec\nPgO A'
p26
tp27
Rp28
ag10
(g14
S'\xde\xc1<\x91+O A'
p29
tp30
Rp31
ag10
(g14
S'&1\x08l5P A'
p32
tp33
Rp34
ag10
(g14
S' iJ\xc5^O A'
p35
tp36
Rp37
ag10
(g14
S'\x16g\x1f\xfe\xaeO A'
p38
tp39
Rp40
ag10
(g14
S'V\xc7\x04O\xa7N A'
p41
tp42
Rp43
ag10
(g14
S'^\xbaIL\x05P A'
p44
tp45
Rp46
ag10
(g14
S'\xc5\xd9\x87\x0f\xc9O A'
p47
tp48
Rp49
ag10
(g14
S'\xee5\x17\x12SO A'
p50
tp51
Rp52
ag10
(g14
S'\x9f}\xf8\x0c\xa6O A'
p53
tp54
Rp55
ag10
(g14
S'\x95{\xcd\x05RP A'
p56
tp57
Rp58
ag10
(g14
S'>B\x19=pN A'
p59
tp60
Rp61
ag10
(g14
S'\xda\xb2V\x07\xa0O A'
p62
tp63
Rp64
ag10
(g14
S'T\xe3\xa5\x1b\x88N A'
p65
tp66
Rp67
ag10
(g14
S'y\xe9&1\xadO A'
p68
tp69
Rp70
ag10
(g14
S'\xbc\x1e\x85+\xbcP A'
p71
tp72
Rp73
ag10
(g14
S':\x89A\xe0\xa6P A'
p74
tp75
Rp76
asS'target'
p77
(lp78
g10
(g14
S'\x8e\xc2\xf5(\\\xbf<@'
p79
tp80
Rp81
ag10
(g14
S'p\xbe\x9f\x1a/\xdd<@'
p82
tp83
Rp84
ag10
(g14
S'y\xe9&1\x08\x8cA@'
p85
tp86
Rp87
ag10
(g14
S'\x9b\x99\x99\x99\x99\tA@'
p88
tp89
Rp90
ag10
(g14
S'A`\xe5\xd0"+=@'
p91
tp92
Rp93
ag10
(g14
S'\\\x8f\xc2\xf5(\xccD@'
p94
tp95
Rp96
ag10
(g14
S'2\x08\xac\x1cZ\xec@@'
p97
tp98
Rp99
ag10
(g14
S'\xbc\x1e\x85\xebQ\x80@@'
p100
tp101
Rp102
ag10
(g14
S'\xae\xf1\xd2Mb`>@'
p103
tp104
Rp105
ag10
(g14
S'\xf6S\xe3\xa5\x9btB@'
p106
tp107
Rp108
ag10
(g14
S'lffff\x1eA@'
p109
tp110
Rp111
ag10
(g14
S'\xb6\xc8v\xbe\x9fJA@'
p112
tp113
Rp114
ag10
(g14
S'\x98\xed|?5\xb6B@'
p115
tp116
Rp117
ag10
(g14
S'a\xbaI\x0c\x02\x93A@'
p118
tp119
Rp120
ag10
(g14
S'\xd7Mb\x10Xy>@'
p121
tp122
Rp123
ag10
(g14
S'C5^\xbaI\xacB@'
p124
tp125
Rp126
ag10
(g14
S'\xe2\xf9~j\xbc\x04>@'
p127
tp128
Rp129
ag10
(g14
S'U\xb8\x1e\x85\xeb\x11>@'
p130
tp131
Rp132
ag10
(g14
S'G\xb6\xf3\xfd\xd4\x18B@'
p133
tp134
Rp135
ag10
(g14
S'\xc5\xca\xa1E\xb6SB@'
p136
tp137
Rp138
asssss.