(dp0
S'../Data/sqlite_76.csv'
p1
(dp2
S'../Data/sqlite_94.csv'
p3
(dp4
F0.2
(dp5
S'mmre'
p6
(dp7
S'bellwether'
p8
(lp9
cnumpy.core.multiarray
scalar
p10
(cnumpy
dtype
p11
(S'f8'
p12
I0
I1
tp13
Rp14
(I3
S'<'
p15
NNNI-1
I-1
I0
tp16
bS'\xd4\x16N\x14\xa4?V@'
p17
tp18
Rp19
ag10
(g14
S'\x82r\xfe\x16sFV@'
p20
tp21
Rp22
ag10
(g14
S'\x14\x0e]\x95\xa6@V@'
p23
tp24
Rp25
ag10
(g14
S'\xc4\xa63\xe0\x0b?V@'
p26
tp27
Rp28
ag10
(g14
S'\xb3\xaak\xcd\x88@V@'
p29
tp30
Rp31
ag10
(g14
S'%=>CC;V@'
p32
tp33
Rp34
ag10
(g14
S'\x94\xa9\x12{\x92?V@'
p35
tp36
Rp37
ag10
(g14
S'\xb4\x01\xa8\x99\xbe:V@'
p38
tp39
Rp40
ag10
(g14
S'\xe6\x9e\x1fP\xe8@V@'
p41
tp42
Rp43
ag10
(g14
S'\xda\x95\x15,e=V@'
p44
tp45
Rp46
ag10
(g14
S'\x07C\x9dl\xdd4V@'
p47
tp48
Rp49
ag10
(g14
S'\x04\xf4wF\xf6>V@'
p50
tp51
Rp52
ag10
(g14
S'\x12f\rLw7V@'
p53
tp54
Rp55
ag10
(g14
S'a7\x9c\x80uCV@'
p56
tp57
Rp58
ag10
(g14
S'T%\x97T7>V@'
p59
tp60
Rp61
ag10
(g14
S'\x82\xecHr-?V@'
p62
tp63
Rp64
ag10
(g14
S'?\xae2b\xd5>V@'
p65
tp66
Rp67
ag10
(g14
S'\x00Md\xfa]EV@'
p68
tp69
Rp70
ag10
(g14
S'a\xe3VO\x04?V@'
p71
tp72
Rp73
ag10
(g14
S';\xd6\xea|ICV@'
p74
tp75
Rp76
asS'target'
p77
(lp78
g10
(g14
S'F@\xaf\xe8\xbfAJ@'
p79
tp80
Rp81
ag10
(g14
S'\xed\x08\xe1J/[N@'
p82
tp83
Rp84
ag10
(g14
S'\xa94\xecJ\xb2\xa7V@'
p85
tp86
Rp87
ag10
(g14
S'\x10\xfd$1/\xf9Q@'
p88
tp89
Rp90
ag10
(g14
S'"\x89\x04F\xed\x04Q@'
p91
tp92
Rp93
ag10
(g14
S'\xce\xf0\x80&\x1e\x7fU@'
p94
tp95
Rp96
ag10
(g14
S'\x1b\xfc\xd1c@\xacG@'
p97
tp98
Rp99
ag10
(g14
S'`l\xb5U\x0f\x01W@'
p100
tp101
Rp102
ag10
(g14
S'b?\xef1\x93\xcb\\@'
p103
tp104
Rp105
ag10
(g14
S'\xc1\xcc\xd4T\xff R@'
p106
tp107
Rp108
ag10
(g14
S"\x953\xc3'\xcb!Y@"
p109
tp110
Rp111
ag10
(g14
S'<>\\\xb3\x83\x7fD@'
p112
tp113
Rp114
ag10
(g14
S'\x9cmK\xb3\x83\xc5K@'
p115
tp116
Rp117
ag10
(g14
S'\xb0\xeb\x8d\ni\x14O@'
p118
tp119
Rp120
ag10
(g14
S'E\xdc\x89e)PJ@'
p121
tp122
Rp123
ag10
(g14
S'Nm|KI\xa4Q@'
p124
tp125
Rp126
ag10
(g14
S'-\x14u\xae\xea\xbfI@'
p127
tp128
Rp129
ag10
(g14
S'\xa3\x9f\xfc\xe5(\xb6I@'
p130
tp131
Rp132
ag10
(g14
S'\xdf\x87\x12\xbe\x13rL@'
p133
tp134
Rp135
ag10
(g14
S'J\xbe\xb9\x08{\xccZ@'
p136
tp137
Rp138
asssss.