(dp0
S'../Data/sqlite_43.csv'
p1
(dp2
S'../Data/sqlite_6.csv'
p3
(dp4
F0.3
(dp5
S'abs_res'
p6
(dp7
S'bellwether'
p8
(lp9
cnumpy.core.multiarray
scalar
p10
(cnumpy
dtype
p11
(S'f8'
p12
I0
I1
tp13
Rp14
(I3
S'<'
p15
NNNI-1
I-1
I0
tp16
bS'Jb\x108\xa7i:A'
p17
tp18
Rp19
ag10
(g14
S'\xd4x\xe9\xc6Mj:A'
p20
tp21
Rp22
ag10
(g14
S'xL\xf0\xe0\x86i:A'
p23
tp24
Rp25
ag10
(g14
S'\r\xd9\xce\x97ok:A'
p26
tp27
Rp28
ag10
(g14
S'FS*\xce\xbci:A'
p29
tp30
Rp31
ag10
(g14
S'\xf1\x0c\xbb\xa2/j:A'
p32
tp33
Rp34
ag10
(g14
S'N\xd4\xbf1\xeei:A'
p35
tp36
Rp37
ag10
(g14
S'\xc4/\x96|\xb9j:A'
p38
tp39
Rp40
ag10
(g14
S'\xc3\x15 \x97qi:A'
p41
tp42
Rp43
ag10
(g14
S'\x9aaW`\x8fi:A'
p44
tp45
Rp46
ag10
(g14
S'\xa6\rt\x1a\xb1i:A'
p47
tp48
Rp49
ag10
(g14
S'\xee\xc3g8\x1fj:A'
p50
tp51
Rp52
ag10
(g14
S'k\x842:\xd7j:A'
p53
tp54
Rp55
ag10
(g14
S'\xb1\x904E\x82i:A'
p56
tp57
Rp58
ag10
(g14
S'\x04\x00\x00\xa0\xedi:A'
p59
tp60
Rp61
ag10
(g14
S'\x98\xb5:&\x08j:A'
p62
tp63
Rp64
ag10
(g14
S'\x95\x18\x04V\x16i:A'
p65
tp66
Rp67
ag10
(g14
S')\x08\xac|ii:A'
p68
tp69
Rp70
ag10
(g14
S']W\x80\xfc_i:A'
p71
tp72
Rp73
ag10
(g14
S'\x1d1\x08\x8c\xd7h:A'
p74
tp75
Rp76
asS'target'
p77
(lp78
g10
(g14
S'e\xe5\xd0"\xdbqm@'
p79
tp80
Rp81
ag10
(g14
S'\x07+\x87\x16\xd9\xfal@'
p82
tp83
Rp84
ag10
(g14
S'kffff\no@'
p85
tp86
Rp87
ag10
(g14
S'e\x8f\xc2\xf5(\x80l@'
p88
tp89
Rp90
ag10
(g14
S'\xf2(\\\x8f\xc2}l@'
p91
tp92
Rp93
ag10
(g14
S'\xf3O\x8d\x97n\x1ao@'
p94
tp95
Rp96
ag10
(g14
S'th\x91\xed|3p@'
p97
tp98
Rp99
ag10
(g14
S'4\x08\xac\x1cZHn@'
p100
tp101
Rp102
ag10
(g14
S'\x18-\xb2\x9d\xef\x9fo@'
p103
tp104
Rp105
ag10
(g14
S'\x0c\x00\x00\x00\x00\x0en@'
p106
tp107
Rp108
ag10
(g14
S'\x1eZd;\xdf\xdfo@'
p109
tp110
Rp111
ag10
(g14
S'8\x87\x16\xd9\xceUn@'
p112
tp113
Rp114
ag10
(g14
S'^b\x10X9\xb0m@'
p115
tp116
Rp117
ag10
(g14
S'|\x16\xd9\xce\xf7\xa7n@'
p118
tp119
Rp120
ag10
(g14
S'\x9c\x99\x99\x99\x99\x99p@'
p121
tp122
Rp123
ag10
(g14
S'\xb2G\xe1z\x14>o@'
p124
tp125
Rp126
ag10
(g14
S'$\xb0rh\x91\xa7m@'
p127
tp128
Rp129
ag10
(g14
S'\x97n\x12\x83\xc0*o@'
p130
tp131
Rp132
ag10
(g14
S'\xd1\xf7S\xe3\xa5\x89m@'
p133
tp134
Rp135
ag10
(g14
S'\xe8&1\x08\xac\xc4o@'
p136
tp137
Rp138
asssss.