(dp0
S'../Data/sqlite_68.csv'
p1
(dp2
S'../Data/sqlite_97.csv'
p3
(dp4
F0.05
(dp5
S'mmre'
p6
(dp7
S'bellwether'
p8
(lp9
cnumpy.core.multiarray
scalar
p10
(cnumpy
dtype
p11
(S'f8'
p12
I0
I1
tp13
Rp14
(I3
S'<'
p15
NNNI-1
I-1
I0
tp16
bS'\x1e%q\xe2\xca3P@'
p17
tp18
Rp19
ag10
(g14
S'eC\x8d\x11\nCP@'
p20
tp21
Rp22
ag10
(g14
S'\xaa\x07\xaei\xb8AP@'
p23
tp24
Rp25
ag10
(g14
S'S##\xbe\xe3NP@'
p26
tp27
Rp28
ag10
(g14
S'9\xf7\xe7\x90S/P@'
p29
tp30
Rp31
ag10
(g14
S'\x86a\x8b\x90S2P@'
p32
tp33
Rp34
ag10
(g14
S'\xd9f)\xf1E3P@'
p35
tp36
Rp37
ag10
(g14
S'p\xdd\xe9T\x135P@'
p38
tp39
Rp40
ag10
(g14
S'\xd7\x9f\xaf\xb6P4P@'
p41
tp42
Rp43
ag10
(g14
S'\xf4\x8e\x841fPP@'
p44
tp45
Rp46
ag10
(g14
S'1\xda\xf4H>2P@'
p47
tp48
Rp49
ag10
(g14
S'\xaa\xd7k\xdb\x1b\x01P@'
p50
tp51
Rp52
ag10
(g14
S'\x01\x05\x98\xa0j4P@'
p53
tp54
Rp55
ag10
(g14
S'\x89XS\x92X:P@'
p56
tp57
Rp58
ag10
(g14
S'C_p\xac_HP@'
p59
tp60
Rp61
ag10
(g14
S'\x1c\x1d*\x876\x1eP@'
p62
tp63
Rp64
ag10
(g14
S'm\n\xc1\xeb\x8e3P@'
p65
tp66
Rp67
ag10
(g14
S'\xfb\x02\xd5\xf6\x19@P@'
p68
tp69
Rp70
ag10
(g14
S'\xb7\x95\xc4D\x898P@'
p71
tp72
Rp73
ag10
(g14
S'\x14\xeb\x8dw\x18<P@'
p74
tp75
Rp76
asS'target'
p77
(lp78
g10
(g14
S'\x13\x87\xf3,.wP@'
p79
tp80
Rp81
ag10
(g14
S'^\xd72(P-P@'
p82
tp83
Rp84
ag10
(g14
S'H\x9e\t\xf3U D@'
p85
tp86
Rp87
ag10
(g14
S'\xb4$\\\xcb\x019F@'
p88
tp89
Rp90
ag10
(g14
S'\x04\xbc\x7f\xf0\t6b@'
p91
tp92
Rp93
ag10
(g14
S'h\xf9\xb5X\x82vY@'
p94
tp95
Rp96
ag10
(g14
S'0&\xee\xe9M\xc0Z@'
p97
tp98
Rp99
ag10
(g14
S'/\x98\x8b&h\xdfD@'
p100
tp101
Rp102
ag10
(g14
S"'\t\xc7b\xd9[A@"
p103
tp104
Rp105
ag10
(g14
S'\x94\xbb\x8a9\xf1\xd3B@'
p106
tp107
Rp108
ag10
(g14
S'\xe5[X\xa9I\x86Z@'
p109
tp110
Rp111
ag10
(g14
S'\xbc\xef\x9cC\x05\x85_@'
p112
tp113
Rp114
ag10
(g14
S'*\xbc\xd0\xa0\x85%B@'
p115
tp116
Rp117
ag10
(g14
S'X8\xd3\x1fL\xa5?@'
p118
tp119
Rp120
ag10
(g14
S'\xfa\xd1\xa9\x1d\x13\xaeR@'
p121
tp122
Rp123
ag10
(g14
S'8\x10t\xf3K\xa0`@'
p124
tp125
Rp126
ag10
(g14
S'\xd5\x7f\xa6S\xb2\x89G@'
p127
tp128
Rp129
ag10
(g14
S'6Juc*rN@'
p130
tp131
Rp132
ag10
(g14
S'\xf8=h\xcdUBU@'
p133
tp134
Rp135
ag10
(g14
S'\x9d\x0b\x85W\xff\x98g@'
p136
tp137
Rp138
asssss.