(dp0
S'../Data/sqlite_35.csv'
p1
(dp2
S'../Data/sqlite_90.csv'
p3
(dp4
F0.15
(dp5
S'mmre'
p6
(dp7
S'bellwether'
p8
(lp9
cnumpy.core.multiarray
scalar
p10
(cnumpy
dtype
p11
(S'f8'
p12
I0
I1
tp13
Rp14
(I3
S'<'
p15
NNNI-1
I-1
I0
tp16
bS'\xb7\x08\xf9mzGV@'
p17
tp18
Rp19
ag10
(g14
S'B\xcf\x08\x8bZPV@'
p20
tp21
Rp22
ag10
(g14
S'ws\xb5\x9a\\_V@'
p23
tp24
Rp25
ag10
(g14
S'\xc7u\xcf|\x9dZV@'
p26
tp27
Rp28
ag10
(g14
S'\x0e<f\xba\x01XV@'
p29
tp30
Rp31
ag10
(g14
S'v\xc9\xeejxOV@'
p32
tp33
Rp34
ag10
(g14
S'\xd2N\x9az\x94TV@'
p35
tp36
Rp37
ag10
(g14
S'\xaf\x02\xdb4\x92QV@'
p38
tp39
Rp40
ag10
(g14
S'\xa1\xa7\xbd\x1a\x86eV@'
p41
tp42
Rp43
ag10
(g14
S'\xc5Xn+\xf3SV@'
p44
tp45
Rp46
ag10
(g14
S'<<\xe8\x1dYVV@'
p47
tp48
Rp49
ag10
(g14
S'\x00\xeaeQ\xd7^V@'
p50
tp51
Rp52
ag10
(g14
S'\x8a\xaa\xef\xa0\xddRV@'
p53
tp54
Rp55
ag10
(g14
S'\xcfR\xfa\x13\xedWV@'
p56
tp57
Rp58
ag10
(g14
S'\xe0f\x7ft\xe4bV@'
p59
tp60
Rp61
ag10
(g14
S'v\xae\x10\n\xbdYV@'
p62
tp63
Rp64
ag10
(g14
S'\xfbL\xd9\x84|_V@'
p65
tp66
Rp67
ag10
(g14
S'~B\xae\x96\xc6WV@'
p68
tp69
Rp70
ag10
(g14
S'\x9f\x11}\x00\xa6OV@'
p71
tp72
Rp73
ag10
(g14
S'N\x17,o\xd6NV@'
p74
tp75
Rp76
asS'target'
p77
(lp78
g10
(g14
S'%+\xc0\x87\xcc\x0bB@'
p79
tp80
Rp81
ag10
(g14
S'`$\xabN/\\B@'
p82
tp83
Rp84
ag10
(g14
S'\xd6\x91@\x91y\x84@@'
p85
tp86
Rp87
ag10
(g14
S'\x8d\xec\xc6\xc1\x8c6@@'
p88
tp89
Rp90
ag10
(g14
S'T\xc5!\xad!zB@'
p91
tp92
Rp93
ag10
(g14
S'QR\x88\x0b*\xfcA@'
p94
tp95
Rp96
ag10
(g14
S'8\x86\x96;\x1b\xb3@@'
p97
tp98
Rp99
ag10
(g14
S'\xe0XX\xef\xc8\xacA@'
p100
tp101
Rp102
ag10
(g14
S'\x18\xcc\xdb\x19m\x9c@@'
p103
tp104
Rp105
ag10
(g14
S'\xdev,G\x83\x88@@'
p106
tp107
Rp108
ag10
(g14
S'\xd3\xd6W@\xb2\x87@@'
p109
tp110
Rp111
ag10
(g14
S'\x03\xebd\x8b\x8b\xd3?@'
p112
tp113
Rp114
ag10
(g14
S"\\Xn\xed'\x8dA@"
p115
tp116
Rp117
ag10
(g14
S'U\x1a\xc3m\xa2\xceA@'
p118
tp119
Rp120
ag10
(g14
S'> 4\x81:6B@'
p121
tp122
Rp123
ag10
(g14
S'\\\xf8\xb2\x03M\xbeA@'
p124
tp125
Rp126
ag10
(g14
S'\xf7\x12\x0c\x8a\xb8\xa6A@'
p127
tp128
Rp129
ag10
(g14
S"\xbbiX\xff'\xfb@@"
p130
tp131
Rp132
ag10
(g14
S'M""\x93\x11^@@'
p133
tp134
Rp135
ag10
(g14
S'\\\xae\x11\xfd\xf5\xedA@'
p136
tp137
Rp138
asssss.