(dp0
S'../Data/sqlite_12.csv'
p1
(dp2
S'../Data/sqlite_64.csv'
p3
(dp4
F0.25
(dp5
S'mmre'
p6
(dp7
S'bellwether'
p8
(lp9
cnumpy.core.multiarray
scalar
p10
(cnumpy
dtype
p11
(S'f8'
p12
I0
I1
tp13
Rp14
(I3
S'<'
p15
NNNI-1
I-1
I0
tp16
bS'\x9b<_\xaf\xa5n|@'
p17
tp18
Rp19
ag10
(g14
S'F9\xb35;j|@'
p20
tp21
Rp22
ag10
(g14
S'\x0b"\xace\xebv|@'
p23
tp24
Rp25
ag10
(g14
S'\\\x98\xe4\xff\x98s|@'
p26
tp27
Rp28
ag10
(g14
S',T\xe6*\x88y|@'
p29
tp30
Rp31
ag10
(g14
S'\r\x03j\x98Ff|@'
p32
tp33
Rp34
ag10
(g14
S' \xae\xab\xb1\x05f|@'
p35
tp36
Rp37
ag10
(g14
S'\x80\xa87\xe6`j|@'
p38
tp39
Rp40
ag10
(g14
S'\xefr\xc8r\x87w|@'
p41
tp42
Rp43
ag10
(g14
S'\xe8\x9a\xb4\x1a\xdbr|@'
p44
tp45
Rp46
ag10
(g14
S'\x9eH\xec&\xc9e|@'
p47
tp48
Rp49
ag10
(g14
S"/8'u\xd0n|@"
p50
tp51
Rp52
ag10
(g14
S'\tW2\xd2\xa9b|@'
p53
tp54
Rp55
ag10
(g14
S'\x84\xec\x0be@o|@'
p56
tp57
Rp58
ag10
(g14
S'*Z\n\xd4co|@'
p59
tp60
Rp61
ag10
(g14
S'd\xcb\xec\x00$g|@'
p62
tp63
Rp64
ag10
(g14
S'\x90\x1c8\x12\x82l|@'
p65
tp66
Rp67
ag10
(g14
S'm\n \x1dMc|@'
p68
tp69
Rp70
ag10
(g14
S'%Z\x1f\x18Xm|@'
p71
tp72
Rp73
ag10
(g14
S'FE\xe9\x85\xb9u|@'
p74
tp75
Rp76
asS'target'
p77
(lp78
g10
(g14
S'gQ\x89I\x96\x16\x12@'
p79
tp80
Rp81
ag10
(g14
S'\xbc\xb9P\xdcLZ\x10@'
p82
tp83
Rp84
ag10
(g14
S'|\xd5UF+D\x12@'
p85
tp86
Rp87
ag10
(g14
S',\x97<+\xae\x0b\x10@'
p88
tp89
Rp90
ag10
(g14
S'l\xe5L\x08\x03j\x12@'
p91
tp92
Rp93
ag10
(g14
S'1\x97B\x9c\xb7\x86\x0c@'
p94
tp95
Rp96
ag10
(g14
S'\x9fN\xfas\xfeE\r@'
p97
tp98
Rp99
ag10
(g14
S'b\xa3D\xef0\xb0\x0e@'
p100
tp101
Rp102
ag10
(g14
S'O-\xba\xe1\xb1,\x13@'
p103
tp104
Rp105
ag10
(g14
S'\n)tD\n\xd7\x10@'
p106
tp107
Rp108
ag10
(g14
S'\xc4\xbc7fy}\x0f@'
p109
tp110
Rp111
ag10
(g14
S'f\x82w\x87F\xcf\x0e@'
p112
tp113
Rp114
ag10
(g14
S'\x19}I\xe7\x10<\x0e@'
p115
tp116
Rp117
ag10
(g14
S'.\x1fLh\n\x80\x10@'
p118
tp119
Rp120
ag10
(g14
S'\xd2\x01\xc4\x88\x17\x99\x0f@'
p121
tp122
Rp123
ag10
(g14
S'\x15K\xc6YI4\x0f@'
p124
tp125
Rp126
ag10
(g14
S'\x17K^\xeaQ%\x0e@'
p127
tp128
Rp129
ag10
(g14
S'\xb0\xeap\xc7\x19\x13\x10@'
p130
tp131
Rp132
ag10
(g14
S'\xdc\xdd[\x1c7~\x0f@'
p133
tp134
Rp135
ag10
(g14
S'&#k;q/\x10@'
p136
tp137
Rp138
asssss.