(dp0
S'../Data/sqlite_27.csv'
p1
(dp2
S'../Data/sqlite_85.csv'
p3
(dp4
F0.15
(dp5
S'abs_res'
p6
(dp7
S'bellwether'
p8
(lp9
cnumpy.core.multiarray
scalar
p10
(cnumpy
dtype
p11
(S'f8'
p12
I0
I1
tp13
Rp14
(I3
S'<'
p15
NNNI-1
I-1
I0
tp16
bS'\xe43\xec\xaaO8WA'
p17
tp18
Rp19
ag10
(g14
S'M\xc9/f??WA'
p20
tp21
Rp22
ag10
(g14
S'>\n\xd7\xd7 KWA'
p23
tp24
Rp25
ag10
(g14
S'\xf0\xd2MR]HWA'
p26
tp27
Rp28
ag10
(g14
S'\xe0\xa5\x9bX\xae.WA'
p29
tp30
Rp31
ag10
(g14
S"\nX9t'@WA"
p32
tp33
Rp34
ag10
(g14
S'\x1b/\xdd\xe0\xc86WA'
p35
tp36
Rp37
ag10
(g14
S';\x19\xbd\x19\x89.WA'
p38
tp39
Rp40
ag10
(g14
S'\xe9\xd2M\x1e-SWA'
p41
tp42
Rp43
ag10
(g14
S'\xde|?e\x03GWA'
p44
tp45
Rp46
ag10
(g14
S'\x9cE\xb6\xdboWWA'
p47
tp48
Rp49
ag10
(g14
S'\xb7t\x93\xe0\x116WA'
p50
tp51
Rp52
ag10
(g14
S'\xcax\xe9\x9e\xf5*WA'
p53
tp54
Rp55
ag10
(g14
S'\x12<\x98\xe3aCWA'
p56
tp57
Rp58
ag10
(g14
S'\xbd\x9f\x1a_\xfaEWA'
p59
tp60
Rp61
ag10
(g14
S'\xe23\xec\xfaUCWA'
p62
tp63
Rp64
ag10
(g14
S'\xc6\x85\xa4i\xb0:WA'
p65
tp66
Rp67
ag10
(g14
S"4^\xba\t7'WA"
p68
tp69
Rp70
ag10
(g14
S'\xd2\xce\xf7\x07DNWA'
p71
tp72
Rp73
ag10
(g14
S'=\x8bl\xc3XAWA'
p74
tp75
Rp76
asS'target'
p77
(lp78
g10
(g14
S'\x86\xebQX\x84K@A'
p79
tp80
Rp81
ag10
(g14
S'efff\x14\xb6?A'
p82
tp83
Rp84
ag10
(g14
S'y\x14\xae\x07\x8a\rBA'
p85
tp86
Rp87
ag10
(g14
S'!\x85\xebq/pAA'
p88
tp89
Rp90
ag10
(g14
S'\xd7\xa3p=\xb4\x9aCA'
p91
tp92
Rp93
ag10
(g14
S'\x7f\x14\xae\xf7P\xc7AA'
p94
tp95
Rp96
ag10
(g14
S'\x93\x99\x99\x99\x1f\xea@A'
p97
tp98
Rp99
ag10
(g14
S'c\x8f\xc2\xb5\xd0\xd4@A'
p100
tp101
Rp102
ag10
(g14
S'\t\xd7\xa30\x07\x10BA'
p103
tp104
Rp105
ag10
(g14
S'affF$\xe4BA'
p106
tp107
Rp108
ag10
(g14
S'\x14\xaeGa\x84\x82BA'
p109
tp110
Rp111
ag10
(g14
S'\xf2Q\xb8\xbe\xef*BA'
p112
tp113
Rp114
ag10
(g14
S'\xd8\xa3p=4\xd0CA'
p115
tp116
Rp117
ag10
(g14
S'\x8b\xc2\xf5\x88\x0fMBA'
p118
tp119
Rp120
ag10
(g14
S'\xf1Q\xb8\xde\x0c\xdc?A'
p121
tp122
Rp123
ag10
(g14
S'\xa9p=*\xd4\x10AA'
p124
tp125
Rp126
ag10
(g14
S'\xecQ\xb8^="?A'
p127
tp128
Rp129
ag10
(g14
S'\xd9\xa3p\xed$l@A'
p130
tp131
Rp132
ag10
(g14
S'^\x8f\xc2\x15\x03\x7fBA'
p133
tp134
Rp135
ag10
(g14
S'V\xb8\x1e%\xd9\xedBA'
p136
tp137
Rp138
asssss.