(dp0
S'../Data/sqlite_15.csv'
p1
(dp2
S'../Data/sqlite_85.csv'
p3
(dp4
F0.25
(dp5
S'abs_res'
p6
(dp7
S'bellwether'
p8
(lp9
cnumpy.core.multiarray
scalar
p10
(cnumpy
dtype
p11
(S'f8'
p12
I0
I1
tp13
Rp14
(I3
S'<'
p15
NNNI-1
I-1
I0
tp16
bS'0\x96\xfcB?GLA'
p17
tp18
Rp19
ag10
(g14
S'\xe1\xb4\x81\x8e#\xa4LA'
p20
tp21
Rp22
ag10
(g14
S'i\x03\x9dV1\x12LA'
p23
tp24
Rp25
ag10
(g14
S'\xe2\x17K\x1e\xe4\x85LA'
p26
tp27
Rp28
ag10
(g14
S'\x8a\xc2\xf5\xa8V\x87LA'
p29
tp30
Rp31
ag10
(g14
S'\xbf\x92_\x0c\x0e\x83LA'
p32
tp33
Rp34
ag10
(g14
S'1\x96\xfc"|\x95LA'
p35
tp36
Rp37
ag10
(g14
S'\x85%\xbf\x98\xe1xLA'
p38
tp39
Rp40
ag10
(g14
S'`\xc9/\x16\xb4,LA'
p41
tp42
Rp43
ag10
(g14
S'L~\xb1D\x81\x16LA'
p44
tp45
Rp46
ag10
(g14
S'\xfd9m@P]LA'
p47
tp48
Rp49
ag10
(g14
S'K\x1b\xe8t\xf4pLA'
p50
tp51
Rp52
ag10
(g14
S'\x81N\x1bhT|LA'
p53
tp54
Rp55
ag10
(g14
S'\x06\xd7\xa3P37LA'
p56
tp57
Rp58
ag10
(g14
S"\x91\xfcb\xa9<'LA"
p59
tp60
Rp61
ag10
(g14
S'\x92_,Y\xa3QLA'
p62
tp63
Rp64
ag10
(g14
S'\xa1\xd3\x06Z`(LA'
p65
tp66
Rp67
ag10
(g14
S'\xfa\xff\xff?WPLA'
p68
tp69
Rp70
ag10
(g14
S'-\\\x8fb\xd8\xb5LA'
p71
tp72
Rp73
ag10
(g14
S'\x1f\xbfX\xd2}*LA'
p74
tp75
Rp76
asS'target'
p77
(lp78
g10
(g14
S'\x9a\x99\x99\x99FR>A'
p79
tp80
Rp81
ag10
(g14
S'\xfd(\\\x0f%EAA'
p82
tp83
Rp84
ag10
(g14
S'\x1c\xaeG\xa1J\xd9>A'
p85
tp86
Rp87
ag10
(g14
S'\xa7p=J\x80"?A'
p88
tp89
Rp90
ag10
(g14
S'?\xe1zT4,?A'
p91
tp92
Rp93
ag10
(g14
S'm=\n\xd7\xf9V?A'
p94
tp95
Rp96
ag10
(g14
S'Z\xb8\x1e\xc5\r\x8a;A'
p97
tp98
Rp99
ag10
(g14
S'\x91\xc2\xf5\xa8e\xc4=A'
p100
tp101
Rp102
ag10
(g14
S')33\xf3\tj=A'
p103
tp104
Rp105
ag10
(g14
S'\x8b\xebQ8\x87\xe0?A'
p106
tp107
Rp108
ag10
(g14
S'\x91\xebQ\xf8\x9cV=A'
p109
tp110
Rp111
ag10
(g14
S'\x1f\xaeG!q{>A'
p112
tp113
Rp114
ag10
(g14
S'H\xe1z\x84\xecg@A'
p115
tp116
Rp117
ag10
(g14
S'\xa5p=J\x98\t@A'
p118
tp119
Rp120
ag10
(g14
S'033\xb3\xe5<<A'
p121
tp122
Rp123
ag10
(g14
S'\xe3z\x14\x0e\xa9\t@A'
p124
tp125
Rp126
ag10
(g14
S'\x93\xebQ8d\x00>A'
p127
tp128
Rp129
ag10
(g14
S'\x03\x00\x00\x00\x99\x19@A'
p130
tp131
Rp132
ag10
(g14
S'\xcc\xf5(\x9c\\\x81=A'
p133
tp134
Rp135
ag10
(g14
S'|\x14\xae\x87\x14\xf7?A'
p136
tp137
Rp138
asssss.