(dp0
S'../Data/sqlite_43.csv'
p1
(dp2
S'../Data/sqlite_8.csv'
p3
(dp4
F0.25
(dp5
S'abs_res'
p6
(dp7
S'bellwether'
p8
(lp9
cnumpy.core.multiarray
scalar
p10
(cnumpy
dtype
p11
(S'f8'
p12
I0
I1
tp13
Rp14
(I3
S'<'
p15
NNNI-1
I-1
I0
tp16
bS'6z[V\xae}<A'
p17
tp18
Rp19
ag10
(g14
S'\xa18\xfbP\x03~<A'
p20
tp21
Rp22
ag10
(g14
S'y\x86]\xe1F\x7f<A'
p23
tp24
Rp25
ag10
(g14
S'\xcf>|&n~<A'
p26
tp27
Rp28
ag10
(g14
S'E\xfd\x1ba\x9b~<A'
p29
tp30
Rp31
ag10
(g14
S'\x10Zd\xdb0~<A'
p32
tp33
Rp34
ag10
(g14
S'\xde\xce\xf7\xb3\x11~<A'
p35
tp36
Rp37
ag10
(g14
S'5O\xd4\xdf\xeb}<A'
p38
tp39
Rp40
ag10
(g14
S'\xf3\x98\xe0Aq~<A'
p41
tp42
Rp43
ag10
(g14
S'\xcd>|FY~<A'
p44
tp45
Rp46
ag10
(g14
S'\xa3aW\xa0\xca~<A'
p47
tp48
Rp49
ag10
(g14
S'\x01\x0f\xe6)\xa2}<A'
p50
tp51
Rp52
ag10
(g14
S'N\xf0`\x1e\xa1}<A'
p53
tp54
Rp55
ag10
(g14
S"j\xda@'\n}<A"
p56
tp57
Rp58
ag10
(g14
S'\xf3\x19v\x85y~<A'
p59
tp60
Rp61
ag10
(g14
S'G~\xb1$w}<A'
p62
tp63
Rp64
ag10
(g14
S'\xb2\xc8v\x9e\xe8~<A'
p65
tp66
Rp67
ag10
(g14
S'9\n\xd7\x03\x90}<A'
p68
tp69
Rp70
ag10
(g14
S'\xb9\xca\xa1E.\x7f<A'
p71
tp72
Rp73
ag10
(g14
S'l\x91\xed\\v\x7f<A'
p74
tp75
Rp76
asS'target'
p77
(lp78
g10
(g14
S'\xb4\x1cZd;\xcfW@'
p79
tp80
Rp81
ag10
(g14
S'\xb7\xf5(\\\x8f\xdaV@'
p82
tp83
Rp84
ag10
(g14
S'E5^\xbaIDX@'
p85
tp86
Rp87
ag10
(g14
S'\xd6\xf7S\xe3\xa5\xd7X@'
p88
tp89
Rp90
ag10
(g14
S'\x1b/\xdd$\x06\xb9W@'
p91
tp92
Rp93
ag10
(g14
S'\xba\xca\xa1E\xb6/W@'
p94
tp95
Rp96
ag10
(g14
S'\xf0&1\x08\xacTV@'
p97
tp98
Rp99
ag10
(g14
S'$/\xdd$\x061W@'
p100
tp101
Rp102
ag10
(g14
S'\xa9\x1cZd;\xe7X@'
p103
tp104
Rp105
ag10
(g14
S'\x92\x18\x04V\x0e\x91V@'
p106
tp107
Rp108
ag10
(g14
S'\xb0\x9d\xef\xa7\xc6KW@'
p109
tp110
Rp111
ag10
(g14
S'\xc6K7\x89A W@'
p112
tp113
Rp114
ag10
(g14
S'\xf1\xa7\xc6K7\xd9V@'
p115
tp116
Rp117
ag10
(g14
S'`d;\xdfO\xfdW@'
p118
tp119
Rp120
ag10
(g14
S'\xbe \xb0rh\x81Y@'
p121
tp122
Rp123
ag10
(g14
S'\xc5\xf5(\\\x8f\x9eY@'
p124
tp125
Rp126
ag10
(g14
S'\x07+\x87\x16\xd9^Y@'
p127
tp128
Rp129
ag10
(g14
S'L7\x89A`\x15W@'
p130
tp131
Rp132
ag10
(g14
S'\\\xb8\x1e\x85\xebEZ@'
p133
tp134
Rp135
ag10
(g14
S'\xf1\xd2Mb\x10\xa8U@'
p136
tp137
Rp138
asssss.