(dp0
S'../Data/sqlite_35.csv'
p1
(dp2
S'../Data/sqlite_90.csv'
p3
(dp4
F0.3
(dp5
S'mmre'
p6
(dp7
S'bellwether'
p8
(lp9
cnumpy.core.multiarray
scalar
p10
(cnumpy
dtype
p11
(S'f8'
p12
I0
I1
tp13
Rp14
(I3
S'<'
p15
NNNI-1
I-1
I0
tp16
bS'u\xe8\xb54*SV@'
p17
tp18
Rp19
ag10
(g14
S'%\xcf\x11\xe58TV@'
p20
tp21
Rp22
ag10
(g14
S'G\xe2\x0c;\xb0QV@'
p23
tp24
Rp25
ag10
(g14
S'0\x95+A\xf6ZV@'
p26
tp27
Rp28
ag10
(g14
S'\x1e\x9a\xc8\x8a\xa7\\V@'
p29
tp30
Rp31
ag10
(g14
S'\x9c)\xcb\xcf\x13MV@'
p32
tp33
Rp34
ag10
(g14
S'\xa4\xd9[B\x99QV@'
p35
tp36
Rp37
ag10
(g14
S'\xc4_\xa6\xbb\rQV@'
p38
tp39
Rp40
ag10
(g14
S'\xf6\xeeN\x92KVV@'
p41
tp42
Rp43
ag10
(g14
S'>T`J\xe1NV@'
p44
tp45
Rp46
ag10
(g14
S'^\x0e\x1d*\xd5GV@'
p47
tp48
Rp49
ag10
(g14
S'S\x7f\xaa\x1a\xbeFV@'
p50
tp51
Rp52
ag10
(g14
S'\xa3\x96\xa5\xa94NV@'
p53
tp54
Rp55
ag10
(g14
S'\x99f{\xd0\xb6FV@'
p56
tp57
Rp58
ag10
(g14
S'w\x89\xcb\xa8hDV@'
p59
tp60
Rp61
ag10
(g14
S'\xf9 \x181\xafMV@'
p62
tp63
Rp64
ag10
(g14
S'\x9e\xb3#D\x10hV@'
p65
tp66
Rp67
ag10
(g14
S'e\x7f\xf0^\x06eV@'
p68
tp69
Rp70
ag10
(g14
S'\xab\xceWT>VV@'
p71
tp72
Rp73
ag10
(g14
S'\x0b\xf7dS6WV@'
p74
tp75
Rp76
asS'target'
p77
(lp78
g10
(g14
S'\xa6\x8dA\x1f\x87\xde?@'
p79
tp80
Rp81
ag10
(g14
S'\xc5\xb1\xb3X\xf7\xf4A@'
p82
tp83
Rp84
ag10
(g14
S'\xbb\xeb\xd5\xccZ4@@'
p85
tp86
Rp87
ag10
(g14
S'\xf8\xccqq{W@@'
p88
tp89
Rp90
ag10
(g14
S'\x1d\x8a\xd3\xee\xdc\xde@@'
p91
tp92
Rp93
ag10
(g14
S'\xbe\x94>/Ik@@'
p94
tp95
Rp96
ag10
(g14
S'\xc9B\xff\\\xe7\xb0@@'
p97
tp98
Rp99
ag10
(g14
S'@S+\xf5\x19\xd6@@'
p100
tp101
Rp102
ag10
(g14
S'v!\x8d3#\xc0A@'
p103
tp104
Rp105
ag10
(g14
S'y\xf7\x95\xaf\xcfNC@'
p106
tp107
Rp108
ag10
(g14
S'b\r\xb3"\xcd\xceC@'
p109
tp110
Rp111
ag10
(g14
S'\n\x95\x06\x98?#B@'
p112
tp113
Rp114
ag10
(g14
S'\xc0\xc2#\xe1\xc9lA@'
p115
tp116
Rp117
ag10
(g14
S'\x85\xf9\xb9\xf9\x8a\x93A@'
p118
tp119
Rp120
ag10
(g14
S'\xba\x93\xba\xfa)\xb2A@'
p121
tp122
Rp123
ag10
(g14
S'2k\x04\x8bR\xd1@@'
p124
tp125
Rp126
ag10
(g14
S'\x85hp\xa0R\xc7@@'
p127
tp128
Rp129
ag10
(g14
S';YIm\x97\x8d@@'
p130
tp131
Rp132
ag10
(g14
S'iCg $\xcdA@'
p133
tp134
Rp135
ag10
(g14
S'e\x15\xf9\x072\xa0@@'
p136
tp137
Rp138
asssss.