(dp0
S'../Data/sqlite_85.csv'
p1
(dp2
S'../Data/sqlite_48.csv'
p3
(dp4
F0.15
(dp5
S'abs_res'
p6
(dp7
S'bellwether'
p8
(lp9
cnumpy.core.multiarray
scalar
p10
(cnumpy
dtype
p11
(S'f8'
p12
I0
I1
tp13
Rp14
(I3
S'<'
p15
NNNI-1
I-1
I0
tp16
bS'\x85?5\xceI^WA'
p17
tp18
Rp19
ag10
(g14
S'\xda&1`\xcc\x8aWA'
p20
tp21
Rp22
ag10
(g14
S'\x8c]\x01\x02PfWA'
p23
tp24
Rp25
ag10
(g14
S'\xec\xdf\x08\xf5X~WA'
p26
tp27
Rp28
ag10
(g14
S')\\\x8fjwJWA'
p29
tp30
Rp31
ag10
(g14
S'7\n\xd7\x13CsWA'
p32
tp33
Rp34
ag10
(g14
S'\xafrhQ\xed^WA'
p35
tp36
Rp37
ag10
(g14
S'\xb8\xf5(LQ:WA'
p38
tp39
Rp40
ag10
(g14
S'!>\xc3.\xa66WA'
p41
tp42
Rp43
ag10
(g14
S'W\x0e-\xd2YPWA'
p44
tp45
Rp46
ag10
(g14
S'e\xe5\xd0j\x01AWA'
p47
tp48
Rp49
ag10
(g14
S'CDD\x04\xfbqWA'
p50
tp51
Rp52
ag10
(g14
S'\xbf\x02\xe4~\xe8fWA'
p53
tp54
Rp55
ag10
(g14
S'\xf2D\xfd\xa3\xe4\x7fWA'
p56
tp57
Rp58
ag10
(g14
S'\x18\xbd-s\x97YWA'
p59
tp60
Rp61
ag10
(g14
S'\x84\xa4)ucmWA'
p62
tp63
Rp64
ag10
(g14
S'\xdbO\x8d\xe7dLWA'
p65
tp66
Rp67
ag10
(g14
S'I\x8bl_\xb4VWA'
p68
tp69
Rp70
ag10
(g14
S'\x08\xf5o\xf4GkWA'
p71
tp72
Rp73
ag10
(g14
S'\x10\x83\xc0\xf2\xe4lWA'
p74
tp75
Rp76
asS'target'
p77
(lp78
g10
(g14
S'\xa0p=\n\xd7\xd7t@'
p79
tp80
Rp81
ag10
(g14
S'\n-\xb2\x9d\xef\x80r@'
p82
tp83
Rp84
ag10
(g14
S'\x91\xed|?5^s@'
p85
tp86
Rp87
ag10
(g14
S'\n\x00\x00\x00\x00\xd8r@'
p88
tp89
Rp90
ag10
(g14
S'\xc4\x1e\x85\xebQ\xb4r@'
p91
tp92
Rp93
ag10
(g14
S'S\xe3\xa5\x9b\xc4\xa1s@'
p94
tp95
Rp96
ag10
(g14
S'\xccv\xbe\x9f\x1a\x9dq@'
p97
tp98
Rp99
ag10
(g14
S'\x9fp=\n\xd7\xb3q@'
p100
tp101
Rp102
ag10
(g14
S'\rX9\xb4\xc8 r@'
p103
tp104
Rp105
ag10
(g14
S'c\x10X9\xb4\xber@'
p106
tp107
Rp108
ag10
(g14
S']\x8f\xc2\xf5(vt@'
p109
tp110
Rp111
ag10
(g14
S'\x82\x16\xd9\xce\xf7Cr@'
p112
tp113
Rp114
ag10
(g14
S'33333\xc9s@'
p115
tp116
Rp117
ag10
(g14
S'\xfe~j\xbctis@'
p118
tp119
Rp120
ag10
(g14
S'%\x85\xebQ\xb8\xbar@'
p121
tp122
Rp123
ag10
(g14
S'vh\x91\xed|Kt@'
p124
tp125
Rp126
ag10
(g14
S'B\xb6\xf3\xfd\xd4Dr@'
p127
tp128
Rp129
ag10
(g14
S'\x00+\x87\x16\xd9(s@'
p130
tp131
Rp132
ag10
(g14
S'H\x0c\x02+\x87\xe2t@'
p133
tp134
Rp135
ag10
(g14
S'\xc0\x9f\x1a/\xdd\xaer@'
p136
tp137
Rp138
asssss.