(dp0
S'../Data/sqlite_72.csv'
p1
(dp2
S'../Data/sqlite_84.csv'
p3
(dp4
F0.25
(dp5
S'mmre'
p6
(dp7
S'bellwether'
p8
(lp9
cnumpy.core.multiarray
scalar
p10
(cnumpy
dtype
p11
(S'f8'
p12
I0
I1
tp13
Rp14
(I3
S'<'
p15
NNNI-1
I-1
I0
tp16
bS'\xf7\x18\xdd\xa4\x04YR@'
p17
tp18
Rp19
ag10
(g14
S'\x839\x1ei\x7fNR@'
p20
tp21
Rp22
ag10
(g14
S'\xc9\xefb)\xbcPR@'
p23
tp24
Rp25
ag10
(g14
S'\xd1\x8b \xc6\xb6MR@'
p26
tp27
Rp28
ag10
(g14
S'\x8b~]41AR@'
p29
tp30
Rp31
ag10
(g14
S'\xba;~\\B^R@'
p32
tp33
Rp34
ag10
(g14
S'\xa4q.=\xda\\R@'
p35
tp36
Rp37
ag10
(g14
S'\x80h4~/ER@'
p38
tp39
Rp40
ag10
(g14
S'\x1eU\xb1\xf3\x96ER@'
p41
tp42
Rp43
ag10
(g14
S')G\xe5\xdc\x9cPR@'
p44
tp45
Rp46
ag10
(g14
S'q)\xc2\x86\x0cQR@'
p47
tp48
Rp49
ag10
(g14
S'\xbb,\xdcy\xb8HR@'
p50
tp51
Rp52
ag10
(g14
S'`\xa20J\xcfZR@'
p53
tp54
Rp55
ag10
(g14
S'\x7f\x91\xf9\xca\x95PR@'
p56
tp57
Rp58
ag10
(g14
S'\x92\xb9\xdc\xb5MbR@'
p59
tp60
Rp61
ag10
(g14
S'K^\x12\x07\xbaCR@'
p62
tp63
Rp64
ag10
(g14
S'I^\x88\xba\x08[R@'
p65
tp66
Rp67
ag10
(g14
S'(=m\x89}RR@'
p68
tp69
Rp70
ag10
(g14
S'\xc4\x9d\x8e\x971`R@'
p71
tp72
Rp73
ag10
(g14
S'\xeb\xf2\x11\x19\xf3FR@'
p74
tp75
Rp76
asS'target'
p77
(lp78
g10
(g14
S'l\x05\xee\xed+mW@'
p79
tp80
Rp81
ag10
(g14
S'#\xde&i\xde\x8fQ@'
p82
tp83
Rp84
ag10
(g14
S'\x80\xba\xd7\x8af\xbeM@'
p85
tp86
Rp87
ag10
(g14
S'-\x8b\x8e\xff\xa7\xe9P@'
p88
tp89
Rp90
ag10
(g14
S'\xa8\xdd\x8c\x01b\x1cN@'
p91
tp92
Rp93
ag10
(g14
S'"*m\x03\xbfoG@'
p94
tp95
Rp96
ag10
(g14
S'\xe6m\x1a\x87\x90\xf8E@'
p97
tp98
Rp99
ag10
(g14
S'\xc6G/\x1a\x10\x93R@'
p100
tp101
Rp102
ag10
(g14
S'\x9c\x15\\\x91O_F@'
p103
tp104
Rp105
ag10
(g14
S'v+\x0c\\\x1a\x9fF@'
p106
tp107
Rp108
ag10
(g14
S'\x00\x88\xafdJ\xbdP@'
p109
tp110
Rp111
ag10
(g14
S'F\xc3Qe\xc4DR@'
p112
tp113
Rp114
ag10
(g14
S'\xdc\xfcQ\x80\xb0!R@'
p115
tp116
Rp117
ag10
(g14
S'\xb1q\xb5\x05\x03qQ@'
p118
tp119
Rp120
ag10
(g14
S'\xdd\x10\x95O\r\xf2P@'
p121
tp122
Rp123
ag10
(g14
S'\n\x19k\xdc\xfd\x83R@'
p124
tp125
Rp126
ag10
(g14
S' A"\xf3K\xcaP@'
p127
tp128
Rp129
ag10
(g14
S'\x9a\xe4^\rb\x00P@'
p130
tp131
Rp132
ag10
(g14
S'\xbbk\xd2\x95\x84ZM@'
p133
tp134
Rp135
ag10
(g14
S'*3\x0bM5\xcbP@'
p136
tp137
Rp138
asssss.