(dp0
S'../Data/sqlite_31.csv'
p1
(dp2
S'../Data/sqlite_94.csv'
p3
(dp4
F0.15
(dp5
S'mmre'
p6
(dp7
S'bellwether'
p8
(lp9
cnumpy.core.multiarray
scalar
p10
(cnumpy
dtype
p11
(S'f8'
p12
I0
I1
tp13
Rp14
(I3
S'<'
p15
NNNI-1
I-1
I0
tp16
bS'g\xed\xf1\xdf\x821X@'
p17
tp18
Rp19
ag10
(g14
S'\x86AS\x1a\xe90X@'
p20
tp21
Rp22
ag10
(g14
S'7\xb9\x12\xbd\xd40X@'
p23
tp24
Rp25
ag10
(g14
S'3H9\x1b\x1a0X@'
p26
tp27
Rp28
ag10
(g14
S'-\xe7\xe2\xf8H1X@'
p29
tp30
Rp31
ag10
(g14
S'\x89,5\\31X@'
p32
tp33
Rp34
ag10
(g14
S'\xb5JA\x8aD0X@'
p35
tp36
Rp37
ag10
(g14
S'\xad\x11\x0b\xe9r1X@'
p38
tp39
Rp40
ag10
(g14
S'\xd0J7&#0X@'
p41
tp42
Rp43
ag10
(g14
S'z\x18\xfc5\xe61X@'
p44
tp45
Rp46
ag10
(g14
S'\xc4c\x01"\xee1X@'
p47
tp48
Rp49
ag10
(g14
S'\x89\xb9\xd3\xa5\xeb/X@'
p50
tp51
Rp52
ag10
(g14
S'\xf0C\xf5\xa0\x000X@'
p53
tp54
Rp55
ag10
(g14
S'*\x10\xfd\xa7\xb51X@'
p56
tp57
Rp58
ag10
(g14
S'\xef9\x07\xddw2X@'
p59
tp60
Rp61
ag10
(g14
S'|*\xcb\xa5\x8d2X@'
p62
tp63
Rp64
ag10
(g14
S'M\xa2\x12\x1e\x8f1X@'
p65
tp66
Rp67
ag10
(g14
S'\xae\x95\x8e\xbc/1X@'
p68
tp69
Rp70
ag10
(g14
S'\x9aGz}\x031X@'
p71
tp72
Rp73
ag10
(g14
S'sZK\x04Z1X@'
p74
tp75
Rp76
asS'target'
p77
(lp78
g10
(g14
S')\x8cL\x80P$V@'
p79
tp80
Rp81
ag10
(g14
S'\xc02[\x95\xff\xc3T@'
p82
tp83
Rp84
ag10
(g14
S'\xbc\x97\x05;n[Q@'
p85
tp86
Rp87
ag10
(g14
S'\x85U\x1d\xfd"8\\@'
p88
tp89
Rp90
ag10
(g14
S'\x0e\xf9\xd5G\x90BL@'
p91
tp92
Rp93
ag10
(g14
S'\x80|>\xebZ\xccP@'
p94
tp95
Rp96
ag10
(g14
S'\xa4P\xfb~\xf0qM@'
p97
tp98
Rp99
ag10
(g14
S'\x88}\xf7\x84n\xc2K@'
p100
tp101
Rp102
ag10
(g14
S';\xe0\xb6T\xc2`R@'
p103
tp104
Rp105
ag10
(g14
S'\xaf\xd1f\x05\t$O@'
p106
tp107
Rp108
ag10
(g14
S'"S\x93\t\x06\xb2B@'
p109
tp110
Rp111
ag10
(g14
S'\xa6;\x17_[\x01R@'
p112
tp113
Rp114
ag10
(g14
S'S\x9fS\x83d\x02G@'
p115
tp116
Rp117
ag10
(g14
S'\xd2\xd0\xac\x9d\xf4\x9bH@'
p118
tp119
Rp120
ag10
(g14
S'\xf9\x11=\xa3@jS@'
p121
tp122
Rp123
ag10
(g14
S'\xb7\x85F\x8e#FN@'
p124
tp125
Rp126
ag10
(g14
S'/b\xb8\xc3\xdcYQ@'
p127
tp128
Rp129
ag10
(g14
S't\xcc\xf1\xbck\x93N@'
p130
tp131
Rp132
ag10
(g14
S'\xb9\xa3\x7f#"cO@'
p133
tp134
Rp135
ag10
(g14
S'\xd1e~\x8e\xf7\x16P@'
p136
tp137
Rp138
asssss.