(dp0
S'../Data/sqlite_76.csv'
p1
(dp2
S'../Data/sqlite_94.csv'
p3
(dp4
F0.35
(dp5
S'mmre'
p6
(dp7
S'bellwether'
p8
(lp9
cnumpy.core.multiarray
scalar
p10
(cnumpy
dtype
p11
(S'f8'
p12
I0
I1
tp13
Rp14
(I3
S'<'
p15
NNNI-1
I-1
I0
tp16
bS')\xb5\x87K\xfe:V@'
p17
tp18
Rp19
ag10
(g14
S'(2\xe7\x05r:V@'
p20
tp21
Rp22
ag10
(g14
S'\x83\xa9D\x83s>V@'
p23
tp24
Rp25
ag10
(g14
S'\xaa\x16\xac\x1a\xc1DV@'
p26
tp27
Rp28
ag10
(g14
S'\xd4X\xc5B\x8a>V@'
p29
tp30
Rp31
ag10
(g14
S'1N\xec\x8e\x11AV@'
p32
tp33
Rp34
ag10
(g14
S'#\xad\x7f\n\x1cBV@'
p35
tp36
Rp37
ag10
(g14
S'\xb7\xbf9\xfd]@V@'
p38
tp39
Rp40
ag10
(g14
S'\xa5\x08m&O7V@'
p41
tp42
Rp43
ag10
(g14
S'\xafx\\\x06\xad2V@'
p44
tp45
Rp46
ag10
(g14
S'\xde\xcf\x03\x80\x8cCV@'
p47
tp48
Rp49
ag10
(g14
S'\xd6\tT\xd4P:V@'
p50
tp51
Rp52
ag10
(g14
S'\xd6m\x07}pHV@'
p53
tp54
Rp55
ag10
(g14
S'>\xff\x1b8?EV@'
p56
tp57
Rp58
ag10
(g14
S'\xa5\xfc\x95\x84/?V@'
p59
tp60
Rp61
ag10
(g14
S'\noz\xfd\x88BV@'
p62
tp63
Rp64
ag10
(g14
S'\xed\xbd%\x06l<V@'
p65
tp66
Rp67
ag10
(g14
S'\t!\xbf\xa7\x948V@'
p68
tp69
Rp70
ag10
(g14
S'\x12\xc3\\\xbb\x88>V@'
p71
tp72
Rp73
ag10
(g14
S'\xd0w\xfd\x03\xef2V@'
p74
tp75
Rp76
asS'target'
p77
(lp78
g10
(g14
S'\xa0xy\x97H\xc9R@'
p79
tp80
Rp81
ag10
(g14
S'\xe8\x81\xb5i\x08\x04T@'
p82
tp83
Rp84
ag10
(g14
S'\x89\xa4@\xaa\xd5\x98S@'
p85
tp86
Rp87
ag10
(g14
S'\x04\xa9\x89\xda\x0c\xecO@'
p88
tp89
Rp90
ag10
(g14
S':\x08\xdf5\xb3\x9aP@'
p91
tp92
Rp93
ag10
(g14
S'&\x04p\xc2\xff\x85Q@'
p94
tp95
Rp96
ag10
(g14
S'@{\xb9"g\xb7K@'
p97
tp98
Rp99
ag10
(g14
S'\xbe\xaaN\xb7m\xbbV@'
p100
tp101
Rp102
ag10
(g14
S'\x0f\xaa/^\x07\xaeU@'
p103
tp104
Rp105
ag10
(g14
S'\x87[.v\x8e\x87Q@'
p106
tp107
Rp108
ag10
(g14
S'<\x83ps\xbb\\L@'
p109
tp110
Rp111
ag10
(g14
S'mw\x9b.U\xc7V@'
p112
tp113
Rp114
ag10
(g14
S'\xefPp\xf5]\xb3N@'
p115
tp116
Rp117
ag10
(g14
S'\xce\xaf,\xa0\xfb\xfaL@'
p118
tp119
Rp120
ag10
(g14
S'R\x04\xf0"WHT@'
p121
tp122
Rp123
ag10
(g14
S'7\xe6\xbd\x90R\xc5R@'
p124
tp125
Rp126
ag10
(g14
S'\tDd\xf8\xa9=S@'
p127
tp128
Rp129
ag10
(g14
S'!\xbe\xca\xe4\x03zP@'
p130
tp131
Rp132
ag10
(g14
S'\x15J\x87^\x8c\x16R@'
p133
tp134
Rp135
ag10
(g14
S'\xfb[\t\xbe\x97\x95P@'
p136
tp137
Rp138
asssss.