(dp0
S'../Data/sqlite_2.csv'
p1
(dp2
S'../Data/sqlite_90.csv'
p3
(dp4
F0.05
(dp5
S'mmre'
p6
(dp7
S'bellwether'
p8
(lp9
cnumpy.core.multiarray
scalar
p10
(cnumpy
dtype
p11
(S'f8'
p12
I0
I1
tp13
Rp14
(I3
S'<'
p15
NNNI-1
I-1
I0
tp16
bS'\xe5\xcc\xbb_)BX@'
p17
tp18
Rp19
ag10
(g14
S'\xe0<0\x1cNDX@'
p20
tp21
Rp22
ag10
(g14
S'\x08\x1a\xc8\xeb\x0fBX@'
p23
tp24
Rp25
ag10
(g14
S'\xf0\xe7p\xde\xd5BX@'
p26
tp27
Rp28
ag10
(g14
S'\xaav\xfc\xa6yEX@'
p29
tp30
Rp31
ag10
(g14
S';EY\xa68BX@'
p32
tp33
Rp34
ag10
(g14
S'\xb9\x98fe\x1cCX@'
p35
tp36
Rp37
ag10
(g14
S'\xe9@;a(CX@'
p38
tp39
Rp40
ag10
(g14
S'\xc2\xf5\xa2\xb5DBX@'
p41
tp42
Rp43
ag10
(g14
S'\x97\x19\xdc\x1aOBX@'
p44
tp45
Rp46
ag10
(g14
S'\x88\xfdN\xd9lCX@'
p47
tp48
Rp49
ag10
(g14
S'\xbc\x82K\x8b\x19BX@'
p50
tp51
Rp52
ag10
(g14
S'\xf8q\x81\x00rEX@'
p53
tp54
Rp55
ag10
(g14
S'\xae=\xf9(WDX@'
p56
tp57
Rp58
ag10
(g14
S'<\x9b\xa2#\xe0BX@'
p59
tp60
Rp61
ag10
(g14
S'\x13\xff\x03d\x03EX@'
p62
tp63
Rp64
ag10
(g14
S'CJ\x12T\tBX@'
p65
tp66
Rp67
ag10
(g14
S'\x16R5g\xb1DX@'
p68
tp69
Rp70
ag10
(g14
S'\xaf\xb6+\xdcTDX@'
p71
tp72
Rp73
ag10
(g14
S'\xfa\x9fBa\xa2BX@'
p74
tp75
Rp76
asS'target'
p77
(lp78
g10
(g14
S'\xef\x19\x18\x10_\t@@'
p79
tp80
Rp81
ag10
(g14
S'\xd3 "5\xeb\xa5A@'
p82
tp83
Rp84
ag10
(g14
S'\x99\xb1\xf4\x15\xafWE@'
p85
tp86
Rp87
ag10
(g14
S')\xc6V 3rB@'
p88
tp89
Rp90
ag10
(g14
S'\x8c\xc8\x94\x04SHB@'
p91
tp92
Rp93
ag10
(g14
S'\x8a\xe7\xeb\xf7\xfc\x93?@'
p94
tp95
Rp96
ag10
(g14
S'%\xf1\xe2\xc2\xef\xd1C@'
p97
tp98
Rp99
ag10
(g14
S'J3\xf8\xe5\xcf\x01A@'
p100
tp101
Rp102
ag10
(g14
S'{\x1aWo`&@@'
p103
tp104
Rp105
ag10
(g14
S'\x80\x07\xb0\x8a\x83\xef@@'
p106
tp107
Rp108
ag10
(g14
S'xG\xfap\xfczF@'
p109
tp110
Rp111
ag10
(g14
S'`q\xe2\r\xea\x12A@'
p112
tp113
Rp114
ag10
(g14
S'V\x16\xab\xab*aC@'
p115
tp116
Rp117
ag10
(g14
S'g\x90-r.\xe2D@'
p118
tp119
Rp120
ag10
(g14
S'\x8c\xda@\xc9\x8bOI@'
p121
tp122
Rp123
ag10
(g14
S'\xfd\x80\xcb5\x8f\x9aD@'
p124
tp125
Rp126
ag10
(g14
S'\xafB\xa8\xf3\x0e!A@'
p127
tp128
Rp129
ag10
(g14
S'p^_\xe1o\x12C@'
p130
tp131
Rp132
ag10
(g14
S'\xd3\xd0\xe2L\xcc\xbdC@'
p133
tp134
Rp135
ag10
(g14
S'\xa7=\xf2\xf9\x96\xb4?@'
p136
tp137
Rp138
asssss.