(dp0
S'../Data/sqlite_68.csv'
p1
(dp2
S'../Data/sqlite_85.csv'
p3
(dp4
F0.3
(dp5
S'mmre'
p6
(dp7
S'bellwether'
p8
(lp9
cnumpy.core.multiarray
scalar
p10
(cnumpy
dtype
p11
(S'f8'
p12
I0
I1
tp13
Rp14
(I3
S'<'
p15
NNNI-1
I-1
I0
tp16
bS"\x8b\x8a'\xf2\x82]X@"
p17
tp18
Rp19
ag10
(g14
S'\x12\xa8\xa6\t\xc1]X@'
p20
tp21
Rp22
ag10
(g14
S'.\xb5\xf0\xa6\x18VX@'
p23
tp24
Rp25
ag10
(g14
S'\x07Ym\xe9\xafaX@'
p26
tp27
Rp28
ag10
(g14
S'x\xd8\x19u<YX@'
p29
tp30
Rp31
ag10
(g14
S'\x10\xb8\x11\xfb\x19[X@'
p32
tp33
Rp34
ag10
(g14
S'\xd3\xf8o\xd3\x9f^X@'
p35
tp36
Rp37
ag10
(g14
S'b\xd3F\x16\xc9ZX@'
p38
tp39
Rp40
ag10
(g14
S'\x1bn:q\xf9dX@'
p41
tp42
Rp43
ag10
(g14
S'\x94\x8ey\xbb\xd3^X@'
p44
tp45
Rp46
ag10
(g14
S'\x94\xc9\x95\x83J^X@'
p47
tp48
Rp49
ag10
(g14
S'm\x01*\x1b\xcdWX@'
p50
tp51
Rp52
ag10
(g14
S'\xbb@NE\xfdSX@'
p53
tp54
Rp55
ag10
(g14
S'u\xcd\xd6=+[X@'
p56
tp57
Rp58
ag10
(g14
S'\xd2\xc6,p\xa6^X@'
p59
tp60
Rp61
ag10
(g14
S'\xae&\xddh7_X@'
p62
tp63
Rp64
ag10
(g14
S'P\xc5^V%UX@'
p65
tp66
Rp67
ag10
(g14
S'\x90z@\x8f2`X@'
p68
tp69
Rp70
ag10
(g14
S'p\xb0<\x92r`X@'
p71
tp72
Rp73
ag10
(g14
S'\xb9z\xf4\xa5\xb1^X@'
p74
tp75
Rp76
asS'target'
p77
(lp78
g10
(g14
S'qz\xe3\xd6\xdf\x81R@'
p79
tp80
Rp81
ag10
(g14
S'/2\xf71\x01\x86S@'
p82
tp83
Rp84
ag10
(g14
S'nw~\xe2\x1d\x1eU@'
p85
tp86
Rp87
ag10
(g14
S'\x97\xd8v\x05S#R@'
p88
tp89
Rp90
ag10
(g14
S'\xc4\x12u\x04i\xe3S@'
p91
tp92
Rp93
ag10
(g14
S'?\xd3\x88\xa9)\x8eT@'
p94
tp95
Rp96
ag10
(g14
S'8\xc7\x94\xfbO\xc9R@'
p97
tp98
Rp99
ag10
(g14
S"\xd7'\xe0\xeb,jT@"
p100
tp101
Rp102
ag10
(g14
S'\x9b*\x06\xe9q{Q@'
p103
tp104
Rp105
ag10
(g14
S'\x85j1Ei/Q@'
p106
tp107
Rp108
ag10
(g14
S'\xad&\xaa\xb5-\x92R@'
p109
tp110
Rp111
ag10
(g14
S'\xeeT\xf8\xbd\x05\xcdS@'
p112
tp113
Rp114
ag10
(g14
S'[\xd3\xeb\x99\x94\xf3S@'
p115
tp116
Rp117
ag10
(g14
S'W/\x92^\x97WT@'
p118
tp119
Rp120
ag10
(g14
S'\xed\x99\xdd\x16yyR@'
p121
tp122
Rp123
ag10
(g14
S'\xd7N\xc2R\xa1\xeeS@'
p124
tp125
Rp126
ag10
(g14
S'\xa7\xf8\xe5\xf3\xabBU@'
p127
tp128
Rp129
ag10
(g14
S'%\xc1+\x8c\x16\xfcR@'
p130
tp131
Rp132
ag10
(g14
S'}\x9b\x02\xe3Q\xf2Q@'
p133
tp134
Rp135
ag10
(g14
S'\xa4=\xeb_u\xadR@'
p136
tp137
Rp138
asssss.