(dp0
S'../Data/sqlite_4.csv'
p1
(dp2
S'../Data/sqlite_23.csv'
p3
(dp4
F0.25
(dp5
S'abs_res'
p6
(dp7
S'bellwether'
p8
(lp9
cnumpy.core.multiarray
scalar
p10
(cnumpy
dtype
p11
(S'f8'
p12
I0
I1
tp13
Rp14
(I3
S'<'
p15
NNNI-1
I-1
I0
tp16
bS'\xd0\xe8mY\x15O=A'
p17
tp18
Rp19
ag10
(g14
S'\xdcz\x14\xeeDM=A'
p20
tp21
Rp22
ag10
(g14
S'\xfd\xab\x1cZ\xe2N=A'
p23
tp24
Rp25
ag10
(g14
S'\x12\xe6\x89\xfa\xebN=A'
p26
tp27
Rp28
ag10
(g14
S'\x1av\x05H\xf5M=A'
p29
tp30
Rp31
ag10
(g14
S'S\x80\xdc\xab\xb7M=A'
p32
tp33
Rp34
ag10
(g14
S'j!ij2N=A'
p35
tp36
Rp37
ag10
(g14
S'\xd6\x15 \x97bP=A'
p38
tp39
Rp40
ag10
(g14
S'\xdak.\xe4\xd4M=A'
p41
tp42
Rp43
ag10
(g14
S'\x97\x99\x99\xb9\x0eN=A'
p44
tp45
Rp46
ag10
(g14
S'?Q\xff\x06\x8dN=A'
p47
tp48
Rp49
ag10
(g14
S'\x8c\t\x1e,\xa9N=A'
p50
tp51
Rp52
ag10
(g14
S'\xed&1\xa8(O=A'
p53
tp54
Rp55
ag10
(g14
S'\xe5\x98\xe0!$P=A'
p56
tp57
Rp58
ag10
(g14
S'\x7f0O\xd4~M=A'
p59
tp60
Rp61
ag10
(g14
S'\xa9V\xc7$\x88O=A'
p62
tp63
Rp64
ag10
(g14
S'\x03\xc8\xbd\xc6tP=A'
p65
tp66
Rp67
ag10
(g14
S'\xf4\xd2Mb5M=A'
p68
tp69
Rp70
ag10
(g14
S'\x05\xc8\xbdffO=A'
p71
tp72
Rp73
ag10
(g14
S'\x1f\xf7\x9a\xcb/N=A'
p74
tp75
Rp76
asS'target'
p77
(lp78
g10
(g14
S'n\x14\xaeG\xe1Z;@'
p79
tp80
Rp81
ag10
(g14
S'L\xb6\xf3\xfd\xd4\x08C@'
p82
tp83
Rp84
ag10
(g14
S'\xe4z\x14\xaeGa@@'
p85
tp86
Rp87
ag10
(g14
S'vj\xbct\x938=@'
p88
tp89
Rp90
ag10
(g14
S'n\xe7\xfb\xa9\xf1r;@'
p91
tp92
Rp93
ag10
(g14
S'G\n\xd7\xa3pm@@'
p94
tp95
Rp96
ag10
(g14
S'2^\xbaI\x0c\x02A@'
p97
tp98
Rp99
ag10
(g14
S'B\n\xd7\xa3p\xbd>@'
p100
tp101
Rp102
ag10
(g14
S'\x12\x83\xc0\xca\xa1\xe5:@'
p103
tp104
Rp105
ag10
(g14
S'\xfcS\xe3\xa5\x9b\xc4<@'
p106
tp107
Rp108
ag10
(g14
S'v\xe9&1\x08\x8c<@'
p109
tp110
Rp111
ag10
(g14
S'\x1f\xdb\xf9~j<=@'
p112
tp113
Rp114
ag10
(g14
S'\x8bl\xe7\xfb\xa9Q<@'
p115
tp116
Rp117
ag10
(g14
S'~\xe9&1\x08,<@'
p118
tp119
Rp120
ag10
(g14
S':\x89A`\xe5\x90=@'
p121
tp122
Rp123
ag10
(g14
S'U\xb8\x1e\x85\xeb\xd1=@'
p124
tp125
Rp126
ag10
(g14
S'\x9f\xef\xa7\xc6K\x97@@'
p127
tp128
Rp129
ag10
(g14
S'\x9aC\x8bl\xe7\xfb;@'
p130
tp131
Rp132
ag10
(g14
S'\x84?5^\xba\xe9?@'
p133
tp134
Rp135
ag10
(g14
S'G\xe1z\x14\xaeg?@'
p136
tp137
Rp138
asssss.