(dp0
S'../Data/sqlite_85.csv'
p1
(dp2
S'../Data/sqlite_33.csv'
p3
(dp4
F0.05
(dp5
S'abs_res'
p6
(dp7
S'bellwether'
p8
(lp9
cnumpy.core.multiarray
scalar
p10
(cnumpy
dtype
p11
(S'f8'
p12
I0
I1
tp13
Rp14
(I3
S'<'
p15
NNNI-1
I-1
I0
tp16
bS'G\xb6\xf3\xdd1&ZA'
p17
tp18
Rp19
ag10
(g14
S'\x1bZd\x9bLLZA'
p20
tp21
Rp22
ag10
(g14
S'\xfc,\xb2\xf5\xef+ZA'
p23
tp24
Rp25
ag10
(g14
S'zj\xbc\x9c%BZA'
p26
tp27
Rp28
ag10
(g14
S'\xd7\\H\xd2\x9b;ZA'
p29
tp30
Rp31
ag10
(g14
S'\xd7\xce\xf7{g0ZA'
p32
tp33
Rp34
ag10
(g14
S'H\x8blgiOZA'
p35
tp36
Rp37
ag10
(g14
S'^\xbaI\xbc\xd4JZA'
p38
tp39
Rp40
ag10
(g14
S'X\xb8\x1eM\xe0&ZA'
p41
tp42
Rp43
ag10
(g14
S'B\xb6\xf3%d0ZA'
p44
tp45
Rp46
ag10
(g14
S'\x80\x14\xae\x1f\xbd"ZA'
p47
tp48
Rp49
ag10
(g14
S'U\x0e-\xfa\xd02ZA'
p50
tp51
Rp52
ag10
(g14
S'\xfb*\x87V\xaa,ZA'
p53
tp54
Rp55
ag10
(g14
S"\x98'\xea\xff\x1a!ZA"
p56
tp57
Rp58
ag10
(g14
S'_=\n\x1f\xe5+ZA'
p59
tp60
Rp61
ag10
(g14
S'X\xe5\xd0\xa2U>ZA'
p62
tp63
Rp64
ag10
(g14
S'\x0e\xaeG\x99\xf5;ZA'
p65
tp66
Rp67
ag10
(g14
S'Z\xb8\x1e\xe5\x99<ZA'
p68
tp69
Rp70
ag10
(g14
S'\xf2(\\\xcfw?ZA'
p71
tp72
Rp73
ag10
(g14
S'\x8aA`\xa5v:ZA'
p74
tp75
Rp76
asS'target'
p77
(lp78
g10
(g14
S'\x17\xac\x1cZdcP@'
p79
tp80
Rp81
ag10
(g14
S'\xb9rh\x91\xed\x0cS@'
p82
tp83
Rp84
ag10
(g14
S'\xb2t\x93\x18\x04\x96N@'
p85
tp86
Rp87
ag10
(g14
S'\x07\xd5x\xe9&\x91R@'
p88
tp89
Rp90
ag10
(g14
S'5^\xbaI\x0c\x92Q@'
p91
tp92
Rp93
ag10
(g14
S'Kb\x10X9\x9cQ@'
p94
tp95
Rp96
ag10
(g14
S'!\xaeG\xe1zDM@'
p97
tp98
Rp99
ag10
(g14
S'\xf3\xfb\xa9\xf1\xd2UP@'
p100
tp101
Rp102
ag10
(g14
S']9\xb4\xc8vnQ@'
p103
tp104
Rp105
ag10
(g14
S'\x87l\xe7\xfb\xa9\x81N@'
p106
tp107
Rp108
ag10
(g14
S'u\x95C\x8bl\x97J@'
p109
tp110
Rp111
ag10
(g14
S'\xef|?5^\xeaM@'
p112
tp113
Rp114
ag10
(g14
S'\x18V\x0e-\xb2\xcdO@'
p115
tp116
Rp117
ag10
(g14
S'\x95\xed|?5\xe6Q@'
p118
tp119
Rp120
ag10
(g14
S'\x03\xa8\xc6K7aQ@'
p121
tp122
Rp123
ag10
(g14
S'\x94\xed|?5&R@'
p124
tp125
Rp126
ag10
(g14
S'\xd0x\xe9&1\xc8O@'
p127
tp128
Rp129
ag10
(g14
S'\xbat\x93\x18\x04~P@'
p130
tp131
Rp132
ag10
(g14
S'>\xdd$\x06\x815Q@'
p133
tp134
Rp135
ag10
(g14
S'\r\xd9\xce\xf7SCP@'
p136
tp137
Rp138
asssss.