(dp0
S'../Data/sqlite_59.csv'
p1
(dp2
S'../Data/sqlite_94.csv'
p3
(dp4
F0.1
(dp5
S'mmre'
p6
(dp7
S'bellwether'
p8
(lp9
cnumpy.core.multiarray
scalar
p10
(cnumpy
dtype
p11
(S'f8'
p12
I0
I1
tp13
Rp14
(I3
S'<'
p15
NNNI-1
I-1
I0
tp16
bS'\x1b\xd4\x8e\x88\xb6kW@'
p17
tp18
Rp19
ag10
(g14
S'\xbc!:\xb5\x9fpW@'
p20
tp21
Rp22
ag10
(g14
S'\x11.\xa0\xd0xkW@'
p23
tp24
Rp25
ag10
(g14
S'\x1f\xec?\xb4\xf2mW@'
p26
tp27
Rp28
ag10
(g14
S'V\xaefz\xe6lW@'
p29
tp30
Rp31
ag10
(g14
S'-\xd6;_\x16oW@'
p32
tp33
Rp34
ag10
(g14
S'\xbb/\tQ\x12nW@'
p35
tp36
Rp37
ag10
(g14
S'\xb4\x85\xd8k\x0bmW@'
p38
tp39
Rp40
ag10
(g14
S'kd*\xd4\xcdmW@'
p41
tp42
Rp43
ag10
(g14
S'\xab\xc7@\x02+mW@'
p44
tp45
Rp46
ag10
(g14
S'\xd0\x0b\x95E\xbemW@'
p47
tp48
Rp49
ag10
(g14
S'\x92$\x10M\x02lW@'
p50
tp51
Rp52
ag10
(g14
S'\x9dzv\tUnW@'
p53
tp54
Rp55
ag10
(g14
S'Va\x89\xc3\xc3mW@'
p56
tp57
Rp58
ag10
(g14
S'"+9S\x83mW@'
p59
tp60
Rp61
ag10
(g14
S'\x9a\xcf["\x7foW@'
p62
tp63
Rp64
ag10
(g14
S'"\xda\xac\x05%mW@'
p65
tp66
Rp67
ag10
(g14
S'8\xd1\xfd\xc9\xedlW@'
p68
tp69
Rp70
ag10
(g14
S'\xc1 \xea_\x99mW@'
p71
tp72
Rp73
ag10
(g14
S'\x9e\r\x0ed.mW@'
p74
tp75
Rp76
asS'target'
p77
(lp78
g10
(g14
S'$\xd0k\x10g\xfcJ@'
p79
tp80
Rp81
ag10
(g14
S'\xca\xe1\xf3hq\x8bM@'
p82
tp83
Rp84
ag10
(g14
S'b\xec\xe0b\x17:V@'
p85
tp86
Rp87
ag10
(g14
S'\xb3\xca7\xee\xb7\xf8P@'
p88
tp89
Rp90
ag10
(g14
S'w\x07s$,\x91V@'
p91
tp92
Rp93
ag10
(g14
S'\xcaf\xd0a5\xc1G@'
p94
tp95
Rp96
ag10
(g14
S'\xb4\xe7\x85cz\xc3O@'
p97
tp98
Rp99
ag10
(g14
S'\x05\x83\x8e\xbc\x11\x17I@'
p100
tp101
Rp102
ag10
(g14
S'\x0e\x01\x9a\x9aZaT@'
p103
tp104
Rp105
ag10
(g14
S'\xf8\x87G8y[P@'
p106
tp107
Rp108
ag10
(g14
S'\xf4.\xf6pl\xfeP@'
p109
tp110
Rp111
ag10
(g14
S'\xd9\x10\x9eMO\xc5N@'
p112
tp113
Rp114
ag10
(g14
S'E\xc0^3S\xb4U@'
p115
tp116
Rp117
ag10
(g14
S'0<de]BV@'
p118
tp119
Rp120
ag10
(g14
S'B\x8d\xa4\xc2\xb7\xa8F@'
p121
tp122
Rp123
ag10
(g14
S'\xf57:\x04\xbd\xf9O@'
p124
tp125
Rp126
ag10
(g14
S'`@\xbc\xb0g\xb8[@'
p127
tp128
Rp129
ag10
(g14
S'e\xda\xf9\xea\x11vR@'
p130
tp131
Rp132
ag10
(g14
S'Af\xb2\xa1\x0eJT@'
p133
tp134
Rp135
ag10
(g14
S'\xf0:S\x96\x9dvQ@'
p136
tp137
Rp138
asssss.