(dp0
S'../Data/sqlite_12.csv'
p1
(dp2
S'../Data/sqlite_62.csv'
p3
(dp4
F0.25
(dp5
S'mmre'
p6
(dp7
S'bellwether'
p8
(lp9
cnumpy.core.multiarray
scalar
p10
(cnumpy
dtype
p11
(S'f8'
p12
I0
I1
tp13
Rp14
(I3
S'<'
p15
NNNI-1
I-1
I0
tp16
bS'\xe4\x89\x14b\xfe\x7fE@'
p17
tp18
Rp19
ag10
(g14
S'"\x16$\x01\x99tE@'
p20
tp21
Rp22
ag10
(g14
S'$r\xa1\x8b\x1c\xc6E@'
p23
tp24
Rp25
ag10
(g14
S'\x1d\xdd4\x8es\x93E@'
p26
tp27
Rp28
ag10
(g14
S'\x85\xcd;\x07Z\x83E@'
p29
tp30
Rp31
ag10
(g14
S'\xe3TV\x9f\x9dCE@'
p32
tp33
Rp34
ag10
(g14
S'\xe4!\xa3_\x9acE@'
p35
tp36
Rp37
ag10
(g14
S'\x18M\xffy\xaaVE@'
p38
tp39
Rp40
ag10
(g14
S')N\xe1\xe6)^E@'
p41
tp42
Rp43
ag10
(g14
S'\xc0\xaf\xb0\xd1\xdbnE@'
p44
tp45
Rp46
ag10
(g14
S'/\x12\xcf\xe7aWE@'
p47
tp48
Rp49
ag10
(g14
S'\x86Q\x9f:J\x9dE@'
p50
tp51
Rp52
ag10
(g14
S'9\xae\xe0\xb6\xe2RE@'
p53
tp54
Rp55
ag10
(g14
S'\xed~\xff\x97 |E@'
p56
tp57
Rp58
ag10
(g14
S'\xc6,\xc4TpxE@'
p59
tp60
Rp61
ag10
(g14
S'3\xeem$*\x89E@'
p62
tp63
Rp64
ag10
(g14
S'\x9ap\xcav\x9aJE@'
p65
tp66
Rp67
ag10
(g14
S'|/\xefmHxE@'
p68
tp69
Rp70
ag10
(g14
S'\x81\xe2R\xcd\x89dE@'
p71
tp72
Rp73
ag10
(g14
S'\xfc\xb6\xf5\xa0\x9f\x9aE@'
p74
tp75
Rp76
asS'target'
p77
(lp78
g10
(g14
S'o\x89u\x9f\x1cE!@'
p79
tp80
Rp81
ag10
(g14
S'\x1aLw\xa4bT"@'
p82
tp83
Rp84
ag10
(g14
S'\xa5\xec\x01\ro(!@'
p85
tp86
Rp87
ag10
(g14
S'h_\x9b\x88_\xc4!@'
p88
tp89
Rp90
ag10
(g14
S'\xe8J\x1f \xb3\x82!@'
p91
tp92
Rp93
ag10
(g14
S'\xf1M\xa2\xf3\x18R @'
p94
tp95
Rp96
ag10
(g14
S'\x80K2\x8cc\xeb!@'
p97
tp98
Rp99
ag10
(g14
S'\xa4:\x1b\xd1x` @'
p100
tp101
Rp102
ag10
(g14
S'\x1c\x13\x9d\xbf\x8c\x98!@'
p103
tp104
Rp105
ag10
(g14
S'\x93\xfdd\xd1\xb7\xf5!@'
p106
tp107
Rp108
ag10
(g14
S'\xfc\xbe\xe1\x1b}\xc3!@'
p109
tp110
Rp111
ag10
(g14
S'7\xe8Y\xc6\x92;!@'
p112
tp113
Rp114
ag10
(g14
S'F\xc1^X\xd4\xd3!@'
p115
tp116
Rp117
ag10
(g14
S'bh\xae\n\xea\x07"@'
p118
tp119
Rp120
ag10
(g14
S'Jr\x8d\xbclz!@'
p121
tp122
Rp123
ag10
(g14
S'\xef\x00aR%."@'
p124
tp125
Rp126
ag10
(g14
S'*\xc5V\x03x\xce"@'
p127
tp128
Rp129
ag10
(g14
S'\xe2\xdc\xc6\xdf\xf9Y"@'
p130
tp131
Rp132
ag10
(g14
S't\xb5qgdj#@'
p133
tp134
Rp135
ag10
(g14
S'FX\xf5\xc5\xbd(!@'
p136
tp137
Rp138
asssss.