(dp0
S'../Data/sqlite_13.csv'
p1
(dp2
S'../Data/sqlite_65.csv'
p3
(dp4
F0.15
(dp5
S'abs_res'
p6
(dp7
S'bellwether'
p8
(lp9
cnumpy.core.multiarray
scalar
p10
(cnumpy
dtype
p11
(S'f8'
p12
I0
I1
tp13
Rp14
(I3
S'<'
p15
NNNI-1
I-1
I0
tp16
bS'\xaf\xc6K7UR\xeb@'
p17
tp18
Rp19
ag10
(g14
S'\x86?5^\x06U\xeb@'
p20
tp21
Rp22
ag10
(g14
S'\xf0\xa7\xc6K\xd5P\xeb@'
p23
tp24
Rp25
ag10
(g14
S'_\xbaI\x0c\xf2S\xeb@'
p26
tp27
Rp28
ag10
(g14
S'D5^\xba\x07R\xeb@'
p29
tp30
Rp31
ag10
(g14
S'\x7f\x93\x18\x04lU\xeb@'
p32
tp33
Rp34
ag10
(g14
S'E\xb4\xc8v\x1eV\xeb@'
p35
tp36
Rp37
ag10
(g14
S'{\xe9&1\xbeS\xeb@'
p38
tp39
Rp40
ag10
(g14
S'\xd0>|\x86uS\xeb@'
p41
tp42
Rp43
ag10
(g14
S'\x1d\x04V\x0e\xb1T\xeb@'
p44
tp45
Rp46
ag10
(g14
S'\x0c\x02+\x87\x90V\xeb@'
p47
tp48
Rp49
ag10
(g14
S'9333)S\xeb@'
p50
tp51
Rp52
ag10
(g14
S'l\xad\x8e\t\x04T\xeb@'
p53
tp54
Rp55
ag10
(g14
S'\x00\xc6\x92_\x90V\xeb@'
p56
tp57
Rp58
ag10
(g14
S'\xbc:&x\x84Q\xeb@'
p59
tp60
Rp61
ag10
(g14
S'\xa9\xc6K7\x05R\xeb@'
p62
tp63
Rp64
ag10
(g14
S'4\xa5\xe2\xecCV\xeb@'
p65
tp66
Rp67
ag10
(g14
S'\x03r\xaf\xb9hW\xeb@'
p68
tp69
Rp70
ag10
(g14
S"\xf4\xa7\xc6K'R\xeb@"
p71
tp72
Rp73
ag10
(g14
S'\x13-\xb2\x9dWT\xeb@'
p74
tp75
Rp76
asS'target'
p77
(lp78
g10
(g14
S'A\n\xd7\xa3p\xed[@'
p79
tp80
Rp81
ag10
(g14
S'\xe3x\xe9&1\x88Z@'
p82
tp83
Rp84
ag10
(g14
S'c;\xdfO\x8d)c@'
p85
tp86
Rp87
ag10
(g14
S'4\xdd$\x06\x81q]@'
p88
tp89
Rp90
ag10
(g14
S'\x97C\x8bl\xe7;Y@'
p91
tp92
Rp93
ag10
(g14
S'35^\xbaI\x0c\\@'
p94
tp95
Rp96
ag10
(g14
S'\xc5\xca\xa1E\xb6\xe3Z@'
p97
tp98
Rp99
ag10
(g14
S'\xf8(\\\x8f\xc2U`@'
p100
tp101
Rp102
ag10
(g14
S'\\d;\xdfOI]@'
p103
tp104
Rp105
ag10
(g14
S'`\xe5\xd0"\xdbQY@'
p106
tp107
Rp108
ag10
(g14
S'C\xdfO\x8d\x97.^@'
p109
tp110
Rp111
ag10
(g14
S'\x06\xd5x\xe9&\r[@'
p112
tp113
Rp114
ag10
(g14
S'\xf1\xa7\xc6K7A[@'
p115
tp116
Rp117
ag10
(g14
S'.\x08\xac\x1cZ\xecW@'
p118
tp119
Rp120
ag10
(g14
S'!/\xdd$\x06Q^@'
p121
tp122
Rp123
ag10
(g14
S'\x17-\xb2\x9d\xef[\\@'
p124
tp125
Rp126
ag10
(g14
S'\xac\xc6K7\x89)[@'
p127
tp128
Rp129
ag10
(g14
S'\x05\xd5x\xe9&1Z@'
p130
tp131
Rp132
ag10
(g14
S']d;\xdfO\xc9`@'
p133
tp134
Rp135
ag10
(g14
S'\xf6|?5^\xe2[@'
p136
tp137
Rp138
asssss.