(dp0
S'../Data/sqlite_36.csv'
p1
(dp2
S'../Data/sqlite_77.csv'
p3
(dp4
F0.25
(dp5
S'mmre'
p6
(dp7
S'bellwether'
p8
(lp9
cnumpy.core.multiarray
scalar
p10
(cnumpy
dtype
p11
(S'f8'
p12
I0
I1
tp13
Rp14
(I3
S'<'
p15
NNNI-1
I-1
I0
tp16
bS'\xce\x84\xe9\x93x\\V@'
p17
tp18
Rp19
ag10
(g14
S'\xacDYyG[V@'
p20
tp21
Rp22
ag10
(g14
S'\x9b@P\xd5\xfdWV@'
p23
tp24
Rp25
ag10
(g14
S'\xf9\xbbC\x06\xac]V@'
p26
tp27
Rp28
ag10
(g14
S'R\xa2\xbd=%[V@'
p29
tp30
Rp31
ag10
(g14
S'@;\\(\xd0_V@'
p32
tp33
Rp34
ag10
(g14
S"\xcd\xbf\xa8\xae']V@"
p35
tp36
Rp37
ag10
(g14
S's#\xe5\x84JZV@'
p38
tp39
Rp40
ag10
(g14
S'/\xc4\xdb\xcf?YV@'
p41
tp42
Rp43
ag10
(g14
S'8\xe5\x9e\x17\x97cV@'
p44
tp45
Rp46
ag10
(g14
S')\xfd\x936jaV@'
p47
tp48
Rp49
ag10
(g14
S'3\x85\xea\xa7j]V@'
p50
tp51
Rp52
ag10
(g14
S'\xe0GV0h[V@'
p53
tp54
Rp55
ag10
(g14
S'\xeb}4\xa8\xaf\\V@'
p56
tp57
Rp58
ag10
(g14
S'}\xd1\x04\x03P]V@'
p59
tp60
Rp61
ag10
(g14
S'\x1c\x8f\x7fg\x12YV@'
p62
tp63
Rp64
ag10
(g14
S')4~\xf5\x88ZV@'
p65
tp66
Rp67
ag10
(g14
S'Ul\x92\xbb{YV@'
p68
tp69
Rp70
ag10
(g14
S'\xb4{\xadh]]V@'
p71
tp72
Rp73
ag10
(g14
S'A\x9615\xa9_V@'
p74
tp75
Rp76
asS'target'
p77
(lp78
g10
(g14
S'\xcf\xdf\xf0X\xab*5@'
p79
tp80
Rp81
ag10
(g14
S'\xd0i"\xfd\xf8\xae6@'
p82
tp83
Rp84
ag10
(g14
S'Xc\xa0\xf8\xb0]7@'
p85
tp86
Rp87
ag10
(g14
S'+E\x95\nU\x905@'
p88
tp89
Rp90
ag10
(g14
S'\xfa\x1aX\x94l\xbb5@'
p91
tp92
Rp93
ag10
(g14
S'\x9aa\xf1\xca\x98]5@'
p94
tp95
Rp96
ag10
(g14
S'\xd3]\x04S\x95+6@'
p97
tp98
Rp99
ag10
(g14
S'$\x08\x83\x1fW\x076@'
p100
tp101
Rp102
ag10
(g14
S'\xb1\xc2\xf5S\xb0Q6@'
p103
tp104
Rp105
ag10
(g14
S'\xd9\xf8\xf1\xc8\xbc\x994@'
p106
tp107
Rp108
ag10
(g14
S'J\x9e\xc4nC#6@'
p109
tp110
Rp111
ag10
(g14
S'8\x03]{XV6@'
p112
tp113
Rp114
ag10
(g14
S'\x9a\xb7\x8598\xc06@'
p115
tp116
Rp117
ag10
(g14
S':\x9cB=\xfbF5@'
p118
tp119
Rp120
ag10
(g14
S'\x17\x90\xc2lD\x137@'
p121
tp122
Rp123
ag10
(g14
S'\xa3P\x05\xf51\xc57@'
p124
tp125
Rp126
ag10
(g14
S'Z%\xd4\x0bT46@'
p127
tp128
Rp129
ag10
(g14
S'\x80\xce\x1c\x06C\x076@'
p130
tp131
Rp132
ag10
(g14
S'\xb30\xf8"\xbf`6@'
p133
tp134
Rp135
ag10
(g14
S'B\xe3lU\xf8\x025@'
p136
tp137
Rp138
asssss.