(dp0
S'../Data/sqlite_83.csv'
p1
(dp2
S'../Data/sqlite_84.csv'
p3
(dp4
F0.1
(dp5
S'mmre'
p6
(dp7
S'bellwether'
p8
(lp9
cnumpy.core.multiarray
scalar
p10
(cnumpy
dtype
p11
(S'f8'
p12
I0
I1
tp13
Rp14
(I3
S'<'
p15
NNNI-1
I-1
I0
tp16
bS'\xa7\xd1(\xdb\xab\x7fz@'
p17
tp18
Rp19
ag10
(g14
S'\xea\xfe\xcaZ\xbf\x81z@'
p20
tp21
Rp22
ag10
(g14
S'\xed\xc9\xcbJRrz@'
p23
tp24
Rp25
ag10
(g14
S'\x12\xe2\x12u\x9d\x8dz@'
p26
tp27
Rp28
ag10
(g14
S'\x1fD?\x7f\x93\x89z@'
p29
tp30
Rp31
ag10
(g14
S'\xffB\xad\xe3\x8f}z@'
p32
tp33
Rp34
ag10
(g14
S'\xe0\x12\xca]<hz@'
p35
tp36
Rp37
ag10
(g14
S'2.\xa3\xd9\xe2\x92z@'
p38
tp39
Rp40
ag10
(g14
S'\xdf\x0b\xa8\xd8B\x86z@'
p41
tp42
Rp43
ag10
(g14
S'w\r\x01\xa0%Uz@'
p44
tp45
Rp46
ag10
(g14
S'H\x04\r6jkz@'
p47
tp48
Rp49
ag10
(g14
S'+?\x83G\xe9oz@'
p50
tp51
Rp52
ag10
(g14
S'\x1d\xe9\xc9\xd8ZAz@'
p53
tp54
Rp55
ag10
(g14
S';*}\x90\x8f9z@'
p56
tp57
Rp58
ag10
(g14
S'9Ud6\xc0Qz@'
p59
tp60
Rp61
ag10
(g14
S'\xcf\xf9\xa1\xe7\xa6mz@'
p62
tp63
Rp64
ag10
(g14
S'\xe2\xff[<\xa5pz@'
p65
tp66
Rp67
ag10
(g14
S"9^\x12\xf3'bz@"
p68
tp69
Rp70
ag10
(g14
S'q\xf6;\xa8\xdb\x87z@'
p71
tp72
Rp73
ag10
(g14
S'\xc3\xf6\xbf\x86\xaf{z@'
p74
tp75
Rp76
asS'target'
p77
(lp78
g10
(g14
S'Q=\x03\xc46\xa7W@'
p79
tp80
Rp81
ag10
(g14
S'\xbc\x12\xa5\x17;\xc7J@'
p82
tp83
Rp84
ag10
(g14
S't]ez\x88\xe8X@'
p85
tp86
Rp87
ag10
(g14
S"\xc1\xa6'B\xe9\xf3Z@"
p88
tp89
Rp90
ag10
(g14
S'Y\xbf\x87\xe0\x91j[@'
p91
tp92
Rp93
ag10
(g14
S'KuG}\xe6\xeaI@'
p94
tp95
Rp96
ag10
(g14
S'\xb95:\x95\xc6zO@'
p97
tp98
Rp99
ag10
(g14
S'e\xa6\x1aR\x8aiR@'
p100
tp101
Rp102
ag10
(g14
S'7\x7fg\xb6\xb1\x87N@'
p103
tp104
Rp105
ag10
(g14
S'g\xb9~\x8cZ\x8eP@'
p106
tp107
Rp108
ag10
(g14
S'@\n:9dWF@'
p109
tp110
Rp111
ag10
(g14
S'\xaa\xe6\x9f\t\xdc\xb2F@'
p112
tp113
Rp114
ag10
(g14
S'H3N\xe1Z\x0bL@'
p115
tp116
Rp117
ag10
(g14
S'r&\xa3\xa2Q"\\@'
p118
tp119
Rp120
ag10
(g14
S'\x84\xfa\xa3\xed\xe69E@'
p121
tp122
Rp123
ag10
(g14
S'\x8d\xb4&\x8d[\x80S@'
p124
tp125
Rp126
ag10
(g14
S'\x8b\xe3\x11&jnT@'
p127
tp128
Rp129
ag10
(g14
S'Ls\x8a#~\xabQ@'
p130
tp131
Rp132
ag10
(g14
S'_\xe2r\xb2\xf5?`@'
p133
tp134
Rp135
ag10
(g14
S'\xdf%\xe0Q`9S@'
p136
tp137
Rp138
asssss.