(dp0
S'../Data/sqlite_56.csv'
p1
(dp2
S'../Data/sqlite_59.csv'
p3
(dp4
F0.2
(dp5
S'mmre'
p6
(dp7
S'bellwether'
p8
(lp9
cnumpy.core.multiarray
scalar
p10
(cnumpy
dtype
p11
(S'f8'
p12
I0
I1
tp13
Rp14
(I3
S'<'
p15
NNNI-1
I-1
I0
tp16
bS'<\xa3v+\x1eUC@'
p17
tp18
Rp19
ag10
(g14
S'\xa2\xe0(0\x02hC@'
p20
tp21
Rp22
ag10
(g14
S'\xf8|+\xdf\xb8DC@'
p23
tp24
Rp25
ag10
(g14
S'\x96.n\x13iVC@'
p26
tp27
Rp28
ag10
(g14
S'\xa6\xb9g$\xd5FC@'
p29
tp30
Rp31
ag10
(g14
S'\x88BT\x85\xa6`C@'
p32
tp33
Rp34
ag10
(g14
S'\x93\x05a\xb3\xdcJC@'
p35
tp36
Rp37
ag10
(g14
S'7\x04\x83\xb1@SC@'
p38
tp39
Rp40
ag10
(g14
S'\xecL\x06oIbC@'
p41
tp42
Rp43
ag10
(g14
S'8\xb4\x06\x16nUC@'
p44
tp45
Rp46
ag10
(g14
S'N\xca,\xee\xa8QC@'
p47
tp48
Rp49
ag10
(g14
S'\xa1m&\xc0\xb9[C@'
p50
tp51
Rp52
ag10
(g14
S'`\x7f\xf0@ulC@'
p53
tp54
Rp55
ag10
(g14
S';W\xf4\xb3\x00YC@'
p56
tp57
Rp58
ag10
(g14
S'\x80\x8c\xab-\xb5NC@'
p59
tp60
Rp61
ag10
(g14
S'\xa6x\x1as\xe8HC@'
p62
tp63
Rp64
ag10
(g14
S'\xba\x94\xbcD\x01TC@'
p65
tp66
Rp67
ag10
(g14
S'\x95A\x155CXC@'
p68
tp69
Rp70
ag10
(g14
S'\x91*\x0b\xe2\xcdcC@'
p71
tp72
Rp73
ag10
(g14
S'\x92\xf0E\r\x19UC@'
p74
tp75
Rp76
asS'target'
p77
(lp78
g10
(g14
S'\xc6rj\xc7Vg%@'
p79
tp80
Rp81
ag10
(g14
S'\xc2\xea\xed\x0e\x16\xd3%@'
p82
tp83
Rp84
ag10
(g14
S'\xb2\xffzj\x16\xcb%@'
p85
tp86
Rp87
ag10
(g14
S"\x94:\x9fB_\x03'@"
p88
tp89
Rp90
ag10
(g14
S'R\xb4D\xd9\x93\xec(@'
p91
tp92
Rp93
ag10
(g14
S'\x12\xc9\x9f&\x08\xb6&@'
p94
tp95
Rp96
ag10
(g14
S'T>\x00\xc8\re&@'
p97
tp98
Rp99
ag10
(g14
S'F6\x853:G(@'
p100
tp101
Rp102
ag10
(g14
S't\xa4\rGU\t%@'
p103
tp104
Rp105
ag10
(g14
S'\xe9\xfd\xfa\x07\xac9&@'
p106
tp107
Rp108
ag10
(g14
S'\x1a\xaaxM\xe4\xa9(@'
p109
tp110
Rp111
ag10
(g14
S'\xf1\xcb\xa8i\xa8A$@'
p112
tp113
Rp114
ag10
(g14
S'\x89dXlin&@'
p115
tp116
Rp117
ag10
(g14
S'\xab5\x95\xef\xf5\x08%@'
p118
tp119
Rp120
ag10
(g14
S',z:g\x83\xe7%@'
p121
tp122
Rp123
ag10
(g14
S"\xc2K4\x80j\xd7'@"
p124
tp125
Rp126
ag10
(g14
S'\x8c\x1e\xd9\x94\x8b\xcb%@'
p127
tp128
Rp129
ag10
(g14
S'\xd6\x0f1C\xdb\xfc%@'
p130
tp131
Rp132
ag10
(g14
S'\xa4\xdc\xc0i\xf3\x8d#@'
p133
tp134
Rp135
ag10
(g14
S'\xa6LP\x04\xd2_%@'
p136
tp137
Rp138
asssss.