(dp0
S'../Data/sqlite_7.csv'
p1
(dp2
S'../Data/sqlite_77.csv'
p3
(dp4
F0.05
(dp5
S'mmre'
p6
(dp7
S'bellwether'
p8
(lp9
cnumpy.core.multiarray
scalar
p10
(cnumpy
dtype
p11
(S'f8'
p12
I0
I1
tp13
Rp14
(I3
S'<'
p15
NNNI-1
I-1
I0
tp16
bS'\xd2\xb5\x92\n\xbaAN@'
p17
tp18
Rp19
ag10
(g14
S'\x14Q7\x931FN@'
p20
tp21
Rp22
ag10
(g14
S'9\xd4\x17}\x83.N@'
p23
tp24
Rp25
ag10
(g14
S'}\x11lGN>N@'
p26
tp27
Rp28
ag10
(g14
S'3\xb3g\xa9\nGN@'
p29
tp30
Rp31
ag10
(g14
S'\xd7\xd7\xe0\x92]5N@'
p32
tp33
Rp34
ag10
(g14
S'o6?\xd3\xe8MN@'
p35
tp36
Rp37
ag10
(g14
S'vZu\x9c\xbfAN@'
p38
tp39
Rp40
ag10
(g14
S'}\x1cY\xfc\xfd5N@'
p41
tp42
Rp43
ag10
(g14
S'\xce;\x14yi)N@'
p44
tp45
Rp46
ag10
(g14
S'&+\x11cE>N@'
p47
tp48
Rp49
ag10
(g14
S'k0\xecz\x0f<N@'
p50
tp51
Rp52
ag10
(g14
S'\xf0\xb4\xee\xe4{AN@'
p53
tp54
Rp55
ag10
(g14
S'\xc7\xa9\t\xcc\xa0>N@'
p56
tp57
Rp58
ag10
(g14
S'\xb8\xb5\xa7\x84\x89EN@'
p59
tp60
Rp61
ag10
(g14
S'\x8aMf\x91\xe5=N@'
p62
tp63
Rp64
ag10
(g14
S'\x9b\xd2\x05\xb4R@N@'
p65
tp66
Rp67
ag10
(g14
S'\xd1O\xab\x1b\xc44N@'
p68
tp69
Rp70
ag10
(g14
S'\xfa\xb25h\x978N@'
p71
tp72
Rp73
ag10
(g14
S'sfo\xba\xa0?N@'
p74
tp75
Rp76
asS'target'
p77
(lp78
g10
(g14
S'\xdb\xebz\x9d\x98\x155@'
p79
tp80
Rp81
ag10
(g14
S'\x0fh7\xa4\xab\xcf7@'
p82
tp83
Rp84
ag10
(g14
S'\x0bj\x84y\xfc(9@'
p85
tp86
Rp87
ag10
(g14
S'\xe4\x15\xb8\x8d\xc9\xcf5@'
p88
tp89
Rp90
ag10
(g14
S'39\x1d\x04\x03\x146@'
p91
tp92
Rp93
ag10
(g14
S"\xbc`'\xc3_\x906@"
p94
tp95
Rp96
ag10
(g14
S"\x1c'q>\xbc\xca5@"
p97
tp98
Rp99
ag10
(g14
S'\x96\xd2\xfc\xa6\x0c\xa07@'
p100
tp101
Rp102
ag10
(g14
S'\xa77\x1c \xc9\xaf5@'
p103
tp104
Rp105
ag10
(g14
S'\x19\xd1\xc7SVa5@'
p106
tp107
Rp108
ag10
(g14
S'\xe1\x9f\x99\xb6\xe1\xcd5@'
p109
tp110
Rp111
ag10
(g14
S'\xe6\x93w\x8aS\xd45@'
p112
tp113
Rp114
ag10
(g14
S'rd\xf6\x024\xce5@'
p115
tp116
Rp117
ag10
(g14
S'\xdb\x0e\xfb+)\xe06@'
p118
tp119
Rp120
ag10
(g14
S'89\xa7\x15\xd7\xce5@'
p121
tp122
Rp123
ag10
(g14
S'\x89FO\xd6O\xfc8@'
p124
tp125
Rp126
ag10
(g14
S'4;\xa553\xae5@'
p127
tp128
Rp129
ag10
(g14
S'\xe0\xd4k6\xf2\xe94@'
p130
tp131
Rp132
ag10
(g14
S'>\xd8\xdcNe`6@'
p133
tp134
Rp135
ag10
(g14
S'N\x8cHM\xf278@'
p136
tp137
Rp138
asssss.