(dp0
S'../Data/sqlite_9.csv'
p1
(dp2
S'../Data/sqlite_97.csv'
p3
(dp4
F0.35
(dp5
S'mmre'
p6
(dp7
S'bellwether'
p8
(lp9
cnumpy.core.multiarray
scalar
p10
(cnumpy
dtype
p11
(S'f8'
p12
I0
I1
tp13
Rp14
(I3
S'<'
p15
NNNI-1
I-1
I0
tp16
bS'\xe5\xd55\xd0\x8fAX@'
p17
tp18
Rp19
ag10
(g14
S'<\xa7DC6?X@'
p20
tp21
Rp22
ag10
(g14
S'G&/\x0c\xd1>X@'
p23
tp24
Rp25
ag10
(g14
S'\x15n0*#AX@'
p26
tp27
Rp28
ag10
(g14
S'G8\x90\xe3\x13AX@'
p29
tp30
Rp31
ag10
(g14
S'f(\r\xfaH>X@'
p32
tp33
Rp34
ag10
(g14
S'\x1br\x0b\xf1n@X@'
p35
tp36
Rp37
ag10
(g14
S'\xc0}7N\xd0?X@'
p38
tp39
Rp40
ag10
(g14
S']h\xe3\xee\x8d@X@'
p41
tp42
Rp43
ag10
(g14
S'\xd6Mo}\xd2>X@'
p44
tp45
Rp46
ag10
(g14
S'\x0fR\xe0^5AX@'
p47
tp48
Rp49
ag10
(g14
S'Bk\xedn\xb9>X@'
p50
tp51
Rp52
ag10
(g14
S'H\x9e\xae\x89\x01@X@'
p53
tp54
Rp55
ag10
(g14
S'_v&\xcd\xe4<X@'
p56
tp57
Rp58
ag10
(g14
S'\xab\x8b\xed\xa6\xd2=X@'
p59
tp60
Rp61
ag10
(g14
S'8\xc2\x13[\x15@X@'
p62
tp63
Rp64
ag10
(g14
S'\x94+\xe1u\x05?X@'
p65
tp66
Rp67
ag10
(g14
S'\x00\x98\x86\x84\xe1>X@'
p68
tp69
Rp70
ag10
(g14
S'\x92\x0b7\xe9n?X@'
p71
tp72
Rp73
ag10
(g14
S'\x1dD\x15\x14\x1a@X@'
p74
tp75
Rp76
asS'target'
p77
(lp78
g10
(g14
S'\x17?\x1d6e\xa9P@'
p79
tp80
Rp81
ag10
(g14
S'v\x1d\x08\xd4tBX@'
p82
tp83
Rp84
ag10
(g14
S't\xc3\x1d1\xca\xf7W@'
p85
tp86
Rp87
ag10
(g14
S'\x1f\xeb\xfb\xa9a\x00N@'
p88
tp89
Rp90
ag10
(g14
S'\x9b\xee\xd9Q E]@'
p91
tp92
Rp93
ag10
(g14
S'\n\xd2\x91j\x0e\xabU@'
p94
tp95
Rp96
ag10
(g14
S'\xf5\x8b\x01\x8b)FP@'
p97
tp98
Rp99
ag10
(g14
S'\x01\xd0\xfe]\x11VP@'
p100
tp101
Rp102
ag10
(g14
S"T\xf0'\xc0\x1b\xc7Q@"
p103
tp104
Rp105
ag10
(g14
S'\x9d\xe2C\xbcv\xcdV@'
p106
tp107
Rp108
ag10
(g14
S'Q\xce\x10,I<T@'
p109
tp110
Rp111
ag10
(g14
S'\xbf\xf0*\xa1\x89oX@'
p112
tp113
Rp114
ag10
(g14
S'\xbd\xa3\x8a.\x96}R@'
p115
tp116
Rp117
ag10
(g14
S'\x1ce\xc4\xeb\x92)T@'
p118
tp119
Rp120
ag10
(g14
S'\x97\xd0E\xf3\t[\\@'
p121
tp122
Rp123
ag10
(g14
S'\xa5\xe4\xb2@\x97YY@'
p124
tp125
Rp126
ag10
(g14
S'\xa0b\xa7ZOdN@'
p127
tp128
Rp129
ag10
(g14
S'3\xdci\xf3C*S@'
p130
tp131
Rp132
ag10
(g14
S'\x0f\xc4\x19\xf6\xa4\xf9P@'
p133
tp134
Rp135
ag10
(g14
S'\x11\xc8\xd5S\xff\xf5P@'
p136
tp137
Rp138
asssss.