(dp0
S'../Data/sqlite_1.csv'
p1
(dp2
S'../Data/sqlite_50.csv'
p3
(dp4
F0.15
(dp5
S'abs_res'
p6
(dp7
S'bellwether'
p8
(lp9
cnumpy.core.multiarray
scalar
p10
(cnumpy
dtype
p11
(S'f8'
p12
I0
I1
tp13
Rp14
(I3
S'<'
p15
NNNI-1
I-1
I0
tp16
bS'\xd4Mb0\x98K@A'
p17
tp18
Rp19
ag10
(g14
S'\x02\x1c\xa1<\xd7K@A'
p20
tp21
Rp22
ag10
(g14
S'x\x93\x18\x94\xe1K@A'
p23
tp24
Rp25
ag10
(g14
S'M\xe1z\x84\xdfJ@A'
p26
tp27
Rp28
ag10
(g14
S'\x94_,\x99\x10K@A'
p29
tp30
Rp31
ag10
(g14
S'\xdek.\xa4\xfbJ@A'
p32
tp33
Rp34
ag10
(g14
S'9\xb4\xc8\xd6\xc7J@A'
p35
tp36
Rp37
ag10
(g14
S' >\xc3\x0e\x92K@A'
p38
tp39
Rp40
ag10
(g14
S'Mb\x10\xc8\xbeK@A'
p41
tp42
Rp43
ag10
(g14
S'\x84\xdck.vK@A'
p44
tp45
Rp46
ag10
(g14
S'\x91l\xe7\xbb\x84J@A'
p47
tp48
Rp49
ag10
(g14
S'\xb9\x02\xe4\x0e\xffJ@A'
p50
tp51
Rp52
ag10
(g14
S'+1\x08|\x9aK@A'
p53
tp54
Rp55
ag10
(g14
S'\xea\xfb\xa9a\x86K@A'
p56
tp57
Rp58
ag10
(g14
S'\x9f6\xd0\xa9kK@A'
p59
tp60
Rp61
ag10
(g14
S'\xc1<Q\x9fMK@A'
p62
tp63
Rp64
ag10
(g14
S'*\x87\x16I\xc8K@A'
p65
tp66
Rp67
ag10
(g14
S'\x9eaW\x00EK@A'
p68
tp69
Rp70
ag10
(g14
S'\xb0\x9d\xef7~K@A'
p71
tp72
Rp73
ag10
(g14
S'q\xbe\x9f\xea\xecJ@A'
p74
tp75
Rp76
asS'target'
p77
(lp78
g10
(g14
S'\x1e\xb0rh\x915[@'
p79
tp80
Rp81
ag10
(g14
S'\xa8E\xb6\xf3\xfd\xa4\\@'
p82
tp83
Rp84
ag10
(g14
S'\xc2K7\x89A\xe0[@'
p85
tp86
Rp87
ag10
(g14
S'ed;\xdfOm[@'
p88
tp89
Rp90
ag10
(g14
S'Xb\x10X9\x0cZ@'
p91
tp92
Rp93
ag10
(g14
S'r;\xdfO\x8d_Y@'
p94
tp95
Rp96
ag10
(g14
S'\xbe\xa1E\xb6\xf3\xcdZ@'
p97
tp98
Rp99
ag10
(g14
S'\xd0Mb\x10Xq[@'
p100
tp101
Rp102
ag10
(g14
S'\xfeS\xe3\xa5\x9b,Z@'
p103
tp104
Rp105
ag10
(g14
S'\xa8\x1a/\xdd$\x06]@'
p106
tp107
Rp108
ag10
(g14
S'%\x04V\x0e-\x12_@'
p109
tp110
Rp111
ag10
(g14
S'\xcd\xf7S\xe3\xa5\xf7\\@'
p112
tp113
Rp114
ag10
(g14
S'\x90\x16\xd9\xce\xf7\x8b\\@'
p115
tp116
Rp117
ag10
(g14
S'\xcfx\xe9&1\xb4Z@'
p118
tp119
Rp120
ag10
(g14
S'W\x10X9\xb4\xc0Z@'
p121
tp122
Rp123
ag10
(g14
S'\xfc\xd4x\xe9&Q[@'
p124
tp125
Rp126
ag10
(g14
S'a\x10X9\xb4\xdcZ@'
p127
tp128
Rp129
ag10
(g14
S'\xe9Q\xb8\x1e\x85\xb3Z@'
p130
tp131
Rp132
ag10
(g14
S'\xfa\xa7\xc6K7\xd1[@'
p133
tp134
Rp135
ag10
(g14
S'\xf6\xa7\xc6K7\xc1Y@'
p136
tp137
Rp138
asssss.