(dp0
S'../Data/sqlite_28.csv'
p1
(dp2
S'../Data/sqlite_90.csv'
p3
(dp4
F0.05
(dp5
S'mmre'
p6
(dp7
S'bellwether'
p8
(lp9
cnumpy.core.multiarray
scalar
p10
(cnumpy
dtype
p11
(S'f8'
p12
I0
I1
tp13
Rp14
(I3
S'<'
p15
NNNI-1
I-1
I0
tp16
bS'KX[\xc9\x9ddW@'
p17
tp18
Rp19
ag10
(g14
S'\xc6jQS\x98dW@'
p20
tp21
Rp22
ag10
(g14
S'\xca\xd7:\x8e\x93dW@'
p23
tp24
Rp25
ag10
(g14
S'k\xce9\x94LeW@'
p26
tp27
Rp28
ag10
(g14
S'\x86\xe9\xb7\x9e\xd6dW@'
p29
tp30
Rp31
ag10
(g14
S'\xd6};qFkW@'
p32
tp33
Rp34
ag10
(g14
S'\xbatQ\xe2\xb7fW@'
p35
tp36
Rp37
ag10
(g14
S'\xe5\x86F\x1e\xa9dW@'
p38
tp39
Rp40
ag10
(g14
S'l\x9d\xf9\x05,gW@'
p41
tp42
Rp43
ag10
(g14
S'Z\x91\xffP\x93eW@'
p44
tp45
Rp46
ag10
(g14
S')\xa7i\xdb\x11eW@'
p47
tp48
Rp49
ag10
(g14
S'\x14\xd4\x1c\xda\xd6kW@'
p50
tp51
Rp52
ag10
(g14
S'\xfe\xd0qL\xfdiW@'
p53
tp54
Rp55
ag10
(g14
S'\xb1\x9b.\xeexeW@'
p56
tp57
Rp58
ag10
(g14
S'\xf7\x82^h\xa4jW@'
p59
tp60
Rp61
ag10
(g14
S'C|\xee\xe8&dW@'
p62
tp63
Rp64
ag10
(g14
S'\xb6\xf1\xe5!\xd2dW@'
p65
tp66
Rp67
ag10
(g14
S':\xe0\x07~\xddgW@'
p68
tp69
Rp70
ag10
(g14
S'\xfdY\xc7\x1d\xfbgW@'
p71
tp72
Rp73
ag10
(g14
S'\x94\xbd\x9a}odW@'
p74
tp75
Rp76
asS'target'
p77
(lp78
g10
(g14
S'\x97kE\x9dE\xc2A@'
p79
tp80
Rp81
ag10
(g14
S"~&\x03\xf9\xf0'A@"
p82
tp83
Rp84
ag10
(g14
S'\xebf\xf4\x8c\xacH@@'
p85
tp86
Rp87
ag10
(g14
S'\x03`\xe9\x82e}>@'
p88
tp89
Rp90
ag10
(g14
S'Jn\x87\xf4L\xb3@@'
p91
tp92
Rp93
ag10
(g14
S'(\xb9\xe7\n3\xeaA@'
p94
tp95
Rp96
ag10
(g14
S'2\x89\xa5\x865\xf8A@'
p97
tp98
Rp99
ag10
(g14
S'\xffW\x07Z\xfa\xe9B@'
p100
tp101
Rp102
ag10
(g14
S'\x8aC5]\x0e\xd7B@'
p103
tp104
Rp105
ag10
(g14
S'_\xe4\x8d!\xac)@@'
p106
tp107
Rp108
ag10
(g14
S'\xd9\xcc\x90&K\xc6@@'
p109
tp110
Rp111
ag10
(g14
S'*\x17\xda@&cC@'
p112
tp113
Rp114
ag10
(g14
S'\\v\xd5\x81rtA@'
p115
tp116
Rp117
ag10
(g14
S'Eo\xc3\xd4\x02\x94=@'
p118
tp119
Rp120
ag10
(g14
S'6\x87\xe2 \xdd\xaaC@'
p121
tp122
Rp123
ag10
(g14
S'\xb9\x86\x1e]\xaf\xa0@@'
p124
tp125
Rp126
ag10
(g14
S'\x89@\x8f\xf8\xb9\xd4@@'
p127
tp128
Rp129
ag10
(g14
S'@oG)\x99yE@'
p130
tp131
Rp132
ag10
(g14
S'\xaeYcM\xfacA@'
p133
tp134
Rp135
ag10
(g14
S'T0\xdf?\xb5Y?@'
p136
tp137
Rp138
asssss.