(dp0
S'../Data/sqlite_60.csv'
p1
(dp2
S'../Data/sqlite_16.csv'
p3
(dp4
F0.25
(dp5
S'abs_res'
p6
(dp7
S'bellwether'
p8
(lp9
cnumpy.core.multiarray
scalar
p10
(cnumpy
dtype
p11
(S'f8'
p12
I0
I1
tp13
Rp14
(I3
S'<'
p15
NNNI-1
I-1
I0
tp16
bS'A\xee5\x93\xf9YeA'
p17
tp18
Rp19
ag10
(g14
S'\x81?5\xa2\x07WeA'
p20
tp21
Rp22
ag10
(g14
S'\x9c}\xf8\xc0\xb8UeA'
p23
tp24
Rp25
ag10
(g14
S'\x14\xca\xe8%\x8a^eA'
p26
tp27
Rp28
ag10
(g14
S'q\x842\xe2\xda_eA'
p29
tp30
Rp31
ag10
(g14
S'5\xec\n\xfc\xbe_eA'
p32
tp33
Rp34
ag10
(g14
S'\xdc\x96\xb5B\x13ZeA'
p35
tp36
Rp37
ag10
(g14
S'\xd01\xc1\xff\xa6aeA'
p38
tp39
Rp40
ag10
(g14
S'\xe7^s\xfd!deA'
p41
tp42
Rp43
ag10
(g14
S'\xb1+@\xaekQeA'
p44
tp45
Rp46
ag10
(g14
S'\xb7\x0f\x9fE\xb6beA'
p47
tp48
Rp49
ag10
(g14
S'"iJ=&[eA'
p50
tp51
Rp52
ag10
(g14
S'\xdc\x87\xcf\x08\x15eeA'
p53
tp54
Rp55
ag10
(g14
S'\xf7(\\\x87\xbd\\eA'
p56
tp57
Rp58
ag10
(g14
S'\x028BmVbeA'
p59
tp60
Rp61
ag10
(g14
S'|\xf8\x0c\xa7~ceA'
p62
tp63
Rp64
ag10
(g14
S'\xacG\xe1\xe6ZVeA'
p65
tp66
Rp67
ag10
(g14
S'WFo\xef0YeA'
p68
tp69
Rp70
ag10
(g14
S'F\n\xd7[,]eA'
p71
tp72
Rp73
ag10
(g14
S'\xbct\x93$`]eA'
p74
tp75
Rp76
asS'target'
p77
(lp78
g10
(g14
S'\x92A`\xe5\xd0\xd2H@'
p79
tp80
Rp81
ag10
(g14
S'\x07X9\xb4\xc8\x8eJ@'
p82
tp83
Rp84
ag10
(g14
S'u\xe9&1\x08lI@'
p85
tp86
Rp87
ag10
(g14
S'\xbft\x93\x18\x04>I@'
p88
tp89
Rp90
ag10
(g14
S'\xaa\xc6K7\x899K@'
p91
tp92
Rp93
ag10
(g14
S'affff\xa6I@'
p94
tp95
Rp96
ag10
(g14
S'\x10/\xdd$\x06\xb1K@'
p97
tp98
Rp99
ag10
(g14
S'\xdeMb\x10XAK@'
p100
tp101
Rp102
ag10
(g14
S'\xbd\x1e\x85\xebQXI@'
p103
tp104
Rp105
ag10
(g14
S'c\xbaI\x0c\x02\x93H@'
p106
tp107
Rp108
ag10
(g14
S'\xf8\xa9\xf1\xd2M\nI@'
p109
tp110
Rp111
ag10
(g14
S'G\x89A`\xe5\x10N@'
p112
tp113
Rp114
ag10
(g14
S'2\xb2\x9d\xef\xa7\xf6I@'
p115
tp116
Rp117
ag10
(g14
S'b\x8f\xc2\xf5(\x1cI@'
p118
tp119
Rp120
ag10
(g14
S'\x08\xd7\xa3p=\xeaG@'
p121
tp122
Rp123
ag10
(g14
S'\xde\xce\xf7S\xe3\xe5I@'
p124
tp125
Rp126
ag10
(g14
S'\x90A`\xe5\xd0\xa2K@'
p127
tp128
Rp129
ag10
(g14
S')\x04V\x0e-\xa2J@'
p130
tp131
Rp132
ag10
(g14
S'j.$M\xa9\xb8H@'
p133
tp134
Rp135
ag10
(g14
S'th\x91\xed|GI@'
p136
tp137
Rp138
asssss.