(dp0
S'../Data/sqlite_65.csv'
p1
(dp2
S'../Data/sqlite_89.csv'
p3
(dp4
F0.4
(dp5
S'mmre'
p6
(dp7
S'bellwether'
p8
(lp9
cnumpy.core.multiarray
scalar
p10
(cnumpy
dtype
p11
(S'f8'
p12
I0
I1
tp13
Rp14
(I3
S'<'
p15
NNNI-1
I-1
I0
tp16
bS'L\x9f\xf0\xef\xa6,U@'
p17
tp18
Rp19
ag10
(g14
S'\rsCF\x984U@'
p20
tp21
Rp22
ag10
(g14
S'\xb6S\xb6\xb7t3U@'
p23
tp24
Rp25
ag10
(g14
S'\xf5\x93s\xd9\x85*U@'
p26
tp27
Rp28
ag10
(g14
S"\x9b'R\x0ei.U@"
p29
tp30
Rp31
ag10
(g14
S'\x8bGL\x18N*U@'
p32
tp33
Rp34
ag10
(g14
S'l\x84\xf8\xc4\x89(U@'
p35
tp36
Rp37
ag10
(g14
S'\x1dU&1Y%U@'
p38
tp39
Rp40
ag10
(g14
S'j\x18\xd0D\xd54U@'
p41
tp42
Rp43
ag10
(g14
S'\xe9O*oK.U@'
p44
tp45
Rp46
ag10
(g14
S'\xe1\x9cM(F(U@'
p47
tp48
Rp49
ag10
(g14
S"\xb3\xa8\x87\xc2r'U@"
p50
tp51
Rp52
ag10
(g14
S'\xff\xd4\x7f#r)U@'
p53
tp54
Rp55
ag10
(g14
S' ?M\x18\x8c7U@'
p56
tp57
Rp58
ag10
(g14
S'\x81\xc8w\xe2\xfa3U@'
p59
tp60
Rp61
ag10
(g14
S'Q\xe4\x00\xfc\xd09U@'
p62
tp63
Rp64
ag10
(g14
S'\x13\x02\x07\x94O-U@'
p65
tp66
Rp67
ag10
(g14
S'\x9fRA\xf4\xa1*U@'
p68
tp69
Rp70
ag10
(g14
S'6\xd1\xe6\x08\xe7;U@'
p71
tp72
Rp73
ag10
(g14
S'\x15C\x0c\x0b\x154U@'
p74
tp75
Rp76
asS'target'
p77
(lp78
g10
(g14
S'Vj4\xc8\xb07S@'
p79
tp80
Rp81
ag10
(g14
S'\x81\x15r\xb2I\\R@'
p82
tp83
Rp84
ag10
(g14
S'\xc3\xce\xe6\x1bQ&P@'
p85
tp86
Rp87
ag10
(g14
S'\x08\x068b\x92;Q@'
p88
tp89
Rp90
ag10
(g14
S',\xab\x01\x9e\xd9\xa4Q@'
p91
tp92
Rp93
ag10
(g14
S'\xdb.\xeb\x1b\x87*R@'
p94
tp95
Rp96
ag10
(g14
S'Q\x1e7\x8d\xe8\xd3R@'
p97
tp98
Rp99
ag10
(g14
S'\xcdXa\xd2P\xbdM@'
p100
tp101
Rp102
ag10
(g14
S'\x1d\x0f\x91\xecdXP@'
p103
tp104
Rp105
ag10
(g14
S'\t\xc1\xae\x94\xf7\xd8T@'
p106
tp107
Rp108
ag10
(g14
S'\x0b{\x1c&\xa9\x1fT@'
p109
tp110
Rp111
ag10
(g14
S'\xf8Z1W\xe0\xe5S@'
p112
tp113
Rp114
ag10
(g14
S'\xdd\xf2\xd4\xc2\xce\xb4P@'
p115
tp116
Rp117
ag10
(g14
S'J<\x0c\x10\xab>O@'
p118
tp119
Rp120
ag10
(g14
S'\xddY\xcc9\xe4\x1cS@'
p121
tp122
Rp123
ag10
(g14
S'\xd3\x80\xf9\xdc|\xb2O@'
p124
tp125
Rp126
ag10
(g14
S'/U\xdfk\xe7\xcfP@'
p127
tp128
Rp129
ag10
(g14
S'.y\xc8]\xb0\xefP@'
p130
tp131
Rp132
ag10
(g14
S'\x02\x83TS\x18sP@'
p133
tp134
Rp135
ag10
(g14
S'\x9adiQ\x81\x85P@'
p136
tp137
Rp138
asssss.