(dp0
S'../Data/sqlite_64.csv'
p1
(dp2
S'../Data/sqlite_77.csv'
p3
(dp4
F0.25
(dp5
S'mmre'
p6
(dp7
S'bellwether'
p8
(lp9
cnumpy.core.multiarray
scalar
p10
(cnumpy
dtype
p11
(S'f8'
p12
I0
I1
tp13
Rp14
(I3
S'<'
p15
NNNI-1
I-1
I0
tp16
bS'\x89YF\x0c\xebHS@'
p17
tp18
Rp19
ag10
(g14
S'D\x91n\xc9gHS@'
p20
tp21
Rp22
ag10
(g14
S'L\xf0\x9d\x0e(LS@'
p23
tp24
Rp25
ag10
(g14
S'\x8d\x7f\x1fM\x8dBS@'
p26
tp27
Rp28
ag10
(g14
S'xM\xd4%\x89IS@'
p29
tp30
Rp31
ag10
(g14
S'\xcb\x02\xa9\x85\x1e?S@'
p32
tp33
Rp34
ag10
(g14
S'3\x8e\xa8\x99MFS@'
p35
tp36
Rp37
ag10
(g14
S'X\xcf\x7f\x00\xb2ES@'
p38
tp39
Rp40
ag10
(g14
S'k\xaba\xf4\xc7HS@'
p41
tp42
Rp43
ag10
(g14
S'`V@1\xee>S@'
p44
tp45
Rp46
ag10
(g14
S'@AP\xe2yMS@'
p47
tp48
Rp49
ag10
(g14
S'k\x9a\x9c\x8a\xaeFS@'
p50
tp51
Rp52
ag10
(g14
S'\x05\x8ad\xe7\xb9HS@'
p53
tp54
Rp55
ag10
(g14
S'\xacbKF\xacBS@'
p56
tp57
Rp58
ag10
(g14
S'\x01c,\x99\x0cHS@'
p59
tp60
Rp61
ag10
(g14
S'\x0c\xdbw\xdf\x8dFS@'
p62
tp63
Rp64
ag10
(g14
S'\x032\xb5\xe8]AS@'
p65
tp66
Rp67
ag10
(g14
S'a\xc7\x1f9yOS@'
p68
tp69
Rp70
ag10
(g14
S'\xc1\x8e\xa9\xc1\rIS@'
p71
tp72
Rp73
ag10
(g14
S'\xc2#\xcd\xad\xfdPS@'
p74
tp75
Rp76
asS'target'
p77
(lp78
g10
(g14
S'd\x8a\xea\xbb\x86\x156@'
p79
tp80
Rp81
ag10
(g14
S'\xcb\x87Wg\xf8_5@'
p82
tp83
Rp84
ag10
(g14
S'\xb1\xdbC$\xf085@'
p85
tp86
Rp87
ag10
(g14
S'i<4S\xd1\xee7@'
p88
tp89
Rp90
ag10
(g14
S'\xa9\xdc\xd2\x0e\xe2\x894@'
p91
tp92
Rp93
ag10
(g14
S'\xc4\xc3^m\x0b\x806@'
p94
tp95
Rp96
ag10
(g14
S'\\\xce\xb3\x1a\xc9{6@'
p97
tp98
Rp99
ag10
(g14
S'FV\xdfz@\xb26@'
p100
tp101
Rp102
ag10
(g14
S'\xaaN\xc7\xb6\x08\xb75@'
p103
tp104
Rp105
ag10
(g14
S'V\xc1t\xd9\xa9V6@'
p106
tp107
Rp108
ag10
(g14
S'\x86\xbff\xec\x08\xc94@'
p109
tp110
Rp111
ag10
(g14
S'\xcbq*i\x1b\x915@'
p112
tp113
Rp114
ag10
(g14
S'\xc6\xe599\xc8A5@'
p115
tp116
Rp117
ag10
(g14
S'\x98r\x0f1J\xf56@'
p118
tp119
Rp120
ag10
(g14
S'3)76\x1e~4@'
p121
tp122
Rp123
ag10
(g14
S'"\xfe\x88\xd3\xbdM6@'
p124
tp125
Rp126
ag10
(g14
S'O=\x96%\x1c\x066@'
p127
tp128
Rp129
ag10
(g14
S'p\xd9\xa9\xe9/\x8e4@'
p130
tp131
Rp132
ag10
(g14
S' o\xb4\xcay\xac5@'
p133
tp134
Rp135
ag10
(g14
S'\xd6c\xf7\xc2\xd0\xd94@'
p136
tp137
Rp138
asssss.