(dp0
S'../Data/sqlite_5.csv'
p1
(dp2
S'../Data/sqlite_79.csv'
p3
(dp4
F0.25
(dp5
S'mmre'
p6
(dp7
S'bellwether'
p8
(lp9
cnumpy.core.multiarray
scalar
p10
(cnumpy
dtype
p11
(S'f8'
p12
I0
I1
tp13
Rp14
(I3
S'<'
p15
NNNI-1
I-1
I0
tp16
bS'\x15\xfa~\x16\xdfRp@'
p17
tp18
Rp19
ag10
(g14
S'TNH\xa2J\\p@'
p20
tp21
Rp22
ag10
(g14
S'\x14\x1bq"5bp@'
p23
tp24
Rp25
ag10
(g14
S'\x80\xcd\xaa\x13\xa1gp@'
p26
tp27
Rp28
ag10
(g14
S'\xc6\x86\xcb\n\x1d_p@'
p29
tp30
Rp31
ag10
(g14
S'7\xc2\xcb\xf4\xab[p@'
p32
tp33
Rp34
ag10
(g14
S'\xf2F\x1b\xfe9`p@'
p35
tp36
Rp37
ag10
(g14
S'c?<l\xb5ep@'
p38
tp39
Rp40
ag10
(g14
S'\x95mxB|\\p@'
p41
tp42
Rp43
ag10
(g14
S'\xd3\xdc\x84\xda\xe1[p@'
p44
tp45
Rp46
ag10
(g14
S'KXn7\x0fdp@'
p47
tp48
Rp49
ag10
(g14
S't\xa0bs\\cp@'
p50
tp51
Rp52
ag10
(g14
S'L\xf5\xb6X\x8fSp@'
p53
tp54
Rp55
ag10
(g14
S',a\x1c\xff\x00^p@'
p56
tp57
Rp58
ag10
(g14
S'\xe9\xd4\x16\xd4t\\p@'
p59
tp60
Rp61
ag10
(g14
S';r\xc4\x9e`hp@'
p62
tp63
Rp64
ag10
(g14
S'\r\xa0i*\x90ap@'
p65
tp66
Rp67
ag10
(g14
S'2\x83\x0bf\x0f_p@'
p68
tp69
Rp70
ag10
(g14
S'\t\xd6\xf0ouVp@'
p71
tp72
Rp73
ag10
(g14
S'LP\xc4\xfd\x93Yp@'
p74
tp75
Rp76
asS'target'
p77
(lp78
g10
(g14
S"\xa7iT\xfa\x84'!@"
p79
tp80
Rp81
ag10
(g14
S'-\x9a\x9c.\x99\x93 @'
p82
tp83
Rp84
ag10
(g14
S'\xc3\x81\x9c\xb7\x9aN$@'
p85
tp86
Rp87
ag10
(g14
S'\xaa6\\\xbc\xbdL @'
p88
tp89
Rp90
ag10
(g14
S'\xaf\xb6\x07I[\x15"@'
p91
tp92
Rp93
ag10
(g14
S'\x8dW\x17\x15T\x97"@'
p94
tp95
Rp96
ag10
(g14
S'LoMy\xea\xab"@'
p97
tp98
Rp99
ag10
(g14
S'6\xc3\xbc\xbfR\xae(@'
p100
tp101
Rp102
ag10
(g14
S't\x1eV)\x13 !@'
p103
tp104
Rp105
ag10
(g14
S'\xfdekh\x8e\xda#@'
p106
tp107
Rp108
ag10
(g14
S'\xac\xe1\x1f\x8e\xbf.*@'
p109
tp110
Rp111
ag10
(g14
S'\xdc`\x83\xf1\xd6I"@'
p112
tp113
Rp114
ag10
(g14
S'\xe6y\xb3)\x1c\xa6\x1b@'
p115
tp116
Rp117
ag10
(g14
S'\xc4\xa3\xd8\x1c)\xcd#@'
p118
tp119
Rp120
ag10
(g14
S'\xfa\x88.\x1fs@%@'
p121
tp122
Rp123
ag10
(g14
S"\r\xf2'Y\xc1H&@"
p124
tp125
Rp126
ag10
(g14
S'H\xfc\xb2\xebb\x13"@'
p127
tp128
Rp129
ag10
(g14
S'\x04p(\x03\xfa\x16\x1f@'
p130
tp131
Rp132
ag10
(g14
S'\x13\xb8:\xb7Ak!@'
p133
tp134
Rp135
ag10
(g14
S'O*\x06k\xbf?!@'
p136
tp137
Rp138
asssss.