(dp0
S'../Data/sqlite_51.csv'
p1
(dp2
S'../Data/sqlite_89.csv'
p3
(dp4
F0.05
(dp5
S'mmre'
p6
(dp7
S'bellwether'
p8
(lp9
cnumpy.core.multiarray
scalar
p10
(cnumpy
dtype
p11
(S'f8'
p12
I0
I1
tp13
Rp14
(I3
S'<'
p15
NNNI-1
I-1
I0
tp16
bS'\xe3\xd8Z:\xcdVV@'
p17
tp18
Rp19
ag10
(g14
S'\xebnZ0)YV@'
p20
tp21
Rp22
ag10
(g14
S'\x01\x90v\xa6\xb5XV@'
p23
tp24
Rp25
ag10
(g14
S'{u{\xd4\x80WV@'
p26
tp27
Rp28
ag10
(g14
S'\x80n5\xb1\x92YV@'
p29
tp30
Rp31
ag10
(g14
S'\x90\x004/\xb7YV@'
p32
tp33
Rp34
ag10
(g14
S'\x97\x0b<>\x9cVV@'
p35
tp36
Rp37
ag10
(g14
S'p\x99\xdd\xb8\x0bXV@'
p38
tp39
Rp40
ag10
(g14
S'u\x8dv3\xf7XV@'
p41
tp42
Rp43
ag10
(g14
S',F\xda|\xabSV@'
p44
tp45
Rp46
ag10
(g14
S'\x80>\x8b\x86\x8fXV@'
p47
tp48
Rp49
ag10
(g14
S'G\x1a\x93\xa4qXV@'
p50
tp51
Rp52
ag10
(g14
S'Y\xb04\xe4?YV@'
p53
tp54
Rp55
ag10
(g14
S'Q\x809m\x0eZV@'
p56
tp57
Rp58
ag10
(g14
S'\xc0\x95\xd5\xd3\x87ZV@'
p59
tp60
Rp61
ag10
(g14
S'\xe9\xa9\xb8\xb64XV@'
p62
tp63
Rp64
ag10
(g14
S'\xbcv\x99\xdfXYV@'
p65
tp66
Rp67
ag10
(g14
S'\xa3OgCWXV@'
p68
tp69
Rp70
ag10
(g14
S'~#\xce\xb9\x1cXV@'
p71
tp72
Rp73
ag10
(g14
S'\xc3j"\x80\xec[V@'
p74
tp75
Rp76
asS'target'
p77
(lp78
g10
(g14
S'sr\xe36\xc8\x04W@'
p79
tp80
Rp81
ag10
(g14
S'\xa0\xd2*\xadR/Q@'
p82
tp83
Rp84
ag10
(g14
S'\x81V\x0bQ\x93TS@'
p85
tp86
Rp87
ag10
(g14
S'\x8b{\x1fo1\x97U@'
p88
tp89
Rp90
ag10
(g14
S'\xac\x11\x06\x7f-\x86U@'
p91
tp92
Rp93
ag10
(g14
S'\xb3\xbf\xe9<%`L@'
p94
tp95
Rp96
ag10
(g14
S'\x1e\xa4fQ|\xcf[@'
p97
tp98
Rp99
ag10
(g14
S'R\xdd\xc8\x15+_T@'
p100
tp101
Rp102
ag10
(g14
S'%Tn\x1c\xce\xb3\\@'
p103
tp104
Rp105
ag10
(g14
S'/\xc0\xe0A\xfa\xd1\\@'
p106
tp107
Rp108
ag10
(g14
S'\xf8\xc2\xd2~\x8djJ@'
p109
tp110
Rp111
ag10
(g14
S'Z\x14l\x90\xfe/U@'
p112
tp113
Rp114
ag10
(g14
S'\xd8\xf9\x8e\xae\xfe\tH@'
p115
tp116
Rp117
ag10
(g14
S'\xec4\xbf\xae\x81?F@'
p118
tp119
Rp120
ag10
(g14
S'\xfe\xd2lz\xc8\xaaK@'
p121
tp122
Rp123
ag10
(g14
S'\xb1\x81Wa\xcc\x89Q@'
p124
tp125
Rp126
ag10
(g14
S'@!u\x82\t"[@'
p127
tp128
Rp129
ag10
(g14
S'\xa2Q\xeb\xe7c\x0bO@'
p130
tp131
Rp132
ag10
(g14
S'[\xa4\xaf\x81\reK@'
p133
tp134
Rp135
ag10
(g14
S'\x03\xe2\xe6O}\xcdH@'
p136
tp137
Rp138
asssss.