(dp0
S'../Data/sqlite_83.csv'
p1
(dp2
S'../Data/sqlite_73.csv'
p3
(dp4
F0.4
(dp5
S'mmre'
p6
(dp7
S'bellwether'
p8
(lp9
cnumpy.core.multiarray
scalar
p10
(cnumpy
dtype
p11
(S'f8'
p12
I0
I1
tp13
Rp14
(I3
S'<'
p15
NNNI-1
I-1
I0
tp16
bS"J\xb0\xe7\xe1\x01'^@"
p17
tp18
Rp19
ag10
(g14
S'\xb2\xbe\x19\xb7\xa5\x8f^@'
p20
tp21
Rp22
ag10
(g14
S'\x82\x94\xeb\xf4B`^@'
p23
tp24
Rp25
ag10
(g14
S'\xea\xeb\xa6\xc5\xab7^@'
p26
tp27
Rp28
ag10
(g14
S'j \xd2\xe1\x14\x86^@'
p29
tp30
Rp31
ag10
(g14
S'\xd47c;Ao^@'
p32
tp33
Rp34
ag10
(g14
S'x_\xb8\x9f\xbcY^@'
p35
tp36
Rp37
ag10
(g14
S'qd&g\xab\xb1^@'
p38
tp39
Rp40
ag10
(g14
S'v\x94\x9e\x07@N^@'
p41
tp42
Rp43
ag10
(g14
S':\xc6s\xd1J\xb7^@'
p44
tp45
Rp46
ag10
(g14
S'HAUN\x83$^@'
p47
tp48
Rp49
ag10
(g14
S'\x0f\xdf\xf9\xfc%\\^@'
p50
tp51
Rp52
ag10
(g14
S'JD\x89n\xc7\xaa^@'
p53
tp54
Rp55
ag10
(g14
S'\xb3\x8fq\xc1x\x8d^@'
p56
tp57
Rp58
ag10
(g14
S'\xbe\xdb\xf7\x07\x11v^@'
p59
tp60
Rp61
ag10
(g14
S'\xdc\xbd[\xf8\xdc`^@'
p62
tp63
Rp64
ag10
(g14
S'\xe0\x8e\x1f\xd61\x94^@'
p65
tp66
Rp67
ag10
(g14
S']X1{9m^@'
p68
tp69
Rp70
ag10
(g14
S'kP\xa9Gl~^@'
p71
tp72
Rp73
ag10
(g14
S'\xc1\t\x85Z_i^@'
p74
tp75
Rp76
asS'target'
p77
(lp78
g10
(g14
S';F\xeb\x80\x980,@'
p79
tp80
Rp81
ag10
(g14
S'h\xb2\x99\xc66f,@'
p82
tp83
Rp84
ag10
(g14
S'`J\xde\xed\x8b\xb8+@'
p85
tp86
Rp87
ag10
(g14
S'\xe0\xde`!\x98\xc1*@'
p88
tp89
Rp90
ag10
(g14
S"\x80y\x95\xdea'*@"
p91
tp92
Rp93
ag10
(g14
S'0#3\xbd\xba\xfb)@'
p94
tp95
Rp96
ag10
(g14
S'\xaa\xad\xee&\xf0\x9f+@'
p97
tp98
Rp99
ag10
(g14
S'\x12\x10"t7^+@'
p100
tp101
Rp102
ag10
(g14
S'\x86\x8d\x9b\xa15\xb8*@'
p103
tp104
Rp105
ag10
(g14
S'\x98ww\xd5\x9e\xf6+@'
p106
tp107
Rp108
ag10
(g14
S'L\xb0(\xf5\xec\xbe*@'
p109
tp110
Rp111
ag10
(g14
S"9'B\xa2\xc8m-@"
p112
tp113
Rp114
ag10
(g14
S'6\xd744\xab\xf4*@'
p115
tp116
Rp117
ag10
(g14
S'r\x8eu\xf6n},@'
p118
tp119
Rp120
ag10
(g14
S'\xe6_Y\x92E\x07*@'
p121
tp122
Rp123
ag10
(g14
S'4\xb9\x91\xe5\xb3o+@'
p124
tp125
Rp126
ag10
(g14
S'\x13\x05\xedv\xd3\xe3,@'
p127
tp128
Rp129
ag10
(g14
S'\x1e\xa7\x99\xb2@\xad*@'
p130
tp131
Rp132
ag10
(g14
S'x*\x08\xd6P\x90*@'
p133
tp134
Rp135
ag10
(g14
S'z$\xbf]?\xcd+@'
p136
tp137
Rp138
asssss.