(dp0
S'../Data/sqlite_45.csv'
p1
(dp2
S'../Data/sqlite_18.csv'
p3
(dp4
F0.1
(dp5
S'abs_res'
p6
(dp7
S'bellwether'
p8
(lp9
cnumpy.core.multiarray
scalar
p10
(cnumpy
dtype
p11
(S'f8'
p12
I0
I1
tp13
Rp14
(I3
S'<'
p15
NNNI-1
I-1
I0
tp16
bS'\xcc\xf7S\xb3i_AA'
p17
tp18
Rp19
ag10
(g14
S'\xce \xb0j\x87_AA'
p20
tp21
Rp22
ag10
(g14
S'\xbb\xc8vnR_AA'
p23
tp24
Rp25
ag10
(g14
S't=\n\x7fR_AA'
p26
tp27
Rp28
ag10
(g14
S'\x98n\x12\x83Y_AA'
p29
tp30
Rp31
ag10
(g14
S'U\x0e-\xb2n_AA'
p32
tp33
Rp34
ag10
(g14
S'\x9fn\x12\xab\xa9_AA'
p35
tp36
Rp37
ag10
(g14
S'5\x89A\xe8M_AA'
p38
tp39
Rp40
ag10
(g14
S'e\xe5\xd0"\xf4_AA'
p41
tp42
Rp43
ag10
(g14
S'q\xcbZ=\x86_AA'
p44
tp45
Rp46
ag10
(g14
S'\xae\x1cZ\x9c\xa9_AA'
p47
tp48
Rp49
ag10
(g14
S'g;\xdf\xafg_AA'
p50
tp51
Rp52
ag10
(g14
S'x\x93\x18\x9c,_AA'
p53
tp54
Rp55
ag10
(g14
S'\xb9\x1e\x85\x13|_AA'
p56
tp57
Rp58
ag10
(g14
S'\xccv\xbeO\x01`AA'
p59
tp60
Rp61
ag10
(g14
S'\xaf\xf1\xd2\xb5\xd6_AA'
p62
tp63
Rp64
ag10
(g14
S'\xee^s\t\x9e_AA'
p65
tp66
Rp67
ag10
(g14
S'\xf6\x8b%\xe7\x99_AA'
p68
tp69
Rp70
ag10
(g14
S'\x08+\x87f*_AA'
p71
tp72
Rp73
ag10
(g14
S'*""B\x8f_AA'
p74
tp75
Rp76
asS'target'
p77
(lp78
g10
(g14
S'dfff\x06\xb2\xd3@'
p79
tp80
Rp81
ag10
(g14
S'7333\xb3\xfe\xd2@'
p82
tp83
Rp84
ag10
(g14
S'6333S\xba\xd3@'
p85
tp86
Rp87
ag10
(g14
S'\xfe\xff\xff\xff\x9f\xeb\xd3@'
p88
tp89
Rp90
ag10
(g14
S'ZfffF@\xd4@'
p91
tp92
Rp93
ag10
(g14
S'03333\xc4\xd3@'
p94
tp95
Rp96
ag10
(g14
S'\x01\x00\x00\x00 \xc8\xd2@'
p97
tp98
Rp99
ag10
(g14
S'\xcf\xcc\xcc\xcc\xec\r\xd4@'
p100
tp101
Rp102
ag10
(g14
S'\xcf\xcc\xcc\xcc\x8c\x0e\xd4@'
p103
tp104
Rp105
ag10
(g14
S'gfff\xc6B\xd2@'
p106
tp107
Rp108
ag10
(g14
S'2333\xd3!\xd2@'
p109
tp110
Rp111
ag10
(g14
S'\xc8\xcc\xcc\xccL\xa7\xd2@'
p112
tp113
Rp114
ag10
(g14
S'\xa0\x99\x99\x99Y\xde\xd3@'
p115
tp116
Rp117
ag10
(g14
S'\x0b\x00\x00\x00 Z\xd3@'
p118
tp119
Rp120
ag10
(g14
S'qfffF\xe6\xd3@'
p121
tp122
Rp123
ag10
(g14
S'\xfc\xff\xff\xff\x7fy\xd4@'
p124
tp125
Rp126
ag10
(g14
S'_ffff\x9e\xd5@'
p127
tp128
Rp129
ag10
(g14
S'\x04\x00\x00\x00\x80_\xd2@'
p130
tp131
Rp132
ag10
(g14
S'^fff\x06\x9a\xd3@'
p133
tp134
Rp135
ag10
(g14
S'/333sA\xd6@'
p136
tp137
Rp138
asssss.