(dp0
S'../Data/sqlite_66.csv'
p1
(dp2
S'../Data/sqlite_58.csv'
p3
(dp4
F0.1
(dp5
S'abs_res'
p6
(dp7
S'bellwether'
p8
(lp9
cnumpy.core.multiarray
scalar
p10
(cnumpy
dtype
p11
(S'f8'
p12
I0
I1
tp13
Rp14
(I3
S'<'
p15
NNNI-1
I-1
I0
tp16
bS"C\x8bl'h3#A"
p17
tp18
Rp19
ag10
(g14
S'w\xcd\x85d\xd32#A'
p20
tp21
Rp22
ag10
(g14
S'[\xe5\xd0b\xc53#A'
p23
tp24
Rp25
ag10
(g14
S'5\xec\n\x10\r4#A'
p26
tp27
Rp28
ag10
(g14
S'j;\xdfO\xf02#A'
p29
tp30
Rp31
ag10
(g14
S'\x06\x90{\r\x883#A'
p32
tp33
Rp34
ag10
(g14
S'\x1eZd\xbb\x183#A'
p35
tp36
Rp37
ag10
(g14
S'\xbd\x904%\x843#A'
p38
tp39
Rp40
ag10
(g14
S'X\x8f\xc2\xf5\xfa2#A'
p41
tp42
Rp43
ag10
(g14
S'*\xdb\xf9~\xdd2#A'
p44
tp45
Rp46
ag10
(g14
S'\xb4\x00\xb9\x17\x983#A'
p47
tp48
Rp49
ag10
(g14
S'\x89\x14\xae\xc7\x9f3#A'
p50
tp51
Rp52
ag10
(g14
S'\xdb\xb2V\x07\x8c3#A'
p53
tp54
Rp55
ag10
(g14
S'\xfb(\\\xcfq4#A'
p56
tp57
Rp58
ag10
(g14
S'\xccMb\x90U3#A'
p59
tp60
Rp61
ag10
(g14
S'\x83?5\x9e\xdc3#A'
p62
tp63
Rp64
ag10
(g14
S'\xc3\xf5(\\m2#A'
p65
tp66
Rp67
ag10
(g14
S'\xf3\xa7\xc6\x0b&2#A'
p68
tp69
Rp70
ag10
(g14
S'\x84j\xbc\xb4w3#A'
p71
tp72
Rp73
ag10
(g14
S'\xd7\xa3p}\xb83#A'
p74
tp75
Rp76
asS'target'
p77
(lp78
g10
(g14
S'_\x91\xed|?\x85Z@'
p79
tp80
Rp81
ag10
(g14
S't\x91\xed|?qY@'
p82
tp83
Rp84
ag10
(g14
S'\x88j\xbct\x93P[@'
p85
tp86
Rp87
ag10
(g14
S'\x00\x02+\x87\x16\xd9Y@'
p88
tp89
Rp90
ag10
(g14
S'x\x14\xaeG\xe1\x8aZ@'
p91
tp92
Rp93
ag10
(g14
S'$\x85\xebQ\xb8\xf2[@'
p94
tp95
Rp96
ag10
(g14
S'\x01\x81\x95C\x8b<Z@'
p97
tp98
Rp99
ag10
(g14
S'\xc8\xf7S\xe3\xa5o\\@'
p100
tp101
Rp102
ag10
(g14
S'\xabrh\x91\xed<[@'
p103
tp104
Rp105
ag10
(g14
S'Td;\xdfO\xd5[@'
p106
tp107
Rp108
ag10
(g14
S'I\xdfO\x8d\x97\xf6\\@'
p109
tp110
Rp111
ag10
(g14
S'\xc1\x9f\x1a/\xddDX@'
p112
tp113
Rp114
ag10
(g14
S'\xbc\xc8v\xbe\x9f\x82Y@'
p115
tp116
Rp117
ag10
(g14
S'dffff\xc6]@'
p118
tp119
Rp120
ag10
(g14
S't\xe9&1\x08\xcc[@'
p121
tp122
Rp123
ag10
(g14
S'\x97\x97n\x12\x83 [@'
p124
tp125
Rp126
ag10
(g14
S't\xbe\x9f\x1a/%Z@'
p127
tp128
Rp129
ag10
(g14
S'[\xbaI\x0c\x02\xfb[@'
p130
tp131
Rp132
ag10
(g14
S'\x9e\x16\xd9\xce\xf7\xa3\\@'
p133
tp134
Rp135
ag10
(g14
S'=\n\xd7\xa3p\xed\\@'
p136
tp137
Rp138
asssss.