(dp0
S'../Data/sqlite_13.csv'
p1
(dp2
S'../Data/sqlite_59.csv'
p3
(dp4
F0.35
(dp5
S'mmre'
p6
(dp7
S'bellwether'
p8
(lp9
cnumpy.core.multiarray
scalar
p10
(cnumpy
dtype
p11
(S'f8'
p12
I0
I1
tp13
Rp14
(I3
S'<'
p15
NNNI-1
I-1
I0
tp16
bS'\x19THm\x02\x86[@'
p17
tp18
Rp19
ag10
(g14
S'\x18x\xb7\xea\x11^[@'
p20
tp21
Rp22
ag10
(g14
S'f\xf7\xfb\xa3zs[@'
p23
tp24
Rp25
ag10
(g14
S'\xee|\xe6rT\x16[@'
p26
tp27
Rp28
ag10
(g14
S'\xccXZ\xbd\x83\x80[@'
p29
tp30
Rp31
ag10
(g14
S'N\xe1\x9e\x88u\x91[@'
p32
tp33
Rp34
ag10
(g14
S'w\x9f]Lv\x8e[@'
p35
tp36
Rp37
ag10
(g14
S'\xad\xfc\xa5O\xffn[@'
p38
tp39
Rp40
ag10
(g14
S'\x18lrtw9[@'
p41
tp42
Rp43
ag10
(g14
S')\xdfX\x93\x14H[@'
p44
tp45
Rp46
ag10
(g14
S'\xbbx\xc5u\x1f\x16[@'
p47
tp48
Rp49
ag10
(g14
S'h-\xb6D\xf8E[@'
p50
tp51
Rp52
ag10
(g14
S'/=\xccB$C[@'
p53
tp54
Rp55
ag10
(g14
S'\x1e~\xf9#v\x13[@'
p56
tp57
Rp58
ag10
(g14
S'\xd9\x95\xfc\xb3\xad[[@'
p59
tp60
Rp61
ag10
(g14
S'\nw\x1a\xc7\x17}[@'
p62
tp63
Rp64
ag10
(g14
S'{4S+\x82o[@'
p65
tp66
Rp67
ag10
(g14
S'\xa8G\xe3D\tK[@'
p68
tp69
Rp70
ag10
(g14
S'\xc7\x05\xfb\x91[l[@'
p71
tp72
Rp73
ag10
(g14
S'\xea\t\xe2\xde\xa52[@'
p74
tp75
Rp76
asS'target'
p77
(lp78
g10
(g14
S'&\xa2\xabl\xae\xa9&@'
p79
tp80
Rp81
ag10
(g14
S'\xed\xb9Tx.\xa5$@'
p82
tp83
Rp84
ag10
(g14
S'\xb8\xc1\xc3T\xd2 &@'
p85
tp86
Rp87
ag10
(g14
S"\xe7\x8c\x8dJ\x94%'@"
p88
tp89
Rp90
ag10
(g14
S'd\x8d\xbbl\xc4\xa2&@'
p91
tp92
Rp93
ag10
(g14
S'^oZ\xb6\x9ex%@'
p94
tp95
Rp96
ag10
(g14
S'`nY\x17\xd0\x05&@'
p97
tp98
Rp99
ag10
(g14
S't\xb6\xc0\x92\xb1\xe1&@'
p100
tp101
Rp102
ag10
(g14
S'R\xc9H\x01\xae\x14&@'
p103
tp104
Rp105
ag10
(g14
S'q\x1c\xdez\xfa_%@'
p106
tp107
Rp108
ag10
(g14
S'\xdbHU\xfe\x80\xe7%@'
p109
tp110
Rp111
ag10
(g14
S'l\xd7\xd4\xd1\xca\xd2%@'
p112
tp113
Rp114
ag10
(g14
S'\xea\xf3"~)\xef%@'
p115
tp116
Rp117
ag10
(g14
S'\xc5\x99\xfc\xd2n\x8a%@'
p118
tp119
Rp120
ag10
(g14
S'\x1btwj>-%@'
p121
tp122
Rp123
ag10
(g14
S'\x94\xc6\xca*\x0f_%@'
p124
tp125
Rp126
ag10
(g14
S'v\x80\xa9di\xb8&@'
p127
tp128
Rp129
ag10
(g14
S'\xf7\x042d*\xf4$@'
p130
tp131
Rp132
ag10
(g14
S'^\xa3\xc55\x7f\xa3$@'
p133
tp134
Rp135
ag10
(g14
S'\xa7m\xd2\r\xb3t&@'
p136
tp137
Rp138
asssss.