(dp0
S'../Data/sqlite_51.csv'
p1
(dp2
S'../Data/sqlite_59.csv'
p3
(dp4
F0.35
(dp5
S'mmre'
p6
(dp7
S'bellwether'
p8
(lp9
cnumpy.core.multiarray
scalar
p10
(cnumpy
dtype
p11
(S'f8'
p12
I0
I1
tp13
Rp14
(I3
S'<'
p15
NNNI-1
I-1
I0
tp16
bS'\xcf\x1aX\x83\x03$W@'
p17
tp18
Rp19
ag10
(g14
S'8(pE\x01$W@'
p20
tp21
Rp22
ag10
(g14
S'\xa3}\x97\x1c\xc2$W@'
p23
tp24
Rp25
ag10
(g14
S'\xa2cY\xc09&W@'
p26
tp27
Rp28
ag10
(g14
S"\xfb\xe0\xce^w'W@"
p29
tp30
Rp31
ag10
(g14
S'H\x12d\x95\x0b%W@'
p32
tp33
Rp34
ag10
(g14
S'\xaf?7W\x11(W@'
p35
tp36
Rp37
ag10
(g14
S'\xa0%S\xd5\xf9$W@'
p38
tp39
Rp40
ag10
(g14
S'\xedA\x95\x8e\xa3$W@'
p41
tp42
Rp43
ag10
(g14
S'@X\xf80f%W@'
p44
tp45
Rp46
ag10
(g14
S"\x0cF\xbe\x8d\x19'W@"
p47
tp48
Rp49
ag10
(g14
S'\xe2\xf4p\x00\xe8&W@'
p50
tp51
Rp52
ag10
(g14
S'\xabE\xafZ\xf6$W@'
p53
tp54
Rp55
ag10
(g14
S'\xcc?p\x0f\xb0%W@'
p56
tp57
Rp58
ag10
(g14
S"\x05\xae=[\x00'W@"
p59
tp60
Rp61
ag10
(g14
S'mN\xd5\r\x14%W@'
p62
tp63
Rp64
ag10
(g14
S'\xe2<\xbe\xc6\x8d%W@'
p65
tp66
Rp67
ag10
(g14
S"\xa6\x1a'6$%W@"
p68
tp69
Rp70
ag10
(g14
S'\xa5e+\xfe\x7f$W@'
p71
tp72
Rp73
ag10
(g14
S'\xc2\xa6\x14\x17_&W@'
p74
tp75
Rp76
asS'target'
p77
(lp78
g10
(g14
S'\xa2#\xfd\xea\xcc&&@'
p79
tp80
Rp81
ag10
(g14
S'\r\xe3\xedd<-(@'
p82
tp83
Rp84
ag10
(g14
S"*=>\xe7~O'@"
p85
tp86
Rp87
ag10
(g14
S'\x97\t\xa1\x8f\xe7\xdf%@'
p88
tp89
Rp90
ag10
(g14
S'\xadL\x1f\xed\x84;$@'
p91
tp92
Rp93
ag10
(g14
S':\xf2/H\xd3\xd6$@'
p94
tp95
Rp96
ag10
(g14
S'\x1b[\x08\xcf\xe4e%@'
p97
tp98
Rp99
ag10
(g14
S'j\xcb\xacH\xa2p&@'
p100
tp101
Rp102
ag10
(g14
S'!^8\xc8\xa6"\'@'
p103
tp104
Rp105
ag10
(g14
S'\x9b\xb0\xa1\xb2\x8d\xd5%@'
p106
tp107
Rp108
ag10
(g14
S'+\xe8\xf4\xd2\xc7i%@'
p109
tp110
Rp111
ag10
(g14
S'yy\x8cd\x01\xe6$@'
p112
tp113
Rp114
ag10
(g14
S'Q\xe3Z\xba\xa1X&@'
p115
tp116
Rp117
ag10
(g14
S'\x9e}}\xfd\xcd\x01&@'
p118
tp119
Rp120
ag10
(g14
S'!r(1\xfc\xa3%@'
p121
tp122
Rp123
ag10
(g14
S'\xb3\x19\x12\x88\xb1\xc1&@'
p124
tp125
Rp126
ag10
(g14
S'\xec>\xc1^QV$@'
p127
tp128
Rp129
ag10
(g14
S"'o!\x05 \x0c&@"
p130
tp131
Rp132
ag10
(g14
S'\x0f\xaf8Bu%%@'
p133
tp134
Rp135
ag10
(g14
S' \xaf\xcd\xcdR)%@'
p136
tp137
Rp138
asssss.