(dp0
S'../Data/sqlite_18.csv'
p1
(dp2
S'../Data/sqlite_61.csv'
p3
(dp4
F0.15
(dp5
S'abs_res'
p6
(dp7
S'bellwether'
p8
(lp9
cnumpy.core.multiarray
scalar
p10
(cnumpy
dtype
p11
(S'f8'
p12
I0
I1
tp13
Rp14
(I3
S'<'
p15
NNNI-1
I-1
I0
tp16
bS'Z\x8f\xc25\x07f@A'
p17
tp18
Rp19
ag10
(g14
S'9B\x19\xed:e@A'
p20
tp21
Rp22
ag10
(g14
S')\\\x8fr\xbce@A'
p23
tp24
Rp25
ag10
(g14
S'\xc3\xca\xa1E\x04f@A'
p26
tp27
Rp28
ag10
(g14
S'F\x0c\x02+ze@A'
p29
tp30
Rp31
ag10
(g14
S'b\x8f\xc2\x95jf@A'
p32
tp33
Rp34
ag10
(g14
S'0\x08\xac\x0c`e@A'
p35
tp36
Rp37
ag10
(g14
S'QFo\xfb\x1df@A'
p38
tp39
Rp40
ag10
(g14
S'\xb3\xd51A\xace@A'
p41
tp42
Rp43
ag10
(g14
S'h;\xdf\xaf\xfbe@A'
p44
tp45
Rp46
ag10
(g14
S'\x18\xd9\xce\xd7\xf4e@A'
p47
tp48
Rp49
ag10
(g14
S'UFo\x8b\xcce@A'
p50
tp51
Rp52
ag10
(g14
S'\x8aA`\xe5\xb7d@A'
p53
tp54
Rp55
ag10
(g14
S'\xf5\xb6\xacU\xb1f@A'
p56
tp57
Rp58
ag10
(g14
S'A\x8blw\x7ff@A'
p59
tp60
Rp61
ag10
(g14
S'N\x0c\x02\xdb\tf@A'
p62
tp63
Rp64
ag10
(g14
S'i\xe7\xfb\x19\xa5e@A'
p65
tp66
Rp67
ag10
(g14
S'e;\xdf\x8fpf@A'
p68
tp69
Rp70
ag10
(g14
S'\xcd"\xdb\xe9\x1af@A'
p71
tp72
Rp73
ag10
(g14
S';\xa5\xe2,\xb2d@A'
p74
tp75
Rp76
asS'target'
p77
(lp78
g10
(g14
S'\xce\xf7S\xe3\xa5ks@'
p79
tp80
Rp81
ag10
(g14
S'<3333ex@'
p82
tp83
Rp84
ag10
(g14
S'\xb3\xf1\xd2Mb\x18t@'
p85
tp86
Rp87
ag10
(g14
S'S\xb8\x1e\x85\xebSv@'
p88
tp89
Rp90
ag10
(g14
S'Ub\x10X9\xe8r@'
p91
tp92
Rp93
ag10
(g14
S'\x12-\xb2\x9d\xef\xefw@'
p94
tp95
Rp96
ag10
(g14
S'\xb2\x9d\xef\xa7\xc6\xb9{@'
p97
tp98
Rp99
ag10
(g14
S'\xc8\xca\xa1E\xb6\xadx@'
p100
tp101
Rp102
ag10
(g14
S'\xf1~j\xbct\x19u@'
p103
tp104
Rp105
ag10
(g14
S'(1\x08\xac\x1c\xf2w@'
p106
tp107
Rp108
ag10
(g14
S'\xb4I\x0c\x02+\x80t@'
p109
tp110
Rp111
ag10
(g14
S'b\xe7\xfb\xa9\xf1)|@'
p112
tp113
Rp114
ag10
(g14
S'C\x0c\x02+\x87\xb7|@'
p115
tp116
Rp117
ag10
(g14
S'(^\xbaI\x0c\xfc{@'
p118
tp119
Rp120
ag10
(g14
S'x\x93\x18\x04V\xe8|@'
p121
tp122
Rp123
ag10
(g14
S'\xc3\xf5(\\\x8f\xa2}@'
p124
tp125
Rp126
ag10
(g14
S'g=\n\xd7\xa3\x07t@'
p127
tp128
Rp129
ag10
(g14
S'\xc8v\xbe\x9f\x1a[y@'
p130
tp131
Rp132
ag10
(g14
S'Nb\x10X9\x80v@'
p133
tp134
Rp135
ag10
(g14
S'\xd8\xa3p=\n\xf2x@'
p136
tp137
Rp138
asssss.