(dp0
S'../Data/sqlite_92.csv'
p1
(dp2
S'../Data/sqlite_96.csv'
p3
(dp4
F0.1
(dp5
S'mmre'
p6
(dp7
S'bellwether'
p8
(lp9
cnumpy.core.multiarray
scalar
p10
(cnumpy
dtype
p11
(S'f8'
p12
I0
I1
tp13
Rp14
(I3
S'<'
p15
NNNI-1
I-1
I0
tp16
bS'l1Z\xcf\x032V@'
p17
tp18
Rp19
ag10
(g14
S'm\xd2\xd4-\x132V@'
p20
tp21
Rp22
ag10
(g14
S'\x1c\x1c(\x9d"3V@'
p23
tp24
Rp25
ag10
(g14
S'\xde\x8bdd\xd61V@'
p26
tp27
Rp28
ag10
(g14
S'\x94~7\x84\x891V@'
p29
tp30
Rp31
ag10
(g14
S'9\x8c\x80\xab\xe21V@'
p32
tp33
Rp34
ag10
(g14
S'\xa2\x06\xca\nw2V@'
p35
tp36
Rp37
ag10
(g14
S'\x0f\x90<\xd2\x003V@'
p38
tp39
Rp40
ag10
(g14
S'\xbdHx?\x8a3V@'
p41
tp42
Rp43
ag10
(g14
S'\xf3\x9d\x04\xe0)5V@'
p44
tp45
Rp46
ag10
(g14
S'\xd2\x9a\x00w\\1V@'
p47
tp48
Rp49
ag10
(g14
S'\\\xa2\xd0\x10\xc84V@'
p50
tp51
Rp52
ag10
(g14
S'\xe1\xd8/\xdb\x954V@'
p53
tp54
Rp55
ag10
(g14
S'\xbc\xa8\x07Y\x9d5V@'
p56
tp57
Rp58
ag10
(g14
S'\x94\xa1\x01\nH3V@'
p59
tp60
Rp61
ag10
(g14
S'\xb7\xd9\x7f\xb3\xb22V@'
p62
tp63
Rp64
ag10
(g14
S'\xc9\x15\xeb3S2V@'
p65
tp66
Rp67
ag10
(g14
S'\x0e\xa7\xef\x1eW2V@'
p68
tp69
Rp70
ag10
(g14
S'\xb6\xe8}\xf2\xa43V@'
p71
tp72
Rp73
ag10
(g14
S'\x07\xea8\x9d\xb02V@'
p74
tp75
Rp76
asS'target'
p77
(lp78
g10
(g14
S'\nb8IZ$R@'
p79
tp80
Rp81
ag10
(g14
S'\xb6pf\xdf\x12\x8ea@'
p82
tp83
Rp84
ag10
(g14
S'\xc5\xa7|\x17\xcf\xd2L@'
p85
tp86
Rp87
ag10
(g14
S'&\xc9K\x83\xff\xbdY@'
p88
tp89
Rp90
ag10
(g14
S'4\x15 $\x80;R@'
p91
tp92
Rp93
ag10
(g14
S'e\xab\x8c\xc9\xff\xe9a@'
p94
tp95
Rp96
ag10
(g14
S'Kh\x14O\xd9\x97O@'
p97
tp98
Rp99
ag10
(g14
S'\x06Z6`-\xf4[@'
p100
tp101
Rp102
ag10
(g14
S'2[\xee3;xO@'
p103
tp104
Rp105
ag10
(g14
S']\xe8$\x83\xc5)P@'
p106
tp107
Rp108
ag10
(g14
S'2^\xddeH\x7fi@'
p109
tp110
Rp111
ag10
(g14
S'L\x04\x18\x82g\x95V@'
p112
tp113
Rp114
ag10
(g14
S'\x8d(\x15_F\x08Q@'
p115
tp116
Rp117
ag10
(g14
S'\xf5\xea\xd7\x90\xcc)L@'
p118
tp119
Rp120
ag10
(g14
S'~\xe0u\x9e\x03kV@'
p121
tp122
Rp123
ag10
(g14
S'#\x13@H\x83\x13Z@'
p124
tp125
Rp126
ag10
(g14
S'n\xd1`i\x80\xcbW@'
p127
tp128
Rp129
ag10
(g14
S'\xa4\xd9\xad\xeb\xcd\xb8Q@'
p130
tp131
Rp132
ag10
(g14
S'\x9e7\x8bU<,S@'
p133
tp134
Rp135
ag10
(g14
S'DTU\xc6\xc1%U@'
p136
tp137
Rp138
asssss.