(dp0
S'../Data/sqlite_46.csv'
p1
(dp2
S'../Data/sqlite_22.csv'
p3
(dp4
F0.35
(dp5
S'abs_res'
p6
(dp7
S'bellwether'
p8
(lp9
cnumpy.core.multiarray
scalar
p10
(cnumpy
dtype
p11
(S'f8'
p12
I0
I1
tp13
Rp14
(I3
S'<'
p15
NNNI-1
I-1
I0
tp16
bS'\xb8I\x0c"W)9A'
p17
tp18
Rp19
ag10
(g14
S'\xbe\xf5(|\xe4)9A'
p20
tp21
Rp22
ag10
(g14
S'\x07X9\xf4\x13)9A'
p23
tp24
Rp25
ag10
(g14
S'\xaf\x9d\xefg\x13*9A'
p26
tp27
Rp28
ag10
(g14
S'1\x89A`\xab)9A'
p29
tp30
Rp31
ag10
(g14
S':5^\xfa\xcd(9A'
p32
tp33
Rp34
ag10
(g14
S'H\xb6\xf3\x1d()9A'
p35
tp36
Rp37
ag10
(g14
S'@`\xe5p\xbb(9A'
p38
tp39
Rp40
ag10
(g14
S'k\xbctS\x94(9A'
p41
tp42
Rp43
ag10
(g14
S'\x9fE\xb6\x93++9A'
p44
tp45
Rp46
ag10
(g14
S'\x90n\x12Ct)9A'
p47
tp48
Rp49
ag10
(g14
S"'\x89A\x80\xa3*9A"
p50
tp51
Rp52
ag10
(g14
S'\xa3E\xb6\xd3q(9A'
p53
tp54
Rp55
ag10
(g14
S'w?5\x1e\x0c*9A'
p56
tp57
Rp58
ag10
(g14
S'\xd1x\xe9f4)9A'
p59
tp60
Rp61
ag10
(g14
S'\xef\xd2M\x02t(9A'
p62
tp63
Rp64
ag10
(g14
S'.\x08\xac<\x82*9A'
p65
tp66
Rp67
ag10
(g14
S'p=\n\x97\x7f)9A'
p68
tp69
Rp70
ag10
(g14
S'\xad\x1cZ\xe4\xfc(9A'
p71
tp72
Rp73
ag10
(g14
S'\x9f\xef\xa7\x86\xfe(9A'
p74
tp75
Rp76
asS'target'
p77
(lp78
g10
(g14
S'\x15\xd9\xce\xf7S\xd3T@'
p79
tp80
Rp81
ag10
(g14
S'\xa3\x9b\xc4 \xb0>U@'
p82
tp83
Rp84
ag10
(g14
S'u\x93\x18\x04V\x0eU@'
p85
tp86
Rp87
ag10
(g14
S'N\xe3\xa5\x9b\xc48S@'
p88
tp89
Rp90
ag10
(g14
S'\x8fl\xe7\xfb\xa9)T@'
p91
tp92
Rp93
ag10
(g14
S'\xb8\x9f\x1a/\xddTR@'
p94
tp95
Rp96
ag10
(g14
S'\xc5\xf5(\\\x8fRR@'
p97
tp98
Rp99
ag10
(g14
S':\xdfO\x8d\x97fT@'
p100
tp101
Rp102
ag10
(g14
S'\xd1x\xe9&1\xc0R@'
p103
tp104
Rp105
ag10
(g14
S'\xfa~j\xbct\x13S@'
p106
tp107
Rp108
ag10
(g14
S'\x83\xebQ\xb8\x1e\xc5S@'
p109
tp110
Rp111
ag10
(g14
S'\xe9\xa5\x9b\xc4 \x80T@'
p112
tp113
Rp114
ag10
(g14
S'Fb\x10X9\xc4Q@'
p115
tp116
Rp117
ag10
(g14
S'\x15\x83\xc0\xca\xa1\xd9R@'
p118
tp119
Rp120
ag10
(g14
S'\xd3\xa3p=\n?S@'
p121
tp122
Rp123
ag10
(g14
S' \x85\xebQ\xb8RT@'
p124
tp125
Rp126
ag10
(g14
S'\xf6~j\xbct?S@'
p127
tp128
Rp129
ag10
(g14
S'\x0e\xd7\xa3p=\x12S@'
p130
tp131
Rp132
ag10
(g14
S'\x94n\x12\x83\xc0\x86Q@'
p133
tp134
Rp135
ag10
(g14
S'\x93n\x12\x83\xc0zT@'
p136
tp137
Rp138
asssss.