(dp0
S'../Data/sqlite_39.csv'
p1
(dp2
S'../Data/sqlite_88.csv'
p3
(dp4
F0.35
(dp5
S'mmre'
p6
(dp7
S'bellwether'
p8
(lp9
cnumpy.core.multiarray
scalar
p10
(cnumpy
dtype
p11
(S'f8'
p12
I0
I1
tp13
Rp14
(I3
S'<'
p15
NNNI-1
I-1
I0
tp16
bS'\xba\xd9\x9438XX@'
p17
tp18
Rp19
ag10
(g14
S'\xb11\x8c4\x02`X@'
p20
tp21
Rp22
ag10
(g14
S'B\x06{ApdX@'
p23
tp24
Rp25
ag10
(g14
S'\x16\x01\xac\xa4FWX@'
p26
tp27
Rp28
ag10
(g14
S'\x9dFsia_X@'
p29
tp30
Rp31
ag10
(g14
S'\xa0\x92\xcd\xd3r`X@'
p32
tp33
Rp34
ag10
(g14
S'\xc2\x1f\xb4\xe4c]X@'
p35
tp36
Rp37
ag10
(g14
S'\xe5\xbeB\xc2d]X@'
p38
tp39
Rp40
ag10
(g14
S'9\xc4\x81\xa7\x01aX@'
p41
tp42
Rp43
ag10
(g14
S'\xb4\xe86\x15\x99jX@'
p44
tp45
Rp46
ag10
(g14
S'\x87\x05\x17\xe3\x86\\X@'
p47
tp48
Rp49
ag10
(g14
S'\xfe\x9c\x85\x0f/YX@'
p50
tp51
Rp52
ag10
(g14
S'\xdb\x14)\xac5aX@'
p53
tp54
Rp55
ag10
(g14
S'\xbd@\x82\xd4\xf7SX@'
p56
tp57
Rp58
ag10
(g14
S'-\x05h\xcf\xaebX@'
p59
tp60
Rp61
ag10
(g14
S'\x8a\x86\xadoh\\X@'
p62
tp63
Rp64
ag10
(g14
S'\x00\xff\xd2\xdc\x12^X@'
p65
tp66
Rp67
ag10
(g14
S'\x8agk_ITX@'
p68
tp69
Rp70
ag10
(g14
S'\x18\x05_\xf4fbX@'
p71
tp72
Rp73
ag10
(g14
S'*\xcd)\xaaFYX@'
p74
tp75
Rp76
asS'target'
p77
(lp78
g10
(g14
S'\xb4A\x8793/P@'
p79
tp80
Rp81
ag10
(g14
S'\x19^\xd5MG\xc0J@'
p82
tp83
Rp84
ag10
(g14
S'\x0c\xb7\xb0w]}I@'
p85
tp86
Rp87
ag10
(g14
S'G\x8dy\x1b\xb3|P@'
p88
tp89
Rp90
ag10
(g14
S'U[\xccG@fK@'
p91
tp92
Rp93
ag10
(g14
S'%Z*\xd1\x91\x15K@'
p94
tp95
Rp96
ag10
(g14
S'T\\\xb9\xc4q\x16L@'
p97
tp98
Rp99
ag10
(g14
S'X\xa7\x06\x93\x06\x8cK@'
p100
tp101
Rp102
ag10
(g14
S']\xa7\xef\xc1neM@'
p103
tp104
Rp105
ag10
(g14
S'\xfc\xab\xeaG\xf5aG@'
p106
tp107
Rp108
ag10
(g14
S'\xbe\x9a\xdf\xe2X\x1bO@'
p109
tp110
Rp111
ag10
(g14
S'\xe9\xc7\xcfz\xf5=N@'
p112
tp113
Rp114
ag10
(g14
S'\xed\xf32\x1b\xd7\x9aK@'
p115
tp116
Rp117
ag10
(g14
S'\x10F?\xe4\xadlQ@'
p118
tp119
Rp120
ag10
(g14
S'\xccVI\x11w2K@'
p121
tp122
Rp123
ag10
(g14
S";K\xaeu\xbe'L@"
p124
tp125
Rp126
ag10
(g14
S'\x15I\x98\xffi\x12M@'
p127
tp128
Rp129
ag10
(g14
S'Fyz\x1b\xd0\xbdR@'
p130
tp131
Rp132
ag10
(g14
S't&v\xc0\x8djJ@'
p133
tp134
Rp135
ag10
(g14
S'\xf9\x8a\x9a6\xd9\xdfM@'
p136
tp137
Rp138
asssss.