(dp0
S'../Data/sqlite_5.csv'
p1
(dp2
S'../Data/sqlite_79.csv'
p3
(dp4
F0.3
(dp5
S'mmre'
p6
(dp7
S'bellwether'
p8
(lp9
cnumpy.core.multiarray
scalar
p10
(cnumpy
dtype
p11
(S'f8'
p12
I0
I1
tp13
Rp14
(I3
S'<'
p15
NNNI-1
I-1
I0
tp16
bS'cz\xefR-\x80p@'
p17
tp18
Rp19
ag10
(g14
S'\xa2\xe9:(\x8eKp@'
p20
tp21
Rp22
ag10
(g14
S'\xe3pg^\x17ip@'
p23
tp24
Rp25
ag10
(g14
S'k\xd3l\xc5\xcbQp@'
p26
tp27
Rp28
ag10
(g14
S'\xde\xa8\x8e\xde\xc2bp@'
p29
tp30
Rp31
ag10
(g14
S'\xb2\x8fyA\xbfZp@'
p32
tp33
Rp34
ag10
(g14
S'\xb9g\xc8\xfb6]p@'
p35
tp36
Rp37
ag10
(g14
S'\x94\x8cY\xda\x89Xp@'
p38
tp39
Rp40
ag10
(g14
S'\xda?\xfcA\xa4Xp@'
p41
tp42
Rp43
ag10
(g14
S'Mw\x05S\xaapp@'
p44
tp45
Rp46
ag10
(g14
S'\xe0\xb6u`\xb0[p@'
p47
tp48
Rp49
ag10
(g14
S'!Q\xef\xe7\xe9^p@'
p50
tp51
Rp52
ag10
(g14
S'\n\xbe\x85\xaa\x8f_p@'
p53
tp54
Rp55
ag10
(g14
S'\x91\xc0\xe68>`p@'
p56
tp57
Rp58
ag10
(g14
S'\x96\xbd9+\x19rp@'
p59
tp60
Rp61
ag10
(g14
S'\xe1Jy:\xb7qp@'
p62
tp63
Rp64
ag10
(g14
S'OM\x1e\x90\\]p@'
p65
tp66
Rp67
ag10
(g14
S'\xbf\xb1JyGep@'
p68
tp69
Rp70
ag10
(g14
S'.jh\xb3\x9ehp@'
p71
tp72
Rp73
ag10
(g14
S'\x1fG\x8a\x92\xb8Tp@'
p74
tp75
Rp76
asS'target'
p77
(lp78
g10
(g14
S'O\xa6KEQ\xff(@'
p79
tp80
Rp81
ag10
(g14
S'%\x1c\xb0\xbe\xa7|\x1d@'
p82
tp83
Rp84
ag10
(g14
S'\xb2\xa9e\x1d\xc6\xf3#@'
p85
tp86
Rp87
ag10
(g14
S'\x98b IN\x81 @'
p88
tp89
Rp90
ag10
(g14
S'\xecq\x16.f\xa9$@'
p91
tp92
Rp93
ag10
(g14
S'\xfdLM\x9d\xc2m @'
p94
tp95
Rp96
ag10
(g14
S'\x03=\xd1\x00I\xf6)@'
p97
tp98
Rp99
ag10
(g14
S'g\xcb\xfaN\x1c\x15#@'
p100
tp101
Rp102
ag10
(g14
S'\x1e\xde\x97|g0\x1e@'
p103
tp104
Rp105
ag10
(g14
S'\xee\xd1>xbG\x1c@'
p106
tp107
Rp108
ag10
(g14
S'\xc7\x7f\xa9<\x00\x9e\x1b@'
p109
tp110
Rp111
ag10
(g14
S'K\xddbE$\xfa!@'
p112
tp113
Rp114
ag10
(g14
S'\x8d\x1f%3\x19\xf6"@'
p115
tp116
Rp117
ag10
(g14
S'\xa7Ry\xd3\x8f\xf2!@'
p118
tp119
Rp120
ag10
(g14
S'\x81\n3\x8a\xae\x07%@'
p121
tp122
Rp123
ag10
(g14
S"B\x85\xdd\xca{:'@"
p124
tp125
Rp126
ag10
(g14
S'\x85\x1e\xec\xcaeu(@'
p127
tp128
Rp129
ag10
(g14
S'bC\xccl\xa3[&@'
p130
tp131
Rp132
ag10
(g14
S'r\x8f\x85\x1c\x91\x96*@'
p133
tp134
Rp135
ag10
(g14
S'\xe98e;\xb2\xa3\x1e@'
p136
tp137
Rp138
asssss.