(dp0
S'../Data/sqlite_20.csv'
p1
(dp2
S'../Data/sqlite_59.csv'
p3
(dp4
F0.2
(dp5
S'mmre'
p6
(dp7
S'bellwether'
p8
(lp9
cnumpy.core.multiarray
scalar
p10
(cnumpy
dtype
p11
(S'f8'
p12
I0
I1
tp13
Rp14
(I3
S'<'
p15
NNNI-1
I-1
I0
tp16
bS'\x89\x9dO\xded$>@'
p17
tp18
Rp19
ag10
(g14
S'J\xc7o\xe7*=>@'
p20
tp21
Rp22
ag10
(g14
S'\xe8y\x1c\xfb\xfd[>@'
p23
tp24
Rp25
ag10
(g14
S'\xe3W\x1a_/a>@'
p26
tp27
Rp28
ag10
(g14
S'\xb0Rk\xa3\xf0B>@'
p29
tp30
Rp31
ag10
(g14
S"qaV\x8a\xc4'>@"
p32
tp33
Rp34
ag10
(g14
S'0\xda\xbd\xcf]H>@'
p35
tp36
Rp37
ag10
(g14
S'NTo\xc2\xfbE>@'
p38
tp39
Rp40
ag10
(g14
S'\xca~\xbc\x0f1_>@'
p41
tp42
Rp43
ag10
(g14
S'\x84r\x8a\xfc!\x10>@'
p44
tp45
Rp46
ag10
(g14
S'\xc1m\xaf\xaf\x9a;>@'
p47
tp48
Rp49
ag10
(g14
S'2\x86\xa2\x01\xaaQ>@'
p50
tp51
Rp52
ag10
(g14
S'^\n\x14\x81\xb7\x1c>@'
p53
tp54
Rp55
ag10
(g14
S'X\xe8\xd6zR>>@'
p56
tp57
Rp58
ag10
(g14
S'\x8e\\H\x9f\x94f>@'
p59
tp60
Rp61
ag10
(g14
S'\xb1(71\xbaH>@'
p62
tp63
Rp64
ag10
(g14
S'DBP\xd6mR>@'
p65
tp66
Rp67
ag10
(g14
S'\xeb\x18\xd3~\xba6>@'
p68
tp69
Rp70
ag10
(g14
S'\\\x1e\x0f\xaa\x1e<>@'
p71
tp72
Rp73
ag10
(g14
S'1\xa3)tj!>@'
p74
tp75
Rp76
asS'target'
p77
(lp78
g10
(g14
S"\x96\x9a\xa4\x8d\xa7\xa3'@"
p79
tp80
Rp81
ag10
(g14
S'kNEb\xbe>$@'
p82
tp83
Rp84
ag10
(g14
S"\x82\xbc\x8e\t&j'@"
p85
tp86
Rp87
ag10
(g14
S'\x00\x85XXt\xf9%@'
p88
tp89
Rp90
ag10
(g14
S'\xdc\xd1 M\xe3\x07&@'
p91
tp92
Rp93
ag10
(g14
S'\xa8\xb5\x9f\x90\x8ev%@'
p94
tp95
Rp96
ag10
(g14
S'fA^\xb8_.(@'
p97
tp98
Rp99
ag10
(g14
S'\xa6\xd7\xee\xa0\x84\xae%@'
p100
tp101
Rp102
ag10
(g14
S'\x93\xd2\xc5\xd1]\xfa%@'
p103
tp104
Rp105
ag10
(g14
S"Z\xf1z\x13E['@"
p106
tp107
Rp108
ag10
(g14
S'"\xd0\xf4\x83\nU%@'
p109
tp110
Rp111
ag10
(g14
S'\x05\x7f\x17\xe8~j&@'
p112
tp113
Rp114
ag10
(g14
S'\xd0\x1bVV\t\xa9&@'
p115
tp116
Rp117
ag10
(g14
S'\xac\xff\xd8\x93\x88\x9f%@'
p118
tp119
Rp120
ag10
(g14
S'\x80N`\xea\x84\x1c&@'
p121
tp122
Rp123
ag10
(g14
S'\xb2\xea\x9ej\xc2\x01)@'
p124
tp125
Rp126
ag10
(g14
S'hl\xdb\x88\x8b\xf1#@'
p127
tp128
Rp129
ag10
(g14
S'Yi\x8e\xdb3"$@'
p130
tp131
Rp132
ag10
(g14
S'\x96AD\xb2[T&@'
p133
tp134
Rp135
ag10
(g14
S'B\x87\x99\x99\x8c\t$@'
p136
tp137
Rp138
asssss.