(dp0
S'../Data/sqlite_1.csv'
p1
(dp2
S'../Data/sqlite_44.csv'
p3
(dp4
F0.15
(dp5
S'abs_res'
p6
(dp7
S'bellwether'
p8
(lp9
cnumpy.core.multiarray
scalar
p10
(cnumpy
dtype
p11
(S'f8'
p12
I0
I1
tp13
Rp14
(I3
S'<'
p15
NNNI-1
I-1
I0
tp16
bS'\x91l\xe7\x1b]M@A'
p17
tp18
Rp19
ag10
(g14
S'p\xe7\xfbI\xf9M@A'
p20
tp21
Rp22
ag10
(g14
S'E`\xe5`\xdcM@A'
p23
tp24
Rp25
ag10
(g14
S'\x9d\xc4 P0M@A'
p26
tp27
Rp28
ag10
(g14
S'@\n\xd7\xf3!M@A'
p29
tp30
Rp31
ag10
(g14
S'\xd8x\xe9&\xe8M@A'
p32
tp33
Rp34
ag10
(g14
S'O\xd4\xbf1\x80N@A'
p35
tp36
Rp37
ag10
(g14
S':\xb4\xc8\xa6\xceM@A'
p38
tp39
Rp40
ag10
(g14
S'\xee\x19v\x05\xf7M@A'
p41
tp42
Rp43
ag10
(g14
S'\xc1\x11\xca\xf8\xe9M@A'
p44
tp45
Rp46
ag10
(g14
S'L\xb8\x1eE\xfbM@A'
p47
tp48
Rp49
ag10
(g14
S'\xff\xa9\xf1\xf2\xfaM@A'
p50
tp51
Rp52
ag10
(g14
S'\x9f\x0bIs,N@A'
p53
tp54
Rp55
ag10
(g14
S'\x9e\x0bIc\x01N@A'
p56
tp57
Rp58
ag10
(g14
S'\xfd\xd4x9MN@A'
p59
tp60
Rp61
ag10
(g14
S'\x82j\xbcdiM@A'
p62
tp63
Rp64
ag10
(g14
S'd\xe5\xd0r\xcdM@A'
p65
tp66
Rp67
ag10
(g14
S'\xd6\xbf\x11\xba\xd4M@A'
p68
tp69
Rp70
ag10
(g14
S'G\xd2\x94\xaa\x8dN@A'
p71
tp72
Rp73
ag10
(g14
S'\xbd\xbb\xbb{kM@A'
p74
tp75
Rp76
asS'target'
p77
(lp78
g10
(g14
S'\x06\x81\x95C\x8b|Q@'
p79
tp80
Rp81
ag10
(g14
S'\r\xd7\xa3p=ZQ@'
p82
tp83
Rp84
ag10
(g14
S'\xd0\xa1E\xb6\xf3]S@'
p85
tp86
Rp87
ag10
(g14
S'I7\x89A`\xddS@'
p88
tp89
Rp90
ag10
(g14
S'\xdf\xa5\x9b\xc4 \xd0N@'
p91
tp92
Rp93
ag10
(g14
S'\xfcS\xe3\xa5\x9b\xd4J@'
p94
tp95
Rp96
ag10
(g14
S'\xd0\xf7S\xe3\xa5\x87S@'
p97
tp98
Rp99
ag10
(g14
S'\xa1p=\n\xd7\x03M@'
p100
tp101
Rp102
ag10
(g14
S'Kb\x10X9\x04N@'
p103
tp104
Rp105
ag10
(g14
S'\xdax\xe9&1\x80R@'
p106
tp107
Rp108
ag10
(g14
S'\x8cC\x8bl\xe7+O@'
p109
tp110
Rp111
ag10
(g14
S'x\xe9&1\x08dP@'
p112
tp113
Rp114
ag10
(g14
S'P7\x89A`\xedR@'
p115
tp116
Rp117
ag10
(g14
S'$1\x08\xac\x1c\xc6Q@'
p118
tp119
Rp120
ag10
(g14
S'\x0bV\x0e-\xb25S@'
p121
tp122
Rp123
ag10
(g14
S'\xd3Mb\x10X\x91Q@'
p124
tp125
Rp126
ag10
(g14
S'\x8dn\x12\x83\xc0\xbaN@'
p127
tp128
Rp129
ag10
(g14
S'\xfc\xff\xff\xff\xffoN@'
p130
tp131
Rp132
ag10
(g14
S'%\xb2\x9d\xef\xa7fQ@'
p133
tp134
Rp135
ag10
(g14
S'J\x8bl\xe7\xfbiQ@'
p136
tp137
Rp138
asssss.