(dp0
S'../Data/sqlite_92.csv'
p1
(dp2
S'../Data/sqlite_85.csv'
p3
(dp4
F0.15
(dp5
S'abs_res'
p6
(dp7
S'bellwether'
p8
(lp9
cnumpy.core.multiarray
scalar
p10
(cnumpy
dtype
p11
(S'f8'
p12
I0
I1
tp13
Rp14
(I3
S'<'
p15
NNNI-1
I-1
I0
tp16
bS'\xf3(\\\xeb\t]WA'
p17
tp18
Rp19
ag10
(g14
S'\xd9Mb\\SrWA'
p20
tp21
Rp22
ag10
(g14
S'\x1dZd\xcf\xd7lWA'
p23
tp24
Rp25
ag10
(g14
S'\xebQ\xb8\x8a0~WA'
p26
tp27
Rp28
ag10
(g14
S'9^\xba\xc9\xebrWA'
p29
tp30
Rp31
ag10
(g14
S'\xd1"\xdb1\xd7}WA'
p32
tp33
Rp34
ag10
(g14
S'\xf1S\xe3m\x87tWA'
p35
tp36
Rp37
ag10
(g14
S'\xa3\xf1\xd2\x91\xb2bWA'
p38
tp39
Rp40
ag10
(g14
S'\xc0\xf5(\xfcO^WA'
p41
tp42
Rp43
ag10
(g14
S'\xcav\xbeC\xedtWA'
p44
tp45
Rp46
ag10
(g14
S'4\xdd$6\x85wWA'
p47
tp48
Rp49
ag10
(g14
S'l\x12\x83,?\x88WA'
p50
tp51
Rp52
ag10
(g14
S'=\xdfOq3LWA'
p53
tp54
Rp55
ag10
(g14
S'4\x87\x16\xad\xccDWA'
p56
tp57
Rp58
ag10
(g14
S'\xbf\x9f\x1a\xb7=0WA'
p59
tp60
Rp61
ag10
(g14
S'.\x87\x16\x95(kWA'
p62
tp63
Rp64
ag10
(g14
S'\x19/\xdd\x84\xe2WWA'
p65
tp66
Rp67
ag10
(g14
S'\xb1rh\xf5|mWA'
p68
tp69
Rp70
ag10
(g14
S'G\x0c\x02\xf7\x9aKWA'
p71
tp72
Rp73
ag10
(g14
S'\xc7v\xbe\x9f\xce\\WA'
p74
tp75
Rp76
asS'target'
p77
(lp78
g10
(g14
S':33S;dCA'
p79
tp80
Rp81
ag10
(g14
S'\xf3(\\\xcf\x14,@A'
p82
tp83
Rp84
ag10
(g14
S'#\\\x8f\x82\x15\xafAA'
p85
tp86
Rp87
ag10
(g14
S'\x9fp=\xca~S@A'
p88
tp89
Rp90
ag10
(g14
S'T\xb8\x1eE3T@A'
p91
tp92
Rp93
ag10
(g14
S'\xf2Q\xb8>\xf9\xd2BA'
p94
tp95
Rp96
ag10
(g14
S'\xef(\\o_\xa9BA'
p97
tp98
Rp99
ag10
(g14
S'\xf7(\\\x0f\xdd\x99AA'
p100
tp101
Rp102
ag10
(g14
S'\x00\x00\x00\xe05\x02@A'
p103
tp104
Rp105
ag10
(g14
S'U\xb8\x1e\x85GRBA'
p106
tp107
Rp108
ag10
(g14
S'\r\xd7\xa3\x90\xe5zBA'
p109
tp110
Rp111
ag10
(g14
S'\xbf\xf5(\xdc\x1bh@A'
p112
tp113
Rp114
ag10
(g14
S'\x0c\xd7\xa3P\n\xa7AA'
p115
tp116
Rp117
ag10
(g14
S'033\xb3\xecj@A'
p118
tp119
Rp120
ag10
(g14
S'\xfe(\\\x8f\xcc+HA'
p121
tp122
Rp123
ag10
(g14
S'Q\xb8\x1e\xe5\xbd\xfe@A'
p124
tp125
Rp126
ag10
(g14
S'\x11\xaeG\xc1\xf0\x89GA'
p127
tp128
Rp129
ag10
(g14
S'\x8f\xebQx\x0f\x8e?A'
p130
tp131
Rp132
ag10
(g14
S'\xa3p=\n"\x8eAA'
p133
tp134
Rp135
ag10
(g14
S'\x87\xebQx?\x8dCA'
p136
tp137
Rp138
asssss.