(dp0
S'../Data/sqlite_40.csv'
p1
(dp2
S'../Data/sqlite_90.csv'
p3
(dp4
F0.35
(dp5
S'mmre'
p6
(dp7
S'bellwether'
p8
(lp9
cnumpy.core.multiarray
scalar
p10
(cnumpy
dtype
p11
(S'f8'
p12
I0
I1
tp13
Rp14
(I3
S'<'
p15
NNNI-1
I-1
I0
tp16
bS'>\xbf\xf6Q\xf4KT@'
p17
tp18
Rp19
ag10
(g14
S'\xacj\x06R\xf5TT@'
p20
tp21
Rp22
ag10
(g14
S'\xa03K4\x15ST@'
p23
tp24
Rp25
ag10
(g14
S'S\x8f\xd2\\\xcfWT@'
p26
tp27
Rp28
ag10
(g14
S'\x97\xb5\xae=rwT@'
p29
tp30
Rp31
ag10
(g14
S'#M\xfa\xa8%lT@'
p32
tp33
Rp34
ag10
(g14
S'G\x83^"\xe5jT@'
p35
tp36
Rp37
ag10
(g14
S'>\xe9\xdfT\xa5WT@'
p38
tp39
Rp40
ag10
(g14
S'4#\x11eBeT@'
p41
tp42
Rp43
ag10
(g14
S'\xd7g\xb0\x8d2LT@'
p44
tp45
Rp46
ag10
(g14
S'\xc0]\xb1U\x8ebT@'
p47
tp48
Rp49
ag10
(g14
S'{\xc0\xf2d~rT@'
p50
tp51
Rp52
ag10
(g14
S'Sf\xe8\xcd\x8fbT@'
p53
tp54
Rp55
ag10
(g14
S'gF\xbb\xc7roT@'
p56
tp57
Rp58
ag10
(g14
S'\xf4\xad\xe1\x1d\xd9UT@'
p59
tp60
Rp61
ag10
(g14
S'\xfa\xe9\x01ygnT@'
p62
tp63
Rp64
ag10
(g14
S'o!P\xafrcT@'
p65
tp66
Rp67
ag10
(g14
S'\x1d\xcf\r\xcd-YT@'
p68
tp69
Rp70
ag10
(g14
S'\x16\xc9\xfa\xd2\xff_T@'
p71
tp72
Rp73
ag10
(g14
S'\r\xe9\xb4W\x17ET@'
p74
tp75
Rp76
asS'target'
p77
(lp78
g10
(g14
S'p\xbc@\xa7g>@@'
p79
tp80
Rp81
ag10
(g14
S'\xa92i/E\xcf@@'
p82
tp83
Rp84
ag10
(g14
S'a\xb0L\xfa\x1c\x91A@'
p85
tp86
Rp87
ag10
(g14
S'x\x18U\xe5\xbf\xc7A@'
p88
tp89
Rp90
ag10
(g14
S'\xb0\x15B\x8b\xac\xf3>@'
p91
tp92
Rp93
ag10
(g14
S'\xe2h+(w\xbf@@'
p94
tp95
Rp96
ag10
(g14
S'I=\x8d\x10\xfc\xa2?@'
p97
tp98
Rp99
ag10
(g14
S'\xdc\x89V\x02\xb6\x83B@'
p100
tp101
Rp102
ag10
(g14
S'\x1a\xc0\xc9\xbe\xc0\x81A@'
p103
tp104
Rp105
ag10
(g14
S'2\xff\xd1$\xbfqB@'
p106
tp107
Rp108
ag10
(g14
S'\xfa\x1f\x80S\x92\xa9>@'
p109
tp110
Rp111
ag10
(g14
S'\x051\x1b\x1e\x84\x12?@'
p112
tp113
Rp114
ag10
(g14
S'\xc3n*"CP@@'
p115
tp116
Rp117
ag10
(g14
S'R\xa6\xe5C\xbeW@@'
p118
tp119
Rp120
ag10
(g14
S'X\xf0G\xd8\xa1\xdeA@'
p121
tp122
Rp123
ag10
(g14
S'\xe0k\x87OW\xe1?@'
p124
tp125
Rp126
ag10
(g14
S'\xf6\x96G\x14\xa5s@@'
p127
tp128
Rp129
ag10
(g14
S'!9\x04)\xc6\xf2@@'
p130
tp131
Rp132
ag10
(g14
S'\xe08\xdey\xca]@@'
p133
tp134
Rp135
ag10
(g14
S'.H\xaa\xbb\xfe\xa5B@'
p136
tp137
Rp138
asssss.