(dp0
S'../Data/sqlite_32.csv'
p1
(dp2
S'../Data/sqlite_42.csv'
p3
(dp4
F0.3
(dp5
S'abs_res'
p6
(dp7
S'bellwether'
p8
(lp9
cnumpy.core.multiarray
scalar
p10
(cnumpy
dtype
p11
(S'f8'
p12
I0
I1
tp13
Rp14
(I3
S'<'
p15
NNNI-1
I-1
I0
tp16
bS'\xa2p=j\x19$@A'
p17
tp18
Rp19
ag10
(g14
S'\x18/\xdd\xc4$"@A'
p20
tp21
Rp22
ag10
(g14
S';\xdfO\xfd\xc6!@A'
p23
tp24
Rp25
ag10
(g14
S'\x16\x04V\x0e\xd2!@A'
p26
tp27
Rp28
ag10
(g14
S'\x83?5\x1e\x0b%@A'
p29
tp30
Rp31
ag10
(g14
S'1\xdd$\xe6\xa4#@A'
p32
tp33
Rp34
ag10
(g14
S'<\xdfO=\xe1 @A'
p35
tp36
Rp37
ag10
(g14
S'\x88l\xe7[\xed$@A'
p38
tp39
Rp40
ag10
(g14
S'\xb2\xf3\xfd\x04\xa1$@A'
p41
tp42
Rp43
ag10
(g14
S'{\x14\xae\x17\xfd$@A'
p44
tp45
Rp46
ag10
(g14
S'p\x12\x83 \x88#@A'
p47
tp48
Rp49
ag10
(g14
S'Q\xb8\x1e%\x93#@A'
p50
tp51
Rp52
ag10
(g14
S'\xe8&1\xd8b%@A'
p53
tp54
Rp55
ag10
(g14
S'\xfa\xa9\xf1b\x9e$@A'
p56
tp57
Rp58
ag10
(g14
S'j\xe7\xfb\xd9&"@A'
p59
tp60
Rp61
ag10
(g14
S'rh\x91\xbd\xd7$@A'
p62
tp63
Rp64
ag10
(g14
S'\xc4\xf5(L,%@A'
p65
tp66
Rp67
ag10
(g14
S'H\x8bl\xb7L$@A'
p68
tp69
Rp70
ag10
(g14
S'\x03+\x87\xa6\xbc#@A'
p71
tp72
Rp73
ag10
(g14
S'\r-\xb2=\xa7$@A'
p74
tp75
Rp76
asS'target'
p77
(lp78
g10
(g14
S'\xc0 \xb0rh/d@'
p79
tp80
Rp81
ag10
(g14
S'\xf0|?5^Ve@'
p82
tp83
Rp84
ag10
(g14
S'(\\\x8f\xc2\xf5\xd0c@'
p85
tp86
Rp87
ag10
(g14
S'\x02\x81\x95C\x8b\xcec@'
p88
tp89
Rp90
ag10
(g14
S'x?5^\xba\xfbc@'
p91
tp92
Rp93
ag10
(g14
S'pffffzf@'
p94
tp95
Rp96
ag10
(g14
S'\xdb\xa3p=\n\x1de@'
p97
tp98
Rp99
ag10
(g14
S'P9\xb4\xc8v\x96d@'
p100
tp101
Rp102
ag10
(g14
S']\xbaI\x0c\x02\x9fd@'
p103
tp104
Rp105
ag10
(g14
S'v\x93\x18\x04V\xf8c@'
p106
tp107
Rp108
ag10
(g14
S'\xfb\xa9\xf1\xd2MHd@'
p109
tp110
Rp111
ag10
(g14
S'c\x91\xed|?\x1dc@'
p112
tp113
Rp114
ag10
(g14
S'\xfc\xd4x\xe9&]c@'
p115
tp116
Rp117
ag10
(g14
S'\xb8I\x0c\x02+_d@'
p118
tp119
Rp120
ag10
(g14
S'\xb7t\x93\x18\x04Bg@'
p121
tp122
Rp123
ag10
(g14
S'\x1d\x85\xebQ\xb8\x1af@'
p124
tp125
Rp126
ag10
(g14
S'\x0e-\xb2\x9d\xef\x1bc@'
p127
tp128
Rp129
ag10
(g14
S'jffff|d@'
p130
tp131
Rp132
ag10
(g14
S't\xe9&1\x08Te@'
p133
tp134
Rp135
ag10
(g14
S'e\xbaI\x0c\x02\x9bd@'
p136
tp137
Rp138
asssss.