(dp0
S'../Data/sqlite_42.csv'
p1
(dp2
S'../Data/sqlite_94.csv'
p3
(dp4
F0.25
(dp5
S'mmre'
p6
(dp7
S'bellwether'
p8
(lp9
cnumpy.core.multiarray
scalar
p10
(cnumpy
dtype
p11
(S'f8'
p12
I0
I1
tp13
Rp14
(I3
S'<'
p15
NNNI-1
I-1
I0
tp16
bS'\x9b\x0f\xec\xe0\xf6lX@'
p17
tp18
Rp19
ag10
(g14
S'\xf7f\x81s\xa1lX@'
p20
tp21
Rp22
ag10
(g14
S'+w\x07\xed\xbckX@'
p23
tp24
Rp25
ag10
(g14
S'ei\xe7\xa0jlX@'
p26
tp27
Rp28
ag10
(g14
S'\xedf\xf4\xfc\xf9mX@'
p29
tp30
Rp31
ag10
(g14
S':\xb7B3\xa2lX@'
p32
tp33
Rp34
ag10
(g14
S'\xd6\x92/\xdf\xf7kX@'
p35
tp36
Rp37
ag10
(g14
S'\xa8o"\xc3{lX@'
p38
tp39
Rp40
ag10
(g14
S'>l\xe5`ukX@'
p41
tp42
Rp43
ag10
(g14
S'8 e\x96\x1anX@'
p44
tp45
Rp46
ag10
(g14
S'eZ\x87z;mX@'
p47
tp48
Rp49
ag10
(g14
S'\xc2t\xb3D\x1amX@'
p50
tp51
Rp52
ag10
(g14
S'`\xc5\x1bL\xe1lX@'
p53
tp54
Rp55
ag10
(g14
S'\x88l\x1b\xc6KmX@'
p56
tp57
Rp58
ag10
(g14
S'\xbez4\x005lX@'
p59
tp60
Rp61
ag10
(g14
S'N\xb3\x9a\xcezmX@'
p62
tp63
Rp64
ag10
(g14
S'G\x8c\x9b\xd3TmX@'
p65
tp66
Rp67
ag10
(g14
S'\xf7\xac\xe4(\x01mX@'
p68
tp69
Rp70
ag10
(g14
S'\x81.Q\x08\xd7lX@'
p71
tp72
Rp73
ag10
(g14
S'\x04lm\x0chnX@'
p74
tp75
Rp76
asS'target'
p77
(lp78
g10
(g14
S'\x88WB\xe3\xf0\xa3P@'
p79
tp80
Rp81
ag10
(g14
S'$\x0fS\xae\\\xf5Q@'
p82
tp83
Rp84
ag10
(g14
S'f~\x9a\xbd/7W@'
p85
tp86
Rp87
ag10
(g14
S'\x12nR\x1a\xf3\xbaS@'
p88
tp89
Rp90
ag10
(g14
S'\xcf\x93\x93MJ\x9aS@'
p91
tp92
Rp93
ag10
(g14
S'~\xf9\x88T\xbaQN@'
p94
tp95
Rp96
ag10
(g14
S'\x00\x87:\xdfI\x13W@'
p97
tp98
Rp99
ag10
(g14
S'\xa5\xc2S\x7f&\x1dR@'
p100
tp101
Rp102
ag10
(g14
S'\x93\xf8%C5KP@'
p103
tp104
Rp105
ag10
(g14
S'\xc0%\x96\xb9\x1faH@'
p106
tp107
Rp108
ag10
(g14
S'\x17\r\xc3@N\xe7J@'
p109
tp110
Rp111
ag10
(g14
S'\xb6\x98\xd6-1-P@'
p112
tp113
Rp114
ag10
(g14
S'\xfb\x0fVW\xfb\xe4Q@'
p115
tp116
Rp117
ag10
(g14
S'\xf2\x8a\xb9f\xe0\x9fN@'
p118
tp119
Rp120
ag10
(g14
S'\x17\x17\x84?\xe1~P@'
p121
tp122
Rp123
ag10
(g14
S'\xd4\xc0\x99\x1e\x02\x9aS@'
p124
tp125
Rp126
ag10
(g14
S'\x85\xe9\x1b_\xaaGP@'
p127
tp128
Rp129
ag10
(g14
S'\xfd\x14\x00\xf6\x987W@'
p130
tp131
Rp132
ag10
(g14
S'\x95m \\m\xd5W@'
p133
tp134
Rp135
ag10
(g14
S'#\xfa\x05?\xdb\x08O@'
p136
tp137
Rp138
asssss.