(dp0
S'../Data/sqlite_62.csv'
p1
(dp2
S'../Data/sqlite_91.csv'
p3
(dp4
F0.25
(dp5
S'mmre'
p6
(dp7
S'bellwether'
p8
(lp9
cnumpy.core.multiarray
scalar
p10
(cnumpy
dtype
p11
(S'f8'
p12
I0
I1
tp13
Rp14
(I3
S'<'
p15
NNNI-1
I-1
I0
tp16
bS'\x80~\xdf\xfe\x89-W@'
p17
tp18
Rp19
ag10
(g14
S'\x80\x9c\xffT\x949W@'
p20
tp21
Rp22
ag10
(g14
S'\xd8\x80*9\x8dLW@'
p23
tp24
Rp25
ag10
(g14
S'\xc0\r\x18\xd3{XW@'
p26
tp27
Rp28
ag10
(g14
S'\x16-k2\xe8EW@'
p29
tp30
Rp31
ag10
(g14
S'o\x1b\xf4j\xdcGW@'
p32
tp33
Rp34
ag10
(g14
S'\xf4\xef\xd1>\xb50W@'
p35
tp36
Rp37
ag10
(g14
S'\xe2H(@<0W@'
p38
tp39
Rp40
ag10
(g14
S'(s\t9RLW@'
p41
tp42
Rp43
ag10
(g14
S'\xe0]\xea\xf3sPW@'
p44
tp45
Rp46
ag10
(g14
S'S|@\xc1\xd9HW@'
p47
tp48
Rp49
ag10
(g14
S'\xf6\xd2+dI4W@'
p50
tp51
Rp52
ag10
(g14
S'\xa6\xfc\xc8\xbd.GW@'
p53
tp54
Rp55
ag10
(g14
S'\x1eE\xf7\t\xf6"W@'
p56
tp57
Rp58
ag10
(g14
S'-\xdf\x92\xc5uHW@'
p59
tp60
Rp61
ag10
(g14
S'\xdc\x91?\xb5\x04QW@'
p62
tp63
Rp64
ag10
(g14
S'\xf19\\Z\x89^W@'
p65
tp66
Rp67
ag10
(g14
S'E%\x9d\xa7\xe9KW@'
p68
tp69
Rp70
ag10
(g14
S'\x00@\xe4\xe9\x8f:W@'
p71
tp72
Rp73
ag10
(g14
S'\xf8tsr\xcaKW@'
p74
tp75
Rp76
asS'target'
p77
(lp78
g10
(g14
S'"\x11\xc4f\xa0\x85R@'
p79
tp80
Rp81
ag10
(g14
S'\xf7!v\xbb6\x1fQ@'
p82
tp83
Rp84
ag10
(g14
S'?\xd9\xc4\x8dWGN@'
p85
tp86
Rp87
ag10
(g14
S'\xed\x00_/umF@'
p88
tp89
Rp90
ag10
(g14
S'\xe2=\xb4\xde\x86\x9dN@'
p91
tp92
Rp93
ag10
(g14
S'p\xff\x94\xb1\x13dM@'
p94
tp95
Rp96
ag10
(g14
S'+j\xfc]BPP@'
p97
tp98
Rp99
ag10
(g14
S'S\xd2\xd9(\xfb~R@'
p100
tp101
Rp102
ag10
(g14
S'\xd3\x18\xf6Z\x863O@'
p103
tp104
Rp105
ag10
(g14
S'\x95CHg\x13eJ@'
p106
tp107
Rp108
ag10
(g14
S'&)[\x8a\xd8\xf5K@'
p109
tp110
Rp111
ag10
(g14
S'\xa4\x1e\xbeZ\xb9\x8cP@'
p112
tp113
Rp114
ag10
(g14
S'\xe8\xe6o\xc9\xb5\x92M@'
p115
tp116
Rp117
ag10
(g14
S'\xd4(D/R\xd5R@'
p118
tp119
Rp120
ag10
(g14
S'\x12\xc6\xbc\xa9\x8e\xe6K@'
p121
tp122
Rp123
ag10
(g14
S'#\x97\xe9T.XL@'
p124
tp125
Rp126
ag10
(g14
S'\xbed/\xfc\x17)K@'
p127
tp128
Rp129
ag10
(g14
S'B\xed\xa7x\xb7\xd7N@'
p130
tp131
Rp132
ag10
(g14
S'K\x11d\xe6*\xe7P@'
p133
tp134
Rp135
ag10
(g14
S'\xc2\\s\x13"zM@'
p136
tp137
Rp138
asssss.