(dp0
S'../Data/sqlite_84.csv'
p1
(dp2
S'../Data/sqlite_94.csv'
p3
(dp4
F0.3
(dp5
S'mmre'
p6
(dp7
S'bellwether'
p8
(lp9
cnumpy.core.multiarray
scalar
p10
(cnumpy
dtype
p11
(S'f8'
p12
I0
I1
tp13
Rp14
(I3
S'<'
p15
NNNI-1
I-1
I0
tp16
bS'\xb5\xc0\x18bjQX@'
p17
tp18
Rp19
ag10
(g14
S'4a^\xa0\x90QX@'
p20
tp21
Rp22
ag10
(g14
S'-9\xc2S$QX@'
p23
tp24
Rp25
ag10
(g14
S'\xfe\xe3b\x86\x00QX@'
p26
tp27
Rp28
ag10
(g14
S'\xdc\xa1bE\x9eOX@'
p29
tp30
Rp31
ag10
(g14
S'ny\xb9\\\xb8QX@'
p32
tp33
Rp34
ag10
(g14
S'_R\xc1\x87.QX@'
p35
tp36
Rp37
ag10
(g14
S'\xda\xe2\xbc;#QX@'
p38
tp39
Rp40
ag10
(g14
S'L\xe6\xbe_\xf2RX@'
p41
tp42
Rp43
ag10
(g14
S'\xce\x0b[\x81\x89QX@'
p44
tp45
Rp46
ag10
(g14
S'\x89\x1e\x824\xeePX@'
p47
tp48
Rp49
ag10
(g14
S'\x99\xbc\x90\xa1\x14PX@'
p50
tp51
Rp52
ag10
(g14
S'\x85\xbf\xed\xbc\\QX@'
p53
tp54
Rp55
ag10
(g14
S'\xb5\xda\x07\x88WRX@'
p56
tp57
Rp58
ag10
(g14
S't\xf4c\x17KRX@'
p59
tp60
Rp61
ag10
(g14
S'$\x8b\xe4\xf6iRX@'
p62
tp63
Rp64
ag10
(g14
S"'<+\x03\xa9RX@"
p65
tp66
Rp67
ag10
(g14
S'\xba\xe0L\xc1KQX@'
p68
tp69
Rp70
ag10
(g14
S'\xb5K9\x936QX@'
p71
tp72
Rp73
ag10
(g14
S'\tN0\xe2oPX@'
p74
tp75
Rp76
asS'target'
p77
(lp78
g10
(g14
S"U'\x87\x8b\xc9\x15S@"
p79
tp80
Rp81
ag10
(g14
S'\xe2\xdb\xc2\x99\xb62O@'
p82
tp83
Rp84
ag10
(g14
S'Y\x13\xde\x90T4S@'
p85
tp86
Rp87
ag10
(g14
S'\xfe\xd8\x08\xb1\x1ezO@'
p88
tp89
Rp90
ag10
(g14
S'oQ\xa6\x03\xb9\xcaS@'
p91
tp92
Rp93
ag10
(g14
S'\xe9\x89v\xeb\xa5\xb9Q@'
p94
tp95
Rp96
ag10
(g14
S'\xb7\xba\xd6\xd7\xdd\x94M@'
p97
tp98
Rp99
ag10
(g14
S'R.\xe9%|~Q@'
p100
tp101
Rp102
ag10
(g14
S'Q\xd4\xffc\x07\x1aT@'
p103
tp104
Rp105
ag10
(g14
S'\xca\x14M\xd62"Q@'
p106
tp107
Rp108
ag10
(g14
S'\x80 7"\xbb\x04N@'
p109
tp110
Rp111
ag10
(g14
S'K(;H\xfdyS@'
p112
tp113
Rp114
ag10
(g14
S'\xae\xd9q\x8b>kS@'
p115
tp116
Rp117
ag10
(g14
S'\xb6\xc9\x8d\xdd{\x03R@'
p118
tp119
Rp120
ag10
(g14
S'ZR\x1c\xfb^sM@'
p121
tp122
Rp123
ag10
(g14
S'\x0c\x1d\xbb\x8b\xedLN@'
p124
tp125
Rp126
ag10
(g14
S'\x12\xd1\xf2\xa9\xa3\x00K@'
p127
tp128
Rp129
ag10
(g14
S'y\x9dmr\x89\xa4S@'
p130
tp131
Rp132
ag10
(g14
S'\x1c\xb5\xd2\x9b,\xafW@'
p133
tp134
Rp135
ag10
(g14
S'\x1dGE,\xa8\xb9O@'
p136
tp137
Rp138
asssss.