(dp0
S'../Data/sqlite_44.csv'
p1
(dp2
S'../Data/sqlite_78.csv'
p3
(dp4
F0.2
(dp5
S'mmre'
p6
(dp7
S'bellwether'
p8
(lp9
cnumpy.core.multiarray
scalar
p10
(cnumpy
dtype
p11
(S'f8'
p12
I0
I1
tp13
Rp14
(I3
S'<'
p15
NNNI-1
I-1
I0
tp16
bS'~\xa3w[\xfdcN@'
p17
tp18
Rp19
ag10
(g14
S'\x058K\xf7\x00zN@'
p20
tp21
Rp22
ag10
(g14
S'T\x94\xe9p\x08bN@'
p23
tp24
Rp25
ag10
(g14
S'~\x07\x84s\nVN@'
p26
tp27
Rp28
ag10
(g14
S'W^\x97x\xfciN@'
p29
tp30
Rp31
ag10
(g14
S'\xd8\x05BH\x81rN@'
p32
tp33
Rp34
ag10
(g14
S'\xeb\x9c\x7fn\xf0}N@'
p35
tp36
Rp37
ag10
(g14
S'\x14\xd4K~\x06wN@'
p38
tp39
Rp40
ag10
(g14
S'\xe3\x9b\xc2Q\x0f_N@'
p41
tp42
Rp43
ag10
(g14
S'9P\x81\xc3\xcbQN@'
p44
tp45
Rp46
ag10
(g14
S'@\xb0\x7f\x08AtN@'
p47
tp48
Rp49
ag10
(g14
S'\xd3\x1e\xbc[\x19}N@'
p50
tp51
Rp52
ag10
(g14
S'q\x1e\x9f\xb8\x1ebN@'
p53
tp54
Rp55
ag10
(g14
S'\x04\x84\xa6\xbcQ[N@'
p56
tp57
Rp58
ag10
(g14
S'\xc7MK\xe9VmN@'
p59
tp60
Rp61
ag10
(g14
S'\x9eEl\xdf\x1eUN@'
p62
tp63
Rp64
ag10
(g14
S"\x0b\xffG'6uN@"
p65
tp66
Rp67
ag10
(g14
S'\xa7\x8d}\xcb\xf2\x81N@'
p68
tp69
Rp70
ag10
(g14
S'N\xa9o2BbN@'
p71
tp72
Rp73
ag10
(g14
S'O%\x01aETN@'
p74
tp75
Rp76
asS'target'
p77
(lp78
g10
(g14
S'\xc8\xaa\xc3*\x98n4@'
p79
tp80
Rp81
ag10
(g14
S'\x86\x90\xe4\x00z\xc03@'
p82
tp83
Rp84
ag10
(g14
S'\x14&\x14\n\xee\x074@'
p85
tp86
Rp87
ag10
(g14
S':\x88\xaf\x1a*\x115@'
p88
tp89
Rp90
ag10
(g14
S'\xf8\x93\xf8\xef \x0b3@'
p91
tp92
Rp93
ag10
(g14
S'6\x1b\x96\x9e>\xe32@'
p94
tp95
Rp96
ag10
(g14
S'\xae\xdfs\xca\x85\xf63@'
p97
tp98
Rp99
ag10
(g14
S'\x8bn&\x97n\xdb4@'
p100
tp101
Rp102
ag10
(g14
S'0\x93y\x95\xe5\x842@'
p103
tp104
Rp105
ag10
(g14
S'F\xe3\xc5\xc9\x06\x914@'
p106
tp107
Rp108
ag10
(g14
S'(\xb7xp3\x993@'
p109
tp110
Rp111
ag10
(g14
S',\xa5>\x04\x1c\xfb3@'
p112
tp113
Rp114
ag10
(g14
S'\xa6\x9dS=\xb462@'
p115
tp116
Rp117
ag10
(g14
S'\xf1\xafdeL\xf33@'
p118
tp119
Rp120
ag10
(g14
S'+\x9f\x9b\xdc\xc8n2@'
p121
tp122
Rp123
ag10
(g14
S'@j,\xbf\x07\xd94@'
p124
tp125
Rp126
ag10
(g14
S'd9 {A\xec2@'
p127
tp128
Rp129
ag10
(g14
S'U\xdd=\\jV3@'
p130
tp131
Rp132
ag10
(g14
S'T?|\xf9E\xf33@'
p133
tp134
Rp135
ag10
(g14
S'\xba\xe2\xf5\x19\x87\x073@'
p136
tp137
Rp138
asssss.