(dp0
S'../Data/sqlite_87.csv'
p1
(dp2
S'../Data/sqlite_86.csv'
p3
(dp4
F0.1
(dp5
S'mmre'
p6
(dp7
S'bellwether'
p8
(lp9
cnumpy.core.multiarray
scalar
p10
(cnumpy
dtype
p11
(S'f8'
p12
I0
I1
tp13
Rp14
(I3
S'<'
p15
NNNI-1
I-1
I0
tp16
bS'e\xf6\x14:\x80Ww@'
p17
tp18
Rp19
ag10
(g14
S'\xe6qw\xa5Dsw@'
p20
tp21
Rp22
ag10
(g14
S'\xf5Ty\xb8@Qw@'
p23
tp24
Rp25
ag10
(g14
S'bA(V2gw@'
p26
tp27
Rp28
ag10
(g14
S'\xbe\x7f8\xc7\xaf\x84w@'
p29
tp30
Rp31
ag10
(g14
S'xF\xa5\x05\xdcow@'
p32
tp33
Rp34
ag10
(g14
S'\xc4l\xb9*-uw@'
p35
tp36
Rp37
ag10
(g14
S'\xa2\xd6\x94\t\x9djw@'
p38
tp39
Rp40
ag10
(g14
S'\xdb\x8c\x8cD\x99\x84w@'
p41
tp42
Rp43
ag10
(g14
S'\x15\xe6FH\xf3ow@'
p44
tp45
Rp46
ag10
(g14
S'W/\x9aa\x0eww@'
p47
tp48
Rp49
ag10
(g14
S'?\xea\xa4\x9d\x8e~w@'
p50
tp51
Rp52
ag10
(g14
S'3O\x19\xf4\xfeiw@'
p53
tp54
Rp55
ag10
(g14
S'\r\xdd\xdd&`\x82w@'
p56
tp57
Rp58
ag10
(g14
S'\x10\xda/\xca\x11kw@'
p59
tp60
Rp61
ag10
(g14
S'\xf2\xc2t\x12bpw@'
p62
tp63
Rp64
ag10
(g14
S'5e\xb1x\xeeaw@'
p65
tp66
Rp67
ag10
(g14
S'\x89\xf3n\xe7&^w@'
p68
tp69
Rp70
ag10
(g14
S'K\xb6\xaf\xfcQOw@'
p71
tp72
Rp73
ag10
(g14
S'FP\x8e\xbf\xb2uw@'
p74
tp75
Rp76
asS'target'
p77
(lp78
g10
(g14
S'\xa8R\xc1\xe1\xc4\x12J@'
p79
tp80
Rp81
ag10
(g14
S'\xa3\xb5\x94\xdcJ\x16M@'
p82
tp83
Rp84
ag10
(g14
S'p\x83\xb9Ji\x9bR@'
p85
tp86
Rp87
ag10
(g14
S'Z\x0c6\xa1\x99\xf4Q@'
p88
tp89
Rp90
ag10
(g14
S'r\xe8\x95\xc0\x82\x12V@'
p91
tp92
Rp93
ag10
(g14
S'\x93#\xd5V*\xdeU@'
p94
tp95
Rp96
ag10
(g14
S'\x993\x89=\x92\xa2M@'
p97
tp98
Rp99
ag10
(g14
S'\xe3\xf66\xa2x\xbeS@'
p100
tp101
Rp102
ag10
(g14
S'c\xc9l\xcb\x04\xd2M@'
p103
tp104
Rp105
ag10
(g14
S'\x8f\xd27\x81\x89gW@'
p106
tp107
Rp108
ag10
(g14
S'R7\xcez\xda"N@'
p109
tp110
Rp111
ag10
(g14
S'%P\x1e\xd6\xee\xd7P@'
p112
tp113
Rp114
ag10
(g14
S'\x8e\xf6o\xa7\x93\xe9M@'
p115
tp116
Rp117
ag10
(g14
S'r{w?\x888R@'
p118
tp119
Rp120
ag10
(g14
S'.\xb8l5\x8f\xfdW@'
p121
tp122
Rp123
ag10
(g14
S'\xcfqYU\x9fvW@'
p124
tp125
Rp126
ag10
(g14
S'\xcc\xc8Ij\xa6\xf9P@'
p127
tp128
Rp129
ag10
(g14
S'\x85\x97\xca\xb2!bO@'
p130
tp131
Rp132
ag10
(g14
S'\xbe2%\x92\x14\x91G@'
p133
tp134
Rp135
ag10
(g14
S'6\x02\xdag@OW@'
p136
tp137
Rp138
asssss.