(dp0
S'../Data/sqlite_70.csv'
p1
(dp2
S'../Data/sqlite_96.csv'
p3
(dp4
F0.2
(dp5
S'mmre'
p6
(dp7
S'bellwether'
p8
(lp9
cnumpy.core.multiarray
scalar
p10
(cnumpy
dtype
p11
(S'f8'
p12
I0
I1
tp13
Rp14
(I3
S'<'
p15
NNNI-1
I-1
I0
tp16
bS'\x9c\xb3>6$ER@'
p17
tp18
Rp19
ag10
(g14
S'\xae\xd7j8\x14@R@'
p20
tp21
Rp22
ag10
(g14
S'8\x7f\x01\x01\xa3DR@'
p23
tp24
Rp25
ag10
(g14
S"\x90\xe0'Tn7R@"
p26
tp27
Rp28
ag10
(g14
S'.P\x08<\x80DR@'
p29
tp30
Rp31
ag10
(g14
S'H"\x800\x07:R@'
p32
tp33
Rp34
ag10
(g14
S'\xc4t\xfd\x08F;R@'
p35
tp36
Rp37
ag10
(g14
S'#\x80\xa8&\x8a6R@'
p38
tp39
Rp40
ag10
(g14
S'{\x97|\xd8\x14BR@'
p41
tp42
Rp43
ag10
(g14
S'\xb8t\x0c\xcch>R@'
p44
tp45
Rp46
ag10
(g14
S'\x92x\x81\xeb~AR@'
p47
tp48
Rp49
ag10
(g14
S'\xbd\x1e\xd1\xbe\xc1ER@'
p50
tp51
Rp52
ag10
(g14
S'\xfe\xd0\x14\x12_9R@'
p53
tp54
Rp55
ag10
(g14
S'\x9e\x8e\xd3\x94|;R@'
p56
tp57
Rp58
ag10
(g14
S'\xec\x882\xabE6R@'
p59
tp60
Rp61
ag10
(g14
S'\xbd0\t"\x1d>R@'
p62
tp63
Rp64
ag10
(g14
S'\xc6\xea=\x06)8R@'
p65
tp66
Rp67
ag10
(g14
S'v]N\xc0D7R@'
p68
tp69
Rp70
ag10
(g14
S'^\xec\x11U0=R@'
p71
tp72
Rp73
ag10
(g14
S'h\xfe\xac\xae\x02;R@'
p74
tp75
Rp76
asS'target'
p77
(lp78
g10
(g14
S'\x96\x1ca]o`O@'
p79
tp80
Rp81
ag10
(g14
S'\xffM\xcc\x02@\xab_@'
p82
tp83
Rp84
ag10
(g14
S'\xaeV\x97\xd9sFW@'
p85
tp86
Rp87
ag10
(g14
S'O\xb4\xe6\xa7\xf1xU@'
p88
tp89
Rp90
ag10
(g14
S'\x9a#FR\xd30J@'
p91
tp92
Rp93
ag10
(g14
S'\xc3n\xef]:\xf0R@'
p94
tp95
Rp96
ag10
(g14
S'&\xd1\xc0Y\xfajS@'
p97
tp98
Rp99
ag10
(g14
S'\xf1T\xe7\xa1N\xbdU@'
p100
tp101
Rp102
ag10
(g14
S'\xaaS-\x93Q\xa7G@'
p103
tp104
Rp105
ag10
(g14
S'.\xaa\x93\x9d"(Q@'
p106
tp107
Rp108
ag10
(g14
S'\x96%\x81HU\x93S@'
p109
tp110
Rp111
ag10
(g14
S'o\x83\x82(6\xb8L@'
p112
tp113
Rp114
ag10
(g14
S'\x9fQ\x8b\xd5s\xa8\\@'
p115
tp116
Rp117
ag10
(g14
S'\xb6w\x06ED\xa2Y@'
p118
tp119
Rp120
ag10
(g14
S'\x0c=;\xc2\xb0&R@'
p121
tp122
Rp123
ag10
(g14
S'\xee\x81\xe1]a9T@'
p124
tp125
Rp126
ag10
(g14
S']BeXe\x96]@'
p127
tp128
Rp129
ag10
(g14
S'k0\x93_\xbd\x16R@'
p130
tp131
Rp132
ag10
(g14
S'\xaf\x03 \xb5j\xddJ@'
p133
tp134
Rp135
ag10
(g14
S'\xd3KhZ\x16\x8bR@'
p136
tp137
Rp138
asssss.