(dp0
S'../Data/sqlite_21.csv'
p1
(dp2
S'../Data/sqlite_79.csv'
p3
(dp4
F0.25
(dp5
S'mmre'
p6
(dp7
S'bellwether'
p8
(lp9
cnumpy.core.multiarray
scalar
p10
(cnumpy
dtype
p11
(S'f8'
p12
I0
I1
tp13
Rp14
(I3
S'<'
p15
NNNI-1
I-1
I0
tp16
bS'.\x02\xb4\xa3\x1bYy@'
p17
tp18
Rp19
ag10
(g14
S'\xf1|k_]Fy@'
p20
tp21
Rp22
ag10
(g14
S'A3\xf8\xdd\x0eAy@'
p23
tp24
Rp25
ag10
(g14
S'>\xab\xec\xeaGYy@'
p26
tp27
Rp28
ag10
(g14
S'\x1c7<\x8cX@y@'
p29
tp30
Rp31
ag10
(g14
S'DW\x14\xc9ZRy@'
p32
tp33
Rp34
ag10
(g14
S'.\xb5\xa1\x1eJey@'
p35
tp36
Rp37
ag10
(g14
S'\xf8\xce(\xdeQOy@'
p38
tp39
Rp40
ag10
(g14
S'\xf2Dd\xde\x05Wy@'
p41
tp42
Rp43
ag10
(g14
S'.j\xcb\xcc\x02]y@'
p44
tp45
Rp46
ag10
(g14
S'a\x93\x80D\x15Wy@'
p47
tp48
Rp49
ag10
(g14
S'T\xedz\xb14Ky@'
p50
tp51
Rp52
ag10
(g14
S'_S\xa4\xc3q^y@'
p53
tp54
Rp55
ag10
(g14
S'$\x9e\xc4\xa3"Py@'
p56
tp57
Rp58
ag10
(g14
S'n\x9e;\x0b\xe3Yy@'
p59
tp60
Rp61
ag10
(g14
S'Z;\xef;\xebLy@'
p62
tp63
Rp64
ag10
(g14
S'\x93Q\xbc-\xa1Cy@'
p65
tp66
Rp67
ag10
(g14
S'\x16\xaa~\x0e\x01cy@'
p68
tp69
Rp70
ag10
(g14
S'd\xb7~\xefoEy@'
p71
tp72
Rp73
ag10
(g14
S'\xe4OI\x82VKy@'
p74
tp75
Rp76
asS'target'
p77
(lp78
g10
(g14
S'\x07\x80\xe6<\xfb\x92$@'
p79
tp80
Rp81
ag10
(g14
S'M\x0c\x9b;\xdd\xcd!@'
p82
tp83
Rp84
ag10
(g14
S'\xcf\x9c\xcd\xb5\xec\xbe\x1d@'
p85
tp86
Rp87
ag10
(g14
S'E\x11~\x99uX$@'
p88
tp89
Rp90
ag10
(g14
S'\xf7.\xbd\x03dv$@'
p91
tp92
Rp93
ag10
(g14
S'\x18<\x0e\xcb;\xfc @'
p94
tp95
Rp96
ag10
(g14
S'\xd90"\xb7\xe1"#@'
p97
tp98
Rp99
ag10
(g14
S'\xfb\x84\xdc\xdc\xf4]"@'
p100
tp101
Rp102
ag10
(g14
S'\xda\xb3*N\xd1H#@'
p103
tp104
Rp105
ag10
(g14
S'\x1bW\x8b,\x7f\x81!@'
p106
tp107
Rp108
ag10
(g14
S'\x00O\xbe\x9c~\xab"@'
p109
tp110
Rp111
ag10
(g14
S'\xc2\xc6\xd5\x91\x1e\x9d\x1e@'
p112
tp113
Rp114
ag10
(g14
S'%S\xcdG\xbf\x9d%@'
p115
tp116
Rp117
ag10
(g14
S'\xb4J\xcf\x01C\x91\x1f@'
p118
tp119
Rp120
ag10
(g14
S'\x9e\xa2x#\\\xe0&@'
p121
tp122
Rp123
ag10
(g14
S'\xbe\xe5\xc7<\x9e\x1c\x1f@'
p124
tp125
Rp126
ag10
(g14
S'Z\xe9X\x16\x15&%@'
p127
tp128
Rp129
ag10
(g14
S'\xd3\x9eX\n7!"@'
p130
tp131
Rp132
ag10
(g14
S'o\x8dj\x85:\x82"@'
p133
tp134
Rp135
ag10
(g14
S'0\x93q`\xb2, @'
p136
tp137
Rp138
asssss.