(dp0
S'../Data/sqlite_4.csv'
p1
(dp2
S'../Data/sqlite_5.csv'
p3
(dp4
F0.05
(dp5
S'abs_res'
p6
(dp7
S'bellwether'
p8
(lp9
cnumpy.core.multiarray
scalar
p10
(cnumpy
dtype
p11
(S'f8'
p12
I0
I1
tp13
Rp14
(I3
S'<'
p15
NNNI-1
I-1
I0
tp16
bS'\xf5\xfd\xd4\x98ozBA'
p17
tp18
Rp19
ag10
(g14
S'w\x93\x18\x94\xadzBA'
p20
tp21
Rp22
ag10
(g14
S'>\xdfO\rIzBA'
p23
tp24
Rp25
ag10
(g14
S'\x88\t\x1e\xfcvzBA'
p26
tp27
Rp28
ag10
(g14
S'0\xb2\x9d\x0f}zBA'
p29
tp30
Rp31
ag10
(g14
S'sh\x91\xcd\x8ezBA'
p32
tp33
Rp34
ag10
(g14
S'\xdcO\x8dg1zBA'
p35
tp36
Rp37
ag10
(g14
S'\xaeT\x9cM\xa6zBA'
p38
tp39
Rp40
ag10
(g14
S'\x92\xc2\xf5x\xb4zBA'
p41
tp42
Rp43
ag10
(g14
S'\x95\xc4 @AzBA'
p44
tp45
Rp46
ag10
(g14
S'R\xe3\xa5\xeb\rzBA'
p47
tp48
Rp49
ag10
(g14
S'Vb\x10(\xaczBA'
p50
tp51
Rp52
ag10
(g14
S'p=\nw\xc8zBA'
p53
tp54
Rp55
ag10
(g14
S'\x1aX94\xb3zBA'
p56
tp57
Rp58
ag10
(g14
S'\r\xac\x1c\x1azzBA'
p59
tp60
Rp61
ag10
(g14
S'\xf9~j\xbcTzBA'
p62
tp63
Rp64
ag10
(g14
S'\x8f\xed|\x0f\xd5zBA'
p65
tp66
Rp67
ag10
(g14
S'\xca\xf5(\x8ckzBA'
p68
tp69
Rp70
ag10
(g14
S'\xc3\xca\xa150zBA'
p71
tp72
Rp73
ag10
(g14
S'\x8e\xc0\xca\xe1\xb0zBA'
p74
tp75
Rp76
asS'target'
p77
(lp78
g10
(g14
S'\x8d\x16\xd9\xce\xf7/d@'
p79
tp80
Rp81
ag10
(g14
S'_9\xb4\xc8v\x82a@'
p82
tp83
Rp84
ag10
(g14
S'\xad\x1cZd;W]@'
p85
tp86
Rp87
ag10
(g14
S'\xf5~j\xbctSb@'
p88
tp89
Rp90
ag10
(g14
S'\xebz\x14\xaeGUe@'
p91
tp92
Rp93
ag10
(g14
S'\xa6\x9b\xc4 \xb0\x9e`@'
p94
tp95
Rp96
ag10
(g14
S'\x03\xac\x1cZd\x83b@'
p97
tp98
Rp99
ag10
(g14
S':\x89A`\xe5\xf0\\@'
p100
tp101
Rp102
ag10
(g14
S'"\xaeG\xe1z\xbc^@'
p103
tp104
Rp105
ag10
(g14
S'\x93\x16\xd9\xce\xf7s[@'
p106
tp107
Rp108
ag10
(g14
S'\x00+\x87\x16\xd9\xdaf@'
p109
tp110
Rp111
ag10
(g14
S'\xca"\xdb\xf9~\xd6`@'
p112
tp113
Rp114
ag10
(g14
S'B\x0c\x02+\x87\x1ec@'
p115
tp116
Rp117
ag10
(g14
S'43333/`@'
p118
tp119
Rp120
ag10
(g14
S'\x82?5^\xbaIZ@'
p121
tp122
Rp123
ag10
(g14
S'X\x0e-\xb2\x9d\xdff@'
p124
tp125
Rp126
ag10
(g14
S'U9\xb4\xc8v\x0ec@'
p127
tp128
Rp129
ag10
(g14
S'\x9fE\xb6\xf3\xfdHb@'
p130
tp131
Rp132
ag10
(g14
S'%\\\x8f\xc2\xf5\xe8f@'
p133
tp134
Rp135
ag10
(g14
S';\xdd$\x06\x81\xe5^@'
p136
tp137
Rp138
asssss.