(dp0
S'../Data/sqlite_16.csv'
p1
(dp2
S'../Data/sqlite_79.csv'
p3
(dp4
F0.3
(dp5
S'mmre'
p6
(dp7
S'bellwether'
p8
(lp9
cnumpy.core.multiarray
scalar
p10
(cnumpy
dtype
p11
(S'f8'
p12
I0
I1
tp13
Rp14
(I3
S'<'
p15
NNNI-1
I-1
I0
tp16
bS's#\x18PA6<@'
p17
tp18
Rp19
ag10
(g14
S'\x9a\xe4!R\xba0<@'
p20
tp21
Rp22
ag10
(g14
S'\xcb\xf0"\x0e\rI<@'
p23
tp24
Rp25
ag10
(g14
S'E\xa29bzW<@'
p26
tp27
Rp28
ag10
(g14
S'\xf7\xa2\xda\xb3K5<@'
p29
tp30
Rp31
ag10
(g14
S'{=\xd1@\x00;<@'
p32
tp33
Rp34
ag10
(g14
S'\xd9*\x0b\x19x4<@'
p35
tp36
Rp37
ag10
(g14
S'\xc1\xbfA\\#\x97<@'
p38
tp39
Rp40
ag10
(g14
S'G\xea\\\xd1N|<@'
p41
tp42
Rp43
ag10
(g14
S'\xdd\xd6\x96\x03D\xdd<@'
p44
tp45
Rp46
ag10
(g14
S'\xf0\x90tb\xe5r<@'
p47
tp48
Rp49
ag10
(g14
S'Y\xec\xf5}\xe1\x8f<@'
p50
tp51
Rp52
ag10
(g14
S'\x08\xfenI\x19|<@'
p53
tp54
Rp55
ag10
(g14
S'}9bz\xcc0<@'
p56
tp57
Rp58
ag10
(g14
S'E\xa5\x02Iv}<@'
p59
tp60
Rp61
ag10
(g14
S'\xc0)\\,\xf5n<@'
p62
tp63
Rp64
ag10
(g14
S'\xc7\xb9"!\xcaD<@'
p65
tp66
Rp67
ag10
(g14
S"'WL\x82u`<@"
p68
tp69
Rp70
ag10
(g14
S'\x88:2\xda\xdcL<@'
p71
tp72
Rp73
ag10
(g14
S']\x1b\x1c\xbc\xc7e<@'
p74
tp75
Rp76
asS'target'
p77
(lp78
g10
(g14
S'\x03\xd5R\xd6\r\xd0"@'
p79
tp80
Rp81
ag10
(g14
S'6\xb8B\xfd\x18\x83*@'
p82
tp83
Rp84
ag10
(g14
S'9\xcb\x00*\xbb\xc9"@'
p85
tp86
Rp87
ag10
(g14
S'6FO\xa05\xab$@'
p88
tp89
Rp90
ag10
(g14
S'l\xddm-+_(@'
p91
tp92
Rp93
ag10
(g14
S'h\x904|\xb9\t"@'
p94
tp95
Rp96
ag10
(g14
S'\xaf\x96u\xfd+\xcb @'
p97
tp98
Rp99
ag10
(g14
S'\xda\xc7\xc3\xc1 \xb3#@'
p100
tp101
Rp102
ag10
(g14
S'\x92\xcf\xd7\x89(\xc4"@'
p103
tp104
Rp105
ag10
(g14
S'\xe4\x95\xca\x12Z\xc5#@'
p106
tp107
Rp108
ag10
(g14
S'\xdb\xd7\x07\x00;\xfc"@'
p109
tp110
Rp111
ag10
(g14
S'\x99\xb7\xfd\x04c\xf3\x1e@'
p112
tp113
Rp114
ag10
(g14
S'\xf2\x00>]P\xc0"@'
p115
tp116
Rp117
ag10
(g14
S'\x15\x88\x01\x91n\x93$@'
p118
tp119
Rp120
ag10
(g14
S'\xf2B\xd4\x12e\xe5\x1f@'
p121
tp122
Rp123
ag10
(g14
S'\'>\xf9\xa3\xb5\xb9"@'
p124
tp125
Rp126
ag10
(g14
S'\xcf\xed\xba\xcc\x17\xe0!@'
p127
tp128
Rp129
ag10
(g14
S'`d.L\xc1\xb0$@'
p130
tp131
Rp132
ag10
(g14
S"\x88\xf5\x04\xe1!8'@"
p133
tp134
Rp135
ag10
(g14
S'\xb8$h\xe5|\x8e\x1e@'
p136
tp137
Rp138
asssss.