(dp0
S'../Data/sqlite_18.csv'
p1
(dp2
S'../Data/sqlite_28.csv'
p3
(dp4
F0.35
(dp5
S'abs_res'
p6
(dp7
S'bellwether'
p8
(lp9
cnumpy.core.multiarray
scalar
p10
(cnumpy
dtype
p11
(S'f8'
p12
I0
I1
tp13
Rp14
(I3
S'<'
p15
NNNI-1
I-1
I0
tp16
bS'\xebB\xd24\xa3.9A'
p17
tp18
Rp19
ag10
(g14
S'\xcd\xbd\xe6\x82F-9A'
p20
tp21
Rp22
ag10
(g14
S'\xc1\xe6Br\x9f/9A'
p23
tp24
Rp25
ag10
(g14
S'\xbb\xbb\xbb{o,9A'
p26
tp27
Rp28
ag10
(g14
S'\xdb$\x06!k,9A'
p29
tp30
Rp31
ag10
(g14
S'H\x19\xbd\r\x04.9A'
p32
tp33
Rp34
ag10
(g14
S'i\xad\x8e\xe9\xdf,9A'
p35
tp36
Rp37
ag10
(g14
S'M~\xb1\xe4\x04-9A'
p38
tp39
Rp40
ag10
(g14
S'\x06\xc8\xbd\xc6\x1e/9A'
p41
tp42
Rp43
ag10
(g14
S'~\xdckNF.9A'
p44
tp45
Rp46
ag10
(g14
S'*""\x02).9A'
p47
tp48
Rp49
ag10
(g14
S'\xbc\xbb\xbb{\xe9-9A'
p50
tp51
Rp52
ag10
(g14
S'\\\xd6\xea\xf8\x94/9A'
p53
tp54
Rp55
ag10
(g14
S'\xb4\xe4\x17k\xbd-9A'
p56
tp57
Rp58
ag10
(g14
S'iW\x80|^/9A'
p59
tp60
Rp61
ag10
(g14
S'\xa7\x8c\xde\x16\x01-9A'
p62
tp63
Rp64
ag10
(g14
S'u\xda@\x870,9A'
p65
tp66
Rp67
ag10
(g14
S'xL\xf0`\xc6-9A'
p68
tp69
Rp70
ag10
(g14
S'\x05\xf3D\xddh.9A'
p71
tp72
Rp73
ag10
(g14
S'J`\xe5\x10\xc1.9A'
p74
tp75
Rp76
asS'target'
p77
(lp78
g10
(g14
S'\xd9\xf7S\xe3\xa5\x0b]@'
p79
tp80
Rp81
ag10
(g14
S'\x9a\x1a/\xdd$n\\@'
p82
tp83
Rp84
ag10
(g14
S'\xf4|?5^\x92]@'
p85
tp86
Rp87
ag10
(g14
S'\x0f\xd7\xa3p=z[@'
p88
tp89
Rp90
ag10
(g14
S'\x97\xef\xa7\xc6K#]@'
p91
tp92
Rp93
ag10
(g14
S'\x8c\x97n\x12\x83,\\@'
p94
tp95
Rp96
ag10
(g14
S'\xb5rh\x91\xedd\\@'
p97
tp98
Rp99
ag10
(g14
S'\x02\xfe\xd4x\xe9^[@'
p100
tp101
Rp102
ag10
(g14
S'\xccK7\x89Ax[@'
p103
tp104
Rp105
ag10
(g14
S'\x9e\x99\x99\x99\x99A\\@'
p106
tp107
Rp108
ag10
(g14
S'\x18Zd;\xdf;Z@'
p109
tp110
Rp111
ag10
(g14
S'U\xe3\xa5\x9b\xc4h]@'
p112
tp113
Rp114
ag10
(g14
S'\x13-\xb2\x9d\xef\x07\\@'
p115
tp116
Rp117
ag10
(g14
S'\xcb \xb0rh\xb1Z@'
p118
tp119
Rp120
ag10
(g14
S'\xb4rh\x91\xed|_@'
p121
tp122
Rp123
ag10
(g14
S'vh\x91\xed|\xe7Z@'
p124
tp125
Rp126
ag10
(g14
S'\\\x8f\xc2\xf5(\xfc[@'
p127
tp128
Rp129
ag10
(g14
S'\xcc\xcc\xcc\xcc\xcc0[@'
p130
tp131
Rp132
ag10
(g14
S'-\xb2\x9d\xef\xa7~[@'
p133
tp134
Rp135
ag10
(g14
S'\xd9\xf9~j\xbcT\\@'
p136
tp137
Rp138
asssss.