(dp0
S'../Data/sqlite_95.csv'
p1
(dp2
S'../Data/sqlite_36.csv'
p3
(dp4
F0.25
(dp5
S'abs_res'
p6
(dp7
S'bellwether'
p8
(lp9
cnumpy.core.multiarray
scalar
p10
(cnumpy
dtype
p11
(S'f8'
p12
I0
I1
tp13
Rp14
(I3
S'<'
p15
NNNI-1
I-1
I0
tp16
bS't\x842:\x93M6A'
p17
tp18
Rp19
ag10
(g14
S'\x90\xed|_\x15\x026A'
p20
tp21
Rp22
ag10
(g14
S"\xcf\xcc\xcc\xec'\xfa5A"
p23
tp24
Rp25
ag10
(g14
S'\x1eZd\x1bJM6A'
p26
tp27
Rp28
ag10
(g14
S'j.$\r\xbdo6A'
p29
tp30
Rp31
ag10
(g14
S'\xfa\xf0\x19\xb6\xa1a6A'
p32
tp33
Rp34
ag10
(g14
S'a\x10Xy"[6A'
p35
tp36
Rp37
ag10
(g14
S'\x1c\x13<8\x82A6A'
p38
tp39
Rp40
ag10
(g14
S'\xb1\xe4\x17\xab\xd3>6A'
p41
tp42
Rp43
ag10
(g14
S'uY\xab\x83\x81Q6A'
p44
tp45
Rp46
ag10
(g14
S'\xecQ\xb8\xfe\xb5\x0e6A'
p47
tp48
Rp49
ag10
(g14
S'\x87\x95C\xab\x83M6A'
p50
tp51
Rp52
ag10
(g14
S'\xb2\xc8v\xde|<6A'
p53
tp54
Rp55
ag10
(g14
S'\x03\xc6\x92_\x8e.6A'
p56
tp57
Rp58
ag10
(g14
S'W*\xce\xfe\xb0A6A'
p59
tp60
Rp61
ag10
(g14
S'\xbaI\x0c"s96A'
p62
tp63
Rp64
ag10
(g14
S'D\xd2\x94\xea)\x196A'
p65
tp66
Rp67
ag10
(g14
S'\x19>\xc3N#\x186A'
p68
tp69
Rp70
ag10
(g14
S'\x0e\x90{\xcdzC6A'
p71
tp72
Rp73
ag10
(g14
S'#\xb0rH"26A'
p74
tp75
Rp76
asS'target'
p77
(lp78
g10
(g14
S'\xaa\xc6K7\x89ET@'
p79
tp80
Rp81
ag10
(g14
S'\xb0E\xb6\xf3\xfd\x1cU@'
p82
tp83
Rp84
ag10
(g14
S'\x1a\x04V\x0e-\xc2X@'
p85
tp86
Rp87
ag10
(g14
S'#\xdb\xf9~j\xbcU@'
p88
tp89
Rp90
ag10
(g14
S'Wb\x10X9\xdcU@'
p91
tp92
Rp93
ag10
(g14
S'\x8a\xc0\xca\xa1E\xf2T@'
p94
tp95
Rp96
ag10
(g14
S'Gb\x10X9HV@'
p97
tp98
Rp99
ag10
(g14
S'M7\x89A`\xf1T@'
p100
tp101
Rp102
ag10
(g14
S'6^\xbaI\x0c\xcaU@'
p103
tp104
Rp105
ag10
(g14
S'\x16\xd9\xce\xf7ScV@'
p106
tp107
Rp108
ag10
(g14
S'\xb7\xf3\xfd\xd4x\xb5X@'
p109
tp110
Rp111
ag10
(g14
S'\x9a\x99\x99\x99\x99]U@'
p112
tp113
Rp114
ag10
(g14
S'j\xbct\x93\x18\xd4U@'
p115
tp116
Rp117
ag10
(g14
S'\xf6|?5^6V@'
p118
tp119
Rp120
ag10
(g14
S'\xf5|?5^\xb6X@'
p121
tp122
Rp123
ag10
(g14
S'\xfa*\x87\x16\xd9\xeaT@'
p124
tp125
Rp126
ag10
(g14
S'\x15\xd9\xce\xf7S\x17W@'
p127
tp128
Rp129
ag10
(g14
S'\x1a\xd9\xce\xf7SsY@'
p130
tp131
Rp132
ag10
(g14
S'_\xbaI\x0c\x02#U@'
p133
tp134
Rp135
ag10
(g14
S'\x96\xed|?5>T@'
p136
tp137
Rp138
asssss.