(dp0
S'../Data/sqlite_58.csv'
p1
(dp2
S'../Data/sqlite_76.csv'
p3
(dp4
F0.05
(dp5
S'mmre'
p6
(dp7
S'bellwether'
p8
(lp9
cnumpy.core.multiarray
scalar
p10
(cnumpy
dtype
p11
(S'f8'
p12
I0
I1
tp13
Rp14
(I3
S'<'
p15
NNNI-1
I-1
I0
tp16
bS'\xb7CC\xf72lU@'
p17
tp18
Rp19
ag10
(g14
S'd;b\x93\xf8kU@'
p20
tp21
Rp22
ag10
(g14
S'\xba\xff\xb3\x87\xf7jU@'
p23
tp24
Rp25
ag10
(g14
S'/K\x88\xc0\xdelU@'
p26
tp27
Rp28
ag10
(g14
S'\xa8\xd9\xdb\xa9fmU@'
p29
tp30
Rp31
ag10
(g14
S'S?\x00\xbe{nU@'
p32
tp33
Rp34
ag10
(g14
S'\xa7\\UA\x19nU@'
p35
tp36
Rp37
ag10
(g14
S')=ay\x1dlU@'
p38
tp39
Rp40
ag10
(g14
S'V\x83O\xec\xddlU@'
p41
tp42
Rp43
ag10
(g14
S'\x95c\x91K7lU@'
p44
tp45
Rp46
ag10
(g14
S'}\xdb\xf2\xf0\xf7lU@'
p47
tp48
Rp49
ag10
(g14
S'|\xba\xef\xd2\x94kU@'
p50
tp51
Rp52
ag10
(g14
S'\x91\x85\xfc/cnU@'
p53
tp54
Rp55
ag10
(g14
S'\xcf\xe1\xbb\x04SlU@'
p56
tp57
Rp58
ag10
(g14
S'\xd3\xc7\x8f\xc5KmU@'
p59
tp60
Rp61
ag10
(g14
S'Z\x94=@glU@'
p62
tp63
Rp64
ag10
(g14
S'\xe8\xf0\x1c\xff\xd7lU@'
p65
tp66
Rp67
ag10
(g14
S'\x8d\xb7N\xdc\x83mU@'
p68
tp69
Rp70
ag10
(g14
S'>s\xec\xeb_lU@'
p71
tp72
Rp73
ag10
(g14
S'J\x02x\xfaXlU@'
p74
tp75
Rp76
asS'target'
p77
(lp78
g10
(g14
S'\xf6O\xf7\xc0%\xa23@'
p79
tp80
Rp81
ag10
(g14
S'\\\xbb\xd7%0\xcd0@'
p82
tp83
Rp84
ag10
(g14
S'\xa4\xd5\x97\x85(\xaa3@'
p85
tp86
Rp87
ag10
(g14
S'\x82w:\xb0\xdb\xbe5@'
p88
tp89
Rp90
ag10
(g14
S'\x0e\n\xfa\xcbc\x9d2@'
p91
tp92
Rp93
ag10
(g14
S'~8\xe3\x8c+\xbd1@'
p94
tp95
Rp96
ag10
(g14
S';\x1a<\xb0\xca\xec3@'
p97
tp98
Rp99
ag10
(g14
S'\n\x94\xb6\xf7\x13L2@'
p100
tp101
Rp102
ag10
(g14
S'W\xb7\xf7\xdf\x9b\xdf1@'
p103
tp104
Rp105
ag10
(g14
S'\x91D\xb3sc\x830@'
p106
tp107
Rp108
ag10
(g14
S'\xbb\xc2\xe0\x8c\x7f\xce1@'
p109
tp110
Rp111
ag10
(g14
S'\x04)M\xef\xa4\x083@'
p112
tp113
Rp114
ag10
(g14
S'\xd0\xc7\x86\xf8\xaf50@'
p115
tp116
Rp117
ag10
(g14
S"3\x81A'X\n4@"
p118
tp119
Rp120
ag10
(g14
S'9e\x98\xc7\x15\xf3/@'
p121
tp122
Rp123
ag10
(g14
S',\xa1\xc7O\xf6\xd5/@'
p124
tp125
Rp126
ag10
(g14
S'\x92m\x1b\x88\x93\xc61@'
p127
tp128
Rp129
ag10
(g14
S'yB\xfd-)t0@'
p130
tp131
Rp132
ag10
(g14
S'JjN\xfe\x18K1@'
p133
tp134
Rp135
ag10
(g14
S't\xb9\xd3D\xb232@'
p136
tp137
Rp138
asssss.