(dp0
S'../Data/sqlite_80.csv'
p1
(dp2
S'../Data/sqlite_28.csv'
p3
(dp4
F0.35
(dp5
S'abs_res'
p6
(dp7
S'bellwether'
p8
(lp9
cnumpy.core.multiarray
scalar
p10
(cnumpy
dtype
p11
(S'f8'
p12
I0
I1
tp13
Rp14
(I3
S'<'
p15
NNNI-1
I-1
I0
tp16
bS'\x86]\x01r\xcc^\rA'
p17
tp18
Rp19
ag10
(g14
S'\x0e\x90{\xcdxX\rA'
p20
tp21
Rp22
ag10
(g14
S'0$M\xa9\x98\\\rA'
p23
tp24
Rp25
ag10
(g14
S'!"""\x07_\rA'
p26
tp27
Rp28
ag10
(g14
S'-\x06\x81\x95P\\\rA'
p29
tp30
Rp31
ag10
(g14
S'\xbe\xbb\xbb\xbb@\\\rA'
p32
tp33
Rp34
ag10
(g14
S'\x1b/\xdd$\xf4Z\rA'
p35
tp36
Rp37
ag10
(g14
S'4\xdd$\x06\x9d_\rA'
p38
tp39
Rp40
ag10
(g14
S'\xb5rh\x91\x10_\rA'
p41
tp42
Rp43
ag10
(g14
S'\xc3\x83y\xa2j\\\rA'
p44
tp45
Rp46
ag10
(g14
S'ffff\xd2^\rA'
p47
tp48
Rp49
ag10
(g14
S'\x98\xfcb\xc9\xab]\rA'
p50
tp51
Rp52
ag10
(g14
S'S\x0e-\xb2\xd8\\\rA'
p53
tp54
Rp55
ag10
(g14
S'L\xfd\x1b\xa1\xb6[\rA'
p56
tp57
Rp58
ag10
(g14
S'\xaa\x1cZd\xfaY\rA'
p59
tp60
Rp61
ag10
(g14
S'\x90n\x12\x83\xc1Z\rA'
p62
tp63
Rp64
ag10
(g14
S'\xf1\x9a\x0bI\xd3X\rA'
p65
tp66
Rp67
ag10
(g14
S'5O\xd4\xbf\xda^\rA'
p68
tp69
Rp70
ag10
(g14
S'\x1a\x13<\x98%X\rA'
p71
tp72
Rp73
ag10
(g14
S'\xd3\xbf\x11\xca\xec\\\rA'
p74
tp75
Rp76
asS'target'
p77
(lp78
g10
(g14
S':\xb4\xc8v\xbe\xc7[@'
p79
tp80
Rp81
ag10
(g14
S'\xbcK7\x89A\xe0]@'
p82
tp83
Rp84
ag10
(g14
S'\x17\x85\xebQ\xb8\x82Z@'
p85
tp86
Rp87
ag10
(g14
S'\xfe\xff\xff\xff\xff\xf7]@'
p88
tp89
Rp90
ag10
(g14
S'\xe8$\x06\x81\x95\x7fZ@'
p91
tp92
Rp93
ag10
(g14
S'\x1e\x85\xebQ\xb8\xaaZ@'
p94
tp95
Rp96
ag10
(g14
S'n\x91\xed|?\xad[@'
p97
tp98
Rp99
ag10
(g14
S'o\x12\x83\xc0\xcaeZ@'
p100
tp101
Rp102
ag10
(g14
S'\x04+\x87\x16\xd9\xfa\\@'
p103
tp104
Rp105
ag10
(g14
S'\xec|?5^\xb2[@'
p106
tp107
Rp108
ag10
(g14
S'\xcd\xce\xf7S\xe3e[@'
p109
tp110
Rp111
ag10
(g14
S'\xccK7\x89A\x88[@'
p112
tp113
Rp114
ag10
(g14
S'\xf9~j\xbct\x83\\@'
p115
tp116
Rp117
ag10
(g14
S'?`\xe5\xd0"C\\@'
p118
tp119
Rp120
ag10
(g14
S'\x7f\xebQ\xb8\x1e\xfd[@'
p121
tp122
Rp123
ag10
(g14
S'\x86A`\xe5\xd0:\\@'
p124
tp125
Rp126
ag10
(g14
S'\xcc \xb0rhAZ@'
p127
tp128
Rp129
ag10
(g14
S'|\x95C\x8bl\xff\\@'
p130
tp131
Rp132
ag10
(g14
S'\x0e\xd7\xa3p=\xda\\@'
p133
tp134
Rp135
ag10
(g14
S'\xfd\xd4x\xe9&i\\@'
p136
tp137
Rp138
asssss.