(dp0
S'../Data/sqlite_29.csv'
p1
(dp2
S'../Data/sqlite_22.csv'
p3
(dp4
F0.05
(dp5
S'abs_res'
p6
(dp7
S'bellwether'
p8
(lp9
cnumpy.core.multiarray
scalar
p10
(cnumpy
dtype
p11
(S'f8'
p12
I0
I1
tp13
Rp14
(I3
S'<'
p15
NNNI-1
I-1
I0
tp16
bS'4\\\x8fBLIEA'
p17
tp18
Rp19
ag10
(g14
S'\xb5\x1cZ\xe4~IEA'
p20
tp21
Rp22
ag10
(g14
S',\xb0rh4IEA'
p23
tp24
Rp25
ag10
(g14
S'.@\xee\xd5zIEA'
p26
tp27
Rp28
ag10
(g14
S'\xb2\x1cZ$\xbbHEA'
p29
tp30
Rp31
ag10
(g14
S'\x9e\xef\xa7\x16\x97IEA'
p32
tp33
Rp34
ag10
(g14
S'l\x91\xed\\<IEA'
p35
tp36
Rp37
ag10
(g14
S'\xfa\xd4x\xf9~IEA'
p38
tp39
Rp40
ag10
(g14
S'\x08+\x87\xb6"IEA'
p41
tp42
Rp43
ag10
(g14
S'\x10:m\xe0\x97IEA'
p44
tp45
Rp46
ag10
(g14
S'\xfeQ\xb8\xceaIEA'
p47
tp48
Rp49
ag10
(g14
S'vh\x91\xbd\\IEA'
p50
tp51
Rp52
ag10
(g14
S']\xbaI\x9c\x80IEA'
p53
tp54
Rp55
ag10
(g14
S'5\xdd$f-IEA'
p56
tp57
Rp58
ag10
(g14
S"\x15\x02+'RIEA"
p59
tp60
Rp61
ag10
(g14
S'\xad\xc6Kg\x88IEA'
p62
tp63
Rp64
ag10
(g14
S'?\xb6\xf3\xad\x8aHEA'
p65
tp66
Rp67
ag10
(g14
S'\xaa\xf1\xd2\xed{IEA'
p68
tp69
Rp70
ag10
(g14
S'\x89\t\x1e|\xb2IEA'
p71
tp72
Rp73
ag10
(g14
S'\xeb\xec\xc3\xc7\x85IEA'
p74
tp75
Rp76
asS'target'
p77
(lp78
g10
(g14
S'\x89\x18\x04V\x0eUZ@'
p79
tp80
Rp81
ag10
(g14
S'~?5^\xbaaa@'
p82
tp83
Rp84
ag10
(g14
S'\xd6$\x06\x81\x95\xbb^@'
p85
tp86
Rp87
ag10
(g14
S'a\x91\xed|?Y_@'
p88
tp89
Rp90
ag10
(g14
S'\x95\xed|?5\x96`@'
p91
tp92
Rp93
ag10
(g14
S'\xe7\xd0"\xdb\xf9>`@'
p94
tp95
Rp96
ag10
(g14
S'\xbd\x1e\x85\xebQ@Z@'
p97
tp98
Rp99
ag10
(g14
S':^\xbaI\x0cZ^@'
p100
tp101
Rp102
ag10
(g14
S'\x88\x95C\x8bl\xc7Z@'
p103
tp104
Rp105
ag10
(g14
S'\xc9\xf7S\xe3\xa5\x07Z@'
p106
tp107
Rp108
ag10
(g14
S'K\xe1z\x14\xae\x0f[@'
p109
tp110
Rp111
ag10
(g14
S'\n+\x87\x16\xd9FZ@'
p112
tp113
Rp114
ag10
(g14
S"\x94\xc2\xf5(\\'a@"
p115
tp116
Rp117
ag10
(g14
S'<\x08\xac\x1cZl]@'
p118
tp119
Rp120
ag10
(g14
S'%Zd;\xdf\x0f`@'
p121
tp122
Rp123
ag10
(g14
S'\x95A`\xe5\xd0\xda_@'
p124
tp125
Rp126
ag10
(g14
S'\xa1\x1a/\xdd$\xee]@'
p127
tp128
Rp129
ag10
(g14
S'\xf0|?5^\xfaZ@'
p130
tp131
Rp132
ag10
(g14
S'\x95\x1a/\xdd$f^@'
p133
tp134
Rp135
ag10
(g14
S'=5^\xbaI\xbc_@'
p136
tp137
Rp138
asssss.