(dp0
S'../Data/sqlite_5.csv'
p1
(dp2
S'../Data/sqlite_94.csv'
p3
(dp4
F0.25
(dp5
S'mmre'
p6
(dp7
S'bellwether'
p8
(lp9
cnumpy.core.multiarray
scalar
p10
(cnumpy
dtype
p11
(S'f8'
p12
I0
I1
tp13
Rp14
(I3
S'<'
p15
NNNI-1
I-1
I0
tp16
bS',\x90F\xb5SYX@'
p17
tp18
Rp19
ag10
(g14
S'e\xc2\xa8\x1c\xeeXX@'
p20
tp21
Rp22
ag10
(g14
S'\xd1-)B\xa5XX@'
p23
tp24
Rp25
ag10
(g14
S'"\x18\xc1\x9d$YX@'
p26
tp27
Rp28
ag10
(g14
S'\x9a\x1cC\x9dPYX@'
p29
tp30
Rp31
ag10
(g14
S'\x96\xb6\xb6\xd6\xaaXX@'
p32
tp33
Rp34
ag10
(g14
S'\xe4\xe5j\xa6zZX@'
p35
tp36
Rp37
ag10
(g14
S'\xe0\xcev\x08\xf6XX@'
p38
tp39
Rp40
ag10
(g14
S'm6sJxZX@'
p41
tp42
Rp43
ag10
(g14
S'\xb9)\x08\xe1\x0fXX@'
p44
tp45
Rp46
ag10
(g14
S'\xce\xe43\xd2\xedYX@'
p47
tp48
Rp49
ag10
(g14
S'\xb1,l\xed([X@'
p50
tp51
Rp52
ag10
(g14
S'\x88O\\,\xfeXX@'
p53
tp54
Rp55
ag10
(g14
S']\xd8\xdc\x11$ZX@'
p56
tp57
Rp58
ag10
(g14
S'i\xce\x9a\xc5\xdaXX@'
p59
tp60
Rp61
ag10
(g14
S'$lt\xf4,YX@'
p62
tp63
Rp64
ag10
(g14
S' \xcb&>\xf3YX@'
p65
tp66
Rp67
ag10
(g14
S'\xd8\rt"\xb4YX@'
p68
tp69
Rp70
ag10
(g14
S'\xa8\xf7\x9f=!ZX@'
p71
tp72
Rp73
ag10
(g14
S'\xd3\xb3\xc17)XX@'
p74
tp75
Rp76
asS'target'
p77
(lp78
g10
(g14
S'0\xc1\x8a\xf9\x8a\xa9G@'
p79
tp80
Rp81
ag10
(g14
S'\xdb9\xea\xb8\x1a\x81U@'
p82
tp83
Rp84
ag10
(g14
S'\x1c^l\xe5u\x89R@'
p85
tp86
Rp87
ag10
(g14
S'\x97\xdf%\xfa\x10\xf4L@'
p88
tp89
Rp90
ag10
(g14
S'\xc4\x8e\xed\ro[S@'
p91
tp92
Rp93
ag10
(g14
S'446eN!F@'
p94
tp95
Rp96
ag10
(g14
S'\x83\xd8\xa5b\xd8\xb1L@'
p97
tp98
Rp99
ag10
(g14
S'\xfb\x13\x83\xa8\xe8\xd9X@'
p100
tp101
Rp102
ag10
(g14
S'Z!^Tr\xf8H@'
p103
tp104
Rp105
ag10
(g14
S'\xb4\xad\xf2\xd8\xb6QW@'
p106
tp107
Rp108
ag10
(g14
S'\xe9\x9a\xe3\xdcWDK@'
p109
tp110
Rp111
ag10
(g14
S'W\xf2!^\xfd\x16J@'
p112
tp113
Rp114
ag10
(g14
S'E\xee7\xc7\x9bsI@'
p115
tp116
Rp117
ag10
(g14
S'+\\\xe2B\x05\x95J@'
p118
tp119
Rp120
ag10
(g14
S'\x1f\x0e5\x05\xcf\xaaI@'
p121
tp122
Rp123
ag10
(g14
S'{y\x17\xf7\xae\x91T@'
p124
tp125
Rp126
ag10
(g14
S'\x8c\x0171\xc2"U@'
p127
tp128
Rp129
ag10
(g14
S'$\xd4\xa1x\xc8_G@'
p130
tp131
Rp132
ag10
(g14
S'\x98\x85P\xd3\xb1EN@'
p133
tp134
Rp135
ag10
(g14
S'\xc8\x8d\x89\xbdthP@'
p136
tp137
Rp138
asssss.