(dp0
S'../Data/sqlite_70.csv'
p1
(dp2
S'../Data/sqlite_73.csv'
p3
(dp4
F0.15
(dp5
S'mmre'
p6
(dp7
S'bellwether'
p8
(lp9
cnumpy.core.multiarray
scalar
p10
(cnumpy
dtype
p11
(S'f8'
p12
I0
I1
tp13
Rp14
(I3
S'<'
p15
NNNI-1
I-1
I0
tp16
bS'R\x04"]INE@'
p17
tp18
Rp19
ag10
(g14
S'$\xcb\xb1\x97+PE@'
p20
tp21
Rp22
ag10
(g14
S'\x7f~M\xf62JE@'
p23
tp24
Rp25
ag10
(g14
S'\xd3D\xed\x05UWE@'
p26
tp27
Rp28
ag10
(g14
S'[;\x98\x84\x173E@'
p29
tp30
Rp31
ag10
(g14
S'X\x19\xfd\xc2QGE@'
p32
tp33
Rp34
ag10
(g14
S'\xd2L)P\xa2PE@'
p35
tp36
Rp37
ag10
(g14
S"\x1a\xe1-'\xc7?E@"
p38
tp39
Rp40
ag10
(g14
S'a\xb0\xe6\xd8\xa0CE@'
p41
tp42
Rp43
ag10
(g14
S'\xabc:{\xe8PE@'
p44
tp45
Rp46
ag10
(g14
S'\\m\xb6d<BE@'
p47
tp48
Rp49
ag10
(g14
S'\xab!f\xb61>E@'
p50
tp51
Rp52
ag10
(g14
S'/\xcb/\xde\xcaGE@'
p53
tp54
Rp55
ag10
(g14
S'+\xb8\xa8W*SE@'
p56
tp57
Rp58
ag10
(g14
S'V~\x7f\xb2\xfdVE@'
p59
tp60
Rp61
ag10
(g14
S'\x9c,z\x8bP1E@'
p62
tp63
Rp64
ag10
(g14
S'bLN+\xe4RE@'
p65
tp66
Rp67
ag10
(g14
S')\x11\xa1\xe6\xa0=E@'
p68
tp69
Rp70
ag10
(g14
S'\xc2\xeb\x95u\xd8JE@'
p71
tp72
Rp73
ag10
(g14
S'h\x88\xf8\xf1nHE@'
p74
tp75
Rp76
asS'target'
p77
(lp78
g10
(g14
S"-M\xe3'Nc,@"
p79
tp80
Rp81
ag10
(g14
S'\x1c\x90)\x8b\x8e\x8b*@'
p82
tp83
Rp84
ag10
(g14
S'U(\xa4(\xa3\xba-@'
p85
tp86
Rp87
ag10
(g14
S'\xa2\xd3\xad\x050\xcc,@'
p88
tp89
Rp90
ag10
(g14
S'\t6`\x83\xe0\xf8,@'
p91
tp92
Rp93
ag10
(g14
S'>\xc4\xe0\xe9\xfa\xdd+@'
p94
tp95
Rp96
ag10
(g14
S'c\xc1d\xeb7\x1c*@'
p97
tp98
Rp99
ag10
(g14
S'H\xf5\xe7\xec\xcad.@'
p100
tp101
Rp102
ag10
(g14
S'0QS\xf8\x04\xfc-@'
p103
tp104
Rp105
ag10
(g14
S'o\x88\x08\xae`\x0c,@'
p106
tp107
Rp108
ag10
(g14
S'd\xf9\x8d\xa7\x82B-@'
p109
tp110
Rp111
ag10
(g14
S'\xf4v\xc9\xec\x10T/@'
p112
tp113
Rp114
ag10
(g14
S'p\xcc)Y\x89\x89+@'
p115
tp116
Rp117
ag10
(g14
S'0hs\xa5\xaai,@'
p118
tp119
Rp120
ag10
(g14
S'\x8d\xfa\x03\xb6Z$,@'
p121
tp122
Rp123
ag10
(g14
S'\xfb\x83\xd8v(\x17.@'
p124
tp125
Rp126
ag10
(g14
S')\xc7\xdd\xe0\xaf\xe9*@'
p127
tp128
Rp129
ag10
(g14
S'\xbfH4\x1e\xb3\x94-@'
p130
tp131
Rp132
ag10
(g14
S'<1G\xabk[.@'
p133
tp134
Rp135
ag10
(g14
S'\x00\xadr\xf5SN+@'
p136
tp137
Rp138
asssss.