(dp0
S'../Data/sqlite_95.csv'
p1
(dp2
S'../Data/sqlite_30.csv'
p3
(dp4
F0.15
(dp5
S'abs_res'
p6
(dp7
S'bellwether'
p8
(lp9
cnumpy.core.multiarray
scalar
p10
(cnumpy
dtype
p11
(S'f8'
p12
I0
I1
tp13
Rp14
(I3
S'<'
p15
NNNI-1
I-1
I0
tp16
bS'&\x94\xd1[B+9A'
p17
tp18
Rp19
ag10
(g14
S'\\\xd6\xea8\xb8\x179A'
p20
tp21
Rp22
ag10
(g14
S"\x92\xed|\x9f1'9A"
p23
tp24
Rp25
ag10
(g14
S'\x15\xca\xe8m6E9A'
p26
tp27
Rp28
ag10
(g14
S'\x81l\xe7\xfb\xb0;9A'
p29
tp30
Rp31
ag10
(g14
S'}\x95C\x8b)\x1a9A'
p32
tp33
Rp34
ag10
(g14
S'}0Ot\xcc59A'
p35
tp36
Rp37
ag10
(g14
S'6\xb4\xc8\x96kT9A'
p38
tp39
Rp40
ag10
(g14
S'\\d;\xff}\xfd8A'
p41
tp42
Rp43
ag10
(g14
S'H*\xce\x1e\x9749A'
p44
tp45
Rp46
ag10
(g14
S'\xc3 \xb0\x12\xca*9A'
p47
tp48
Rp49
ag10
(g14
S'\xb5\x8e\t\xde"69A'
p50
tp51
Rp52
ag10
(g14
S'\xab8\xfbP\xdc\x019A'
p53
tp54
Rp55
ag10
(g14
S'\xe6\xc1<1\x1f\x1e9A'
p56
tp57
Rp58
ag10
(g14
S'\xd9\xf9~*J,9A'
p59
tp60
Rp61
ag10
(g14
S'\xdd\xf9~J\xa1*9A'
p62
tp63
Rp64
ag10
(g14
S'\x9ep=*\x85I9A'
p65
tp66
Rp67
ag10
(g14
S'v\xe9&Q\x9c>9A'
p68
tp69
Rp70
ag10
(g14
S'b\x10X\xb9p19A'
p71
tp72
Rp73
ag10
(g14
S'q\xb1\xe4\x17\x17B9A'
p74
tp75
Rp76
asS'target'
p77
(lp78
g10
(g14
S'hfffff?@'
p79
tp80
Rp81
ag10
(g14
S'=\xdfO\x8d\x97^@@'
p82
tp83
Rp84
ag10
(g14
S'\x94n\x12\x83\xc0\xbaA@'
p85
tp86
Rp87
ag10
(g14
S's\x93\x18\x04V\xbeB@'
p88
tp89
Rp90
ag10
(g14
S'\xc6 \xb0rhQC@'
p91
tp92
Rp93
ag10
(g14
S'\xcb\xcc\xcc\xcc\xccLE@'
p94
tp95
Rp96
ag10
(g14
S'\xa6E\xb6\xf3\xfd\xa4A@'
p97
tp98
Rp99
ag10
(g14
S'B\n\xd7\xa3p\x8dF@'
p100
tp101
Rp102
ag10
(g14
S'\x02+\x87\x16\xd9\x1eB@'
p103
tp104
Rp105
ag10
(g14
S'\\d;\xdfO=E@'
p106
tp107
Rp108
ag10
(g14
S'\t\x02+\x87\x16)C@'
p109
tp110
Rp111
ag10
(g14
S'\x07+\x87\x16\xd9\xceD@'
p112
tp113
Rp114
ag10
(g14
S'\xbfI\x0c\x02+g>@'
p115
tp116
Rp117
ag10
(g14
S'Y\x8d\x97n\x12;F@'
p118
tp119
Rp120
ag10
(g14
S')1\x08\xac\x1c\xeaB@'
p121
tp122
Rp123
ag10
(g14
S"'1\x08\xac\x1c\nD@"
p124
tp125
Rp126
ag10
(g14
S'6\n\xd7\xa3p\x1d=@'
p127
tp128
Rp129
ag10
(g14
S'\x16\xd9\xce\xf7S\xdbB@'
p130
tp131
Rp132
ag10
(g14
S'\x17\x02+\x87\x16\xa9C@'
p133
tp134
Rp135
ag10
(g14
S's\x12\x83\xc0\xcaA>@'
p136
tp137
Rp138
asssss.