(dp0
S'../Data/sqlite_16.csv'
p1
(dp2
S'../Data/sqlite_90.csv'
p3
(dp4
F0.2
(dp5
S'mmre'
p6
(dp7
S'bellwether'
p8
(lp9
cnumpy.core.multiarray
scalar
p10
(cnumpy
dtype
p11
(S'f8'
p12
I0
I1
tp13
Rp14
(I3
S'<'
p15
NNNI-1
I-1
I0
tp16
bS'\xb2\x0c\x9e\xae\xe5FX@'
p17
tp18
Rp19
ag10
(g14
S'4\x98\xcbH1EX@'
p20
tp21
Rp22
ag10
(g14
S'\xe4^b\x0e\xbc@X@'
p23
tp24
Rp25
ag10
(g14
S'&hrY\x19@X@'
p26
tp27
Rp28
ag10
(g14
S'Q\x01\xee\xfc)CX@'
p29
tp30
Rp31
ag10
(g14
S'\x15yb#\xfdDX@'
p32
tp33
Rp34
ag10
(g14
S'\xfeo\xbd\x9b\x8b?X@'
p35
tp36
Rp37
ag10
(g14
S'\xd3\x1f\xea\xc2\xddDX@'
p38
tp39
Rp40
ag10
(g14
S'\xc2\x0fj\xde\x9fCX@'
p41
tp42
Rp43
ag10
(g14
S'\x02\xfe\xd5\xd4)GX@'
p44
tp45
Rp46
ag10
(g14
S"\xe8\x9cp\xed'FX@"
p47
tp48
Rp49
ag10
(g14
S'\x10\xc1X\x9d\x85AX@'
p50
tp51
Rp52
ag10
(g14
S'\xfa\xed+\xd8>BX@'
p53
tp54
Rp55
ag10
(g14
S'X\xbb\xbf@\x18DX@'
p56
tp57
Rp58
ag10
(g14
S'Z\xbf\xc7/\xa1AX@'
p59
tp60
Rp61
ag10
(g14
S'n\xa3`o\x86BX@'
p62
tp63
Rp64
ag10
(g14
S'uS\xc4\x18\x86AX@'
p65
tp66
Rp67
ag10
(g14
S'e\x90k\xce\x8dCX@'
p68
tp69
Rp70
ag10
(g14
S'\xe8\xd6R\xe1}DX@'
p71
tp72
Rp73
ag10
(g14
S"\x0e\xe7\xb9'\xa2EX@"
p74
tp75
Rp76
asS'target'
p77
(lp78
g10
(g14
S'\xb0\xd7qc\x9e\x12>@'
p79
tp80
Rp81
ag10
(g14
S'cf{\xb5\xc8\xe5?@'
p82
tp83
Rp84
ag10
(g14
S'`\xabR\x85\xf6\xd9A@'
p85
tp86
Rp87
ag10
(g14
S'82\xef[\x9e\xcfA@'
p88
tp89
Rp90
ag10
(g14
S'\xaa\x9e\x80\xa3\xc7Q?@'
p91
tp92
Rp93
ag10
(g14
S'\xf8\xf4\xef4\xdelB@'
p94
tp95
Rp96
ag10
(g14
S'\xcae\xd7\x01hsA@'
p97
tp98
Rp99
ag10
(g14
S'\xea\xfcC\x9b|9A@'
p100
tp101
Rp102
ag10
(g14
S'\xb9"z\xc9o\x9e@@'
p103
tp104
Rp105
ag10
(g14
S'\xe6\xa5\xa2\xad\x98\\A@'
p106
tp107
Rp108
ag10
(g14
S'\xc09\xe3\x0fT-A@'
p109
tp110
Rp111
ag10
(g14
S'$1\xbf\x10k\xed@@'
p112
tp113
Rp114
ag10
(g14
S'N:\x07X\xeasA@'
p115
tp116
Rp117
ag10
(g14
S'E\xc3\x18\xfb\xe3sB@'
p118
tp119
Rp120
ag10
(g14
S'\xaa\xa20g_(B@'
p121
tp122
Rp123
ag10
(g14
S'2:xIJ\x16A@'
p124
tp125
Rp126
ag10
(g14
S'v\xa0\xbe>\x8c\xff@@'
p127
tp128
Rp129
ag10
(g14
S'\x96Kk\xb9\xa0\x8dB@'
p130
tp131
Rp132
ag10
(g14
S'\\\x90\x03\xa5H\x19A@'
p133
tp134
Rp135
ag10
(g14
S'k\xc0\xc5\xa1\xf9\x9dA@'
p136
tp137
Rp138
asssss.