(dp0
S'../Data/sqlite_31.csv'
p1
(dp2
S'../Data/sqlite_73.csv'
p3
(dp4
F0.3
(dp5
S'mmre'
p6
(dp7
S'bellwether'
p8
(lp9
cnumpy.core.multiarray
scalar
p10
(cnumpy
dtype
p11
(S'f8'
p12
I0
I1
tp13
Rp14
(I3
S'<'
p15
NNNI-1
I-1
I0
tp16
bS'\x98\x13\xcd\xa5\xb4`H@'
p17
tp18
Rp19
ag10
(g14
S's\x00\xf4!\xa8RH@'
p20
tp21
Rp22
ag10
(g14
S'\xe8r\xe4TBSH@'
p23
tp24
Rp25
ag10
(g14
S'\xcb\x9c\xe89\xbaFH@'
p26
tp27
Rp28
ag10
(g14
S'n\r\x02/\x1cVH@'
p29
tp30
Rp31
ag10
(g14
S'^\x0f\xb8\x05TLH@'
p32
tp33
Rp34
ag10
(g14
S'$\x16\xde\xf6>MH@'
p35
tp36
Rp37
ag10
(g14
S'9\xd6\x9c\xadpSH@'
p38
tp39
Rp40
ag10
(g14
S'\n\x170\x8b\x0cSH@'
p41
tp42
Rp43
ag10
(g14
S'\x9e\xc7n*=`H@'
p44
tp45
Rp46
ag10
(g14
S'\x13\x14s:\x02IH@'
p47
tp48
Rp49
ag10
(g14
S'\xfe"\tM\x1fVH@'
p50
tp51
Rp52
ag10
(g14
S'R\x05]F\x9dRH@'
p53
tp54
Rp55
ag10
(g14
S'\x8b\x10\xda\xeenKH@'
p56
tp57
Rp58
ag10
(g14
S'|1p\xd9\x84CH@'
p59
tp60
Rp61
ag10
(g14
S':#\x07\x07diH@'
p62
tp63
Rp64
ag10
(g14
S'\xa0z\xed9eWH@'
p65
tp66
Rp67
ag10
(g14
S'\x04\xf0#q\xdf-H@'
p68
tp69
Rp70
ag10
(g14
S'\xb2\xb5<C,XH@'
p71
tp72
Rp73
ag10
(g14
S'\xbe\xd8\xfb\x9d;FH@'
p74
tp75
Rp76
asS'target'
p77
(lp78
g10
(g14
S'\x1d\x0eR\xca\xe6\xc2+@'
p79
tp80
Rp81
ag10
(g14
S'\xc4\xb7\xed\x7f\xa4\xb6)@'
p82
tp83
Rp84
ag10
(g14
S'@,\xbd\x06\xbf\xa6+@'
p85
tp86
Rp87
ag10
(g14
S"\x0b'k\x10n\xc8+@"
p88
tp89
Rp90
ag10
(g14
S'\x8e\xd8Rj\xb5\x14+@'
p91
tp92
Rp93
ag10
(g14
S'\xd2j"q0\xe5,@'
p94
tp95
Rp96
ag10
(g14
S'\xc8w|\x99\xca\x81+@'
p97
tp98
Rp99
ag10
(g14
S'\xe4\x93M \xb7z)@'
p100
tp101
Rp102
ag10
(g14
S'\x19\x0e\xa4\xf2\xfc\xed*@'
p103
tp104
Rp105
ag10
(g14
S'k\xaf\xc5\xcdP\x87+@'
p106
tp107
Rp108
ag10
(g14
S'7!\xfe\xbf\xf7/.@'
p109
tp110
Rp111
ag10
(g14
S'\xe6\xc9\x89@]$)@'
p112
tp113
Rp114
ag10
(g14
S'\xc6\xe0UbD\xed,@'
p115
tp116
Rp117
ag10
(g14
S'\x1eC\xa7 \xf2\x9e-@'
p118
tp119
Rp120
ag10
(g14
S'\r\x01\x9ajh/,@'
p121
tp122
Rp123
ag10
(g14
S'\x14\xb9\xfb\xd8v\xeb+@'
p124
tp125
Rp126
ag10
(g14
S'>\xeb\xd0\xf9\xbe\xc1*@'
p127
tp128
Rp129
ag10
(g14
S'5\xacb\xdb\x88R+@'
p130
tp131
Rp132
ag10
(g14
S'I6\x1d\xe1l\xf7)@'
p133
tp134
Rp135
ag10
(g14
S'\x07p\xe1>S\xfe+@'
p136
tp137
Rp138
asssss.