(dp0
S'../Data/sqlite_36.csv'
p1
(dp2
S'../Data/sqlite_77.csv'
p3
(dp4
F0.15
(dp5
S'mmre'
p6
(dp7
S'bellwether'
p8
(lp9
cnumpy.core.multiarray
scalar
p10
(cnumpy
dtype
p11
(S'f8'
p12
I0
I1
tp13
Rp14
(I3
S'<'
p15
NNNI-1
I-1
I0
tp16
bS'\xf4\x07\xbb\x00\x0c\\V@'
p17
tp18
Rp19
ag10
(g14
S'g\xa3\xcc)\xa0]V@'
p20
tp21
Rp22
ag10
(g14
S'|)\xd3q\xcaZV@'
p23
tp24
Rp25
ag10
(g14
S'\xcfY\xdb\xddm[V@'
p26
tp27
Rp28
ag10
(g14
S'\xe2\x0f5\xdfB]V@'
p29
tp30
Rp31
ag10
(g14
S'\xearlv\xf2[V@'
p32
tp33
Rp34
ag10
(g14
S'\xdc\xa9s\xda\xa8[V@'
p35
tp36
Rp37
ag10
(g14
S'wZ\ty\xd4XV@'
p38
tp39
Rp40
ag10
(g14
S'\xe7\xc3\x1b]DYV@'
p41
tp42
Rp43
ag10
(g14
S'\x03\x8a{YLZV@'
p44
tp45
Rp46
ag10
(g14
S'\xea\xfd\xd4\xc8\xb7YV@'
p47
tp48
Rp49
ag10
(g14
S'\x84\xba\x08\x80L\\V@'
p50
tp51
Rp52
ag10
(g14
S'mh=_\xa4YV@'
p53
tp54
Rp55
ag10
(g14
S'\xc2\xd9U\x1b\xd6[V@'
p56
tp57
Rp58
ag10
(g14
S'\x8d(\x08\x9d[[V@'
p59
tp60
Rp61
ag10
(g14
S'\xf8,\xafjzZV@'
p62
tp63
Rp64
ag10
(g14
S'L\x11\xb1\xf2\x1fZV@'
p65
tp66
Rp67
ag10
(g14
S'\xc7X\xf4\\\xaf[V@'
p68
tp69
Rp70
ag10
(g14
S'\xee\xaeF3e[V@'
p71
tp72
Rp73
ag10
(g14
S'\x16\xfc{D{\\V@'
p74
tp75
Rp76
asS'target'
p77
(lp78
g10
(g14
S'O\xa2zo\xd2\xe05@'
p79
tp80
Rp81
ag10
(g14
S'\x81F\xaf\xad^w4@'
p82
tp83
Rp84
ag10
(g14
S'\x89\x00\x17\x82r^6@'
p85
tp86
Rp87
ag10
(g14
S'A\xca\xf4\x92/q6@'
p88
tp89
Rp90
ag10
(g14
S'<\x81\xc3x\xb9\x1b6@'
p91
tp92
Rp93
ag10
(g14
S'F\xe6\xd0\xb5u\x806@'
p94
tp95
Rp96
ag10
(g14
S'#J<\xa5\xfb\xab4@'
p97
tp98
Rp99
ag10
(g14
S'r\x80\xe1\\\xc1c8@'
p100
tp101
Rp102
ag10
(g14
S'\xc2\x14v\x80r\xe46@'
p103
tp104
Rp105
ag10
(g14
S'\n\xe5\xe4VGJ5@'
p106
tp107
Rp108
ag10
(g14
S'\xa82uu\x82x6@'
p109
tp110
Rp111
ag10
(g14
S'\xfa\xc9\xe8S\xadE5@'
p112
tp113
Rp114
ag10
(g14
S'\xb8nT]O#4@'
p115
tp116
Rp117
ag10
(g14
S'\xc5\xb3\xb8\xdd\xa4s5@'
p118
tp119
Rp120
ag10
(g14
S'\x86\xe5\xc2\xc6\xc4\xc85@'
p121
tp122
Rp123
ag10
(g14
S'I\x07\xcbfv|5@'
p124
tp125
Rp126
ag10
(g14
S'\x92\xcesh\xe2T7@'
p127
tp128
Rp129
ag10
(g14
S'\xaf\n76\x83\xca7@'
p130
tp131
Rp132
ag10
(g14
S'\xc2O\x8a\xd7qJ6@'
p133
tp134
Rp135
ag10
(g14
S'\xc9\xa6T\xeb\xec\xa15@'
p136
tp137
Rp138
asssss.