(dp0
S'../Data/sqlite_66.csv'
p1
(dp2
S'../Data/sqlite_30.csv'
p3
(dp4
F0.25
(dp5
S'abs_res'
p6
(dp7
S'bellwether'
p8
(lp9
cnumpy.core.multiarray
scalar
p10
(cnumpy
dtype
p11
(S'f8'
p12
I0
I1
tp13
Rp14
(I3
S'<'
p15
NNNI-1
I-1
I0
tp16
bS'\xad\x1cZ$D# A'
p17
tp18
Rp19
ag10
(g14
S'\xd7\\H\x1a\x04# A'
p20
tp21
Rp22
ag10
(g14
S'$\\\x8f\x82\xaa" A'
p23
tp24
Rp25
ag10
(g14
S' >\xc3\xee\xae$ A'
p26
tp27
Rp28
ag10
(g14
S'\xc4 \xb0r\x81# A'
p29
tp30
Rp31
ag10
(g14
S' iJEh$ A'
p32
tp33
Rp34
ag10
(g14
S'\x98Rq6\xd5" A'
p35
tp36
Rp37
ag10
(g14
S'\xd51\xc1C\x1a$ A'
p38
tp39
Rp40
ag10
(g14
S'\x8b\xebQ8\x0b# A'
p41
tp42
Rp43
ag10
(g14
S'j\xe7\xfb\xe9\x1f# A'
p44
tp45
Rp46
ag10
(g14
S'\xe4^s\xa1\xf5" A'
p47
tp48
Rp49
ag10
(g14
S'\xd9\xce\xf7\x93\xc9" A'
p50
tp51
Rp52
ag10
(g14
S'\x13\x92\xa6\x94\xdb# A'
p53
tp54
Rp55
ag10
(g14
S'\xea\xd0"\x9bP# A'
p56
tp57
Rp58
ag10
(g14
S'\xe4\xd0"\xdb"# A'
p59
tp60
Rp61
ag10
(g14
S'\xef`\x9e\xe8I# A'
p62
tp63
Rp64
ag10
(g14
S'Xd;\x9f\x1d# A'
p65
tp66
Rp67
ag10
(g14
S'\tV\x0e\xad\x19$ A'
p68
tp69
Rp70
ag10
(g14
S'\x11\x9fa\x97`# A'
p71
tp72
Rp73
ag10
(g14
S'\xa4\x8c\xde\x960# A'
p74
tp75
Rp76
asS'target'
p77
(lp78
g10
(g14
S'\x96n\x12\x83\xc0bB@'
p79
tp80
Rp81
ag10
(g14
S'7\x08\xac\x1cZtA@'
p82
tp83
Rp84
ag10
(g14
S'\\\x8f\xc2\xf5(\xec@@'
p85
tp86
Rp87
ag10
(g14
S'\xf6|?5^:;@'
p88
tp89
Rp90
ag10
(g14
S'^\x10X9\xb4\xf8>@'
p91
tp92
Rp93
ag10
(g14
S'+\xdd$\x06\x81\xb5@@'
p94
tp95
Rp96
ag10
(g14
S'\x13\xaeG\xe1zdC@'
p97
tp98
Rp99
ag10
(g14
S'E`\xe5\xd0"\xbb<@'
p100
tp101
Rp102
ag10
(g14
S'\x98\x1a/\xdd$\xd6=@'
p103
tp104
Rp105
ag10
(g14
S'*\x06\x81\x95CkA@'
p106
tp107
Rp108
ag10
(g14
S'=\x8bl\xe7\xfbI?@'
p109
tp110
Rp111
ag10
(g14
S'\xdcx\xe9&1\xd8?@'
p112
tp113
Rp114
ag10
(g14
S'<\xdfO\x8d\x97>>@'
p115
tp116
Rp117
ag10
(g14
S'R\x8d\x97n\x12\xc3@@'
p118
tp119
Rp120
ag10
(g14
S'\x87\x95C\x8bl7D@'
p121
tp122
Rp123
ag10
(g14
S'\xa6\x1a/\xdd$\xa6=@'
p124
tp125
Rp126
ag10
(g14
S'\x1c\xd9\xce\xf7S\x03E@'
p127
tp128
Rp129
ag10
(g14
S'(\xdb\xf9~j\xbc<@'
p130
tp131
Rp132
ag10
(g14
S'd\xe5\xd0"\xdb\xc9@@'
p133
tp134
Rp135
ag10
(g14
S'\xefQ\xb8\x1e\x85\x0b<@'
p136
tp137
Rp138
asssss.