(dp0
S'../Data/sqlite_59.csv'
p1
(dp2
S'../Data/sqlite_91.csv'
p3
(dp4
F0.15
(dp5
S'mmre'
p6
(dp7
S'bellwether'
p8
(lp9
cnumpy.core.multiarray
scalar
p10
(cnumpy
dtype
p11
(S'f8'
p12
I0
I1
tp13
Rp14
(I3
S'<'
p15
NNNI-1
I-1
I0
tp16
bS'o N\x83a\x7fW@'
p17
tp18
Rp19
ag10
(g14
S';h\x89\xe8|\x8eW@'
p20
tp21
Rp22
ag10
(g14
S'{R\xee\xbb\x9d\x8eW@'
p23
tp24
Rp25
ag10
(g14
S'\xa4\x93\xf1\xf4\r\x80W@'
p26
tp27
Rp28
ag10
(g14
S'\xfa@\x9b\xfa\xb0\x9aW@'
p29
tp30
Rp31
ag10
(g14
S'\xcdW\x18\x88\x9d\x80W@'
p32
tp33
Rp34
ag10
(g14
S'\xb0\n\xc0v\xf3\x86W@'
p35
tp36
Rp37
ag10
(g14
S'\xaf@8g!\x85W@'
p38
tp39
Rp40
ag10
(g14
S'Ei-\x7f\xf3yW@'
p41
tp42
Rp43
ag10
(g14
S'$J1\x10&yW@'
p44
tp45
Rp46
ag10
(g14
S'\xf7l\xdf(z\x91W@'
p47
tp48
Rp49
ag10
(g14
S'>l\xc6\x8b\x99\x91W@'
p50
tp51
Rp52
ag10
(g14
S'\x08\xec\xba+O\x87W@'
p53
tp54
Rp55
ag10
(g14
S']C9\x1evtW@'
p56
tp57
Rp58
ag10
(g14
S'\xb4\xef\xba!\xe8\x84W@'
p59
tp60
Rp61
ag10
(g14
S'7\x90\x942\xe7~W@'
p62
tp63
Rp64
ag10
(g14
S'\\M\xf8\x0ez\x80W@'
p65
tp66
Rp67
ag10
(g14
S'd^\xe0TE\x8aW@'
p68
tp69
Rp70
ag10
(g14
S'\tB\x02\xc1\x90rW@'
p71
tp72
Rp73
ag10
(g14
S'\xfaVZ\xb6rvW@'
p74
tp75
Rp76
asS'target'
p77
(lp78
g10
(g14
S'\x94RA\xa3<sP@'
p79
tp80
Rp81
ag10
(g14
S'\x84Y\x0f\xc4\xfa`K@'
p82
tp83
Rp84
ag10
(g14
S'\xa9\xc6*\xf8\xc9\x92M@'
p85
tp86
Rp87
ag10
(g14
S'\x02K\xfe\\\xcc\x86P@'
p88
tp89
Rp90
ag10
(g14
S'\xc7t\x96\x81\x1cfL@'
p91
tp92
Rp93
ag10
(g14
S'1*\xcb\x88\x8c\xe9O@'
p94
tp95
Rp96
ag10
(g14
S'\xf5v\x15\xe7G\xb1O@'
p97
tp98
Rp99
ag10
(g14
S'B\x8d+9\x00LL@'
p100
tp101
Rp102
ag10
(g14
S'\x04\x11\xf1\xd0\xd7\\P@'
p103
tp104
Rp105
ag10
(g14
S'\x0b\xb5g\xc9H\xd9Q@'
p106
tp107
Rp108
ag10
(g14
S'U^\xeb\xe5J\x1fP@'
p109
tp110
Rp111
ag10
(g14
S'\xff=\x1bZ\xdb\xd9M@'
p112
tp113
Rp114
ag10
(g14
S'8_\x7f\xd7ySO@'
p115
tp116
Rp117
ag10
(g14
S'\x11\x99\xa3:8ER@'
p118
tp119
Rp120
ag10
(g14
S'\xd3\xf9@\x13_\x8dM@'
p121
tp122
Rp123
ag10
(g14
S'\xa8\x8a\x14Em\xeeO@'
p124
tp125
Rp126
ag10
(g14
S'Q\x1au(!-Q@'
p127
tp128
Rp129
ag10
(g14
S'm\x03\xf8h\xf2)N@'
p130
tp131
Rp132
ag10
(g14
S'\xab\x99\xdeG\xdc\xe6P@'
p133
tp134
Rp135
ag10
(g14
S"\xdd'A|\xb4\x10Q@"
p136
tp137
Rp138
asssss.