(dp0
S'../Data/sqlite_63.csv'
p1
(dp2
S'../Data/sqlite_90.csv'
p3
(dp4
F0.3
(dp5
S'mmre'
p6
(dp7
S'bellwether'
p8
(lp9
cnumpy.core.multiarray
scalar
p10
(cnumpy
dtype
p11
(S'f8'
p12
I0
I1
tp13
Rp14
(I3
S'<'
p15
NNNI-1
I-1
I0
tp16
bS'\xea\xce~\x9e\x9cwS@'
p17
tp18
Rp19
ag10
(g14
S'\xfd\x10\xa0\x1c\x85qS@'
p20
tp21
Rp22
ag10
(g14
S'\x83r\x11^:~S@'
p23
tp24
Rp25
ag10
(g14
S'\xf4L\xdb\x17\x03\x81S@'
p26
tp27
Rp28
ag10
(g14
S'\x90\x0e\xb1\xbaC\x82S@'
p29
tp30
Rp31
ag10
(g14
S'>`\xc9\x94&sS@'
p32
tp33
Rp34
ag10
(g14
S'9\xfbR\xb6\x06kS@'
p35
tp36
Rp37
ag10
(g14
S'\xa7!(hb\x87S@'
p38
tp39
Rp40
ag10
(g14
S' \xe3\xa9\xcb;mS@'
p41
tp42
Rp43
ag10
(g14
S'@\xc7\xc8\x95\x84|S@'
p44
tp45
Rp46
ag10
(g14
S'\xc9\xc3\xda`\x15\x84S@'
p47
tp48
Rp49
ag10
(g14
S'0\x9c\x99\xa2VuS@'
p50
tp51
Rp52
ag10
(g14
S"'\x03S\x12\xc4mS@"
p53
tp54
Rp55
ag10
(g14
S'\x8d\xeak?\xb2\x8aS@'
p56
tp57
Rp58
ag10
(g14
S'&>\x89\x98\xcc\x81S@'
p59
tp60
Rp61
ag10
(g14
S'\xca(}^VoS@'
p62
tp63
Rp64
ag10
(g14
S'5\xd5\x84\xba\x97~S@'
p65
tp66
Rp67
ag10
(g14
S'P\xe4%\xa5\xd8\x85S@'
p68
tp69
Rp70
ag10
(g14
S'\xbbBM\xc9\x17\x83S@'
p71
tp72
Rp73
ag10
(g14
S'\xd4\x17\xe8\\OiS@'
p74
tp75
Rp76
asS'target'
p77
(lp78
g10
(g14
S'\x86?\xe6\xcf\xe8HA@'
p79
tp80
Rp81
ag10
(g14
S'^?(\x9d@UA@'
p82
tp83
Rp84
ag10
(g14
S"\x96v3\xb6'qA@"
p85
tp86
Rp87
ag10
(g14
S'%;a-0\xbb@@'
p88
tp89
Rp90
ag10
(g14
S'\x02\x90\x13\xc8G\x85@@'
p91
tp92
Rp93
ag10
(g14
S'k<i\x15\xfb$B@'
p94
tp95
Rp96
ag10
(g14
S'/6\xe8#W&B@'
p97
tp98
Rp99
ag10
(g14
S'E\xa3\x83kz\xcc@@'
p100
tp101
Rp102
ag10
(g14
S'\xcd\x0e\xbb\xb1\x15\x8aB@'
p103
tp104
Rp105
ag10
(g14
S'RO-\x88\xcc\xfd@@'
p106
tp107
Rp108
ag10
(g14
S'Kb\xc1G\x162B@'
p109
tp110
Rp111
ag10
(g14
S'\xbb\x90\x94\xe3r\xe9@@'
p112
tp113
Rp114
ag10
(g14
S'\xa7\x18\x82\x0f\x86\x05B@'
p115
tp116
Rp117
ag10
(g14
S'\xb8\xae=\xc9\xb1\x03A@'
p118
tp119
Rp120
ag10
(g14
S'ws\xecK1\x8d?@'
p121
tp122
Rp123
ag10
(g14
S'v\xfaL+\xa01A@'
p124
tp125
Rp126
ag10
(g14
S'\xabS;/\xfd\x93@@'
p127
tp128
Rp129
ag10
(g14
S'+;!\x80\xc1Y@@'
p130
tp131
Rp132
ag10
(g14
S'\xf6\x88\xf9Ku\x19@@'
p133
tp134
Rp135
ag10
(g14
S'\xcaB8&\xc54D@'
p136
tp137
Rp138
asssss.