(dp0
S'../Data/sqlite_50.csv'
p1
(dp2
S'../Data/sqlite_92.csv'
p3
(dp4
F0.3
(dp5
S'mmre'
p6
(dp7
S'bellwether'
p8
(lp9
cnumpy.core.multiarray
scalar
p10
(cnumpy
dtype
p11
(S'f8'
p12
I0
I1
tp13
Rp14
(I3
S'<'
p15
NNNI-1
I-1
I0
tp16
bS'\x840\xdb@#\n6@'
p17
tp18
Rp19
ag10
(g14
S'P\xe3\xebs\x86(5@'
p20
tp21
Rp22
ag10
(g14
S',x\xd5\r .5@'
p23
tp24
Rp25
ag10
(g14
S'\x8df:\xad\xb4L5@'
p26
tp27
Rp28
ag10
(g14
S'\x00\xde\xaa\xfd\x90\xa04@'
p29
tp30
Rp31
ag10
(g14
S'\xe6"\xa8\xbby\xf44@'
p32
tp33
Rp34
ag10
(g14
S'%\x1er\xa4\xe7\x0c5@'
p35
tp36
Rp37
ag10
(g14
S',J\x97\xf2\xd6K5@'
p38
tp39
Rp40
ag10
(g14
S'I\x11\xa0\x00\xc7\x875@'
p41
tp42
Rp43
ag10
(g14
S'\xa5>=T4}5@'
p44
tp45
Rp46
ag10
(g14
S'\xbbv,\xe3\xb4\xed4@'
p47
tp48
Rp49
ag10
(g14
S'\xfeL\xf43\xb0^5@'
p50
tp51
Rp52
ag10
(g14
S'\xe7\xf8Fi\xc9\xa15@'
p53
tp54
Rp55
ag10
(g14
S'\x89Xt/x95@'
p56
tp57
Rp58
ag10
(g14
S'@%\x8e\x15\xaa46@'
p59
tp60
Rp61
ag10
(g14
S'0\x9aAK>\x9a5@'
p62
tp63
Rp64
ag10
(g14
S'\x9d+\xfc\xc5<O5@'
p65
tp66
Rp67
ag10
(g14
S'~0\xfb\x15\xfd\xc55@'
p68
tp69
Rp70
ag10
(g14
S"\x14'\xbf%\xaf\xc74@"
p71
tp72
Rp73
ag10
(g14
S'\xf7\xad\xb4\x82\x03\xd55@'
p74
tp75
Rp76
asS'target'
p77
(lp78
g10
(g14
S'\x8c\xac)\x1a\xd6\x9eP@'
p79
tp80
Rp81
ag10
(g14
S'V\xe5^>W:Q@'
p82
tp83
Rp84
ag10
(g14
S'7\xee \xba\x12\xb4S@'
p85
tp86
Rp87
ag10
(g14
S'\x98\xd4@w\x7f\x1fU@'
p88
tp89
Rp90
ag10
(g14
S'\xd7\x9dK\x0b\xff\x17R@'
p91
tp92
Rp93
ag10
(g14
S'\xa2\x94`\xcch\xd7U@'
p94
tp95
Rp96
ag10
(g14
S'\x0cvPG\x1bxS@'
p97
tp98
Rp99
ag10
(g14
S'\xb9g\x9e\xec\xdc7M@'
p100
tp101
Rp102
ag10
(g14
S'\xe4\xdf_Bd9S@'
p103
tp104
Rp105
ag10
(g14
S'2pz\xb5^\xdbR@'
p106
tp107
Rp108
ag10
(g14
S'\x93\xe3\x9cI{\x0eK@'
p109
tp110
Rp111
ag10
(g14
S'!\xe4\xb4|!\x81R@'
p112
tp113
Rp114
ag10
(g14
S'\x1f\xa5B\t\xd6XP@'
p115
tp116
Rp117
ag10
(g14
S'qu^s\xe6IU@'
p118
tp119
Rp120
ag10
(g14
S'\xbb\x0e)\x96\x93\xafM@'
p121
tp122
Rp123
ag10
(g14
S'\xf1o\xce\x1e\x1c\x1dM@'
p124
tp125
Rp126
ag10
(g14
S'~\x13Q\x81\x9f\xe9P@'
p127
tp128
Rp129
ag10
(g14
S'u}"B\x8a\xe5Q@'
p130
tp131
Rp132
ag10
(g14
S'>:7\xcd\x8d.W@'
p133
tp134
Rp135
ag10
(g14
S'\x0e@6s\xefAS@'
p136
tp137
Rp138
asssss.