(dp0
S'../Data/sqlite_93.csv'
p1
(dp2
S'../Data/sqlite_76.csv'
p3
(dp4
F0.3
(dp5
S'mmre'
p6
(dp7
S'bellwether'
p8
(lp9
cnumpy.core.multiarray
scalar
p10
(cnumpy
dtype
p11
(S'f8'
p12
I0
I1
tp13
Rp14
(I3
S'<'
p15
NNNI-1
I-1
I0
tp16
bS'n\r$\x96\x8a\\W@'
p17
tp18
Rp19
ag10
(g14
S'ih\xc8\xcf#CW@'
p20
tp21
Rp22
ag10
(g14
S'\x15\xb7M\x04wWW@'
p23
tp24
Rp25
ag10
(g14
S'`\x9f\x9fu\xd9RW@'
p26
tp27
Rp28
ag10
(g14
S'\xb0\xc8\xa9\x9azZW@'
p29
tp30
Rp31
ag10
(g14
S'>3\n\x8b9FW@'
p32
tp33
Rp34
ag10
(g14
S'>\xc9\xb5\xf4\xcdQW@'
p35
tp36
Rp37
ag10
(g14
S'%\x0c\x03\x85\x1b_W@'
p38
tp39
Rp40
ag10
(g14
S'\x8c6r\xbd\xdecW@'
p41
tp42
Rp43
ag10
(g14
S'\x8d\x90\x8d\x19VfW@'
p44
tp45
Rp46
ag10
(g14
S'\x1ejh0,VW@'
p47
tp48
Rp49
ag10
(g14
S'\x87\xc8\x9b\x99\xd1\\W@'
p50
tp51
Rp52
ag10
(g14
S"l\xee'^\xeeGW@"
p53
tp54
Rp55
ag10
(g14
S'\xd4\xf8D\x19\x1dYW@'
p56
tp57
Rp58
ag10
(g14
S'o|\xddb}JW@'
p59
tp60
Rp61
ag10
(g14
S'\x92\xc1\xc0\xd5\xf4YW@'
p62
tp63
Rp64
ag10
(g14
S'\x81\xc4!\x85\xd4EW@'
p65
tp66
Rp67
ag10
(g14
S'Bq\xaaN=RW@'
p68
tp69
Rp70
ag10
(g14
S'\xd8\x17n\x88FDW@'
p71
tp72
Rp73
ag10
(g14
S'"\xdf~\x84jEW@'
p74
tp75
Rp76
asS'target'
p77
(lp78
g10
(g14
S'%\x1f#T\xf9(1@'
p79
tp80
Rp81
ag10
(g14
S'\xdf,\xc8\x19\x9f\xb11@'
p82
tp83
Rp84
ag10
(g14
S':\x16o\x88\xfa\xb81@'
p85
tp86
Rp87
ag10
(g14
S'\xfd\xb8O\xd6\x88\xc52@'
p88
tp89
Rp90
ag10
(g14
S'\xf6\xef_\xdb\x06}2@'
p91
tp92
Rp93
ag10
(g14
S'7GG\xec\xa2\x9b1@'
p94
tp95
Rp96
ag10
(g14
S'K\x9c\xd7B\xc1\x950@'
p97
tp98
Rp99
ag10
(g14
S'\xc08\xe1\x7f\x8e\xb70@'
p100
tp101
Rp102
ag10
(g14
S'6\xeb\x19\xe3\x97_1@'
p103
tp104
Rp105
ag10
(g14
S'\xb9\xef\x1bt\xd9M2@'
p106
tp107
Rp108
ag10
(g14
S'\xc8HU\x0epl/@'
p109
tp110
Rp111
ag10
(g14
S')\xf3\xe6_\x1c\xc90@'
p112
tp113
Rp114
ag10
(g14
S'\xf9y)`\xa0u1@'
p115
tp116
Rp117
ag10
(g14
S'w\xd1\xd4\xc8_\xb01@'
p118
tp119
Rp120
ag10
(g14
S'g\xe4\t;\x83&1@'
p121
tp122
Rp123
ag10
(g14
S'\x8b\x9aNyu\xcb0@'
p124
tp125
Rp126
ag10
(g14
S'\x9bt\xf7\x00\xa3&1@'
p127
tp128
Rp129
ag10
(g14
S'\xf1\xa2\x0f\x1e\xb0\x0b2@'
p130
tp131
Rp132
ag10
(g14
S'\xcaj\xeem\xf6\xc00@'
p133
tp134
Rp135
ag10
(g14
S'\x95@)[\x15\x182@'
p136
tp137
Rp138
asssss.