(dp0
S'../Data/sqlite_4.csv'
p1
(dp2
S'../Data/sqlite_58.csv'
p3
(dp4
F0.2
(dp5
S'abs_res'
p6
(dp7
S'bellwether'
p8
(lp9
cnumpy.core.multiarray
scalar
p10
(cnumpy
dtype
p11
(S'f8'
p12
I0
I1
tp13
Rp14
(I3
S'<'
p15
NNNI-1
I-1
I0
tp16
bS'y\x07\xf3D\x930?A'
p17
tp18
Rp19
ag10
(g14
S'\xd3\x15 \x17\x8f2?A'
p20
tp21
Rp22
ag10
(g14
S'm=\n\x17\x9a1?A'
p23
tp24
Rp25
ag10
(g14
S'\xfd\x1b\xa1\x8c!2?A'
p26
tp27
Rp28
ag10
(g14
S'\x99\x99\x999\xed0?A'
p29
tp30
Rp31
ag10
(g14
S'\xaf\xbb\xbb;F0?A'
p32
tp33
Rp34
ag10
(g14
S'\xde\xd0"\x1b?1?A'
p35
tp36
Rp37
ag10
(g14
S'\x16\xa1\x8c~%0?A'
p38
tp39
Rp40
ag10
(g14
S'@\xb6\xf3\xfd#0?A'
p41
tp42
Rp43
ag10
(g14
S'\x1ex0\xcfY1?A'
p44
tp45
Rp46
ag10
(g14
S'\x1f\xf9\xc5r..?A'
p47
tp48
Rp49
ag10
(g14
S'\xd0\xc1<Q#/?A'
p50
tp51
Rp52
ag10
(g14
S'as!)#/?A'
p53
tp54
Rp55
ag10
(g14
S'\x8dPF\xef\xef1?A'
p56
tp57
Rp58
ag10
(g14
S'.\x89A\xc0U0?A'
p59
tp60
Rp61
ag10
(g14
S'_\xbct\xd3\xd8/?A'
p62
tp63
Rp64
ag10
(g14
S'`\x82\x07\xd3\xfe0?A'
p65
tp66
Rp67
ag10
(g14
S'\xe1\xfb\xa9\xb1}1?A'
p68
tp69
Rp70
ag10
(g14
S'\x19\xa3\xb7ek1?A'
p71
tp72
Rp73
ag10
(g14
S'e\xbct\x93\\1?A'
p74
tp75
Rp76
asS'target'
p77
(lp78
g10
(g14
S"~\x95C\x8bl'V@"
p79
tp80
Rp81
ag10
(g14
S'\x17\xaeG\xe1z\xc4W@'
p82
tp83
Rp84
ag10
(g14
S'^\xe5\xd0"\xdb9V@'
p85
tp86
Rp87
ag10
(g14
S']\x8f\xc2\xf5(\xa4V@'
p88
tp89
Rp90
ag10
(g14
S'\x9e\xc4 \xb0r V@'
p91
tp92
Rp93
ag10
(g14
S'\x10-\xb2\x9d\xef/W@'
p94
tp95
Rp96
ag10
(g14
S'\xaa\xc8v\xbe\x9f\x06W@'
p97
tp98
Rp99
ag10
(g14
S'\xdf"\xdb\xf9~\xc2U@'
p100
tp101
Rp102
ag10
(g14
S'u\x14\xaeG\xe1\xd2W@'
p103
tp104
Rp105
ag10
(g14
S'\xd2\xf7S\xe3\xa5[W@'
p106
tp107
Rp108
ag10
(g14
S'33333\xd3U@'
p109
tp110
Rp111
ag10
(g14
S'\xe0$\x06\x81\x95\x13W@'
p112
tp113
Rp114
ag10
(g14
S'$\x06\x81\x95CsU@'
p115
tp116
Rp117
ag10
(g14
S'\xf3|?5^BU@'
p118
tp119
Rp120
ag10
(g14
S'^\xe5\xd0"\xdb\x91W@'
p121
tp122
Rp123
ag10
(g14
S'\xbat\x93\x18\x04\x96U@'
p124
tp125
Rp126
ag10
(g14
S'\r\xd7\xa3p=\xf6U@'
p127
tp128
Rp129
ag10
(g14
S'\x8e\xed|?5\xcaU@'
p130
tp131
Rp132
ag10
(g14
S'4\xb2\x9d\xef\xa7.V@'
p133
tp134
Rp135
ag10
(g14
S'\xc2K7\x89A\x84U@'
p136
tp137
Rp138
asssss.