(dp0
S'../Data/sqlite_48.csv'
p1
(dp2
S'../Data/sqlite_84.csv'
p3
(dp4
F0.15
(dp5
S'mmre'
p6
(dp7
S'bellwether'
p8
(lp9
cnumpy.core.multiarray
scalar
p10
(cnumpy
dtype
p11
(S'f8'
p12
I0
I1
tp13
Rp14
(I3
S'<'
p15
NNNI-1
I-1
I0
tp16
bS'\xea\xbd\x8c\xc2\x7f\xa5Q@'
p17
tp18
Rp19
ag10
(g14
S'$\x834\x8b^QQ@'
p20
tp21
Rp22
ag10
(g14
S'\x87A5\xd3\xf3qQ@'
p23
tp24
Rp25
ag10
(g14
S'\xa7Bk\xe7\x1boQ@'
p26
tp27
Rp28
ag10
(g14
S'\xa6#\xf4\x17\x14EQ@'
p29
tp30
Rp31
ag10
(g14
S'\x1a\x19\x8b\xd2\x1deQ@'
p32
tp33
Rp34
ag10
(g14
S'~1\x90\x0c~\x83Q@'
p35
tp36
Rp37
ag10
(g14
S"#\xfc^\x19'kQ@"
p38
tp39
Rp40
ag10
(g14
S'\xf1x\xf11\x99NQ@'
p41
tp42
Rp43
ag10
(g14
S'\x80\x17\x88/v@Q@'
p44
tp45
Rp46
ag10
(g14
S'\xb1\xaf7k\xf5$Q@'
p47
tp48
Rp49
ag10
(g14
S'\xf1\xd1\x82\xe5\xc3WQ@'
p50
tp51
Rp52
ag10
(g14
S'\x0c\xe5T\x82#HQ@'
p53
tp54
Rp55
ag10
(g14
S'\r\x85\xac\x1d\x1bYQ@'
p56
tp57
Rp58
ag10
(g14
S'w\xf9\x8a\xf0GtQ@'
p59
tp60
Rp61
ag10
(g14
S'z\xf3\xdc\xc7\xa7&Q@'
p62
tp63
Rp64
ag10
(g14
S'\x13\x17x\xefG&Q@'
p65
tp66
Rp67
ag10
(g14
S'_YD0\xc8zQ@'
p68
tp69
Rp70
ag10
(g14
S'\xa9\xf7\xd2\xff|\x8aQ@'
p71
tp72
Rp73
ag10
(g14
S'\xb9^#\xc4"QQ@'
p74
tp75
Rp76
asS'target'
p77
(lp78
g10
(g14
S'\x99/\xe7\x12\x0exV@'
p79
tp80
Rp81
ag10
(g14
S'\xda\xbd3\xcam\x93S@'
p82
tp83
Rp84
ag10
(g14
S'F\x07~XY\xceF@'
p85
tp86
Rp87
ag10
(g14
S'\xaa(o\xbc\t\nI@'
p88
tp89
Rp90
ag10
(g14
S'H\xbc\xbe\xab\xf0\x82V@'
p91
tp92
Rp93
ag10
(g14
S'\x918\x82HxoF@'
p94
tp95
Rp96
ag10
(g14
S'\x1f*i\xea\x89JY@'
p97
tp98
Rp99
ag10
(g14
S'O\xc2\xca\xfd:IN@'
p100
tp101
Rp102
ag10
(g14
S'\xce|\xaeE\x02\x06Z@'
p103
tp104
Rp105
ag10
(g14
S'\xef\x10\xd5BO\x1bN@'
p106
tp107
Rp108
ag10
(g14
S'\xc2Wx\xdd\x8a\\P@'
p109
tp110
Rp111
ag10
(g14
S'g\xe7\x13?q\xf8C@'
p112
tp113
Rp114
ag10
(g14
S'R\xa5\x1c%I\xbfM@'
p115
tp116
Rp117
ag10
(g14
S'\x9d4_\x9d6\xfdP@'
p118
tp119
Rp120
ag10
(g14
S'\x85\xb3n\x17y\xad[@'
p121
tp122
Rp123
ag10
(g14
S'%m\x9f<q\xd8O@'
p124
tp125
Rp126
ag10
(g14
S'$Eh\xf3\xbbNR@'
p127
tp128
Rp129
ag10
(g14
S'\xeaC0\xa8\xaf\xcdL@'
p130
tp131
Rp132
ag10
(g14
S'$\xd2\xb2\x12\xc2\xedQ@'
p133
tp134
Rp135
ag10
(g14
S'\x13_\x16@\x1efB@'
p136
tp137
Rp138
asssss.