(dp0
S'../Data/sqlite_95.csv'
p1
(dp2
S'../Data/sqlite_23.csv'
p3
(dp4
F0.35
(dp5
S'abs_res'
p6
(dp7
S'bellwether'
p8
(lp9
cnumpy.core.multiarray
scalar
p10
(cnumpy
dtype
p11
(S'f8'
p12
I0
I1
tp13
Rp14
(I3
S'<'
p15
NNNI-1
I-1
I0
tp16
bS'\xd5\xdb\xb2vuE3A'
p17
tp18
Rp19
ag10
(g14
S'-\xbfXr\xdf\x063A'
p20
tp21
Rp22
ag10
(g14
S'\xd9\x15 W%a3A'
p23
tp24
Rp25
ag10
(g14
S'_\x10XyJ(3A'
p26
tp27
Rp28
ag10
(g14
S'X\x9c}\xf8\x9d\x873A'
p29
tp30
Rp31
ag10
(g14
S'bW\x80\x9c1\xf62A'
p32
tp33
Rp34
ag10
(g14
S'd\xf4\xb6L\xedq3A'
p35
tp36
Rp37
ag10
(g14
S'"""\xe2\xd2J3A'
p38
tp39
Rp40
ag10
(g14
S'\xb9\x904\xa5\x16~3A'
p41
tp42
Rp43
ag10
(g14
S'\xde@\xa7\xedD\xfc2A'
p44
tp45
Rp46
ag10
(g14
S'\xad\x1cZ\xe4q]3A'
p47
tp48
Rp49
ag10
(g14
S'\xaa\x7f#\x14\xfa\x1b3A'
p50
tp51
Rp52
ag10
(g14
S'E~\xb1D\xc6/3A'
p53
tp54
Rp55
ag10
(g14
S'\x89\x07\xf3\x84\xeeT3A'
p56
tp57
Rp58
ag10
(g14
S'\xd9\xb2V\xe7#)3A'
p59
tp60
Rp61
ag10
(g14
S'\xb3\xe4\x17\x8b\xcf\\3A'
p62
tp63
Rp64
ag10
(g14
S'G\xee5\x97]J3A'
p65
tp66
Rp67
ag10
(g14
S'N\x8d\x97\xae\xcc%3A'
p68
tp69
Rp70
ag10
(g14
S'th\x91\xed[B3A'
p71
tp72
Rp73
ag10
(g14
S'\xb3\xc8v\xfe*.3A'
p74
tp75
Rp76
asS'target'
p77
(lp78
g10
(g14
S'>\x87\x16\xd9\xce\xb77@'
p79
tp80
Rp81
ag10
(g14
S';5^\xbaI\xec;@'
p82
tp83
Rp84
ag10
(g14
S'\x06V\x0e-\xb2\xcd7@'
p85
tp86
Rp87
ag10
(g14
S'\x95l\xe7\xfb\xa9\xd1;@'
p88
tp89
Rp90
ag10
(g14
S'\x7f?5^\xbay7@'
p91
tp92
Rp93
ag10
(g14
S'G5^\xbaI\xac9@'
p94
tp95
Rp96
ag10
(g14
S'j\x91\xed|?u9@'
p97
tp98
Rp99
ag10
(g14
S'Ub\x10X9t9@'
p100
tp101
Rp102
ag10
(g14
S'q\x91\xed|?\xb5<@'
p103
tp104
Rp105
ag10
(g14
S'X\x0e-\xb2\x9d\xaf9@'
p106
tp107
Rp108
ag10
(g14
S'\t\xd5x\xe9&18@'
p109
tp110
Rp111
ag10
(g14
S'\x19Zd;\xdf\x0f9@'
p112
tp113
Rp114
ag10
(g14
S'/\xdd$\x06\x81\xb58@'
p115
tp116
Rp117
ag10
(g14
S',1\x08\xac\x1cZ:@'
p118
tp119
Rp120
ag10
(g14
S'\xffS\xe3\xa5\x9b\x849@'
p121
tp122
Rp123
ag10
(g14
S'\xf8S\xe3\xa5\x9b\x949@'
p124
tp125
Rp126
ag10
(g14
S'\xf7S\xe3\xa5\x9b\x847@'
p127
tp128
Rp129
ag10
(g14
S'\xa2\xfe\x8dPF\x9f:@'
p130
tp131
Rp132
ag10
(g14
S'l\xe7\xfb\xa9\xf1\xb29@'
p133
tp134
Rp135
ag10
(g14
S'\xb2\xc6K7\x89\x817@'
p136
tp137
Rp138
asssss.