(dp0
S'../Data/sqlite_58.csv'
p1
(dp2
S'../Data/sqlite_29.csv'
p3
(dp4
F0.3
(dp5
S'abs_res'
p6
(dp7
S'bellwether'
p8
(lp9
cnumpy.core.multiarray
scalar
p10
(cnumpy
dtype
p11
(S'f8'
p12
I0
I1
tp13
Rp14
(I3
S'<'
p15
NNNI-1
I-1
I0
tp16
bS'\xcf\xdb\xb2V{Z?A'
p17
tp18
Rp19
ag10
(g14
S'f\x10X\xc9\xe7Z?A'
p20
tp21
Rp22
ag10
(g14
S'\xdeB\xd2\x04\x13Z?A'
p23
tp24
Rp25
ag10
(g14
S'\xc4\x04\x0f\x16\xc1Z?A'
p26
tp27
Rp28
ag10
(g14
S'\x8d\x18\x04\xb6\xaeW?A'
p29
tp30
Rp31
ag10
(g14
S'\xa2\xc6K\x97\xc3[?A'
p32
tp33
Rp34
ag10
(g14
S'0^\xbaI\x1eZ?A'
p35
tp36
Rp37
ag10
(g14
S'\xeb\xfd\xd4\x18\xf2Y?A'
p38
tp39
Rp40
ag10
(g14
S'\xc3\x04\x0f63X?A'
p41
tp42
Rp43
ag10
(g14
S'\xb5\xd7\\H$X?A'
p44
tp45
Rp46
ag10
(g14
S'$\xbfX\x82+Y?A'
p47
tp48
Rp49
ag10
(g14
S'\xde\xea\x98\xa0\x85Z?A'
p50
tp51
Rp52
ag10
(g14
S'\xe6\xd0"{-X?A'
p53
tp54
Rp55
ag10
(g14
S'\xf5\x8b%\x7f\xd3Y?A'
p56
tp57
Rp58
ag10
(g14
S'\x15\xcc\x135#Y?A'
p59
tp60
Rp61
ag10
(g14
S'\xf8\xa9\xf1b;Z?A'
p62
tp63
Rp64
ag10
(g14
S'#\x94\xd1\xebmX?A'
p65
tp66
Rp67
ag10
(g14
S']\x01r?\xc9Y?A'
p68
tp69
Rp70
ag10
(g14
S'\xb5\xca\xa1UQW?A'
p71
tp72
Rp73
ag10
(g14
S'cJ\xc5\x19`Y?A'
p74
tp75
Rp76
asS'target'
p77
(lp78
g10
(g14
S'\x9a\x99\x99\x99\x99\x88\xcf@'
p79
tp80
Rp81
ag10
(g14
S'=333\xb3\xe8\xcf@'
p82
tp83
Rp84
ag10
(g14
S'fffff\xab\xce@'
p85
tp86
Rp87
ag10
(g14
S'6333\xa3\xaf\xd0@'
p88
tp89
Rp90
ag10
(g14
S'\xf1\xee\xee\xeeN\x94\xd0@'
p91
tp92
Rp93
ag10
(g14
S':333\xf3g\xcf@'
p94
tp95
Rp96
ag10
(g14
S'PDDD\xc40\xcd@'
p97
tp98
Rp99
ag10
(g14
S'6333\x83\x08\xd0@'
p100
tp101
Rp102
ag10
(g14
S'4333\xf3Y\xd0@'
p103
tp104
Rp105
ag10
(g14
S'`fff\xc6G\xcf@'
p106
tp107
Rp108
ag10
(g14
S'+333\x93\xf5\xcf@'
p109
tp110
Rp111
ag10
(g14
S'\xfa\xff\xff\xff\xff4\xce@'
p112
tp113
Rp114
ag10
(g14
S'.333\xc3\x1c\xd0@'
p115
tp116
Rp117
ag10
(g14
S'\x9f\x99\x99\x99\xf9 \xd0@'
p118
tp119
Rp120
ag10
(g14
S'cfff\xa6\xd8\xd0@'
p121
tp122
Rp123
ag10
(g14
S'6333C\xd4\xd0@'
p124
tp125
Rp126
ag10
(g14
S'\x97\x99\x99\x99\x99)\xd1@'
p127
tp128
Rp129
ag10
(g14
S'9333\xd3p\xce@'
p130
tp131
Rp132
ag10
(g14
S'8333s\xc4\xd0@'
p133
tp134
Rp135
ag10
(g14
S',333\xb3\xf1\xd0@'
p136
tp137
Rp138
asssss.