(dp0
S'../Data/sqlite_43.csv'
p1
(dp2
S'../Data/sqlite_61.csv'
p3
(dp4
F0.25
(dp5
S'abs_res'
p6
(dp7
S'bellwether'
p8
(lp9
cnumpy.core.multiarray
scalar
p10
(cnumpy
dtype
p11
(S'f8'
p12
I0
I1
tp13
Rp14
(I3
S'<'
p15
NNNI-1
I-1
I0
tp16
bS'\xa2E\xb6\x13oR<A'
p17
tp18
Rp19
ag10
(g14
S'\x87\x07\xf3\xc4\x9eT<A'
p20
tp21
Rp22
ag10
(g14
S'\xbb\x9f\x1a\x0fOT<A'
p23
tp24
Rp25
ag10
(g14
S'>|\x86\xddwS<A'
p26
tp27
Rp28
ag10
(g14
S' \xcc\x13U>S<A'
p29
tp30
Rp31
ag10
(g14
S'\xd2Mb\xf0\xbbS<A'
p32
tp33
Rp34
ag10
(g14
S'\\\xc7\x04\x8f\xedS<A'
p35
tp36
Rp37
ag10
(g14
S'\n+\x87V T<A'
p38
tp39
Rp40
ag10
(g14
S's[\xd6\xea\xb5S<A'
p41
tp42
Rp43
ag10
(g14
S'\xbeg\xd8U\xb4S<A'
p44
tp45
Rp46
ag10
(g14
S',\xdd$\x86\xdeT<A'
p47
tp48
Rp49
ag10
(g14
S'\xb7e\xad\x8e\xe4S<A'
p50
tp51
Rp52
ag10
(g14
S')M\xa9\x98MR<A'
p53
tp54
Rp55
ag10
(g14
S'\x9a\xfcb\x89/S<A'
p56
tp57
Rp58
ag10
(g14
S'\xd5\\H\xba\x8aQ<A'
p59
tp60
Rp61
ag10
(g14
S'\xc2\x92_,zR<A'
p62
tp63
Rp64
ag10
(g14
S'|\xb1\xe4\xd7\xe9S<A'
p65
tp66
Rp67
ag10
(g14
S'\xbb\x11\xca\x08\xc1S<A'
p68
tp69
Rp70
ag10
(g14
S'V\x80\xdc\xabpS<A'
p71
tp72
Rp73
ag10
(g14
S'5&x\x10\x98S<A'
p74
tp75
Rp76
asS'target'
p77
(lp78
g10
(g14
S'\xbfK7\x89Ajv@'
p79
tp80
Rp81
ag10
(g14
S'b\x91\xed|?\xd6q@'
p82
tp83
Rp84
ag10
(g14
S'\x08\xac\x1cZd{r@'
p85
tp86
Rp87
ag10
(g14
S'\xdb$\x06\x81\x95\xcdu@'
p88
tp89
Rp90
ag10
(g14
S'\x13\xd9\xce\xf7SUt@'
p91
tp92
Rp93
ag10
(g14
S'\xa8\xc6K7\x89\x93r@'
p94
tp95
Rp96
ag10
(g14
S'\x99\xc4 \xb0r\xafv@'
p97
tp98
Rp99
ag10
(g14
S'\x9c\xc4 \xb0reu@'
p100
tp101
Rp102
ag10
(g14
S'\xd9$\x06\x81\x95\x02z@'
p103
tp104
Rp105
ag10
(g14
S'H7\x89A`zs@'
p106
tp107
Rp108
ag10
(g14
S'\xe1z\x14\xaeG\xbdt@'
p109
tp110
Rp111
ag10
(g14
S'\xb5\xc8v\xbe\x9f\xa7r@'
p112
tp113
Rp114
ag10
(g14
S'\xf6S\xe3\xa5\x9b\xa4t@'
p115
tp116
Rp117
ag10
(g14
S'G7\x89A`\xbds@'
p118
tp119
Rp120
ag10
(g14
S'D\x8bl\xe7\xfbip@'
p121
tp122
Rp123
ag10
(g14
S'c\x10X9\xb4\x1ct@'
p124
tp125
Rp126
ag10
(g14
S'\x17/\xdd$\x06&r@'
p127
tp128
Rp129
ag10
(g14
S'\xc8\xa1E\xb6\xf3\x84u@'
p130
tp131
Rp132
ag10
(g14
S'.3333\x13t@'
p133
tp134
Rp135
ag10
(g14
S'th\x91\xed|Wq@'
p136
tp137
Rp138
asssss.