(dp0
S'../Data/sqlite_95.csv'
p1
(dp2
S'../Data/sqlite_94.csv'
p3
(dp4
F0.1
(dp5
S'mmre'
p6
(dp7
S'bellwether'
p8
(lp9
cnumpy.core.multiarray
scalar
p10
(cnumpy
dtype
p11
(S'f8'
p12
I0
I1
tp13
Rp14
(I3
S'<'
p15
NNNI-1
I-1
I0
tp16
bS' @\xcc\x90*@p@'
p17
tp18
Rp19
ag10
(g14
S'\xdf\xdb\xe0c\xbeqp@'
p20
tp21
Rp22
ag10
(g14
S'^\xa3l\xce\xcbLp@'
p23
tp24
Rp25
ag10
(g14
S'\n\xd9\xc0\xac\xbcNp@'
p26
tp27
Rp28
ag10
(g14
S'El\\u\xca;p@'
p29
tp30
Rp31
ag10
(g14
S')F~\xe0\xb4`p@'
p32
tp33
Rp34
ag10
(g14
S'B\xd1an\xcd(p@'
p35
tp36
Rp37
ag10
(g14
S'\xf9\xe5\xc4\xa8G(p@'
p38
tp39
Rp40
ag10
(g14
S"'\xa2!P\xe8[p@"
p41
tp42
Rp43
ag10
(g14
S'>Q\xf3\xa2\x14Ep@'
p44
tp45
Rp46
ag10
(g14
S'}\xa0CY\x1cOp@'
p47
tp48
Rp49
ag10
(g14
S'\xf7\xcbR\xcbd8p@'
p50
tp51
Rp52
ag10
(g14
S'+mf\xa8\xa5ep@'
p53
tp54
Rp55
ag10
(g14
S'\xa1\x9c\xe0\xeeW=p@'
p56
tp57
Rp58
ag10
(g14
S"L\x02\xd2U'1p@"
p59
tp60
Rp61
ag10
(g14
S'\xcaQ[\xc79op@'
p62
tp63
Rp64
ag10
(g14
S'\xee\x9e\x19C\x82Lp@'
p65
tp66
Rp67
ag10
(g14
S'\xc2d\x1e\xb3^Op@'
p68
tp69
Rp70
ag10
(g14
S'\x11\x99\xa3\th:p@'
p71
tp72
Rp73
ag10
(g14
S'\x90\xc4u\xe5\xfd-p@'
p74
tp75
Rp76
asS'target'
p77
(lp78
g10
(g14
S'H\x9eS>&\xa9I@'
p79
tp80
Rp81
ag10
(g14
S'\xce\x8c\xa8\xba\xb0OM@'
p82
tp83
Rp84
ag10
(g14
S'\xbc\xae9\xc5%\xc6_@'
p85
tp86
Rp87
ag10
(g14
S"\xfb\xa7\t0\x97'S@"
p88
tp89
Rp90
ag10
(g14
S'\xbb\xef\x97\xf7\xd8\xefQ@'
p91
tp92
Rp93
ag10
(g14
S'-2\xea\xd8\x83\x88]@'
p94
tp95
Rp96
ag10
(g14
S'\xfc&?\xd2\x07\x90[@'
p97
tp98
Rp99
ag10
(g14
S'\xeb\xc1"xn\x85K@'
p100
tp101
Rp102
ag10
(g14
S'\x1e\xa1.\xd7\x99\x95P@'
p103
tp104
Rp105
ag10
(g14
S'\xd4\xd8R7\xf7\xbeV@'
p106
tp107
Rp108
ag10
(g14
S'\xe3\xde\xed2(\x92L@'
p109
tp110
Rp111
ag10
(g14
S'Y\xf0\x14,\x94\xb2N@'
p112
tp113
Rp114
ag10
(g14
S'4\x1eM\x07\x01cK@'
p115
tp116
Rp117
ag10
(g14
S'\x0b\x99n\x85\xe2\xeaN@'
p118
tp119
Rp120
ag10
(g14
S'\x1f\xd7\xd15\xaa`P@'
p121
tp122
Rp123
ag10
(g14
S'\xebW:\xfa\x12_M@'
p124
tp125
Rp126
ag10
(g14
S'\xd5\xce\x05\xed\x9aCG@'
p127
tp128
Rp129
ag10
(g14
S'r\x9c\xe1\xabv\xe5S@'
p130
tp131
Rp132
ag10
(g14
S"'\x14},z\x1eR@"
p133
tp134
Rp135
ag10
(g14
S'*dw\x04?\xffL@'
p136
tp137
Rp138
asssss.