(dp0
S'../Data/sqlite_19.csv'
p1
(dp2
S'../Data/sqlite_96.csv'
p3
(dp4
F0.15
(dp5
S'mmre'
p6
(dp7
S'bellwether'
p8
(lp9
cnumpy.core.multiarray
scalar
p10
(cnumpy
dtype
p11
(S'f8'
p12
I0
I1
tp13
Rp14
(I3
S'<'
p15
NNNI-1
I-1
I0
tp16
bS'D\x08BX\x06$T@'
p17
tp18
Rp19
ag10
(g14
S'\xd3P\xd2w_&T@'
p20
tp21
Rp22
ag10
(g14
S'2\xbf\x89)\xca"T@'
p23
tp24
Rp25
ag10
(g14
S'.y\x0bm&\x18T@'
p26
tp27
Rp28
ag10
(g14
S"H\x88\xab'\x98*T@"
p29
tp30
Rp31
ag10
(g14
S'r\xc3\x92\xa3N\x1fT@'
p32
tp33
Rp34
ag10
(g14
S'F\xe5\xac\xb4\xb8!T@'
p35
tp36
Rp37
ag10
(g14
S'M\x8c\x937\x0f%T@'
p38
tp39
Rp40
ag10
(g14
S'\xb2<\xb3%7"T@'
p41
tp42
Rp43
ag10
(g14
S's\xb7\xca\x01\xba\x1cT@'
p44
tp45
Rp46
ag10
(g14
S'\xbc^\xfd1\x86\x1fT@'
p47
tp48
Rp49
ag10
(g14
S'\x94\xder>\xd0-T@'
p50
tp51
Rp52
ag10
(g14
S'P\xb7d\xd0\xfd T@'
p53
tp54
Rp55
ag10
(g14
S'b\x1f\x88\xc9\x8c\x1cT@'
p56
tp57
Rp58
ag10
(g14
S'\xbaG\xe3\x8f\x8f#T@'
p59
tp60
Rp61
ag10
(g14
S'\xfa\xc9\xf5\xd9x$T@'
p62
tp63
Rp64
ag10
(g14
S'<I\xc8r\xf6\x1fT@'
p65
tp66
Rp67
ag10
(g14
S'k\xf0\xf8k7"T@'
p68
tp69
Rp70
ag10
(g14
S'\xab\xd7&\xf0\x8f!T@'
p71
tp72
Rp73
ag10
(g14
S'o\x94\xe6`\xb3!T@'
p74
tp75
Rp76
asS'target'
p77
(lp78
g10
(g14
S'\x0b\xc2"a,\xd9]@'
p79
tp80
Rp81
ag10
(g14
S'\xea/.\x9f*^]@'
p82
tp83
Rp84
ag10
(g14
S'\xfap\xc1\x15"\xcfU@'
p85
tp86
Rp87
ag10
(g14
S'b\xd5.]6\xf1d@'
p88
tp89
Rp90
ag10
(g14
S'\x1a\xdf%\xe6\xfdPJ@'
p91
tp92
Rp93
ag10
(g14
S'\xe6\x0c\x7fjY\x95\\@'
p94
tp95
Rp96
ag10
(g14
S'}\xd4E\x80\xfa/`@'
p97
tp98
Rp99
ag10
(g14
S'\x86\x1f`\x9cQ-V@'
p100
tp101
Rp102
ag10
(g14
S'\xa4\xf7)#\xe02a@'
p103
tp104
Rp105
ag10
(g14
S'\x01\x84\x8c\xec\xb9\x1c^@'
p106
tp107
Rp108
ag10
(g14
S'Sf\xd1\xca\xcc\x8fS@'
p109
tp110
Rp111
ag10
(g14
S'M\xa8[\xb7M6D@'
p112
tp113
Rp114
ag10
(g14
S'r\x99\xa4\xbdDpS@'
p115
tp116
Rp117
ag10
(g14
S'\xd76w\xde\xb4ZP@'
p118
tp119
Rp120
ag10
(g14
S'\x83+\xea:\x15,T@'
p121
tp122
Rp123
ag10
(g14
S'\x1d:.a\xd9M_@'
p124
tp125
Rp126
ag10
(g14
S'9d\x9e\x9a-,P@'
p127
tp128
Rp129
ag10
(g14
S'\x8c* \xb3\xd5\xf5H@'
p130
tp131
Rp132
ag10
(g14
S'S}\xfbD\x1a\x01R@'
p133
tp134
Rp135
ag10
(g14
S'\x1e<M\xf2\x86\x9eV@'
p136
tp137
Rp138
asssss.