(dp0
S'../Data/sqlite_51.csv'
p1
(dp2
S'../Data/sqlite_47.csv'
p3
(dp4
F0.05
(dp5
S'abs_res'
p6
(dp7
S'bellwether'
p8
(lp9
cnumpy.core.multiarray
scalar
p10
(cnumpy
dtype
p11
(S'f8'
p12
I0
I1
tp13
Rp14
(I3
S'<'
p15
NNNI-1
I-1
I0
tp16
bS'\xce\xf7S\xe3\xcd[\xc5@'
p17
tp18
Rp19
ag10
(g14
S'\xcd\xf9~j\x1c]\xc5@'
p20
tp21
Rp22
ag10
(g14
S'S7\x89A\xf8\\\xc5@'
p23
tp24
Rp25
ag10
(g14
S'gfff\xae\\\xc5@'
p26
tp27
Rp28
ag10
(g14
S'\xbf\x9f\x1a/\xdd\\\xc5@'
p29
tp30
Rp31
ag10
(g14
S'\x88l\xe7\xfbQ\\\xc5@'
p32
tp33
Rp34
ag10
(g14
S'\r\x9faW@[\xc5@'
p35
tp36
Rp37
ag10
(g14
S'\xa9\xe2\xec\xc3g]\xc5@'
p38
tp39
Rp40
ag10
(g14
S'#1\x08\xac<[\xc5@'
p41
tp42
Rp43
ag10
(g14
S'\xe9|?5\xfe\\\xc5@'
p44
tp45
Rp46
ag10
(g14
S'\xf7(\\\x8fZZ\xc5@'
p47
tp48
Rp49
ag10
(g14
S'yj\xbct\x13[\xc5@'
p50
tp51
Rp52
ag10
(g14
S';\x89A`\x9d\\\xc5@'
p53
tp54
Rp55
ag10
(g14
S'4`\xe5\xd0*\\\xc5@'
p56
tp57
Rp58
ag10
(g14
S'\xfdU\x0e-\xb2[\xc5@'
p59
tp60
Rp61
ag10
(g14
S'3\x08\xac\x1c:[\xc5@'
p62
tp63
Rp64
ag10
(g14
S'\x00V\x0e-*^\xc5@'
p65
tp66
Rp67
ag10
(g14
S'\x04\xd7\xa3pE\\\xc5@'
p68
tp69
Rp70
ag10
(g14
S'\xc5v\xbe\x9f2[\xc5@'
p71
tp72
Rp73
ag10
(g14
S'xj\xbct\x0b_\xc5@'
p74
tp75
Rp76
asS'target'
p77
(lp78
g10
(g14
S'\xc8t\x93\x18\x04V]@'
p79
tp80
Rp81
ag10
(g14
S'\xc1 \xb0rhe`@'
p82
tp83
Rp84
ag10
(g14
S'C`\xe5\xd0"of@'
p85
tp86
Rp87
ag10
(g14
S'\x9fC\x8bl\xe7Oa@'
p88
tp89
Rp90
ag10
(g14
S'!3333\xfb\\@'
p91
tp92
Rp93
ag10
(g14
S'\x80\x95C\x8bl#`@'
p94
tp95
Rp96
ag10
(g14
S'\xa7\xf1\xd2Mb\xe8a@'
p97
tp98
Rp99
ag10
(g14
S'\xc2K7\x89A\xe0[@'
p100
tp101
Rp102
ag10
(g14
S'\x12\xd7\xa3p=z_@'
p103
tp104
Rp105
ag10
(g14
S'D\x8bl\xe7\xfb\x01`@'
p106
tp107
Rp108
ag10
(g14
S'P\x91\xed|?E^@'
p109
tp110
Rp111
ag10
(g14
S'1\xdfO\x8d\x97>`@'
p112
tp113
Rp114
ag10
(g14
S'\x12\xd9\xce\xf7S\x8b\\@'
p115
tp116
Rp117
ag10
(g14
S'\xb7G\xe1z\x14\xc2d@'
p118
tp119
Rp120
ag10
(g14
S'\xccK7\x89A\x84b@'
p121
tp122
Rp123
ag10
(g14
S'\x16\x85\xebQ\xb8\x16]@'
p124
tp125
Rp126
ag10
(g14
S'<5^\xbaI\x8c^@'
p127
tp128
Rp129
ag10
(g14
S'8^\xbaI\x0cb]@'
p130
tp131
Rp132
ag10
(g14
S'\x81\xc2\xf5(\\\xff^@'
p133
tp134
Rp135
ag10
(g14
S'\xf3\xa7\xc6K7\x19`@'
p136
tp137
Rp138
asssss.