(dp0
S'../Data/sqlite_1.csv'
p1
(dp2
S'../Data/sqlite_21.csv'
p3
(dp4
F0.15
(dp5
S'abs_res'
p6
(dp7
S'bellwether'
p8
(lp9
cnumpy.core.multiarray
scalar
p10
(cnumpy
dtype
p11
(S'f8'
p12
I0
I1
tp13
Rp14
(I3
S'<'
p15
NNNI-1
I-1
I0
tp16
bS'\x14K~A\xdb5@A'
p17
tp18
Rp19
ag10
(g14
S'oh\x91m\x8d5@A'
p20
tp21
Rp22
ag10
(g14
S'\xcb\xcc\xcc\x8c\x9a5@A'
p23
tp24
Rp25
ag10
(g14
S'\x9c\x1a/\r\x0e6@A'
p26
tp27
Rp28
ag10
(g14
S'\r\x83\xc0j46@A'
p29
tp30
Rp31
ag10
(g14
S'/O\xd4/\xaa5@A'
p32
tp33
Rp34
ag10
(g14
S'\xde\xec\xc3\x17|6@A'
p35
tp36
Rp37
ag10
(g14
S'`;\xdf\xaf\xe94@A'
p38
tp39
Rp40
ag10
(g14
S'm\x12\x83\xf0\xe24@A'
p41
tp42
Rp43
ag10
(g14
S'\x01\x81\x95#"6@A'
p44
tp45
Rp46
ag10
(g14
S'\xb1\x9d\xef\xd7\n5@A'
p47
tp48
Rp49
ag10
(g14
S'U9\xb4\xa8Y5@A'
p50
tp51
Rp52
ag10
(g14
S',\xb2\x9d\xff\x166@A'
p53
tp54
Rp55
ag10
(g14
S'R\x0e-\xe2Z5@A'
p56
tp57
Rp58
ag10
(g14
S'e\xbct\xd3F5@A'
p59
tp60
Rp61
ag10
(g14
S'\xc6\x92_\x8cz5@A'
p62
tp63
Rp64
ag10
(g14
S'\xaf\x1cZt\xe85@A'
p65
tp66
Rp67
ag10
(g14
S'~\x07\xf3Di5@A'
p68
tp69
Rp70
ag10
(g14
S'\x1bZdK\x1a6@A'
p71
tp72
Rp73
ag10
(g14
S'\xc3 \xb0b\x815@A'
p74
tp75
Rp76
asS'target'
p77
(lp78
g10
(g14
S'\xc2v\xbe\x9f\x1a\xf3h@'
p79
tp80
Rp81
ag10
(g14
S'-\x06\x81\x95C\xafh@'
p82
tp83
Rp84
ag10
(g14
S'Pd;\xdfO\x1dj@'
p85
tp86
Rp87
ag10
(g14
S'Mb\x10X9\xf0j@'
p88
tp89
Rp90
ag10
(g14
S'\xa8\xf1\xd2Mb\xe8g@'
p91
tp92
Rp93
ag10
(g14
S'4\\\x8f\xc2\xf5Zh@'
p94
tp95
Rp96
ag10
(g14
S'j\xbaI\x0c\x02\xb3g@'
p97
tp98
Rp99
ag10
(g14
S';\xdfO\x8d\x97\xaeh@'
p100
tp101
Rp102
ag10
(g14
S'\xb1\x9d\xef\xa7\xc6\xb3k@'
p103
tp104
Rp105
ag10
(g14
S'\n\x02+\x87\x16\xf1i@'
p106
tp107
Rp108
ag10
(g14
S'\x17\x85\xebQ\xb8Lg@'
p109
tp110
Rp111
ag10
(g14
S'\x0c\x00\x00\x00\x00\xe8i@'
p112
tp113
Rp114
ag10
(g14
S'\xc2K7\x89A\x88h@'
p115
tp116
Rp117
ag10
(g14
S'\x83\xc0\xca\xa1Ebi@'
p118
tp119
Rp120
ag10
(g14
S'\xce\xa3p=\n\x9fg@'
p121
tp122
Rp123
ag10
(g14
S'\x8e\xed|?5\x0en@'
p124
tp125
Rp126
ag10
(g14
S'\x1c\x04V\x0e-\xf0g@'
p127
tp128
Rp129
ag10
(g14
S'x\x14\xaeG\xe1\nl@'
p130
tp131
Rp132
ag10
(g14
S'\xd4"\xdb\xf9~\xaag@'
p133
tp134
Rp135
ag10
(g14
S'\xd1\xa1E\xb6\xf3\x05f@'
p136
tp137
Rp138
asssss.