(dp0
S'../Data/sqlite_71.csv'
p1
(dp2
S'../Data/sqlite_79.csv'
p3
(dp4
F0.35
(dp5
S'abs_res'
p6
(dp7
S'bellwether'
p8
(lp9
cnumpy.core.multiarray
scalar
p10
(cnumpy
dtype
p11
(S'f8'
p12
I0
I1
tp13
Rp14
(I3
S'<'
p15
NNNI-1
I-1
I0
tp16
bS'\x0b+\x87\xf2M=fA'
p17
tp18
Rp19
ag10
(g14
S'FDD\xa4\xbcQfA'
p20
tp21
Rp22
ag10
(g14
S"'1\x08\xdc,<fA"
p23
tp24
Rp25
ag10
(g14
S'\xe4z\x14\x9e\xf37fA'
p26
tp27
Rp28
ag10
(g14
S'\xea\x89\xfa\x0f\xb0<fA'
p29
tp30
Rp31
ag10
(g14
S'\xf4\xee\xee\xbe\x99FfA'
p32
tp33
Rp34
ag10
(g14
S'\xf9\xd2M\xca3<fA'
p35
tp36
Rp37
ag10
(g14
S'\x9d\xa8\x7f[\xdfIfA'
p38
tp39
Rp40
ag10
(g14
S'S\x9c}\xb8\xcd0fA'
p41
tp42
Rp43
ag10
(g14
S'\x7f0O\xa0~8fA'
p44
tp45
Rp46
ag10
(g14
S'e,\xf9\x9dAEfA'
p47
tp48
Rp49
ag10
(g14
S'\xcb\xd9\x877HIfA'
p50
tp51
Rp52
ag10
(g14
S'd\xe5\xd0j\xf9EfA'
p53
tp54
Rp55
ag10
(g14
S'\x01\x7fjL\x1fDfA'
p56
tp57
Rp58
ag10
(g14
S'$\xbfX\x1a\xa6WfA'
p59
tp60
Rp61
ag10
(g14
S'\xb5\x9d\xefw87fA'
p62
tp63
Rp64
ag10
(g14
S'\xf8\xc5\x92#\xaf;fA'
p65
tp66
Rp67
ag10
(g14
S"M\x9aR\x01'4fA"
p68
tp69
Rp70
ag10
(g14
S'm\xda@?K;fA'
p71
tp72
Rp73
ag10
(g14
S'\xc3\xae\x00\xb1*=fA'
p74
tp75
Rp76
asS'target'
p77
(lp78
g10
(g14
S'\xec\xd0"\xdb\xf9\xaeq@'
p79
tp80
Rp81
ag10
(g14
S'\xf8\xa9\xf1\xd2M|p@'
p82
tp83
Rp84
ag10
(g14
S'\xd1\xa3p=\nql@'
p85
tp86
Rp87
ag10
(g14
S'f\xe7\xfb\xa9\xf1\xb3p@'
p88
tp89
Rp90
ag10
(g14
S'\x18\x04V\x0e-\xf0p@'
p91
tp92
Rp93
ag10
(g14
S'[d;\xdfO\x1eq@'
p94
tp95
Rp96
ag10
(g14
S'i\x842z[\xaen@'
p97
tp98
Rp99
ag10
(g14
S'\xd0\xcc\xcc\xcc\xcc\xdcl@'
p100
tp101
Rp102
ag10
(g14
S'\x17/\xdd$\x06\xadh@'
p103
tp104
Rp105
ag10
(g14
S'Q\x0e-\xb2\x9dYo@'
p106
tp107
Rp108
ag10
(g14
S'I\x0c\x02+\x87\xa2n@'
p109
tp110
Rp111
ag10
(g14
S'\xe8Q\xb8\x1e\x85Sn@'
p112
tp113
Rp114
ag10
(g14
S'\xf7~j\xbctop@'
p115
tp116
Rp117
ag10
(g14
S'g\xa0\xd3\x06:Gn@'
p118
tp119
Rp120
ag10
(g14
S'\x82\xebQ\xb8\x1e]o@'
p121
tp122
Rp123
ag10
(g14
S'\x1a\xd9\xce\xf7S9r@'
p124
tp125
Rp126
ag10
(g14
S'*\\\x8f\xc2\xf5\xedq@'
p127
tp128
Rp129
ag10
(g14
S'v\x93\x18\x04V\xb2m@'
p130
tp131
Rp132
ag10
(g14
S'\xfd\xd6\xa3p=Dm@'
p133
tp134
Rp135
ag10
(g14
S'\xd6\xa3p=\n\x8fo@'
p136
tp137
Rp138
asssss.