(dp0
S'../Data/sqlite_3.csv'
p1
(dp2
S'../Data/sqlite_59.csv'
p3
(dp4
F0.3
(dp5
S'mmre'
p6
(dp7
S'bellwether'
p8
(lp9
cnumpy.core.multiarray
scalar
p10
(cnumpy
dtype
p11
(S'f8'
p12
I0
I1
tp13
Rp14
(I3
S'<'
p15
NNNI-1
I-1
I0
tp16
bS'i\xdf\x0cdk5E@'
p17
tp18
Rp19
ag10
(g14
S'\xe7\xf6\xcf\xff\xe28E@'
p20
tp21
Rp22
ag10
(g14
S'\xbd\x84\xf6\xdb\xce"E@'
p23
tp24
Rp25
ag10
(g14
S'\x92\x12\xc9\x92\x0f\x18E@'
p26
tp27
Rp28
ag10
(g14
S'\x1e\x0c\xd4oI-E@'
p29
tp30
Rp31
ag10
(g14
S"\x892\x12\xd9-'E@"
p32
tp33
Rp34
ag10
(g14
S'\x1c\xc3l\xe0\x854E@'
p35
tp36
Rp37
ag10
(g14
S'\xcbh\x9dh\xe2IE@'
p38
tp39
Rp40
ag10
(g14
S'\x80\xf0\x84\xeb\x976E@'
p41
tp42
Rp43
ag10
(g14
S'Y<\xe11+:E@'
p44
tp45
Rp46
ag10
(g14
S"\t~'\xbf:1E@"
p47
tp48
Rp49
ag10
(g14
S'\x97\xe77\x0f\n4E@'
p50
tp51
Rp52
ag10
(g14
S'5[\x9b\x8d\x1f(E@'
p53
tp54
Rp55
ag10
(g14
S'%\xd7o\xbce\x14E@'
p56
tp57
Rp58
ag10
(g14
S'\xe1\xb3Y:@\x1eE@'
p59
tp60
Rp61
ag10
(g14
S'sn\x13}\x858E@'
p62
tp63
Rp64
ag10
(g14
S'3\xe1L\x02v>E@'
p65
tp66
Rp67
ag10
(g14
S'\xe9\x08_:8-E@'
p68
tp69
Rp70
ag10
(g14
S'\xbeJ\xb9\x8f&,E@'
p71
tp72
Rp73
ag10
(g14
S'\x0f2\xc2(\xc2$E@'
p74
tp75
Rp76
asS'target'
p77
(lp78
g10
(g14
S'\xc8_G[Ue%@'
p79
tp80
Rp81
ag10
(g14
S'@\xaa\xbay\xf1\x0c%@'
p82
tp83
Rp84
ag10
(g14
S'\xd7m\xfe\xfe,\x9e&@'
p85
tp86
Rp87
ag10
(g14
S'\xa9F%1:\x1e%@'
p88
tp89
Rp90
ag10
(g14
S"\x95s\x83\xba\xe8\x8f'@"
p91
tp92
Rp93
ag10
(g14
S'B\xc8\x19\x91\x9b\x14&@'
p94
tp95
Rp96
ag10
(g14
S"<\x8b\xb1\xed\xfb['@"
p97
tp98
Rp99
ag10
(g14
S'y\xeb\xc3.\x80\x80%@'
p100
tp101
Rp102
ag10
(g14
S'\xdd\xa46|\t\xf3%@'
p103
tp104
Rp105
ag10
(g14
S'W\x1be)6\xf7&@'
p106
tp107
Rp108
ag10
(g14
S'\xe5Y\xbe\x86\x8b\x12&@'
p109
tp110
Rp111
ag10
(g14
S'\xe9\x8a?\x81\xef\xd2$@'
p112
tp113
Rp114
ag10
(g14
S'y~v\xee\xa4\xd8&@'
p115
tp116
Rp117
ag10
(g14
S"\xab\xafN]y?'@"
p118
tp119
Rp120
ag10
(g14
S"fw3sp2'@"
p121
tp122
Rp123
ag10
(g14
S'\xf7\xc0f\x16\xe9%&@'
p124
tp125
Rp126
ag10
(g14
S'\xde\xf9g\x93\x0c\xa5%@'
p127
tp128
Rp129
ag10
(g14
S'\xfam6*!T&@'
p130
tp131
Rp132
ag10
(g14
S'\xec"\xc7\xaa2\xb1%@'
p133
tp134
Rp135
ag10
(g14
S'2\xe1\x95\x13nC%@'
p136
tp137
Rp138
asssss.