(dp0
S'../Data/sqlite_31.csv'
p1
(dp2
S'../Data/sqlite_90.csv'
p3
(dp4
F0.15
(dp5
S'mmre'
p6
(dp7
S'bellwether'
p8
(lp9
cnumpy.core.multiarray
scalar
p10
(cnumpy
dtype
p11
(S'f8'
p12
I0
I1
tp13
Rp14
(I3
S'<'
p15
NNNI-1
I-1
I0
tp16
bS'7F\xd9\x823bV@'
p17
tp18
Rp19
ag10
(g14
S'\xe7K;\xe7\xef`V@'
p20
tp21
Rp22
ag10
(g14
S'[R\xca\x88vdV@'
p23
tp24
Rp25
ag10
(g14
S'<\xdd \xe6\x9cfV@'
p26
tp27
Rp28
ag10
(g14
S'\xfa\x82A\xf6FiV@'
p29
tp30
Rp31
ag10
(g14
S'\xdd5\xfd\xfb\xc8dV@'
p32
tp33
Rp34
ag10
(g14
S'\xaa@\x00f\xeakV@'
p35
tp36
Rp37
ag10
(g14
S'\x7f\xe1$h\x98hV@'
p38
tp39
Rp40
ag10
(g14
S'\x98v#\x94%fV@'
p41
tp42
Rp43
ag10
(g14
S'w-\xbb-\x08ZV@'
p44
tp45
Rp46
ag10
(g14
S'\x13\xc3\xa3;\xf8^V@'
p47
tp48
Rp49
ag10
(g14
S'\xd5K\xf1\xa1\xd0cV@'
p50
tp51
Rp52
ag10
(g14
S'\xc0`A\xac\x00lV@'
p53
tp54
Rp55
ag10
(g14
S'>R1\xaa\x14`V@'
p56
tp57
Rp58
ag10
(g14
S'/\xc0\xfb\xdf\x15cV@'
p59
tp60
Rp61
ag10
(g14
S'm\nc\x11SWV@'
p62
tp63
Rp64
ag10
(g14
S'\x93Y\xcf\xf8agV@'
p65
tp66
Rp67
ag10
(g14
S'v\xba\xedO\xf3lV@'
p68
tp69
Rp70
ag10
(g14
S'\xa2\x9d\xa7\x90\xb5hV@'
p71
tp72
Rp73
ag10
(g14
S'C(\xa9uhaV@'
p74
tp75
Rp76
asS'target'
p77
(lp78
g10
(g14
S'\xbf\xedRC>\x93>@'
p79
tp80
Rp81
ag10
(g14
S'\xc8\xbc\xc6\xe4A2A@'
p82
tp83
Rp84
ag10
(g14
S'\x1e\xf0\xb3\xb3\x8dmA@'
p85
tp86
Rp87
ag10
(g14
S'\xc7\xde\xac@\xa4E@@'
p88
tp89
Rp90
ag10
(g14
S'\xa8\x06!\xdb\xc43B@'
p91
tp92
Rp93
ag10
(g14
S'\x16\xf6m\xcc>\xa8>@'
p94
tp95
Rp96
ag10
(g14
S'~\x11\x18\xfe\t|B@'
p97
tp98
Rp99
ag10
(g14
S'\x9d\x06\xfc\xf8\xf0G@@'
p100
tp101
Rp102
ag10
(g14
S'\xf1R\x19\x85I\xb7A@'
p103
tp104
Rp105
ag10
(g14
S"'\xed\xe0Y\xa4\xb9@@"
p106
tp107
Rp108
ag10
(g14
S'\xca\x93\xe5\x8c\xe6tA@'
p109
tp110
Rp111
ag10
(g14
S'\xe5\x1b\x02&\xfc\xb7A@'
p112
tp113
Rp114
ag10
(g14
S'dU\xb6k\xd5IA@'
p115
tp116
Rp117
ag10
(g14
S'y\x18Jh\x93\x86A@'
p118
tp119
Rp120
ag10
(g14
S't\x0e{\x92`\x1eD@'
p121
tp122
Rp123
ag10
(g14
S'C\xa4W\x85K\x88B@'
p124
tp125
Rp126
ag10
(g14
S'\xbeN7Z\x8c\xc6@@'
p127
tp128
Rp129
ag10
(g14
S'w\xb6\x91&\x81\xa9A@'
p130
tp131
Rp132
ag10
(g14
S'T\xc1\x80V\xf1\xf0?@'
p133
tp134
Rp135
ag10
(g14
S'H\x9b\xe7q\xb6\xe0A@'
p136
tp137
Rp138
asssss.