(dp0
S'../Data/sqlite_62.csv'
p1
(dp2
S'../Data/sqlite_95.csv'
p3
(dp4
F0.05
(dp5
S'mmre'
p6
(dp7
S'bellwether'
p8
(lp9
cnumpy.core.multiarray
scalar
p10
(cnumpy
dtype
p11
(S'f8'
p12
I0
I1
tp13
Rp14
(I3
S'<'
p15
NNNI-1
I-1
I0
tp16
bS'\x8c\xf9X\xe08`X@'
p17
tp18
Rp19
ag10
(g14
S'\xccuW\xa2@`X@'
p20
tp21
Rp22
ag10
(g14
S'\x03\xb6\xc05i`X@'
p23
tp24
Rp25
ag10
(g14
S'\xd4\xf0;\xa9\xe0_X@'
p26
tp27
Rp28
ag10
(g14
S'#\\\x00q\x9f`X@'
p29
tp30
Rp31
ag10
(g14
S'\x98|\x11\x05\xd1`X@'
p32
tp33
Rp34
ag10
(g14
S'<p\x95\xd5\xf7`X@'
p35
tp36
Rp37
ag10
(g14
S'3\xb0x#\x11`X@'
p38
tp39
Rp40
ag10
(g14
S'\xd8c\x91\xe6\x0baX@'
p41
tp42
Rp43
ag10
(g14
S'\xbc\xefK\x198`X@'
p44
tp45
Rp46
ag10
(g14
S'\xe5\xd7\xc4\x19o`X@'
p47
tp48
Rp49
ag10
(g14
S'~N\xef\xbe\x08`X@'
p50
tp51
Rp52
ag10
(g14
S'\xef\xa7\x9cl\x13`X@'
p53
tp54
Rp55
ag10
(g14
S'el\x12\xddS`X@'
p56
tp57
Rp58
ag10
(g14
S'B\xd6\xe9@\xad_X@'
p59
tp60
Rp61
ag10
(g14
S'\xcc\x10\xf9\x96\xf9_X@'
p62
tp63
Rp64
ag10
(g14
S'-\xb7\xd7\xc5\x0c`X@'
p65
tp66
Rp67
ag10
(g14
S'\xfc\xfc 1\xa2_X@'
p68
tp69
Rp70
ag10
(g14
S'\xc8h\xf5z\x07`X@'
p71
tp72
Rp73
ag10
(g14
S'\x9f*S\xfc\xc9_X@'
p74
tp75
Rp76
asS'target'
p77
(lp78
g10
(g14
S'uN\xed\xe9\xbf\xb2C@'
p79
tp80
Rp81
ag10
(g14
S'\xd4\xb4\xfcp\x0c\xfbC@'
p82
tp83
Rp84
ag10
(g14
S'\xa4\xc8L\x92\r\xd8>@'
p85
tp86
Rp87
ag10
(g14
S'?\x0ew\xdfc\xd3A@'
p88
tp89
Rp90
ag10
(g14
S'\xa8M\xacS\xbfVA@'
p91
tp92
Rp93
ag10
(g14
S'6\xe4I#\xf6ND@'
p94
tp95
Rp96
ag10
(g14
S'\xe1\x82yci\xa1E@'
p97
tp98
Rp99
ag10
(g14
S'\xe71\xf3uP9A@'
p100
tp101
Rp102
ag10
(g14
S'd\x04\x05N\x88w@@'
p103
tp104
Rp105
ag10
(g14
S'\xd8S\xd5\x90\xa5\xe2;@'
p106
tp107
Rp108
ag10
(g14
S'\xab\x10ohz\x939@'
p109
tp110
Rp111
ag10
(g14
S'%E\x04\xb2q\x1a:@'
p112
tp113
Rp114
ag10
(g14
S'\xe6n\xaaq\xd5EG@'
p115
tp116
Rp117
ag10
(g14
S')\x1a@\x01\x97\x85D@'
p118
tp119
Rp120
ag10
(g14
S'\x0e\xbc\xce,\nXD@'
p121
tp122
Rp123
ag10
(g14
S'\x7f\x83\xfaJ\xbf\xa6;@'
p124
tp125
Rp126
ag10
(g14
S'\x8b\xe6\x92\x10Q\tK@'
p127
tp128
Rp129
ag10
(g14
S'G\x05\xe4q\xb2\\@@'
p130
tp131
Rp132
ag10
(g14
S'\x86\xaf\x00#\xeb\rD@'
p133
tp134
Rp135
ag10
(g14
S'X/F\xa0OxF@'
p136
tp137
Rp138
asssss.