(dp0
S'../Data/sqlite_4.csv'
p1
(dp2
S'../Data/sqlite_31.csv'
p3
(dp4
F0.35
(dp5
S'abs_res'
p6
(dp7
S'bellwether'
p8
(lp9
cnumpy.core.multiarray
scalar
p10
(cnumpy
dtype
p11
(S'f8'
p12
I0
I1
tp13
Rp14
(I3
S'<'
p15
NNNI-1
I-1
I0
tp16
bS'#M\xa9xy?9A'
p17
tp18
Rp19
ag10
(g14
S'8\xa5\xe2\xecK?9A'
p20
tp21
Rp22
ag10
(g14
S'\xe0\x89\xfa\xb7lA9A'
p23
tp24
Rp25
ag10
(g14
S'\xcb\x13\xf5o]A9A'
p26
tp27
Rp28
ag10
(g14
S'd\x10X\xb9\xc6@9A'
p29
tp30
Rp31
ag10
(g14
S'\rIS\n\x99@9A'
p32
tp33
Rp34
ag10
(g14
S'\x8c\x97n\xd2\xab?9A'
p35
tp36
Rp37
ag10
(g14
S'W\xabc\x82\xdf@9A'
p38
tp39
Rp40
ag10
(g14
S'\n\x9faW\x02?9A'
p41
tp42
Rp43
ag10
(g14
S'#>\xc3\xee`B9A'
p44
tp45
Rp46
ag10
(g14
S'\xff\xa9\xf1R\x91A9A'
p47
tp48
Rp49
ag10
(g14
S'\xb6\x1e\x85\xab\x9e@9A'
p50
tp51
Rp52
ag10
(g14
S'\xd9\xce\xf7s\xb5@9A'
p53
tp54
Rp55
ag10
(g14
S'(\xce>|\xf0@9A'
p56
tp57
Rp58
ag10
(g14
S'\xd0\xf7SC\xf4B9A'
p59
tp60
Rp61
ag10
(g14
S'aJ\xc5\xf9.B9A'
p62
tp63
Rp64
ag10
(g14
S'B(\xa3W<?9A'
p65
tp66
Rp67
ag10
(g14
S'\xb1\xaa\xaa\xeab?9A'
p68
tp69
Rp70
ag10
(g14
S'\xfeq\xaf\xb9\x95A9A'
p71
tp72
Rp73
ag10
(g14
S'RUUuJA9A'
p74
tp75
Rp76
asS'target'
p77
(lp78
g10
(g14
S'~?5^\xba\x0ba@'
p79
tp80
Rp81
ag10
(g14
S'\xf6S\xe3\xa5\x9bJa@'
p82
tp83
Rp84
ag10
(g14
S',3333#a@'
p85
tp86
Rp87
ag10
(g14
S'\xc3\xf5(\\\x8f"`@'
p88
tp89
Rp90
ag10
(g14
S'\xc5K7\x89A\xe6`@'
p91
tp92
Rp93
ag10
(g14
S'\xf2~j\xbctc_@'
p94
tp95
Rp96
ag10
(g14
S'\x87\x88\x88\x88\x88|`@'
p97
tp98
Rp99
ag10
(g14
S'\xc7v\xbe\x9f\x1ac`@'
p100
tp101
Rp102
ag10
(g14
S'\xe1O\x8d\x97n\x96_@'
p103
tp104
Rp105
ag10
(g14
S'\x1b\xb0rh\x91\xc1`@'
p106
tp107
Rp108
ag10
(g14
S'\x15\xd9\xce\xf7S\xc7^@'
p109
tp110
Rp111
ag10
(g14
S'$\xd9\xce\xf7S;_@'
p112
tp113
Rp114
ag10
(g14
S'\xf4\xfd\xd4x\xe9\xa4`@'
p115
tp116
Rp117
ag10
(g14
S'\xf0\xa7\xc6K7\xc9`@'
p118
tp119
Rp120
ag10
(g14
S'\xf5S\xe3\xa5\x9b\x90a@'
p121
tp122
Rp123
ag10
(g14
S'E7\x89A`\x9d_@'
p124
tp125
Rp126
ag10
(g14
S'_;\xdfO\x8dC`@'
p127
tp128
Rp129
ag10
(g14
S'\xb8\x9f\x1a/\xdd@a@'
p130
tp131
Rp132
ag10
(g14
S'm=\n\xd7\xa3\\`@'
p133
tp134
Rp135
ag10
(g14
S'\xc6\xf7S\xe3\xa5\xc3_@'
p136
tp137
Rp138
asssss.