(dp0
S'../Data/sqlite_93.csv'
p1
(dp2
S'../Data/sqlite_92.csv'
p3
(dp4
F0.05
(dp5
S'mmre'
p6
(dp7
S'bellwether'
p8
(lp9
cnumpy.core.multiarray
scalar
p10
(cnumpy
dtype
p11
(S'f8'
p12
I0
I1
tp13
Rp14
(I3
S'<'
p15
NNNI-1
I-1
I0
tp16
bS'H\xc0U\xaaGRO@'
p17
tp18
Rp19
ag10
(g14
S'\xf1g\xe5\x80<QO@'
p20
tp21
Rp22
ag10
(g14
S'\xc5v\x8b\xb6CQO@'
p23
tp24
Rp25
ag10
(g14
S'~\xce1\xf4NOO@'
p26
tp27
Rp28
ag10
(g14
S'b ;,\x00OO@'
p29
tp30
Rp31
ag10
(g14
S'.G0C\xe3NO@'
p32
tp33
Rp34
ag10
(g14
S'E\xb0\xf1\xe9\x1cSO@'
p35
tp36
Rp37
ag10
(g14
S'6\x8d^+uJO@'
p38
tp39
Rp40
ag10
(g14
S'\xb6\xa3\xa5\x8a\xe2RO@'
p41
tp42
Rp43
ag10
(g14
S'83\xea\xe6\xf4LO@'
p44
tp45
Rp46
ag10
(g14
S'$\xfb<\tsIO@'
p47
tp48
Rp49
ag10
(g14
S'0\xfd?2aMO@'
p50
tp51
Rp52
ag10
(g14
S'\x00Hm\x9c\x00NO@'
p53
tp54
Rp55
ag10
(g14
S'\xd5h\xb9\xf4\xd1UO@'
p56
tp57
Rp58
ag10
(g14
S'Fz\xb2R|LO@'
p59
tp60
Rp61
ag10
(g14
S'\xf0\xec\xa1K\xafOO@'
p62
tp63
Rp64
ag10
(g14
S'\x1eC!\x13\\NO@'
p65
tp66
Rp67
ag10
(g14
S'\xb1\xdb[I\x0bOO@'
p68
tp69
Rp70
ag10
(g14
S'\x9a\x95\xdb\xb97OO@'
p71
tp72
Rp73
ag10
(g14
S'\xcd)\xd1\xa2\x99QO@'
p74
tp75
Rp76
asS'target'
p77
(lp78
g10
(g14
S'X\x0c~\xc1$\x10]@'
p79
tp80
Rp81
ag10
(g14
S'J9\r:\x9f\x8eV@'
p82
tp83
Rp84
ag10
(g14
S'\xd2=\x0b!P\xacQ@'
p85
tp86
Rp87
ag10
(g14
S'v\xa1{\xe8\x87\x1cH@'
p88
tp89
Rp90
ag10
(g14
S'\xe6\xa2\xd6\xa4s\xe7G@'
p91
tp92
Rp93
ag10
(g14
S'\r^K\x06<HW@'
p94
tp95
Rp96
ag10
(g14
S'\x8e;y>]FZ@'
p97
tp98
Rp99
ag10
(g14
S'C$\xd8\xc5!\xc0R@'
p100
tp101
Rp102
ag10
(g14
S'U\xb5\xde)\xa00Y@'
p103
tp104
Rp105
ag10
(g14
S':\x83\x04zn\xa8D@'
p106
tp107
Rp108
ag10
(g14
S'\xe2j\xf4CW\xc9M@'
p109
tp110
Rp111
ag10
(g14
S'\xf1(WP\xbe\xc7\\@'
p112
tp113
Rp114
ag10
(g14
S"\xb5\x83\xf1\x82\xd9'[@"
p115
tp116
Rp117
ag10
(g14
S'T\x8f\xadn0^l@'
p118
tp119
Rp120
ag10
(g14
S'\xa5\xe7\x9c=;\xc9V@'
p121
tp122
Rp123
ag10
(g14
S'-_\xd8\x10\x9f\xd4W@'
p124
tp125
Rp126
ag10
(g14
S'}C\x98E gZ@'
p127
tp128
Rp129
ag10
(g14
S'4&-\xee}4T@'
p130
tp131
Rp132
ag10
(g14
S'1\x816\xc6\xd5\x98E@'
p133
tp134
Rp135
ag10
(g14
S'\x05\xc8\x1b\x9aoBT@'
p136
tp137
Rp138
asssss.