(dp0
S'../Data/sqlite_36.csv'
p1
(dp2
S'../Data/sqlite_97.csv'
p3
(dp4
F0.1
(dp5
S'mmre'
p6
(dp7
S'bellwether'
p8
(lp9
cnumpy.core.multiarray
scalar
p10
(cnumpy
dtype
p11
(S'f8'
p12
I0
I1
tp13
Rp14
(I3
S'<'
p15
NNNI-1
I-1
I0
tp16
bS'[]S\xfb\xfbcW@'
p17
tp18
Rp19
ag10
(g14
S'i9SKsbW@'
p20
tp21
Rp22
ag10
(g14
S'\xf0d\xe9\x9eP`W@'
p23
tp24
Rp25
ag10
(g14
S'\x90\xe1\xa5c\x7faW@'
p26
tp27
Rp28
ag10
(g14
S'wk^C\xa3aW@'
p29
tp30
Rp31
ag10
(g14
S'\xa99L\xdf\naW@'
p32
tp33
Rp34
ag10
(g14
S'\x0e\x86\x10\xbbqbW@'
p35
tp36
Rp37
ag10
(g14
S'\x9f\x87\xb0\x93\xbecW@'
p38
tp39
Rp40
ag10
(g14
S'\x16bv\xb2`cW@'
p41
tp42
Rp43
ag10
(g14
S'\xe4\xfd\xae8;^W@'
p44
tp45
Rp46
ag10
(g14
S'\x97\xe6\x8e\xf7\xba`W@'
p47
tp48
Rp49
ag10
(g14
S'[9\xb5n\xa2`W@'
p50
tp51
Rp52
ag10
(g14
S'\xa9\xd8\xc1\xd1\x17aW@'
p53
tp54
Rp55
ag10
(g14
S'$\xf8Zw\x87`W@'
p56
tp57
Rp58
ag10
(g14
S'\r=3\xf7\x12cW@'
p59
tp60
Rp61
ag10
(g14
S'nH\xbeC8bW@'
p62
tp63
Rp64
ag10
(g14
S'\x18,^\xca\x0eaW@'
p65
tp66
Rp67
ag10
(g14
S'\xa0e\xaf\x84\x99bW@'
p68
tp69
Rp70
ag10
(g14
S'{\x97t\x0b\xce`W@'
p71
tp72
Rp73
ag10
(g14
S'\x1d]\xe8\x14cbW@'
p74
tp75
Rp76
asS'target'
p77
(lp78
g10
(g14
S'\x82\xd5\xd2\x83\x08\x9dP@'
p79
tp80
Rp81
ag10
(g14
S'\xe6b\xdc\x12\xd4\x9bV@'
p82
tp83
Rp84
ag10
(g14
S'X9Ne\x1d\xfaD@'
p85
tp86
Rp87
ag10
(g14
S'a\x1f\xe9\xf3\xed\xe6U@'
p88
tp89
Rp90
ag10
(g14
S'@\xa3\x06g\xd3\x05B@'
p91
tp92
Rp93
ag10
(g14
S'D\xad\xd9Y86V@'
p94
tp95
Rp96
ag10
(g14
S'\x90SU^\x04aT@'
p97
tp98
Rp99
ag10
(g14
S'#\xbfT\xea\xc0RF@'
p100
tp101
Rp102
ag10
(g14
S'\x08-\xe9\x02X$M@'
p103
tp104
Rp105
ag10
(g14
S'U\xfd^\x1d\x8eaV@'
p106
tp107
Rp108
ag10
(g14
S'\xf4\x1c\x80\xa4eUd@'
p109
tp110
Rp111
ag10
(g14
S'R\x93\xe1\x03}\xdaL@'
p112
tp113
Rp114
ag10
(g14
S'\xb3\xb5j\xe9\xeb\xf1P@'
p115
tp116
Rp117
ag10
(g14
S'Gyx\xb8k\xefO@'
p118
tp119
Rp120
ag10
(g14
S'#\xf3\xca\x1d\x99\xe4C@'
p121
tp122
Rp123
ag10
(g14
S'\x0f\xdcn\xfa\xcf Z@'
p124
tp125
Rp126
ag10
(g14
S'\xc6\xb0T\x19^\x03F@'
p127
tp128
Rp129
ag10
(g14
S'\xf2.\xd3\xdcC4V@'
p130
tp131
Rp132
ag10
(g14
S'cZ~|\xcdJT@'
p133
tp134
Rp135
ag10
(g14
S'Py&\xe6\x94\xb7M@'
p136
tp137
Rp138
asssss.