(dp0
S'../Data/sqlite_66.csv'
p1
(dp2
S'../Data/sqlite_65.csv'
p3
(dp4
F0.15
(dp5
S'abs_res'
p6
(dp7
S'bellwether'
p8
(lp9
cnumpy.core.multiarray
scalar
p10
(cnumpy
dtype
p11
(S'f8'
p12
I0
I1
tp13
Rp14
(I3
S'<'
p15
NNNI-1
I-1
I0
tp16
bS'\x97Rq6nA"A'
p17
tp18
Rp19
ag10
(g14
S'\x03\xd7\xa3p\xf6B"A'
p20
tp21
Rp22
ag10
(g14
S'2\x96\xfcb\x17A"A'
p23
tp24
Rp25
ag10
(g14
S'\x05\xaa\xf1\xd2\x91A"A'
p26
tp27
Rp28
ag10
(g14
S'v\xe9&1zB"A'
p29
tp30
Rp31
ag10
(g14
S'\xb0V\xc7\xc4VB"A'
p32
tp33
Rp34
ag10
(g14
S'<\x89A\xe0\x8dA"A'
p35
tp36
Rp37
ag10
(g14
S'\x1b\x13<\x98ZB"A'
p38
tp39
Rp40
ag10
(g14
S'P\xe3\xa5\x9blB"A'
p41
tp42
Rp43
ag10
(g14
S'\xd7\x08e\xb4\x1fB"A'
p44
tp45
Rp46
ag10
(g14
S'\xdf3\xec\n\xf8A"A'
p47
tp48
Rp49
ag10
(g14
S'\xd71\xc1\x03\xc7A"A'
p50
tp51
Rp52
ag10
(g14
S'\x12/\xddd^B"A'
p53
tp54
Rp55
ag10
(g14
S'\xaf\x1cZ\xe4:B"A'
p56
tp57
Rp58
ag10
(g14
S't\xa2\xfe\xcd\xdfA"A'
p59
tp60
Rp61
ag10
(g14
S'\xf7*\x87V0B"A'
p62
tp63
Rp64
ag10
(g14
S'\xf8\xa9\xf1\x92`B"A'
p65
tp66
Rp67
ag10
(g14
S'\xf5\xb6\xac\x15yA"A'
p68
tp69
Rp70
ag10
(g14
S'Iq\xf6!\xc3B"A'
p71
tp72
Rp73
ag10
(g14
S'@\x8bl\'RB"A'
p74
tp75
Rp76
asS'target'
p77
(lp78
g10
(g14
S'`\xbaI\x0c\x02\xabX@'
p79
tp80
Rp81
ag10
(g14
S'/\x08\xac\x1cZ\x08[@'
p82
tp83
Rp84
ag10
(g14
S'*\xdd$\x06\x81\xd5\\@'
p85
tp86
Rp87
ag10
(g14
S'\xa8\xc6K7\x89\xd1c@'
p88
tp89
Rp90
ag10
(g14
S'Z\xb8\x1e\x85\xeb\xf1\\@'
p91
tp92
Rp93
ag10
(g14
S'f;\xdfO\x8d\x07^@'
p94
tp95
Rp96
ag10
(g14
S'\xcfMb\x10X\x89[@'
p97
tp98
Rp99
ag10
(g14
S'b\xe3\xa5\x9b\xc40]@'
p100
tp101
Rp102
ag10
(g14
S'\x9eE\xb6\xf3\xfd\xccW@'
p103
tp104
Rp105
ag10
(g14
S'\xb5I\x0c\x02+?[@'
p106
tp107
Rp108
ag10
(g14
S'\x91C\x8bl\xe7K^@'
p109
tp110
Rp111
ag10
(g14
S'\xefQ\xb8\x1e\x85Sa@'
p112
tp113
Rp114
ag10
(g14
S'z\x95C\x8blG[@'
p115
tp116
Rp117
ag10
(g14
S'\x8a\x16\xd9\xce\xf7G_@'
p118
tp119
Rp120
ag10
(g14
S'e\x8f\xc2\xf5(\x94_@'
p121
tp122
Rp123
ag10
(g14
S"'\x87\x16\xd9\xceO\\@"
p124
tp125
Rp126
ag10
(g14
S'6\x89A`\xe5\xf6a@'
p127
tp128
Rp129
ag10
(g14
S'\x94\xed|?5\xce]@'
p130
tp131
Rp132
ag10
(g14
S'\xdeMb\x10X-X@'
p133
tp134
Rp135
ag10
(g14
S'\xad\x1cZd;\xbfZ@'
p136
tp137
Rp138
asssss.