(dp0
S'../Data/sqlite_51.csv'
p1
(dp2
S'../Data/sqlite_73.csv'
p3
(dp4
F0.3
(dp5
S'mmre'
p6
(dp7
S'bellwether'
p8
(lp9
cnumpy.core.multiarray
scalar
p10
(cnumpy
dtype
p11
(S'f8'
p12
I0
I1
tp13
Rp14
(I3
S'<'
p15
NNNI-1
I-1
I0
tp16
bS'9\x8f:}\xb7*W@'
p17
tp18
Rp19
ag10
(g14
S'c\xbde\xc3\xef+W@'
p20
tp21
Rp22
ag10
(g14
S'\t/\xdeto+W@'
p23
tp24
Rp25
ag10
(g14
S'\xc1\x17\xce\x93\x18,W@'
p26
tp27
Rp28
ag10
(g14
S'\xd7[~\xfd\x96*W@'
p29
tp30
Rp31
ag10
(g14
S'r\xb9\xc9\x06\xe8)W@'
p32
tp33
Rp34
ag10
(g14
S'o\xb3k.E)W@'
p35
tp36
Rp37
ag10
(g14
S'2n\t\xed\x9c,W@'
p38
tp39
Rp40
ag10
(g14
S'N\xc2X\x83\x10+W@'
p41
tp42
Rp43
ag10
(g14
S'\x10\x02?\xc1,,W@'
p44
tp45
Rp46
ag10
(g14
S'\xf2v^\x93\x8d-W@'
p47
tp48
Rp49
ag10
(g14
S'\xd4\xcf\xed.\x84-W@'
p50
tp51
Rp52
ag10
(g14
S'@G\x82\xf3\xec*W@'
p53
tp54
Rp55
ag10
(g14
S'\x93]\xfc\x0c\x82)W@'
p56
tp57
Rp58
ag10
(g14
S'.V\x13\xb9\x8f*W@'
p59
tp60
Rp61
ag10
(g14
S"[\x8a\xa6\xb3\xc1'W@"
p62
tp63
Rp64
ag10
(g14
S'\x0c$\x15\x05=,W@'
p65
tp66
Rp67
ag10
(g14
S'g\xd9\xc64\x0c)W@'
p68
tp69
Rp70
ag10
(g14
S'\xcb\n\xe5E}+W@'
p71
tp72
Rp73
ag10
(g14
S'FO\xca\xa9\x99+W@'
p74
tp75
Rp76
asS'target'
p77
(lp78
g10
(g14
S'G\xf4\xe7Gw)+@'
p79
tp80
Rp81
ag10
(g14
S'Cc\r\xc9\x8c\xae)@'
p82
tp83
Rp84
ag10
(g14
S'\x98\xe0#\xb6RK+@'
p85
tp86
Rp87
ag10
(g14
S'\xdb.\xf0d\x8f\xd9*@'
p88
tp89
Rp90
ag10
(g14
S'O\x1c\xcf\x8e\x9b\xad+@'
p91
tp92
Rp93
ag10
(g14
S'\x9a3\x83\xc4;\x83*@'
p94
tp95
Rp96
ag10
(g14
S'\x0b\xb0\xd5\xfc\x03p*@'
p97
tp98
Rp99
ag10
(g14
S'\xa2\xec\xe3i\xabY+@'
p100
tp101
Rp102
ag10
(g14
S'\x93\x8d\x7f\xd9u\x03+@'
p103
tp104
Rp105
ag10
(g14
S"\x12'u\xd3\x01\xde*@"
p106
tp107
Rp108
ag10
(g14
S'\xc1\x01y\x1c%:*@'
p109
tp110
Rp111
ag10
(g14
S"\xbe'j\xc24\xd0)@"
p112
tp113
Rp114
ag10
(g14
S'\xad\x00\x81( 5,@'
p115
tp116
Rp117
ag10
(g14
S'\xc4\xe4%\x10\x1dK+@'
p118
tp119
Rp120
ag10
(g14
S'.\x9f\xe5$I#+@'
p121
tp122
Rp123
ag10
(g14
S'\xb1W\x06mD\xa7+@'
p124
tp125
Rp126
ag10
(g14
S'\xe3w\xf7\xa6\x95\xac+@'
p127
tp128
Rp129
ag10
(g14
S'\xc3|cE\xd9\xb1,@'
p130
tp131
Rp132
ag10
(g14
S'\x9d\xdc(\x8c\xd5)+@'
p133
tp134
Rp135
ag10
(g14
S'\x84\x87\xb2\xa1EM*@'
p136
tp137
Rp138
asssss.