(dp0
S'../Data/sqlite_67.csv'
p1
(dp2
S'../Data/sqlite_0.csv'
p3
(dp4
F0.2
(dp5
S'abs_res'
p6
(dp7
S'bellwether'
p8
(lp9
cnumpy.core.multiarray
scalar
p10
(cnumpy
dtype
p11
(S'f8'
p12
I0
I1
tp13
Rp14
(I3
S'<'
p15
NNNI-1
I-1
I0
tp16
bS"\r\x02+GO'!A"
p17
tp18
Rp19
ag10
(g14
S'\xceK7\xc9\xcc&!A'
p20
tp21
Rp22
ag10
(g14
S"\x97C\x8b\xac\x83'!A"
p23
tp24
Rp25
ag10
(g14
S"\xa0E\xb63\x98'!A"
p26
tp27
Rp28
ag10
(g14
S"\x82#\x94\xd1\xfb'!A"
p29
tp30
Rp31
ag10
(g14
S"Q\xffF\xe8#'!A"
p32
tp33
Rp34
ag10
(g14
S'6\x17\x92& (!A'
p35
tp36
Rp37
ag10
(g14
S'd\x10X\xf9\x04(!A'
p38
tp39
Rp40
ag10
(g14
S"c\xe5\xd0\xe2\x9a'!A"
p41
tp42
Rp43
ag10
(g14
S"c\x1f>\x837'!A"
p44
tp45
Rp46
ag10
(g14
S"C5^z\xc5'!A"
p47
tp48
Rp49
ag10
(g14
S"\x1f\xdb\xf9~\xc6'!A"
p50
tp51
Rp52
ag10
(g14
S"\xc9\xe8m\xd9\xbe'!A"
p53
tp54
Rp55
ag10
(g14
S"\xc7\xbd\xe6\xc2\x80'!A"
p56
tp57
Rp58
ag10
(g14
S"\xddz\x14\xeeu'!A"
p59
tp60
Rp61
ag10
(g14
S'\xb7:&\xf8\xcf&!A'
p62
tp63
Rp64
ag10
(g14
S"\x97Rq6\xb2'!A"
p65
tp66
Rp67
ag10
(g14
S'mJ\xc5\xd9,(!A'
p68
tp69
Rp70
ag10
(g14
S"5\x89A\xa0\xc7'!A"
p71
tp72
Rp73
ag10
(g14
S"\xef|?\xb5\x8e'!A"
p74
tp75
Rp76
asS'target'
p77
(lp78
g10
(g14
S'gffff\x96d@'
p79
tp80
Rp81
ag10
(g14
S'\xe4\xa5\x9b\xc4 \xf8f@'
p82
tp83
Rp84
ag10
(g14
S'Nb\x10X9\x08e@'
p85
tp86
Rp87
ag10
(g14
S'(\\\x8f\xc2\xf5\xaed@'
p88
tp89
Rp90
ag10
(g14
S'zh\x91\xed|Se@'
p91
tp92
Rp93
ag10
(g14
S'\xcb\xf5(\\\x8fNf@'
p94
tp95
Rp96
ag10
(g14
S'\xbeI\x0c\x02+5e@'
p97
tp98
Rp99
ag10
(g14
S'>\x89A`\xe5\xa4c@'
p100
tp101
Rp102
ag10
(g14
S'\xa2\xef\xa7\xc6K\xbdc@'
p103
tp104
Rp105
ag10
(g14
S'\x0e\x02+\x87\x16)f@'
p106
tp107
Rp108
ag10
(g14
S'\x12-\xb2\x9d\xef\xebc@'
p109
tp110
Rp111
ag10
(g14
S'\xb2\xf1\xd2Mb\xd0d@'
p112
tp113
Rp114
ag10
(g14
S'\xe5z\x14\xaeGig@'
p115
tp116
Rp117
ag10
(g14
S'\x03\xd5x\xe9&Mg@'
p118
tp119
Rp120
ag10
(g14
S'\r\xd7\xa3p=\xaed@'
p121
tp122
Rp123
ag10
(g14
S'~\xbe\x9f\x1a/Oe@'
p124
tp125
Rp126
ag10
(g14
S'\x06\xd5x\xe9&Ef@'
p127
tp128
Rp129
ag10
(g14
S'T\xe3\xa5\x9b\xc4tf@'
p130
tp131
Rp132
ag10
(g14
S'Q\x0e-\xb2\x9d\xe7f@'
p133
tp134
Rp135
ag10
(g14
S't=\n\xd7\xa3\x84e@'
p136
tp137
Rp138
asssss.