(dp0
S'../Data/sqlite_45.csv'
p1
(dp2
S'../Data/sqlite_96.csv'
p3
(dp4
F0.05
(dp5
S'mmre'
p6
(dp7
S'bellwether'
p8
(lp9
cnumpy.core.multiarray
scalar
p10
(cnumpy
dtype
p11
(S'f8'
p12
I0
I1
tp13
Rp14
(I3
S'<'
p15
NNNI-1
I-1
I0
tp16
bS'\xa3\xd06\x90\xd0CR@'
p17
tp18
Rp19
ag10
(g14
S'\x1d\x00L\x14\xc5FR@'
p20
tp21
Rp22
ag10
(g14
S'\xc2d\\\xba\xbaCR@'
p23
tp24
Rp25
ag10
(g14
S'd\xc0\x921&CR@'
p26
tp27
Rp28
ag10
(g14
S'j\x1c\xf5\xe5\x8c@R@'
p29
tp30
Rp31
ag10
(g14
S'E\xa5#N\xb2>R@'
p32
tp33
Rp34
ag10
(g14
S'\x84\xfb\x99\xf7\xa2@R@'
p35
tp36
Rp37
ag10
(g14
S'\xec?K\xb2\x1aDR@'
p38
tp39
Rp40
ag10
(g14
S'\xf0\x8b\xbc\xb2\x14CR@'
p41
tp42
Rp43
ag10
(g14
S'\x8a\x8e"\x0b\xde>R@'
p44
tp45
Rp46
ag10
(g14
S'\xd9\x91\xe8CLBR@'
p47
tp48
Rp49
ag10
(g14
S'n\xa3\x97\x95fER@'
p50
tp51
Rp52
ag10
(g14
S'>?\xfc(\x9dBR@'
p53
tp54
Rp55
ag10
(g14
S'\xa8\xfaW\xd4\x05AR@'
p56
tp57
Rp58
ag10
(g14
S'\r\xef\xf8c\xeeAR@'
p59
tp60
Rp61
ag10
(g14
S'J4\x142uFR@'
p62
tp63
Rp64
ag10
(g14
S'\x7f\xcfm\xff^AR@'
p65
tp66
Rp67
ag10
(g14
S'r\xad\xa8\x1cM@R@'
p68
tp69
Rp70
ag10
(g14
S'\x0c\xe3\xd5t\xd6;R@'
p71
tp72
Rp73
ag10
(g14
S'\x1e\x94\x07\xe6[BR@'
p74
tp75
Rp76
asS'target'
p77
(lp78
g10
(g14
S'#,\xff\xb0\xccgQ@'
p79
tp80
Rp81
ag10
(g14
S'u\x18\xbd%\xfeyb@'
p82
tp83
Rp84
ag10
(g14
S'\xad1\xfa\xa94V[@'
p85
tp86
Rp87
ag10
(g14
S'\xb3\x97\xf8cS\xb0@@'
p88
tp89
Rp90
ag10
(g14
S"\x9d\x8a\xf9\tb'V@"
p91
tp92
Rp93
ag10
(g14
S'\xc6Q#\\\xa8;D@'
p94
tp95
Rp96
ag10
(g14
S'h$\x8c\xfe`\xf9V@'
p97
tp98
Rp99
ag10
(g14
S'\x0faf,I [@'
p100
tp101
Rp102
ag10
(g14
S"!&'bR\xbbI@"
p103
tp104
Rp105
ag10
(g14
S'(\xf147\xb2\xfcV@'
p106
tp107
Rp108
ag10
(g14
S'\x0c\xa9\xf4\xe0\x17\xd1c@'
p109
tp110
Rp111
ag10
(g14
S':!6\xb5k\xabN@'
p112
tp113
Rp114
ag10
(g14
S'\xaf?\x94!\x1b\x06D@'
p115
tp116
Rp117
ag10
(g14
S"\xd1'\xbeS\xe9\x8fI@"
p118
tp119
Rp120
ag10
(g14
S'7\xfd(Q\x9b&F@'
p121
tp122
Rp123
ag10
(g14
S'\x9c\xdd!v0\x8dQ@'
p124
tp125
Rp126
ag10
(g14
S'y\xb47U\xa8\xf8X@'
p127
tp128
Rp129
ag10
(g14
S'Ev\xeb\xc1\x0fxP@'
p130
tp131
Rp132
ag10
(g14
S'\x99\xc4\xd7\xf6@\x8fY@'
p133
tp134
Rp135
ag10
(g14
S'\x90K\xe0l\x05\x8eY@'
p136
tp137
Rp138
asssss.