(dp0
S'../Data/sqlite_4.csv'
p1
(dp2
S'../Data/sqlite_64.csv'
p3
(dp4
F0.25
(dp5
S'abs_res'
p6
(dp7
S'bellwether'
p8
(lp9
cnumpy.core.multiarray
scalar
p10
(cnumpy
dtype
p11
(S'f8'
p12
I0
I1
tp13
Rp14
(I3
S'<'
p15
NNNI-1
I-1
I0
tp16
bS'\x0c\x02+\xc7\xad2=A'
p17
tp18
Rp19
ag10
(g14
S'\x1cg\x1f>u6=A'
p20
tp21
Rp22
ag10
(g14
S'\xff\xfd\xd4\xf8\xa85=A'
p23
tp24
Rp25
ag10
(g14
S'\x94\xed|\x7fW5=A'
p26
tp27
Rp28
ag10
(g14
S'\xb9+@\x8eb5=A'
p29
tp30
Rp31
ag10
(g14
S'\xc2\x83yb\xa64=A'
p32
tp33
Rp34
ag10
(g14
S'\xd8\x85\xa4i\xfe3=A'
p35
tp36
Rp37
ag10
(g14
S'm\xd8\x15\xe0v5=A'
p38
tp39
Rp40
ag10
(g14
S' \x85\xeb\xd1\xdd3=A'
p41
tp42
Rp43
ag10
(g14
S'\xe3&1(\xee4=A'
p44
tp45
Rp46
ag10
(g14
S'\xc3 \xb02\xe75=A'
p47
tp48
Rp49
ag10
(g14
S'|\xbe\x9fZ\x1c4=A'
p50
tp51
Rp52
ag10
(g14
S'B&x0G6=A'
p53
tp54
Rp55
ag10
(g14
S'`d;\x9f\xdf5=A'
p56
tp57
Rp58
ag10
(g14
S'\x1dK~\xd1\x856=A'
p59
tp60
Rp61
ag10
(g14
S'^\x80\xdckk6=A'
p62
tp63
Rp64
ag10
(g14
S'\xe0\xc1<1!3=A'
p65
tp66
Rp67
ag10
(g14
S'\xc2t\x93\xd8\xc02=A'
p68
tp69
Rp70
ag10
(g14
S'X\xffFh\x8e6=A'
p71
tp72
Rp73
ag10
(g14
S'y\xcd\x85\x04J3=A'
p74
tp75
Rp76
asS'target'
p77
(lp78
g10
(g14
S'\xa2\xef\xa7\xc6K\x1bv@'
p79
tp80
Rp81
ag10
(g14
S'Y\x8d\x97n\x12Uv@'
p82
tp83
Rp84
ag10
(g14
S'\x14\xac\x1cZd9u@'
p85
tp86
Rp87
ag10
(g14
S'\xb1\x1cZd;\x19t@'
p88
tp89
Rp90
ag10
(g14
S'\x1a/\xdd$\x06\x9fv@'
p91
tp92
Rp93
ag10
(g14
S'\xd1\xf7S\xe3\xa5\xfet@'
p94
tp95
Rp96
ag10
(g14
S'\xf9\xfd\xd4x\xe9\x08w@'
p97
tp98
Rp99
ag10
(g14
S'\xd5Mb\x10X1v@'
p100
tp101
Rp102
ag10
(g14
S'\x97\x1a/\xdd$\xd6v@'
p103
tp104
Rp105
ag10
(g14
S'\xc6 \xb0rh#u@'
p106
tp107
Rp108
ag10
(g14
S'Td;\xdfO\xc8y@'
p109
tp110
Rp111
ag10
(g14
S'7^\xbaI\x0c\xf0s@'
p112
tp113
Rp114
ag10
(g14
S'(\x06\x81\x95Cwt@'
p115
tp116
Rp117
ag10
(g14
S'(\x08\xac\x1cZ\x08t@'
p118
tp119
Rp120
ag10
(g14
S'`\x8f\xc2\xf5(@t@'
p121
tp122
Rp123
ag10
(g14
S'7\xdfO\x8d\x97fx@'
p124
tp125
Rp126
ag10
(g14
S'\xad\x9b\xc4 \xb0pu@'
p127
tp128
Rp129
ag10
(g14
S'\xfb\xa9\xf1\xd2M\xfew@'
p130
tp131
Rp132
ag10
(g14
S'\xc0\x9f\x1a/\xdd\x04w@'
p133
tp134
Rp135
ag10
(g14
S'\x1b\x85\xebQ\xb8\x82s@'
p136
tp137
Rp138
asssss.