(dp0
S'../Data/sqlite_23.csv'
p1
(dp2
S'../Data/sqlite_59.csv'
p3
(dp4
F0.2
(dp5
S'mmre'
p6
(dp7
S'bellwether'
p8
(lp9
cnumpy.core.multiarray
scalar
p10
(cnumpy
dtype
p11
(S'f8'
p12
I0
I1
tp13
Rp14
(I3
S'<'
p15
NNNI-1
I-1
I0
tp16
bS'H\xf3\x11%\x82,W@'
p17
tp18
Rp19
ag10
(g14
S'\xea\xb8`\xf8P-W@'
p20
tp21
Rp22
ag10
(g14
S's1\x0eR\xba,W@'
p23
tp24
Rp25
ag10
(g14
S'$\x8d\xe6\xac\x8f-W@'
p26
tp27
Rp28
ag10
(g14
S'\x1e4B\xb0?.W@'
p29
tp30
Rp31
ag10
(g14
S'|\xa9:R\x17,W@'
p32
tp33
Rp34
ag10
(g14
S'\xdeJ@P\xb3,W@'
p35
tp36
Rp37
ag10
(g14
S'\xbc\xd7\x04\xfc"+W@'
p38
tp39
Rp40
ag10
(g14
S'D \xbc\x06m-W@'
p41
tp42
Rp43
ag10
(g14
S'm\x12\xa2r\xf0,W@'
p44
tp45
Rp46
ag10
(g14
S'rkW\x80Y,W@'
p47
tp48
Rp49
ag10
(g14
S'\xbd`(\xe8%-W@'
p50
tp51
Rp52
ag10
(g14
S'\xef\xdd\\\x1d\x9a,W@'
p53
tp54
Rp55
ag10
(g14
S'-=3\n\x1c.W@'
p56
tp57
Rp58
ag10
(g14
S'V((\x91\xf0+W@'
p59
tp60
Rp61
ag10
(g14
S'\xa6\xa5=\x92y-W@'
p62
tp63
Rp64
ag10
(g14
S'>P\xfdb\xea.W@'
p65
tp66
Rp67
ag10
(g14
S'\xcdKx\xc9b-W@'
p68
tp69
Rp70
ag10
(g14
S'?:{I\x87+W@'
p71
tp72
Rp73
ag10
(g14
S'\xdef5\xcc\x8e,W@'
p74
tp75
Rp76
asS'target'
p77
(lp78
g10
(g14
S'\x9fNe\x82M\x03(@'
p79
tp80
Rp81
ag10
(g14
S'\xfe\x85s\xfc\xd1\xe9%@'
p82
tp83
Rp84
ag10
(g14
S'\xf8p\xc4\xed}\xa2%@'
p85
tp86
Rp87
ag10
(g14
S')\x1f\xa6%5\xd7%@'
p88
tp89
Rp90
ag10
(g14
S'\xb2\xaavm\xec\xa2&@'
p91
tp92
Rp93
ag10
(g14
S'\x00\x0b\xfa\x17\xf5\x9b$@'
p94
tp95
Rp96
ag10
(g14
S'\x87\xfc\x7fl^\xaa%@'
p97
tp98
Rp99
ag10
(g14
S'\xf0\x9c\xcb\xc4\x17o&@'
p100
tp101
Rp102
ag10
(g14
S'\x8cuJ\x18)\x8b%@'
p103
tp104
Rp105
ag10
(g14
S'\x96\x08\xad\xa8\xce[%@'
p106
tp107
Rp108
ag10
(g14
S'\x0e\x0e\xeb\x16<\xb9&@'
p109
tp110
Rp111
ag10
(g14
S'\x92\xce}\xa7;b&@'
p112
tp113
Rp114
ag10
(g14
S'V5s\xc3\xedM&@'
p115
tp116
Rp117
ag10
(g14
S'fu9\x01w\xa4%@'
p118
tp119
Rp120
ag10
(g14
S'\xd3\x18\xef\xdf$\xa6&@'
p121
tp122
Rp123
ag10
(g14
S'\r\xf5 \xae\x83\xb0%@'
p124
tp125
Rp126
ag10
(g14
S'\x98\xce\xf4\xfd\x88\x9f#@'
p127
tp128
Rp129
ag10
(g14
S'j\xcd\xb8T\xd2\xdd%@'
p130
tp131
Rp132
ag10
(g14
S"\xb1\x1a\x12\x96/\x15'@"
p133
tp134
Rp135
ag10
(g14
S'\xf5y\xd2\x9cA\xba%@'
p136
tp137
Rp138
asssss.