(dp0
S'../Data/sqlite_4.csv'
p1
(dp2
S'../Data/sqlite_8.csv'
p3
(dp4
F0.35
(dp5
S'abs_res'
p6
(dp7
S'bellwether'
p8
(lp9
cnumpy.core.multiarray
scalar
p10
(cnumpy
dtype
p11
(S'f8'
p12
I0
I1
tp13
Rp14
(I3
S'<'
p15
NNNI-1
I-1
I0
tp16
bS'\x9b\xe0\xc1\xfc\x1b\\9A'
p17
tp18
Rp19
ag10
(g14
S'{\xbe\x9fZ\x14Z9A'
p20
tp21
Rp22
ag10
(g14
S'9\x15g?\x84\\9A'
p23
tp24
Rp25
ag10
(g14
S'\xbd\xd7\\\xa8\x82]9A'
p26
tp27
Rp28
ag10
(g14
S'\xa6E\xb6s\x92]9A'
p29
tp30
Rp31
ag10
(g14
S'8kuL\xb5Z9A'
p32
tp33
Rp34
ag10
(g14
S'\x8a\xb3\x0f\xbfi[9A'
p35
tp36
Rp37
ag10
(g14
S'\xd5\x94\x8a\x13\xf6[9A'
p38
tp39
Rp40
ag10
(g14
S'W\xd4\xbfq\xa6]9A'
p41
tp42
Rp43
ag10
(g14
S'\x822z\xdb^\\9A'
p44
tp45
Rp46
ag10
(g14
S'$\x94\xd1{\x8e\\9A'
p47
tp48
Rp49
ag10
(g14
S'\xd4>|\xc61\\9A'
p50
tp51
Rp52
ag10
(g14
S'2O\xd4\x1f\xa5\\9A'
p53
tp54
Rp55
ag10
(g14
S'^\xabc\xc2\xf3\\9A'
p56
tp57
Rp58
ag10
(g14
S'm\x03\x9d\xd6\xaf\\9A'
p59
tp60
Rp61
ag10
(g14
S'\xa7aW\xa0\xaa\\9A'
p62
tp63
Rp64
ag10
(g14
S'\xb0\xe4\x17\xeb\x94[9A'
p65
tp66
Rp67
ag10
(g14
S'\x11\x83\xc0*\xe6Z9A'
p68
tp69
Rp70
ag10
(g14
S'I\x9aR\x11\xec]9A'
p71
tp72
Rp73
ag10
(g14
S'B\xdfO\xad;\\9A'
p74
tp75
Rp76
asS'target'
p77
(lp78
g10
(g14
S'I\x0c\x02+\x87\x96U@'
p79
tp80
Rp81
ag10
(g14
S'9^\xbaI\x0c\xbaT@'
p82
tp83
Rp84
ag10
(g14
S'\xb6rh\x91\xed@T@'
p85
tp86
Rp87
ag10
(g14
S'03333\xbbU@'
p88
tp89
Rp90
ag10
(g14
S'C`\xe5\xd0"\xc7U@'
p91
tp92
Rp93
ag10
(g14
S'P\x8d\x97n\x12_T@'
p94
tp95
Rp96
ag10
(g14
S'C5^\xbaI\x00T@'
p97
tp98
Rp99
ag10
(g14
S'R\xb8\x1e\x85\xeb\xa9S@'
p100
tp101
Rp102
ag10
(g14
S'Q\xb8\x1e\x85\xeb\xe1U@'
p103
tp104
Rp105
ag10
(g14
S'~j\xbct\x93\x88S@'
p106
tp107
Rp108
ag10
(g14
S'\xaf\xf1\xd2Mb4W@'
p109
tp110
Rp111
ag10
(g14
S'\xaf\xf1\xd2Mb8T@'
p112
tp113
Rp114
ag10
(g14
S'I\xb8\x1e\x85\xeb\xa9V@'
p115
tp116
Rp117
ag10
(g14
S'\x1c/\xdd$\x06mS@'
p118
tp119
Rp120
ag10
(g14
S'\xbc\xf5(\\\x8f:V@'
p121
tp122
Rp123
ag10
(g14
S'~j\xbct\x93(S@'
p124
tp125
Rp126
ag10
(g14
S'\xcd\xf5(\\\x8f\xd6R@'
p127
tp128
Rp129
ag10
(g14
S'\x9c\x1a/\xdd$\x1eV@'
p130
tp131
Rp132
ag10
(g14
S'\x86\x16\xd9\xce\xf7\xbbT@'
p133
tp134
Rp135
ag10
(g14
S'+\\\x8f\xc2\xf5\xc4T@'
p136
tp137
Rp138
asssss.