(dp0
S'../Data/sqlite_37.csv'
p1
(dp2
S'../Data/sqlite_73.csv'
p3
(dp4
F0.4
(dp5
S'mmre'
p6
(dp7
S'bellwether'
p8
(lp9
cnumpy.core.multiarray
scalar
p10
(cnumpy
dtype
p11
(S'f8'
p12
I0
I1
tp13
Rp14
(I3
S'<'
p15
NNNI-1
I-1
I0
tp16
bS'\xc5\x13\xd3\x05\x07XW@'
p17
tp18
Rp19
ag10
(g14
S'\x02\x86\xe1 \xafYW@'
p20
tp21
Rp22
ag10
(g14
S'Z\xd9Q6\x08XW@'
p23
tp24
Rp25
ag10
(g14
S'fc\xe2\x06&[W@'
p26
tp27
Rp28
ag10
(g14
S'\xc8\xc7\xcad\xa9WW@'
p29
tp30
Rp31
ag10
(g14
S'\x10\xc7p\xd0\xc2[W@'
p32
tp33
Rp34
ag10
(g14
S'U\xfdd\xb5ZYW@'
p35
tp36
Rp37
ag10
(g14
S'L\xe1g\x10\xedYW@'
p38
tp39
Rp40
ag10
(g14
S'PQS\xcd\x01\\W@'
p41
tp42
Rp43
ag10
(g14
S'N\x8bF=\x06[W@'
p44
tp45
Rp46
ag10
(g14
S'\xb5\xa2\xec\xa7\nZW@'
p47
tp48
Rp49
ag10
(g14
S'\xf4\xa6\xfa~vZW@'
p50
tp51
Rp52
ag10
(g14
S"\xdd\xe4J'7ZW@"
p53
tp54
Rp55
ag10
(g14
S'\xa4\x92D\xfc?[W@'
p56
tp57
Rp58
ag10
(g14
S'\xdc\x9a\xf6\xfbiYW@'
p59
tp60
Rp61
ag10
(g14
S'x\x0fP\xce>[W@'
p62
tp63
Rp64
ag10
(g14
S'u\xaf\xd1K\x94ZW@'
p65
tp66
Rp67
ag10
(g14
S'\xe2\x0e@\x89CZW@'
p68
tp69
Rp70
ag10
(g14
S'\xf0W\x8b\xdf\x0fYW@'
p71
tp72
Rp73
ag10
(g14
S'\x8b"\ty\x99YW@'
p74
tp75
Rp76
asS'target'
p77
(lp78
g10
(g14
S'\x1b\xf50)QI,@'
p79
tp80
Rp81
ag10
(g14
S'\xadck\xd8:Q+@'
p82
tp83
Rp84
ag10
(g14
S'!\xde\xfb\xebM9-@'
p85
tp86
Rp87
ag10
(g14
S'\x83\x15\xfd\xb1\x10\xba+@'
p88
tp89
Rp90
ag10
(g14
S'#\xddKk\xf8\xb8+@'
p91
tp92
Rp93
ag10
(g14
S'\xdd\xe3\xac\x87\tz,@'
p94
tp95
Rp96
ag10
(g14
S'\x9e\xac\xfe\x9c\xb2A*@'
p97
tp98
Rp99
ag10
(g14
S'\xfe\xe9EM\x0c\x9c,@'
p100
tp101
Rp102
ag10
(g14
S'\xf4\xac]\x85\xbb\xdf*@'
p103
tp104
Rp105
ag10
(g14
S'\xearI4\xae;,@'
p106
tp107
Rp108
ag10
(g14
S'\xc7\x9eJ8\xc7H+@'
p109
tp110
Rp111
ag10
(g14
S'\xdb\xaa\xb0\xab)3,@'
p112
tp113
Rp114
ag10
(g14
S'\x9f6\x9dpz\xc7*@'
p115
tp116
Rp117
ag10
(g14
S'9C\xac\xd8(\xde)@'
p118
tp119
Rp120
ag10
(g14
S')\x95\x9co\x83u-@'
p121
tp122
Rp123
ag10
(g14
S'"\xa3\x9c\xf3D\xae,@'
p124
tp125
Rp126
ag10
(g14
S'\xc0\xbf\xb5\x14\xb7\x8c+@'
p127
tp128
Rp129
ag10
(g14
S'@\xd9\x97-:\xc8+@'
p130
tp131
Rp132
ag10
(g14
S'\x85\xfbs7\xbb\xa5(@'
p133
tp134
Rp135
ag10
(g14
S'C~\xb7\xdb\xb23,@'
p136
tp137
Rp138
asssss.