(dp0
S'../Data/sqlite_31.csv'
p1
(dp2
S'../Data/sqlite_95.csv'
p3
(dp4
F0.4
(dp5
S'rank'
p6
(dp7
S'bellwether'
p8
(lp9
I139
aI258
aI137
aI258
aI295
aI144
aI126
aI135
aI142
aI290
aI137
aI141
aI133
aI131
aI500
aI125
aI286
aI470
aI306
aI136
asS'target'
p10
(lp11
I563
aI228
aI276
aI72
aI331
aI245
aI582
aI37
aI0
aI336
aI273
aI43
aI9
aI47
aI0
aI214
aI104
aI327
aI18
aI70
asssss.