(dp0
S'../Data/sqlite_57.csv'
p1
(dp2
S'../Data/sqlite_7.csv'
p3
(dp4
F0.3
(dp5
S'abs_res'
p6
(dp7
S'bellwether'
p8
(lp9
cnumpy.core.multiarray
scalar
p10
(cnumpy
dtype
p11
(S'f8'
p12
I0
I1
tp13
Rp14
(I3
S'<'
p15
NNNI-1
I-1
I0
tp16
bS'\x8e\x97n\xda~YdA'
p17
tp18
Rp19
ag10
(g14
S'"\x85\xebe\x9f_dA'
p20
tp21
Rp22
ag10
(g14
S'\xbe\xca\xa19\xbb^dA'
p23
tp24
Rp25
ag10
(g14
S'\xb6\xc8v\x1a_`dA'
p26
tp27
Rp28
ag10
(g14
S'r\x93\x18\x94HUdA'
p29
tp30
Rp31
ag10
(g14
S'\tX9H&YdA'
p32
tp33
Rp34
ag10
(g14
S'\xff*\x87jN]dA'
p35
tp36
Rp37
ag10
(g14
S'\x8a\xc2\xf5\x14PfdA'
p38
tp39
Rp40
ag10
(g14
S'\xf7(\\\x7f\xd2ddA'
p41
tp42
Rp43
ag10
(g14
S'\xf3\xfd\xd44\xdcYdA'
p44
tp45
Rp46
ag10
(g14
S'D5^\x16sUdA'
p47
tp48
Rp49
ag10
(g14
S'\xb2rh\xf5o^dA'
p50
tp51
Rp52
ag10
(g14
S'\xf1|?U\x8eTdA'
p53
tp54
Rp55
ag10
(g14
S'[\x8f\xc2\x01\xf0XdA'
p56
tp57
Rp58
ag10
(g14
S'\x8f\x18\x042Q^dA'
p59
tp60
Rp61
ag10
(g14
S'\x9e\xef\xa7^\x00ZdA'
p62
tp63
Rp64
ag10
(g14
S'\x96n\x12\xc7w_dA'
p65
tp66
Rp67
ag10
(g14
S'\x88A`\xcdpbdA'
p68
tp69
Rp70
ag10
(g14
S' \xb0r\x90\xa2`dA'
p71
tp72
Rp73
ag10
(g14
S'e\xe7\xfb1L`dA'
p74
tp75
Rp76
asS'target'
p77
(lp78
g10
(g14
S'\xf6\xd2Mb\x10\x14h@'
p79
tp80
Rp81
ag10
(g14
S'\xf6Q\xb8\x1e\x85Sg@'
p82
tp83
Rp84
ag10
(g14
S'>\xb4\xc8v\xbe\xe3f@'
p85
tp86
Rp87
ag10
(g14
S'\xaf\xf1\xd2Mb\ni@'
p88
tp89
Rp90
ag10
(g14
S'\xb9rh\x91\xedFg@'
p91
tp92
Rp93
ag10
(g14
S'\x1b\xaeG\xe1zvf@'
p94
tp95
Rp96
ag10
(g14
S'3\x08\xac\x1cZ\xcef@'
p97
tp98
Rp99
ag10
(g14
S'\x96\x18\x04V\x0e\xdbf@'
p100
tp101
Rp102
ag10
(g14
S'\x89A`\xe5\xd0\x04e@'
p103
tp104
Rp105
ag10
(g14
S'\xe8&1\x08\xac\xd4g@'
p106
tp107
Rp108
ag10
(g14
S'affff\xa6f@'
p109
tp110
Rp111
ag10
(g14
S'\x1b\xaeG\xe1zPg@'
p112
tp113
Rp114
ag10
(g14
S'J\xe1z\x14\xae\xcff@'
p115
tp116
Rp117
ag10
(g14
S'\xb4I\x0c\x02++i@'
p118
tp119
Rp120
ag10
(g14
S'\x1dZd;\xdf\xcfg@'
p121
tp122
Rp123
ag10
(g14
S'\x06\x81\x95C\x8b\xfah@'
p124
tp125
Rp126
ag10
(g14
S'\xe7\xd0"\xdb\xf9\x8eg@'
p127
tp128
Rp129
ag10
(g14
S'33333\x1dh@'
p130
tp131
Rp132
ag10
(g14
S'\xdf\xa5\x9b\xc4 \x14g@'
p133
tp134
Rp135
ag10
(g14
S'"\x04V\x0e-^g@'
p136
tp137
Rp138
asssss.