(dp0
S'../Data/sqlite_86.csv'
p1
(dp2
S'../Data/sqlite_77.csv'
p3
(dp4
F0.1
(dp5
S'mmre'
p6
(dp7
S'bellwether'
p8
(lp9
cnumpy.core.multiarray
scalar
p10
(cnumpy
dtype
p11
(S'f8'
p12
I0
I1
tp13
Rp14
(I3
S'<'
p15
NNNI-1
I-1
I0
tp16
bS'09u\xed\x92:U@'
p17
tp18
Rp19
ag10
(g14
S'E\xdf\x92l%;U@'
p20
tp21
Rp22
ag10
(g14
S'\x94\x90\xbe\xba+FU@'
p23
tp24
Rp25
ag10
(g14
S'\xcd\xdf\x91\xa4\x98;U@'
p26
tp27
Rp28
ag10
(g14
S'k\x1eK_\xd34U@'
p29
tp30
Rp31
ag10
(g14
S'\x12o\x92\xf4\xafDU@'
p32
tp33
Rp34
ag10
(g14
S'\x87\x13?n\x1b:U@'
p35
tp36
Rp37
ag10
(g14
S'\xb1\xcc\xde\xd9\xb3DU@'
p38
tp39
Rp40
ag10
(g14
S'\x1e\x84\x87>\x8f=U@'
p41
tp42
Rp43
ag10
(g14
S'\xd9\xde0B\xea@U@'
p44
tp45
Rp46
ag10
(g14
S'\xf2x3:\x99IU@'
p47
tp48
Rp49
ag10
(g14
S'\xcb\xb9\xccYlOU@'
p50
tp51
Rp52
ag10
(g14
S'!3\x1a\xd7Z7U@'
p53
tp54
Rp55
ag10
(g14
S' \x15\xfck\x166U@'
p56
tp57
Rp58
ag10
(g14
S'\x02\xd3}\x1a\x18;U@'
p59
tp60
Rp61
ag10
(g14
S'\x95c\xc5\xf9*>U@'
p62
tp63
Rp64
ag10
(g14
S'\x05=X\x91\x19<U@'
p65
tp66
Rp67
ag10
(g14
S'%\xfd}\xd9s<U@'
p68
tp69
Rp70
ag10
(g14
S'T\xbf>\x0b\x84AU@'
p71
tp72
Rp73
ag10
(g14
S'#\xc4\x02\x98\xc7JU@'
p74
tp75
Rp76
asS'target'
p77
(lp78
g10
(g14
S'G\x0bz\x9f{\xe05@'
p79
tp80
Rp81
ag10
(g14
S'x=\xbc\x19\xb4T7@'
p82
tp83
Rp84
ag10
(g14
S'\xfa\xf3\x98\x06\x16\x036@'
p85
tp86
Rp87
ag10
(g14
S'\xab\x19\x1ek]07@'
p88
tp89
Rp90
ag10
(g14
S'\x9c\xb3`G\xae\x8b5@'
p91
tp92
Rp93
ag10
(g14
S'C\xdc\x7f\xaa\x85 3@'
p94
tp95
Rp96
ag10
(g14
S'5\xc03k\x11[5@'
p97
tp98
Rp99
ag10
(g14
S'\x84\xafi}<q7@'
p100
tp101
Rp102
ag10
(g14
S'\xde\x15\xb6t\xb6\xe76@'
p103
tp104
Rp105
ag10
(g14
S'Fyyp\xed\xfe4@'
p106
tp107
Rp108
ag10
(g14
S'+!\xfec\xa3\xf54@'
p109
tp110
Rp111
ag10
(g14
S'\xa1j\xa1P\xdb\xa66@'
p112
tp113
Rp114
ag10
(g14
S'B\xf8\xa4\x00\t\xca5@'
p115
tp116
Rp117
ag10
(g14
S'\xe3>U\xd0\x1e\xa83@'
p118
tp119
Rp120
ag10
(g14
S'\xe2\x9a\x93\xb8\xa7\x944@'
p121
tp122
Rp123
ag10
(g14
S'\x9e59>$\xc96@'
p124
tp125
Rp126
ag10
(g14
S'I\xb2\\\x94\x96S8@'
p127
tp128
Rp129
ag10
(g14
S'\xb20H.;\x9e7@'
p130
tp131
Rp132
ag10
(g14
S'\x1d\x1f\x0b\xd0+\x1a5@'
p133
tp134
Rp135
ag10
(g14
S'w\xa3W\xa4L[8@'
p136
tp137
Rp138
asssss.