(dp0
S'../Data/sqlite_9.csv'
p1
(dp2
S'../Data/sqlite_59.csv'
p3
(dp4
F0.25
(dp5
S'mmre'
p6
(dp7
S'bellwether'
p8
(lp9
cnumpy.core.multiarray
scalar
p10
(cnumpy
dtype
p11
(S'f8'
p12
I0
I1
tp13
Rp14
(I3
S'<'
p15
NNNI-1
I-1
I0
tp16
bS';`\xa2bP-W@'
p17
tp18
Rp19
ag10
(g14
S'\xa2\xd1\xa0\x9e\xfa-W@'
p20
tp21
Rp22
ag10
(g14
S'\xc0\x12\n?\xf1,W@'
p23
tp24
Rp25
ag10
(g14
S'\x985\xf0B\xd3-W@'
p26
tp27
Rp28
ag10
(g14
S'U]\x8cs\xf9,W@'
p29
tp30
Rp31
ag10
(g14
S'\rS\x9c\xf8\x92-W@'
p32
tp33
Rp34
ag10
(g14
S'\x14\x8a\xa7\xf7\x04,W@'
p35
tp36
Rp37
ag10
(g14
S'\xf8\xb1R/\xf0-W@'
p38
tp39
Rp40
ag10
(g14
S'\xbf\xe3\x7fr1.W@'
p41
tp42
Rp43
ag10
(g14
S'\xfex\xe6\x96\x10-W@'
p44
tp45
Rp46
ag10
(g14
S'5\xd9zC\x81+W@'
p47
tp48
Rp49
ag10
(g14
S'\xe1\x8a\xaf\x93j.W@'
p50
tp51
Rp52
ag10
(g14
S'gd\xf2\x06\x89,W@'
p53
tp54
Rp55
ag10
(g14
S'T\xd4\xccB\xb7-W@'
p56
tp57
Rp58
ag10
(g14
S'\xf8\xf7\xec\x7f|-W@'
p59
tp60
Rp61
ag10
(g14
S'\xba\x8f}q#-W@'
p62
tp63
Rp64
ag10
(g14
S'\xeaPZ\xab\xf4+W@'
p65
tp66
Rp67
ag10
(g14
S'b\xe8I:R-W@'
p68
tp69
Rp70
ag10
(g14
S'\xafF\xa8\xd8\x9a.W@'
p71
tp72
Rp73
ag10
(g14
S'\x93\xecA&\xc7.W@'
p74
tp75
Rp76
asS'target'
p77
(lp78
g10
(g14
S'!8p\xee\xa6\xef%@'
p79
tp80
Rp81
ag10
(g14
S'NO4\x82\xf1z&@'
p82
tp83
Rp84
ag10
(g14
S'\x8d9\x9f\xf3\x04a&@'
p85
tp86
Rp87
ag10
(g14
S'B\t\x97\xcep:%@'
p88
tp89
Rp90
ag10
(g14
S'$\xa6\xff\xe4\x84R&@'
p91
tp92
Rp93
ag10
(g14
S'\x91\xfcH(}?&@'
p94
tp95
Rp96
ag10
(g14
S"\xb1\xce\xe2\xa7\xf9t'@"
p97
tp98
Rp99
ag10
(g14
S'\xf1J\xb2-\x8e\xb1%@'
p100
tp101
Rp102
ag10
(g14
S'`\xca,\x95N\x99$@'
p103
tp104
Rp105
ag10
(g14
S"Z\xca\xca,\xf0X'@"
p106
tp107
Rp108
ag10
(g14
S'4P\x07\xcf\xc0\xeb&@'
p109
tp110
Rp111
ag10
(g14
S"\xa6\xc3j\xc8\xe4'$@"
p112
tp113
Rp114
ag10
(g14
S'\x82\xb2rt\x97"(@'
p115
tp116
Rp117
ag10
(g14
S"\xc2\x00\x8d\x97\x1f\xa0'@"
p118
tp119
Rp120
ag10
(g14
S'\xc0\xf6u\x0b,\xf8$@'
p121
tp122
Rp123
ag10
(g14
S'1]v\x1f\xe8k(@'
p124
tp125
Rp126
ag10
(g14
S"\xcf\x04\xdc\xfd\xd4\xed'@"
p127
tp128
Rp129
ag10
(g14
S'\xbf\x0e\xca>\x84X$@'
p130
tp131
Rp132
ag10
(g14
S'\x86\xcd\x18\xe4\xa0@&@'
p133
tp134
Rp135
ag10
(g14
S'm\xf2".Q@%@'
p136
tp137
Rp138
asssss.