(dp0
S'../Data/sqlite_68.csv'
p1
(dp2
S'../Data/sqlite_90.csv'
p3
(dp4
F0.15
(dp5
S'mmre'
p6
(dp7
S'bellwether'
p8
(lp9
cnumpy.core.multiarray
scalar
p10
(cnumpy
dtype
p11
(S'f8'
p12
I0
I1
tp13
Rp14
(I3
S'<'
p15
NNNI-1
I-1
I0
tp16
bS'Wz\xef\xb6i\x00C@'
p17
tp18
Rp19
ag10
(g14
S'u\xa6\xd0\xd2\xb2UC@'
p20
tp21
Rp22
ag10
(g14
S'q\x84ld\xd98C@'
p23
tp24
Rp25
ag10
(g14
S'\xcd\x94\x84\xf8\xe0\xc7B@'
p26
tp27
Rp28
ag10
(g14
S'\xa6\x87\xd5\xfb\x0eTC@'
p29
tp30
Rp31
ag10
(g14
S'\xc2\x0eplS\xc6B@'
p32
tp33
Rp34
ag10
(g14
S'\xd1\x19\xf4\xdf\x7f5C@'
p35
tp36
Rp37
ag10
(g14
S'{@\x9b\xd0;\x85B@'
p38
tp39
Rp40
ag10
(g14
S'\x8bO\x12\xce$/C@'
p41
tp42
Rp43
ag10
(g14
S'\xa9$B\r\xc5\xc3B@'
p44
tp45
Rp46
ag10
(g14
S'\x0fd}?\xcf\x11C@'
p47
tp48
Rp49
ag10
(g14
S'\xf8\xaf\x1eua\x14C@'
p50
tp51
Rp52
ag10
(g14
S'a[.:\xe9\x14C@'
p53
tp54
Rp55
ag10
(g14
S'\x80*\xadkCwC@'
p56
tp57
Rp58
ag10
(g14
S'\xb7\x95\xa2\xd7N\xebB@'
p59
tp60
Rp61
ag10
(g14
S'876RV\xd6B@'
p62
tp63
Rp64
ag10
(g14
S'\xa5\xf7\xbc\x83\xdfjC@'
p65
tp66
Rp67
ag10
(g14
S'\t;t\xaf+sC@'
p68
tp69
Rp70
ag10
(g14
S'\xd4\xec\x8b{G\xe2B@'
p71
tp72
Rp73
ag10
(g14
S'3\xad\xc1q\xb5XC@'
p74
tp75
Rp76
asS'target'
p77
(lp78
g10
(g14
S'\xee\xe9)\xef\xb2I?@'
p79
tp80
Rp81
ag10
(g14
S'W`C\x8a\xba\x9c@@'
p82
tp83
Rp84
ag10
(g14
S'K\x85\xa6G[\xb8A@'
p85
tp86
Rp87
ag10
(g14
S'\xf2\xb6\xb7\x906\xc7@@'
p88
tp89
Rp90
ag10
(g14
S'\xd7\xf2\xeb\rx\xdd@@'
p91
tp92
Rp93
ag10
(g14
S'Y*\x86\x81yAA@'
p94
tp95
Rp96
ag10
(g14
S"k\x1fV\x1c|'A@"
p97
tp98
Rp99
ag10
(g14
S'\xb6\xaeo\xf9H\tC@'
p100
tp101
Rp102
ag10
(g14
S'\x00\x8a7H\x92zC@'
p103
tp104
Rp105
ag10
(g14
S'FJ\xf5< hA@'
p106
tp107
Rp108
ag10
(g14
S'\xe9>\xb1\xab\\\xd6@@'
p109
tp110
Rp111
ag10
(g14
S'9\x08\x07\xd2\x8a\xa5A@'
p112
tp113
Rp114
ag10
(g14
S'${\xe3\x81AB@@'
p115
tp116
Rp117
ag10
(g14
S'\xc0\x01$\x92\xb2\xf5@@'
p118
tp119
Rp120
ag10
(g14
S'1\x8eWy.A@@'
p121
tp122
Rp123
ag10
(g14
S'\x1d\x96y\x8e(\xe1A@'
p124
tp125
Rp126
ag10
(g14
S'Z`%\xbc[]B@'
p127
tp128
Rp129
ag10
(g14
S'\xabi\xe3\xbcj\x16A@'
p130
tp131
Rp132
ag10
(g14
S'\xe2\x0b\xe3\x17\x9b\xc9A@'
p133
tp134
Rp135
ag10
(g14
S'F\xa6\xd7\x83\xcbsB@'
p136
tp137
Rp138
asssss.