(dp0
S'../Data/sqlite_11.csv'
p1
(dp2
S'../Data/sqlite_88.csv'
p3
(dp4
F0.1
(dp5
S'abs_res'
p6
(dp7
S'bellwether'
p8
(lp9
cnumpy.core.multiarray
scalar
p10
(cnumpy
dtype
p11
(S'f8'
p12
I0
I1
tp13
Rp14
(I3
S'<'
p15
NNNI-1
I-1
I0
tp16
bS'.33\xd7\xc2McA'
p17
tp18
Rp19
ag10
(g14
S'`ff\xd6\x91PcA'
p20
tp21
Rp22
ag10
(g14
S']\x8f\xc2\x89\xa9BcA'
p23
tp24
Rp25
ag10
(g14
S'333\xdb\xd6EcA'
p26
tp27
Rp28
ag10
(g14
S'iff\xeeq9cA'
p29
tp30
Rp31
ag10
(g14
S'\xfd\x9c68\x94.cA'
p32
tp33
Rp34
ag10
(g14
S'dff:\xc4GcA'
p35
tp36
Rp37
ag10
(g14
S'd\x03\x9d\xee\x90IcA'
p38
tp39
Rp40
ag10
(g14
S'F\xe1z\xd8\x8cEcA'
p41
tp42
Rp43
ag10
(g14
S'b\xc9/\nbKcA'
p44
tp45
Rp46
ag10
(g14
S'j=\n\x9b\xd4=cA'
p47
tp48
Rp49
ag10
(g14
S'u\x14\xae\xd3XBcA'
p50
tp51
Rp52
ag10
(g14
S'\xdb\xa3p-s;cA'
p53
tp54
Rp55
ag10
(g14
S'^\x8f\xc2!0FcA'
p56
tp57
Rp58
ag10
(g14
S'3\n\xd7/\xc1CcA'
p59
tp60
Rp61
ag10
(g14
S'O\xb8\x1e\xc5\x9aIcA'
p62
tp63
Rp64
ag10
(g14
S'\xa6p=\x8a\x9bGcA'
p65
tp66
Rp67
ag10
(g14
S'\xf6(\\\xa7\xddFcA'
p68
tp69
Rp70
ag10
(g14
S'\x03\x00\x00\xcc\x08McA'
p71
tp72
Rp73
ag10
(g14
S'X,\xf9\x99\xc9BcA'
p74
tp75
Rp76
asS'target'
p77
(lp78
g10
(g14
S'k=\n\x970I8A'
p79
tp80
Rp81
ag10
(g14
S'~\xebQ\xf8\xbc\xc7:A'
p82
tp83
Rp84
ag10
(g14
S'\xc4\xf5(\x1czK3A'
p85
tp86
Rp87
ag10
(g14
S'\xdc\xa3p\x1d\x8fB@A'
p88
tp89
Rp90
ag10
(g14
S'\xf7(\\OOq0A'
p91
tp92
Rp93
ag10
(g14
S'\xecQ\xb8^\x90Z2A'
p94
tp95
Rp96
ag10
(g14
S'\xaeG\xe1\xba\xd4\xa24A'
p97
tp98
Rp99
ag10
(g14
S'\xadG\xe1\xba3\xbe4A'
p100
tp101
Rp102
ag10
(g14
S'z\x14\xaeG\xf7$+A'
p103
tp104
Rp105
ag10
(g14
S'\xb3G\xe1\xbaq,;A'
p106
tp107
Rp108
ag10
(g14
S'\x13\xaeG\xe1\xae0,A'
p109
tp110
Rp111
ag10
(g14
S'\xe2z\x14\xeeH"2A'
p112
tp113
Rp114
ag10
(g14
S'K\xe1z\xd4\xb3h7A'
p115
tp116
Rp117
ag10
(g14
S'\xfa(\\O\xcb\x146A'
p118
tp119
Rp120
ag10
(g14
S'Z\x8f\xc2\xf5l\x1e-A'
p121
tp122
Rp123
ag10
(g14
S'\xc0\xf5(\x9cV\xf66A'
p124
tp125
Rp126
ag10
(g14
S'\xe5Q\xb8\x9ec\xca;A'
p127
tp128
Rp129
ag10
(g14
S'hfff\xc9R3A'
p130
tp131
Rp132
ag10
(g14
S'L\xb8\x1e\xc5`\x91=A'
p133
tp134
Rp135
ag10
(g14
S'\xb4G\xe1\xba\xa9\xb14A'
p136
tp137
Rp138
asssss.