(dp0
S'../Data/sqlite_72.csv'
p1
(dp2
S'../Data/sqlite_76.csv'
p3
(dp4
F0.15
(dp5
S'mmre'
p6
(dp7
S'bellwether'
p8
(lp9
cnumpy.core.multiarray
scalar
p10
(cnumpy
dtype
p11
(S'f8'
p12
I0
I1
tp13
Rp14
(I3
S'<'
p15
NNNI-1
I-1
I0
tp16
bS':\x83\xd3\xc1[WW@'
p17
tp18
Rp19
ag10
(g14
S'\x8e\x04\xe8\xae\xb5VW@'
p20
tp21
Rp22
ag10
(g14
S'`\x91\x96 XWW@'
p23
tp24
Rp25
ag10
(g14
S'\xd9\x98\x86\x84QWW@'
p26
tp27
Rp28
ag10
(g14
S'\xa5+\x85FiWW@'
p29
tp30
Rp31
ag10
(g14
S'oY\xd8\xb1{VW@'
p32
tp33
Rp34
ag10
(g14
S'\xac\xc6\t\xe0\xadVW@'
p35
tp36
Rp37
ag10
(g14
S'\xfbA\xee\x86\xa6WW@'
p38
tp39
Rp40
ag10
(g14
S'\r\xe0\x8b\xefSVW@'
p41
tp42
Rp43
ag10
(g14
S'H\xbe\x17O\x9cWW@'
p44
tp45
Rp46
ag10
(g14
S'F\x9e\x1f\x10\xecXW@'
p47
tp48
Rp49
ag10
(g14
S'\x1a\xf8n\xb2%VW@'
p50
tp51
Rp52
ag10
(g14
S'E.\x81L\x93VW@'
p53
tp54
Rp55
ag10
(g14
S'\xad\x14\x84?\xe3WW@'
p56
tp57
Rp58
ag10
(g14
S'\\\xbf}\xcf\x95VW@'
p59
tp60
Rp61
ag10
(g14
S'\xfd\x15gQqWW@'
p62
tp63
Rp64
ag10
(g14
S'e\x8a]=\xe0WW@'
p65
tp66
Rp67
ag10
(g14
S'\x8f<\x01j\x98UW@'
p68
tp69
Rp70
ag10
(g14
S',\xa5\xba\x03\xeeXW@'
p71
tp72
Rp73
ag10
(g14
S'\xed\x7f}{\xa2VW@'
p74
tp75
Rp76
asS'target'
p77
(lp78
g10
(g14
S'\xbd\xffK7y50@'
p79
tp80
Rp81
ag10
(g14
S'q\x8a\x0e\xdaa\xe60@'
p82
tp83
Rp84
ag10
(g14
S'[T\xcb\x94q\xe60@'
p85
tp86
Rp87
ag10
(g14
S'\x18\xcb\xb7\x1c\xd3\x861@'
p88
tp89
Rp90
ag10
(g14
S'\xc1$\x96h\x16\x921@'
p91
tp92
Rp93
ag10
(g14
S'\xfe0\x96J\xe1O1@'
p94
tp95
Rp96
ag10
(g14
S'z\x99]\xb3\xf4d2@'
p97
tp98
Rp99
ag10
(g14
S'{\xe3\x8d\xf0\\\x822@'
p100
tp101
Rp102
ag10
(g14
S'\x8c0sp\xaeo1@'
p103
tp104
Rp105
ag10
(g14
S'sW\xcb\x8e3l1@'
p106
tp107
Rp108
ag10
(g14
S'\xc0\xe2`}\x91T1@'
p109
tp110
Rp111
ag10
(g14
S'\xc4\xd8\x19l>~1@'
p112
tp113
Rp114
ag10
(g14
S'\xe8%[\x8bX\x9e1@'
p115
tp116
Rp117
ag10
(g14
S'I\xedh\t0c1@'
p118
tp119
Rp120
ag10
(g14
S'\x1eJy\xfa\xb0+1@'
p121
tp122
Rp123
ag10
(g14
S'@s\xeb\xec\x11(0@'
p124
tp125
Rp126
ag10
(g14
S'P`E\x8b\xdc\xd00@'
p127
tp128
Rp129
ag10
(g14
S'\xfe\xf4\xfe\xef\x05\x8e1@'
p130
tp131
Rp132
ag10
(g14
S' \xf8\xd5\xd4\xb6h0@'
p133
tp134
Rp135
ag10
(g14
S'\xcd\xe94]\x07\x911@'
p136
tp137
Rp138
asssss.