(dp0
S'../Data/sqlite_37.csv'
p1
(dp2
S'../Data/sqlite_73.csv'
p3
(dp4
F0.05
(dp5
S'mmre'
p6
(dp7
S'bellwether'
p8
(lp9
cnumpy.core.multiarray
scalar
p10
(cnumpy
dtype
p11
(S'f8'
p12
I0
I1
tp13
Rp14
(I3
S'<'
p15
NNNI-1
I-1
I0
tp16
bS'\xb1\xa1)\xbb\xe2ZW@'
p17
tp18
Rp19
ag10
(g14
S'\xf9=?\x80\xa5ZW@'
p20
tp21
Rp22
ag10
(g14
S'E\x13&\xcb)[W@'
p23
tp24
Rp25
ag10
(g14
S'!\xef<\xa93ZW@'
p26
tp27
Rp28
ag10
(g14
S'\x1a\xd4*\x90NYW@'
p29
tp30
Rp31
ag10
(g14
S'/\xda\xa8\xe8=ZW@'
p32
tp33
Rp34
ag10
(g14
S'F\x82\x8b\x8f\x1bZW@'
p35
tp36
Rp37
ag10
(g14
S'\xd6\x9b\xb3q!ZW@'
p38
tp39
Rp40
ag10
(g14
S'Q%\xfd\xc5wYW@'
p41
tp42
Rp43
ag10
(g14
S'd\x92\xe3\xe9\x1fZW@'
p44
tp45
Rp46
ag10
(g14
S'\x00\x9f\x8ca|ZW@'
p47
tp48
Rp49
ag10
(g14
S'l\xbcI\x1cIZW@'
p50
tp51
Rp52
ag10
(g14
S'\xc2!G\r\xa8YW@'
p53
tp54
Rp55
ag10
(g14
S'\xc5~\x02eGZW@'
p56
tp57
Rp58
ag10
(g14
S'\xcb#)_:ZW@'
p59
tp60
Rp61
ag10
(g14
S'\xcf\xcf\x89*wZW@'
p62
tp63
Rp64
ag10
(g14
S'/(\xbbf\xa3ZW@'
p65
tp66
Rp67
ag10
(g14
S'\xd4\xe7Z\xcehZW@'
p68
tp69
Rp70
ag10
(g14
S'\xb2\xe3%\xd8dZW@'
p71
tp72
Rp73
ag10
(g14
S'$(\xf0\\CZW@'
p74
tp75
Rp76
asS'target'
p77
(lp78
g10
(g14
S'\xaf\x9cG\xfa\xf1\x0e/@'
p79
tp80
Rp81
ag10
(g14
S'\xee\xf1>U\x81.*@'
p82
tp83
Rp84
ag10
(g14
S'\x0b7\x87\xfew\xaa/@'
p85
tp86
Rp87
ag10
(g14
S'\xbc\xd6\xd1>E\xf6+@'
p88
tp89
Rp90
ag10
(g14
S'\xca=\xa8\x92\xc64.@'
p91
tp92
Rp93
ag10
(g14
S'\xf4\x07uo\xaf\xcd0@'
p94
tp95
Rp96
ag10
(g14
S'S\xb7\x9e\xdd\xcf\xa5.@'
p97
tp98
Rp99
ag10
(g14
S'\r3B\xa2T\x11-@'
p100
tp101
Rp102
ag10
(g14
S'\x04\xe5\x18\xc6\x1a\x88.@'
p103
tp104
Rp105
ag10
(g14
S'l\xc2\x9c:z\xe0)@'
p106
tp107
Rp108
ag10
(g14
S'\xaf\xfc\x8a\xd1\x13\xee)@'
p109
tp110
Rp111
ag10
(g14
S'\xb1\xf2\x95\x8c\x06\x9e-@'
p112
tp113
Rp114
ag10
(g14
S'!2IBeV0@'
p115
tp116
Rp117
ag10
(g14
S'M\xb8&\xf8K\xfa)@'
p118
tp119
Rp120
ag10
(g14
S'\x1c\x15W\r\xeb\x03.@'
p121
tp122
Rp123
ag10
(g14
S'\xe2\xf0\xe5J\xd9Q,@'
p124
tp125
Rp126
ag10
(g14
S'\x1cM\x9f\xeb\x91&(@'
p127
tp128
Rp129
ag10
(g14
S"99R\x08\xec\xb3'@"
p130
tp131
Rp132
ag10
(g14
S'\x92v\xbc\x0et\x16,@'
p133
tp134
Rp135
ag10
(g14
S'\x8a\x93\xa10l-/@'
p136
tp137
Rp138
asssss.