(dp0
S'../Data/sqlite_14.csv'
p1
(dp2
S'../Data/sqlite_97.csv'
p3
(dp4
F0.3
(dp5
S'mmre'
p6
(dp7
S'bellwether'
p8
(lp9
cnumpy.core.multiarray
scalar
p10
(cnumpy
dtype
p11
(S'f8'
p12
I0
I1
tp13
Rp14
(I3
S'<'
p15
NNNI-1
I-1
I0
tp16
bS'\xde\xd1\x85\x9a96U@'
p17
tp18
Rp19
ag10
(g14
S'*\xf8\xbb\x1e\x192U@'
p20
tp21
Rp22
ag10
(g14
S'\xc9\x0f\xde\xb5P.U@'
p23
tp24
Rp25
ag10
(g14
S'F#\xbb\x9b\x1a9U@'
p26
tp27
Rp28
ag10
(g14
S'tq\xd0\xf8\xa2-U@'
p29
tp30
Rp31
ag10
(g14
S'Y\xf6^\xf9}/U@'
p32
tp33
Rp34
ag10
(g14
S'P\x9dZ\x8b\xfa0U@'
p35
tp36
Rp37
ag10
(g14
S'\x02}\xba\xea\xea7U@'
p38
tp39
Rp40
ag10
(g14
S"qM\xf4\xc7'/U@"
p41
tp42
Rp43
ag10
(g14
S'\x9b\xae\xce\x95F:U@'
p44
tp45
Rp46
ag10
(g14
S'0T\x90\xa2%3U@'
p47
tp48
Rp49
ag10
(g14
S'\xce\xaf\x95\xfc\x949U@'
p50
tp51
Rp52
ag10
(g14
S'\xaa\t\xe9\x8670U@'
p53
tp54
Rp55
ag10
(g14
S'\x93\xd1\xabs\x140U@'
p56
tp57
Rp58
ag10
(g14
S'|jX\x8b<-U@'
p59
tp60
Rp61
ag10
(g14
S'\x97`S\xd1\xbc,U@'
p62
tp63
Rp64
ag10
(g14
S'>\xba\xa4\x7f\xc5%U@'
p65
tp66
Rp67
ag10
(g14
S'd#\xf7f\x861U@'
p68
tp69
Rp70
ag10
(g14
S'\x0ee\xe8\x80=2U@'
p71
tp72
Rp73
ag10
(g14
S'{\xd9\x00Y\x995U@'
p74
tp75
Rp76
asS'target'
p77
(lp78
g10
(g14
S'\xdd\\1\x03\xfc\x94Y@'
p79
tp80
Rp81
ag10
(g14
S'\xc4"\xd0O\xdf\x04I@'
p82
tp83
Rp84
ag10
(g14
S'\\>.\xb9\x14\xd0U@'
p85
tp86
Rp87
ag10
(g14
S'?*\x05\xb9 \xc6T@'
p88
tp89
Rp90
ag10
(g14
S'L\xa30F\xf8aW@'
p91
tp92
Rp93
ag10
(g14
S'\t\xbb7h\xa3\x8aW@'
p94
tp95
Rp96
ag10
(g14
S'fX\x9aQ\x8caW@'
p97
tp98
Rp99
ag10
(g14
S'#\x00\xa9\x0e2\xfeK@'
p100
tp101
Rp102
ag10
(g14
S'\xb6\x05yI\xb6$V@'
p103
tp104
Rp105
ag10
(g14
S'Qf.\x0b\xa2\x1dR@'
p106
tp107
Rp108
ag10
(g14
S'\x8bK\xda\xe16\tY@'
p109
tp110
Rp111
ag10
(g14
S'p\xbe\x1eB\xa0\xf7V@'
p112
tp113
Rp114
ag10
(g14
S'C\x8f\xe5\xf8\xcb?S@'
p115
tp116
Rp117
ag10
(g14
S'\xb0\xf6\xcd\x90\xa4\xcdX@'
p118
tp119
Rp120
ag10
(g14
S'\x9b\x89\xef\xace$X@'
p121
tp122
Rp123
ag10
(g14
S'\x93\xe28\x87_\xdfX@'
p124
tp125
Rp126
ag10
(g14
S'0\xdfT>\x8f\xd1S@'
p127
tp128
Rp129
ag10
(g14
S'\xf9\xb2BT\\\rX@'
p130
tp131
Rp132
ag10
(g14
S'\x9b\xc0\xe7#\xa0HT@'
p133
tp134
Rp135
ag10
(g14
S'\xc0\xc8\x94\xf6\xd0mN@'
p136
tp137
Rp138
asssss.