(dp0
S'../Data/sqlite_84.csv'
p1
(dp2
S'../Data/sqlite_97.csv'
p3
(dp4
F0.25
(dp5
S'mmre'
p6
(dp7
S'bellwether'
p8
(lp9
cnumpy.core.multiarray
scalar
p10
(cnumpy
dtype
p11
(S'f8'
p12
I0
I1
tp13
Rp14
(I3
S'<'
p15
NNNI-1
I-1
I0
tp16
bS'\xa8Z0\x9f\xe8pT@'
p17
tp18
Rp19
ag10
(g14
S'\\*ar\x18}T@'
p20
tp21
Rp22
ag10
(g14
S'\xdc\x94\xfdY\xa0\x84T@'
p23
tp24
Rp25
ag10
(g14
S'F\xf9*\xd5\x17zT@'
p26
tp27
Rp28
ag10
(g14
S'b\xe83\xe8\xc1}T@'
p29
tp30
Rp31
ag10
(g14
S'\x1a\x95\xa9\x8dVwT@'
p32
tp33
Rp34
ag10
(g14
S'\x93x\xa7\xc3\xd3tT@'
p35
tp36
Rp37
ag10
(g14
S'?_[nLxT@'
p38
tp39
Rp40
ag10
(g14
S'\xd9q\xde8\xd9xT@'
p41
tp42
Rp43
ag10
(g14
S'\xd6\x18\x7fd.yT@'
p44
tp45
Rp46
ag10
(g14
S'@\x8b\xe8xHwT@'
p47
tp48
Rp49
ag10
(g14
S'\xdf\x1c\x115\xd7}T@'
p50
tp51
Rp52
ag10
(g14
S'v\x83\xad\xaf\xf1}T@'
p53
tp54
Rp55
ag10
(g14
S'\xedC!-\xb9|T@'
p56
tp57
Rp58
ag10
(g14
S'\tH\xc4\x8e\xfcuT@'
p59
tp60
Rp61
ag10
(g14
S'\xb8\xdaJ\xaa\xd6zT@'
p62
tp63
Rp64
ag10
(g14
S'\x02\x1d\xf0\xcfHuT@'
p65
tp66
Rp67
ag10
(g14
S'\xa6\xa5\x97\xbc#wT@'
p68
tp69
Rp70
ag10
(g14
S'\x8a>\xfc\xe3\x88\x82T@'
p71
tp72
Rp73
ag10
(g14
S'\xa3,\xaeC\x06sT@'
p74
tp75
Rp76
asS'target'
p77
(lp78
g10
(g14
S'-\x96\x90\xb610^@'
p79
tp80
Rp81
ag10
(g14
S'N\x11\xde\x8c\xa0\x15X@'
p82
tp83
Rp84
ag10
(g14
S'\x14\xf8\xaa\x87\xd0QU@'
p85
tp86
Rp87
ag10
(g14
S'\xc5\x7f\xbfchkV@'
p88
tp89
Rp90
ag10
(g14
S'\xf1\xda2\x94nrT@'
p91
tp92
Rp93
ag10
(g14
S'D\xde\x16\x8d\xd5\xe4G@'
p94
tp95
Rp96
ag10
(g14
S"q\x0e\x883/'S@"
p97
tp98
Rp99
ag10
(g14
S'\xd2b\x9bD\x89FV@'
p100
tp101
Rp102
ag10
(g14
S'\xaf=16\xba\xd0F@'
p103
tp104
Rp105
ag10
(g14
S'|\x83p\xff*oN@'
p106
tp107
Rp108
ag10
(g14
S'\x16{\xe3\\\xf1>S@'
p109
tp110
Rp111
ag10
(g14
S'\x1b5\x97\xeb\xebgU@'
p112
tp113
Rp114
ag10
(g14
S'jk\xe3\xd7(\x9aM@'
p115
tp116
Rp117
ag10
(g14
S'7\x0b.\x00\xba\xeaN@'
p118
tp119
Rp120
ag10
(g14
S'\r\xfb\xd7x\xb9pX@'
p121
tp122
Rp123
ag10
(g14
S'\x97-)\xf5\x97}V@'
p124
tp125
Rp126
ag10
(g14
S'\x97\xd4\xdeo:\x88V@'
p127
tp128
Rp129
ag10
(g14
S'\xcb\xb2\xaf\xbb-cT@'
p130
tp131
Rp132
ag10
(g14
S'p\xda\xd8D\x90\x99V@'
p133
tp134
Rp135
ag10
(g14
S'D\xbc MtV_@'
p136
tp137
Rp138
asssss.