(dp0
S'../Data/sqlite_46.csv'
p1
(dp2
S'../Data/sqlite_36.csv'
p3
(dp4
F0.4
(dp5
S'abs_res'
p6
(dp7
S'bellwether'
p8
(lp9
cnumpy.core.multiarray
scalar
p10
(cnumpy
dtype
p11
(S'f8'
p12
I0
I1
tp13
Rp14
(I3
S'<'
p15
NNNI-1
I-1
I0
tp16
bS'\xae\x9d\xef\xe74=7A'
p17
tp18
Rp19
ag10
(g14
S'41\x08lg:7A'
p20
tp21
Rp22
ag10
(g14
S'\x1e\x85\xeb\x91\x02;7A'
p23
tp24
Rp25
ag10
(g14
S'\xebQ\xb8~\xce;7A'
p26
tp27
Rp28
ag10
(g14
S'!/\xdd\xe4\x86=7A'
p29
tp30
Rp31
ag10
(g14
S'\x11\xaeG\xa1\xe9<7A'
p32
tp33
Rp34
ag10
(g14
S'\xd6\xa3p\xbdS<7A'
p35
tp36
Rp37
ag10
(g14
S'\xa0E\xb6\x13\x84<7A'
p38
tp39
Rp40
ag10
(g14
S'\x1eZd\x9b\x8c;7A'
p41
tp42
Rp43
ag10
(g14
S'ph\x91\r.;7A'
p44
tp45
Rp46
ag10
(g14
S'\xa9p=\xea\xab<7A'
p47
tp48
Rp49
ag10
(g14
S'M7\x89\xe19=7A'
p50
tp51
Rp52
ag10
(g14
S'\xffU\x0e-p=7A'
p53
tp54
Rp55
ag10
(g14
S'\x9dn\x12\x83b=7A'
p56
tp57
Rp58
ag10
(g14
S'V\x8d\x97\xee\x03>7A'
p59
tp60
Rp61
ag10
(g14
S'\xa1p=J\xa9<7A'
p62
tp63
Rp64
ag10
(g14
S'\xc8\xa1E\xd6\xfc<7A'
p65
tp66
Rp67
ag10
(g14
S'\xd7\xa3p]J;7A'
p68
tp69
Rp70
ag10
(g14
S'\xac\x1cZ\xe4\x81=7A'
p71
tp72
Rp73
ag10
(g14
S'\x95n\x12\xe3o>7A'
p74
tp75
Rp76
asS'target'
p77
(lp78
g10
(g14
S'\xcb\xf7S\xe3\xa5\xd7P@'
p79
tp80
Rp81
ag10
(g14
S'\x0f\xd7\xa3p=\xd6P@'
p82
tp83
Rp84
ag10
(g14
S'\x1a\x04V\x0e-fR@'
p85
tp86
Rp87
ag10
(g14
S'\xbe\x9f\x1a/\xdd\xacQ@'
p88
tp89
Rp90
ag10
(g14
S'\xfa\xa9\xf1\xd2M\xcaP@'
p91
tp92
Rp93
ag10
(g14
S'O\xd4\xbf\x11\xca\xe8Q@'
p94
tp95
Rp96
ag10
(g14
S'\t\x81\x95C\x8blQ@'
p97
tp98
Rp99
ag10
(g14
S'\xb7\x1e\x85\xebQlQ@'
p100
tp101
Rp102
ag10
(g14
S'zwwww\xafQ@'
p103
tp104
Rp105
ag10
(g14
S'\xfdS\xe3\xa5\x9b\x18Q@'
p106
tp107
Rp108
ag10
(g14
S'\x9d\x99\x99\x99\x99\x9dQ@'
p109
tp110
Rp111
ag10
(g14
S'\t\x81\x95C\x8b4S@'
p112
tp113
Rp114
ag10
(g14
S'\x19Zd;\xdf\xafQ@'
p115
tp116
Rp117
ag10
(g14
S'H`\xe5\xd0"\x83P@'
p118
tp119
Rp120
ag10
(g14
S'\x8bA`\xe5\xd0\xbaQ@'
p121
tp122
Rp123
ag10
(g14
S'{\x86]\x01r\x87R@'
p124
tp125
Rp126
ag10
(g14
S'\r\xac\x1cZd\x97Q@'
p127
tp128
Rp129
ag10
(g14
S'j\xbct\x93\x18\x0cQ@'
p130
tp131
Rp132
ag10
(g14
S'\xb4I\x0c\x02+\xe7O@'
p133
tp134
Rp135
ag10
(g14
S'23333GQ@'
p136
tp137
Rp138
asssss.