(dp0
S'../Data/sqlite_91.csv'
p1
(dp2
S'../Data/sqlite_7.csv'
p3
(dp4
F0.1
(dp5
S'abs_res'
p6
(dp7
S'bellwether'
p8
(lp9
cnumpy.core.multiarray
scalar
p10
(cnumpy
dtype
p11
(S'f8'
p12
I0
I1
tp13
Rp14
(I3
S'<'
p15
NNNI-1
I-1
I0
tp16
bS'/\\\x8f\x82\x03R&A'
p17
tp18
Rp19
ag10
(g14
S'\x1a\xb0r(\x07Z&A'
p20
tp21
Rp22
ag10
(g14
S'\xff\xff\xff?\xdaT&A'
p23
tp24
Rp25
ag10
(g14
S'\xa3\xc6K7!n&A'
p26
tp27
Rp28
ag10
(g14
S'th\x91-\x18V&A'
p29
tp30
Rp31
ag10
(g14
S'\x8cl\xe7\xfb\x8b_&A'
p32
tp33
Rp34
ag10
(g14
S'\x85A`%\x00a&A'
p35
tp36
Rp37
ag10
(g14
S'\x1eZd;qe&A'
p38
tp39
Rp40
ag10
(g14
S'\xe6|?\xb5\x04e&A'
p41
tp42
Rp43
ag10
(g14
S'\xf6\xb6\xac\x15\xa3l&A'
p44
tp45
Rp46
ag10
(g14
S'\x9bRqv5`&A'
p47
tp48
Rp49
ag10
(g14
S'\xc2K7\xc9+f&A'
p50
tp51
Rp52
ag10
(g14
S'_\xbaI\x0c\x1cN&A'
p53
tp54
Rp55
ag10
(g14
S'G`\xe5\x90\xfe_&A'
p56
tp57
Rp58
ag10
(g14
S'\x1e>\xc3.-s&A'
p59
tp60
Rp61
ag10
(g14
S'J\x0c\x02\xeb\xd5U&A'
p62
tp63
Rp64
ag10
(g14
S'F\xc5\xd9\x07\x9eQ&A'
p65
tp66
Rp67
ag10
(g14
S'"Zd\xfb\'a&A'
p68
tp69
Rp70
ag10
(g14
S'\xa0p=\x8a=g&A'
p71
tp72
Rp73
ag10
(g14
S'\x95\x18\x04\x96\xdbP&A'
p74
tp75
Rp76
asS'target'
p77
(lp78
g10
(g14
S'\xf5\xab\x1cZd#k@'
p79
tp80
Rp81
ag10
(g14
S'O7\x89A`\xabq@'
p82
tp83
Rp84
ag10
(g14
S'\x16-\xb2\x9d\xef\xcfm@'
p85
tp86
Rp87
ag10
(g14
S'\x05+\x87\x16\xd9\x96p@'
p88
tp89
Rp90
ag10
(g14
S'\xdb\xf9~j\xbc\x9ep@'
p91
tp92
Rp93
ag10
(g14
S'\xacG\xe1z\x14^k@'
p94
tp95
Rp96
ag10
(g14
S'H`\xe5\xd0"\xbbm@'
p97
tp98
Rp99
ag10
(g14
S';\xb4\xc8v\xbecn@'
p100
tp101
Rp102
ag10
(g14
S'g\x91\xed|?\x11k@'
p103
tp104
Rp105
ag10
(g14
S'\xcc\xcc\xcc\xcc\xcc\x1ep@'
p106
tp107
Rp108
ag10
(g14
S'\xefQ\xb8\x1e\x85\xd5q@'
p109
tp110
Rp111
ag10
(g14
S'\x7f?5^\xba\xc1p@'
p112
tp113
Rp114
ag10
(g14
S'\x03\xac\x1cZdqp@'
p115
tp116
Rp117
ag10
(g14
S'\n\x02+\x87\x16\xf9j@'
p118
tp119
Rp120
ag10
(g14
S'\xf9~j\xbct\x8bm@'
p121
tp122
Rp123
ag10
(g14
S'\xd2"\xdb\xf9~zm@'
p124
tp125
Rp126
ag10
(g14
S'i\x14\xaeG\xe1\x9el@'
p127
tp128
Rp129
ag10
(g14
S'v\x8f\xc2\xf5(pn@'
p130
tp131
Rp132
ag10
(g14
S'\xbf\x9f\x1a/\xdd\xb6o@'
p133
tp134
Rp135
ag10
(g14
S'\x85?5^\xba\xd1n@'
p136
tp137
Rp138
asssss.