(dp0
S'../Data/sqlite_18.csv'
p1
(dp2
S'../Data/sqlite_30.csv'
p3
(dp4
F0.1
(dp5
S'abs_res'
p6
(dp7
S'bellwether'
p8
(lp9
cnumpy.core.multiarray
scalar
p10
(cnumpy
dtype
p11
(S'f8'
p12
I0
I1
tp13
Rp14
(I3
S'<'
p15
NNNI-1
I-1
I0
tp16
bS'\x95n\x12\x83t}AA'
p17
tp18
Rp19
ag10
(g14
S'&\x87\x16\xe9$}AA'
p20
tp21
Rp22
ag10
(g14
S'\xa0\xc4 \xe0\xea}AA'
p23
tp24
Rp25
ag10
(g14
S'\xffU\x0em\xf2|AA'
p26
tp27
Rp28
ag10
(g14
S'\x04V\x0e\xed\x8a}AA'
p29
tp30
Rp31
ag10
(g14
S'\x8f\xed|\x1f\x17}AA'
p32
tp33
Rp34
ag10
(g14
S'U\xe3\xa5\xfb\x0f}AA'
p35
tp36
Rp37
ag10
(g14
S'\xc3<Q\x1f\xcf|AA'
p38
tp39
Rp40
ag10
(g14
S'\xed&1\xf8\x19}AA'
p41
tp42
Rp43
ag10
(g14
S'a\x10XI\x9c}AA'
p44
tp45
Rp46
ag10
(g14
S'?5^\xba\xab}AA'
p47
tp48
Rp49
ag10
(g14
S'luL\xc0 }AA'
p50
tp51
Rp52
ag10
(g14
S'\x8fA`E\x04}AA'
p53
tp54
Rp55
ag10
(g14
S'c\xc9/6f|AA'
p56
tp57
Rp58
ag10
(g14
S'\xc9 \xb0r\x07}AA'
p59
tp60
Rp61
ag10
(g14
S'\x99\xc4 p\xdd|AA'
p62
tp63
Rp64
ag10
(g14
S'N\xb8\x1eEz}AA'
p65
tp66
Rp67
ag10
(g14
S'\xa9\x1cZ\x84\xbd|AA'
p68
tp69
Rp70
ag10
(g14
S'(1\x08\x9c-}AA'
p71
tp72
Rp73
ag10
(g14
S"A\x8bl'\x17}AA"
p74
tp75
Rp76
asS'target'
p77
(lp78
g10
(g14
S'E`\xe5\xd0"\x8bA@'
p79
tp80
Rp81
ag10
(g14
S'\x84\xe9&1\x08<C@'
p82
tp83
Rp84
ag10
(g14
S'[\x8f\xc2\xf5(\xac@@'
p85
tp86
Rp87
ag10
(g14
S'V7\x89A`\rP@'
p88
tp89
Rp90
ag10
(g14
S'F\xdfO\x8d\x97nC@'
p91
tp92
Rp93
ag10
(g14
S'\xee&1\x08\xac\x9cC@'
p94
tp95
Rp96
ag10
(g14
S'x\x93\x18\x04V\xdeH@'
p97
tp98
Rp99
ag10
(g14
S'{\x14\xaeG\xe1\xfaB@'
p100
tp101
Rp102
ag10
(g14
S'\xf4\xa7\xc6K7\xc9G@'
p103
tp104
Rp105
ag10
(g14
S'\x9d\xef\xa7\xc6KWH@'
p106
tp107
Rp108
ag10
(g14
S'\x9b\x99\x99\x99\x99\x99@@'
p109
tp110
Rp111
ag10
(g14
S'\x17\xac\x1cZd\x9b?@'
p112
tp113
Rp114
ag10
(g14
S'-/\xdd$\x06\xb1F@'
p115
tp116
Rp117
ag10
(g14
S'\xee\xd2Mb\x10(M@'
p118
tp119
Rp120
ag10
(g14
S'=\x89A`\xe5\xc0D@'
p121
tp122
Rp123
ag10
(g14
S'3\x87\x16\xd9\xceOE@'
p124
tp125
Rp126
ag10
(g14
S'a\xe5\xd0"\xdb\x99F@'
p127
tp128
Rp129
ag10
(g14
S'\xbet\x93\x18\x04\x96B@'
p130
tp131
Rp132
ag10
(g14
S'\xa6G\xe1z\x14\xbeH@'
p133
tp134
Rp135
ag10
(g14
S'\x12\x81\x95C\x8b<N@'
p136
tp137
Rp138
asssss.