(dp0
S'../Data/sqlite_65.csv'
p1
(dp2
S'../Data/sqlite_89.csv'
p3
(dp4
F0.1
(dp5
S'mmre'
p6
(dp7
S'bellwether'
p8
(lp9
cnumpy.core.multiarray
scalar
p10
(cnumpy
dtype
p11
(S'f8'
p12
I0
I1
tp13
Rp14
(I3
S'<'
p15
NNNI-1
I-1
I0
tp16
bS'[\xe3\xd4,\xb9/U@'
p17
tp18
Rp19
ag10
(g14
S'\x04d\x98\x89\xfc0U@'
p20
tp21
Rp22
ag10
(g14
S'\x98;\x11\xd4\r5U@'
p23
tp24
Rp25
ag10
(g14
S'\xfe\rKX\x992U@'
p26
tp27
Rp28
ag10
(g14
S'}\xb1%\x05B3U@'
p29
tp30
Rp31
ag10
(g14
S'\xee@\xb9h\xe0,U@'
p32
tp33
Rp34
ag10
(g14
S'\xf9\x81\xfb\x13f.U@'
p35
tp36
Rp37
ag10
(g14
S'\x875k 2+U@'
p38
tp39
Rp40
ag10
(g14
S'\xfb(rW\x99/U@'
p41
tp42
Rp43
ag10
(g14
S'\xd4wN\x19e1U@'
p44
tp45
Rp46
ag10
(g14
S'H\xef\xbf>\xe9,U@'
p47
tp48
Rp49
ag10
(g14
S'\xf8\xab\xd1\x94:5U@'
p50
tp51
Rp52
ag10
(g14
S'?A5)\x11-U@'
p53
tp54
Rp55
ag10
(g14
S'\xb5qg\xcb\x8e0U@'
p56
tp57
Rp58
ag10
(g14
S'<eGM\xf0/U@'
p59
tp60
Rp61
ag10
(g14
S'\xa4\xed>\x98r5U@'
p62
tp63
Rp64
ag10
(g14
S'\xf8\x0f\xca_\xf37U@'
p65
tp66
Rp67
ag10
(g14
S'1\x9a\x9f\x99W2U@'
p68
tp69
Rp70
ag10
(g14
S'u\xca5\xd7\\-U@'
p71
tp72
Rp73
ag10
(g14
S'w\xbbQ\x10%7U@'
p74
tp75
Rp76
asS'target'
p77
(lp78
g10
(g14
S'K\xbc+\xcb\xf2\xe0I@'
p79
tp80
Rp81
ag10
(g14
S'p&\x18\xacx\x10N@'
p82
tp83
Rp84
ag10
(g14
S'Q\xb9\xe64\xd0\xf4N@'
p85
tp86
Rp87
ag10
(g14
S'8\xa4\xa0b(\xacL@'
p88
tp89
Rp90
ag10
(g14
S'D\x00\x1e\xb8\x1b`O@'
p91
tp92
Rp93
ag10
(g14
S'\x82\x06do{"T@'
p94
tp95
Rp96
ag10
(g14
S'\xce)a\xaa\x15\x8c\\@'
p97
tp98
Rp99
ag10
(g14
S'V\xc9\xc2\xcb\xa4BV@'
p100
tp101
Rp102
ag10
(g14
S'6\xfbmH\xf0?P@'
p103
tp104
Rp105
ag10
(g14
S'\xc2\xe9\xa2\xe7j\x82S@'
p106
tp107
Rp108
ag10
(g14
S'\xb0\x8d\xd5\x12\xc8\x97P@'
p109
tp110
Rp111
ag10
(g14
S'\xd8\xf4\x19\xf3\xb5$V@'
p112
tp113
Rp114
ag10
(g14
S'e\xcdkes\xbcS@'
p115
tp116
Rp117
ag10
(g14
S'\x17\x10[/\x84\xdeO@'
p118
tp119
Rp120
ag10
(g14
S'\x8e?\xdd\x8f\xac\xc2M@'
p121
tp122
Rp123
ag10
(g14
S'?,\\\xe7\xf1\xf2S@'
p124
tp125
Rp126
ag10
(g14
S'=\x1a\xac\xd8\x99~H@'
p127
tp128
Rp129
ag10
(g14
S':"W\x1f\x1d?Q@'
p130
tp131
Rp132
ag10
(g14
S'\x10\x8b\x0f\x13|\xb3T@'
p133
tp134
Rp135
ag10
(g14
S'\xfc\xe3\x85;?\xceN@'
p136
tp137
Rp138
asssss.