(dp0
S'../Data/sqlite_93.csv'
p1
(dp2
S'../Data/sqlite_92.csv'
p3
(dp4
F0.15
(dp5
S'mmre'
p6
(dp7
S'bellwether'
p8
(lp9
cnumpy.core.multiarray
scalar
p10
(cnumpy
dtype
p11
(S'f8'
p12
I0
I1
tp13
Rp14
(I3
S'<'
p15
NNNI-1
I-1
I0
tp16
bS'\xbe\x0e\xde \xf3UO@'
p17
tp18
Rp19
ag10
(g14
S'\xc1\x808J\x1fRO@'
p20
tp21
Rp22
ag10
(g14
S'\xad\xae\xf3/\xfdTO@'
p23
tp24
Rp25
ag10
(g14
S'5\x10\xd3J\xd0HO@'
p26
tp27
Rp28
ag10
(g14
S"\x0c\xb0*5'PO@"
p29
tp30
Rp31
ag10
(g14
S'bb\x10\x0bfRO@'
p32
tp33
Rp34
ag10
(g14
S'+bur.FO@'
p35
tp36
Rp37
ag10
(g14
S'\x0e\x12\xe5\r\xe3UO@'
p38
tp39
Rp40
ag10
(g14
S'\x12h\xa6!CNO@'
p41
tp42
Rp43
ag10
(g14
S'\x12\xe4\x93\x1fAQO@'
p44
tp45
Rp46
ag10
(g14
S'\x8f\x19;U@MO@'
p47
tp48
Rp49
ag10
(g14
S'\x12\xef9\xe9\x1aKO@'
p50
tp51
Rp52
ag10
(g14
S'v\xb3\x93e(PO@'
p53
tp54
Rp55
ag10
(g14
S'u/\xf4\x8a\x18MO@'
p56
tp57
Rp58
ag10
(g14
S'M\xa4\x8f\t\xd4KO@'
p59
tp60
Rp61
ag10
(g14
S'DZ\xe7\x91\xbcaO@'
p62
tp63
Rp64
ag10
(g14
S'\xe4\xef\xe1\x8b\xd9EO@'
p65
tp66
Rp67
ag10
(g14
S'\xdb\xd5\xfc\xe5zJO@'
p68
tp69
Rp70
ag10
(g14
S'4`L/\xe5NO@'
p71
tp72
Rp73
ag10
(g14
S'2\x197\x81\xc1SO@'
p74
tp75
Rp76
asS'target'
p77
(lp78
g10
(g14
S'\xc0\x1dY]\x01\xf2L@'
p79
tp80
Rp81
ag10
(g14
S'\xfd.\x07\xdd\x14WP@'
p82
tp83
Rp84
ag10
(g14
S'\xcf\x8a\xa9\xcf-\xa1C@'
p85
tp86
Rp87
ag10
(g14
S'\xe6\x1a\xc5\xb8\x95uV@'
p88
tp89
Rp90
ag10
(g14
S'"c\x00\xb0\xdbxL@'
p91
tp92
Rp93
ag10
(g14
S'\xcf\x06.{y\xc8Q@'
p94
tp95
Rp96
ag10
(g14
S'\x17\xa8!9\xe8\xd6W@'
p97
tp98
Rp99
ag10
(g14
S'\xb4V\xa3\xe7T\xa4S@'
p100
tp101
Rp102
ag10
(g14
S'\xe7\xba\xf8\x93\x85\x82O@'
p103
tp104
Rp105
ag10
(g14
S'\xdf\xf4G\xdf\xc6,S@'
p106
tp107
Rp108
ag10
(g14
S'\xb6\x92\x9a:\x18\xe2W@'
p109
tp110
Rp111
ag10
(g14
S'\xbc\x83%\x1dB~\\@'
p112
tp113
Rp114
ag10
(g14
S'\xf5ej\xc0o\xc6]@'
p115
tp116
Rp117
ag10
(g14
S'\xbf\xcd\x02G\xeaY[@'
p118
tp119
Rp120
ag10
(g14
S'\xcd/\xe6\xc4\x12yR@'
p121
tp122
Rp123
ag10
(g14
S'B\\\xa9R\xa7`U@'
p124
tp125
Rp126
ag10
(g14
S'\xadcfLj1G@'
p127
tp128
Rp129
ag10
(g14
S'j\x83\xfe\xfc\\6[@'
p130
tp131
Rp132
ag10
(g14
S'\x0fL\xa9[\xadGS@'
p133
tp134
Rp135
ag10
(g14
S'\\\xffV>\x89\xb1`@'
p136
tp137
Rp138
asssss.