(dp0
S'../Data/sqlite_95.csv'
p1
(dp2
S'../Data/sqlite_29.csv'
p3
(dp4
F0.35
(dp5
S'abs_res'
p6
(dp7
S'bellwether'
p8
(lp9
cnumpy.core.multiarray
scalar
p10
(cnumpy
dtype
p11
(S'f8'
p12
I0
I1
tp13
Rp14
(I3
S'<'
p15
NNNI-1
I-1
I0
tp16
bS'a\x8f\xc2u\xdej&A'
p17
tp18
Rp19
ag10
(g14
S' """\xc7G&A'
p20
tp21
Rp22
ag10
(g14
S'\x84www\x95\x11&A'
p23
tp24
Rp25
ag10
(g14
S'\\\xf2\x8b\xa5\xb0\n&A'
p26
tp27
Rp28
ag10
(g14
S'\x18K~1,}&A'
p29
tp30
Rp31
ag10
(g14
S'\x1c\xaeG\xe1\x98\x1c&A'
p32
tp33
Rp34
ag10
(g14
S'C~\xb1\xe4Z|&A'
p35
tp36
Rp37
ag10
(g14
S'\xc9/\x96\xfc\x04g&A'
p38
tp39
Rp40
ag10
(g14
S'\x0f\x11\x11\x11~\x82&A'
p41
tp42
Rp43
ag10
(g14
S'[UUU\xf7G&A'
p44
tp45
Rp46
ag10
(g14
S'\x8e_,\xf9\xef`&A'
p47
tp48
Rp49
ag10
(g14
S'\xdd\xa3p\xbdt<&A'
p50
tp51
Rp52
ag10
(g14
S'XUUU\xd7F&A'
p53
tp54
Rp55
ag10
(g14
S'$\xbfXr\xce2&A'
p56
tp57
Rp58
ag10
(g14
S'k=\nW\x9bo&A'
p59
tp60
Rp61
ag10
(g14
S'\x99%\xbf\xd8zO&A'
p62
tp63
Rp64
ag10
(g14
S'XUUUE\x17&A'
p65
tp66
Rp67
ag10
(g14
S'/\x96\xfcb\xeby&A'
p68
tp69
Rp70
ag10
(g14
S'"\\\x8f\xc2\x8f2&A'
p71
tp72
Rp73
ag10
(g14
S'\x90%\xbf\xd8\xb9}&A'
p74
tp75
Rp76
asS'target'
p77
(lp78
g10
(g14
S'afff&@\xce@'
p79
tp80
Rp81
ag10
(g14
S'\x92\x99\x99\x99Y)\xce@'
p82
tp83
Rp84
ag10
(g14
S'\xd2\xcc\xcc\xcc\xccx\xcf@'
p85
tp86
Rp87
ag10
(g14
S'fffff\xe0\xce@'
p88
tp89
Rp90
ag10
(g14
S'5333s\xa9\xcc@'
p91
tp92
Rp93
ag10
(g14
S'\xd4\xcc\xcc\xccl\xb5\xcd@'
p94
tp95
Rp96
ag10
(g14
S'\xd2\xcc\xcc\xcc\xacO\xcd@'
p97
tp98
Rp99
ag10
(g14
S'^fff\xa6\x8d\xcd@'
p100
tp101
Rp102
ag10
(g14
S'affffy\xce@'
p103
tp104
Rp105
ag10
(g14
S'\xd4\xcc\xcc\xcc\xccQ\xce@'
p106
tp107
Rp108
ag10
(g14
S'hfff\xc6\x83\xce@'
p109
tp110
Rp111
ag10
(g14
S'\x97\x99\x99\x99Y"\xcf@'
p112
tp113
Rp114
ag10
(g14
S'\xcc\xcc\xcc\xccLs\xcb@'
p115
tp116
Rp117
ag10
(g14
S'\xc0\xcc\xcc\xcc\x0cc\xcf@'
p118
tp119
Rp120
ag10
(g14
S'7333\xf3\xa0\xcd@'
p121
tp122
Rp123
ag10
(g14
S'&333\xd3\xcf\xcf@'
p124
tp125
Rp126
ag10
(g14
S'4333S\x9c\xce@'
p127
tp128
Rp129
ag10
(g14
S'^fff\x06\xa2\xce@'
p130
tp131
Rp132
ag10
(g14
S'\x98\x99\x99\x99Y\xd7\xce@'
p133
tp134
Rp135
ag10
(g14
S'hfff&\xc4\xcf@'
p136
tp137
Rp138
asssss.