(dp0
S'../Data/sqlite_0.csv'
p1
(dp2
S'../Data/sqlite_90.csv'
p3
(dp4
F0.25
(dp5
S'mmre'
p6
(dp7
S'bellwether'
p8
(lp9
cnumpy.core.multiarray
scalar
p10
(cnumpy
dtype
p11
(S'f8'
p12
I0
I1
tp13
Rp14
(I3
S'<'
p15
NNNI-1
I-1
I0
tp16
bS'\xfc\x92\xafjH)W@'
p17
tp18
Rp19
ag10
(g14
S'z\xd2\x8a\xad_%W@'
p20
tp21
Rp22
ag10
(g14
S'\x1b\x83\xb4:\xa51W@'
p23
tp24
Rp25
ag10
(g14
S'm2y8\xfa*W@'
p26
tp27
Rp28
ag10
(g14
S"\xa9-\xe0>\xa4'W@"
p29
tp30
Rp31
ag10
(g14
S'\x99B\xcd\x93\xe4-W@'
p32
tp33
Rp34
ag10
(g14
S'&%\x1c\xa8\x14\x1fW@'
p35
tp36
Rp37
ag10
(g14
S'\x7f\xd4qI\x90%W@'
p38
tp39
Rp40
ag10
(g14
S'|:=m\n,W@'
p41
tp42
Rp43
ag10
(g14
S'\xb2\xd5{\x19\xa4-W@'
p44
tp45
Rp46
ag10
(g14
S'\x7f\x0f\x9b\x91\x10)W@'
p47
tp48
Rp49
ag10
(g14
S'_^"\x10\xc4&W@'
p50
tp51
Rp52
ag10
(g14
S'\xc0\x1c\xb9h\x07\x1eW@'
p53
tp54
Rp55
ag10
(g14
S'\x81}\x19\n\xa6*W@'
p56
tp57
Rp58
ag10
(g14
S'\xa9&I5\x98\x1fW@'
p59
tp60
Rp61
ag10
(g14
S'x\x9e>\x8c\xc3%W@'
p62
tp63
Rp64
ag10
(g14
S'\x86\xbb^\xbe~0W@'
p65
tp66
Rp67
ag10
(g14
S'\xd5\xd8 \xd74$W@'
p68
tp69
Rp70
ag10
(g14
S'`bahA*W@'
p71
tp72
Rp73
ag10
(g14
S'\xe7\xc6\xef\xef\xf7\x1eW@'
p74
tp75
Rp76
asS'target'
p77
(lp78
g10
(g14
S'\xc2\x9bB\xa6>\x88@@'
p79
tp80
Rp81
ag10
(g14
S'\xdf\xd2\xfa\xbe.\xc7@@'
p82
tp83
Rp84
ag10
(g14
S'w\x8b\xf7\x9e\x95LA@'
p85
tp86
Rp87
ag10
(g14
S'Kqd\x1b\xc2\x89A@'
p88
tp89
Rp90
ag10
(g14
S'?u\xeb\xd6\xb3\x18@@'
p91
tp92
Rp93
ag10
(g14
S'\xc4lV\xa0{\tB@'
p94
tp95
Rp96
ag10
(g14
S'\xcc:\xfd\xf3F\xcaC@'
p97
tp98
Rp99
ag10
(g14
S'L6[\xfd$\xcc@@'
p100
tp101
Rp102
ag10
(g14
S'K@*\x88S\xe2@@'
p103
tp104
Rp105
ag10
(g14
S'\x06\xad\xdfiV\xb4@@'
p106
tp107
Rp108
ag10
(g14
S'1\x7f\x89E\n/A@'
p109
tp110
Rp111
ag10
(g14
S'\xbe\xe9\xee8\xe7\x1cA@'
p112
tp113
Rp114
ag10
(g14
S'9\xdd]K\x04\xf6A@'
p115
tp116
Rp117
ag10
(g14
S'\xf3\\\xaekc\xcf@@'
p118
tp119
Rp120
ag10
(g14
S'\x01\xed\xd3\x7fJIB@'
p121
tp122
Rp123
ag10
(g14
S'\x9a\xb7\xc2\xeb\nSB@'
p124
tp125
Rp126
ag10
(g14
S'\xe7V\x988\xfe\x9d@@'
p127
tp128
Rp129
ag10
(g14
S'\xc1;N\xf5]\xa8A@'
p130
tp131
Rp132
ag10
(g14
S';\r\x9c\xbc\xa3\x14@@'
p133
tp134
Rp135
ag10
(g14
S'\x0e/\xc1\x97\xd4\xc0A@'
p136
tp137
Rp138
asssss.