(dp0
S'../Data/sqlite_31.csv'
p1
(dp2
S'../Data/sqlite_90.csv'
p3
(dp4
F0.25
(dp5
S'mmre'
p6
(dp7
S'bellwether'
p8
(lp9
cnumpy.core.multiarray
scalar
p10
(cnumpy
dtype
p11
(S'f8'
p12
I0
I1
tp13
Rp14
(I3
S'<'
p15
NNNI-1
I-1
I0
tp16
bS'\xdc\x97vHAtV@'
p17
tp18
Rp19
ag10
(g14
S'\x0b3\xca\x9d\x19aV@'
p20
tp21
Rp22
ag10
(g14
S'\xf7\x94\xb1!\x7fWV@'
p23
tp24
Rp25
ag10
(g14
S'\xe4e :SgV@'
p26
tp27
Rp28
ag10
(g14
S'\xfc\xcb\x89\x18\x14gV@'
p29
tp30
Rp31
ag10
(g14
S'\x13bI\xc7\xd8iV@'
p32
tp33
Rp34
ag10
(g14
S'cj\x95\xa1([V@'
p35
tp36
Rp37
ag10
(g14
S'+\xe1\xa2\x18,sV@'
p38
tp39
Rp40
ag10
(g14
S'\x067{7\xe1eV@'
p41
tp42
Rp43
ag10
(g14
S'k\xda\x87\xf0\x17jV@'
p44
tp45
Rp46
ag10
(g14
S'S\x027\xeay`V@'
p47
tp48
Rp49
ag10
(g14
S'X\x9f\xe5\xc8\xc9WV@'
p50
tp51
Rp52
ag10
(g14
S'\xd5He A\\V@'
p53
tp54
Rp55
ag10
(g14
S'\xe0\xf7\xfb\xb7\xf9iV@'
p56
tp57
Rp58
ag10
(g14
S'ZK$\xb0\x83cV@'
p59
tp60
Rp61
ag10
(g14
S'\xd4\xfd\xd8\xa0\xdfeV@'
p62
tp63
Rp64
ag10
(g14
S'R\xe1\x01\r<]V@'
p65
tp66
Rp67
ag10
(g14
S'\x03r\xa54\x9faV@'
p68
tp69
Rp70
ag10
(g14
S'\xdc\x01\x8ax\x9e[V@'
p71
tp72
Rp73
ag10
(g14
S'\xda\xcfJ!\xa9pV@'
p74
tp75
Rp76
asS'target'
p77
(lp78
g10
(g14
S'\x04\x89\xce`#\xf5@@'
p79
tp80
Rp81
ag10
(g14
S'~\x99\xa8\xcc\xcd>@@'
p82
tp83
Rp84
ag10
(g14
S'-H\x9c<OjA@'
p85
tp86
Rp87
ag10
(g14
S'\xfc,l\n\x8a\xdbA@'
p88
tp89
Rp90
ag10
(g14
S'=\xb4vI3\xa8@@'
p91
tp92
Rp93
ag10
(g14
S'D\xf2n\n\xc9\xce@@'
p94
tp95
Rp96
ag10
(g14
S'\xfc\xed\x00\x8d\x80\x95A@'
p97
tp98
Rp99
ag10
(g14
S'0?\x81\xca\x00\x81@@'
p100
tp101
Rp102
ag10
(g14
S'\xf9\x08\xcf3G\x9aA@'
p103
tp104
Rp105
ag10
(g14
S'\xe3g\xaf\xacY\x14@@'
p106
tp107
Rp108
ag10
(g14
S'k\xb2q\xb2;\xfeA@'
p109
tp110
Rp111
ag10
(g14
S'\x91\x03\x08y.xB@'
p112
tp113
Rp114
ag10
(g14
S'\x01\xb6\xe3\xf7<\xf7@@'
p115
tp116
Rp117
ag10
(g14
S'7\x18/\x8dfKA@'
p118
tp119
Rp120
ag10
(g14
S'Y\xd9 \xf2\x11FA@'
p121
tp122
Rp123
ag10
(g14
S'\x89_*\x0c\xf2\xe1A@'
p124
tp125
Rp126
ag10
(g14
S'\x1d\xcd\x1b3\x88\xb5A@'
p127
tp128
Rp129
ag10
(g14
S'DO\xbd9qcB@'
p130
tp131
Rp132
ag10
(g14
S'U\xd9A;\xe6aB@'
p133
tp134
Rp135
ag10
(g14
S'\x13\x0c\xce\xfa\x99\xbdA@'
p136
tp137
Rp138
asssss.