(dp0
S'../Data/sqlite_4.csv'
p1
(dp2
S'../Data/sqlite_48.csv'
p3
(dp4
F0.3
(dp5
S'abs_res'
p6
(dp7
S'bellwether'
p8
(lp9
cnumpy.core.multiarray
scalar
p10
(cnumpy
dtype
p11
(S'f8'
p12
I0
I1
tp13
Rp14
(I3
S'<'
p15
NNNI-1
I-1
I0
tp16
bS'\xb7:&\xd8\x85 ;A'
p17
tp18
Rp19
ag10
(g14
S'q\x842Z\x8a ;A'
p20
tp21
Rp22
ag10
(g14
S'\xb1\xd51\xe1\xea ;A'
p23
tp24
Rp25
ag10
(g14
S';\xa7\r\x94T ;A'
p26
tp27
Rp28
ag10
(g14
S'\x8f\xed|\x7fD ;A'
p29
tp30
Rp31
ag10
(g14
S'\x13/\xdd\x04\\!;A'
p32
tp33
Rp34
ag10
(g14
S'\xa3E\xb6sa";A'
p35
tp36
Rp37
ag10
(g14
S'\xdeO\x8d\x97\x1e";A'
p38
tp39
Rp40
ag10
(g14
S'm\xbct\x93\x12";A'
p41
tp42
Rp43
ag10
(g14
S'\xe1\xc1<\x91\xd6 ;A'
p44
tp45
Rp46
ag10
(g14
S'\x08\x9fa\x17\xa3!;A'
p47
tp48
Rp49
ag10
(g14
S'1O\xd4_\xeb#;A'
p50
tp51
Rp52
ag10
(g14
S'>Q\xffF\x9c";A'
p53
tp54
Rp55
ag10
(g14
S'\x96n\x12\xa3\x07!;A'
p56
tp57
Rp58
ag10
(g14
S'\xdf\xbf\x11\xaa\xb7 ;A'
p59
tp60
Rp61
ag10
(g14
S'\xf2Q\xb8\x1e-#;A'
p62
tp63
Rp64
ag10
(g14
S'\xca\xa1E\xd6"";A'
p65
tp66
Rp67
ag10
(g14
S'\xc4\xbd\xe6"l";A'
p68
tp69
Rp70
ag10
(g14
S'W\xc7\x04\xef\xf4!;A'
p71
tp72
Rp73
ag10
(g14
S'\x17\xf5od\xab";A'
p74
tp75
Rp76
asS'target'
p77
(lp78
g10
(g14
S'\x19/\xdd$\x06>p@'
p79
tp80
Rp81
ag10
(g14
S'\x91\xed|?56p@'
p82
tp83
Rp84
ag10
(g14
S'\xd0K7\x89A\xfam@'
p85
tp86
Rp87
ag10
(g14
S'r\x93\x18\x04V\x84o@'
p88
tp89
Rp90
ag10
(g14
S'\xe9\xd0"\xdb\xf9\x12o@'
p91
tp92
Rp93
ag10
(g14
S';^\xbaI\x0c\xccn@'
p94
tp95
Rp96
ag10
(g14
S'\x81h\x91\xed|\x8bm@'
p97
tp98
Rp99
ag10
(g14
S'\xf2\xa7\xc6K7\xd5n@'
p100
tp101
Rp102
ag10
(g14
S'\x8a\x97n\x12\x832p@'
p103
tp104
Rp105
ag10
(g14
S'\xe6\xa5\x9b\xc4 ap@'
p106
tp107
Rp108
ag10
(g14
S'V9\xb4\xc8v\x0eo@'
p109
tp110
Rp111
ag10
(g14
S'W9\xb4\xc8v2p@'
p112
tp113
Rp114
ag10
(g14
S'\x94l\xe7\xfb\xa9\x95o@'
p115
tp116
Rp117
ag10
(g14
S'\xfe~j\xbct\x7fm@'
p118
tp119
Rp120
ag10
(g14
S'\xe2&1\x08\xac\xfco@'
p121
tp122
Rp123
ag10
(g14
S'\xd4\xf7S\xe3\xa5co@'
p124
tp125
Rp126
ag10
(g14
S'\xd0\xa3p=\n\xefn@'
p127
tp128
Rp129
ag10
(g14
S't\x91\xed|?}n@'
p130
tp131
Rp132
ag10
(g14
S'_\x8f\xc2\xf5(Dq@'
p133
tp134
Rp135
ag10
(g14
S'\xb7rh\x91\xed\xf8m@'
p136
tp137
Rp138
asssss.