(dp0
S'../Data/sqlite_87.csv'
p1
(dp2
S'../Data/sqlite_84.csv'
p3
(dp4
F0.05
(dp5
S'mmre'
p6
(dp7
S'bellwether'
p8
(lp9
cnumpy.core.multiarray
scalar
p10
(cnumpy
dtype
p11
(S'f8'
p12
I0
I1
tp13
Rp14
(I3
S'<'
p15
NNNI-1
I-1
I0
tp16
bS'1L\n\x82\xdf\x8eY@'
p17
tp18
Rp19
ag10
(g14
S'\x93\xd3u\xa4\x97^Y@'
p20
tp21
Rp22
ag10
(g14
S'\xd6k\xeeu\xc5{Y@'
p23
tp24
Rp25
ag10
(g14
S'\x8f\xc3\xf8\x7f\xa1|Y@'
p26
tp27
Rp28
ag10
(g14
S'\xa0\xc0z\xb6\xa9~Y@'
p29
tp30
Rp31
ag10
(g14
S':\xd3\xd7\xfakwY@'
p32
tp33
Rp34
ag10
(g14
S'\x88\xab\xbe\xf8\xffuY@'
p35
tp36
Rp37
ag10
(g14
S'\x7f\x0f?\xf5\x16}Y@'
p38
tp39
Rp40
ag10
(g14
S'\x84u\xe6_\xf4bY@'
p41
tp42
Rp43
ag10
(g14
S';Y\rJ\xb1vY@'
p44
tp45
Rp46
ag10
(g14
S'}\xd3\xfcy\x8a-Y@'
p47
tp48
Rp49
ag10
(g14
S'\xbb\xb5\xef\xf6\xa5uY@'
p50
tp51
Rp52
ag10
(g14
S'\x8c\xe0\x10_\xb7^Y@'
p53
tp54
Rp55
ag10
(g14
S'<-\x92j\x1bcY@'
p56
tp57
Rp58
ag10
(g14
S"H\x85T\xa8'^Y@"
p59
tp60
Rp61
ag10
(g14
S'F\xa4\xc9\x0f\xd4qY@'
p62
tp63
Rp64
ag10
(g14
S'\xcc\xb9~\xa7\xabxY@'
p65
tp66
Rp67
ag10
(g14
S'\xa1\xd0\n\xd2P\x7fY@'
p68
tp69
Rp70
ag10
(g14
S'$u\x8e\xb7=\x80Y@'
p71
tp72
Rp73
ag10
(g14
S'\xd5,g^#\x80Y@'
p74
tp75
Rp76
asS'target'
p77
(lp78
g10
(g14
S'p@\x0bA\xd4\xca^@'
p79
tp80
Rp81
ag10
(g14
S'(#R\xe8\xa9OJ@'
p82
tp83
Rp84
ag10
(g14
S'\xf6_\xfd\x0e\x88t]@'
p85
tp86
Rp87
ag10
(g14
S'iJ\xf0\xc3y\xf4U@'
p88
tp89
Rp90
ag10
(g14
S'6*vyZ8O@'
p91
tp92
Rp93
ag10
(g14
S'\xd5\x0f\x9a\x92\x84\nS@'
p94
tp95
Rp96
ag10
(g14
S'\x96\x08yeRLW@'
p97
tp98
Rp99
ag10
(g14
S'/\x9a7:\x0b\x8cT@'
p100
tp101
Rp102
ag10
(g14
S'mAB|\xfd\xffP@'
p103
tp104
Rp105
ag10
(g14
S'\xc0\xe9v5\x1daB@'
p106
tp107
Rp108
ag10
(g14
S'\x8c\x00\x10\xca9rS@'
p109
tp110
Rp111
ag10
(g14
S'\xa5:\x10vm\x85T@'
p112
tp113
Rp114
ag10
(g14
S'=@;\xe9x\x18A@'
p115
tp116
Rp117
ag10
(g14
S'\x12Js\xbbV|W@'
p118
tp119
Rp120
ag10
(g14
S'\x1b\xac\x01\xcaPCS@'
p121
tp122
Rp123
ag10
(g14
S'\xa3J\xfaiq\xa5Q@'
p124
tp125
Rp126
ag10
(g14
S'-*\x83u\x1f\xa8T@'
p127
tp128
Rp129
ag10
(g14
S'(]\xe2\xe2b\x85J@'
p130
tp131
Rp132
ag10
(g14
S'\xfb\xc6\x01\x14\x14\x00[@'
p133
tp134
Rp135
ag10
(g14
S'\xa5f3\xa7\xcc\t`@'
p136
tp137
Rp138
asssss.