(dp0
S'../Data/sqlite_22.csv'
p1
(dp2
S'../Data/sqlite_76.csv'
p3
(dp4
F0.35
(dp5
S'mmre'
p6
(dp7
S'bellwether'
p8
(lp9
cnumpy.core.multiarray
scalar
p10
(cnumpy
dtype
p11
(S'f8'
p12
I0
I1
tp13
Rp14
(I3
S'<'
p15
NNNI-1
I-1
I0
tp16
bS'\x0c\x85\xca\x14\xc3:V@'
p17
tp18
Rp19
ag10
(g14
S'@*\n\xb7\xf9EV@'
p20
tp21
Rp22
ag10
(g14
S'R\x9a\x98\xe8\x9f?V@'
p23
tp24
Rp25
ag10
(g14
S'\t\x08!\x8f<DV@'
p26
tp27
Rp28
ag10
(g14
S'\xb4\xb5\xd6\xbdxAV@'
p29
tp30
Rp31
ag10
(g14
S'g!\x14\xad\xc4?V@'
p32
tp33
Rp34
ag10
(g14
S'\x00@\xe8\x01\x0bAV@'
p35
tp36
Rp37
ag10
(g14
S'E\x18\x7f+\xaaDV@'
p38
tp39
Rp40
ag10
(g14
S'1\xc5)\xfe\xe9DV@'
p41
tp42
Rp43
ag10
(g14
S"?\xa49\xc6'EV@"
p44
tp45
Rp46
ag10
(g14
S'\xbe\xeeC\xcb-CV@'
p47
tp48
Rp49
ag10
(g14
S'\xf8{\x82tW@V@'
p50
tp51
Rp52
ag10
(g14
S'\xd6]X{\x00EV@'
p53
tp54
Rp55
ag10
(g14
S'\x19\x81\xba\xb8SBV@'
p56
tp57
Rp58
ag10
(g14
S'f\xbf\xb6 ^DV@'
p59
tp60
Rp61
ag10
(g14
S'\x8aIn\xbc\xe9=V@'
p62
tp63
Rp64
ag10
(g14
S'iCcR>?V@'
p65
tp66
Rp67
ag10
(g14
S'X&f\x9f\xc6BV@'
p68
tp69
Rp70
ag10
(g14
S'\x1e\xde\xfeZ)BV@'
p71
tp72
Rp73
ag10
(g14
S'O\x05\xde\n\xe5?V@'
p74
tp75
Rp76
asS'target'
p77
(lp78
g10
(g14
S'\xf0\xa5\xe3\x87%%2@'
p79
tp80
Rp81
ag10
(g14
S'\xec}\r\xfbW\x9e1@'
p82
tp83
Rp84
ag10
(g14
S'\x11A\x1e\x95,\x9d0@'
p85
tp86
Rp87
ag10
(g14
S'\tJ\xa2\xfb\xed$2@'
p88
tp89
Rp90
ag10
(g14
S'\xeb2\xe9\x18\xfa\x121@'
p91
tp92
Rp93
ag10
(g14
S'E6\xf1Y\xc5\x112@'
p94
tp95
Rp96
ag10
(g14
S"H'm\xc6_P1@"
p97
tp98
Rp99
ag10
(g14
S'Sv\xd8\xa0\x0e\xfd0@'
p100
tp101
Rp102
ag10
(g14
S'px\x1e\xd1\xdc\xcf1@'
p103
tp104
Rp105
ag10
(g14
S'\x18\x9d\x94\xeci\x950@'
p106
tp107
Rp108
ag10
(g14
S'|\xcbl\x88\xc7(1@'
p109
tp110
Rp111
ag10
(g14
S'\xee6c"\xa3\xb00@'
p112
tp113
Rp114
ag10
(g14
S'\x0c\x8b\x91\xad\xd8\x150@'
p115
tp116
Rp117
ag10
(g14
S'u!\xa7\x96}\xf50@'
p118
tp119
Rp120
ag10
(g14
S't\xe9\xe3\x00\xc6\xaa1@'
p121
tp122
Rp123
ag10
(g14
S'\x14z\xd5\xdez\x081@'
p124
tp125
Rp126
ag10
(g14
S'\xec\xedC\xc1\x17\xd61@'
p127
tp128
Rp129
ag10
(g14
S'\x96U\x8b\xeb\xfd\x062@'
p130
tp131
Rp132
ag10
(g14
S'+\x13mCT\xc20@'
p133
tp134
Rp135
ag10
(g14
S'\xd9\xb0\x90\x1c@11@'
p136
tp137
Rp138
asssss.