(dp0
S'../Data/sqlite_30.csv'
p1
(dp2
S'../Data/sqlite_96.csv'
p3
(dp4
F0.05
(dp5
S'mmre'
p6
(dp7
S'bellwether'
p8
(lp9
cnumpy.core.multiarray
scalar
p10
(cnumpy
dtype
p11
(S'f8'
p12
I0
I1
tp13
Rp14
(I3
S'<'
p15
NNNI-1
I-1
I0
tp16
bS'y\x94\xf7\xe6\xff/X@'
p17
tp18
Rp19
ag10
(g14
S'r\xfb\xbc\xba\xbc1X@'
p20
tp21
Rp22
ag10
(g14
S'\xe6*z?\x1c0X@'
p23
tp24
Rp25
ag10
(g14
S'G3\xfcQ\xd70X@'
p26
tp27
Rp28
ag10
(g14
S'\xaf\x83?iT0X@'
p29
tp30
Rp31
ag10
(g14
S'\xcac\xb6\xf4\xe80X@'
p32
tp33
Rp34
ag10
(g14
S'\xb6\xbd\xd1R\xf6/X@'
p35
tp36
Rp37
ag10
(g14
S'o=\xa3F\x011X@'
p38
tp39
Rp40
ag10
(g14
S'B\xf0\xf4\xe3|0X@'
p41
tp42
Rp43
ag10
(g14
S'\xe0l\xf2\x16&0X@'
p44
tp45
Rp46
ag10
(g14
S'\x1f\xb2!\xc9\x1e1X@'
p47
tp48
Rp49
ag10
(g14
S'p\xea~g\xc4/X@'
p50
tp51
Rp52
ag10
(g14
S'\xd3,\xd2\x02w1X@'
p53
tp54
Rp55
ag10
(g14
S'\nvl\xd2r0X@'
p56
tp57
Rp58
ag10
(g14
S'\xbdB\x94\x96\xb10X@'
p59
tp60
Rp61
ag10
(g14
S'\xddY\xeb\xd3\xc80X@'
p62
tp63
Rp64
ag10
(g14
S'\x07~b\x88\x860X@'
p65
tp66
Rp67
ag10
(g14
S'\x8f\xf5\tH&0X@'
p68
tp69
Rp70
ag10
(g14
S'\x0e{*\x8dI0X@'
p71
tp72
Rp73
ag10
(g14
S'}\xcd3\x02x0X@'
p74
tp75
Rp76
asS'target'
p77
(lp78
g10
(g14
S'\xa0TD\xb9\xb9cZ@'
p79
tp80
Rp81
ag10
(g14
S'\xaa!.|2-8@'
p82
tp83
Rp84
ag10
(g14
S'B\xd4\x11\t\xab\xddb@'
p85
tp86
Rp87
ag10
(g14
S'\x96\xd7\x8d\xfb\xe2\x90D@'
p88
tp89
Rp90
ag10
(g14
S'\x8a\x83i\xa9#\xedW@'
p91
tp92
Rp93
ag10
(g14
S'\xc0l\x01\x92\x11rE@'
p94
tp95
Rp96
ag10
(g14
S'\xbb\xe0\xdc0\xea[`@'
p97
tp98
Rp99
ag10
(g14
S'F\x8e|\xf6g\x85R@'
p100
tp101
Rp102
ag10
(g14
S'\x90M\xa6\xf8\xec\rX@'
p103
tp104
Rp105
ag10
(g14
S'\x89\x9a>\xd0\xf7\xeeW@'
p106
tp107
Rp108
ag10
(g14
S'\xe6y\x13\xe5J\x8cO@'
p109
tp110
Rp111
ag10
(g14
S'q\x96\r\xe4\xb0\xbdS@'
p112
tp113
Rp114
ag10
(g14
S'\xac\xa9\xadX\x91\xdbK@'
p115
tp116
Rp117
ag10
(g14
S'%\xdaOA\x7f&L@'
p118
tp119
Rp120
ag10
(g14
S'\x83\xa9/V\xe5\x99e@'
p121
tp122
Rp123
ag10
(g14
S'V\x99\x06\xfa1\x88C@'
p124
tp125
Rp126
ag10
(g14
S'|h\x00\x01\x1asY@'
p127
tp128
Rp129
ag10
(g14
S')\xa0DN\x87PN@'
p130
tp131
Rp132
ag10
(g14
S'\xbd\x1f\x8a_|\xd6Y@'
p133
tp134
Rp135
ag10
(g14
S'\x08\xc9\x18\x99\xb2\x07a@'
p136
tp137
Rp138
asssss.