(dp0
S'../Data/sqlite_58.csv'
p1
(dp2
S'../Data/sqlite_85.csv'
p3
(dp4
F0.2
(dp5
S'abs_res'
p6
(dp7
S'bellwether'
p8
(lp9
cnumpy.core.multiarray
scalar
p10
(cnumpy
dtype
p11
(S'f8'
p12
I0
I1
tp13
Rp14
(I3
S'<'
p15
NNNI-1
I-1
I0
tp16
bS'\x99n\x12{\xc1\xffUA'
p17
tp18
Rp19
ag10
(g14
S'jff\x16\xda/VA'
p20
tp21
Rp22
ag10
(g14
S'+\x15g7k\x0bVA'
p23
tp24
Rp25
ag10
(g14
S'$1\x08\xe0pEVA'
p26
tp27
Rp28
ag10
(g14
S"\x8dy\xa2*';VA"
p29
tp30
Rp31
ag10
(g14
S'%1\x08\x8c\xae\x05VA'
p32
tp33
Rp34
ag10
(g14
S'\xbe-k\x1d6\xc0UA'
p35
tp36
Rp37
ag10
(g14
S'\xcbMb\x80\xd1\x1bVA'
p38
tp39
Rp40
ag10
(g14
S'\xd5\x87\xcf\xd8g\x13VA'
p41
tp42
Rp43
ag10
(g14
S'?\xb4\xc8\x8e\x069VA'
p44
tp45
Rp46
ag10
(g14
S'>\xdfO\xc9\xd6\xe4UA'
p47
tp48
Rp49
ag10
(g14
S'K\xe1z(s\xfcUA'
p50
tp51
Rp52
ag10
(g14
S'G\x8blW\x7fTVA'
p53
tp54
Rp55
ag10
(g14
S'U\x9c}\x9c\xbc\tVA'
p56
tp57
Rp58
ag10
(g14
S'g\xad\x8e\t\xd6GVA'
p59
tp60
Rp61
ag10
(g14
S'"\x94\xd1\x8b.&VA'
p62
tp63
Rp64
ag10
(g14
S'\x06V\x0eq_$VA'
p65
tp66
Rp67
ag10
(g14
S'\x15\xca\xe8y\x18\x17VA'
p68
tp69
Rp70
ag10
(g14
S']9\xb4\x04D\x16VA'
p71
tp72
Rp73
ag10
(g14
S'\xb3+@\xa2\x0f$VA'
p74
tp75
Rp76
asS'target'
p77
(lp78
g10
(g14
S'&\\\x8fB\x00\xea?A'
p79
tp80
Rp81
ag10
(g14
S'\xa5p=zQ9CA'
p82
tp83
Rp84
ag10
(g14
S'I\xe1zT?\xb0?A'
p85
tp86
Rp87
ag10
(g14
S'E\n\xd7\x833\xed@A'
p88
tp89
Rp90
ag10
(g14
S'\xb2G\xe1z\xaf\x8dAA'
p91
tp92
Rp93
ag10
(g14
S'\xb5G\xe1\xba\xbb,?A'
p94
tp95
Rp96
ag10
(g14
S'R\xb8\x1e\xe5]6@A'
p97
tp98
Rp99
ag10
(g14
S'\x8b\xc2\xf5\xa8\x8e7@A'
p100
tp101
Rp102
ag10
(g14
S'\x88\xebQ\xb8\xb0-AA'
p103
tp104
Rp105
ag10
(g14
S'133s\x8c\xb2>A'
p106
tp107
Rp108
ag10
(g14
S'~\x14\xaeG\xdeQAA'
p109
tp110
Rp111
ag10
(g14
S'\xa9G\xe1\xfavLAA'
p112
tp113
Rp114
ag10
(g14
S'\x00\x00\x00`=\x86AA'
p115
tp116
Rp117
ag10
(g14
S'\xaeG\xe1\x1akB@A'
p118
tp119
Rp120
ag10
(g14
S'533sh\x18BA'
p121
tp122
Rp123
ag10
(g14
S'\xadG\xe1\x1a\xc7\xad@A'
p124
tp125
Rp126
ag10
(g14
S'A\xa7\r4\xf7\xa0@A'
p127
tp128
Rp129
ag10
(g14
S'l=\n\x17)!AA'
p130
tp131
Rp132
ag10
(g14
S'\n\xd7\xa3\xd0\x9a|@A'
p133
tp134
Rp135
ag10
(g14
S'\xf0(\\oS\x16@A'
p136
tp137
Rp138
asssss.