(dp0
S'../Data/sqlite_85.csv'
p1
(dp2
S'../Data/sqlite_37.csv'
p3
(dp4
F0.3
(dp5
S'abs_res'
p6
(dp7
S'bellwether'
p8
(lp9
cnumpy.core.multiarray
scalar
p10
(cnumpy
dtype
p11
(S'f8'
p12
I0
I1
tp13
Rp14
(I3
S'<'
p15
NNNI-1
I-1
I0
tp16
bS'\xae\x8e\t\xb6\xe7\x10SA'
p17
tp18
Rp19
ag10
(g14
S'\xea\x8b%\x07A!SA'
p20
tp21
Rp22
ag10
(g14
S'\xdd\x87\xcf\xe8\x8c_SA'
p23
tp24
Rp25
ag10
(g14
S'\xc5\x92_dWdSA'
p26
tp27
Rp28
ag10
(g14
S'\ne\xf4\xf6\xaaMSA'
p29
tp30
Rp31
ag10
(g14
S'%\x15g\xa7,\\SA'
p32
tp33
Rp34
ag10
(g14
S'q\xaf\xb9\xb0\x06@SA'
p35
tp36
Rp37
ag10
(g14
S'|wwO\x08\x93SA'
p38
tp39
Rp40
ag10
(g14
S'-\xea\xdf`\xa8WSA'
p41
tp42
Rp43
ag10
(g14
S'\xef(\\7WxSA'
p44
tp45
Rp46
ag10
(g14
S"=\x98'\x82\x86.SA"
p47
tp48
Rp49
ag10
(g14
S'\x88A`\x8d!LSA'
p50
tp51
Rp52
ag10
(g14
S'\xd51\xc1K\x9cNSA'
p53
tp54
Rp55
ag10
(g14
S'\xaf\xc8v\xb6*,SA'
p56
tp57
Rp58
ag10
(g14
S'\xa4\x1a/u\xe8NSA'
p59
tp60
Rp61
ag10
(g14
S'\xef`\x9e\x90\xb9fSA'
p62
tp63
Rp64
ag10
(g14
S'\xa7\xf1\xd2ed;SA'
p65
tp66
Rp67
ag10
(g14
S'quL\xf0\xb8\rSA'
p68
tp69
Rp70
ag10
(g14
S'\xff7Bi\xb6\xf1RA'
p71
tp72
Rp73
ag10
(g14
S'\x08\xb9\xd7t\x1fwSA'
p74
tp75
Rp76
asS'target'
p77
(lp78
g10
(g14
S'\x1cZd;\xdf\xb7K@'
p79
tp80
Rp81
ag10
(g14
S'1\xdd$\x06\x81MK@'
p82
tp83
Rp84
ag10
(g14
S'\xfb\xd4x\xe9&\x11L@'
p85
tp86
Rp87
ag10
(g14
S'\xe6z\x14\xaeG1L@'
p88
tp89
Rp90
ag10
(g14
S'r\xbe\x9f\x1a/\xddJ@'
p91
tp92
Rp93
ag10
(g14
S'x\xbe\x9f\x1a/\xadJ@'
p94
tp95
Rp96
ag10
(g14
S'\x85\xc0\xca\xa1EVK@'
p97
tp98
Rp99
ag10
(g14
S'3\xdd$\x06\x81\xd5J@'
p100
tp101
Rp102
ag10
(g14
S'Q\xe1z\x14\xae\xcfJ@'
p103
tp104
Rp105
ag10
(g14
S'D\xdfO\x8d\x97\x9eK@'
p106
tp107
Rp108
ag10
(g14
S'\x9f\x99\x99\x99\x999L@'
p109
tp110
Rp111
ag10
(g14
S'\x85\xebQ\xb8\x1e\xddJ@'
p112
tp113
Rp114
ag10
(g14
S'M`\xe5\xd0";M@'
p115
tp116
Rp117
ag10
(g14
S"\xe1\xa3p=\n'L@"
p118
tp119
Rp120
ag10
(g14
S'Q\xe1z\x14\xae\xffJ@'
p121
tp122
Rp123
ag10
(g14
S'\xbf\x9f\x1a/\xdd\xe4K@'
p124
tp125
Rp126
ag10
(g14
S'\x14\xaeG\xe1z,K@'
p127
tp128
Rp129
ag10
(g14
S'mh\x91\xed|oJ@'
p130
tp131
Rp132
ag10
(g14
S'\x95\xed|?5~L@'
p133
tp134
Rp135
ag10
(g14
S'\x8al\xe7\xfb\xa9AM@'
p136
tp137
Rp138
asssss.