(dp0
S'../Data/sqlite_15.csv'
p1
(dp2
S'../Data/sqlite_58.csv'
p3
(dp4
F0.2
(dp5
S'abs_res'
p6
(dp7
S'bellwether'
p8
(lp9
cnumpy.core.multiarray
scalar
p10
(cnumpy
dtype
p11
(S'f8'
p12
I0
I1
tp13
Rp14
(I3
S'<'
p15
NNNI-1
I-1
I0
tp16
bS'\xe3Q\xb8^\xdaz>A'
p17
tp18
Rp19
ag10
(g14
S'\x1c\xcc\x13u\x98{>A'
p20
tp21
Rp22
ag10
(g14
S'\xa6\xf1\xd2-/|>A'
p23
tp24
Rp25
ag10
(g14
S'\xa3\xc6K\xf7T}>A'
p26
tp27
Rp28
ag10
(g14
S'}h\x91\x8dM}>A'
p29
tp30
Rp31
ag10
(g14
S'M*\xce\xbe\x89{>A'
p32
tp33
Rp34
ag10
(g14
S'W\xabc\x02A{>A'
p35
tp36
Rp37
ag10
(g14
S'\x8eA`\xa5\xc8{>A'
p38
tp39
Rp40
ag10
(g14
S'5$M\xc9\xf8z>A'
p41
tp42
Rp43
ag10
(g14
S"'1\x08\x0c\xd1|>A"
p44
tp45
Rp46
ag10
(g14
S'\xffF(cBz>A'
p47
tp48
Rp49
ag10
(g14
S'\xb7e\xad.p|>A'
p50
tp51
Rp52
ag10
(g14
S'>33\x93v{>A'
p53
tp54
Rp55
ag10
(g14
S'\x8e\xb5:\x06\xe7}>A'
p56
tp57
Rp58
ag10
(g14
S'\x08\x1e\xccS\x8d{>A'
p59
tp60
Rp61
ag10
(g14
S"b\xbaI\xec'{>A"
p62
tp63
Rp64
ag10
(g14
S'\xbae\xad.o{>A'
p65
tp66
Rp67
ag10
(g14
S'\x18\xaeGA\x88{>A'
p68
tp69
Rp70
ag10
(g14
S'\x9daW`){>A'
p71
tp72
Rp73
ag10
(g14
S'\x850Ot9|>A'
p74
tp75
Rp76
asS'target'
p77
(lp78
g10
(g14
S'\x8a\x97n\x12\x83\xfcV@'
p79
tp80
Rp81
ag10
(g14
S'83333sW@'
p82
tp83
Rp84
ag10
(g14
S'\xac\xf1\xd2Mb0W@'
p85
tp86
Rp87
ag10
(g14
S'y\xe9&1\x08\x04X@'
p88
tp89
Rp90
ag10
(g14
S'\x18\xd7\xa3p=bV@'
p91
tp92
Rp93
ag10
(g14
S't\xbe\x9f\x1a/IW@'
p94
tp95
Rp96
ag10
(g14
S'f\x91\xed|?\x01W@'
p97
tp98
Rp99
ag10
(g14
S' \x85\xebQ\xb8\x9aV@'
p100
tp101
Rp102
ag10
(g14
S'\xe4\xa5\x9b\xc4 \x08V@'
p103
tp104
Rp105
ag10
(g14
S'\x1f/\xdd$\x06\x19X@'
p106
tp107
Rp108
ag10
(g14
S'\xdfO\x8d\x97n\x9aU@'
p109
tp110
Rp111
ag10
(g14
S'\x18\xd9\xce\xf7S\xe3X@'
p112
tp113
Rp114
ag10
(g14
S'\x05\x81\x95C\x8bLV@'
p115
tp116
Rp117
ag10
(g14
S'th\x91\xed|\x8fV@'
p118
tp119
Rp120
ag10
(g14
S",\x87\x16\xd9\xce'U@"
p121
tp122
Rp123
ag10
(g14
S'\xf9\xa9\xf1\xd2M\xeaW@'
p124
tp125
Rp126
ag10
(g14
S'\x8eC\x8bl\xe7cV@'
p127
tp128
Rp129
ag10
(g14
S'\xdc\xce\xf7S\xe3\x9dW@'
p130
tp131
Rp132
ag10
(g14
S':\n\xd7\xa3p5V@'
p133
tp134
Rp135
ag10
(g14
S'\x83\x16\xd9\xce\xf7\x1bW@'
p136
tp137
Rp138
asssss.