(dp0
S'../Data/sqlite_23.csv'
p1
(dp2
S'../Data/sqlite_73.csv'
p3
(dp4
F0.05
(dp5
S'mmre'
p6
(dp7
S'bellwether'
p8
(lp9
cnumpy.core.multiarray
scalar
p10
(cnumpy
dtype
p11
(S'f8'
p12
I0
I1
tp13
Rp14
(I3
S'<'
p15
NNNI-1
I-1
I0
tp16
bS'h\x92\xfc\x0c\xd91W@'
p17
tp18
Rp19
ag10
(g14
S'r\xab\x7f\\\x812W@'
p20
tp21
Rp22
ag10
(g14
S'\xfe\x11E\xff\xfc1W@'
p23
tp24
Rp25
ag10
(g14
S'\xd1-er\x922W@'
p26
tp27
Rp28
ag10
(g14
S'c@\x05\xbb-2W@'
p29
tp30
Rp31
ag10
(g14
S'\xfb\xeb\xe4\xb7c2W@'
p32
tp33
Rp34
ag10
(g14
S'\xd2\x88cR\x832W@'
p35
tp36
Rp37
ag10
(g14
S'\xc5\xc8\xd1#\xd92W@'
p38
tp39
Rp40
ag10
(g14
S'R4\xa6bX2W@'
p41
tp42
Rp43
ag10
(g14
S'\x87\x87\x12L\xda2W@'
p44
tp45
Rp46
ag10
(g14
S'\xf8\x80\xee\xb5\xd42W@'
p47
tp48
Rp49
ag10
(g14
S'{x\xfe\x83\x072W@'
p50
tp51
Rp52
ag10
(g14
S'\xdbC\x10\xff\xfc1W@'
p53
tp54
Rp55
ag10
(g14
S'\xac\xc6\xbd@\x062W@'
p56
tp57
Rp58
ag10
(g14
S'\x05\x86\x1e\xa4\xbd2W@'
p59
tp60
Rp61
ag10
(g14
S'\xe0\xedK\xd0\xe91W@'
p62
tp63
Rp64
ag10
(g14
S'J>g:\x063W@'
p65
tp66
Rp67
ag10
(g14
S'\x97\x86\xa5\xc8I1W@'
p68
tp69
Rp70
ag10
(g14
S'\xbf\x1aW\xde\xc71W@'
p71
tp72
Rp73
ag10
(g14
S"'\xa7\xa9E\xde1W@"
p74
tp75
Rp76
asS'target'
p77
(lp78
g10
(g14
S"d|\x96\x1a\xb8'*@"
p79
tp80
Rp81
ag10
(g14
S'\xefG\xdfX\x8c\x87,@'
p82
tp83
Rp84
ag10
(g14
S'\x0bC\xc0m\xcbH+@'
p85
tp86
Rp87
ag10
(g14
S'7\xc1\xf2\xe1\xc4-.@'
p88
tp89
Rp90
ag10
(g14
S'"\xbc\xf8k\xc3\xb9-@'
p91
tp92
Rp93
ag10
(g14
S'\x89\xc73I\x1b\xab-@'
p94
tp95
Rp96
ag10
(g14
S'J\xa2Y\r/5)@'
p97
tp98
Rp99
ag10
(g14
S'\x98\xac\xb4\x1ds\xe1-@'
p100
tp101
Rp102
ag10
(g14
S'\xe3\x0c\x1bh}\xd8(@'
p103
tp104
Rp105
ag10
(g14
S"\xaa}'\xecF:)@"
p106
tp107
Rp108
ag10
(g14
S'}\x86\x90\xfc7\xb7*@'
p109
tp110
Rp111
ag10
(g14
S'J!T\xcext)@'
p112
tp113
Rp114
ag10
(g14
S'A+\xb1\xd5\xabu+@'
p115
tp116
Rp117
ag10
(g14
S'[\xd8\xe1\x1e\xa9-*@'
p118
tp119
Rp120
ag10
(g14
S'\x8b\x17u\xa6\xe7X,@'
p121
tp122
Rp123
ag10
(g14
S'\xed\xc5\x9f\xfe\xc4\x002@'
p124
tp125
Rp126
ag10
(g14
S'\xec&\xf7[_\x10-@'
p127
tp128
Rp129
ag10
(g14
S'Cdru_\xa0-@'
p130
tp131
Rp132
ag10
(g14
S'\xea*\xb0aU\x9a*@'
p133
tp134
Rp135
ag10
(g14
S'sr\xfb$\xd9 .@'
p136
tp137
Rp138
asssss.