(dp0
S'../Data/sqlite_27.csv'
p1
(dp2
S'../Data/sqlite_84.csv'
p3
(dp4
F0.25
(dp5
S'mmre'
p6
(dp7
S'bellwether'
p8
(lp9
cnumpy.core.multiarray
scalar
p10
(cnumpy
dtype
p11
(S'f8'
p12
I0
I1
tp13
Rp14
(I3
S'<'
p15
NNNI-1
I-1
I0
tp16
bS'\x19\x82VQ\x7f.x@'
p17
tp18
Rp19
ag10
(g14
S'\xca\xa1v\xacchx@'
p20
tp21
Rp22
ag10
(g14
S'\x16R\xb9\xb8L>x@'
p23
tp24
Rp25
ag10
(g14
S'b9\xfd\xf5?}x@'
p26
tp27
Rp28
ag10
(g14
S'\x99\x98k3\x16~x@'
p29
tp30
Rp31
ag10
(g14
S'\xd5t\\\xe6\xc6fx@'
p32
tp33
Rp34
ag10
(g14
S'@\x84\x7f?#Xx@'
p35
tp36
Rp37
ag10
(g14
S'\x90#\xaf\xc8\xd1<x@'
p38
tp39
Rp40
ag10
(g14
S'Dj\x1a@\xc6Ix@'
p41
tp42
Rp43
ag10
(g14
S'-\x90b\xb6\xa2Px@'
p44
tp45
Rp46
ag10
(g14
S'\xf1\xfb\xd8R-\x9bx@'
p47
tp48
Rp49
ag10
(g14
S'\xdc\x0e\x8b\n\xbc?x@'
p50
tp51
Rp52
ag10
(g14
S'D\x80\xf5\x12e+x@'
p53
tp54
Rp55
ag10
(g14
S'\x8c+\x1d\xe6\xee>x@'
p56
tp57
Rp58
ag10
(g14
S'M\xfc\x9d:\x1e\x84x@'
p59
tp60
Rp61
ag10
(g14
S'p\xfa]R\xd2`x@'
p62
tp63
Rp64
ag10
(g14
S'\x0f\xbd6|;vx@'
p65
tp66
Rp67
ag10
(g14
S'\x0fl\xad\xb2BNx@'
p68
tp69
Rp70
ag10
(g14
S'\xccw]\xcd\x9fax@'
p71
tp72
Rp73
ag10
(g14
S'\x0b\xb3\r-\x97px@'
p74
tp75
Rp76
asS'target'
p77
(lp78
g10
(g14
S'\xcd\x0b|R6\x80N@'
p79
tp80
Rp81
ag10
(g14
S'\xa3z\xf3\x1b\x96&P@'
p82
tp83
Rp84
ag10
(g14
S'^(\xb5\xadN&J@'
p85
tp86
Rp87
ag10
(g14
S'\x13<\x94\x89\xef\xfbU@'
p88
tp89
Rp90
ag10
(g14
S'\xfe\x06\x8fU\x16\x0fP@'
p91
tp92
Rp93
ag10
(g14
S'\x02#J\xfb\xee\xf4U@'
p94
tp95
Rp96
ag10
(g14
S'1=\\0\xbbdO@'
p97
tp98
Rp99
ag10
(g14
S'\xe1H@t\xb7eR@'
p100
tp101
Rp102
ag10
(g14
S'\x93c\\\x0e/+T@'
p103
tp104
Rp105
ag10
(g14
S'{\\\xc2\x94\xf8\xbeQ@'
p106
tp107
Rp108
ag10
(g14
S'9\xdbU\xf5\xe2-V@'
p109
tp110
Rp111
ag10
(g14
S'L\n\x9d}\xa1AO@'
p112
tp113
Rp114
ag10
(g14
S'\xd0\xaa\x8d\xdbT\xd4N@'
p115
tp116
Rp117
ag10
(g14
S'">9\x01\xa9\x01M@'
p118
tp119
Rp120
ag10
(g14
S'?\x98\x1e\xe6\x96ZV@'
p121
tp122
Rp123
ag10
(g14
S':\xf0M\xc1E\xe7K@'
p124
tp125
Rp126
ag10
(g14
S'\x06\xebF\x0f\xa2,I@'
p127
tp128
Rp129
ag10
(g14
S'0\xc8kc\xbb\x10R@'
p130
tp131
Rp132
ag10
(g14
S'\xbc/\xd1\xa6/tI@'
p133
tp134
Rp135
ag10
(g14
S'U\xac\xac\x0e\xcb\x9fW@'
p136
tp137
Rp138
asssss.