(dp0
S'../Data/sqlite_30.csv'
p1
(dp2
S'../Data/sqlite_89.csv'
p3
(dp4
F0.05
(dp5
S'mmre'
p6
(dp7
S'bellwether'
p8
(lp9
cnumpy.core.multiarray
scalar
p10
(cnumpy
dtype
p11
(S'f8'
p12
I0
I1
tp13
Rp14
(I3
S'<'
p15
NNNI-1
I-1
I0
tp16
bS'4\x8e?\x1e\xba~V@'
p17
tp18
Rp19
ag10
(g14
S'N\xd0\xd0\xaa\x8a~V@'
p20
tp21
Rp22
ag10
(g14
S'\x98\x98\xdd\xb8\xe8\x7fV@'
p23
tp24
Rp25
ag10
(g14
S'M\xec;\xf3f~V@'
p26
tp27
Rp28
ag10
(g14
S'T;\xde\r\x12~V@'
p29
tp30
Rp31
ag10
(g14
S'\xd6\xefS\xafb|V@'
p32
tp33
Rp34
ag10
(g14
S'1iYp4~V@'
p35
tp36
Rp37
ag10
(g14
S'\xf8\x08\xe7\xb5D~V@'
p38
tp39
Rp40
ag10
(g14
S'\xe7\xf6\x8e\x15\xa7~V@'
p41
tp42
Rp43
ag10
(g14
S'\xf2zn\xa97|V@'
p44
tp45
Rp46
ag10
(g14
S'\x07\xe9\x91\x15J\x7fV@'
p47
tp48
Rp49
ag10
(g14
S'\xf6!\xfb\xfb\xac{V@'
p50
tp51
Rp52
ag10
(g14
S'\xfc\r,o\x9a{V@'
p53
tp54
Rp55
ag10
(g14
S'\x17G\x9fzz\x7fV@'
p56
tp57
Rp58
ag10
(g14
S"8G'&\xd0~V@"
p59
tp60
Rp61
ag10
(g14
S'\xe0\xde89\x80|V@'
p62
tp63
Rp64
ag10
(g14
S'/\xb0?\x96\xfa\x81V@'
p65
tp66
Rp67
ag10
(g14
S'L(\xf1\xe0\x1d\x7fV@'
p68
tp69
Rp70
ag10
(g14
S'E\xbf\xd8n\xc7{V@'
p71
tp72
Rp73
ag10
(g14
S'!x\xbdq"\x82V@'
p74
tp75
Rp76
asS'target'
p77
(lp78
g10
(g14
S'\xf3\xf6\xd0\x83\x94\x89P@'
p79
tp80
Rp81
ag10
(g14
S'\xd5\x8ac\xb5\xf1\x15R@'
p82
tp83
Rp84
ag10
(g14
S'1\x1a\x1f\x01\xa6\xcaR@'
p85
tp86
Rp87
ag10
(g14
S'$\xdd\xb9\x88\xa3\xe0P@'
p88
tp89
Rp90
ag10
(g14
S'\x0c\xfc"\x9b\x97\x8aW@'
p91
tp92
Rp93
ag10
(g14
S'\xd9\xaem\xd8\x1b\xb2_@'
p94
tp95
Rp96
ag10
(g14
S'\n"\x1ciWhE@'
p97
tp98
Rp99
ag10
(g14
S'/6\xdb]%\xefX@'
p100
tp101
Rp102
ag10
(g14
S'n\x8c\xc5\xd7Y/`@'
p103
tp104
Rp105
ag10
(g14
S'\x1e\x97\xd6\xed3\x05X@'
p106
tp107
Rp108
ag10
(g14
S'\xc0\xc1\x97\xd94[V@'
p109
tp110
Rp111
ag10
(g14
S'\x84?oj\xaf\x9bR@'
p112
tp113
Rp114
ag10
(g14
S'\xf4\xa1^\\\xe1:L@'
p115
tp116
Rp117
ag10
(g14
S'\xaeQ\x12Y\x16\xc4T@'
p118
tp119
Rp120
ag10
(g14
S'/, \x9f\xf9NR@'
p121
tp122
Rp123
ag10
(g14
S'w|_Sc\xf9T@'
p124
tp125
Rp126
ag10
(g14
S'.o\xa7da\x93U@'
p127
tp128
Rp129
ag10
(g14
S'\x8b[6\xe1+\xfeN@'
p130
tp131
Rp132
ag10
(g14
S';{\xc9\xa2\x9f\tX@'
p133
tp134
Rp135
ag10
(g14
S'\x06\x98\xb58L\xa7K@'
p136
tp137
Rp138
asssss.