(dp0
S'../Data/sqlite_19.csv'
p1
(dp2
S'../Data/sqlite_62.csv'
p3
(dp4
F0.2
(dp5
S'mmre'
p6
(dp7
S'bellwether'
p8
(lp9
cnumpy.core.multiarray
scalar
p10
(cnumpy
dtype
p11
(S'f8'
p12
I0
I1
tp13
Rp14
(I3
S'<'
p15
NNNI-1
I-1
I0
tp16
bS'fz\xefY\x8b\x0bQ@'
p17
tp18
Rp19
ag10
(g14
S'\xbe\r\xfdks\x05Q@'
p20
tp21
Rp22
ag10
(g14
S'\x94M\xed\xe7k\x07Q@'
p23
tp24
Rp25
ag10
(g14
S'\x88=\xa4uf\x06Q@'
p26
tp27
Rp28
ag10
(g14
S'M\xca\xe5\xf9\xa9\x07Q@'
p29
tp30
Rp31
ag10
(g14
S'p\xa8\x9b\xc7\xe7\nQ@'
p32
tp33
Rp34
ag10
(g14
S'\xf4(C\xeaC\x07Q@'
p35
tp36
Rp37
ag10
(g14
S'h\xa3\xd8\xc2\xb6\x0bQ@'
p38
tp39
Rp40
ag10
(g14
S'\xfc\xabvm\xd0\nQ@'
p41
tp42
Rp43
ag10
(g14
S'*\xe7\xd8\x91\xa7\nQ@'
p44
tp45
Rp46
ag10
(g14
S'\x89\xa5\x8b\xd1B\nQ@'
p47
tp48
Rp49
ag10
(g14
S't?H\xe5\xaa\x0cQ@'
p50
tp51
Rp52
ag10
(g14
S'\x0f\x13\nF\xa4\x06Q@'
p53
tp54
Rp55
ag10
(g14
S'B%w\x134\x08Q@'
p56
tp57
Rp58
ag10
(g14
S'rq\xc9\xc6\xaa\tQ@'
p59
tp60
Rp61
ag10
(g14
S'\x8f|srv\nQ@'
p62
tp63
Rp64
ag10
(g14
S"\xfa'\xcd\xc4s\x0cQ@"
p65
tp66
Rp67
ag10
(g14
S"&\xe7'Lt\x06Q@"
p68
tp69
Rp70
ag10
(g14
S'`x\xe3 g\x07Q@'
p71
tp72
Rp73
ag10
(g14
S'9J\x9anp\tQ@'
p74
tp75
Rp76
asS'target'
p77
(lp78
g10
(g14
S'9p\xb9\xec#)"@'
p79
tp80
Rp81
ag10
(g14
S'\r1U\xa1,\xf2!@'
p82
tp83
Rp84
ag10
(g14
S'\xcc\x86Z(:\xd5!@'
p85
tp86
Rp87
ag10
(g14
S'\xd5\xba\xd8N\xc7t"@'
p88
tp89
Rp90
ag10
(g14
S'\xce:\x17|\x96\xad"@'
p91
tp92
Rp93
ag10
(g14
S'!\x84\xe8\xdf\xd6b"@'
p94
tp95
Rp96
ag10
(g14
S'\x1a7\x8c\xac_\x9f"@'
p97
tp98
Rp99
ag10
(g14
S'\xb0{\x0b2j="@'
p100
tp101
Rp102
ag10
(g14
S'\xd0\x11a\x9d\xb9D"@'
p103
tp104
Rp105
ag10
(g14
S'\xf2u\xd2\x8d\x19\xf0!@'
p106
tp107
Rp108
ag10
(g14
S'6\xd2_\xe0}\xe3!@'
p109
tp110
Rp111
ag10
(g14
S'+eV\xf1\xf3\xe0 @'
p112
tp113
Rp114
ag10
(g14
S'\x9e_w^\xc9p#@'
p115
tp116
Rp117
ag10
(g14
S'`\x0b1IJ\x16 @'
p118
tp119
Rp120
ag10
(g14
S'>\xa4\xd2\x1at !@'
p121
tp122
Rp123
ag10
(g14
S'Y@\xe0$\xb1\x9d\x1f@'
p124
tp125
Rp126
ag10
(g14
S'\xbf\xc6n\xa0\xeb)"@'
p127
tp128
Rp129
ag10
(g14
S'\xa4_L\xf8JJ"@'
p130
tp131
Rp132
ag10
(g14
S"\xff\xb9J'\x9b!!@"
p133
tp134
Rp135
ag10
(g14
S'BJ\xd8\x84~\xad!@'
p136
tp137
Rp138
asssss.