(dp0
S'../Data/sqlite_48.csv'
p1
(dp2
S'../Data/sqlite_62.csv'
p3
(dp4
F0.2
(dp5
S'mmre'
p6
(dp7
S'bellwether'
p8
(lp9
cnumpy.core.multiarray
scalar
p10
(cnumpy
dtype
p11
(S'f8'
p12
I0
I1
tp13
Rp14
(I3
S'<'
p15
NNNI-1
I-1
I0
tp16
bS"\xda'\x9dI\x99FG@"
p17
tp18
Rp19
ag10
(g14
S'\xa6RBZ\x91CG@'
p20
tp21
Rp22
ag10
(g14
S'\xfbM\xeaE\xf0OG@'
p23
tp24
Rp25
ag10
(g14
S'\x0c\x8aZ8_FG@'
p26
tp27
Rp28
ag10
(g14
S'{|2GVCG@'
p29
tp30
Rp31
ag10
(g14
S'\x8a\xe0\x7f\xdf\xacRG@'
p32
tp33
Rp34
ag10
(g14
S'\xd04\x13\xd0\xc3MG@'
p35
tp36
Rp37
ag10
(g14
S'l\x8f\x9f\x85bNG@'
p38
tp39
Rp40
ag10
(g14
S'&\x90k\x18@?G@'
p41
tp42
Rp43
ag10
(g14
S'O+\x97\x97MJG@'
p44
tp45
Rp46
ag10
(g14
S'r\x1f\n\xa5\x1cFG@'
p47
tp48
Rp49
ag10
(g14
S'\x94\x0e\xa4\n\xbfTG@'
p50
tp51
Rp52
ag10
(g14
S"C'\xa1\xfc\x15>G@"
p53
tp54
Rp55
ag10
(g14
S'\xb6\x17\x8c#\x98SG@'
p56
tp57
Rp58
ag10
(g14
S'\x98\xe5\xde<\x1aKG@'
p59
tp60
Rp61
ag10
(g14
S'\xd1Q\x87W\xe0RG@'
p62
tp63
Rp64
ag10
(g14
S'" \x96\x9f)HG@'
p65
tp66
Rp67
ag10
(g14
S'\xc4\xddFK=EG@'
p68
tp69
Rp70
ag10
(g14
S"A\x9c\x7f\xc0'^G@"
p71
tp72
Rp73
ag10
(g14
S'y\x8b\x8a\xe9"PG@'
p74
tp75
Rp76
asS'target'
p77
(lp78
g10
(g14
S'\xc1\x17\xb6\xa6\xadU!@'
p79
tp80
Rp81
ag10
(g14
S'\xa1r\x1d}Z\xb7#@'
p82
tp83
Rp84
ag10
(g14
S'\x8fQ\xbb!\xdbC"@'
p85
tp86
Rp87
ag10
(g14
S'^\xa8\xb1g\xb4\x17"@'
p88
tp89
Rp90
ag10
(g14
S'\x14G6\xf5\xabe"@'
p91
tp92
Rp93
ag10
(g14
S'\xdd\x8af\x91\xf5\xf8!@'
p94
tp95
Rp96
ag10
(g14
S'tX<\x0fn\xac"@'
p97
tp98
Rp99
ag10
(g14
S'\xdaon\x8a\x96W!@'
p100
tp101
Rp102
ag10
(g14
S'\x1a&\x8d\xa2\xc6\xb5 @'
p103
tp104
Rp105
ag10
(g14
S'\x02\xbfU\xa6]\xb6"@'
p106
tp107
Rp108
ag10
(g14
S'\nx\xd9i@\xb0!@'
p109
tp110
Rp111
ag10
(g14
S'\xe8\xa4(\x12oS @'
p112
tp113
Rp114
ag10
(g14
S'8m\xf1h \x1a!@'
p115
tp116
Rp117
ag10
(g14
S'Z\x00\xf1\xa6\x1c\xea @'
p118
tp119
Rp120
ag10
(g14
S'>h\xf9\xa5\xc6<!@'
p121
tp122
Rp123
ag10
(g14
S'\xa8*\xdbN\xf8&!@'
p124
tp125
Rp126
ag10
(g14
S'\xc1\x17\xd0\xb9\xafK!@'
p127
tp128
Rp129
ag10
(g14
S'6\xb0cH\xa9\xb4"@'
p130
tp131
Rp132
ag10
(g14
S'\x8e\x8d\xd7\x85%\xbe!@'
p133
tp134
Rp135
ag10
(g14
S'(\x8aI\xc7\x91\xe9!@'
p136
tp137
Rp138
asssss.