(dp0
S'../Data/sqlite_59.csv'
p1
(dp2
S'../Data/sqlite_78.csv'
p3
(dp4
F0.05
(dp5
S'mmre'
p6
(dp7
S'bellwether'
p8
(lp9
cnumpy.core.multiarray
scalar
p10
(cnumpy
dtype
p11
(S'f8'
p12
I0
I1
tp13
Rp14
(I3
S'<'
p15
NNNI-1
I-1
I0
tp16
bS'\xd2\xa1\x83\xdb2Ze@'
p17
tp18
Rp19
ag10
(g14
S'$\x0cs\xd9yHe@'
p20
tp21
Rp22
ag10
(g14
S'n\x11\x14\x17\xaaAe@'
p23
tp24
Rp25
ag10
(g14
S'\x91p\xc4N\xefQe@'
p26
tp27
Rp28
ag10
(g14
S'\xf3\xc5/,/Ie@'
p29
tp30
Rp31
ag10
(g14
S' \xf0\xaf\t\x9bDe@'
p32
tp33
Rp34
ag10
(g14
S'\x97L&\x83\xddCe@'
p35
tp36
Rp37
ag10
(g14
S'\x1c\xbeS\xd4[Je@'
p38
tp39
Rp40
ag10
(g14
S'\xdd\x12}\xee\xad?e@'
p41
tp42
Rp43
ag10
(g14
S'\xc8\xec\xb2:\xdcZe@'
p44
tp45
Rp46
ag10
(g14
S'\xc3?\x1f\x98\x02Je@'
p47
tp48
Rp49
ag10
(g14
S'\x05Bz\xe1\x96Ae@'
p50
tp51
Rp52
ag10
(g14
S'\x1e\\\xfb\x06\xb5Se@'
p53
tp54
Rp55
ag10
(g14
S'\xc4\xc7\xcc\xc0&Re@'
p56
tp57
Rp58
ag10
(g14
S'\xf8"A\xdc\x89Oe@'
p59
tp60
Rp61
ag10
(g14
S'n&\xab\xaa\x0eNe@'
p62
tp63
Rp64
ag10
(g14
S'\x08\xf2\x91/qAe@'
p65
tp66
Rp67
ag10
(g14
S'\\\x97a]2Ie@'
p68
tp69
Rp70
ag10
(g14
S'\x8fS\xdcKYMe@'
p71
tp72
Rp73
ag10
(g14
S' $q\x8aFTe@'
p74
tp75
Rp76
asS'target'
p77
(lp78
g10
(g14
S'\x92H\x0c\xb8\xc4\x7f5@'
p79
tp80
Rp81
ag10
(g14
S'\xa0NANYN3@'
p82
tp83
Rp84
ag10
(g14
S'F\xab\xbd\x90\xb2s5@'
p85
tp86
Rp87
ag10
(g14
S'G@m\xc4\xb4^1@'
p88
tp89
Rp90
ag10
(g14
S'\x1d\xe9\xb3\xb4\xa8n3@'
p91
tp92
Rp93
ag10
(g14
S'\xe2]\xa5\xa4\xe6\x0c3@'
p94
tp95
Rp96
ag10
(g14
S'\xaaFG\x9a9\xd43@'
p97
tp98
Rp99
ag10
(g14
S'\xd3\xfb\x9c 2\x894@'
p100
tp101
Rp102
ag10
(g14
S'\xfb\xfc\xdaF\xf0\xd84@'
p103
tp104
Rp105
ag10
(g14
S'\x1f\x1dey.U4@'
p106
tp107
Rp108
ag10
(g14
S'\xb6x\xf1\xa8wo6@'
p109
tp110
Rp111
ag10
(g14
S'\xe0s\r\x1a0]3@'
p112
tp113
Rp114
ag10
(g14
S'\xc4\x1d\xb0\xc5\x1b\x8d6@'
p115
tp116
Rp117
ag10
(g14
S'\xf6\x92-/M\xa62@'
p118
tp119
Rp120
ag10
(g14
S'\xf6c\xe10\xbbt4@'
p121
tp122
Rp123
ag10
(g14
S'\xbd\x88\xc9\x12{\x1e3@'
p124
tp125
Rp126
ag10
(g14
S'\x92\xc3\xf4\x1cFe5@'
p127
tp128
Rp129
ag10
(g14
S'v\x088pK\x152@'
p130
tp131
Rp132
ag10
(g14
S'/<*1\x1a\xc35@'
p133
tp134
Rp135
ag10
(g14
S'h\xd4@OB\xbf6@'
p136
tp137
Rp138
asssss.