(dp0
S'../Data/sqlite_85.csv'
p1
(dp2
S'../Data/sqlite_2.csv'
p3
(dp4
F0.05
(dp5
S'abs_res'
p6
(dp7
S'bellwether'
p8
(lp9
cnumpy.core.multiarray
scalar
p10
(cnumpy
dtype
p11
(S'f8'
p12
I0
I1
tp13
Rp14
(I3
S'<'
p15
NNNI-1
I-1
I0
tp16
bS'\xfe\xd2M\xa2:IZA'
p17
tp18
Rp19
ag10
(g14
S'(\xea\xdfp9GZA'
p20
tp21
Rp22
ag10
(g14
S'\xad\xc6K\xf7\xba@ZA'
p23
tp24
Rp25
ag10
(g14
S'\xd3Mb\xb8,\x1dZA'
p26
tp27
Rp28
ag10
(g14
S'\x1b/\xdd\x94\xee\x17ZA'
p29
tp30
Rp31
ag10
(g14
S'\x82\xc0\xca\xb1e<ZA'
p32
tp33
Rp34
ag10
(g14
S'\xd3\xf7S\xfb\x9dAZA'
p35
tp36
Rp37
ag10
(g14
S'+\xb2\x9d\xaf\xb7?ZA'
p38
tp39
Rp40
ag10
(g14
S':\xb4\xc8v\xee\x1eZA'
p41
tp42
Rp43
ag10
(g14
S'\xd0x\xe9\xde0"ZA'
p44
tp45
Rp46
ag10
(g14
S'\xc0t\x93HO\x1eZA'
p47
tp48
Rp49
ag10
(g14
S'P\x0e-\x1a\xc1JZA'
p50
tp51
Rp52
ag10
(g14
S'\xc8\x85\xa4\x99\xd9OZA'
p53
tp54
Rp55
ag10
(g14
S'X9\xb4\xe8\xe2`ZA'
p56
tp57
Rp58
ag10
(g14
S'"Zd;\x96\x1dZA'
p59
tp60
Rp61
ag10
(g14
S'\x88\x16\xd9>d&ZA'
p62
tp63
Rp64
ag10
(g14
S'$\x85\xeb\xd9p=ZA'
p65
tp66
Rp67
ag10
(g14
S'\xb9\xf3\xfd\xa4\xd83ZA'
p68
tp69
Rp70
ag10
(g14
S'C\x19\xbde\x88@ZA'
p71
tp72
Rp73
ag10
(g14
S'\xe0\x87\xcfxt?ZA'
p74
tp75
Rp76
asS'target'
p77
(lp78
g10
(g14
S'#\x04V\x0e-.a@'
p79
tp80
Rp81
ag10
(g14
S'\x95\xed|?5\x06U@'
p82
tp83
Rp84
ag10
(g14
S'\xa5\x1a/\xdd$&R@'
p85
tp86
Rp87
ag10
(g14
S'\xc2\x1e\x85\xebQ\xc8a@'
p88
tp89
Rp90
ag10
(g14
S'\x08V\x0e-\xb2}T@'
p91
tp92
Rp93
ag10
(g14
S'\xdcx\xe9&1\x18R@'
p94
tp95
Rp96
ag10
(g14
S'95^\xbaI\xbcU@'
p97
tp98
Rp99
ag10
(g14
S"'\\\x8f\xc2\xf5HX@"
p100
tp101
Rp102
ag10
(g14
S'\x00)\\\x8f\xc2\x05Y@'
p103
tp104
Rp105
ag10
(g14
S'\x0c\x81\x95C\x8b\x9cZ@'
p106
tp107
Rp108
ag10
(g14
S'\xb9\x1e\x85\xebQ@S@'
p109
tp110
Rp111
ag10
(g14
S'y\xe9&1\x08,^@'
p112
tp113
Rp114
ag10
(g14
S'Tb\x10X9\xa4T@'
p115
tp116
Rp117
ag10
(g14
S'\xd3Mb\x10X\xb9S@'
p118
tp119
Rp120
ag10
(g14
S'C\n\xd7\xa3p\x85V@'
p121
tp122
Rp123
ag10
(g14
S'\x1a\xb0rh\x91UX@'
p124
tp125
Rp126
ag10
(g14
S'[d;\xdfO\xedW@'
p127
tp128
Rp129
ag10
(g14
S'\xfdS\xe3\xa5\x9b<S@'
p130
tp131
Rp132
ag10
(g14
S'\x90\x97n\x12\x83\x80[@'
p133
tp134
Rp135
ag10
(g14
S'\xdex\xe9&1`S@'
p136
tp137
Rp138
asssss.