(dp0
S'../Data/sqlite_15.csv'
p1
(dp2
S'../Data/sqlite_23.csv'
p3
(dp4
F0.15
(dp5
S'abs_res'
p6
(dp7
S'bellwether'
p8
(lp9
cnumpy.core.multiarray
scalar
p10
(cnumpy
dtype
p11
(S'f8'
p12
I0
I1
tp13
Rp14
(I3
S'<'
p15
NNNI-1
I-1
I0
tp16
bS'_9\xb4h8;@A'
p17
tp18
Rp19
ag10
(g14
S'=\n\xd7\xe3\xb6;@A'
p20
tp21
Rp22
ag10
(g14
S'E\xb6\xf3}u;@A'
p23
tp24
Rp25
ag10
(g14
S'\xb7\x81N\xeb\xf3:@A'
p26
tp27
Rp28
ag10
(g14
S';\n\xd7#\x15<@A'
p29
tp30
Rp31
ag10
(g14
S'\x95\x18\x04\xb6>;@A'
p32
tp33
Rp34
ag10
(g14
S'q\x12\x83\x00\xa6;@A'
p35
tp36
Rp37
ag10
(g14
S'Nb\x10(.;@A'
p38
tp39
Rp40
ag10
(g14
S'?\xc3\xae\x00\xef:@A'
p41
tp42
Rp43
ag10
(g14
S'6\xec\n@\x15;@A'
p44
tp45
Rp46
ag10
(g14
S'k\x91\xed\xbc\xee:@A'
p47
tp48
Rp49
ag10
(g14
S'\x1f\xb0r8 ;@A'
p50
tp51
Rp52
ag10
(g14
S'\xfd\xa9\xf1\xc2l;@A'
p53
tp54
Rp55
ag10
(g14
S'\x11\x83\xc0\n\x11:@A'
p56
tp57
Rp58
ag10
(g14
S'u\x12\x83\x00k;@A'
p59
tp60
Rp61
ag10
(g14
S'\x00c\xc9\x9f\x1c;@A'
p62
tp63
Rp64
ag10
(g14
S'\x01\xe4^3D;@A'
p65
tp66
Rp67
ag10
(g14
S'\xc3\xca\xa1\xf52;@A'
p68
tp69
Rp70
ag10
(g14
S"\x84\xcf\xb0\xeb';@A"
p71
tp72
Rp73
ag10
(g14
S'\x8aA`\xc5\xa8;@A'
p74
tp75
Rp76
asS'target'
p77
(lp78
g10
(g14
S'\xe2\xce\xf7S\xe3\xe5=@'
p79
tp80
Rp81
ag10
(g14
S'\x88l\xe7\xfb\xa9!@@'
p82
tp83
Rp84
ag10
(g14
S'C5^\xbaI\xfcB@'
p85
tp86
Rp87
ag10
(g14
S'\x9e\x1a/\xdd$\xbe@@'
p88
tp89
Rp90
ag10
(g14
S'0\xb2\x9d\xef\xa7fA@'
p91
tp92
Rp93
ag10
(g14
S'qh\x91\xed|\x9f?@'
p94
tp95
Rp96
ag10
(g14
S'\xd6"\xdb\xf9~\xba@@'
p97
tp98
Rp99
ag10
(g14
S'*1\x08\xac\x1c\xaa@@'
p100
tp101
Rp102
ag10
(g14
S'u\x12\x83\xc0\xca\xd1@@'
p103
tp104
Rp105
ag10
(g14
S'm\x12\x83\xc0\xca1B@'
p106
tp107
Rp108
ag10
(g14
S'\t\xd7\xa3p=\xaaA@'
p109
tp110
Rp111
ag10
(g14
S'b\x8f\xc2\xf5(\\A@'
p112
tp113
Rp114
ag10
(g14
S'\x04+\x87\x16\xd9\xee>@'
p115
tp116
Rp117
ag10
(g14
S'?`\xe5\xd0"+A@'
p118
tp119
Rp120
ag10
(g14
S'\xe8\xd0"\xdb\xf9\x1eB@'
p121
tp122
Rp123
ag10
(g14
S'\x1c/\xdd$\x06\x01A@'
p124
tp125
Rp126
ag10
(g14
S'r\xe9&1\x08\xdcA@'
p127
tp128
Rp129
ag10
(g14
S'd;\xdfO\x8dwB@'
p130
tp131
Rp132
ag10
(g14
S'fffff\x06@@'
p133
tp134
Rp135
ag10
(g14
S'\xdfMb\x10X9?@'
p136
tp137
Rp138
asssss.