(dp0
S'../Data/sqlite_32.csv'
p1
(dp2
S'../Data/sqlite_95.csv'
p3
(dp4
F0.25
(dp5
S'mmre'
p6
(dp7
S'bellwether'
p8
(lp9
cnumpy.core.multiarray
scalar
p10
(cnumpy
dtype
p11
(S'f8'
p12
I0
I1
tp13
Rp14
(I3
S'<'
p15
NNNI-1
I-1
I0
tp16
bS'}\x122\x1a\xb5\x03S@'
p17
tp18
Rp19
ag10
(g14
S'\x06W\xbf@?oR@'
p20
tp21
Rp22
ag10
(g14
S'^\xbd)\x9c,;S@'
p23
tp24
Rp25
ag10
(g14
S'+\xf8\xdeR\xe2jS@'
p26
tp27
Rp28
ag10
(g14
S'kw!arxR@'
p29
tp30
Rp31
ag10
(g14
S'!0XP"\xd6R@'
p32
tp33
Rp34
ag10
(g14
S'k\x9b\x86\x96A\x8fR@'
p35
tp36
Rp37
ag10
(g14
S'S\xe7Bg\xbb\xa7R@'
p38
tp39
Rp40
ag10
(g14
S'\xcf}\xe5\xacX\x8dR@'
p41
tp42
Rp43
ag10
(g14
S'\xe2b_Yq\xcbR@'
p44
tp45
Rp46
ag10
(g14
S'\x96.#D\xd4kR@'
p47
tp48
Rp49
ag10
(g14
S'\\)h\x90\xe0\xb2R@'
p50
tp51
Rp52
ag10
(g14
S'>\x93\xee\xe6\xf5\xb7R@'
p53
tp54
Rp55
ag10
(g14
S'R\x02\x0e\x1aG\xceR@'
p56
tp57
Rp58
ag10
(g14
S'\x90-,5\xde\xd7R@'
p59
tp60
Rp61
ag10
(g14
S'\xcdt\x10\x8f\x97=R@'
p62
tp63
Rp64
ag10
(g14
S'\xca#\x9b\xe7\x0b\xe4R@'
p65
tp66
Rp67
ag10
(g14
S'%\x1c\xa1\x81\x08\x1aS@'
p68
tp69
Rp70
ag10
(g14
S'\xeb#dq\xe10R@'
p71
tp72
Rp73
ag10
(g14
S'X\x17\x8bS\x98\x10S@'
p74
tp75
Rp76
asS'target'
p77
(lp78
g10
(g14
S'\xca\x01\xaf\x9c\x0f\nB@'
p79
tp80
Rp81
ag10
(g14
S'\xe5vS\xccv\x93>@'
p82
tp83
Rp84
ag10
(g14
S'\x1b#\xee:\x04\x16A@'
p85
tp86
Rp87
ag10
(g14
S'\xf6\x95\xeatTd@@'
p88
tp89
Rp90
ag10
(g14
S'\x8c\xe8\x84InXD@'
p91
tp92
Rp93
ag10
(g14
S'\x0b\x89\xb9[\xce\xd6A@'
p94
tp95
Rp96
ag10
(g14
S'\n\xb5o\xa6\x8f\xa0@@'
p97
tp98
Rp99
ag10
(g14
S'\xf7\xfb:\xcb\x97\x81@@'
p100
tp101
Rp102
ag10
(g14
S'\xfd\x88\xaf\xff\x00\x0f@@'
p103
tp104
Rp105
ag10
(g14
S'5\t\xf8\x9f\xb1\xd1@@'
p106
tp107
Rp108
ag10
(g14
S'\xf9\x84\x00\x98\xee\xcaB@'
p109
tp110
Rp111
ag10
(g14
S')TK4\x81oB@'
p112
tp113
Rp114
ag10
(g14
S'\x1bl-c\r,D@'
p115
tp116
Rp117
ag10
(g14
S'\x9e@\xa2\xfa\x1b\xb3E@'
p118
tp119
Rp120
ag10
(g14
S'<\x93\rY!QC@'
p121
tp122
Rp123
ag10
(g14
S'Jl\xb7(\xa6\xf1@@'
p124
tp125
Rp126
ag10
(g14
S'\xd5AD\xb6<\x1dB@'
p127
tp128
Rp129
ag10
(g14
S'1\x95j\xa8jzC@'
p130
tp131
Rp132
ag10
(g14
S'iC\xb9,h4A@'
p133
tp134
Rp135
ag10
(g14
S'!e\x8b\xda\xcb\xed@@'
p136
tp137
Rp138
asssss.