(dp0
S'../Data/sqlite_33.csv'
p1
(dp2
S'../Data/sqlite_80.csv'
p3
(dp4
F0.05
(dp5
S'mmre'
p6
(dp7
S'bellwether'
p8
(lp9
cnumpy.core.multiarray
scalar
p10
(cnumpy
dtype
p11
(S'f8'
p12
I0
I1
tp13
Rp14
(I3
S'<'
p15
NNNI-1
I-1
I0
tp16
bS'j\xcf\xa3\xcfmKX@'
p17
tp18
Rp19
ag10
(g14
S'_\x95ijRKX@'
p20
tp21
Rp22
ag10
(g14
S'q\xfa\x01\xfe`KX@'
p23
tp24
Rp25
ag10
(g14
S'_S\xaa`iKX@'
p26
tp27
Rp28
ag10
(g14
S'\xeb}\x861hKX@'
p29
tp30
Rp31
ag10
(g14
S'\xb4\xf66\x02^KX@'
p32
tp33
Rp34
ag10
(g14
S'\xa1{|\xa7`KX@'
p35
tp36
Rp37
ag10
(g14
S'\xc9\x80\x82\xc3eKX@'
p38
tp39
Rp40
ag10
(g14
S'\xe2\xd7}\xe6aKX@'
p41
tp42
Rp43
ag10
(g14
S'\xef\xd5"\x85gKX@'
p44
tp45
Rp46
ag10
(g14
S'\xdd\xc1\x84\x9e^KX@'
p47
tp48
Rp49
ag10
(g14
S'\xf1\xdd[\x92fKX@'
p50
tp51
Rp52
ag10
(g14
S'\xac\x07\xe0\xb8\\KX@'
p53
tp54
Rp55
ag10
(g14
S'\x89c<T]KX@'
p56
tp57
Rp58
ag10
(g14
S'M\xb3\x9c3\\KX@'
p59
tp60
Rp61
ag10
(g14
S'\xfb\x0e\x07P\\KX@'
p62
tp63
Rp64
ag10
(g14
S'i\x95\xae\x04[KX@'
p65
tp66
Rp67
ag10
(g14
S' \xfc1\xbeVKX@'
p68
tp69
Rp70
ag10
(g14
S'+\x0e\x0b%UKX@'
p71
tp72
Rp73
ag10
(g14
S'BB"cXKX@'
p74
tp75
Rp76
asS'target'
p77
(lp78
g10
(g14
S'-v\xdbK\x96f\xf0?'
p79
tp80
Rp81
ag10
(g14
S'\xe5L@\x91<\xd2\xee?'
p82
tp83
Rp84
ag10
(g14
S'\xe7\x89oa&\xd9\xf2?'
p85
tp86
Rp87
ag10
(g14
S'\xe5\xa5\x1eL\xb5\xb1\xed?'
p88
tp89
Rp90
ag10
(g14
S'u\x13\x1c\xd7-]\xef?'
p91
tp92
Rp93
ag10
(g14
S'x\xa8\xb5\x02y#\xf0?'
p94
tp95
Rp96
ag10
(g14
S'\x0b\xf0D\xbd\x18,\xf1?'
p97
tp98
Rp99
ag10
(g14
S'\r\xbd)-I\x85\xee?'
p100
tp101
Rp102
ag10
(g14
S'\xe67\x0f\xe2\xcc\xbc\xf0?'
p103
tp104
Rp105
ag10
(g14
S'\xac\xd5OT)\x99\xec?'
p106
tp107
Rp108
ag10
(g14
S'\x92\x92*\xfbS\xdc\xf0?'
p109
tp110
Rp111
ag10
(g14
S';7\xbdg\x1a\x7f\xf2?'
p112
tp113
Rp114
ag10
(g14
S'\xad?\x8fs\xbf\x7f\xf0?'
p115
tp116
Rp117
ag10
(g14
S'\x85[9\x1c \xb2\xf0?'
p118
tp119
Rp120
ag10
(g14
S'<\xd9\xd1\xb1\xf6M\xef?'
p121
tp122
Rp123
ag10
(g14
S'UHl[\x11\xa8\xee?'
p124
tp125
Rp126
ag10
(g14
S'\x9f\xbe^\xf1\xebO\xf1?'
p127
tp128
Rp129
ag10
(g14
S'Ns\xdf\xfe\xe0`\xf4?'
p130
tp131
Rp132
ag10
(g14
S'\xc3\x19Y:N`\xf0?'
p133
tp134
Rp135
ag10
(g14
S'"$\xe89\x12t\xf2?'
p136
tp137
Rp138
asssss.