(dp0
S'../Data/sqlite_16.csv'
p1
(dp2
S'../Data/sqlite_37.csv'
p3
(dp4
F0.15
(dp5
S'mmre'
p6
(dp7
S'bellwether'
p8
(lp9
cnumpy.core.multiarray
scalar
p10
(cnumpy
dtype
p11
(S'f8'
p12
I0
I1
tp13
Rp14
(I3
S'<'
p15
NNNI-1
I-1
I0
tp16
bS'\x84r\xa5\n\xd2\\^@'
p17
tp18
Rp19
ag10
(g14
S'\x1b|d\x0b\xb0<^@'
p20
tp21
Rp22
ag10
(g14
S"n\x84'l\x1dG^@"
p23
tp24
Rp25
ag10
(g14
S'\x8c(\x97\x18_E^@'
p26
tp27
Rp28
ag10
(g14
S'\x80a\x1e_NV^@'
p29
tp30
Rp31
ag10
(g14
S'g.>z\x81-^@'
p32
tp33
Rp34
ag10
(g14
S'\xbd&z+TV^@'
p35
tp36
Rp37
ag10
(g14
S'\xa2\xf5\xf3\xc8\xbd>^@'
p38
tp39
Rp40
ag10
(g14
S'An#\xcd\x8aW^@'
p41
tp42
Rp43
ag10
(g14
S'\xc9@\xbb\xd58K^@'
p44
tp45
Rp46
ag10
(g14
S'\xb4N,\xe0\xdeN^@'
p47
tp48
Rp49
ag10
(g14
S'R\xf4@\x9c\xa3G^@'
p50
tp51
Rp52
ag10
(g14
S'\xfe\xb0\xa6m\x8cN^@'
p53
tp54
Rp55
ag10
(g14
S'\xa2#\xaf?\x0f;^@'
p56
tp57
Rp58
ag10
(g14
S'\xe07\xb8\x8d\x93G^@'
p59
tp60
Rp61
ag10
(g14
S'\xcff\xbc3\x97U^@'
p62
tp63
Rp64
ag10
(g14
S'\x10\xaf+b(@^@'
p65
tp66
Rp67
ag10
(g14
S'\xc0y\xff\xff;\\^@'
p68
tp69
Rp70
ag10
(g14
S'^\xc2\x7f\x06\xd4V^@'
p71
tp72
Rp73
ag10
(g14
S'W\x18\xbaZ,U^@'
p74
tp75
Rp76
asS'target'
p77
(lp78
g10
(g14
S'\x87)?Kp(\x0c@'
p79
tp80
Rp81
ag10
(g14
S'i\x92@u58\r@'
p82
tp83
Rp84
ag10
(g14
S'Q\xfdX\xb6"\xe9\x0c@'
p85
tp86
Rp87
ag10
(g14
S'\xf7\xff\x90\x15\xc2\x89\x0b@'
p88
tp89
Rp90
ag10
(g14
S'\x07\xff\xa8Uc\x8b\x0b@'
p91
tp92
Rp93
ag10
(g14
S'JkH\xe8\x13\x97\r@'
p94
tp95
Rp96
ag10
(g14
S'\xe2c\xde\x0b\xeb1\x0b@'
p97
tp98
Rp99
ag10
(g14
S'\xc4&\xe4a\xce\x1d\r@'
p100
tp101
Rp102
ag10
(g14
S'\xa2,e\x08\x04\xd2\x0c@'
p103
tp104
Rp105
ag10
(g14
S'\x90\xc0.&\xecS\x0c@'
p106
tp107
Rp108
ag10
(g14
S'@\xa0\xdcw\x1d.\x0e@'
p109
tp110
Rp111
ag10
(g14
S'd}}\xb4FL\x0c@'
p112
tp113
Rp114
ag10
(g14
S'\x83KK/\x9dU\x0c@'
p115
tp116
Rp117
ag10
(g14
S'$h)\xe6c\xe0\x0c@'
p118
tp119
Rp120
ag10
(g14
S"\x13\xa3'p\xeb/\x0e@"
p121
tp122
Rp123
ag10
(g14
S'\xb7T\x1489\xf6\n@'
p124
tp125
Rp126
ag10
(g14
S'\xcbL\xc0d\xd8\xd8\x0e@'
p127
tp128
Rp129
ag10
(g14
S'\xe4\x8e\xd3\x88d\x00\x0c@'
p130
tp131
Rp132
ag10
(g14
S'\x87u\x8edD\x82\x0c@'
p133
tp134
Rp135
ag10
(g14
S'\xd3u@\xe9p>\x0c@'
p136
tp137
Rp138
asssss.