(dp0
S'../Data/sqlite_69.csv'
p1
(dp2
S'../Data/sqlite_77.csv'
p3
(dp4
F0.3
(dp5
S'mmre'
p6
(dp7
S'bellwether'
p8
(lp9
cnumpy.core.multiarray
scalar
p10
(cnumpy
dtype
p11
(S'f8'
p12
I0
I1
tp13
Rp14
(I3
S'<'
p15
NNNI-1
I-1
I0
tp16
bS'"2\xee\xc4\xe6dd@'
p17
tp18
Rp19
ag10
(g14
S'SZ8Rcbd@'
p20
tp21
Rp22
ag10
(g14
S'\xael\x1a__ld@'
p23
tp24
Rp25
ag10
(g14
S'W8\xd8]>vd@'
p26
tp27
Rp28
ag10
(g14
S'\xb5D\x00l\xabSd@'
p29
tp30
Rp31
ag10
(g14
S'\xa8\x13\x9d\xac\xaaid@'
p32
tp33
Rp34
ag10
(g14
S'=I, Svd@'
p35
tp36
Rp37
ag10
(g14
S'1\x14\x08p]:d@'
p38
tp39
Rp40
ag10
(g14
S'\x91\x02\xa3\\\x99\x7fd@'
p41
tp42
Rp43
ag10
(g14
S'\x8fh\xf3\x17\xc7\x88d@'
p44
tp45
Rp46
ag10
(g14
S'P\x9c/l~^d@'
p47
tp48
Rp49
ag10
(g14
S'_F\x9bE\xf7>d@'
p50
tp51
Rp52
ag10
(g14
S'%\xb5\xb5S\x13[d@'
p53
tp54
Rp55
ag10
(g14
S'T\x82;\xbcKkd@'
p56
tp57
Rp58
ag10
(g14
S'Q\x83\x82"\x90zd@'
p59
tp60
Rp61
ag10
(g14
S'|\x8e\x81]\x0fxd@'
p62
tp63
Rp64
ag10
(g14
S'K\x95\xd7\xb1/pd@'
p65
tp66
Rp67
ag10
(g14
S'\x0e\xd3W\xfa\xfbFd@'
p68
tp69
Rp70
ag10
(g14
S'\x89d\xfd\xbb\xcftd@'
p71
tp72
Rp73
ag10
(g14
S'r\xcd?\xfc\x93,d@'
p74
tp75
Rp76
asS'target'
p77
(lp78
g10
(g14
S'B\xd2\xc7\xd3 \xd25@'
p79
tp80
Rp81
ag10
(g14
S'V\xf0)e8b4@'
p82
tp83
Rp84
ag10
(g14
S"\x1e\xbbH'\xa8\x816@"
p85
tp86
Rp87
ag10
(g14
S'l\xe3\x04\xa6/V4@'
p88
tp89
Rp90
ag10
(g14
S'\x12\x06\xba\xa5\xd2\x127@'
p91
tp92
Rp93
ag10
(g14
S'y\xa0\x90\xdf\xa3u5@'
p94
tp95
Rp96
ag10
(g14
S'=\xa4\x9d\x9f\xce\xb45@'
p97
tp98
Rp99
ag10
(g14
S"\x98\xc4'\x85\xd7\\4@"
p100
tp101
Rp102
ag10
(g14
S'\xdf\x07\x862 i5@'
p103
tp104
Rp105
ag10
(g14
S'\xc4JW0v%6@'
p106
tp107
Rp108
ag10
(g14
S'9%A\x1fRc7@'
p109
tp110
Rp111
ag10
(g14
S'\xcc9V\xa8cA6@'
p112
tp113
Rp114
ag10
(g14
S'\x81\xce\x815\xe0K7@'
p115
tp116
Rp117
ag10
(g14
S'\xb7\xa6\xa4\xf9\xe0\xdc6@'
p118
tp119
Rp120
ag10
(g14
S' \xc4k\xcfo\xa14@'
p121
tp122
Rp123
ag10
(g14
S'\x05e\x19\xcd<)7@'
p124
tp125
Rp126
ag10
(g14
S'\xb0\x9a\xcd;!;7@'
p127
tp128
Rp129
ag10
(g14
S'\x89\x18s\xbf2L5@'
p130
tp131
Rp132
ag10
(g14
S'UQn\x19[T6@'
p133
tp134
Rp135
ag10
(g14
S'\xf0\xf3\xc6\x01I\x085@'
p136
tp137
Rp138
asssss.