(dp0
S'../Data/sqlite_8.csv'
p1
(dp2
S'../Data/sqlite_38.csv'
p3
(dp4
F0.15
(dp5
S'mmre'
p6
(dp7
S'bellwether'
p8
(lp9
cnumpy.core.multiarray
scalar
p10
(cnumpy
dtype
p11
(S'f8'
p12
I0
I1
tp13
Rp14
(I3
S'<'
p15
NNNI-1
I-1
I0
tp16
bS'\x1a\x94\x9ew}8X@'
p17
tp18
Rp19
ag10
(g14
S'\xcc{f\xd7?8X@'
p20
tp21
Rp22
ag10
(g14
S'\xd4\xae\xcc\x8bN8X@'
p23
tp24
Rp25
ag10
(g14
S'U*`\xf5@8X@'
p26
tp27
Rp28
ag10
(g14
S'\xcdO]\xcaS8X@'
p29
tp30
Rp31
ag10
(g14
S'6K\x10\x03V8X@'
p32
tp33
Rp34
ag10
(g14
S'\xd8\x9e\xfb-D8X@'
p35
tp36
Rp37
ag10
(g14
S'\t\x19 2V8X@'
p38
tp39
Rp40
ag10
(g14
S'\x0f\x98|%<8X@'
p41
tp42
Rp43
ag10
(g14
S'G\xbf\x8c\x1aZ8X@'
p44
tp45
Rp46
ag10
(g14
S')\x86\xa6+Y8X@'
p47
tp48
Rp49
ag10
(g14
S'[\xbd\xe3qg8X@'
p50
tp51
Rp52
ag10
(g14
S'\xd9(\xdbG\\8X@'
p53
tp54
Rp55
ag10
(g14
S'G/\x81\xa8V8X@'
p56
tp57
Rp58
ag10
(g14
S')\xbfx\xbd]8X@'
p59
tp60
Rp61
ag10
(g14
S'\xc1!\x02\xd7N8X@'
p62
tp63
Rp64
ag10
(g14
S'J\x04N[A8X@'
p65
tp66
Rp67
ag10
(g14
S'\xd883\xc0_8X@'
p68
tp69
Rp70
ag10
(g14
S"\x88\xfcL\xb6'8X@"
p71
tp72
Rp73
ag10
(g14
S'\xe9\xbcA\xf0J8X@'
p74
tp75
Rp76
asS'target'
p77
(lp78
g10
(g14
S'\x8a\xa9w\xaeR\x8a\xf0?'
p79
tp80
Rp81
ag10
(g14
S'U\xf7:\\\x1c\x7f\xef?'
p82
tp83
Rp84
ag10
(g14
S'V\xb0\xb1\x8b\xdc\xf8\xee?'
p85
tp86
Rp87
ag10
(g14
S'D+!\xa3)\xe1\xf0?'
p88
tp89
Rp90
ag10
(g14
S'+q|;x5\xf0?'
p91
tp92
Rp93
ag10
(g14
S'h\xf6\xce#C\x9e\xf1?'
p94
tp95
Rp96
ag10
(g14
S'ZI\xdb\x9c\x8e)\xf9?'
p97
tp98
Rp99
ag10
(g14
S'\t6\xd1\xc4\x0f\xf1\xf0?'
p100
tp101
Rp102
ag10
(g14
S'\xe8\xdf&\x8d6\x81\xf7?'
p103
tp104
Rp105
ag10
(g14
S'=~\xdc"\xe2\xd9\xef?'
p106
tp107
Rp108
ag10
(g14
S'1+`\xbb\xb3J\xf0?'
p109
tp110
Rp111
ag10
(g14
S'\xc3\x1a\x90Z\xf3b\xf1?'
p112
tp113
Rp114
ag10
(g14
S'>6\x08\xa1\xd6\xa3\xf0?'
p115
tp116
Rp117
ag10
(g14
S'6\xf7V\x8aE\xf5\xf0?'
p118
tp119
Rp120
ag10
(g14
S'\xc2*\xbf\xb2\x948\xf0?'
p121
tp122
Rp123
ag10
(g14
S'\xd0\x86\x98a\x1f\x8a\xee?'
p124
tp125
Rp126
ag10
(g14
S'\xb0)\xe3%\xa8\xd9\xf9?'
p127
tp128
Rp129
ag10
(g14
S'L>\x8c#\xa8J\xf0?'
p130
tp131
Rp132
ag10
(g14
S'\x08o\x8a""\xd8\xf0?'
p133
tp134
Rp135
ag10
(g14
S'\xdc\xf4\x94wcF\xf1?'
p136
tp137
Rp138
asssss.