(dp0
S'../Data/sqlite_71.csv'
p1
(dp2
S'../Data/sqlite_44.csv'
p3
(dp4
F0.05
(dp5
S'abs_res'
p6
(dp7
S'bellwether'
p8
(lp9
cnumpy.core.multiarray
scalar
p10
(cnumpy
dtype
p11
(S'f8'
p12
I0
I1
tp13
Rp14
(I3
S'<'
p15
NNNI-1
I-1
I0
tp16
bS'\n\xd7\xa3\x92\xe1BpA'
p17
tp18
Rp19
ag10
(g14
S'\xb7rh\xd1\xc0=pA'
p20
tp21
Rp22
ag10
(g14
S'<\n\xd7i\xfdApA'
p23
tp24
Rp25
ag10
(g14
S'Pb\x10^JCpA'
p26
tp27
Rp28
ag10
(g14
S'\x1e/\xdd\xa0}BpA'
p29
tp30
Rp31
ag10
(g14
S'\xac\x1cZ:zCpA'
p32
tp33
Rp34
ag10
(g14
S'e\xad\x8e\x87\xfcApA'
p35
tp36
Rp37
ag10
(g14
S'\x18\x04V\xd0{ApA'
p38
tp39
Rp40
ag10
(g14
S'D\xb6\xf3!\xfdCpA'
p41
tp42
Rp43
ag10
(g14
S'\xba\xf3\xfd\xcc\xe9DpA'
p44
tp45
Rp46
ag10
(g14
S'6\x08\xac\x84\xc0BpA'
p47
tp48
Rp49
ag10
(g14
S'\x01G(\x9d=BpA'
p50
tp51
Rp52
ag10
(g14
S'}j\xbcd\x12ApA'
p53
tp54
Rp55
ag10
(g14
S'&\x06\x81\x99\xf9BpA'
p56
tp57
Rp58
ag10
(g14
S'\x81\xebQ\xaehDpA'
p59
tp60
Rp61
ag10
(g14
S'\x03\x81\x95_BCpA'
p62
tp63
Rp64
ag10
(g14
S'\xc4\xca\xa1\xcb\xc9BpA'
p65
tp66
Rp67
ag10
(g14
S'6\x89A\x86\x9eCpA'
p68
tp69
Rp70
ag10
(g14
S'iff\\-CpA'
p71
tp72
Rp73
ag10
(g14
S'\xb6\xe4\x17\xdbnBpA'
p74
tp75
Rp76
asS'target'
p77
(lp78
g10
(g14
S'$Zd;\xdf/Y@'
p79
tp80
Rp81
ag10
(g14
S'\x15\x83\xc0\xca\xa1mR@'
p82
tp83
Rp84
ag10
(g14
S'\x8a\xebQ\xb8\x1e\rS@'
p85
tp86
Rp87
ag10
(g14
S'\x89\x16\xd9\xce\xf7sS@'
p88
tp89
Rp90
ag10
(g14
S'\xe0\xd0"\xdb\xf9VS@'
p91
tp92
Rp93
ag10
(g14
S'\xbf\xf3\xfd\xd4xyV@'
p94
tp95
Rp96
ag10
(g14
S')Zd;\xdfwY@'
p97
tp98
Rp99
ag10
(g14
S'\xc0I\x0c\x02+\xd7X@'
p100
tp101
Rp102
ag10
(g14
S'Nb\x10X94Q@'
p103
tp104
Rp105
ag10
(g14
S'\xaaG\xe1z\x146P@'
p106
tp107
Rp108
ag10
(g14
S'\x92\xc2\xf5(\\\xc7S@'
p109
tp110
Rp111
ag10
(g14
S'\xadE\xb6\xf3\xfd\xf4[@'
p112
tp113
Rp114
ag10
(g14
S'\x07\xaa\xf1\xd2M\x82R@'
p115
tp116
Rp117
ag10
(g14
S'B\xb6\xf3\xfd\xd4\x10S@'
p118
tp119
Rp120
ag10
(g14
S'\x00+\x87\x16\xd9\x86X@'
p121
tp122
Rp123
ag10
(g14
S'Vb\x10X9\xf4P@'
p124
tp125
Rp126
ag10
(g14
S'i\x91\xed|?\x15T@'
p127
tp128
Rp129
ag10
(g14
S'\xd7\xf9~j\xbcdR@'
p130
tp131
Rp132
ag10
(g14
S'l\x12\x83\xc0\xcaIS@'
p133
tp134
Rp135
ag10
(g14
S'\xfc\xa9\xf1\xd2M\xbaQ@'
p136
tp137
Rp138
asssss.