(dp0
S'../Data/sqlite_87.csv'
p1
(dp2
S'../Data/sqlite_92.csv'
p3
(dp4
F0.2
(dp5
S'mmre'
p6
(dp7
S'bellwether'
p8
(lp9
cnumpy.core.multiarray
scalar
p10
(cnumpy
dtype
p11
(S'f8'
p12
I0
I1
tp13
Rp14
(I3
S'<'
p15
NNNI-1
I-1
I0
tp16
bS'\xccDR4\x82\x9fp@'
p17
tp18
Rp19
ag10
(g14
S'X\x04\xef\ry\x95p@'
p20
tp21
Rp22
ag10
(g14
S'|(\xed:]\x8fp@'
p23
tp24
Rp25
ag10
(g14
S'7\xe74\xf4\x18\xa9p@'
p26
tp27
Rp28
ag10
(g14
S'x\xe7\xc8U\xb2\x81p@'
p29
tp30
Rp31
ag10
(g14
S'@M\t\t\xe2\x88p@'
p32
tp33
Rp34
ag10
(g14
S'\xd8L\x1d\x91T\x9ap@'
p35
tp36
Rp37
ag10
(g14
S'^>\xddm=zp@'
p38
tp39
Rp40
ag10
(g14
S'\xe6\xbc\x1ey\xaa\xa3p@'
p41
tp42
Rp43
ag10
(g14
S'R\x15\x0c\xc5\xd9\xb4p@'
p44
tp45
Rp46
ag10
(g14
S'\xdapp\xe1\xb3\xa0p@'
p47
tp48
Rp49
ag10
(g14
S'0\xb5m\xf2\x00\x98p@'
p50
tp51
Rp52
ag10
(g14
S'2\xbb\t\xe1}\x8ap@'
p53
tp54
Rp55
ag10
(g14
S'\xc8\xad=\x17L\x9fp@'
p56
tp57
Rp58
ag10
(g14
S'\xd8\xdeFs\xfc|p@'
p59
tp60
Rp61
ag10
(g14
S'3\x89CG(\x93p@'
p62
tp63
Rp64
ag10
(g14
S'+# \xe5\xab\xa6p@'
p65
tp66
Rp67
ag10
(g14
S'Gc\x8a\xd6\xb6\x96p@'
p68
tp69
Rp70
ag10
(g14
S'\x0bj\xc2\xf3\x8a\xc6p@'
p71
tp72
Rp73
ag10
(g14
S'D\x98p}\x1d\x9ap@'
p74
tp75
Rp76
asS'target'
p77
(lp78
g10
(g14
S"'c`fL\xe4O@"
p79
tp80
Rp81
ag10
(g14
S'\xe3}Xz\xfb0Z@'
p82
tp83
Rp84
ag10
(g14
S'\x06\xc2\x14\xbe\x03mL@'
p85
tp86
Rp87
ag10
(g14
S'\x88\x1fe\xa9z\x84S@'
p88
tp89
Rp90
ag10
(g14
S'\x03#e\xf7\x06<W@'
p91
tp92
Rp93
ag10
(g14
S'^$\x05>\xc1\xd1Q@'
p94
tp95
Rp96
ag10
(g14
S'96A\x94a\x8dZ@'
p97
tp98
Rp99
ag10
(g14
S'\xa0A\xa4\xaa\xffk[@'
p100
tp101
Rp102
ag10
(g14
S':\xd1\xf3\x1f\x99\x02X@'
p103
tp104
Rp105
ag10
(g14
S'["T\x9a`\xcb[@'
p106
tp107
Rp108
ag10
(g14
S'\x9eb\xf8\x1c/_R@'
p109
tp110
Rp111
ag10
(g14
S'\xa3\xe5\xf6\x1dJ\x1eO@'
p112
tp113
Rp114
ag10
(g14
S'y3K2\xe6\nZ@'
p115
tp116
Rp117
ag10
(g14
S'\xd4\x11\xb5,;\tR@'
p118
tp119
Rp120
ag10
(g14
S'\x95\xb7sk\x02CJ@'
p121
tp122
Rp123
ag10
(g14
S'\x95e7r_\xbeT@'
p124
tp125
Rp126
ag10
(g14
S'\x07ER\x97\x1a\xe1R@'
p127
tp128
Rp129
ag10
(g14
S'C%$\x98FEY@'
p130
tp131
Rp132
ag10
(g14
S'QR\xe1\xf7\xfb\xf4R@'
p133
tp134
Rp135
ag10
(g14
S'x\nV\xd3\xa0\x06[@'
p136
tp137
Rp138
asssss.