(dp0
S'../Data/sqlite_90.csv'
p1
(dp2
S'../Data/sqlite_88.csv'
p3
(dp4
F0.25
(dp5
S'mmre'
p6
(dp7
S'bellwether'
p8
(lp9
cnumpy.core.multiarray
scalar
p10
(cnumpy
dtype
p11
(S'f8'
p12
I0
I1
tp13
Rp14
(I3
S'<'
p15
NNNI-1
I-1
I0
tp16
bS'_\x12\xbeeOpX@'
p17
tp18
Rp19
ag10
(g14
S'?\x82=\x86\xbfpX@'
p20
tp21
Rp22
ag10
(g14
S'A}\xf6\xf3\x8e{X@'
p23
tp24
Rp25
ag10
(g14
S'\xc0 "\x03#yX@'
p26
tp27
Rp28
ag10
(g14
S'\xad\x85\x98}\x85sX@'
p29
tp30
Rp31
ag10
(g14
S'\xfc\xd4\x9e6%~X@'
p32
tp33
Rp34
ag10
(g14
S'\xaa\x06\xa1$\x0eyX@'
p35
tp36
Rp37
ag10
(g14
S'9o_L\xcbkX@'
p38
tp39
Rp40
ag10
(g14
S'\xec\x93\xaf\xd4usX@'
p41
tp42
Rp43
ag10
(g14
S'\x16\x9c\xdc\\\x03xX@'
p44
tp45
Rp46
ag10
(g14
S'\xb4ZGYKxX@'
p47
tp48
Rp49
ag10
(g14
S'\x8f*\x96\x02^wX@'
p50
tp51
Rp52
ag10
(g14
S'\xb3\xff\xac}\x17uX@'
p53
tp54
Rp55
ag10
(g14
S'&\x0c h\x8bnX@'
p56
tp57
Rp58
ag10
(g14
S'\x8a\xf7\x9aSmtX@'
p59
tp60
Rp61
ag10
(g14
S'\xda\xb8\xd3I\xf4sX@'
p62
tp63
Rp64
ag10
(g14
S'\x07\x00&\xb5\x8cwX@'
p65
tp66
Rp67
ag10
(g14
S'fB\xeeoXvX@'
p68
tp69
Rp70
ag10
(g14
S"@\xbakE'nX@"
p71
tp72
Rp73
ag10
(g14
S'/R\xf5\x03\x14rX@'
p74
tp75
Rp76
asS'target'
p77
(lp78
g10
(g14
S'Yj\xa1\xe4\x91\x0fN@'
p79
tp80
Rp81
ag10
(g14
S'\x942\xb8C\xef\x8eK@'
p82
tp83
Rp84
ag10
(g14
S'Iw\xddP\xbb\xe9J@'
p85
tp86
Rp87
ag10
(g14
S'\x83\x11@e \xf7K@'
p88
tp89
Rp90
ag10
(g14
S'M1\xf5@\n}I@'
p91
tp92
Rp93
ag10
(g14
S'\xb3\xb8\xd9\xc4\xbb\x94M@'
p94
tp95
Rp96
ag10
(g14
S'\xdc\xf3_\xb2I6O@'
p97
tp98
Rp99
ag10
(g14
S'9NM\xb7Z\x96N@'
p100
tp101
Rp102
ag10
(g14
S')kw\x026\x10M@'
p103
tp104
Rp105
ag10
(g14
S'\x02si\xbd\x08\x96H@'
p106
tp107
Rp108
ag10
(g14
S'\xef\xee1#\xcc\x9eK@'
p109
tp110
Rp111
ag10
(g14
S'\xe6\xc1\x1e\xd6\xf0\x11M@'
p112
tp113
Rp114
ag10
(g14
S'"[\xeb\xde\xe2FI@'
p115
tp116
Rp117
ag10
(g14
S'9\xdaI\xbc\x0e\xa8L@'
p118
tp119
Rp120
ag10
(g14
S'\x9c\x9f1\x87l#M@'
p121
tp122
Rp123
ag10
(g14
S'\x96\xdeC\x9b\xb61P@'
p124
tp125
Rp126
ag10
(g14
S'\xeby\xe4\xed\xe0\xe9I@'
p127
tp128
Rp129
ag10
(g14
S'\x8f\x1fd*D[I@'
p130
tp131
Rp132
ag10
(g14
S'\x8d\xc0]\x87\x87DM@'
p133
tp134
Rp135
ag10
(g14
S'\x81\xf6\xb6\x1fsMN@'
p136
tp137
Rp138
asssss.