(dp0
S'../Data/sqlite_54.csv'
p1
(dp2
S'../Data/sqlite_84.csv'
p3
(dp4
F0.1
(dp5
S'mmre'
p6
(dp7
S'bellwether'
p8
(lp9
cnumpy.core.multiarray
scalar
p10
(cnumpy
dtype
p11
(S'f8'
p12
I0
I1
tp13
Rp14
(I3
S'<'
p15
NNNI-1
I-1
I0
tp16
bS'\\VQ\x9cytu@'
p17
tp18
Rp19
ag10
(g14
S'0H\xdd\xe9)qu@'
p20
tp21
Rp22
ag10
(g14
S'\x0b\x16\xbc\xb0(mu@'
p23
tp24
Rp25
ag10
(g14
S'\x9a8\xa1\xb7{]u@'
p26
tp27
Rp28
ag10
(g14
S'\xea\x02\x9fa\xd8ku@'
p29
tp30
Rp31
ag10
(g14
S'\x15\x07j\x831Ku@'
p32
tp33
Rp34
ag10
(g14
S'\x93\x7f_\xb2\x1d+u@'
p35
tp36
Rp37
ag10
(g14
S'\xfdcBaD7u@'
p38
tp39
Rp40
ag10
(g14
S'\x173j\xad\xechu@'
p41
tp42
Rp43
ag10
(g14
S'\xb9y\xb9\x96,`u@'
p44
tp45
Rp46
ag10
(g14
S'7?\xd0xFSu@'
p47
tp48
Rp49
ag10
(g14
S'9R\xc7\x06Hnu@'
p50
tp51
Rp52
ag10
(g14
S'\x8e}\xcd\xba\x9fvu@'
p53
tp54
Rp55
ag10
(g14
S'DX\xe4\x8b\x9fEu@'
p56
tp57
Rp58
ag10
(g14
S'\x95\xe1tfj@u@'
p59
tp60
Rp61
ag10
(g14
S'j\xe3C8\xd1fu@'
p62
tp63
Rp64
ag10
(g14
S'g&5\xb3{gu@'
p65
tp66
Rp67
ag10
(g14
S'\xd9r\xb3\xdbMfu@'
p68
tp69
Rp70
ag10
(g14
S'\x89\xd7V\x98 iu@'
p71
tp72
Rp73
ag10
(g14
S'<1\x94\xa4?mu@'
p74
tp75
Rp76
asS'target'
p77
(lp78
g10
(g14
S'F\x18m5W\x92^@'
p79
tp80
Rp81
ag10
(g14
S'`:fh\x94\xebL@'
p82
tp83
Rp84
ag10
(g14
S'/\x07e\x83T\x80G@'
p85
tp86
Rp87
ag10
(g14
S'\x18@9\xc9\xfb\xd8B@'
p88
tp89
Rp90
ag10
(g14
S'<\xa5\x93\xdf\xaf\xf7G@'
p91
tp92
Rp93
ag10
(g14
S'\x91J\xb8\xaa\x1d}G@'
p94
tp95
Rp96
ag10
(g14
S'\xdac\xd5\n\x87\x9bK@'
p97
tp98
Rp99
ag10
(g14
S'q2%\xc1\x98\x06R@'
p100
tp101
Rp102
ag10
(g14
S'\x84p!9w\\T@'
p103
tp104
Rp105
ag10
(g14
S'\xe7q\x9f\xb0\xe1\xe5M@'
p106
tp107
Rp108
ag10
(g14
S'\xd3;\xb5\xa3%@E@'
p109
tp110
Rp111
ag10
(g14
S'\xab$i\xd5\x0f\x01Q@'
p112
tp113
Rp114
ag10
(g14
S'\x80\xa2<\xc8\xb6\xc9I@'
p115
tp116
Rp117
ag10
(g14
S'\x99\xe2\x15\x80\xea\xb4V@'
p118
tp119
Rp120
ag10
(g14
S'\xa3\x176\xbc\x86xM@'
p121
tp122
Rp123
ag10
(g14
S'\xb5\x18\xe0*\xef\x95G@'
p124
tp125
Rp126
ag10
(g14
S'2\xa2\xf2\xb1T\xb8N@'
p127
tp128
Rp129
ag10
(g14
S'\xa0\xf78\x80W4P@'
p130
tp131
Rp132
ag10
(g14
S'\xa1U\xc7\x85\xf5\xd3T@'
p133
tp134
Rp135
ag10
(g14
S'8\xdc\x08\xab\x07\x0b[@'
p136
tp137
Rp138
asssss.