(dp0
S'../Data/sqlite_18.csv'
p1
(dp2
S'../Data/sqlite_50.csv'
p3
(dp4
F0.1
(dp5
S'abs_res'
p6
(dp7
S'bellwether'
p8
(lp9
cnumpy.core.multiarray
scalar
p10
(cnumpy
dtype
p11
(S'f8'
p12
I0
I1
tp13
Rp14
(I3
S'<'
p15
NNNI-1
I-1
I0
tp16
bS'\xf3(\\\x0f\xe4uAA'
p17
tp18
Rp19
ag10
(g14
S'\x05+\x87V|vAA'
p20
tp21
Rp22
ag10
(g14
S'N\xe1z\xb4\xc3uAA'
p23
tp24
Rp25
ag10
(g14
S'\xcf\xa1E&ovAA'
p26
tp27
Rp28
ag10
(g14
S'*\\\x8fr\x81uAA'
p29
tp30
Rp31
ag10
(g14
S'\xaf\x1cZ\xb4\xbcuAA'
p32
tp33
Rp34
ag10
(g14
S')1\x08lHvAA'
p35
tp36
Rp37
ag10
(g14
S'\xc7\xf5(\xfctuAA'
p38
tp39
Rp40
ag10
(g14
S'\xbb\xc8v^\xcfuAA'
p41
tp42
Rp43
ag10
(g14
S'\xe5O\x8dGdvAA'
p44
tp45
Rp46
ag10
(g14
S'\xd4"\xdb\xa9\xf7uAA'
p47
tp48
Rp49
ag10
(g14
S'ifff\xbeuAA'
p50
tp51
Rp52
ag10
(g14
S'G`\xe5pQvAA'
p53
tp54
Rp55
ag10
(g14
S'\xc7v\xbe\xdf?uAA'
p56
tp57
Rp58
ag10
(g14
S'Q\xf0`\xce\xf7uAA'
p59
tp60
Rp61
ag10
(g14
S'\xed\xfd\xd4\x88\xefuAA'
p62
tp63
Rp64
ag10
(g14
S'y\x12\x83P$vAA'
p65
tp66
Rp67
ag10
(g14
S'`\xe5\xd02\xc6uAA'
p68
tp69
Rp70
ag10
(g14
S'\x91A`\xa5zvAA'
p71
tp72
Rp73
ag10
(g14
S'\xfd\xd4x)\xbfuAA'
p74
tp75
Rp76
asS'target'
p77
(lp78
g10
(g14
S'\xc0I\x0c\x02+ca@'
p79
tp80
Rp81
ag10
(g14
S'\x90j\xbct\x93\xc4\\@'
p82
tp83
Rp84
ag10
(g14
S'R\xe3\xa5\x9b\xc4lY@'
p85
tp86
Rp87
ag10
(g14
S')\xb2\x9d\xef\xa7\xee\\@'
p88
tp89
Rp90
ag10
(g14
S'\xfd\xfd\xd4x\xe9N]@'
p91
tp92
Rp93
ag10
(g14
S'\x19\x02+\x87\x16\xc1[@'
p94
tp95
Rp96
ag10
(g14
S'd\xe5\xd0"\xdb!\\@'
p97
tp98
Rp99
ag10
(g14
S'\xe8\xd0"\xdb\xf9\xfe]@'
p100
tp101
Rp102
ag10
(g14
S'\xc0\xca\xa1E\xb6\x9b]@'
p103
tp104
Rp105
ag10
(g14
S'\x9en\x12\x83\xc0\xaaZ@'
p106
tp107
Rp108
ag10
(g14
S'\xe8&1\x08\xac\x1c\\@'
p109
tp110
Rp111
ag10
(g14
S'\xb1\xc6K7\x89!^@'
p112
tp113
Rp114
ag10
(g14
S'\xd4\xa3p=\n?[@'
p115
tp116
Rp117
ag10
(g14
S'\x92n\x12\x83\xc0\x82[@'
p118
tp119
Rp120
ag10
(g14
S'\xbct\x93\x18\x04\xce[@'
p121
tp122
Rp123
ag10
(g14
S'\xefz\x14\xaeG\xc1Z@'
p124
tp125
Rp126
ag10
(g14
S'I`\xe5\xd0"\x03]@'
p127
tp128
Rp129
ag10
(g14
S'j\xbaI\x0c\x02C\\@'
p130
tp131
Rp132
ag10
(g14
S'\xeaz\x14\xaeGA`@'
p133
tp134
Rp135
ag10
(g14
S'm=\n\xd7\xa3\x10^@'
p136
tp137
Rp138
asssss.