(dp0
S'../Data/sqlite_68.csv'
p1
(dp2
S'../Data/sqlite_85.csv'
p3
(dp4
F0.05
(dp5
S'mmre'
p6
(dp7
S'bellwether'
p8
(lp9
cnumpy.core.multiarray
scalar
p10
(cnumpy
dtype
p11
(S'f8'
p12
I0
I1
tp13
Rp14
(I3
S'<'
p15
NNNI-1
I-1
I0
tp16
bS'\xc3\xfd\xe6\x1cM^X@'
p17
tp18
Rp19
ag10
(g14
S'^\xbf#\xbb9]X@'
p20
tp21
Rp22
ag10
(g14
S'\xb4\xf9KG\x7f\\X@'
p23
tp24
Rp25
ag10
(g14
S'\xdcv\x89+\x82]X@'
p26
tp27
Rp28
ag10
(g14
S'\r\xf7\xa1\x90\xc4ZX@'
p29
tp30
Rp31
ag10
(g14
S'\x17\xab\x942\xcc]X@'
p32
tp33
Rp34
ag10
(g14
S'v;s\xd7\xbaZX@'
p35
tp36
Rp37
ag10
(g14
S'\x86\xe5z\xe6:^X@'
p38
tp39
Rp40
ag10
(g14
S'\xed~)wu\\X@'
p41
tp42
Rp43
ag10
(g14
S'6\x00W\xcat]X@'
p44
tp45
Rp46
ag10
(g14
S'\xdc$O*\x01ZX@'
p47
tp48
Rp49
ag10
(g14
S'\x19\xe4m\x8b\xfa\\X@'
p50
tp51
Rp52
ag10
(g14
S'@\x9a\xb8\xaa\x7fZX@'
p53
tp54
Rp55
ag10
(g14
S'K\xa3*m4\\X@'
p56
tp57
Rp58
ag10
(g14
S'9\x92\xf8\x8e\xbbYX@'
p59
tp60
Rp61
ag10
(g14
S'l&*\xcdDZX@'
p62
tp63
Rp64
ag10
(g14
S'JA\xd5~\x7f]X@'
p65
tp66
Rp67
ag10
(g14
S'\x16,R4`]X@'
p68
tp69
Rp70
ag10
(g14
S'\xdfxr+f]X@'
p71
tp72
Rp73
ag10
(g14
S'\x195\xea\x1a@ZX@'
p74
tp75
Rp76
asS'target'
p77
(lp78
g10
(g14
S'\x07g\xfc\xf3#\x0cU@'
p79
tp80
Rp81
ag10
(g14
S'\xb9\xebh2\xe6\x9dQ@'
p82
tp83
Rp84
ag10
(g14
S'Y\xb7\xacf\xb8JR@'
p85
tp86
Rp87
ag10
(g14
S'7[CC\xee\x00R@'
p88
tp89
Rp90
ag10
(g14
S'\xbd5\xdb\x97\xe9(W@'
p91
tp92
Rp93
ag10
(g14
S'\xad\x8c`\x11\xee\xc5S@'
p94
tp95
Rp96
ag10
(g14
S'{H\xd1X\xf9(S@'
p97
tp98
Rp99
ag10
(g14
S'\x05\xb3E\x1c\xd6\xf6P@'
p100
tp101
Rp102
ag10
(g14
S'\x86\xde)\xa7\x13\xa0S@'
p103
tp104
Rp105
ag10
(g14
S'@\xd0c\xfdd\xd7R@'
p106
tp107
Rp108
ag10
(g14
S'\xac\x04\xc6;I\xa2R@'
p109
tp110
Rp111
ag10
(g14
S'\xe9\x98\xf9(\x115S@'
p112
tp113
Rp114
ag10
(g14
S'\xf5UNP0\x1bT@'
p115
tp116
Rp117
ag10
(g14
S'\x9e\xec\xca\x1a_jR@'
p118
tp119
Rp120
ag10
(g14
S'\xfd\xc2j5<\xb9S@'
p121
tp122
Rp123
ag10
(g14
S'\x96\xfcd:\xf2\x88Y@'
p124
tp125
Rp126
ag10
(g14
S'\xb8\xb4_\x99f\xa6Q@'
p127
tp128
Rp129
ag10
(g14
S'\x8b\xcct\xb2\x9c\xc1Q@'
p130
tp131
Rp132
ag10
(g14
S'\x92U\xf6\xce\xa0\xdaQ@'
p133
tp134
Rp135
ag10
(g14
S'\xc8\xb7%j\x14\x8eS@'
p136
tp137
Rp138
asssss.