(dp0
S'../Data/sqlite_0.csv'
p1
(dp2
S'../Data/sqlite_89.csv'
p3
(dp4
F0.3
(dp5
S'mmre'
p6
(dp7
S'bellwether'
p8
(lp9
cnumpy.core.multiarray
scalar
p10
(cnumpy
dtype
p11
(S'f8'
p12
I0
I1
tp13
Rp14
(I3
S'<'
p15
NNNI-1
I-1
I0
tp16
bS'\xd0-&\xaa\xa5WG@'
p17
tp18
Rp19
ag10
(g14
S'U\x8dR\xaen^G@'
p20
tp21
Rp22
ag10
(g14
S'\x15\xf8\xd6>\xc7EG@'
p23
tp24
Rp25
ag10
(g14
S'4\xebT\x0e)\x8cG@'
p26
tp27
Rp28
ag10
(g14
S'n\xfa\xc7P\x14 G@'
p29
tp30
Rp31
ag10
(g14
S'N\x819J\xb7UG@'
p32
tp33
Rp34
ag10
(g14
S',x\xbe\xe6\x12iG@'
p35
tp36
Rp37
ag10
(g14
S'\x97\x19 \x18\x96\xc9G@'
p38
tp39
Rp40
ag10
(g14
S',Z.U~yG@'
p41
tp42
Rp43
ag10
(g14
S'~,\xc7X(\x84G@'
p44
tp45
Rp46
ag10
(g14
S'\xc7#\x84g0JG@'
p47
tp48
Rp49
ag10
(g14
S'n!q\xb7C\xb8G@'
p50
tp51
Rp52
ag10
(g14
S't\x90\xfa^*_G@'
p53
tp54
Rp55
ag10
(g14
S'\xa6\xdc\nH\x07OG@'
p56
tp57
Rp58
ag10
(g14
S'%A\xebP\xc1\x93G@'
p59
tp60
Rp61
ag10
(g14
S'\x17+\xb2V\x99^G@'
p62
tp63
Rp64
ag10
(g14
S'\xce\x0bE\xa1\xca\xe5G@'
p65
tp66
Rp67
ag10
(g14
S'\x1c\x97\x0e\xdbe/G@'
p68
tp69
Rp70
ag10
(g14
S'\x98\x1f\x89\x0b\xe4vG@'
p71
tp72
Rp73
ag10
(g14
S'd\x88h$\x90\xc8G@'
p74
tp75
Rp76
asS'target'
p77
(lp78
g10
(g14
S'j\x8f\xf9\x9e cR@'
p79
tp80
Rp81
ag10
(g14
S'\xb7\xd41Tz\xa4T@'
p82
tp83
Rp84
ag10
(g14
S'\x89\xc1#5.qQ@'
p85
tp86
Rp87
ag10
(g14
S'=\xa6\xd1n\x93\x06S@'
p88
tp89
Rp90
ag10
(g14
S'95\xe4-%bW@'
p91
tp92
Rp93
ag10
(g14
S'\xd2\x96V\\\xf3&Q@'
p94
tp95
Rp96
ag10
(g14
S'\xdd\xde\x92\x1b\x93\x0eP@'
p97
tp98
Rp99
ag10
(g14
S'\x1a\xe54"\x86fM@'
p100
tp101
Rp102
ag10
(g14
S"b\xe7R\xc8'\xebT@"
p103
tp104
Rp105
ag10
(g14
S'\xa9\xc3\xb5\xc1)\x00M@'
p106
tp107
Rp108
ag10
(g14
S'zeA\xaa\xe81Q@'
p109
tp110
Rp111
ag10
(g14
S'_\x8d\x1c\x84\xc3\x0fP@'
p112
tp113
Rp114
ag10
(g14
S'\xe1\xbe\xdc\xf05\xf6P@'
p115
tp116
Rp117
ag10
(g14
S'4?\xa2\xe0\x05\xdfS@'
p118
tp119
Rp120
ag10
(g14
S'\x18.\x89\xf0\xe4\x8bS@'
p121
tp122
Rp123
ag10
(g14
S'\xd8\xb31e\x03]V@'
p124
tp125
Rp126
ag10
(g14
S'\xc4b\xde\x88H\x91O@'
p127
tp128
Rp129
ag10
(g14
S'n\x9a\xbfm\x17JX@'
p130
tp131
Rp132
ag10
(g14
S't\xe2#hE\x95J@'
p133
tp134
Rp135
ag10
(g14
S'\xd6w\xbbs\xf2%R@'
p136
tp137
Rp138
asssss.