(dp0
S'../Data/sqlite_9.csv'
p1
(dp2
S'../Data/sqlite_85.csv'
p3
(dp4
F0.15
(dp5
S'abs_res'
p6
(dp7
S'bellwether'
p8
(lp9
cnumpy.core.multiarray
scalar
p10
(cnumpy
dtype
p11
(S'f8'
p12
I0
I1
tp13
Rp14
(I3
S'<'
p15
NNNI-1
I-1
I0
tp16
bS'\x96\x99\x99MrxWA'
p17
tp18
Rp19
ag10
(g14
S'0\xb2\x9d/\xa9CWA'
p20
tp21
Rp22
ag10
(g14
S'\xf6\xa9\xf1\x9e\x9c\xa5WA'
p23
tp24
Rp25
ag10
(g14
S'\xa1\xc4 \xe0\xbc\x8cWA'
p26
tp27
Rp28
ag10
(g14
S'/\x87\x16)\xc8\xbfWA'
p29
tp30
Rp31
ag10
(g14
S'\xb1\xd51-$KWA'
p32
tp33
Rp34
ag10
(g14
S'>5^\n\xe9\x84WA'
p35
tp36
Rp37
ag10
(g14
S'Fo\xcbn\x06nWA'
p38
tp39
Rp40
ag10
(g14
S'\xea&1\xe0\xealWA'
p41
tp42
Rp43
ag10
(g14
S'\xd2\x87\xcf\xb4\xefIWA'
p44
tp45
Rp46
ag10
(g14
S'\xbf\x9f\x1a\xa7j\x84WA'
p47
tp48
Rp49
ag10
(g14
S'\xe9&1\xbc\xf6\x8fWA'
p50
tp51
Rp52
ag10
(g14
S'\x12\xaeG\xb9\n\x81WA'
p53
tp54
Rp55
ag10
(g14
S'\x8a\xebQ\x08\xf1DWA'
p56
tp57
Rp58
ag10
(g14
S'\x16\xd9\xceo\xe1iWA'
p59
tp60
Rp61
ag10
(g14
S'\x05\xac\x1c\x9a-[WA'
p62
tp63
Rp64
ag10
(g14
S'\t\x0f\xe6E0\x86WA'
p65
tp66
Rp67
ag10
(g14
S'i=\n\xc7\xc9oWA'
p68
tp69
Rp70
ag10
(g14
S'\xf2`\x9eH:^WA'
p71
tp72
Rp73
ag10
(g14
S'\x00+\x87\xaep\x8aWA'
p74
tp75
Rp76
asS'target'
p77
(lp78
g10
(g14
S'-33\xf3\xf9\x8a@A'
p79
tp80
Rp81
ag10
(g14
S'9\n\xd7\xe3\xc8\x80CA'
p82
tp83
Rp84
ag10
(g14
S'v=\n7A\x92BA'
p85
tp86
Rp87
ag10
(g14
S'H\xe1z\xb4\xa0\xf3@A'
p88
tp89
Rp90
ag10
(g14
S'\xbc\xf5(\xfc\xe9\x82AA'
p91
tp92
Rp93
ag10
(g14
S'mff\xe6\xf2\x06BA'
p94
tp95
Rp96
ag10
(g14
S's=\nw\x18\xd3BA'
p97
tp98
Rp99
ag10
(g14
S'233s2NAA'
p100
tp101
Rp102
ag10
(g14
S'D\n\xd7\x83\xb8\xa4BA'
p103
tp104
Rp105
ag10
(g14
S'\xdez\x14\xae\xdb)?A'
p106
tp107
Rp108
ag10
(g14
S'&\\\x8fB\xd2PBA'
p109
tp110
Rp111
ag10
(g14
S'\x82\xebQX\xfbuAA'
p112
tp113
Rp114
ag10
(g14
S'\xe9z\x14\xae\x85\xf4@A'
p115
tp116
Rp117
ag10
(g14
S'\xf3(\\/\xdc\xd1BA'
p118
tp119
Rp120
ag10
(g14
S'*\\\x8f\xa2]\xa4@A'
p121
tp122
Rp123
ag10
(g14
S'\xc3\xf5(\\\x98}AA'
p124
tp125
Rp126
ag10
(g14
S'\xf0Q\xb8~\xea\x8bBA'
p127
tp128
Rp129
ag10
(g14
S'\x9b\x99\x99Y\xea\xc4BA'
p130
tp131
Rp132
ag10
(g14
S'\xf6(\\\x8f)\xb3@A'
p133
tp134
Rp135
ag10
(g14
S'V\x8f\xc2U*MBA'
p136
tp137
Rp138
asssss.