(dp0
S'../Data/sqlite_0.csv'
p1
(dp2
S'../Data/sqlite_87.csv'
p3
(dp4
F0.25
(dp5
S'mmre'
p6
(dp7
S'bellwether'
p8
(lp9
cnumpy.core.multiarray
scalar
p10
(cnumpy
dtype
p11
(S'f8'
p12
I0
I1
tp13
Rp14
(I3
S'<'
p15
NNNI-1
I-1
I0
tp16
bS'^\xd6\xf3\x9a\x08UL@'
p17
tp18
Rp19
ag10
(g14
S'\xa0I\x8f\x9d\xcf\x05L@'
p20
tp21
Rp22
ag10
(g14
S'\x0e\xc4\x7f\x8a\xc0aL@'
p23
tp24
Rp25
ag10
(g14
S"\xdb'D\x93\xe6wL@"
p26
tp27
Rp28
ag10
(g14
S'\xf4(4\x82#^L@'
p29
tp30
Rp31
ag10
(g14
S'\xb0D\x98z+kL@'
p32
tp33
Rp34
ag10
(g14
S'\x8ba\xeczOjL@'
p35
tp36
Rp37
ag10
(g14
S"n'5J=IL@"
p38
tp39
Rp40
ag10
(g14
S'\n\x89\x8c\x08\x8fcL@'
p41
tp42
Rp43
ag10
(g14
S'7<\xc0\xb8\xa9<L@'
p44
tp45
Rp46
ag10
(g14
S'\xf3\xc4\xd9M\x9d\x82L@'
p47
tp48
Rp49
ag10
(g14
S'$]\x8c\xd6\x15PL@'
p50
tp51
Rp52
ag10
(g14
S'\xe6\xdf!\x9ai_L@'
p53
tp54
Rp55
ag10
(g14
S'Wk,){aL@'
p56
tp57
Rp58
ag10
(g14
S'\xe3H\xa66XDL@'
p59
tp60
Rp61
ag10
(g14
S'{Vk\x16\xbclL@'
p62
tp63
Rp64
ag10
(g14
S'\xd3\ts\xee2NL@'
p65
tp66
Rp67
ag10
(g14
S'\xd4Es\n9CL@'
p68
tp69
Rp70
ag10
(g14
S'\xe9v/\x0eLIL@'
p71
tp72
Rp73
ag10
(g14
S'\x92\xa59{\xf2\x7fL@'
p74
tp75
Rp76
asS'target'
p77
(lp78
g10
(g14
S'3\xca|\x9c\x8fOR@'
p79
tp80
Rp81
ag10
(g14
S'F\xaeS\x81\xe8\xc9T@'
p82
tp83
Rp84
ag10
(g14
S'\x80x\x1a\xe1\r\x0cS@'
p85
tp86
Rp87
ag10
(g14
S'v\xb3\xb2%W\x93J@'
p88
tp89
Rp90
ag10
(g14
S'p\x86D\x8f<\x01M@'
p91
tp92
Rp93
ag10
(g14
S'$\xecK\xf0V@M@'
p94
tp95
Rp96
ag10
(g14
S'\xe9u^\xec\x13TQ@'
p97
tp98
Rp99
ag10
(g14
S'D\x89\x01\x1be\xc4T@'
p100
tp101
Rp102
ag10
(g14
S'Qw\x9f\xa4\xe9\xfaN@'
p103
tp104
Rp105
ag10
(g14
S't\xda\xc7\x08\xb9\xdfS@'
p106
tp107
Rp108
ag10
(g14
S'\x14\x97#c\x9b\x87K@'
p109
tp110
Rp111
ag10
(g14
S' \xfe9=K\xbcS@'
p112
tp113
Rp114
ag10
(g14
S't\xc4\x91\x19\xab\x12R@'
p115
tp116
Rp117
ag10
(g14
S'\x06\xef+\xa1\x12\nR@'
p118
tp119
Rp120
ag10
(g14
S'\x00!\xfbBe\x14N@'
p121
tp122
Rp123
ag10
(g14
S'V4\x83Y\xa2IM@'
p124
tp125
Rp126
ag10
(g14
S'\x13BE\x0f\xbd\x03V@'
p127
tp128
Rp129
ag10
(g14
S' \xa9\xfa]\xc9\xe4N@'
p130
tp131
Rp132
ag10
(g14
S'\x84\x8f\xe1\xac\x0c\xe8P@'
p133
tp134
Rp135
ag10
(g14
S'\xf1)\xb4\xb3e\xdcR@'
p136
tp137
Rp138
asssss.