(dp0
S'../Data/sqlite_22.csv'
p1
(dp2
S'../Data/sqlite_90.csv'
p3
(dp4
F0.4
(dp5
S'mmre'
p6
(dp7
S'bellwether'
p8
(lp9
cnumpy.core.multiarray
scalar
p10
(cnumpy
dtype
p11
(S'f8'
p12
I0
I1
tp13
Rp14
(I3
S'<'
p15
NNNI-1
I-1
I0
tp16
bS'\xfb\xd0O\xbb\x1b\rX@'
p17
tp18
Rp19
ag10
(g14
S'S\xf4J\x9f\xec\x18X@'
p20
tp21
Rp22
ag10
(g14
S'%\x95A\xef\xde\x0cX@'
p23
tp24
Rp25
ag10
(g14
S'\x0e\x98\xc1\xd7\x9a\nX@'
p26
tp27
Rp28
ag10
(g14
S'ct\x05|\x8b\x0cX@'
p29
tp30
Rp31
ag10
(g14
S'8\x14^\xc5\x15\tX@'
p32
tp33
Rp34
ag10
(g14
S'\xc8\x1c\x9c;\xa4\x0fX@'
p35
tp36
Rp37
ag10
(g14
S'w\xf9Nh+\x14X@'
p38
tp39
Rp40
ag10
(g14
S'\t\x1dG\x95i\x11X@'
p41
tp42
Rp43
ag10
(g14
S'\x00\xb6\xf6\xcd\xfd\x0eX@'
p44
tp45
Rp46
ag10
(g14
S'\xc5\xf4\x00\xd9\x0e\tX@'
p47
tp48
Rp49
ag10
(g14
S'o\\ao\xc0\x08X@'
p50
tp51
Rp52
ag10
(g14
S'\xd81 \xecA\x0cX@'
p53
tp54
Rp55
ag10
(g14
S'3\xa4\xb1Wy\x10X@'
p56
tp57
Rp58
ag10
(g14
S'\xd1V<\x1c\xa2\rX@'
p59
tp60
Rp61
ag10
(g14
S'X\xc4\x9f@O\x0bX@'
p62
tp63
Rp64
ag10
(g14
S'4\xe1\xea=\x9e\x10X@'
p65
tp66
Rp67
ag10
(g14
S'Z\xa6\xb4\xa8p\x10X@'
p68
tp69
Rp70
ag10
(g14
S'u\xb9]7\x1a\x0cX@'
p71
tp72
Rp73
ag10
(g14
S"E'\xad\xab\x03\nX@"
p74
tp75
Rp76
asS'target'
p77
(lp78
g10
(g14
S'"\xc6\xd0\xcb_\x8b@@'
p79
tp80
Rp81
ag10
(g14
S'\xd6F\xac7\xcb\xff;@'
p82
tp83
Rp84
ag10
(g14
S'\xd8!\x01a6\xa1@@'
p85
tp86
Rp87
ag10
(g14
S'.\xc0\xa6\x0b\x1f\x05A@'
p88
tp89
Rp90
ag10
(g14
S'%\xb5\x90\x8f@\xaa@@'
p91
tp92
Rp93
ag10
(g14
S'\xa0\r\xb0,\x117B@'
p94
tp95
Rp96
ag10
(g14
S'\n\xff*{~=@@'
p97
tp98
Rp99
ag10
(g14
S'\x14-\xa9$e\xb9=@'
p100
tp101
Rp102
ag10
(g14
S'\x10w\xf6lO]A@'
p103
tp104
Rp105
ag10
(g14
S'N\xb2\nDN\xad?@'
p106
tp107
Rp108
ag10
(g14
S'P\xf4\xfc\xa4\x93\x1dA@'
p109
tp110
Rp111
ag10
(g14
S'N\x1c\x15\xbcA\x00B@'
p112
tp113
Rp114
ag10
(g14
S',\x9d,\xf2\x11\xf6@@'
p115
tp116
Rp117
ag10
(g14
S'\x87\x83\x90rfN@@'
p118
tp119
Rp120
ag10
(g14
S'\xa27\xcb/_@>@'
p121
tp122
Rp123
ag10
(g14
S'\x00r\xb3\xa7w\x97A@'
p124
tp125
Rp126
ag10
(g14
S'\x9598/)\xcd>@'
p127
tp128
Rp129
ag10
(g14
S'\t]/(~\x95A@'
p130
tp131
Rp132
ag10
(g14
S'\x06sa\x9fa\x02A@'
p133
tp134
Rp135
ag10
(g14
S'g\xaa;\xdf{>A@'
p136
tp137
Rp138
asssss.