(dp0
S'../Data/sqlite_74.csv'
p1
(dp2
S'../Data/sqlite_47.csv'
p3
(dp4
F0.25
(dp5
S'abs_res'
p6
(dp7
S'bellwether'
p8
(lp9
cnumpy.core.multiarray
scalar
p10
(cnumpy
dtype
p11
(S'f8'
p12
I0
I1
tp13
Rp14
(I3
S'<'
p15
NNNI-1
I-1
I0
tp16
bS'\nV\x0e\xb5\xedZiA'
p17
tp18
Rp19
ag10
(g14
S'E\xd2\x94b5]iA'
p20
tp21
Rp22
ag10
(g14
S'\xb0\xf1\xd2q@XiA'
p23
tp24
Rp25
ag10
(g14
S'\xb8rh\xb1\x1aYiA'
p26
tp27
Rp28
ag10
(g14
S'~\x14\xae\x0f\x05jiA'
p29
tp30
Rp31
ag10
(g14
S'\xd0>|bDgiA'
p32
tp33
Rp34
ag10
(g14
S'\x8b\xde\x96\xa5\xb5`iA'
p35
tp36
Rp37
ag10
(g14
S'\xa7\xf1\xd2\xa92^iA'
p38
tp39
Rp40
ag10
(g14
S'\x8c\xa4)\xf5\xc0aiA'
p41
tp42
Rp43
ag10
(g14
S']UU\xf9\x88XiA'
p44
tp45
Rp46
ag10
(g14
S'\xea\x17K\xaekdiA'
p47
tp48
Rp49
ag10
(g14
S'\xaa8\xfb\xa0\x97^iA'
p50
tp51
Rp52
ag10
(g14
S',\x94\xd1w\x92UiA'
p53
tp54
Rp55
ag10
(g14
S'=\xc3\xae\xfc\xbaYiA'
p56
tp57
Rp58
ag10
(g14
S'\xba\xc8v.~ZiA'
p59
tp60
Rp61
ag10
(g14
S'|\xdck\xeaNdiA'
p62
tp63
Rp64
ag10
(g14
S'-\xa3\xb7\xe5\xa3YiA'
p65
tp66
Rp67
ag10
(g14
S'K\xc5\xd9\x8f{[iA'
p68
tp69
Rp70
ag10
(g14
S'\xf8\xd4x\xe5\x00WiA'
p71
tp72
Rp73
ag10
(g14
S'\x7f?5\xf2\x1f_iA'
p74
tp75
Rp76
asS'target'
p77
(lp78
g10
(g14
S'\xc6v\xbe\x9f\x1a\xdfW@'
p79
tp80
Rp81
ag10
(g14
S'\xddz\x14\xaeGiV@'
p82
tp83
Rp84
ag10
(g14
S'\xc4K7\x89APZ@'
p85
tp86
Rp87
ag10
(g14
S'\x18Zd;\xdfCW@'
p88
tp89
Rp90
ag10
(g14
S'\x97C\x8bl\xe7sW@'
p91
tp92
Rp93
ag10
(g14
S'\xd2\xcc\xcc\xcc\xcc\x14X@'
p94
tp95
Rp96
ag10
(g14
S'\x81?5^\xba\xe9U@'
p97
tp98
Rp99
ag10
(g14
S'F\xb6\xf3\xfd\xd4\xb0V@'
p100
tp101
Rp102
ag10
(g14
S'V7\x89A`\xc1X@'
p103
tp104
Rp105
ag10
(g14
S'-3333SW@'
p106
tp107
Rp108
ag10
(g14
S'\xc9K7\x89AXZ@'
p109
tp110
Rp111
ag10
(g14
S'\xee|?5^\xdaX@'
p112
tp113
Rp114
ag10
(g14
S'm?5^\xba\xe9W@'
p115
tp116
Rp117
ag10
(g14
S'\xa1\xc4 \xb0r\xd8W@'
p118
tp119
Rp120
ag10
(g14
S'\xa1\x1cZd;sY@'
p121
tp122
Rp123
ag10
(g14
S'\x02\xac\x1cZd\xefZ@'
p124
tp125
Rp126
ag10
(g14
S'\x88\x14\xaeG\xe1\x96X@'
p127
tp128
Rp129
ag10
(g14
S'D`\xe5\xd0"CX@'
p130
tp131
Rp132
ag10
(g14
S'\x18\xb0rh\x91-V@'
p133
tp134
Rp135
ag10
(g14
S'\x18\xb0rh\x91\xd5V@'
p136
tp137
Rp138
asssss.