(dp0
S'../Data/sqlite_68.csv'
p1
(dp2
S'../Data/sqlite_95.csv'
p3
(dp4
F0.4
(dp5
S'mmre'
p6
(dp7
S'bellwether'
p8
(lp9
cnumpy.core.multiarray
scalar
p10
(cnumpy
dtype
p11
(S'f8'
p12
I0
I1
tp13
Rp14
(I3
S'<'
p15
NNNI-1
I-1
I0
tp16
bS'e\n\xe8\xa2N5W@'
p17
tp18
Rp19
ag10
(g14
S'\xbe\x89\x8f\xc1\x103W@'
p20
tp21
Rp22
ag10
(g14
S'\t\xd1\x07W\x8a1W@'
p23
tp24
Rp25
ag10
(g14
S'\x05u\x8c\xd0_4W@'
p26
tp27
Rp28
ag10
(g14
S'P\x88\xd9\xe5Y7W@'
p29
tp30
Rp31
ag10
(g14
S'~\xe85\x8cf;W@'
p32
tp33
Rp34
ag10
(g14
S'%\x9bq\x1a?4W@'
p35
tp36
Rp37
ag10
(g14
S'`\xe4>]g4W@'
p38
tp39
Rp40
ag10
(g14
S'\x17.\x0c\xf7\x020W@'
p41
tp42
Rp43
ag10
(g14
S'\x82\x98*\x11\x05=W@'
p44
tp45
Rp46
ag10
(g14
S'\x98\x94\xeed\x16+W@'
p47
tp48
Rp49
ag10
(g14
S'(\xb7g\xec\x898W@'
p50
tp51
Rp52
ag10
(g14
S'Qr[\xa9\x88;W@'
p53
tp54
Rp55
ag10
(g14
S'L`\xb3\x93[4W@'
p56
tp57
Rp58
ag10
(g14
S'%\xe7z\x8aY3W@'
p59
tp60
Rp61
ag10
(g14
S'\x18\xd7_\x0c\x1b8W@'
p62
tp63
Rp64
ag10
(g14
S'k\x83\x9bA2/W@'
p65
tp66
Rp67
ag10
(g14
S'\x08\xcay\xd0\xad:W@'
p68
tp69
Rp70
ag10
(g14
S'\x96a\x1a)\xd40W@'
p71
tp72
Rp73
ag10
(g14
S'\xb5\x85\xedQ\x813W@'
p74
tp75
Rp76
asS'target'
p77
(lp78
g10
(g14
S's\x7fD\\aQB@'
p79
tp80
Rp81
ag10
(g14
S'\xa8\x99\xbfB\x11\x97B@'
p82
tp83
Rp84
ag10
(g14
S'u\x86^hH`B@'
p85
tp86
Rp87
ag10
(g14
S'\x12\xc4\xa9\xcb\xb8\xfaB@'
p88
tp89
Rp90
ag10
(g14
S'Oin\xaa[IC@'
p91
tp92
Rp93
ag10
(g14
S'\xef\xe9\x80\xd8nJA@'
p94
tp95
Rp96
ag10
(g14
S'%I\xf1\xbf\xe0\xb3@@'
p97
tp98
Rp99
ag10
(g14
S'K\xad\x18D;\xa3@@'
p100
tp101
Rp102
ag10
(g14
S'\xd7\x98f\xfa\xdc\xcdA@'
p103
tp104
Rp105
ag10
(g14
S'\xf7\xcb\x19\xe8\x07\x91@@'
p106
tp107
Rp108
ag10
(g14
S'\xee\xd5\x12\xa4\xd9hC@'
p109
tp110
Rp111
ag10
(g14
S'\xf4\xbb%{\x9b\xad?@'
p112
tp113
Rp114
ag10
(g14
S'n\x19\xd6L\\!@@'
p115
tp116
Rp117
ag10
(g14
S'\xe2w\x19\xdb\xcbtC@'
p118
tp119
Rp120
ag10
(g14
S'\xd2\x17\xbdT\xe9\x9bB@'
p121
tp122
Rp123
ag10
(g14
S'T\xdeG$\xc2\xa0A@'
p124
tp125
Rp126
ag10
(g14
S'8\x02C{\xdd,C@'
p127
tp128
Rp129
ag10
(g14
S'~&\xcc\xa9\xfaA@@'
p130
tp131
Rp132
ag10
(g14
S'\xbb\x9e[e\xa9ZC@'
p133
tp134
Rp135
ag10
(g14
S'\xe0\xf2\xc4-\xb9\x0e>@'
p136
tp137
Rp138
asssss.