(dp0
S'../Data/sqlite_15.csv'
p1
(dp2
S'../Data/sqlite_19.csv'
p3
(dp4
F0.15
(dp5
S'abs_res'
p6
(dp7
S'bellwether'
p8
(lp9
cnumpy.core.multiarray
scalar
p10
(cnumpy
dtype
p11
(S'f8'
p12
I0
I1
tp13
Rp14
(I3
S'<'
p15
NNNI-1
I-1
I0
tp16
bS'\x9e\xa8\x7f\xa3*(@A'
p17
tp18
Rp19
ag10
(g14
S'l\xa0\xd3f\x1f(@A'
p20
tp21
Rp22
ag10
(g14
S'T9\xb48\x01(@A'
p23
tp24
Rp25
ag10
(g14
S'Y\x8f\xc2EU(@A'
p26
tp27
Rp28
ag10
(g14
S'{\xbe\x9fZn)@A'
p29
tp30
Rp31
ag10
(g14
S'\xca\xa1E\xc6e(@A'
p32
tp33
Rp34
ag10
(g14
S'\x1e\xb0r\xc8U(@A'
p35
tp36
Rp37
ag10
(g14
S'\xa7\xaa\xaaZ\x08(@A'
p38
tp39
Rp40
ag10
(g14
S"\x9f\x1a/\r\xed'@A"
p41
tp42
Rp43
ag10
(g14
S'3\x17\x92\xf6N(@A'
p44
tp45
Rp46
ag10
(g14
S'\x88l\xe7\xcb\x1c(@A'
p47
tp48
Rp49
ag10
(g14
S'vww\x17}(@A'
p50
tp51
Rp52
ag10
(g14
S"q=\n\xd7\xd9'@A"
p53
tp54
Rp55
ag10
(g14
S'c\xc9/F5(@A'
p56
tp57
Rp58
ag10
(g14
S'\xdez\x14\x8e\x1f(@A'
p59
tp60
Rp61
ag10
(g14
S'\xec&1\x188(@A'
p62
tp63
Rp64
ag10
(g14
S'\xdc\xf9~\xcas(@A'
p65
tp66
Rp67
ag10
(g14
S'\x80#\x94QV(@A'
p68
tp69
Rp70
ag10
(g14
S'\x9d\x8c\xde&w(@A'
p71
tp72
Rp73
ag10
(g14
S'\r-\xb2\xdd?(@A'
p74
tp75
Rp76
asS'target'
p77
(lp78
g10
(g14
S'\xeaO\x8d\x97n2W@'
p79
tp80
Rp81
ag10
(g14
S'\x9dE\xb6\xf3\xfd\xa4X@'
p82
tp83
Rp84
ag10
(g14
S'h\xbaI\x0c\x02#Z@'
p85
tp86
Rp87
ag10
(g14
S'Q\x0c\x02+\x87VY@'
p88
tp89
Rp90
ag10
(g14
S'\xafrh\x91\xed\x84W@'
p91
tp92
Rp93
ag10
(g14
S'm\xbct\x93\x18\x84Y@'
p94
tp95
Rp96
ag10
(g14
S'\xacG\xe1z\x14FY@'
p97
tp98
Rp99
ag10
(g14
S'\xc8v\xbe\x9f\x1a\xefV@'
p100
tp101
Rp102
ag10
(g14
S'\xf0\xee\xee\xee\xee\xfeV@'
p103
tp104
Rp105
ag10
(g14
S'\x84A`\xe5\xd0BW@'
p106
tp107
Rp108
ag10
(g14
S'4\x08\xac\x1cZ\xb4Y@'
p109
tp110
Rp111
ag10
(g14
S'\xcbv\xbe\x9f\x1a/Z@'
p112
tp113
Rp114
ag10
(g14
S'\xaep=\n\xd7\x03X@'
p115
tp116
Rp117
ag10
(g14
S'\xe8\xa7\xc6K7AV@'
p118
tp119
Rp120
ag10
(g14
S'n\x91\xed|?\xb5W@'
p121
tp122
Rp123
ag10
(g14
S'i\x10X9\xb4\xb0V@'
p124
tp125
Rp126
ag10
(g14
S'\x12X9\xb4\xc8\x86W@'
p127
tp128
Rp129
ag10
(g14
S'\x9bn\x12\x83\xc0\x8aX@'
p130
tp131
Rp132
ag10
(g14
S'\x8c\xc2\xf5(\\/W@'
p133
tp134
Rp135
ag10
(g14
S'\x99C\x8bl\xe7CX@'
p136
tp137
Rp138
asssss.