(dp0
S'../Data/sqlite_42.csv'
p1
(dp2
S'../Data/sqlite_97.csv'
p3
(dp4
F0.05
(dp5
S'mmre'
p6
(dp7
S'bellwether'
p8
(lp9
cnumpy.core.multiarray
scalar
p10
(cnumpy
dtype
p11
(S'f8'
p12
I0
I1
tp13
Rp14
(I3
S'<'
p15
NNNI-1
I-1
I0
tp16
bS'>\xdf\x00A\\0U@'
p17
tp18
Rp19
ag10
(g14
S'\xdc\xeb\x03\xfby)U@'
p20
tp21
Rp22
ag10
(g14
S'\xfa\xd1\xc1\x95\xcb/U@'
p23
tp24
Rp25
ag10
(g14
S'\xfe\xc9V\x00".U@'
p26
tp27
Rp28
ag10
(g14
S'\xae\x05\x9f%\xbc,U@'
p29
tp30
Rp31
ag10
(g14
S'\xcat\xde\x8c\xd50U@'
p32
tp33
Rp34
ag10
(g14
S'\x94\xdah&\xde-U@'
p35
tp36
Rp37
ag10
(g14
S'\x85\t\x8e\x9e\x9f.U@'
p38
tp39
Rp40
ag10
(g14
S'\xed\xb1\xc0l\xca0U@'
p41
tp42
Rp43
ag10
(g14
S'n\xf5\xb4OC,U@'
p44
tp45
Rp46
ag10
(g14
S'z\x95\x8d\x06u-U@'
p47
tp48
Rp49
ag10
(g14
S'\xb4\xfb\xb9!}-U@'
p50
tp51
Rp52
ag10
(g14
S'\xc7\x12/\x16\xd5-U@'
p53
tp54
Rp55
ag10
(g14
S'$\xd8\x03A%.U@'
p56
tp57
Rp58
ag10
(g14
S'\xab\xfeB\xaa\xe2+U@'
p59
tp60
Rp61
ag10
(g14
S'.\x8e\xe0F\x8e/U@'
p62
tp63
Rp64
ag10
(g14
S'\xcad|g2.U@'
p65
tp66
Rp67
ag10
(g14
S'\x87\x9f\xebQ\x98.U@'
p68
tp69
Rp70
ag10
(g14
S'8j\xa0\xe7\x90(U@'
p71
tp72
Rp73
ag10
(g14
S'xe?0\xee.U@'
p74
tp75
Rp76
asS'target'
p77
(lp78
g10
(g14
S'\xb7\xcc\x8e[\xbfMV@'
p79
tp80
Rp81
ag10
(g14
S'\x88\x1d\xa9\xe1\xa5\xebK@'
p82
tp83
Rp84
ag10
(g14
S'n\xfe\n\xef\xde\xf1H@'
p85
tp86
Rp87
ag10
(g14
S'\x08#\x00\xcf\xf8I_@'
p88
tp89
Rp90
ag10
(g14
S'\xa1{\x9f\x85n&T@'
p91
tp92
Rp93
ag10
(g14
S'\xfa4\xa0\xc8{\xd4>@'
p94
tp95
Rp96
ag10
(g14
S'\x96zI\xf5#gP@'
p97
tp98
Rp99
ag10
(g14
S'\xefH\x80\xa4@AC@'
p100
tp101
Rp102
ag10
(g14
S'\xbfk\xbf\xe7\xa6\\e@'
p103
tp104
Rp105
ag10
(g14
S'\x12:\xeeNi9X@'
p106
tp107
Rp108
ag10
(g14
S'\xbd$Y\xb7\x91\xdaT@'
p109
tp110
Rp111
ag10
(g14
S'\xbe\xb9ap\xafqa@'
p112
tp113
Rp114
ag10
(g14
S'\xd3\xee\xdd=\xfb\xccT@'
p115
tp116
Rp117
ag10
(g14
S'\n\x03\xc7u4/C@'
p118
tp119
Rp120
ag10
(g14
S'~\x10\xaaa\xfapD@'
p121
tp122
Rp123
ag10
(g14
S'\xba\xa2#\xf6f\xedh@'
p124
tp125
Rp126
ag10
(g14
S'\x04\xc1e\xf6\xfcJA@'
p127
tp128
Rp129
ag10
(g14
S'Vr\xc6j\xb0\x9dY@'
p130
tp131
Rp132
ag10
(g14
S'1\xfd+smYS@'
p133
tp134
Rp135
ag10
(g14
S'Fu\xbe\xb8)\xb8]@'
p136
tp137
Rp138
asssss.