(dp0
S'../Data/sqlite_60.csv'
p1
(dp2
S'../Data/sqlite_58.csv'
p3
(dp4
F0.25
(dp5
S'abs_res'
p6
(dp7
S'bellwether'
p8
(lp9
cnumpy.core.multiarray
scalar
p10
(cnumpy
dtype
p11
(S'f8'
p12
I0
I1
tp13
Rp14
(I3
S'<'
p15
NNNI-1
I-1
I0
tp16
bS'\t:m\x1cJ]eA'
p17
tp18
Rp19
ag10
(g14
S'R\x8d\x97.#YeA'
p20
tp21
Rp22
ag10
(g14
S'\xe8\xdf\x08\x19\x96\\eA'
p23
tp24
Rp25
ag10
(g14
S'\x11\xe6\x89.\xd9YeA'
p26
tp27
Rp28
ag10
(g14
S'\x8d\xc2\xf5\xd0\x13[eA'
p29
tp30
Rp31
ag10
(g14
S'\xed|?%FaeA'
p32
tp33
Rp34
ag10
(g14
S'\x99\x99\x99\xadF[eA'
p35
tp36
Rp37
ag10
(g14
S'\xb5\xac\xd5\xd9m`eA'
p38
tp39
Rp40
ag10
(g14
S'\x97\x18\x04\xd2\r^eA'
p41
tp42
Rp43
ag10
(g14
S'\x1f\xe8\xb4A\xd4`eA'
p44
tp45
Rp46
ag10
(g14
S'|\x86]mdYeA'
p47
tp48
Rp49
ag10
(g14
S'\xd0\xdb\xb2n-aeA'
p50
tp51
Rp52
ag10
(g14
S'MFo\xdfWYeA'
p53
tp54
Rp55
ag10
(g14
S'a\x8f\xc2=\xf1^eA'
p56
tp57
Rp58
ag10
(g14
S'\xea|?]3beA'
p59
tp60
Rp61
ag10
(g14
S'\x14\x11\x11\x8d\xadUeA'
p62
tp63
Rp64
ag10
(g14
S'pL\xf0<\xc6YeA'
p65
tp66
Rp67
ag10
(g14
S']s!\t\x11beA'
p68
tp69
Rp70
ag10
(g14
S'e\xd8\x15\\\xb9YeA'
p71
tp72
Rp73
ag10
(g14
S'\xbd\xac\xd5\x1d\xac_eA'
p74
tp75
Rp76
asS'target'
p77
(lp78
g10
(g14
S'\xe5\xa7\xc6K7\x81T@'
p79
tp80
Rp81
ag10
(g14
S'\x19\x04V\x0e-\xdaT@'
p82
tp83
Rp84
ag10
(g14
S'T\xb8\x1e\x85\xeb\xf5T@'
p85
tp86
Rp87
ag10
(g14
S'\xf7~j\xbct\x0bU@'
p88
tp89
Rp90
ag10
(g14
S'\xf7(\\\x8f\xc2\x15T@'
p91
tp92
Rp93
ag10
(g14
S'<\xb4\xc8v\xbe_T@'
p94
tp95
Rp96
ag10
(g14
S'\x15Zd;\xdf\xffS@'
p97
tp98
Rp99
ag10
(g14
S'Td;\xdfO\x81T@'
p100
tp101
Rp102
ag10
(g14
S'I\x8d\x97n\x12\xebT@'
p103
tp104
Rp105
ag10
(g14
S'\xaf\x1cZd;\xfbS@'
p106
tp107
Rp108
ag10
(g14
S'e\xe5\xd0"\xdb]U@'
p109
tp110
Rp111
ag10
(g14
S'65^\xbaI\x18T@'
p112
tp113
Rp114
ag10
(g14
S'\xc9\xcc\xcc\xcc\xcctT@'
p115
tp116
Rp117
ag10
(g14
S'\xbd\xf5(\\\x8f\xc2S@'
p118
tp119
Rp120
ag10
(g14
S'6\n\xd7\xa3peU@'
p121
tp122
Rp123
ag10
(g14
S'K7\x89A`\x15U@'
p124
tp125
Rp126
ag10
(g14
S'-\x06\x81\x95C\xfbT@'
p127
tp128
Rp129
ag10
(g14
S'"\x85\xebQ\xb8nV@'
p130
tp131
Rp132
ag10
(g14
S'\x1e/\xdd$\x06\x99T@'
p133
tp134
Rp135
ag10
(g14
S'\x84j\xbct\x93\xb8U@'
p136
tp137
Rp138
asssss.