(dp0
S'../Data/sqlite_74.csv'
p1
(dp2
S'../Data/sqlite_58.csv'
p3
(dp4
F0.1
(dp5
S'abs_res'
p6
(dp7
S'bellwether'
p8
(lp9
cnumpy.core.multiarray
scalar
p10
(cnumpy
dtype
p11
(S'f8'
p12
I0
I1
tp13
Rp14
(I3
S'<'
p15
NNNI-1
I-1
I0
tp16
bS'd\x91\xed\xc8AynA'
p17
tp18
Rp19
ag10
(g14
S'r\xe7\xfb\xe5"snA'
p20
tp21
Rp22
ag10
(g14
S':\xd0ik\xbeunA'
p23
tp24
Rp25
ag10
(g14
S'\xaf8\xfb\xd0\x18xnA'
p26
tp27
Rp28
ag10
(g14
S'\xddz\x14z\xe1ynA'
p29
tp30
Rp31
ag10
(g14
S'\x9bC\x8bp\xe8~nA'
p32
tp33
Rp34
ag10
(g14
S'%\xce>\xcc"wnA'
p35
tp36
Rp37
ag10
(g14
S'\x92\x8a\xb3W|rnA'
p38
tp39
Rp40
ag10
(g14
S'0\\\x8f\x9a\t\x80nA'
p41
tp42
Rp43
ag10
(g14
S'\xd3Mb0rqnA'
p44
tp45
Rp46
ag10
(g14
S'H*\xcev\xa9znA'
p47
tp48
Rp49
ag10
(g14
S'E\xffF4.|nA'
p50
tp51
Rp52
ag10
(g14
S'\xd0\xf7S\xc74snA'
p53
tp54
Rp55
ag10
(g14
S'\x08\x02+k!knA'
p56
tp57
Rp58
ag10
(g14
S'\x1e\\\x8f^\xe5tnA'
p59
tp60
Rp61
ag10
(g14
S'\xa2\x1cZ\xe0:qnA'
p62
tp63
Rp64
ag10
(g14
S'\xfc\x80\x95\x83BznA'
p65
tp66
Rp67
ag10
(g14
S'nh\x91Q:znA'
p68
tp69
Rp70
ag10
(g14
S'\xee|?\xb1\xb6inA'
p71
tp72
Rp73
ag10
(g14
S'\xde$\x06yLynA'
p74
tp75
Rp76
asS'target'
p77
(lp78
g10
(g14
S'\x1eZd;\xdf\xefX@'
p79
tp80
Rp81
ag10
(g14
S'f\x12\x83\xc0\xca\xddZ@'
p82
tp83
Rp84
ag10
(g14
S'H\x8d\x97n\x12\x13[@'
p85
tp86
Rp87
ag10
(g14
S'\xa3\x99\x99\x99\x99\t\\@'
p88
tp89
Rp90
ag10
(g14
S'\xd6\xa1E\xb6\xf3]\\@'
p91
tp92
Rp93
ag10
(g14
S'\xf6(\\\x8f\xc2\x85[@'
p94
tp95
Rp96
ag10
(g14
S'L\x0c\x02+\x87nX@'
p97
tp98
Rp99
ag10
(g14
S'\xa5\xf3\xfd\xd4x}[@'
p100
tp101
Rp102
ag10
(g14
S'e\x10X9\xb4\x90]@'
p103
tp104
Rp105
ag10
(g14
S'\x81\xc0\xca\xa1E\xeeY@'
p106
tp107
Rp108
ag10
(g14
S'B`\xe5\xd0"\xe3[@'
p109
tp110
Rp111
ag10
(g14
S'e\x10X9\xb48Y@'
p112
tp113
Rp114
ag10
(g14
S'\\\x8d\x97n\x12[[@'
p115
tp116
Rp117
ag10
(g14
S'\xde\xa5\x9b\xc4 `Y@'
p118
tp119
Rp120
ag10
(g14
S'\x8c\xebQ\xb8\x1e%]@'
p121
tp122
Rp123
ag10
(g14
S'\xb6\x9d\xef\xa7\xc63[@'
p124
tp125
Rp126
ag10
(g14
S'\xfd\xd4x\xe9&\xd1Z@'
p127
tp128
Rp129
ag10
(g14
S'\x9a\xed|?5n]@'
p130
tp131
Rp132
ag10
(g14
S'@\xe1z\x14\xae/Z@'
p133
tp134
Rp135
ag10
(g14
S'\x97\x1a/\xdd$*Y@'
p136
tp137
Rp138
asssss.