(dp0
S'../Data/sqlite_66.csv'
p1
(dp2
S'../Data/sqlite_50.csv'
p3
(dp4
F0.05
(dp5
S'abs_res'
p6
(dp7
S'bellwether'
p8
(lp9
cnumpy.core.multiarray
scalar
p10
(cnumpy
dtype
p11
(S'f8'
p12
I0
I1
tp13
Rp14
(I3
S'<'
p15
NNNI-1
I-1
I0
tp16
bS'\xae\x1cZ\xa4\xacR$A'
p17
tp18
Rp19
ag10
(g14
S'7\xdfO\r"S$A'
p20
tp21
Rp22
ag10
(g14
S'\xc7 \xb02\x10R$A'
p23
tp24
Rp25
ag10
(g14
S'\x1d\x87\x16YTR$A'
p26
tp27
Rp28
ag10
(g14
S'~j\xbctHR$A'
p29
tp30
Rp31
ag10
(g14
S'Yff\xe6\xf7Q$A'
p32
tp33
Rp34
ag10
(g14
S'\x95\x99\x99Y\tR$A'
p35
tp36
Rp37
ag10
(g14
S'\x97\x99\x99\xd9\rR$A'
p38
tp39
Rp40
ag10
(g14
S'g\x91\xed<=R$A'
p41
tp42
Rp43
ag10
(g14
S'\xad\x1cZ\xa4\xd8R$A'
p44
tp45
Rp46
ag10
(g14
S'\x11\x85\xeb\xd1,R$A'
p47
tp48
Rp49
ag10
(g14
S'!\xdb\xf9\xfe_R$A'
p50
tp51
Rp52
ag10
(g14
S'\xbbI\x0c\x02\xe0Q$A'
p53
tp54
Rp55
ag10
(g14
S'\x04+\x87\xd6KR$A'
p56
tp57
Rp58
ag10
(g14
S'\xd5"\xdb\xb9uR$A'
p59
tp60
Rp61
ag10
(g14
S'p\xbe\x9f\x9a\xd5R$A'
p62
tp63
Rp64
ag10
(g14
S'a\x8f\xc2\xb5KR$A'
p65
tp66
Rp67
ag10
(g14
S'\x19Zd{\xdaQ$A'
p68
tp69
Rp70
ag10
(g14
S'p\xe9&\xf1gR$A'
p71
tp72
Rp73
ag10
(g14
S'\xc4 \xb0rHR$A'
p74
tp75
Rp76
asS'target'
p77
(lp78
g10
(g14
S'*\x06\x81\x95C\x0fa@'
p79
tp80
Rp81
ag10
(g14
S'\xecz\x14\xaeG\xa9[@'
p82
tp83
Rp84
ag10
(g14
S'3\xdd$\x06\x81\x01`@'
p85
tp86
Rp87
ag10
(g14
S'\x0e\xaeG\xe1z\x9c\\@'
p88
tp89
Rp90
ag10
(g14
S'\xce\xa1E\xb6\xf3\xfd\\@'
p91
tp92
Rp93
ag10
(g14
S'bd;\xdfO\xfda@'
p94
tp95
Rp96
ag10
(g14
S'\xd7z\x14\xaeG!_@'
p97
tp98
Rp99
ag10
(g14
S'O\xe3\xa5\x9b\xc4\xb8`@'
p100
tp101
Rp102
ag10
(g14
S'\xe1z\x14\xaeG)a@'
p103
tp104
Rp105
ag10
(g14
S'\x96C\x8bl\xe7\xf3`@'
p106
tp107
Rp108
ag10
(g14
S' \x04V\x0e-\x1ea@'
p109
tp110
Rp111
ag10
(g14
S's\xe7\xfb\xa9\xf12^@'
p112
tp113
Rp114
ag10
(g14
S'rffffN_@'
p115
tp116
Rp117
ag10
(g14
S'S\x0c\x02+\x87ba@'
p118
tp119
Rp120
ag10
(g14
S'\xe9z\x14\xaeG}`@'
p121
tp122
Rp123
ag10
(g14
S'yh\x91\xed|ya@'
p124
tp125
Rp126
ag10
(g14
S'Z\x0c\x02+\x87\x96_@'
p127
tp128
Rp129
ag10
(g14
S'\x11-\xb2\x9d\xefw`@'
p130
tp131
Rp132
ag10
(g14
S'\x8cj\xbct\x93`^@'
p133
tp134
Rp135
ag10
(g14
S'\n\x81\x95C\x8b\xcc\\@'
p136
tp137
Rp138
asssss.