(dp0
S'../Data/sqlite_8.csv'
p1
(dp2
S'../Data/sqlite_59.csv'
p3
(dp4
F0.1
(dp5
S'mmre'
p6
(dp7
S'bellwether'
p8
(lp9
cnumpy.core.multiarray
scalar
p10
(cnumpy
dtype
p11
(S'f8'
p12
I0
I1
tp13
Rp14
(I3
S'<'
p15
NNNI-1
I-1
I0
tp16
bS'\x87\xe2<t\x9d:T@'
p17
tp18
Rp19
ag10
(g14
S'\x98\xad\xc6c\x03<T@'
p20
tp21
Rp22
ag10
(g14
S':\x9f\x15Y\x11:T@'
p23
tp24
Rp25
ag10
(g14
S'\xcfm\x95MP8T@'
p26
tp27
Rp28
ag10
(g14
S'|\xc5\xd3\xd5\xcd9T@'
p29
tp30
Rp31
ag10
(g14
S'9\x19Q\x12\xa8;T@'
p32
tp33
Rp34
ag10
(g14
S'Z\xa8\x0c\xa9\x83:T@'
p35
tp36
Rp37
ag10
(g14
S'K\x0f\xa1\x99\\;T@'
p38
tp39
Rp40
ag10
(g14
S'\xb7\x9e\x16[\x899T@'
p41
tp42
Rp43
ag10
(g14
S'\xd4\x1f\xda\xbaS;T@'
p44
tp45
Rp46
ag10
(g14
S'\xb2\xa0\x01i\x03<T@'
p47
tp48
Rp49
ag10
(g14
S'\xc6\xfa\xb5\x8cM;T@'
p50
tp51
Rp52
ag10
(g14
S'[\x07M\xba\xfd:T@'
p53
tp54
Rp55
ag10
(g14
S'\xc6e\x88C";T@'
p56
tp57
Rp58
ag10
(g14
S'N\xc6\xf4@\xbe:T@'
p59
tp60
Rp61
ag10
(g14
S'\xc1\xc9\xd8m\x8e;T@'
p62
tp63
Rp64
ag10
(g14
S'V\x85B\x0f\xe8<T@'
p65
tp66
Rp67
ag10
(g14
S'Z[\xe4\x84\xaa9T@'
p68
tp69
Rp70
ag10
(g14
S'\xd0II:\xf1:T@'
p71
tp72
Rp73
ag10
(g14
S',\xe9\ns\x9c;T@'
p74
tp75
Rp76
asS'target'
p77
(lp78
g10
(g14
S'jN\xcd\xb4\r\xdc(@'
p79
tp80
Rp81
ag10
(g14
S';\xc35\x03\x17\xbc$@'
p82
tp83
Rp84
ag10
(g14
S'7| \xb6\xc7=%@'
p85
tp86
Rp87
ag10
(g14
S'\x07\x04\xd7r\x84k(@'
p88
tp89
Rp90
ag10
(g14
S'`\xad\xc1<\xba\x08&@'
p91
tp92
Rp93
ag10
(g14
S"4\xf5\xc9V\x9fS'@"
p94
tp95
Rp96
ag10
(g14
S"\x11.\xda\x88\x00\r'@"
p97
tp98
Rp99
ag10
(g14
S'\xc8.\xdb\xf9{N&@'
p100
tp101
Rp102
ag10
(g14
S'\xb1y\xf9\x9b\x12\x94(@'
p103
tp104
Rp105
ag10
(g14
S'\xab\x15\xa5^\xff\x05%@'
p106
tp107
Rp108
ag10
(g14
S'\xf9r\xac(\xb5\xc3#@'
p109
tp110
Rp111
ag10
(g14
S'\xb7T\xeb\xfc7\xc7(@'
p112
tp113
Rp114
ag10
(g14
S"\x92PR\x9f8L'@"
p115
tp116
Rp117
ag10
(g14
S"\x94\x9d\xf7t?''@"
p118
tp119
Rp120
ag10
(g14
S'u\xcc\xb2\xd4\xe5\xef&@'
p121
tp122
Rp123
ag10
(g14
S'\x15\x0cnR\x12.&@'
p124
tp125
Rp126
ag10
(g14
S'd5\xce\x8c}\xe0#@'
p127
tp128
Rp129
ag10
(g14
S"\xcd\xc3n%^T'@"
p130
tp131
Rp132
ag10
(g14
S'\xd18%GS/$@'
p133
tp134
Rp135
ag10
(g14
S'u\xe2\xfd\xbe\xbc\xe5$@'
p136
tp137
Rp138
asssss.