(dp0
S'../Data/sqlite_4.csv'
p1
(dp2
S'../Data/sqlite_7.csv'
p3
(dp4
F0.1
(dp5
S'abs_res'
p6
(dp7
S'bellwether'
p8
(lp9
cnumpy.core.multiarray
scalar
p10
(cnumpy
dtype
p11
(S'f8'
p12
I0
I1
tp13
Rp14
(I3
S'<'
p15
NNNI-1
I-1
I0
tp16
bS'Rq\xf6akwAA'
p17
tp18
Rp19
ag10
(g14
S'%\xb2\x9d/FxAA'
p20
tp21
Rp22
ag10
(g14
S'o\xcbZMJxAA'
p23
tp24
Rp25
ag10
(g14
S'\x0f\x83\xc0\x9a\x8ewAA'
p26
tp27
Rp28
ag10
(g14
S'\x88y\xa2\xae\xb4wAA'
p29
tp30
Rp31
ag10
(g14
S'4&x\xe0\x94wAA'
p32
tp33
Rp34
ag10
(g14
S'\xb4\xc8v\xbe\xa5wAA'
p35
tp36
Rp37
ag10
(g14
S'+\xb2\x9d\xcf|wAA'
p38
tp39
Rp40
ag10
(g14
S'\xd7\xf9~*!xAA'
p41
tp42
Rp43
ag10
(g14
S'o\x93\x18T\x94wAA'
p44
tp45
Rp46
ag10
(g14
S'B\xb6\xf3-\xc0wAA'
p47
tp48
Rp49
ag10
(g14
S'X\x1d\x13\xdc\x86wAA'
p50
tp51
Rp52
ag10
(g14
S'\xc6K7\x89\xb4wAA'
p53
tp54
Rp55
ag10
(g14
S'\xf8\xb6\xac\xc5\xeewAA'
p56
tp57
Rp58
ag10
(g14
S'Qb\x10\xd8&xAA'
p59
tp60
Rp61
ag10
(g14
S'\x88\xfa7\xe2\x82wAA'
p62
tp63
Rp64
ag10
(g14
S'\xdbk.\xc4\xf7wAA'
p65
tp66
Rp67
ag10
(g14
S'\x17/\xdd\x94\x1cxAA'
p68
tp69
Rp70
ag10
(g14
S'r\xf6\xe1\x83(xAA'
p71
tp72
Rp73
ag10
(g14
S'\x83\xebQ\x88NxAA'
p74
tp75
Rp76
asS'target'
p77
(lp78
g10
(g14
S'u\xbe\x9f\x1a/_k@'
p79
tp80
Rp81
ag10
(g14
S'\xd7\xf7S\xe3\xa5\x03l@'
p82
tp83
Rp84
ag10
(g14
S'\x8d\xc2\xf5(\\_p@'
p85
tp86
Rp87
ag10
(g14
S'O\x8d\x97n\x127m@'
p88
tp89
Rp90
ag10
(g14
S'`\x10X9\xb44j@'
p91
tp92
Rp93
ag10
(g14
S'\xf5S\xe3\xa5\x9b\xeck@'
p94
tp95
Rp96
ag10
(g14
S'L\xb8\x1e\x85\xebRp@'
p97
tp98
Rp99
ag10
(g14
S'\x1e\x04V\x0e-\xaan@'
p100
tp101
Rp102
ag10
(g14
S'\xbc\x1e\x85\xebQTl@'
p103
tp104
Rp105
ag10
(g14
S'I5^\xbaI\x08o@'
p106
tp107
Rp108
ag10
(g14
S'\xd5"\xdb\xf9~\x8am@'
p109
tp110
Rp111
ag10
(g14
S'`\xe5\xd0"\xdb-k@'
p112
tp113
Rp114
ag10
(g14
S'"/\xdd$\x06\xf9m@'
p115
tp116
Rp117
ag10
(g14
S'|\x14\xaeG\xe1zo@'
p118
tp119
Rp120
ag10
(g14
S'\xd3"\xdb\xf9~lo@'
p121
tp122
Rp123
ag10
(g14
S'\xbf\xca\xa1E\xb6\x8dp@'
p124
tp125
Rp126
ag10
(g14
S'^9\xb4\xc8v\x00m@'
p127
tp128
Rp129
ag10
(g14
S'|j\xbct\x930o@'
p130
tp131
Rp132
ag10
(g14
S'T9\xb4\xc8v\x06m@'
p133
tp134
Rp135
ag10
(g14
S'13333;l@'
p136
tp137
Rp138
asssss.