(dp0
S'../Data/sqlite_9.csv'
p1
(dp2
S'../Data/sqlite_78.csv'
p3
(dp4
F0.1
(dp5
S'mmre'
p6
(dp7
S'bellwether'
p8
(lp9
cnumpy.core.multiarray
scalar
p10
(cnumpy
dtype
p11
(S'f8'
p12
I0
I1
tp13
Rp14
(I3
S'<'
p15
NNNI-1
I-1
I0
tp16
bS'\xbe\x00&<\x8b!T@'
p17
tp18
Rp19
ag10
(g14
S'M\xa8\xf2hT&T@'
p20
tp21
Rp22
ag10
(g14
S'\x16\xaf\xdb(\x05&T@'
p23
tp24
Rp25
ag10
(g14
S'\xc5\xcf\x8d\xf5S$T@'
p26
tp27
Rp28
ag10
(g14
S'\xf8\xfb\xa6\x98\xd3%T@'
p29
tp30
Rp31
ag10
(g14
S'\xb4\xfaKP\xee&T@'
p32
tp33
Rp34
ag10
(g14
S'\xc3%pL\xfc(T@'
p35
tp36
Rp37
ag10
(g14
S"\xb9\xc9{\x9a\xe0'T@"
p38
tp39
Rp40
ag10
(g14
S"\x9f\xb4\xdc\x01\xd8'T@"
p41
tp42
Rp43
ag10
(g14
S'\x1a\x99\x17Rj&T@'
p44
tp45
Rp46
ag10
(g14
S'\x9b\xca\xfa7\x85#T@'
p47
tp48
Rp49
ag10
(g14
S'\xfdYH\x98\xe9&T@'
p50
tp51
Rp52
ag10
(g14
S'S\x00\x82\x0b\xac(T@'
p53
tp54
Rp55
ag10
(g14
S'\xb4y8\xa8.\x1eT@'
p56
tp57
Rp58
ag10
(g14
S"\xac\x81azR'T@"
p59
tp60
Rp61
ag10
(g14
S'\x83\xe7Mk\xac*T@'
p62
tp63
Rp64
ag10
(g14
S'\xf1\xe1\xc4\x06i"T@'
p65
tp66
Rp67
ag10
(g14
S'\x9ca\x9d\x85#$T@'
p68
tp69
Rp70
ag10
(g14
S'PY\x19\xf8\xef%T@'
p71
tp72
Rp73
ag10
(g14
S'n\x0b\xc3x\xeb&T@'
p74
tp75
Rp76
asS'target'
p77
(lp78
g10
(g14
S'\xa3ax\xe2\xb9\xce3@'
p79
tp80
Rp81
ag10
(g14
S'\xb3\xb5\x84\xaeMx3@'
p82
tp83
Rp84
ag10
(g14
S'\x1c7\x8c\x11t)4@'
p85
tp86
Rp87
ag10
(g14
S'\xcbFQS\xb6\x063@'
p88
tp89
Rp90
ag10
(g14
S's\x02]\x15\xd923@'
p91
tp92
Rp93
ag10
(g14
S'\xe3\xa1\xe9,\xd4r6@'
p94
tp95
Rp96
ag10
(g14
S'\x8a\t\xc8q\xef`2@'
p97
tp98
Rp99
ag10
(g14
S' \xb6\xc1\x0bpX2@'
p100
tp101
Rp102
ag10
(g14
S'\xb4t\xae.\x00D5@'
p103
tp104
Rp105
ag10
(g14
S'\xc6v\xb3\x99\xa9i2@'
p106
tp107
Rp108
ag10
(g14
S'\xe3\x9a\xa3L\xcf\n4@'
p109
tp110
Rp111
ag10
(g14
S'bz\xebwYU3@'
p112
tp113
Rp114
ag10
(g14
S'\x14\xdc\xa3"\x9c%2@'
p115
tp116
Rp117
ag10
(g14
S'2R\x83B~Y5@'
p118
tp119
Rp120
ag10
(g14
S'\x9eT.\x8ctz4@'
p121
tp122
Rp123
ag10
(g14
S'\xebJ<\x92Q\xa01@'
p124
tp125
Rp126
ag10
(g14
S'\x03\xaf\xf0\xb9\xc604@'
p127
tp128
Rp129
ag10
(g14
S'\xa0=jh\xb5u3@'
p130
tp131
Rp132
ag10
(g14
S'nI\xd0\xd8\xff\xe04@'
p133
tp134
Rp135
ag10
(g14
S'\xf9\x95]\x8f273@'
p136
tp137
Rp138
asssss.