(dp0
S'../Data/sqlite_28.csv'
p1
(dp2
S'../Data/sqlite_73.csv'
p3
(dp4
F0.05
(dp5
S'mmre'
p6
(dp7
S'bellwether'
p8
(lp9
cnumpy.core.multiarray
scalar
p10
(cnumpy
dtype
p11
(S'f8'
p12
I0
I1
tp13
Rp14
(I3
S'<'
p15
NNNI-1
I-1
I0
tp16
bS'\x83H\xe7\xc7\x1f Q@'
p17
tp18
Rp19
ag10
(g14
S'4\xbf\xa5\xd7;$Q@'
p20
tp21
Rp22
ag10
(g14
S'*\xa6\x90G\xe6$Q@'
p23
tp24
Rp25
ag10
(g14
S'Ge\xa6\x05\x1b$Q@'
p26
tp27
Rp28
ag10
(g14
S'\xbfm\xe5\x84P#Q@'
p29
tp30
Rp31
ag10
(g14
S'F\r\x11\xd4B&Q@'
p32
tp33
Rp34
ag10
(g14
S'\xba:\xd21\x1a%Q@'
p35
tp36
Rp37
ag10
(g14
S"V8\xf1\xfeI'Q@"
p38
tp39
Rp40
ag10
(g14
S'\xf3\xe0&\x95W%Q@'
p41
tp42
Rp43
ag10
(g14
S'\xe3x\xfcV\x90#Q@'
p44
tp45
Rp46
ag10
(g14
S'\xe9\xbd\xe6\r}%Q@'
p47
tp48
Rp49
ag10
(g14
S'\xfb\xb5\xa0}e%Q@'
p50
tp51
Rp52
ag10
(g14
S'-I_OG$Q@'
p53
tp54
Rp55
ag10
(g14
S'0@P\xff\xa9%Q@'
p56
tp57
Rp58
ag10
(g14
S']-\xb5\xdf\x93$Q@'
p59
tp60
Rp61
ag10
(g14
S'\xcf.\xb1\x0e\x1d%Q@'
p62
tp63
Rp64
ag10
(g14
S'E\x17?\xd6\x19$Q@'
p65
tp66
Rp67
ag10
(g14
S'"\xab\xce\xfa,#Q@'
p68
tp69
Rp70
ag10
(g14
S'=\x12\x07\x18\xa9&Q@'
p71
tp72
Rp73
ag10
(g14
S'\xfc\xc6GO\xea!Q@'
p74
tp75
Rp76
asS'target'
p77
(lp78
g10
(g14
S'\x9c\xd8R\x8d\x11\x8d+@'
p79
tp80
Rp81
ag10
(g14
S'Ij\x96\xbf\x7f\x99-@'
p82
tp83
Rp84
ag10
(g14
S'\xd4\xab\xaf\xecA\x1d+@'
p85
tp86
Rp87
ag10
(g14
S'\xbcOEC\xe1\x12*@'
p88
tp89
Rp90
ag10
(g14
S'CYMc\xc2\xc8/@'
p91
tp92
Rp93
ag10
(g14
S"\x04\x80\r\xf1']+@"
p94
tp95
Rp96
ag10
(g14
S"/2Z\xf3(\xac'@"
p97
tp98
Rp99
ag10
(g14
S'\xd0d\xbe\x9196)@'
p100
tp101
Rp102
ag10
(g14
S'\xaf\x06q\xf2+#)@'
p103
tp104
Rp105
ag10
(g14
S's\xa1:KN\xb7,@'
p106
tp107
Rp108
ag10
(g14
S'\xe1\xf4\xa0\xb6\x95\xfe)@'
p109
tp110
Rp111
ag10
(g14
S'\xc1\xda\xb2D\xb7\xc7*@'
p112
tp113
Rp114
ag10
(g14
S'\xe0)\xde\xf0\x0b\xd6)@'
p115
tp116
Rp117
ag10
(g14
S'\nOi\xf6\x93\x0b)@'
p118
tp119
Rp120
ag10
(g14
S'\xa8=AQ\xbad.@'
p121
tp122
Rp123
ag10
(g14
S'C:\xd4\xf9\x9a#)@'
p124
tp125
Rp126
ag10
(g14
S'd\n\x9e\x0c\xaao+@'
p127
tp128
Rp129
ag10
(g14
S'\xd5\xd3I\xcd\x9d\xe7+@'
p130
tp131
Rp132
ag10
(g14
S'Y\xa5\x8a\x03\xf4\xc9)@'
p133
tp134
Rp135
ag10
(g14
S'\x9fu*\xf8a\x8b*@'
p136
tp137
Rp138
asssss.