(dp0
S'../Data/sqlite_90.csv'
p1
(dp2
S'../Data/sqlite_95.csv'
p3
(dp4
F0.35
(dp5
S'mmre'
p6
(dp7
S'bellwether'
p8
(lp9
cnumpy.core.multiarray
scalar
p10
(cnumpy
dtype
p11
(S'f8'
p12
I0
I1
tp13
Rp14
(I3
S'<'
p15
NNNI-1
I-1
I0
tp16
bS'F\x07\xeeGgqV@'
p17
tp18
Rp19
ag10
(g14
S'/\x17Ug*xV@'
p20
tp21
Rp22
ag10
(g14
S'\x83{W\xe3f\x7fV@'
p23
tp24
Rp25
ag10
(g14
S'Q\xd1\x94\xfa\xe4rV@'
p26
tp27
Rp28
ag10
(g14
S'\xbbs\xe1x?yV@'
p29
tp30
Rp31
ag10
(g14
S'l\x7f\xc8}@}V@'
p32
tp33
Rp34
ag10
(g14
S'\xde\x89\t\x1a(uV@'
p35
tp36
Rp37
ag10
(g14
S'Lo\xa4\x05VnV@'
p38
tp39
Rp40
ag10
(g14
S'\xef\xcfO\xc9\x8fzV@'
p41
tp42
Rp43
ag10
(g14
S'\x80\xf5\xfd!\x8azV@'
p44
tp45
Rp46
ag10
(g14
S'\xa7\x92\xbe\x96=uV@'
p47
tp48
Rp49
ag10
(g14
S'\x00b\t\xdc\xc5qV@'
p50
tp51
Rp52
ag10
(g14
S'\x10\x07\x11/pzV@'
p53
tp54
Rp55
ag10
(g14
S'Ve\x0fd\x85wV@'
p56
tp57
Rp58
ag10
(g14
S'\xaf>\x90T\xf8~V@'
p59
tp60
Rp61
ag10
(g14
S'\xb2\x17|\xf8#sV@'
p62
tp63
Rp64
ag10
(g14
S'|\xec<-\xa2|V@'
p65
tp66
Rp67
ag10
(g14
S'\x8f,\x19\xbe\x9brV@'
p68
tp69
Rp70
ag10
(g14
S'\xa7\x0b\xc6\x18\x03|V@'
p71
tp72
Rp73
ag10
(g14
S'\xa2\xe1#\xc5\x90tV@'
p74
tp75
Rp76
asS'target'
p77
(lp78
g10
(g14
S'\xe6\xc8\xe6\x03\x867@@'
p79
tp80
Rp81
ag10
(g14
S'\x012+l\xdc\xfd@@'
p82
tp83
Rp84
ag10
(g14
S'G\xe4\x07(u\x98B@'
p85
tp86
Rp87
ag10
(g14
S'\x1cy\xf8\xa9\x81\xbcB@'
p88
tp89
Rp90
ag10
(g14
S'\x9b\x87i\xb7\x18\x96C@'
p91
tp92
Rp93
ag10
(g14
S'm\x88\xe6p@\x99B@'
p94
tp95
Rp96
ag10
(g14
S"Ky\xc3;'\xeb@@"
p97
tp98
Rp99
ag10
(g14
S'\xd6v\x9d=3XB@'
p100
tp101
Rp102
ag10
(g14
S'Z\xb4q\xba\xb2\xe1A@'
p103
tp104
Rp105
ag10
(g14
S'ep\x85B"wA@'
p106
tp107
Rp108
ag10
(g14
S'\xa5\x9bnr6\x89@@'
p109
tp110
Rp111
ag10
(g14
S'\\T\x9d\x88i\tC@'
p112
tp113
Rp114
ag10
(g14
S'9\xa3Y\x18\xf9\x82=@'
p115
tp116
Rp117
ag10
(g14
S'\x18\x1d\xfb\xc0\x86\xf0@@'
p118
tp119
Rp120
ag10
(g14
S'\x97\x00\x12\xe2!!?@'
p121
tp122
Rp123
ag10
(g14
S'\x10\xebn\x8d\xe7K@@'
p124
tp125
Rp126
ag10
(g14
S'\xb6i\xb7\x87\xf8zA@'
p127
tp128
Rp129
ag10
(g14
S'2\x03\xe2\x9e\xb2\xfa>@'
p130
tp131
Rp132
ag10
(g14
S'E\x9a;\xd36lA@'
p133
tp134
Rp135
ag10
(g14
S'\xa0\x83"\x85 \x10B@'
p136
tp137
Rp138
asssss.