(dp0
S'../Data/sqlite_9.csv'
p1
(dp2
S'../Data/sqlite_73.csv'
p3
(dp4
F0.1
(dp5
S'mmre'
p6
(dp7
S'bellwether'
p8
(lp9
cnumpy.core.multiarray
scalar
p10
(cnumpy
dtype
p11
(S'f8'
p12
I0
I1
tp13
Rp14
(I3
S'<'
p15
NNNI-1
I-1
I0
tp16
bS'IT\x82`\x832W@'
p17
tp18
Rp19
ag10
(g14
S'\x8a\xad\xc0\xa4\xfd1W@'
p20
tp21
Rp22
ag10
(g14
S'\x1b\x83\x98Y\xca1W@'
p23
tp24
Rp25
ag10
(g14
S'\xb0\xc4\xd9>\x1a2W@'
p26
tp27
Rp28
ag10
(g14
S'=HNZ\xc42W@'
p29
tp30
Rp31
ag10
(g14
S'\xf4B)\x1c\xd22W@'
p32
tp33
Rp34
ag10
(g14
S'q\x87\xf2\x05"2W@'
p35
tp36
Rp37
ag10
(g14
S'\xcb\x8fM\xc0\xe02W@'
p38
tp39
Rp40
ag10
(g14
S'\xd9\x16R\xdc\xb43W@'
p41
tp42
Rp43
ag10
(g14
S'\\\x96r\xdd\xb32W@'
p44
tp45
Rp46
ag10
(g14
S'?k\xbbR\xda2W@'
p47
tp48
Rp49
ag10
(g14
S'\xfa\xc2\x7fR\xee2W@'
p50
tp51
Rp52
ag10
(g14
S'\xa9\xf0\x91\x03I3W@'
p53
tp54
Rp55
ag10
(g14
S'e\xeb+\x82N3W@'
p56
tp57
Rp58
ag10
(g14
S'\xb7Nhx\xdc2W@'
p59
tp60
Rp61
ag10
(g14
S'\xdc\xcft\xf3\xaa2W@'
p62
tp63
Rp64
ag10
(g14
S'\xd4(\xb5\xc0\xec2W@'
p65
tp66
Rp67
ag10
(g14
S'\xc0\xb7H\xb2\xef1W@'
p68
tp69
Rp70
ag10
(g14
S'\xe2\x0b\x8aS\xad2W@'
p71
tp72
Rp73
ag10
(g14
S'\xbf\xd0\r\xb4\n3W@'
p74
tp75
Rp76
asS'target'
p77
(lp78
g10
(g14
S'\n\xaao\xb4\xee\x0e-@'
p79
tp80
Rp81
ag10
(g14
S')]\x9c\x98\xe0\xf5+@'
p82
tp83
Rp84
ag10
(g14
S'G\x19\xf7\x90\xcdm-@'
p85
tp86
Rp87
ag10
(g14
S'\x07\x0b\xb57c\xfe+@'
p88
tp89
Rp90
ag10
(g14
S'~(R$j\x8f)@'
p91
tp92
Rp93
ag10
(g14
S'\xf5\xb8~&\xbf#.@'
p94
tp95
Rp96
ag10
(g14
S'N\xb2\xff\xd6N\xf4,@'
p97
tp98
Rp99
ag10
(g14
S'\xa4=\xe7P&r)@'
p100
tp101
Rp102
ag10
(g14
S'\xee\xfb\x84\x18\xb6\x90*@'
p103
tp104
Rp105
ag10
(g14
S'\xb5wY9\xcev/@'
p106
tp107
Rp108
ag10
(g14
S'_\\<\xe1\xa6b+@'
p109
tp110
Rp111
ag10
(g14
S'<\x12\xe7\xd9\xb4\xdd-@'
p112
tp113
Rp114
ag10
(g14
S"\xb73']\x05\x0b*@"
p115
tp116
Rp117
ag10
(g14
S'\xd0/}?" )@'
p118
tp119
Rp120
ag10
(g14
S'\xb85\xda\\:d+@'
p121
tp122
Rp123
ag10
(g14
S'\xa7\x96\x9dW\xf2\x8b-@'
p124
tp125
Rp126
ag10
(g14
S'\x19\xfe_\x9b\xef:,@'
p127
tp128
Rp129
ag10
(g14
S'\xc4\x85K\x90\x95\xaf+@'
p130
tp131
Rp132
ag10
(g14
S'#\x86@)\xcep-@'
p133
tp134
Rp135
ag10
(g14
S'W\x06[,Z\xf6*@'
p136
tp137
Rp138
asssss.