(dp0
S'../Data/sqlite_49.csv'
p1
(dp2
S'../Data/sqlite_62.csv'
p3
(dp4
F0.35
(dp5
S'mmre'
p6
(dp7
S'bellwether'
p8
(lp9
cnumpy.core.multiarray
scalar
p10
(cnumpy
dtype
p11
(S'f8'
p12
I0
I1
tp13
Rp14
(I3
S'<'
p15
NNNI-1
I-1
I0
tp16
bS'9\xc0Ua?nK@'
p17
tp18
Rp19
ag10
(g14
S'.\xd6k?LtK@'
p20
tp21
Rp22
ag10
(g14
S'.\x8c\x9ao)fK@'
p23
tp24
Rp25
ag10
(g14
S'\x92\xb4=\xbd\xdbeK@'
p26
tp27
Rp28
ag10
(g14
S'\xb2\xc9\xf6\x96\xb0`K@'
p29
tp30
Rp31
ag10
(g14
S'\xa0B\x88x\xab_K@'
p32
tp33
Rp34
ag10
(g14
S'\xd0|3k\x1cgK@'
p35
tp36
Rp37
ag10
(g14
S'rC\xc5\x130_K@'
p38
tp39
Rp40
ag10
(g14
S'\xe7\xcbD\xa0\xbfzK@'
p41
tp42
Rp43
ag10
(g14
S'7\x8b\txEbK@'
p44
tp45
Rp46
ag10
(g14
S'5\xdd=MxmK@'
p47
tp48
Rp49
ag10
(g14
S'r3\xb4k7fK@'
p50
tp51
Rp52
ag10
(g14
S'\x07m\xd4\x0e\x8amK@'
p53
tp54
Rp55
ag10
(g14
S'+f\xe8\x10\xc8[K@'
p56
tp57
Rp58
ag10
(g14
S'\xdc\xe3{\xa6\xf3jK@'
p59
tp60
Rp61
ag10
(g14
S'\xf0?d\x0c\x95oK@'
p62
tp63
Rp64
ag10
(g14
S'\x80\x94\x9f\xcclhK@'
p65
tp66
Rp67
ag10
(g14
S'f\x03\xe9<\x12aK@'
p68
tp69
Rp70
ag10
(g14
S'\xea8\xd8\x12\x8fkK@'
p71
tp72
Rp73
ag10
(g14
S'\xa5\x9eAo1oK@'
p74
tp75
Rp76
asS'target'
p77
(lp78
g10
(g14
S'\x00\xb9}1Z\xe7!@'
p79
tp80
Rp81
ag10
(g14
S'\xf3\xb6\xe2k\x7f2"@'
p82
tp83
Rp84
ag10
(g14
S'\xd9\xa5L\xcf\xaf\xe5 @'
p85
tp86
Rp87
ag10
(g14
S'\xcb44\xe9\x81b!@'
p88
tp89
Rp90
ag10
(g14
S'\xba\x0f\x14\xa89e @'
p91
tp92
Rp93
ag10
(g14
S'B,\xf8O\x94i!@'
p94
tp95
Rp96
ag10
(g14
S'EP\xcf\xce\xc0,!@'
p97
tp98
Rp99
ag10
(g14
S'n\xb3\xd7#H\xe0 @'
p100
tp101
Rp102
ag10
(g14
S'\xc82\xfd0\xf0\x7f!@'
p103
tp104
Rp105
ag10
(g14
S'e\xbb\rM\xfc\xbe!@'
p106
tp107
Rp108
ag10
(g14
S'\xdc\x9f7\x19\xc7|!@'
p109
tp110
Rp111
ag10
(g14
S'\x08\xf7\xd0Ly\xa2"@'
p112
tp113
Rp114
ag10
(g14
S'}X\x9c\xc0\x1e\x92 @'
p115
tp116
Rp117
ag10
(g14
S'P\x8d>\xf6\xafY"@'
p118
tp119
Rp120
ag10
(g14
S'r\xd8\xbe\x1d\x84\xa4!@'
p121
tp122
Rp123
ag10
(g14
S'i\xa1\xe8\tY\x06!@'
p124
tp125
Rp126
ag10
(g14
S'd\xb9L\xbb\xbdM!@'
p127
tp128
Rp129
ag10
(g14
S'\x90\x9fx<\xa5\x01!@'
p130
tp131
Rp132
ag10
(g14
S'\x10CWFe\x8c!@'
p133
tp134
Rp135
ag10
(g14
S'\x98Q"\x16\xffT!@'
p136
tp137
Rp138
asssss.