(dp0
S'../Data/sqlite_60.csv'
p1
(dp2
S'../Data/sqlite_19.csv'
p3
(dp4
F0.15
(dp5
S'abs_res'
p6
(dp7
S'bellwether'
p8
(lp9
cnumpy.core.multiarray
scalar
p10
(cnumpy
dtype
p11
(S'f8'
p12
I0
I1
tp13
Rp14
(I3
S'<'
p15
NNNI-1
I-1
I0
tp16
bS'\xb9\x9f\x1a[\xaa0hA'
p17
tp18
Rp19
ag10
(g14
S'\xb4\xc8v\x1e\xd20hA'
p20
tp21
Rp22
ag10
(g14
S'\x94\xc4 X\xa39hA'
p23
tp24
Rp25
ag10
(g14
S'\x1a/\xdd \xa29hA'
p26
tp27
Rp28
ag10
(g14
S'\x99Rq\xf2\xac7hA'
p29
tp30
Rp31
ag10
(g14
S'\xcc\xf7S\xd7\x975hA'
p32
tp33
Rp34
ag10
(g14
S'\x07\x00\x00l\r-hA'
p35
tp36
Rp37
ag10
(g14
S"q\xa0\xd3\xae'+hA"
p38
tp39
Rp40
ag10
(g14
S'6\x89A\x84\xbc;hA'
p41
tp42
Rp43
ag10
(g14
S'.\xea\xdfd`7hA'
p44
tp45
Rp46
ag10
(g14
S'O\xb6\xf3\x81\xb5*hA'
p47
tp48
Rp49
ag10
(g14
S'\xc5I\x0c\xb2\x954hA'
p50
tp51
Rp52
ag10
(g14
S'\x85A`\xb1b;hA'
p53
tp54
Rp55
ag10
(g14
S't\x93\x18\x8c\x039hA'
p56
tp57
Rp58
ag10
(g14
S'\xd9\\H\xd2\x030hA'
p59
tp60
Rp61
ag10
(g14
S')1\x08\x80e/hA'
p62
tp63
Rp64
ag10
(g14
S'c;\xdf\xd3\x005hA'
p65
tp66
Rp67
ag10
(g14
S'\x85j\xbch\xc0(hA'
p68
tp69
Rp70
ag10
(g14
S'\xc3K75\xfa8hA'
p71
tp72
Rp73
ag10
(g14
S'\xe4z\x14>V3hA'
p74
tp75
Rp76
asS'target'
p77
(lp78
g10
(g14
S'\x0c\x02+\x87\x16\xe1X@'
p79
tp80
Rp81
ag10
(g14
S'"\x04V\x0e-\xa2Y@'
p82
tp83
Rp84
ag10
(g14
S'k\x10X9\xb4tX@'
p85
tp86
Rp87
ag10
(g14
S'\xc8I\x0c\x02+OX@'
p88
tp89
Rp90
ag10
(g14
S'\xea\xfb\xa9\xf1\xd2\xedW@'
p91
tp92
Rp93
ag10
(g14
S'<\xdfO\x8d\x97\xbeX@'
p94
tp95
Rp96
ag10
(g14
S'N\xb6\xf3\xfd\xd4\xc8Y@'
p97
tp98
Rp99
ag10
(g14
S']\xe3\xa5\x9b\xc4\xf0Y@'
p100
tp101
Rp102
ag10
(g14
S'\xa5E\xb6\xf3\xfd\xb4X@'
p103
tp104
Rp105
ag10
(g14
S'\xb6\x1cZd;\xbfV@'
p106
tp107
Rp108
ag10
(g14
S'\xa8\xef\xa7\xc6K\xb7X@'
p109
tp110
Rp111
ag10
(g14
S'\xe1\xce\xf7S\xe3\xfdV@'
p112
tp113
Rp114
ag10
(g14
S'\xa9p=\n\xd7cW@'
p115
tp116
Rp117
ag10
(g14
S'?5^\xbaI\xc4\\@'
p118
tp119
Rp120
ag10
(g14
S'+\x85\xebQ\xb8nX@'
p121
tp122
Rp123
ag10
(g14
S'h\x91\xed|?1U@'
p124
tp125
Rp126
ag10
(g14
S'z\x14\xaeG\xe1\x02Y@'
p127
tp128
Rp129
ag10
(g14
S'53333\xbbW@'
p130
tp131
Rp132
ag10
(g14
S'\x13Zd;\xdf_X@'
p133
tp134
Rp135
ag10
(g14
S'\xdf\xa3p=\ngZ@'
p136
tp137
Rp138
asssss.