(dp0
S'../Data/sqlite_28.csv'
p1
(dp2
S'../Data/sqlite_63.csv'
p3
(dp4
F0.2
(dp5
S'mmre'
p6
(dp7
S'bellwether'
p8
(lp9
cnumpy.core.multiarray
scalar
p10
(cnumpy
dtype
p11
(S'f8'
p12
I0
I1
tp13
Rp14
(I3
S'<'
p15
NNNI-1
I-1
I0
tp16
bS'<v\xd1\xf2\xd4+R@'
p17
tp18
Rp19
ag10
(g14
S'\x92\xe9\xf1g\x99(R@'
p20
tp21
Rp22
ag10
(g14
S'\xcfZ.\xc3\x98(R@'
p23
tp24
Rp25
ag10
(g14
S'>d\x16@\x15)R@'
p26
tp27
Rp28
ag10
(g14
S'\xb0Oq\x04\xc1*R@'
p29
tp30
Rp31
ag10
(g14
S"3<\xfa\x83r'R@"
p32
tp33
Rp34
ag10
(g14
S'\x16M\x81R\x96)R@'
p35
tp36
Rp37
ag10
(g14
S'?\x1ec\xb6\x8f(R@'
p38
tp39
Rp40
ag10
(g14
S'\x86A\xfc5@)R@'
p41
tp42
Rp43
ag10
(g14
S'\x87\x16L\x0eZ(R@'
p44
tp45
Rp46
ag10
(g14
S'\xcd\x02\xc1\xa6u&R@'
p47
tp48
Rp49
ag10
(g14
S'\x866\x95:\x9c&R@'
p50
tp51
Rp52
ag10
(g14
S'\x1e\x0e\x87\xc3\x07(R@'
p53
tp54
Rp55
ag10
(g14
S'\xd2]j\x96\xe6&R@'
p56
tp57
Rp58
ag10
(g14
S'@\x89\x9a\xbd!)R@'
p59
tp60
Rp61
ag10
(g14
S'\xc2X\x0c\x05\x7f&R@'
p62
tp63
Rp64
ag10
(g14
S'E\xb0\xce\x92\xae,R@'
p65
tp66
Rp67
ag10
(g14
S"s\xb3]U\xdf'R@"
p68
tp69
Rp70
ag10
(g14
S'\xa0\x9b\xfa2U+R@'
p71
tp72
Rp73
ag10
(g14
S"d\xb3O\x94?'R@"
p74
tp75
Rp76
asS'target'
p77
(lp78
g10
(g14
S'k>v\xfe@\xea!@'
p79
tp80
Rp81
ag10
(g14
S'(\x95)\xc1\xcd\xf6 @'
p82
tp83
Rp84
ag10
(g14
S'5\x18!\xc0\x11\xc6#@'
p85
tp86
Rp87
ag10
(g14
S'L\x0f\x9f6\xcfB#@'
p88
tp89
Rp90
ag10
(g14
S'\xa6\xc5\xb3\xa1\xd7\xa7"@'
p91
tp92
Rp93
ag10
(g14
S'<\xd8\xaa\\\x8d\xba"@'
p94
tp95
Rp96
ag10
(g14
S'^\x9d%-\x80\xfc"@'
p97
tp98
Rp99
ag10
(g14
S"F'\xa3*\xba\x12#@"
p100
tp101
Rp102
ag10
(g14
S'\n\x99\x0c\xb9\x9cx"@'
p103
tp104
Rp105
ag10
(g14
S'\xbf\xd9\x9dQs\xab"@'
p106
tp107
Rp108
ag10
(g14
S'\xb69o\x84F\x90#@'
p109
tp110
Rp111
ag10
(g14
S'e\xb7\xd5\xa7\x01\xea"@'
p112
tp113
Rp114
ag10
(g14
S'\\\xc4\r\xc8\xcc\x1f"@'
p115
tp116
Rp117
ag10
(g14
S'\xbc\x93\xc7\x831G#@'
p118
tp119
Rp120
ag10
(g14
S'\x8cJ\xc1\xc2\xcf\xd3!@'
p121
tp122
Rp123
ag10
(g14
S'\xa0@\x84\x04\x17\x80#@'
p124
tp125
Rp126
ag10
(g14
S'R$l9w\x96!@'
p127
tp128
Rp129
ag10
(g14
S'\xd46Z\xff\xb9S#@'
p130
tp131
Rp132
ag10
(g14
S'+\xd5\xaeU>L"@'
p133
tp134
Rp135
ag10
(g14
S'\xe4N\xb5m!\xaf"@'
p136
tp137
Rp138
asssss.