(dp0
S'../Data/sqlite_0.csv'
p1
(dp2
S'../Data/sqlite_92.csv'
p3
(dp4
F0.15
(dp5
S'mmre'
p6
(dp7
S'bellwether'
p8
(lp9
cnumpy.core.multiarray
scalar
p10
(cnumpy
dtype
p11
(S'f8'
p12
I0
I1
tp13
Rp14
(I3
S'<'
p15
NNNI-1
I-1
I0
tp16
bS'\x80\x86\xcd\x83K0P@'
p17
tp18
Rp19
ag10
(g14
S'\xb6\x95\xe2w\x16GP@'
p20
tp21
Rp22
ag10
(g14
S'\xef\x04\x1c\xc35)P@'
p23
tp24
Rp25
ag10
(g14
S'6\xfaC\xccq0P@'
p26
tp27
Rp28
ag10
(g14
S'\xdehT\x84\xcb\x7fP@'
p29
tp30
Rp31
ag10
(g14
S'\x1f;\xf5^MSP@'
p32
tp33
Rp34
ag10
(g14
S'\xdc`\x17^\tmP@'
p35
tp36
Rp37
ag10
(g14
S'\xb75b\xfc,rP@'
p38
tp39
Rp40
ag10
(g14
S'XI\xda0\xbaOP@'
p41
tp42
Rp43
ag10
(g14
S'\xdb\xa0o\xb8\xb2\x19P@'
p44
tp45
Rp46
ag10
(g14
S'\xe8\xe1\xe6$\x83>P@'
p47
tp48
Rp49
ag10
(g14
S'\xf3m\x13\xf7S?P@'
p50
tp51
Rp52
ag10
(g14
S'\x92I}\r\x7fVP@'
p53
tp54
Rp55
ag10
(g14
S'O\xf8\xc3x\x1fnP@'
p56
tp57
Rp58
ag10
(g14
S'\x0bX\xf5\xde)?P@'
p59
tp60
Rp61
ag10
(g14
S'\x8b\xe3(}\x1a\x1cP@'
p62
tp63
Rp64
ag10
(g14
S"p\x93\x0f'\xdc\xffO@"
p65
tp66
Rp67
ag10
(g14
S'\xbc:1IIBP@'
p68
tp69
Rp70
ag10
(g14
S'\xf5\xf7"\x10\xb6!P@'
p71
tp72
Rp73
ag10
(g14
S'\xf7~\x0f\xd3z\x14P@'
p74
tp75
Rp76
asS'target'
p77
(lp78
g10
(g14
S'\xd1?\xe80pyP@'
p79
tp80
Rp81
ag10
(g14
S'$\x00)\xb2\xf5\xe1J@'
p82
tp83
Rp84
ag10
(g14
S'\xd2\x9a\x1c\xc4\xb4.H@'
p85
tp86
Rp87
ag10
(g14
S'hB\x99K\xa3\xfbU@'
p88
tp89
Rp90
ag10
(g14
S']f^mz\xc8M@'
p91
tp92
Rp93
ag10
(g14
S'1 \xc3\xcf\x9e S@'
p94
tp95
Rp96
ag10
(g14
S'\x0e\x05j\x9e7\xf7R@'
p97
tp98
Rp99
ag10
(g14
S'z\xa2\x11J~\xc7V@'
p100
tp101
Rp102
ag10
(g14
S'^c\xfe"\xf3AQ@'
p103
tp104
Rp105
ag10
(g14
S'e\xb0\x90;\xfd\xd8W@'
p106
tp107
Rp108
ag10
(g14
S'\xdf\xe7\x137Y\xffQ@'
p109
tp110
Rp111
ag10
(g14
S'?\x7f\xeb\x8e\xea\xfdJ@'
p112
tp113
Rp114
ag10
(g14
S'`P\x14\x96\xd5GN@'
p115
tp116
Rp117
ag10
(g14
S'#O\x9d"3\xf3R@'
p118
tp119
Rp120
ag10
(g14
S'\x15\x96u\xf9\x1c\xd5Q@'
p121
tp122
Rp123
ag10
(g14
S'\xce\xde\xcc\x9c\xa7\xd0P@'
p124
tp125
Rp126
ag10
(g14
S'\x86n\x0b\xa2\x1e L@'
p127
tp128
Rp129
ag10
(g14
S'D\xc1\x9e\xb3\xb8\xb7R@'
p130
tp131
Rp132
ag10
(g14
S'.\xc5O\xe6_nQ@'
p133
tp134
Rp135
ag10
(g14
S'pz5~\xf1\xf9X@'
p136
tp137
Rp138
asssss.