(dp0
S'../Data/sqlite_17.csv'
p1
(dp2
S'../Data/sqlite_63.csv'
p3
(dp4
F0.1
(dp5
S'mmre'
p6
(dp7
S'bellwether'
p8
(lp9
cnumpy.core.multiarray
scalar
p10
(cnumpy
dtype
p11
(S'f8'
p12
I0
I1
tp13
Rp14
(I3
S'<'
p15
NNNI-1
I-1
I0
tp16
bS'\x06\xe4\x18\x0f\xb1&I@'
p17
tp18
Rp19
ag10
(g14
S'\xeb\xd1R\x91D*I@'
p20
tp21
Rp22
ag10
(g14
S'Q=\xcdqb&I@'
p23
tp24
Rp25
ag10
(g14
S'(\xd5g2\xb7/I@'
p26
tp27
Rp28
ag10
(g14
S'\x12\x02\xc9\x87\x17)I@'
p29
tp30
Rp31
ag10
(g14
S'p:\x1dq\xb61I@'
p32
tp33
Rp34
ag10
(g14
S'\x9c\xc6\x8es/,I@'
p35
tp36
Rp37
ag10
(g14
S'_v\x84L\xc7/I@'
p38
tp39
Rp40
ag10
(g14
S'\x80l\xb9\xf4\xe0/I@'
p41
tp42
Rp43
ag10
(g14
S'\x8f(\x90\xc140I@'
p44
tp45
Rp46
ag10
(g14
S'\n\xb2|\x7f\xfc/I@'
p47
tp48
Rp49
ag10
(g14
S'\x0b=\xb1\xad\xfd6I@'
p50
tp51
Rp52
ag10
(g14
S'|\x87:<\xe44I@'
p53
tp54
Rp55
ag10
(g14
S'\x19\x91&\\\xb5,I@'
p56
tp57
Rp58
ag10
(g14
S'\xa4\xc7\xf0\xc0\xec)I@'
p59
tp60
Rp61
ag10
(g14
S'\x82\xe0\xd8\xe8f0I@'
p62
tp63
Rp64
ag10
(g14
S'\xd8\xa2Gy\x8b5I@'
p65
tp66
Rp67
ag10
(g14
S'\xb2\x95e\xadd1I@'
p68
tp69
Rp70
ag10
(g14
S'|4\xac\x93\xe5\x1fI@'
p71
tp72
Rp73
ag10
(g14
S'\x1e|\x9a\xac=9I@'
p74
tp75
Rp76
asS'target'
p77
(lp78
g10
(g14
S'\x10\x98gP\xcc\xd7!@'
p79
tp80
Rp81
ag10
(g14
S'\xf01\xfc\xdb"\x9b$@'
p82
tp83
Rp84
ag10
(g14
S'\x1e\r\xb9n\\h"@'
p85
tp86
Rp87
ag10
(g14
S'2$\x12\x95\xa0F$@'
p88
tp89
Rp90
ag10
(g14
S'\xf6\x8d\xf8\xc5\xdc8$@'
p91
tp92
Rp93
ag10
(g14
S'\xebl\x99$N\xf4"@'
p94
tp95
Rp96
ag10
(g14
S'j]\xe0\xfb\xf3b#@'
p97
tp98
Rp99
ag10
(g14
S'\x19b\'\xbc\xf7\xeb"@'
p100
tp101
Rp102
ag10
(g14
S"\xda[\xba@'\xfa!@"
p103
tp104
Rp105
ag10
(g14
S'\x93\x12\xdf\xa6\xfbQ"@'
p106
tp107
Rp108
ag10
(g14
S':,\x16\xbdoV#@'
p109
tp110
Rp111
ag10
(g14
S'\x80;7\x19\xe9\xc1"@'
p112
tp113
Rp114
ag10
(g14
S'\xe2\x08&\tE\xb3"@'
p115
tp116
Rp117
ag10
(g14
S'0\xa1\xd6+\t\xff#@'
p118
tp119
Rp120
ag10
(g14
S'\xfeH\xf2\xe7\xf07$@'
p121
tp122
Rp123
ag10
(g14
S'b\x0f\xcau\x1e("@'
p124
tp125
Rp126
ag10
(g14
S'6\xd5=&\xcah$@'
p127
tp128
Rp129
ag10
(g14
S'\x83^\xdc\x1b\x9en!@'
p130
tp131
Rp132
ag10
(g14
S'0:\xfa!\x1bv%@'
p133
tp134
Rp135
ag10
(g14
S'zZ\xb1_\x95\xf5!@'
p136
tp137
Rp138
asssss.