(dp0
S'../Data/sqlite_16.csv'
p1
(dp2
S'../Data/sqlite_97.csv'
p3
(dp4
F0.3
(dp5
S'mmre'
p6
(dp7
S'bellwether'
p8
(lp9
cnumpy.core.multiarray
scalar
p10
(cnumpy
dtype
p11
(S'f8'
p12
I0
I1
tp13
Rp14
(I3
S'<'
p15
NNNI-1
I-1
I0
tp16
bS'\xe8\xdck\x04\xe0{W@'
p17
tp18
Rp19
ag10
(g14
S'\x0bU\x18\xb5\xf3xW@'
p20
tp21
Rp22
ag10
(g14
S'\xdd\x80\x85|\x05~W@'
p23
tp24
Rp25
ag10
(g14
S'U\xbcZcf\x80W@'
p26
tp27
Rp28
ag10
(g14
S'\x00\xe3\xd4\xe8\xe8yW@'
p29
tp30
Rp31
ag10
(g14
S'\xb8\xfbk%\xf9|W@'
p32
tp33
Rp34
ag10
(g14
S'v\x0cK\xcd\xf8|W@'
p35
tp36
Rp37
ag10
(g14
S'|\xa9O\x89fzW@'
p38
tp39
Rp40
ag10
(g14
S'\xcflP\x1a\x94zW@'
p41
tp42
Rp43
ag10
(g14
S'\xa4\x9e\xd6\xdax~W@'
p44
tp45
Rp46
ag10
(g14
S')\x1fX\xb0m~W@'
p47
tp48
Rp49
ag10
(g14
S'7-\x13Q\x00zW@'
p50
tp51
Rp52
ag10
(g14
S'\xb0Y\x0c1\x01vW@'
p53
tp54
Rp55
ag10
(g14
S'\xa3R\xe3\xdd\xb5yW@'
p56
tp57
Rp58
ag10
(g14
S'\xc0\x7f\xedy({W@'
p59
tp60
Rp61
ag10
(g14
S'i\x99D=)zW@'
p62
tp63
Rp64
ag10
(g14
S'4+\x8aKq{W@'
p65
tp66
Rp67
ag10
(g14
S')\xb3gf\x04}W@'
p68
tp69
Rp70
ag10
(g14
S'U\n\x11:\x87zW@'
p71
tp72
Rp73
ag10
(g14
S'\xce\xfc]<\xbb|W@'
p74
tp75
Rp76
asS'target'
p77
(lp78
g10
(g14
S'\x9eg\xcdABcV@'
p79
tp80
Rp81
ag10
(g14
S'\xc6\xe5\x97x\xa0\xb1X@'
p82
tp83
Rp84
ag10
(g14
S'rv\x1b\xe7\xbb\xb0S@'
p85
tp86
Rp87
ag10
(g14
S'\xa0\xae\x190\xaf\x9cV@'
p88
tp89
Rp90
ag10
(g14
S')v\xf8\x7f\\\xc2V@'
p91
tp92
Rp93
ag10
(g14
S'Y\xf6N\x1f{2W@'
p94
tp95
Rp96
ag10
(g14
S'P\x04\x97\x87\xb8P\\@'
p97
tp98
Rp99
ag10
(g14
S'K\xe6\xa7k\xf8\x9e`@'
p100
tp101
Rp102
ag10
(g14
S'lz\x04\xa8\xf86V@'
p103
tp104
Rp105
ag10
(g14
S'\x07\xa7\xc1z\x03\xceJ@'
p106
tp107
Rp108
ag10
(g14
S'\x9c\xfce\xd0\x90\x8aV@'
p109
tp110
Rp111
ag10
(g14
S'DV\xfc\xa6\x17{W@'
p112
tp113
Rp114
ag10
(g14
S'\xad\xa1\xa8\xd4\xaa(Z@'
p115
tp116
Rp117
ag10
(g14
S'n\xc6CM\xc3\x05Z@'
p118
tp119
Rp120
ag10
(g14
S'\xa9\x8f\x80F\x7f\x80T@'
p121
tp122
Rp123
ag10
(g14
S'\xeeJR\xa3\x10\xb7[@'
p124
tp125
Rp126
ag10
(g14
S'\x1f>\x19\x19L\x99P@'
p127
tp128
Rp129
ag10
(g14
S'\x1et?\xba7\xa5N@'
p130
tp131
Rp132
ag10
(g14
S'3\xfd\xee\xdbi\xa9U@'
p133
tp134
Rp135
ag10
(g14
S'\xba\xf0Mbf\xe5P@'
p136
tp137
Rp138
asssss.