(dp0
S'../Data/sqlite_16.csv'
p1
(dp2
S'../Data/sqlite_73.csv'
p3
(dp4
F0.4
(dp5
S'mmre'
p6
(dp7
S'bellwether'
p8
(lp9
cnumpy.core.multiarray
scalar
p10
(cnumpy
dtype
p11
(S'f8'
p12
I0
I1
tp13
Rp14
(I3
S'<'
p15
NNNI-1
I-1
I0
tp16
bS'\xecL\x01qr_U@'
p17
tp18
Rp19
ag10
(g14
S'\x9e\xd1\xb1\xc6\xa6_U@'
p20
tp21
Rp22
ag10
(g14
S'0\xfd\x86\x14\x00`U@'
p23
tp24
Rp25
ag10
(g14
S'\xa8\xfaDE\xd9_U@'
p26
tp27
Rp28
ag10
(g14
S'\xb2\xd9:<IdU@'
p29
tp30
Rp31
ag10
(g14
S'\x02\x8aJ\x12H\\U@'
p32
tp33
Rp34
ag10
(g14
S"X\xa3'\x03#aU@"
p35
tp36
Rp37
ag10
(g14
S'\xb6Y\x93\x194eU@'
p38
tp39
Rp40
ag10
(g14
S'\x9d\x1c\x84>\xdb_U@'
p41
tp42
Rp43
ag10
(g14
S'\xb3Ut\xd4wbU@'
p44
tp45
Rp46
ag10
(g14
S'\x00\xd6\x8e\xdde_U@'
p47
tp48
Rp49
ag10
(g14
S'+ +\xa0\xa0`U@'
p50
tp51
Rp52
ag10
(g14
S'\xe8\x80\x01\x83\xcf`U@'
p53
tp54
Rp55
ag10
(g14
S'\xccB\x91~\xabbU@'
p56
tp57
Rp58
ag10
(g14
S'<\xd9\xb3D\xd8`U@'
p59
tp60
Rp61
ag10
(g14
S'\x03\xca\xf3\xde\xd6^U@'
p62
tp63
Rp64
ag10
(g14
S'\xe8\x82\xce\x8d\xf0cU@'
p65
tp66
Rp67
ag10
(g14
S'`\xaf>\x10D`U@'
p68
tp69
Rp70
ag10
(g14
S'\xa5Z\xa4\xf0K`U@'
p71
tp72
Rp73
ag10
(g14
S'\xa3u\xbeL\xad`U@'
p74
tp75
Rp76
asS'target'
p77
(lp78
g10
(g14
S'\xf0\xc2\x9b\xd7\x8b>/@'
p79
tp80
Rp81
ag10
(g14
S':\xe4g\xe2\xde\x0e,@'
p82
tp83
Rp84
ag10
(g14
S'\x9e\xd1\x9eZi\x19,@'
p85
tp86
Rp87
ag10
(g14
S'\xb8\xdd\xf7#H~+@'
p88
tp89
Rp90
ag10
(g14
S'\x1f\xca`\x86\x13\x15*@'
p91
tp92
Rp93
ag10
(g14
S'PR\x8d#\x91\x9f,@'
p94
tp95
Rp96
ag10
(g14
S'\xe7x\x11j\xe2C+@'
p97
tp98
Rp99
ag10
(g14
S'\xfb\xf5\x9d\x1aJ\xae*@'
p100
tp101
Rp102
ag10
(g14
S's\x01\xf1i\xeeM,@'
p103
tp104
Rp105
ag10
(g14
S':.4>11-@'
p106
tp107
Rp108
ag10
(g14
S'\x1f\xb0\xfa\x19@B*@'
p109
tp110
Rp111
ag10
(g14
S'\xe4*\xfa\xf3\x0f\xdf*@'
p112
tp113
Rp114
ag10
(g14
S'\t6\x18\xa7.;+@'
p115
tp116
Rp117
ag10
(g14
S'&Sx\xc1;q+@'
p118
tp119
Rp120
ag10
(g14
S'\xe9T\x16T\x06\x1d-@'
p121
tp122
Rp123
ag10
(g14
S'\x0c\x0f2\xc9\xb5\x13+@'
p124
tp125
Rp126
ag10
(g14
S'9\x991pn\x02+@'
p127
tp128
Rp129
ag10
(g14
S'\xaf\xc1jgb\xe4*@'
p130
tp131
Rp132
ag10
(g14
S'#pJ\xf1\xab/+@'
p133
tp134
Rp135
ag10
(g14
S'1\xba\x16\xeb\xf9D.@'
p136
tp137
Rp138
asssss.