(dp0
S'../Data/sqlite_8.csv'
p1
(dp2
S'../Data/sqlite_73.csv'
p3
(dp4
F0.15
(dp5
S'mmre'
p6
(dp7
S'bellwether'
p8
(lp9
cnumpy.core.multiarray
scalar
p10
(cnumpy
dtype
p11
(S'f8'
p12
I0
I1
tp13
Rp14
(I3
S'<'
p15
NNNI-1
I-1
I0
tp16
bS'\x06p\x87$\xa3KT@'
p17
tp18
Rp19
ag10
(g14
S'xj\x0e\xd1\xf4NT@'
p20
tp21
Rp22
ag10
(g14
S'\x90B\xde\xfc\x06FT@'
p23
tp24
Rp25
ag10
(g14
S'A$sk\xf8HT@'
p26
tp27
Rp28
ag10
(g14
S'\x95.xAOLT@'
p29
tp30
Rp31
ag10
(g14
S'<\xfa4\\ZJT@'
p32
tp33
Rp34
ag10
(g14
S'Y\xa65\x90\xe9FT@'
p35
tp36
Rp37
ag10
(g14
S'~\xb2\xc3\xeb\x1eJT@'
p38
tp39
Rp40
ag10
(g14
S'h\xcc\xf8\x12dIT@'
p41
tp42
Rp43
ag10
(g14
S'2\xe9=\xa7\x02JT@'
p44
tp45
Rp46
ag10
(g14
S'M\xc8\xb2n\x02JT@'
p47
tp48
Rp49
ag10
(g14
S'Ol\x05\\SKT@'
p50
tp51
Rp52
ag10
(g14
S'\x83A\x84\x973KT@'
p53
tp54
Rp55
ag10
(g14
S'{C\x93\r\xc1HT@'
p56
tp57
Rp58
ag10
(g14
S']&X\xa8\xcdIT@'
p59
tp60
Rp61
ag10
(g14
S'\xf1m\x92a1JT@'
p62
tp63
Rp64
ag10
(g14
S'\xd5I\x84`\rMT@'
p65
tp66
Rp67
ag10
(g14
S'\t\xb5-\x18\x9cKT@'
p68
tp69
Rp70
ag10
(g14
S'L\xab\x83\x0b}JT@'
p71
tp72
Rp73
ag10
(g14
S'\x1e\x8c\xd6JvHT@'
p74
tp75
Rp76
asS'target'
p77
(lp78
g10
(g14
S'\xd9\x82n\xcb3l-@'
p79
tp80
Rp81
ag10
(g14
S'\x831\x02\xed\x0f\xe6)@'
p82
tp83
Rp84
ag10
(g14
S'\xf5\x03V.\xce\x16+@'
p85
tp86
Rp87
ag10
(g14
S'IN\xa5)=p+@'
p88
tp89
Rp90
ag10
(g14
S'\xe3\x8a\x0e\x99\xb4\xb7(@'
p91
tp92
Rp93
ag10
(g14
S'$\xaf\xc8T \x01-@'
p94
tp95
Rp96
ag10
(g14
S'\xac\xe3j\x00\xe6\xb6)@'
p97
tp98
Rp99
ag10
(g14
S'A:\x90]<\xc6+@'
p100
tp101
Rp102
ag10
(g14
S'\x9e\xa8\xd3"\xcf)*@'
p103
tp104
Rp105
ag10
(g14
S'\xc0a\x9f\xefw\xc3*@'
p106
tp107
Rp108
ag10
(g14
S'\x1e0\x1b\xd8\xf5\xbf(@'
p109
tp110
Rp111
ag10
(g14
S'\x0e\xd9\xe4\xc9\xab\xc7*@'
p112
tp113
Rp114
ag10
(g14
S'\xf48\xce\x7f\xd8\xe5+@'
p115
tp116
Rp117
ag10
(g14
S'\xa6\x16Bb"\xa0*@'
p118
tp119
Rp120
ag10
(g14
S'_\xe9\x012\x7fX,@'
p121
tp122
Rp123
ag10
(g14
S'\xadTx\xa7\x80/+@'
p124
tp125
Rp126
ag10
(g14
S'\x1a4\xe3\xd4\xeb\x1d(@'
p127
tp128
Rp129
ag10
(g14
S't\xfd\xe1\x9e\xf9\xd1*@'
p130
tp131
Rp132
ag10
(g14
S'~]/\xce+\xb2*@'
p133
tp134
Rp135
ag10
(g14
S'\xf2F!\xf9\x05\xba(@'
p136
tp137
Rp138
asssss.