(dp0
S'../Data/sqlite_60.csv'
p1
(dp2
S'../Data/sqlite_28.csv'
p3
(dp4
F0.15
(dp5
S'abs_res'
p6
(dp7
S'bellwether'
p8
(lp9
cnumpy.core.multiarray
scalar
p10
(cnumpy
dtype
p11
(S'f8'
p12
I0
I1
tp13
Rp14
(I3
S'<'
p15
NNNI-1
I-1
I0
tp16
bS')@\xeei\x9c.hA'
p17
tp18
Rp19
ag10
(g14
S'3\x89A\xecx;hA'
p20
tp21
Rp22
ag10
(g14
S'\x86\x95C\xcb\x9c3hA'
p23
tp24
Rp25
ag10
(g14
S'Td;\x87\x801hA'
p26
tp27
Rp28
ag10
(g14
S"@\x98'\xde\xa7.hA"
p29
tp30
Rp31
ag10
(g14
S'\x9d\xef\xa7\xa2\xb2+hA'
p32
tp33
Rp34
ag10
(g14
S'\xab\rtf\xdb+hA'
p35
tp36
Rp37
ag10
(g14
S')\xb2\x9dso:hA'
p38
tp39
Rp40
ag10
(g14
S'\xb2\xd51\xc5H+hA'
p41
tp42
Rp43
ag10
(g14
S'a\xc9/\x96#1hA'
p44
tp45
Rp46
ag10
(g14
S'\xf6\x8b%o>6hA'
p47
tp48
Rp49
ag10
(g14
S'\xafrhE\x9c7hA'
p50
tp51
Rp52
ag10
(g14
S'\xde\xce\xf7\xb3I%hA'
p53
tp54
Rp55
ag10
(g14
S'\xb2\x9d\xef\xc7M6hA'
p56
tp57
Rp58
ag10
(g14
S'Q\x0e->T<hA'
p59
tp60
Rp61
ag10
(g14
S'\xd5\xdb\xb2&\xcf0hA'
p62
tp63
Rp64
ag10
(g14
S'z\x14\xae\x9b\xea$hA'
p65
tp66
Rp67
ag10
(g14
S'\x9b\x99\x99\xa9\xb53hA'
p68
tp69
Rp70
ag10
(g14
S"'\xea\xdf\xbcL/hA"
p71
tp72
Rp73
ag10
(g14
S'\xb0\x00\xb9s\x84<hA'
p74
tp75
Rp76
asS'target'
p77
(lp78
g10
(g14
S'\xd5\xcc\xcc\xcc\xcc\x04b@'
p79
tp80
Rp81
ag10
(g14
S'\nX9\xb4\xc8:e@'
p82
tp83
Rp84
ag10
(g14
S'\xf2|?5^\xc6b@'
p85
tp86
Rp87
ag10
(g14
S'F\x0c\x02+\x87>a@'
p88
tp89
Rp90
ag10
(g14
S's=\n\xd7\xa3\x84a@'
p91
tp92
Rp93
ag10
(g14
S'\xff*\x87\x16\xd9\x0eb@'
p94
tp95
Rp96
ag10
(g14
S'\x97n\x12\x83\xc0fc@'
p97
tp98
Rp99
ag10
(g14
S'\\\x8f\xc2\xf5(\xe0a@'
p100
tp101
Rp102
ag10
(g14
S'0\xb2\x9d\xef\xa7\x1ea@'
p103
tp104
Rp105
ag10
(g14
S'E\x8bl\xe7\xfb\xb5a@'
p106
tp107
Rp108
ag10
(g14
S'C7\x89A`\x11d@'
p109
tp110
Rp111
ag10
(g14
S'Z\x8f\xc2\xf5(L`@'
p112
tp113
Rp114
ag10
(g14
S'7\xb4\xc8v\xbe\xa3a@'
p115
tp116
Rp117
ag10
(g14
S'}j\xbct\x938c@'
p118
tp119
Rp120
ag10
(g14
S'\xce\xcc\xcc\xcc\xcc\x10a@'
p121
tp122
Rp123
ag10
(g14
S'v\xbe\x9f\x1a/Aa@'
p124
tp125
Rp126
ag10
(g14
S'\r\x83\xc0\xca\xa1Uc@'
p127
tp128
Rp129
ag10
(g14
S'\x14-\xb2\x9d\xef\xab`@'
p130
tp131
Rp132
ag10
(g14
S'\xa3\x9b\xc4 \xb0Jc@'
p133
tp134
Rp135
ag10
(g14
S'g;\xdfO\x8d+c@'
p136
tp137
Rp138
asssss.