(dp0
S'../Data/sqlite_5.csv'
p1
(dp2
S'../Data/sqlite_87.csv'
p3
(dp4
F0.05
(dp5
S'mmre'
p6
(dp7
S'bellwether'
p8
(lp9
cnumpy.core.multiarray
scalar
p10
(cnumpy
dtype
p11
(S'f8'
p12
I0
I1
tp13
Rp14
(I3
S'<'
p15
NNNI-1
I-1
I0
tp16
bS'\x87-\xcfw\x9fQI@'
p17
tp18
Rp19
ag10
(g14
S'\\K\xe9j\x10dI@'
p20
tp21
Rp22
ag10
(g14
S'\xaa\xba#v\x04WI@'
p23
tp24
Rp25
ag10
(g14
S'C#\x9e+}gI@'
p26
tp27
Rp28
ag10
(g14
S'f\xb0\xbe\xce\xb7,I@'
p29
tp30
Rp31
ag10
(g14
S'\xac\x19\xf7\x1d\xaaAI@'
p32
tp33
Rp34
ag10
(g14
S'"\x12\x02hSWI@'
p35
tp36
Rp37
ag10
(g14
S'\xb08\\H\x1aQI@'
p38
tp39
Rp40
ag10
(g14
S"\xce'#\xd4,uI@"
p41
tp42
Rp43
ag10
(g14
S'\xd0\xf9I\x03XWI@'
p44
tp45
Rp46
ag10
(g14
S'zvy\xfc\xb0QI@'
p47
tp48
Rp49
ag10
(g14
S'\xd1\x1b\xb1\xcb`DI@'
p50
tp51
Rp52
ag10
(g14
S"\xfd'\xf0\x11\xcahI@"
p53
tp54
Rp55
ag10
(g14
S'$\xb1\xe9@u`I@'
p56
tp57
Rp58
ag10
(g14
S'\x85\xc5\xf4G;]I@'
p59
tp60
Rp61
ag10
(g14
S'\x85NL\x10R]I@'
p62
tp63
Rp64
ag10
(g14
S'\xee\x18\x17\x1fCbI@'
p65
tp66
Rp67
ag10
(g14
S'pfx+\xe9QI@'
p68
tp69
Rp70
ag10
(g14
S'7C\xbe9\xe08I@'
p71
tp72
Rp73
ag10
(g14
S'\xbf\xb8\x08\xc39bI@'
p74
tp75
Rp76
asS'target'
p77
(lp78
g10
(g14
S'a1P\xeb\x02lW@'
p79
tp80
Rp81
ag10
(g14
S'/n\xf0*\x02{L@'
p82
tp83
Rp84
ag10
(g14
S'\xbf\x8d\xf7\x91\x9f\xc0P@'
p85
tp86
Rp87
ag10
(g14
S'\xc3\xc5\x12/\xefuE@'
p88
tp89
Rp90
ag10
(g14
S'*\xfe\x81\x16\x08\x88b@'
p91
tp92
Rp93
ag10
(g14
S'\x7f\x01cEX\xe8R@'
p94
tp95
Rp96
ag10
(g14
S'\x08\x17oMT`D@'
p97
tp98
Rp99
ag10
(g14
S'\xe9\x00\\\r\x84\xefW@'
p100
tp101
Rp102
ag10
(g14
S'\xb4V\xcd\x8b<\xf5R@'
p103
tp104
Rp105
ag10
(g14
S'(\xc5\xab\x9a?\xd0V@'
p106
tp107
Rp108
ag10
(g14
S'\x11\x1f\xd4\x8b\xec\xecD@'
p109
tp110
Rp111
ag10
(g14
S'\xa8\xeeo\x86gJU@'
p112
tp113
Rp114
ag10
(g14
S'lg\x8a\xd3\x93)S@'
p115
tp116
Rp117
ag10
(g14
S'\x83\xd7\xb8\x04\x10!S@'
p118
tp119
Rp120
ag10
(g14
S'\xee\xdc\xccY\xab%E@'
p121
tp122
Rp123
ag10
(g14
S'j\x84#\xf4E/R@'
p124
tp125
Rp126
ag10
(g14
S'\xfa\xc1\xbf\xa7V\xc9F@'
p127
tp128
Rp129
ag10
(g14
S'\xeac\xdca~nY@'
p130
tp131
Rp132
ag10
(g14
S'\x8c\xa3)P`\xbbY@'
p133
tp134
Rp135
ag10
(g14
S'rr\r\x14/\xb2M@'
p136
tp137
Rp138
asssss.