(dp0
S'../Data/sqlite_74.csv'
p1
(dp2
S'../Data/sqlite_28.csv'
p3
(dp4
F0.4
(dp5
S'abs_res'
p6
(dp7
S'bellwether'
p8
(lp9
cnumpy.core.multiarray
scalar
p10
(cnumpy
dtype
p11
(S'f8'
p12
I0
I1
tp13
Rp14
(I3
S'<'
p15
NNNI-1
I-1
I0
tp16
bS'"\x85\xeb\x11\xf4XdA'
p17
tp18
Rp19
ag10
(g14
S'y\xcd\x85\x84\x08HdA'
p20
tp21
Rp22
ag10
(g14
S'{!iVSCdA'
p23
tp24
Rp25
ag10
(g14
S'\xfd\xff\xff_\x83[dA'
p26
tp27
Rp28
ag10
(g14
S'\xa4E\xb6\xe7sBdA'
p29
tp30
Rp31
ag10
(g14
S'\xdek.<SJdA'
p32
tp33
Rp34
ag10
(g14
S'\xeb\xc3gl\x02UdA'
p35
tp36
Rp37
ag10
(g14
S'\xad\x1cZ<1[dA'
p38
tp39
Rp40
ag10
(g14
S'\x18\x92\xa6\xf85?dA'
p41
tp42
Rp43
ag10
(g14
S'\x12\xe6\x89\x02/FdA'
p44
tp45
Rp46
ag10
(g14
S'}\x86]\x95~;dA'
p47
tp48
Rp49
ag10
(g14
S'\x99\x8a\xb3ktOdA'
p50
tp51
Rp52
ag10
(g14
S'%\x06\x81E\xc5ZdA'
p53
tp54
Rp55
ag10
(g14
S'\xfdS\xe3\xfdePdA'
p56
tp57
Rp58
ag10
(g14
S'7\xa5\xe2\x88\x85CdA'
p59
tp60
Rp61
ag10
(g14
S'\r\xd7\xa3\x04FBdA'
p62
tp63
Rp64
ag10
(g14
S'\xa5\xb7e\t\xcdJdA'
p65
tp66
Rp67
ag10
(g14
S'\xe6\x17K\x16N]dA'
p68
tp69
Rp70
ag10
(g14
S'\x83\x95CkXDdA'
p71
tp72
Rp73
ag10
(g14
S'sh\x91\xfd\x9eHdA'
p74
tp75
Rp76
asS'target'
p77
(lp78
g10
(g14
S'\xf1Q\xb8\x1e\x85GX@'
p79
tp80
Rp81
ag10
(g14
S'\x84\xc0\xca\xa1E\xb2Y@'
p82
tp83
Rp84
ag10
(g14
S'Q\x8d\x97n\x12\xd3Z@'
p85
tp86
Rp87
ag10
(g14
S'j\x91\xed|?mX@'
p88
tp89
Rp90
ag10
(g14
S'*\x87\x16\xd9\xcecZ@'
p91
tp92
Rp93
ag10
(g14
S'\x16\xaeG\xe1z\xc4Y@'
p94
tp95
Rp96
ag10
(g14
S'\xecS\xe3\xa5\x9b\xfcZ@'
p97
tp98
Rp99
ag10
(g14
S'\x9a\x1a/\xdd$\xeaY@'
p100
tp101
Rp102
ag10
(g14
S'\x18\x04V\x0e-^X@'
p103
tp104
Rp105
ag10
(g14
S'\xfc\xa9\xf1\xd2M\x9a\\@'
p106
tp107
Rp108
ag10
(g14
S'o\xbct\x93\x18\xf4Z@'
p109
tp110
Rp111
ag10
(g14
S'\x0c\xac\x1cZd+Y@'
p112
tp113
Rp114
ag10
(g14
S'jffff&^@'
p115
tp116
Rp117
ag10
(g14
S'4\xdd$\x06\x81AX@'
p118
tp119
Rp120
ag10
(g14
S'8\x89A`\xe5\x80Y@'
p121
tp122
Rp123
ag10
(g14
S'\xbb\xca\xa1E\xb6\xbbX@'
p124
tp125
Rp126
ag10
(g14
S'\x18X9\xb4\xc8&X@'
p127
tp128
Rp129
ag10
(g14
S'\x9a\xc4 \xb0r\xc4W@'
p130
tp131
Rp132
ag10
(g14
S'\x18-\xb2\x9d\xef\x97Y@'
p133
tp134
Rp135
ag10
(g14
S'\xd5\xf7S\xe3\xa5\xf3Y@'
p136
tp137
Rp138
asssss.