(dp0
S'../Data/sqlite_46.csv'
p1
(dp2
S'../Data/sqlite_58.csv'
p3
(dp4
F0.1
(dp5
S'abs_res'
p6
(dp7
S'bellwether'
p8
(lp9
cnumpy.core.multiarray
scalar
p10
(cnumpy
dtype
p11
(S'f8'
p12
I0
I1
tp13
Rp14
(I3
S'<'
p15
NNNI-1
I-1
I0
tp16
bS'\x02\x81\x95\x93@gAA'
p17
tp18
Rp19
ag10
(g14
S'\xc9 \xb0\xd2ogAA'
p20
tp21
Rp22
ag10
(g14
S'\xaeG\xe1\xda\x01hAA'
p23
tp24
Rp25
ag10
(g14
S'\x01\xaa\xf1\xb2\xa8gAA'
p26
tp27
Rp28
ag10
(g14
S'*1\x08\x1c\thAA'
p29
tp30
Rp31
ag10
(g14
S'\xde$\x06A\x8agAA'
p32
tp33
Rp34
ag10
(g14
S'/\xdd$F\x18hAA'
p35
tp36
Rp37
ag10
(g14
S'8\x89A\x00\x7fgAA'
p38
tp39
Rp40
ag10
(g14
S'\xeb|?\xa5_hAA'
p41
tp42
Rp43
ag10
(g14
S'\x93\xed|/\xdbgAA'
p44
tp45
Rp46
ag10
(g14
S'\xd5\xce\xf7\x93\xefgAA'
p47
tp48
Rp49
ag10
(g14
S'\t\xd7\xa3P\xcbgAA'
p50
tp51
Rp52
ag10
(g14
S'y\xe9&\xe1\xdcgAA'
p53
tp54
Rp55
ag10
(g14
S'\x8dl\xe7{\xe0gAA'
p56
tp57
Rp58
ag10
(g14
S'\x86\xc0\xca!\xa1gAA'
p59
tp60
Rp61
ag10
(g14
S'\xd4"\xdbY\xaagAA'
p62
tp63
Rp64
ag10
(g14
S'\x14X9\x84.gAA'
p65
tp66
Rp67
ag10
(g14
S'\x91\x16\xd9>\xc1gAA'
p68
tp69
Rp70
ag10
(g14
S'N7\x89qkgAA'
p71
tp72
Rp73
ag10
(g14
S'\x01\x7fj,\xd8gAA'
p74
tp75
Rp76
asS'target'
p77
(lp78
g10
(g14
S'X\xe3\xa5\x9b\xc4\x10]@'
p79
tp80
Rp81
ag10
(g14
S"\xcdv\xbe\x9f\x1a'Y@"
p82
tp83
Rp84
ag10
(g14
S'b\x0e-\xb2\x9dG\\@'
p85
tp86
Rp87
ag10
(g14
S'\x0f\xd7\xa3p=JZ@'
p88
tp89
Rp90
ag10
(g14
S'^\xe5\xd0"\xdbAY@'
p91
tp92
Rp93
ag10
(g14
S'$\xb0rh\x91m[@'
p94
tp95
Rp96
ag10
(g14
S'0\x87\x16\xd9\xce\x87Z@'
p97
tp98
Rp99
ag10
(g14
S'\xc0v\xbe\x9f\x1ao\\@'
p100
tp101
Rp102
ag10
(g14
S'\x9dC\x8bl\xe7S\\@'
p103
tp104
Rp105
ag10
(g14
S'K7\x89A`eY@'
p106
tp107
Rp108
ag10
(g14
S'\x9fE\xb6\xf3\xfd4Z@'
p109
tp110
Rp111
ag10
(g14
S'\xf7(\\\x8f\xc2\xddY@'
p112
tp113
Rp114
ag10
(g14
S'Kb\x10X9$X@'
p115
tp116
Rp117
ag10
(g14
S'I\xe1z\x14\xae\x7f[@'
p118
tp119
Rp120
ag10
(g14
S'\xc8\xf5(\\\x8f\x92_@'
p121
tp122
Rp123
ag10
(g14
S'%\\\x8f\xc2\xf5tX@'
p124
tp125
Rp126
ag10
(g14
S'Q\x10X9\xb4\xc0[@'
p127
tp128
Rp129
ag10
(g14
S'/\x06\x81\x95CC\\@'
p130
tp131
Rp132
ag10
(g14
S'8^\xbaI\x0c\xb2Y@'
p133
tp134
Rp135
ag10
(g14
S'J\xb8\x1e\x85\xeb-\\@'
p136
tp137
Rp138
asssss.