(dp0
S'../Data/sqlite_45.csv'
p1
(dp2
S'../Data/sqlite_73.csv'
p3
(dp4
F0.05
(dp5
S'mmre'
p6
(dp7
S'bellwether'
p8
(lp9
cnumpy.core.multiarray
scalar
p10
(cnumpy
dtype
p11
(S'f8'
p12
I0
I1
tp13
Rp14
(I3
S'<'
p15
NNNI-1
I-1
I0
tp16
bS'i\x81{.WaE@'
p17
tp18
Rp19
ag10
(g14
S'\xceC\xcd\xa1\x94hE@'
p20
tp21
Rp22
ag10
(g14
S'\xe5+\xf9\xd5\x80_E@'
p23
tp24
Rp25
ag10
(g14
S'\xce\xc2\xf8\xa0\x9c`E@'
p26
tp27
Rp28
ag10
(g14
S'\xc1\x81\xa48\xc3^E@'
p29
tp30
Rp31
ag10
(g14
S'\xac\xd0:}\xcdfE@'
p32
tp33
Rp34
ag10
(g14
S'\xda\x11\xaf@\xaa^E@'
p35
tp36
Rp37
ag10
(g14
S"\xdb'v\x88*_E@"
p38
tp39
Rp40
ag10
(g14
S'!\xb6n\xe7\x15_E@'
p41
tp42
Rp43
ag10
(g14
S'\x85\xd2*\x8c]^E@'
p44
tp45
Rp46
ag10
(g14
S'm\xfa\xcd\xab\r^E@'
p47
tp48
Rp49
ag10
(g14
S'\x9b\x1c/\xe3\xedaE@'
p50
tp51
Rp52
ag10
(g14
S'\xb0&\x9b\xa1\x15VE@'
p53
tp54
Rp55
ag10
(g14
S'\x1e\xbc\xc1X4gE@'
p56
tp57
Rp58
ag10
(g14
S'\xa1\xadI4\xc4YE@'
p59
tp60
Rp61
ag10
(g14
S'b\xd8\x03.X\\E@'
p62
tp63
Rp64
ag10
(g14
S'\x17\x17\tjeaE@'
p65
tp66
Rp67
ag10
(g14
S'\xa8!\x08\x9a\xd9`E@'
p68
tp69
Rp70
ag10
(g14
S'D`\xc9@\xc0]E@'
p71
tp72
Rp73
ag10
(g14
S'\xb3\xbf\xe1URVE@'
p74
tp75
Rp76
asS'target'
p77
(lp78
g10
(g14
S'\xb9\xca\xeb\xb6\xbdi-@'
p79
tp80
Rp81
ag10
(g14
S'\xb5\xd6\xc5U\x18V(@'
p82
tp83
Rp84
ag10
(g14
S'ya\xcej\xaa\xf2*@'
p85
tp86
Rp87
ag10
(g14
S'@R\xc2\xe4\xab5+@'
p88
tp89
Rp90
ag10
(g14
S'\x17\xdb\x0e\xb4\x10i.@'
p91
tp92
Rp93
ag10
(g14
S'jK\xaa\xf2\x0e\xfe+@'
p94
tp95
Rp96
ag10
(g14
S'\xdf\xf3\n\x002T*@'
p97
tp98
Rp99
ag10
(g14
S'3[\xc0\x87\xc3=*@'
p100
tp101
Rp102
ag10
(g14
S'\x89\x88\xdc\xab\xc9\xb3)@'
p103
tp104
Rp105
ag10
(g14
S'_d\xe1\xf7\xcel(@'
p106
tp107
Rp108
ag10
(g14
S'4\xf5\x11\x03oH*@'
p109
tp110
Rp111
ag10
(g14
S'T\xcc\x94\x8a62.@'
p112
tp113
Rp114
ag10
(g14
S'\xfcz\xf8c(\xd8+@'
p115
tp116
Rp117
ag10
(g14
S'C\x04[0\xbaW)@'
p118
tp119
Rp120
ag10
(g14
S'T\xffi|\x99Z-@'
p121
tp122
Rp123
ag10
(g14
S'\xc4dx(&%(@'
p124
tp125
Rp126
ag10
(g14
S'\xed\xa7\xf9r\xb0#*@'
p127
tp128
Rp129
ag10
(g14
S'\xfd*\x18-Q\x7f(@'
p130
tp131
Rp132
ag10
(g14
S'J\x8bC\xbff\x88,@'
p133
tp134
Rp135
ag10
(g14
S'74\xaaE\xf3C.@'
p136
tp137
Rp138
asssss.