(dp0
S'../Data/sqlite_88.csv'
p1
(dp2
S'../Data/sqlite_16.csv'
p3
(dp4
F0.3
(dp5
S'abs_res'
p6
(dp7
S'bellwether'
p8
(lp9
cnumpy.core.multiarray
scalar
p10
(cnumpy
dtype
p11
(S'f8'
p12
I0
I1
tp13
Rp14
(I3
S'<'
p15
NNNI-1
I-1
I0
tp16
bS'\xd9x\xe9\xe6\xf6c_A'
p17
tp18
Rp19
ag10
(g14
S'A\x08\xacT\xee\x14_A'
p20
tp21
Rp22
ag10
(g14
S'I5^\x1a\xf8%_A'
p23
tp24
Rp25
ag10
(g14
S'*\x04VN\x9a\xcc^A'
p26
tp27
Rp28
ag10
(g14
S'j;\xdfgF\x1e_A'
p29
tp30
Rp31
ag10
(g14
S'w=\n\xef|\x13_A'
p32
tp33
Rp34
ag10
(g14
S'\xd1\xa1E\xa6\xcb)_A'
p35
tp36
Rp37
ag10
(g14
S'\xd9K7\xa1\xe6\xf4^A'
p38
tp39
Rp40
ag10
(g14
S'\xa8G\xe1:N\x19_A'
p41
tp42
Rp43
ag10
(g14
S'&\x06\x81\xed[I_A'
p44
tp45
Rp46
ag10
(g14
S'Z\x0e-\xfa\xd9\xee^A'
p47
tp48
Rp49
ag10
(g14
S'\xea\xa5\x9bd$\x16_A'
p50
tp51
Rp52
ag10
(g14
S'c\xbct#\xfa)_A'
p53
tp54
Rp55
ag10
(g14
S'\x1f\xd9\xceovL_A'
p56
tp57
Rp58
ag10
(g14
S'\x0e\xd7\xa3\xb8\xbd,_A'
p59
tp60
Rp61
ag10
(g14
S'\xdf\xce\xf7s,A_A'
p62
tp63
Rp64
ag10
(g14
S"\x1a\xaeG9\xc9'_A"
p65
tp66
Rp67
ag10
(g14
S'\xda"\xdb!\xa1/_A'
p68
tp69
Rp70
ag10
(g14
S'k\x91\xed\xc4\xce\xee^A'
p71
tp72
Rp73
ag10
(g14
S'\x94\x97n\xa2H\xee^A'
p74
tp75
Rp76
asS'target'
p77
(lp78
g10
(g14
S'83333\x83J@'
p79
tp80
Rp81
ag10
(g14
S'g\x10X9\xb4\x08G@'
p82
tp83
Rp84
ag10
(g14
S'\xbb\xf5(\\\x8f"F@'
p85
tp86
Rp87
ag10
(g14
S'\xb6G\xe1z\x14.F@'
p88
tp89
Rp90
ag10
(g14
S'\xa8\x1cZd;OH@'
p91
tp92
Rp93
ag10
(g14
S'n\xe7\xfb\xa9\xf1\x8aE@'
p94
tp95
Rp96
ag10
(g14
S'\xd8"\xdb\xf9~jE@'
p97
tp98
Rp99
ag10
(g14
S'\xabE\xb6\xf3\xfd\xccH@'
p100
tp101
Rp102
ag10
(g14
S'\xfc(\\\x8f\xc2\xbdE@'
p103
tp104
Rp105
ag10
(g14
S'@5^\xbaI|H@'
p106
tp107
Rp108
ag10
(g14
S'[\x8f\xc2\xf5(\xacG@'
p109
tp110
Rp111
ag10
(g14
S"a;\xdfO\x8d'G@"
p112
tp113
Rp114
ag10
(g14
S'm\x91\xed|?\rG@'
p115
tp116
Rp117
ag10
(g14
S'\xd9\xa3p=\n\x07H@'
p118
tp119
Rp120
ag10
(g14
S'*3333+H@'
p121
tp122
Rp123
ag10
(g14
S'\x1f\x83\xc0\xca\xa1\x05F@'
p124
tp125
Rp126
ag10
(g14
S'\x84j\xbct\x93\xb8E@'
p127
tp128
Rp129
ag10
(g14
S'\xdax\xe9&10G@'
p130
tp131
Rp132
ag10
(g14
S'\x0c\xac\x1cZd+G@'
p133
tp134
Rp135
ag10
(g14
S'\xca \xb0rh\xe1F@'
p136
tp137
Rp138
asssss.