(dp0
S'../Data/sqlite_63.csv'
p1
(dp2
S'../Data/sqlite_95.csv'
p3
(dp4
F0.2
(dp5
S'mmre'
p6
(dp7
S'bellwether'
p8
(lp9
cnumpy.core.multiarray
scalar
p10
(cnumpy
dtype
p11
(S'f8'
p12
I0
I1
tp13
Rp14
(I3
S'<'
p15
NNNI-1
I-1
I0
tp16
bS'\x0c\xa9\xc8\xe4\xefrX@'
p17
tp18
Rp19
ag10
(g14
S'\x10\xd6\xc5AVrX@'
p20
tp21
Rp22
ag10
(g14
S'\xa0\xa7E\xf6\xadrX@'
p23
tp24
Rp25
ag10
(g14
S'\xe1u\xf7,\xd4sX@'
p26
tp27
Rp28
ag10
(g14
S'Ll\xc5O[sX@'
p29
tp30
Rp31
ag10
(g14
S'<\xbc\t\xd0\\rX@'
p32
tp33
Rp34
ag10
(g14
S'\x9eW\xa0\xc3\xf6sX@'
p35
tp36
Rp37
ag10
(g14
S'm\xee\x80\xddJrX@'
p38
tp39
Rp40
ag10
(g14
S'\xa7wh\xfdIsX@'
p41
tp42
Rp43
ag10
(g14
S'H\x14\x87\xafdqX@'
p44
tp45
Rp46
ag10
(g14
S'<\xbeQ#\xefrX@'
p47
tp48
Rp49
ag10
(g14
S'|\x15\xea\xf1IrX@'
p50
tp51
Rp52
ag10
(g14
S',p\xa9\xe9\xc5tX@'
p53
tp54
Rp55
ag10
(g14
S'\x90\x0f4;\xe5rX@'
p56
tp57
Rp58
ag10
(g14
S'r\xf9\x13\xe2ksX@'
p59
tp60
Rp61
ag10
(g14
S'8\xe7:J\xcbqX@'
p62
tp63
Rp64
ag10
(g14
S'\xdd\x84\xca8\xe4qX@'
p65
tp66
Rp67
ag10
(g14
S' |G[AuX@'
p68
tp69
Rp70
ag10
(g14
S'\xe0B%g\x13sX@'
p71
tp72
Rp73
ag10
(g14
S'\xbd\x8e\x13\xe0\xa6sX@'
p74
tp75
Rp76
asS'target'
p77
(lp78
g10
(g14
S'\xc9\xc4\xf3\xea"bA@'
p79
tp80
Rp81
ag10
(g14
S'\x16/\xea-W\x94D@'
p82
tp83
Rp84
ag10
(g14
S'y%@X\x82(B@'
p85
tp86
Rp87
ag10
(g14
S'0\xa5\xf5\x00\xaf\xd7@@'
p88
tp89
Rp90
ag10
(g14
S'P {\x13,\xdcA@'
p91
tp92
Rp93
ag10
(g14
S'\xa0\xd6\xca\xd7\xb0\xccA@'
p94
tp95
Rp96
ag10
(g14
S'acB\xd1*\x1e@@'
p97
tp98
Rp99
ag10
(g14
S'\x02\xd1\xe4\xd8v\xe7C@'
p100
tp101
Rp102
ag10
(g14
S'\x15\xfe\x89+\x08\x8b>@'
p103
tp104
Rp105
ag10
(g14
S'b\xb1\r\xb5\xd3fA@'
p106
tp107
Rp108
ag10
(g14
S'\x0f \x03F\xe1\xd4?@'
p109
tp110
Rp111
ag10
(g14
S'\xd7\x1f\x10-\xa2\xf4A@'
p112
tp113
Rp114
ag10
(g14
S'c"fH\xe1a=@'
p115
tp116
Rp117
ag10
(g14
S'\xe0\xe5\xfa\xb0\xb3*A@'
p118
tp119
Rp120
ag10
(g14
S'\x18S\xd9g\xfaVA@'
p121
tp122
Rp123
ag10
(g14
S'\xc8fN\xa4\n\xb7B@'
p124
tp125
Rp126
ag10
(g14
S'\xc45}\xbd0\xddB@'
p127
tp128
Rp129
ag10
(g14
S'Zx/\xbc\xba\xf4=@'
p130
tp131
Rp132
ag10
(g14
S'\xb6\xfda\xf4%??@'
p133
tp134
Rp135
ag10
(g14
S'S`\xc1\xd4Q\xc1F@'
p136
tp137
Rp138
asssss.