(dp0
S'../Data/sqlite_5.csv'
p1
(dp2
S'../Data/sqlite_91.csv'
p3
(dp4
F0.4
(dp5
S'mmre'
p6
(dp7
S'bellwether'
p8
(lp9
cnumpy.core.multiarray
scalar
p10
(cnumpy
dtype
p11
(S'f8'
p12
I0
I1
tp13
Rp14
(I3
S'<'
p15
NNNI-1
I-1
I0
tp16
bS'^\x9a\xbfPjhX@'
p17
tp18
Rp19
ag10
(g14
S'=\x05\xcc\xb4N_X@'
p20
tp21
Rp22
ag10
(g14
S'\x98\x0e\\\xb6\xfdbX@'
p23
tp24
Rp25
ag10
(g14
S'P\xd1\xbc\xb0u_X@'
p26
tp27
Rp28
ag10
(g14
S'\xaa6\xa1\x1b\x9fkX@'
p29
tp30
Rp31
ag10
(g14
S'\x00\x9bQ\xd6\xd1_X@'
p32
tp33
Rp34
ag10
(g14
S'\x99f3\xe8:RX@'
p35
tp36
Rp37
ag10
(g14
S'\x10&\x16AFeX@'
p38
tp39
Rp40
ag10
(g14
S'\xa0:-\xea\x92_X@'
p41
tp42
Rp43
ag10
(g14
S'y\\}*\x8a]X@'
p44
tp45
Rp46
ag10
(g14
S'hN2\xfe\x1coX@'
p47
tp48
Rp49
ag10
(g14
S'\x84@CO%VX@'
p50
tp51
Rp52
ag10
(g14
S'\xd2\xe0G$\x9d]X@'
p53
tp54
Rp55
ag10
(g14
S'P\xd0\x96h\x90XX@'
p56
tp57
Rp58
ag10
(g14
S'\x13\xcd\xd9=\xb8YX@'
p59
tp60
Rp61
ag10
(g14
S'\xa0I\xb9\xe0\nZX@'
p62
tp63
Rp64
ag10
(g14
S'\xec\xb79\x04\x88gX@'
p65
tp66
Rp67
ag10
(g14
S'c\x88\xa5"\xb3bX@'
p68
tp69
Rp70
ag10
(g14
S'\xb0\xd1;F\xf7ZX@'
p71
tp72
Rp73
ag10
(g14
S'\xab\xadl\xbe<`X@'
p74
tp75
Rp76
asS'target'
p77
(lp78
g10
(g14
S'\xc3g\xd0}\x16\xefK@'
p79
tp80
Rp81
ag10
(g14
S'_\x8b\xfc;\xc6\xeeP@'
p82
tp83
Rp84
ag10
(g14
S'MZ\x1d\x1fk\x1cL@'
p85
tp86
Rp87
ag10
(g14
S'eW\xf3\x92\x8c\xd0O@'
p88
tp89
Rp90
ag10
(g14
S'\xa0\x1b\x0b\x9b\xfa(I@'
p91
tp92
Rp93
ag10
(g14
S'x\xb9\x0bnPDP@'
p94
tp95
Rp96
ag10
(g14
S'#4\x057\x1f\xabR@'
p97
tp98
Rp99
ag10
(g14
S'\x022\x1diS\xa1L@'
p100
tp101
Rp102
ag10
(g14
S'\xd2\xdd\x93hn1M@'
p103
tp104
Rp105
ag10
(g14
S'\xb5,\xbf\xd1\xe5\x8eO@'
p106
tp107
Rp108
ag10
(g14
S'\xce>@\xf9\xf6\xf3I@'
p109
tp110
Rp111
ag10
(g14
S'\xf4o\xd1-\x1b\x1cS@'
p112
tp113
Rp114
ag10
(g14
S'\x91\xbe\xcf\xa8\xa8DQ@'
p115
tp116
Rp117
ag10
(g14
S'\x87\xa7lz\xdf\x0fR@'
p118
tp119
Rp120
ag10
(g14
S't\xd3ZL\xd9\x0cR@'
p121
tp122
Rp123
ag10
(g14
S'\xdf\xe6O\xfd\xe74Q@'
p124
tp125
Rp126
ag10
(g14
S'\xfbM6\xedmSM@'
p127
tp128
Rp129
ag10
(g14
S'hWaj\x1cHP@'
p130
tp131
Rp132
ag10
(g14
S'\xdc0\xac\xbc}\xfbP@'
p133
tp134
Rp135
ag10
(g14
S'R\x8f\x8c"!\x9bN@'
p136
tp137
Rp138
asssss.