(dp0
S'../Data/sqlite_91.csv'
p1
(dp2
S'../Data/sqlite_35.csv'
p3
(dp4
F0.1
(dp5
S'abs_res'
p6
(dp7
S'bellwether'
p8
(lp9
cnumpy.core.multiarray
scalar
p10
(cnumpy
dtype
p11
(S'f8'
p12
I0
I1
tp13
Rp14
(I3
S'<'
p15
NNNI-1
I-1
I0
tp16
bS'\xf2\xd4x\xa9\x92g&A'
p17
tp18
Rp19
ag10
(g14
S'g;\xdf\xcf\x11P&A'
p20
tp21
Rp22
ag10
(g14
S'\xa4p=\n\xbd|&A'
p23
tp24
Rp25
ag10
(g14
S'\xdb\xf9~\xea\x0cY&A'
p26
tp27
Rp28
ag10
(g14
S'9\n\xd7\xe3t\\&A'
p29
tp30
Rp31
ag10
(g14
S'\x1a\xe8\xb4\x01\x1cf&A'
p32
tp33
Rp34
ag10
(g14
S'\x9c\xd3\x06\xfa\xd2d&A'
p35
tp36
Rp37
ag10
(g14
S":\x98'j\x13`&A"
p38
tp39
Rp40
ag10
(g14
S'q=\nW\xc2Z&A'
p41
tp42
Rp43
ag10
(g14
S'4\x89A`\x16k&A'
p44
tp45
Rp46
ag10
(g14
S'\xb8\xc8v\xfeUT&A'
p47
tp48
Rp49
ag10
(g14
S'G\xb6\xf3}\xb8v&A'
p50
tp51
Rp52
ag10
(g14
S'b\xbaI\x0c\x8ee&A'
p53
tp54
Rp55
ag10
(g14
S'\x9c\xc4 \xb0sw&A'
p56
tp57
Rp58
ag10
(g14
S'd\x10Xy\x96\\&A'
p59
tp60
Rp61
ag10
(g14
S'\xfe~j<\xada&A'
p62
tp63
Rp64
ag10
(g14
S'\x81N\x1b(8b&A'
p65
tp66
Rp67
ag10
(g14
S"a\xe5\xd0\xa2'\\&A"
p68
tp69
Rp70
ag10
(g14
S'\x89A`\xa5\x82]&A'
p71
tp72
Rp73
ag10
(g14
S'?\x8blg\x06s&A'
p74
tp75
Rp76
asS'target'
p77
(lp78
g10
(g14
S'\x8e\xebQ\xb8\x1e\xf1b@'
p79
tp80
Rp81
ag10
(g14
S'\xd9\xce\xf7S\xe3\xfd`@'
p82
tp83
Rp84
ag10
(g14
S'\x02\x00\x00\x00\x00da@'
p85
tp86
Rp87
ag10
(g14
S'\x9c\x1a/\xdd$\x02c@'
p88
tp89
Rp90
ag10
(g14
S'\xfa\xd4x\xe9&\xb1c@'
p91
tp92
Rp93
ag10
(g14
S'\xb1\x9b\xc4 \xb0\x1ac@'
p94
tp95
Rp96
ag10
(g14
S'\xb5t\x93\x18\x04Nb@'
p97
tp98
Rp99
ag10
(g14
S'\x19\xaeG\xe1zhe@'
p100
tp101
Rp102
ag10
(g14
S'\x1a\x04V\x0e-\xfa`@'
p103
tp104
Rp105
ag10
(g14
S'\xd9Mb\x10X%f@'
p106
tp107
Rp108
ag10
(g14
S'c9\xb4\xc8vVb@'
p109
tp110
Rp111
ag10
(g14
S'\x18-\xb2\x9d\xefka@'
p112
tp113
Rp114
ag10
(g14
S']\xe3\xa5\x9b\xc4\xb4b@'
p115
tp116
Rp117
ag10
(g14
S'\xdaz\x14\xaeG)b@'
p118
tp119
Rp120
ag10
(g14
S'!\xdb\xf9~j\x9c`@'
p121
tp122
Rp123
ag10
(g14
S'+\x06\x81\x95C\xa1c@'
p124
tp125
Rp126
ag10
(g14
S'\xe5|?5^\xd6c@'
p127
tp128
Rp129
ag10
(g14
S'\x04+\x87\x16\xd9\xaab@'
p130
tp131
Rp132
ag10
(g14
S'ih\x91\xed|\x1bd@'
p133
tp134
Rp135
ag10
(g14
S'\xeb&1\x08\xac\xc2c@'
p136
tp137
Rp138
asssss.