(dp0
S'../Data/sqlite_1.csv'
p1
(dp2
S'../Data/sqlite_17.csv'
p3
(dp4
F0.1
(dp5
S'abs_res'
p6
(dp7
S'bellwether'
p8
(lp9
cnumpy.core.multiarray
scalar
p10
(cnumpy
dtype
p11
(S'f8'
p12
I0
I1
tp13
Rp14
(I3
S'<'
p15
NNNI-1
I-1
I0
tp16
bS'5\xdfO=\xf9)AA'
p17
tp18
Rp19
ag10
(g14
S' \x06\x81\x95X)AA'
p20
tp21
Rp22
ag10
(g14
S'\xc7K7y\xd7)AA'
p23
tp24
Rp25
ag10
(g14
S'\xcaK7\xd9\x9c*AA'
p26
tp27
Rp28
ag10
(g14
S'\xb6e\xad\xee\xd7)AA'
p29
tp30
Rp31
ag10
(g14
S'x?5>\xeb)AA'
p32
tp33
Rp34
ag10
(g14
S'\xd4x\xe9\xd67*AA'
p35
tp36
Rp37
ag10
(g14
S'\\\x01r/^*AA'
p38
tp39
Rp40
ag10
(g14
S'\xa2E\xb6s\xd8)AA'
p41
tp42
Rp43
ag10
(g14
S'^\x10X\x99J*AA'
p44
tp45
Rp46
ag10
(g14
S'\xb1G\xe1J\x04*AA'
p47
tp48
Rp49
ag10
(g14
S'O\x8d\x97\xde\x05*AA'
p50
tp51
Rp52
ag10
(g14
S'\xe1\xa5\x9b\xb4;*AA'
p53
tp54
Rp55
ag10
(g14
S'l=\nw\xc7*AA'
p56
tp57
Rp58
ag10
(g14
S'\xa8\x1cZ\x84=*AA'
p59
tp60
Rp61
ag10
(g14
S'\xcd"\xdb\x19$*AA'
p62
tp63
Rp64
ag10
(g14
S'VW\x80<%*AA'
p65
tp66
Rp67
ag10
(g14
S'\xb8e\xad\xfe\xe1)AA'
p68
tp69
Rp70
ag10
(g14
S'\xcb\xcc\xccL\x1e*AA'
p71
tp72
Rp73
ag10
(g14
S'E\x8bl\x07\x8f*AA'
p74
tp75
Rp76
asS'target'
p77
(lp78
g10
(g14
S'\x1f\\\x8f\xc2\xf5\xe4p@'
p79
tp80
Rp81
ag10
(g14
S'[9\xb4\xc8v\xf8o@'
p82
tp83
Rp84
ag10
(g14
S'kffff\xedp@'
p85
tp86
Rp87
ag10
(g14
S'\x1c-\xb2\x9d\xefSm@'
p88
tp89
Rp90
ag10
(g14
S'\xd0x\xe9&1|m@'
p91
tp92
Rp93
ag10
(g14
S'B\xdfO\x8d\x97\xe2m@'
p94
tp95
Rp96
ag10
(g14
S'\xa6\x9b\xc4 \xb0\x12m@'
p97
tp98
Rp99
ag10
(g14
S';\xdfO\x8d\x97hp@'
p100
tp101
Rp102
ag10
(g14
S'\xa7p=\n\xd7#m@'
p103
tp104
Rp105
ag10
(g14
S'\x88?5^\xba\xc5n@'
p106
tp107
Rp108
ag10
(g14
S'>\n\xd7\xa3p\xb5l@'
p109
tp110
Rp111
ag10
(g14
S'\x10\xaeG\xe1z\x86p@'
p112
tp113
Rp114
ag10
(g14
S'\x1a\xaeG\xe1z\x10p@'
p115
tp116
Rp117
ag10
(g14
S'\x9b\xef\xa7\xc6K\xdfm@'
p118
tp119
Rp120
ag10
(g14
S'\x1b\xdb\xf9~j\x08m@'
p121
tp122
Rp123
ag10
(g14
S'\xdbx\xe9&1+r@'
p124
tp125
Rp126
ag10
(g14
S'\x0e\xd7\xa3p=\x18p@'
p127
tp128
Rp129
ag10
(g14
S'\x9a\x1a/\xdd$\x96l@'
p130
tp131
Rp132
ag10
(g14
S'P\x0c\x02+\x87\xbal@'
p133
tp134
Rp135
ag10
(g14
S'T\xbaI\x0c\x02\xd3o@'
p136
tp137
Rp138
asssss.