(dp0
S'../Data/sqlite_86.csv'
p1
(dp2
S'../Data/sqlite_63.csv'
p3
(dp4
F0.2
(dp5
S'mmre'
p6
(dp7
S'bellwether'
p8
(lp9
cnumpy.core.multiarray
scalar
p10
(cnumpy
dtype
p11
(S'f8'
p12
I0
I1
tp13
Rp14
(I3
S'<'
p15
NNNI-1
I-1
I0
tp16
bS'?h\xf7\xf3\x97bT@'
p17
tp18
Rp19
ag10
(g14
S'&S\xac\xdf\x88fT@'
p20
tp21
Rp22
ag10
(g14
S'W{R\xf5PgT@'
p23
tp24
Rp25
ag10
(g14
S'\x99\x89sX\xe5kT@'
p26
tp27
Rp28
ag10
(g14
S'5\xc1N\xc1\x19eT@'
p29
tp30
Rp31
ag10
(g14
S'"\xd5\x04Y\x1cjT@'
p32
tp33
Rp34
ag10
(g14
S'^\x94\xa2\xf1\x13\x86T@'
p35
tp36
Rp37
ag10
(g14
S',\xc6w~\x96pT@'
p38
tp39
Rp40
ag10
(g14
S'g[o\xd9\xebiT@'
p41
tp42
Rp43
ag10
(g14
S"\x16'\xd2<\x7fhT@"
p44
tp45
Rp46
ag10
(g14
S'e\xc3\xf0\xc6\xf2eT@'
p47
tp48
Rp49
ag10
(g14
S'+\xe6A\x12\xbfvT@'
p50
tp51
Rp52
ag10
(g14
S'0\xeb\xa0\x94\x89QT@'
p53
tp54
Rp55
ag10
(g14
S'\xba\x18\xca\xa1QlT@'
p56
tp57
Rp58
ag10
(g14
S'P\x95p\xc0\x03kT@'
p59
tp60
Rp61
ag10
(g14
S'\xac\x1d\xc3\xaf\x97oT@'
p62
tp63
Rp64
ag10
(g14
S'\x84C\x83d\xbfvT@'
p65
tp66
Rp67
ag10
(g14
S'-\xe7\xfc>_pT@'
p68
tp69
Rp70
ag10
(g14
S'0J\xb5\xb47XT@'
p71
tp72
Rp73
ag10
(g14
S'\xee\x94c\xe61eT@'
p74
tp75
Rp76
asS'target'
p77
(lp78
g10
(g14
S'$W\xe4n\xb9x"@'
p79
tp80
Rp81
ag10
(g14
S'2\x8c(\xda\xf8\x12$@'
p82
tp83
Rp84
ag10
(g14
S'\x01\x15\xb6e\xb1#$@'
p85
tp86
Rp87
ag10
(g14
S'z\xfb\xce\xcd\x06!"@'
p88
tp89
Rp90
ag10
(g14
S'o\xab\'y0i"@'
p91
tp92
Rp93
ag10
(g14
S'\xad\xcf\xe9q\xf3\x98#@'
p94
tp95
Rp96
ag10
(g14
S'\x80\xb3\x80N\x8d\x89"@'
p97
tp98
Rp99
ag10
(g14
S'\xa4)\x8f\xe7\x10\xd3"@'
p100
tp101
Rp102
ag10
(g14
S'>\x0b\xb1Yy\x07#@'
p103
tp104
Rp105
ag10
(g14
S'\x00\xdd\xd8a\xae\xb2#@'
p106
tp107
Rp108
ag10
(g14
S't\x8a\xec\xfa\xab&"@'
p109
tp110
Rp111
ag10
(g14
S':\xbf\x1f#w[!@'
p112
tp113
Rp114
ag10
(g14
S'\xe2\x7fB\x01ZG$@'
p115
tp116
Rp117
ag10
(g14
S'\xe7\xdc\xad\xab\xdbk#@'
p118
tp119
Rp120
ag10
(g14
S'h6Jv\x0f\xba"@'
p121
tp122
Rp123
ag10
(g14
S'4\\;\x1e\x92t"@'
p124
tp125
Rp126
ag10
(g14
S'\xb6L\x08\xea\xcbl"@'
p127
tp128
Rp129
ag10
(g14
S'\x8b\xfa\xc3y\xae\x06#@'
p130
tp131
Rp132
ag10
(g14
S'\x08\x1aCa\\\xcc"@'
p133
tp134
Rp135
ag10
(g14
S'\x8b&Vqt\x8e"@'
p136
tp137
Rp138
asssss.