(dp0
S'../Data/sqlite_79.csv'
p1
(dp2
S'../Data/sqlite_76.csv'
p3
(dp4
F0.15
(dp5
S'mmre'
p6
(dp7
S'bellwether'
p8
(lp9
cnumpy.core.multiarray
scalar
p10
(cnumpy
dtype
p11
(S'f8'
p12
I0
I1
tp13
Rp14
(I3
S'<'
p15
NNNI-1
I-1
I0
tp16
bS'o\xd5\x9d\x11\xeeOW@'
p17
tp18
Rp19
ag10
(g14
S'`\xe1\x95\xa3\x05OW@'
p20
tp21
Rp22
ag10
(g14
S'\xee\xed9\xa2\xcbPW@'
p23
tp24
Rp25
ag10
(g14
S'\xa9j2\x91\x8dQW@'
p26
tp27
Rp28
ag10
(g14
S'\xa4\x10\xd8p\x1cRW@'
p29
tp30
Rp31
ag10
(g14
S']\x8e2t\xd5OW@'
p32
tp33
Rp34
ag10
(g14
S'\x12TB\x1d\xbcPW@'
p35
tp36
Rp37
ag10
(g14
S'\x00e\xb4\x98\xb6QW@'
p38
tp39
Rp40
ag10
(g14
S'\xde\x9c|Q\x83QW@'
p41
tp42
Rp43
ag10
(g14
S'\x9e\x16\x8e\xf4OPW@'
p44
tp45
Rp46
ag10
(g14
S'\x84\xa2\xbdw\xccOW@'
p47
tp48
Rp49
ag10
(g14
S'&R\\\xfa\x0bPW@'
p50
tp51
Rp52
ag10
(g14
S'{\x97\x0eG0PW@'
p53
tp54
Rp55
ag10
(g14
S'\xf4Z\x0e$\x9cQW@'
p56
tp57
Rp58
ag10
(g14
S'\x00\x84\xc4\xaf&OW@'
p59
tp60
Rp61
ag10
(g14
S'\x03\x0e\xe2\x89EPW@'
p62
tp63
Rp64
ag10
(g14
S'\xe7\x8d\x19PnPW@'
p65
tp66
Rp67
ag10
(g14
S'"Yl;\xc6OW@'
p68
tp69
Rp70
ag10
(g14
S'\xca"\x04\x10\xfdPW@'
p71
tp72
Rp73
ag10
(g14
S'\xd3srW\x8cPW@'
p74
tp75
Rp76
asS'target'
p77
(lp78
g10
(g14
S'.W.\xb2em/@'
p79
tp80
Rp81
ag10
(g14
S'\xe1@:I\xc3\xf90@'
p82
tp83
Rp84
ag10
(g14
S'\xabiR\xfc\x07 1@'
p85
tp86
Rp87
ag10
(g14
S'\xb2}\xd2\xaf/P1@'
p88
tp89
Rp90
ag10
(g14
S'bu~\xbf\xfa\x871@'
p91
tp92
Rp93
ag10
(g14
S'\xfeE\xbcH\x95\xbe1@'
p94
tp95
Rp96
ag10
(g14
S'\xe9%\xde\x00\x0bG0@'
p97
tp98
Rp99
ag10
(g14
S'\xe7\x0eb\x9eN\xb00@'
p100
tp101
Rp102
ag10
(g14
S' \x96\x86\xc1?\x052@'
p103
tp104
Rp105
ag10
(g14
S'\x0bOw\xc4\x8a\x8a0@'
p106
tp107
Rp108
ag10
(g14
S'\xc4\xcdY\xd7X\r1@'
p109
tp110
Rp111
ag10
(g14
S'-C\x8c l\xd91@'
p112
tp113
Rp114
ag10
(g14
S'\x04\xce\x0f\xd7\xc7W2@'
p115
tp116
Rp117
ag10
(g14
S'\xeb|\xed\xbaW%1@'
p118
tp119
Rp120
ag10
(g14
S'\x0b\x87\x8e\xc7\xa9\x810@'
p121
tp122
Rp123
ag10
(g14
S')0\xf5\xee\xd2\xc80@'
p124
tp125
Rp126
ag10
(g14
S'\xce\xeb\xe2\x16`z0@'
p127
tp128
Rp129
ag10
(g14
S'P\xf2\xd4|\x88[1@'
p130
tp131
Rp132
ag10
(g14
S'9l`\xbaF\x891@'
p133
tp134
Rp135
ag10
(g14
S'S\xe6d\x81\x94\xb20@'
p136
tp137
Rp138
asssss.