(dp0
S'../Data/sqlite_20.csv'
p1
(dp2
S'../Data/sqlite_77.csv'
p3
(dp4
F0.15
(dp5
S'mmre'
p6
(dp7
S'bellwether'
p8
(lp9
cnumpy.core.multiarray
scalar
p10
(cnumpy
dtype
p11
(S'f8'
p12
I0
I1
tp13
Rp14
(I3
S'<'
p15
NNNI-1
I-1
I0
tp16
bS'\xe1\x83\x94\xdf\x81bJ@'
p17
tp18
Rp19
ag10
(g14
S'i\xc93\x16atJ@'
p20
tp21
Rp22
ag10
(g14
S'x\x93\x8c4\x96WJ@'
p23
tp24
Rp25
ag10
(g14
S'\xaa\xbe\xd8\xcaqrJ@'
p26
tp27
Rp28
ag10
(g14
S'n\xc1+1\xd3dJ@'
p29
tp30
Rp31
ag10
(g14
S'\xd6\xdag2\x04\x85J@'
p32
tp33
Rp34
ag10
(g14
S'\x80d\xb2G7\x81J@'
p35
tp36
Rp37
ag10
(g14
S'\x0f\x13\\\x06\xa4\x81J@'
p38
tp39
Rp40
ag10
(g14
S'\xb7\x91\xbe\x0e\xecnJ@'
p41
tp42
Rp43
ag10
(g14
S'\x93\xb0!\x8b9fJ@'
p44
tp45
Rp46
ag10
(g14
S'}\xacC8\x81{J@'
p47
tp48
Rp49
ag10
(g14
S'd\xde\xee\x9f\xf4\x8eJ@'
p50
tp51
Rp52
ag10
(g14
S'\xc9\x80e\x87dnJ@'
p53
tp54
Rp55
ag10
(g14
S'\xa6\x00l\xaf\x99iJ@'
p56
tp57
Rp58
ag10
(g14
S'\xb6\xb9\xb1\xfc{]J@'
p59
tp60
Rp61
ag10
(g14
S'\tG\x99\x9e9WJ@'
p62
tp63
Rp64
ag10
(g14
S'\x00Ep;\xdb\\J@'
p65
tp66
Rp67
ag10
(g14
S'\xf0t\xac\xf6\x1fIJ@'
p68
tp69
Rp70
ag10
(g14
S'ZO+\xafm{J@'
p71
tp72
Rp73
ag10
(g14
S',3\x81\xfb\\GJ@'
p74
tp75
Rp76
asS'target'
p77
(lp78
g10
(g14
S'Z.x\x7fi?5@'
p79
tp80
Rp81
ag10
(g14
S']\xa2\x1b\xd1\x0f,5@'
p82
tp83
Rp84
ag10
(g14
S'\xf0\xe94\xc9\x1ck7@'
p85
tp86
Rp87
ag10
(g14
S'\x9b| N\xfaV6@'
p88
tp89
Rp90
ag10
(g14
S'\xd4Y\xadc\xf8%7@'
p91
tp92
Rp93
ag10
(g14
S'M\x95J\x18\x04\x836@'
p94
tp95
Rp96
ag10
(g14
S'Mu\x96\x15\xecb5@'
p97
tp98
Rp99
ag10
(g14
S'M\xc6\xa8\x08\xe0\x844@'
p100
tp101
Rp102
ag10
(g14
S';\x1d\xae\xac\xefm6@'
p103
tp104
Rp105
ag10
(g14
S'b\xd0\xb8\xff4|6@'
p106
tp107
Rp108
ag10
(g14
S'~0\xee\xd8\xa223@'
p109
tp110
Rp111
ag10
(g14
S'C\xb2\xb2\r4\x876@'
p112
tp113
Rp114
ag10
(g14
S'\xbd\xed\x02\x1aY\x8d6@'
p115
tp116
Rp117
ag10
(g14
S'\xa6\n\xc9\x90\x00~5@'
p118
tp119
Rp120
ag10
(g14
S'^\xbcdKG\xc45@'
p121
tp122
Rp123
ag10
(g14
S'\xe6&N\x94A}7@'
p124
tp125
Rp126
ag10
(g14
S'j\xf8\'."q8@'
p127
tp128
Rp129
ag10
(g14
S'7\xd1?\xdb\xf8C6@'
p130
tp131
Rp132
ag10
(g14
S'~\xf7>\xc4\rL6@'
p133
tp134
Rp135
ag10
(g14
S'b1;q\xb5\xec5@'
p136
tp137
Rp138
asssss.