(dp0
S'../Data/sqlite_34.csv'
p1
(dp2
S'../Data/sqlite_73.csv'
p3
(dp4
F0.35
(dp5
S'mmre'
p6
(dp7
S'bellwether'
p8
(lp9
cnumpy.core.multiarray
scalar
p10
(cnumpy
dtype
p11
(S'f8'
p12
I0
I1
tp13
Rp14
(I3
S'<'
p15
NNNI-1
I-1
I0
tp16
bS'?\xadP\xde\xb0@A@'
p17
tp18
Rp19
ag10
(g14
S'\xbcVO\xfb\x07/A@'
p20
tp21
Rp22
ag10
(g14
S'\x7f\x12D\xf7\xa8(A@'
p23
tp24
Rp25
ag10
(g14
S'\xd4\x10\xc4\xbc\x91CA@'
p26
tp27
Rp28
ag10
(g14
S'\x14\xde\xd4t]+A@'
p29
tp30
Rp31
ag10
(g14
S'\xc74&9\xb6(A@'
p32
tp33
Rp34
ag10
(g14
S'2\xebj\xaf\xbb\x0bA@'
p35
tp36
Rp37
ag10
(g14
S'\xd3\xadMC\xed/A@'
p38
tp39
Rp40
ag10
(g14
S'\x9d\xc8\xfd\xd4\xdcKA@'
p41
tp42
Rp43
ag10
(g14
S'\xf4\x86tM%1A@'
p44
tp45
Rp46
ag10
(g14
S'\x04\x1f0\xf2\xe7DA@'
p47
tp48
Rp49
ag10
(g14
S'\xe4\xd0\x19\xfe\x06%A@'
p50
tp51
Rp52
ag10
(g14
S'&%E;kbA@'
p53
tp54
Rp55
ag10
(g14
S'*-\x83\x85#5A@'
p56
tp57
Rp58
ag10
(g14
S'\xe7~S\x15\\1A@'
p59
tp60
Rp61
ag10
(g14
S'\x14Fy\xbfw>A@'
p62
tp63
Rp64
ag10
(g14
S'\x16\xfbP.\xce3A@'
p65
tp66
Rp67
ag10
(g14
S'\n\xd1\xba\xfd\xe98A@'
p68
tp69
Rp70
ag10
(g14
S'\xab!\xeeB\xf7DA@'
p71
tp72
Rp73
ag10
(g14
S'\xa1\xdb\xa3,\xfa:A@'
p74
tp75
Rp76
asS'target'
p77
(lp78
g10
(g14
S'\xf9"\x971\xdf:*@'
p79
tp80
Rp81
ag10
(g14
S'\xf6_\x06\xeb/H,@'
p82
tp83
Rp84
ag10
(g14
S'\xd4\x04\x9c\x92\x8eF,@'
p85
tp86
Rp87
ag10
(g14
S'$\xab\x86c\x0bN+@'
p88
tp89
Rp90
ag10
(g14
S'\xd9\xb2}\xeb\xc5;+@'
p91
tp92
Rp93
ag10
(g14
S'\x8936\xf0\x00J.@'
p94
tp95
Rp96
ag10
(g14
S'\xe8\xca\xeb\x80\x1e\xd3+@'
p97
tp98
Rp99
ag10
(g14
S'\x146\xb3-\xddD*@'
p100
tp101
Rp102
ag10
(g14
S'\xf2\x08\xc9l\xd0\x1a-@'
p103
tp104
Rp105
ag10
(g14
S'5,\x89|tP,@'
p106
tp107
Rp108
ag10
(g14
S'`;Yp\xde\xc1+@'
p109
tp110
Rp111
ag10
(g14
S'\xc0h\x9d{\x160,@'
p112
tp113
Rp114
ag10
(g14
S'\xa4\x0c\x87A8!)@'
p115
tp116
Rp117
ag10
(g14
S'=#Pc3\x1c.@'
p118
tp119
Rp120
ag10
(g14
S'Ta\x84\xa0\x86T+@'
p121
tp122
Rp123
ag10
(g14
S'\xfby\xa3\x07]\x96+@'
p124
tp125
Rp126
ag10
(g14
S'\xf6\x9d\xdc\x87*+,@'
p127
tp128
Rp129
ag10
(g14
S'<A;\x90T\xc6-@'
p130
tp131
Rp132
ag10
(g14
S'\x0f\xbe\xb5\x87\n\xd9*@'
p133
tp134
Rp135
ag10
(g14
S'tq\xaa\xb3\xa6\x87+@'
p136
tp137
Rp138
asssss.