(dp0
S'../Data/sqlite_40.csv'
p1
(dp2
S'../Data/sqlite_90.csv'
p3
(dp4
F0.15
(dp5
S'mmre'
p6
(dp7
S'bellwether'
p8
(lp9
cnumpy.core.multiarray
scalar
p10
(cnumpy
dtype
p11
(S'f8'
p12
I0
I1
tp13
Rp14
(I3
S'<'
p15
NNNI-1
I-1
I0
tp16
bS'\xed5\xfc\x0bkiT@'
p17
tp18
Rp19
ag10
(g14
S'b\xd9n\xfdebT@'
p20
tp21
Rp22
ag10
(g14
S'\xf3\xd6P\x7f\x92WT@'
p23
tp24
Rp25
ag10
(g14
S'\xf1\xfd\x8a\x00\xdaWT@'
p26
tp27
Rp28
ag10
(g14
S'\x17 ;\x06fdT@'
p29
tp30
Rp31
ag10
(g14
S'W\xb9Y\xee\x1cjT@'
p32
tp33
Rp34
ag10
(g14
S'Q\x05\xda\x88\x83mT@'
p35
tp36
Rp37
ag10
(g14
S'\xd1\xb1\x0c\x8cVYT@'
p38
tp39
Rp40
ag10
(g14
S'\xec],TLiT@'
p41
tp42
Rp43
ag10
(g14
S"'\xa1\r\xdaMUT@"
p44
tp45
Rp46
ag10
(g14
S'\xab`\xf3\x11`eT@'
p47
tp48
Rp49
ag10
(g14
S'\xd7V\x81b5nT@'
p50
tp51
Rp52
ag10
(g14
S'{F\xe3\xecG]T@'
p53
tp54
Rp55
ag10
(g14
S'*&\x93(\x88\\T@'
p56
tp57
Rp58
ag10
(g14
S'E-K\x1f\x12eT@'
p59
tp60
Rp61
ag10
(g14
S'\x01\xc7\x0f\x81\xe7aT@'
p62
tp63
Rp64
ag10
(g14
S'3\xfd\xf0\r\xadcT@'
p65
tp66
Rp67
ag10
(g14
S'i\xdd}\xd7deT@'
p68
tp69
Rp70
ag10
(g14
S"\xc9\x96'\xc1\x05WT@"
p71
tp72
Rp73
ag10
(g14
S'\r\x1f\xb0<\xb3jT@'
p74
tp75
Rp76
asS'target'
p77
(lp78
g10
(g14
S'\xb7\xb9I\x97\x1c#@@'
p79
tp80
Rp81
ag10
(g14
S'\xde\xd1\xfd\x0e\x96|A@'
p82
tp83
Rp84
ag10
(g14
S'\x02g\x10\xa8\x0f1D@'
p85
tp86
Rp87
ag10
(g14
S'\x18\x0f`\xe5\n-C@'
p88
tp89
Rp90
ag10
(g14
S'\x11\x82W\xbc1\xacB@'
p91
tp92
Rp93
ag10
(g14
S'\xf6\xaa,\x92l\rC@'
p94
tp95
Rp96
ag10
(g14
S'\x87\x82{j\xd2g@@'
p97
tp98
Rp99
ag10
(g14
S'yE\xe1\xd7\xa6\xbf@@'
p100
tp101
Rp102
ag10
(g14
S'K`t14\x0eB@'
p103
tp104
Rp105
ag10
(g14
S'<\xb5\xb8/*\xf7@@'
p106
tp107
Rp108
ag10
(g14
S'\xeeN^\x05\x8c\xfe@@'
p109
tp110
Rp111
ag10
(g14
S'(\xb6\xf0d\xa8@D@'
p112
tp113
Rp114
ag10
(g14
S'\xda\x91\xf2gjX?@'
p115
tp116
Rp117
ag10
(g14
S'\x9d\xa1\x0b\x1e\x0cGB@'
p118
tp119
Rp120
ag10
(g14
S'\x98|\x8c\x016\xb3=@'
p121
tp122
Rp123
ag10
(g14
S' \xdf\x1a\xca\xfd\xcfA@'
p124
tp125
Rp126
ag10
(g14
S'j\xbb\xfe\xbe\xcb,?@'
p127
tp128
Rp129
ag10
(g14
S"$\xd0\xc8\xc4\xb2'B@"
p130
tp131
Rp132
ag10
(g14
S"K\xdc\xf2'isA@"
p133
tp134
Rp135
ag10
(g14
S'\xb1Q0\xd5ieB@'
p136
tp137
Rp138
asssss.