(dp0
S'../Data/sqlite_74.csv'
p1
(dp2
S'../Data/sqlite_51.csv'
p3
(dp4
F0.4
(dp5
S'abs_res'
p6
(dp7
S'bellwether'
p8
(lp9
cnumpy.core.multiarray
scalar
p10
(cnumpy
dtype
p11
(S'f8'
p12
I0
I1
tp13
Rp14
(I3
S'<'
p15
NNNI-1
I-1
I0
tp16
bS'*\xce>$\xbdMdA'
p17
tp18
Rp19
ag10
(g14
S'N(\xa3\xdbNEdA'
p20
tp21
Rp22
ag10
(g14
S'\xf7D\xfd\xb3\xb4YdA'
p23
tp24
Rp25
ag10
(g14
S'\xb8\xc8v\xf2\x1fCdA'
p26
tp27
Rp28
ag10
(g14
S'\r\xf3DEANdA'
p29
tp30
Rp31
ag10
(g14
S'\x01\xb9\xd7|\xc8UdA'
p32
tp33
Rp34
ag10
(g14
S'{0O|\x1bPdA'
p35
tp36
Rp37
ag10
(g14
S'%""~\x90IdA'
p38
tp39
Rp40
ag10
(g14
S'u\xaf\xb9\x0cQVdA'
p41
tp42
Rp43
ag10
(g14
S'#\xea\xdf\xdc\xb6RdA'
p44
tp45
Rp46
ag10
(g14
S'o\xda@\x0f\xd2^dA'
p47
tp48
Rp49
ag10
(g14
S'\xa6\x7f#@\x05:dA'
p50
tp51
Rp52
ag10
(g14
S'\xaeG\xe1&lKdA'
p53
tp54
Rp55
ag10
(g14
S'`;\xdfs>QdA'
p56
tp57
Rp58
ag10
(g14
S'\xcag\xd89\xda1dA'
p59
tp60
Rp61
ag10
(g14
S"\x9f'\xea?\xd6MdA"
p62
tp63
Rp64
ag10
(g14
S'\xfeb\xc9/\xf7CdA'
p65
tp66
Rp67
ag10
(g14
S"\xfc\x1b\xa1\xb4'YdA"
p68
tp69
Rp70
ag10
(g14
S'quL\xa8\xeaTdA'
p71
tp72
Rp73
ag10
(g14
S'd\xbct\xcb\xe4XdA'
p74
tp75
Rp76
asS'target'
p77
(lp78
g10
(g14
S'w\x14\xaeG\xe1\x9a7@'
p79
tp80
Rp81
ag10
(g14
S'\xf9\xa9\xf1\xd2M\x12;@'
p82
tp83
Rp84
ag10
(g14
S'\xdc\xa5\x9b\xc4 \x10:@'
p85
tp86
Rp87
ag10
(g14
S'_\x10X9\xb4(8@'
p88
tp89
Rp90
ag10
(g14
S'Sd;\xdfO\xdd8@'
p91
tp92
Rp93
ag10
(g14
S'\xb7t\x93\x18\x04\x869@'
p94
tp95
Rp96
ag10
(g14
S'_\xe5\xd0"\xdb\xb98@'
p97
tp98
Rp99
ag10
(g14
S'Wd;\xdfO\xad:@'
p100
tp101
Rp102
ag10
(g14
S'\xb3\xc8v\xbe\x9f\xea6@'
p103
tp104
Rp105
ag10
(g14
S'\x07\x81\x95C\x8b\x8c;@'
p106
tp107
Rp108
ag10
(g14
S'R\xe3\xa5\x9b\xc4\xb08@'
p109
tp110
Rp111
ag10
(g14
S'&\x85\xebQ\xb8\xde8@'
p112
tp113
Rp114
ag10
(g14
S's\x93\x18\x04VN8@'
p115
tp116
Rp117
ag10
(g14
S'`\x10X9\xb4\x886@'
p118
tp119
Rp120
ag10
(g14
S'\xfa\xfd\xd4x\xe9\xc68@'
p121
tp122
Rp123
ag10
(g14
S'\xb0rh\x91\xedL8@'
p124
tp125
Rp126
ag10
(g14
S'\x88\xc2\xf5(\\\xdf8@'
p127
tp128
Rp129
ag10
(g14
S'\xa2\x99\x99\x99\x99\xd99@'
p130
tp131
Rp132
ag10
(g14
S'\xe5\xa7\xc6K7y7@'
p133
tp134
Rp135
ag10
(g14
S'0\\\x8f\xc2\xf5\x888@'
p136
tp137
Rp138
asssss.