(dp0
S'../Data/sqlite_41.csv'
p1
(dp2
S'../Data/sqlite_46.csv'
p3
(dp4
F0.05
(dp5
S'abs_res'
p6
(dp7
S'bellwether'
p8
(lp9
cnumpy.core.multiarray
scalar
p10
(cnumpy
dtype
p11
(S'f8'
p12
I0
I1
tp13
Rp14
(I3
S'<'
p15
NNNI-1
I-1
I0
tp16
bS'/\x08\xac\x94\x1e3BA'
p17
tp18
Rp19
ag10
(g14
S'\x13X94\xbc2BA'
p20
tp21
Rp22
ag10
(g14
S'\xfc\xa9\xf1\xb2(3BA'
p23
tp24
Rp25
ag10
(g14
S'\xc5K79n3BA'
p26
tp27
Rp28
ag10
(g14
S'\xd2Mb`\xa72BA'
p29
tp30
Rp31
ag10
(g14
S'\x9cE\xb6\xeb"3BA'
p32
tp33
Rp34
ag10
(g14
S'\xe3\xfb\xa9\xc1a3BA'
p35
tp36
Rp37
ag10
(g14
S't\xe9&A\xfb2BA'
p38
tp39
Rp40
ag10
(g14
S'|\xb1\xe4\xa7\xe52BA'
p41
tp42
Rp43
ag10
(g14
S':\x8bl\xdf\xc52BA'
p44
tp45
Rp46
ag10
(g14
S'#\xdb\xf9\xb6\xe02BA'
p47
tp48
Rp49
ag10
(g14
S'\x9fE\xb6\x03\xce2BA'
p50
tp51
Rp52
ag10
(g14
S':\xb4\xc8\x9e\xdd2BA'
p53
tp54
Rp55
ag10
(g14
S'\xd2\x94\x8a[\xb92BA'
p56
tp57
Rp58
ag10
(g14
S'cff^\xbe2BA'
p59
tp60
Rp61
ag10
(g14
S'k=\n\xff\xf02BA'
p62
tp63
Rp64
ag10
(g14
S'\x1e\xdb\xf9\x96K3BA'
p65
tp66
Rp67
ag10
(g14
S'\xd4\xce\xf7C\x0b3BA'
p68
tp69
Rp70
ag10
(g14
S'\xde$\x06\xb1@3BA'
p71
tp72
Rp73
ag10
(g14
S'\xb0\xe4\x173\x003BA'
p74
tp75
Rp76
asS'target'
p77
(lp78
g10
(g14
S'H3333;\xcd@'
p79
tp80
Rp81
ag10
(g14
S'H3333\x9f\xcc@'
p82
tp83
Rp84
ag10
(g14
S'!333s\x90\xc7@'
p85
tp86
Rp87
ag10
(g14
S'\x9d\x99\x99\x99\x99\x17\xcc@'
p88
tp89
Rp90
ag10
(g14
S':333S\xc0\xca@'
p91
tp92
Rp93
ag10
(g14
S'=333\xb3r\xcd@'
p94
tp95
Rp96
ag10
(g14
S'Zffff2\xd3@'
p97
tp98
Rp99
ag10
(g14
S'\xd6\xcc\xcc\xcc\xac(\xcf@'
p100
tp101
Rp102
ag10
(g14
S'\xc3\xcc\xcc\xcc\x8c;\xcc@'
p103
tp104
Rp105
ag10
(g14
S'\xde\xcc\xcc\xccL\xf1\xc9@'
p106
tp107
Rp108
ag10
(g14
S'wfff\xe6"\xc8@'
p109
tp110
Rp111
ag10
(g14
S'offf&\xd1\xca@'
p112
tp113
Rp114
ag10
(g14
S'\xce\xcc\xcc\xccL\x9b\xcb@'
p115
tp116
Rp117
ag10
(g14
S'A333\xb3\x80\xcc@'
p118
tp119
Rp120
ag10
(g14
S'\x0f\x00\x00\x00\x804\xcb@'
p121
tp122
Rp123
ag10
(g14
S'\xd4\xcc\xcc\xccLC\xd1@'
p124
tp125
Rp126
ag10
(g14
S'Yfff&\xcf\xcc@'
p127
tp128
Rp129
ag10
(g14
S'9333ss\xd0@'
p130
tp131
Rp132
ag10
(g14
S'bfff\x86\xd9\xd0@'
p133
tp134
Rp135
ag10
(g14
S')333\xf3\xca\xc9@'
p136
tp137
Rp138
asssss.