(dp0
S'../Data/sqlite_44.csv'
p1
(dp2
S'../Data/sqlite_78.csv'
p3
(dp4
F0.3
(dp5
S'mmre'
p6
(dp7
S'bellwether'
p8
(lp9
cnumpy.core.multiarray
scalar
p10
(cnumpy
dtype
p11
(S'f8'
p12
I0
I1
tp13
Rp14
(I3
S'<'
p15
NNNI-1
I-1
I0
tp16
bS'QE\xf6O+cN@'
p17
tp18
Rp19
ag10
(g14
S'ueY\xc9,rN@'
p20
tp21
Rp22
ag10
(g14
S'\xa9x\xab2\xf6LN@'
p23
tp24
Rp25
ag10
(g14
S'\x90\xabA3\xb34N@'
p26
tp27
Rp28
ag10
(g14
S'\\f\xd1P\xe6DN@'
p29
tp30
Rp31
ag10
(g14
S'\xc4\x9b}.nQN@'
p32
tp33
Rp34
ag10
(g14
S'\x8a\xfaX\x87\xa1jN@'
p35
tp36
Rp37
ag10
(g14
S'\xafo\xfa\xaa\xa9\x81N@'
p38
tp39
Rp40
ag10
(g14
S'\xd4\x9bV\xfc\x9bgN@'
p41
tp42
Rp43
ag10
(g14
S'z\xb9\x8d\xca9iN@'
p44
tp45
Rp46
ag10
(g14
S'\xa3N\xf9j\x1bDN@'
p47
tp48
Rp49
ag10
(g14
S'\xd6=Z\xe0YzN@'
p50
tp51
Rp52
ag10
(g14
S'W1\x85\x1f]zN@'
p53
tp54
Rp55
ag10
(g14
S'R\xc8\xa8\xb3\xcdlN@'
p56
tp57
Rp58
ag10
(g14
S'\xe4T\xd3cF\x88N@'
p59
tp60
Rp61
ag10
(g14
S'y:?\x1f\x02pN@'
p62
tp63
Rp64
ag10
(g14
S'n@\xbd(\xf5UN@'
p65
tp66
Rp67
ag10
(g14
S'\xc9N\x99\xc9\xc3GN@'
p68
tp69
Rp70
ag10
(g14
S'\x92\xb43k\x00tN@'
p71
tp72
Rp73
ag10
(g14
S'q\xc3\xa3\x1d&bN@'
p74
tp75
Rp76
asS'target'
p77
(lp78
g10
(g14
S'\x0c\xa4C>v[3@'
p79
tp80
Rp81
ag10
(g14
S'\xb9K\x05/\xc3\xd52@'
p82
tp83
Rp84
ag10
(g14
S';\x04\xf8kF<4@'
p85
tp86
Rp87
ag10
(g14
S'8\x8c\r\x1fV\x894@'
p88
tp89
Rp90
ag10
(g14
S'Yv\xa4j;M5@'
p91
tp92
Rp93
ag10
(g14
S'\xad7\xc5o\x9c\x123@'
p94
tp95
Rp96
ag10
(g14
S'\n/\xf3\xca\x86s4@'
p97
tp98
Rp99
ag10
(g14
S'\xbag\xc0\x10\x1f\x114@'
p100
tp101
Rp102
ag10
(g14
S'i\xae\xb8\t\x06\x923@'
p103
tp104
Rp105
ag10
(g14
S'8\xae\x07s\xc9z2@'
p106
tp107
Rp108
ag10
(g14
S'-\xb1Ue\xf4\xc33@'
p109
tp110
Rp111
ag10
(g14
S'\xe0\x06\xcb\xb8{\xa83@'
p112
tp113
Rp114
ag10
(g14
S'\x94\x1e&\x1e\x1b\x932@'
p115
tp116
Rp117
ag10
(g14
S'S\x15\x03\x06\x8a\xcd2@'
p118
tp119
Rp120
ag10
(g14
S'8L\xb4~b\x073@'
p121
tp122
Rp123
ag10
(g14
S'Q\xbdA\x11b\x912@'
p124
tp125
Rp126
ag10
(g14
S'\xd2q\x8c\xddX\xcd3@'
p127
tp128
Rp129
ag10
(g14
S'\xdcj\xe7\xa7\xd2!3@'
p130
tp131
Rp132
ag10
(g14
S'2\xec\xdc\x10\x0f\xeb2@'
p133
tp134
Rp135
ag10
(g14
S'\xceGt`I\xb74@'
p136
tp137
Rp138
asssss.