(dp0
S'../Data/sqlite_38.csv'
p1
(dp2
S'../Data/sqlite_90.csv'
p3
(dp4
F0.1
(dp5
S'mmre'
p6
(dp7
S'bellwether'
p8
(lp9
cnumpy.core.multiarray
scalar
p10
(cnumpy
dtype
p11
(S'f8'
p12
I0
I1
tp13
Rp14
(I3
S'<'
p15
NNNI-1
I-1
I0
tp16
bS'\x9fr\xccs\xcd\xcf>@'
p17
tp18
Rp19
ag10
(g14
S'\xb6\x8fd\x90V\xbd=@'
p20
tp21
Rp22
ag10
(g14
S'\xbc1ib)\xff<@'
p23
tp24
Rp25
ag10
(g14
S'LN\x863\xff\x1d=@'
p26
tp27
Rp28
ag10
(g14
S'(\\\x95\x1b\xc0\x17>@'
p29
tp30
Rp31
ag10
(g14
S'\x0e>\xa4\x12\xdc\x0f;@'
p32
tp33
Rp34
ag10
(g14
S'V\xddB>j\x1a>@'
p35
tp36
Rp37
ag10
(g14
S'a\xb5\x0cMSj<@'
p38
tp39
Rp40
ag10
(g14
S'\xa4\x92\xb1F\x18N=@'
p41
tp42
Rp43
ag10
(g14
S'Nf\x93\xf8#\xfd<@'
p44
tp45
Rp46
ag10
(g14
S'\x81o\xa0\xc2\xa3i<@'
p47
tp48
Rp49
ag10
(g14
S'\xa5q\x96C\xf3\xba;@'
p50
tp51
Rp52
ag10
(g14
S'\x96\x99h\x81#\xc7=@'
p53
tp54
Rp55
ag10
(g14
S'\x98N\xa0\xbeA@<@'
p56
tp57
Rp58
ag10
(g14
S'Nj{L\t5>@'
p59
tp60
Rp61
ag10
(g14
S'6\xcc\xa0\xaf\xc09<@'
p62
tp63
Rp64
ag10
(g14
S'&UU\xb6\xc0h=@'
p65
tp66
Rp67
ag10
(g14
S'J\x8d\tT\xdar<@'
p68
tp69
Rp70
ag10
(g14
S'\t\\\xcc\xb5\x8a\n=@'
p71
tp72
Rp73
ag10
(g14
S'f\xd4?/B\xcd=@'
p74
tp75
Rp76
asS'target'
p77
(lp78
g10
(g14
S'=\xbf\x08,\x1e\xee?@'
p79
tp80
Rp81
ag10
(g14
S'\x00\xbc\x1b\xf9QAA@'
p82
tp83
Rp84
ag10
(g14
S"\x98'\xbd\xd7\x02\xed?@"
p85
tp86
Rp87
ag10
(g14
S'\xcdU`Y\x13\xe9@@'
p88
tp89
Rp90
ag10
(g14
S'\xee\xa7\xee\x8f\xfd\xaf?@'
p91
tp92
Rp93
ag10
(g14
S'\xc2\x03\xe8\x06yLA@'
p94
tp95
Rp96
ag10
(g14
S'\x9e\xa1\x92\xde\xc8!@@'
p97
tp98
Rp99
ag10
(g14
S'>\x19\xaeRWxA@'
p100
tp101
Rp102
ag10
(g14
S',\x9b\x0f4\n\xcbB@'
p103
tp104
Rp105
ag10
(g14
S'z2.\x187\xbaA@'
p106
tp107
Rp108
ag10
(g14
S'\xf6_\xd3\x04\xd2\x15A@'
p109
tp110
Rp111
ag10
(g14
S'*\xe9m\x1f\x16.A@'
p112
tp113
Rp114
ag10
(g14
S'\x91\xc8\xe9\xa3X-?@'
p115
tp116
Rp117
ag10
(g14
S'\xd9\xbeD&_M@@'
p118
tp119
Rp120
ag10
(g14
S'\xa6^\x9c\x92*\x18C@'
p121
tp122
Rp123
ag10
(g14
S'\xf8\xffn\xb6wKB@'
p124
tp125
Rp126
ag10
(g14
S'\x14I\xd3\xda\xabtC@'
p127
tp128
Rp129
ag10
(g14
S'b\x0e\x82\x98\xfc\x82A@'
p130
tp131
Rp132
ag10
(g14
S'\x1aBv8)|B@'
p133
tp134
Rp135
ag10
(g14
S'\xeb\x91Q4}%B@'
p136
tp137
Rp138
asssss.