(dp0
S'../Data/sqlite_88.csv'
p1
(dp2
S'../Data/sqlite_72.csv'
p3
(dp4
F0.25
(dp5
S'abs_res'
p6
(dp7
S'bellwether'
p8
(lp9
cnumpy.core.multiarray
scalar
p10
(cnumpy
dtype
p11
(S'f8'
p12
I0
I1
tp13
Rp14
(I3
S'<'
p15
NNNI-1
I-1
I0
tp16
bS'\x15\x04V\xfe@\x97`A'
p17
tp18
Rp19
ag10
(g14
S'\x08V\x0e-.\xca`A'
p20
tp21
Rp22
ag10
(g14
S'\x90A`um\xa9`A'
p23
tp24
Rp25
ag10
(g14
S'\xf2\xd2M\xfa\xaa\xad`A'
p26
tp27
Rp28
ag10
(g14
S'\x17ZdS\xf2\x99`A'
p29
tp30
Rp31
ag10
(g14
S'.\xdd$f=\xa8`A'
p32
tp33
Rp34
ag10
(g14
S'\x82\xebQ|\x1b\xab`A'
p35
tp36
Rp37
ag10
(g14
S':33\x07\xdd\xb0`A'
p38
tp39
Rp40
ag10
(g14
S'u=\nC#\x87`A'
p41
tp42
Rp43
ag10
(g14
S'\xf7|?\x9d\xde\xa7`A'
p44
tp45
Rp46
ag10
(g14
S'!\xb0rH\xff\xc2`A'
p47
tp48
Rp49
ag10
(g14
S'\xc8 \xb0\xfa\xe4\xcf`A'
p50
tp51
Rp52
ag10
(g14
S'9\n\xd7\x9f\x1d\xa8`A'
p53
tp54
Rp55
ag10
(g14
S'\x97C\x8bx\x9d\x94`A'
p56
tp57
Rp58
ag10
(g14
S'\xe9\xd0"\xfb_\xae`A'
p59
tp60
Rp61
ag10
(g14
S'\xde$\x06\x99q\xbd`A'
p62
tp63
Rp64
ag10
(g14
S'\xd2\xf7S\x07\xdd\xde`A'
p65
tp66
Rp67
ag10
(g14
S'533\xab\xf0\xaa`A'
p68
tp69
Rp70
ag10
(g14
S'dffV7\xac`A'
p71
tp72
Rp73
ag10
(g14
S'8\xdfO\xd5\xc4\xb9`A'
p74
tp75
Rp76
asS'target'
p77
(lp78
g10
(g14
S'Q7\x89A`%Q@'
p79
tp80
Rp81
ag10
(g14
S'\xc1\xf5(\\\x8f"Q@'
p82
tp83
Rp84
ag10
(g14
S'\xfc\xa9\xf1\xd2MnQ@'
p85
tp86
Rp87
ag10
(g14
S'73333SP@'
p88
tp89
Rp90
ag10
(g14
S'\xcc\xcc\xcc\xcc\xccLP@'
p91
tp92
Rp93
ag10
(g14
S'G\xdfO\x8d\x97\x1eO@'
p94
tp95
Rp96
ag10
(g14
S'\xa5p=\n\xd7\x17Q@'
p97
tp98
Rp99
ag10
(g14
S'M\x0c\x02+\x87.P@'
p100
tp101
Rp102
ag10
(g14
S'\x11\x83\xc0\xca\xa1\xcdP@'
p103
tp104
Rp105
ag10
(g14
S'\x89\xebQ\xb8\x1eUP@'
p106
tp107
Rp108
ag10
(g14
S'%\x85\xebQ\xb8vQ@'
p109
tp110
Rp111
ag10
(g14
S'\x96\xed|?56P@'
p112
tp113
Rp114
ag10
(g14
S'\x81\x95C\x8bl/Q@'
p115
tp116
Rp117
ag10
(g14
S'w?5^\xba\x11R@'
p118
tp119
Rp120
ag10
(g14
S'\x19\x04V\x0e-FP@'
p121
tp122
Rp123
ag10
(g14
S'\xe1z\x14\xaeG\x99P@'
p124
tp125
Rp126
ag10
(g14
S'o\x91\xed|?\x1dR@'
p127
tp128
Rp129
ag10
(g14
S'\xc2 \xb0rh\xe1O@'
p130
tp131
Rp132
ag10
(g14
S'\x06V\x0e-\xb2iP@'
p133
tp134
Rp135
ag10
(g14
S'\xf7(\\\x8f\xc2\x15O@'
p136
tp137
Rp138
asssss.