(dp0
S'../Data/sqlite_26.csv'
p1
(dp2
S'../Data/sqlite_87.csv'
p3
(dp4
F0.15
(dp5
S'mmre'
p6
(dp7
S'bellwether'
p8
(lp9
cnumpy.core.multiarray
scalar
p10
(cnumpy
dtype
p11
(S'f8'
p12
I0
I1
tp13
Rp14
(I3
S'<'
p15
NNNI-1
I-1
I0
tp16
bS'\xcb\xce\x91\x8a\xde\x0f_@'
p17
tp18
Rp19
ag10
(g14
S'\x8bAC\xc2lU_@'
p20
tp21
Rp22
ag10
(g14
S'\x8f/,P$<_@'
p23
tp24
Rp25
ag10
(g14
S'\x8fp\xa3\xd0\x06 _@'
p26
tp27
Rp28
ag10
(g14
S'G\xca\x8e\x1e\xe0^_@'
p29
tp30
Rp31
ag10
(g14
S'\xb4\x89\x13`90_@'
p32
tp33
Rp34
ag10
(g14
S'\r6u)D\x86_@'
p35
tp36
Rp37
ag10
(g14
S'^\xaa\xf30\xe5M_@'
p38
tp39
Rp40
ag10
(g14
S'+\xddE]\xcbE_@'
p41
tp42
Rp43
ag10
(g14
S'\xa2\x9b\x88\x81V3_@'
p44
tp45
Rp46
ag10
(g14
S'\xf8)\x98\xfb\x8fD_@'
p47
tp48
Rp49
ag10
(g14
S'&\xf1\xe9\xd7gF_@'
p50
tp51
Rp52
ag10
(g14
S'\t\n:\xca\xf3d_@'
p53
tp54
Rp55
ag10
(g14
S"\xcf'uOIN_@"
p56
tp57
Rp58
ag10
(g14
S'\xdd\x83\x12M\xaf\x88_@'
p59
tp60
Rp61
ag10
(g14
S'\xc7\xcc3\xbec\xd0_@'
p62
tp63
Rp64
ag10
(g14
S'>o\x1b\xc8V\x96_@'
p65
tp66
Rp67
ag10
(g14
S'Z\xbe\xbad\x1eE_@'
p68
tp69
Rp70
ag10
(g14
S't\x9a\x9dh\xab\\_@'
p71
tp72
Rp73
ag10
(g14
S'\xdbjUE\x1es_@'
p74
tp75
Rp76
asS'target'
p77
(lp78
g10
(g14
S'\xb5Q\x87\x17!\xb7G@'
p79
tp80
Rp81
ag10
(g14
S'n\xee\x1f\x07@uY@'
p82
tp83
Rp84
ag10
(g14
S'\x88\xa9\x0c\xa7I\xa8F@'
p85
tp86
Rp87
ag10
(g14
S'\xee\xfa\xf7&\xf5\xe1O@'
p88
tp89
Rp90
ag10
(g14
S'-~\xbbji\x82Q@'
p91
tp92
Rp93
ag10
(g14
S'\xe3X5D/\x01J@'
p94
tp95
Rp96
ag10
(g14
S'\x95\x94y\x9f\xb3rM@'
p97
tp98
Rp99
ag10
(g14
S"\xe8'\x0e\x82\xc5iQ@"
p100
tp101
Rp102
ag10
(g14
S'a\xd3\xd7ht\xc5N@'
p103
tp104
Rp105
ag10
(g14
S'$\x0erBi\x94S@'
p106
tp107
Rp108
ag10
(g14
S'u\xc9@\x08!fP@'
p109
tp110
Rp111
ag10
(g14
S'\x8f<=\x01\x0f\xbfS@'
p112
tp113
Rp114
ag10
(g14
S'KC\n`kCN@'
p115
tp116
Rp117
ag10
(g14
S'\xa9-du\xfd|S@'
p118
tp119
Rp120
ag10
(g14
S'\xca\x08\xb9\xac\xb1&W@'
p121
tp122
Rp123
ag10
(g14
S'%\x04qB\xe8kT@'
p124
tp125
Rp126
ag10
(g14
S'S\xbfS8\xb3\x8aQ@'
p127
tp128
Rp129
ag10
(g14
S'$\x11|S\x0f\xd0G@'
p130
tp131
Rp132
ag10
(g14
S'\xd4~K\xc9\xe7\xcaM@'
p133
tp134
Rp135
ag10
(g14
S'\x08\x1c\x12\xc5O1P@'
p136
tp137
Rp138
asssss.