(dp0
S'../Data/sqlite_87.csv'
p1
(dp2
S'../Data/sqlite_91.csv'
p3
(dp4
F0.4
(dp5
S'mmre'
p6
(dp7
S'bellwether'
p8
(lp9
cnumpy.core.multiarray
scalar
p10
(cnumpy
dtype
p11
(S'f8'
p12
I0
I1
tp13
Rp14
(I3
S'<'
p15
NNNI-1
I-1
I0
tp16
bS'\xf0\x026\xafWjW@'
p17
tp18
Rp19
ag10
(g14
S'{"y\x9d\xa6`W@'
p20
tp21
Rp22
ag10
(g14
S'!\x9dh&\xe1sW@'
p23
tp24
Rp25
ag10
(g14
S'?\x89\xb9\x18\tnW@'
p26
tp27
Rp28
ag10
(g14
S'X\xe6\r\x9b,SW@'
p29
tp30
Rp31
ag10
(g14
S'\xc0\x93\xf4AOtW@'
p32
tp33
Rp34
ag10
(g14
S'\x98\xd8b\x81\x13rW@'
p35
tp36
Rp37
ag10
(g14
S'5TgN`ZW@'
p38
tp39
Rp40
ag10
(g14
S'k^\xb2\xc10`W@'
p41
tp42
Rp43
ag10
(g14
S':\xec\xe9pJ?W@'
p44
tp45
Rp46
ag10
(g14
S'P`\x10ygmW@'
p47
tp48
Rp49
ag10
(g14
S'\xd249\x1e\x16{W@'
p50
tp51
Rp52
ag10
(g14
S'\xb2\x9dnn\xb0\x8bW@'
p53
tp54
Rp55
ag10
(g14
S'\xfe\xc5\x0b\x8c(pW@'
p56
tp57
Rp58
ag10
(g14
S'P\xa8\x92\xcaI<W@'
p59
tp60
Rp61
ag10
(g14
S'TJ\xe1\x9dwTW@'
p62
tp63
Rp64
ag10
(g14
S'\x98\xab\xc8\x80\x80\x82W@'
p65
tp66
Rp67
ag10
(g14
S'\xd0\x0fjx\x8dcW@'
p68
tp69
Rp70
ag10
(g14
S'\xb8\xad\xf9\xc9QNW@'
p71
tp72
Rp73
ag10
(g14
S'X\xff\x88\x1c\xa0VW@'
p74
tp75
Rp76
asS'target'
p77
(lp78
g10
(g14
S'\x9c\x94\xf1H?\xbbJ@'
p79
tp80
Rp81
ag10
(g14
S'\xcd\x1c2\x02\x82\x12M@'
p82
tp83
Rp84
ag10
(g14
S'\xe8\xe8\xa2(D\xb1F@'
p85
tp86
Rp87
ag10
(g14
S'\x06\x8f9\xc2\xc7\xabP@'
p88
tp89
Rp90
ag10
(g14
S'\xb4\x8f\xa8"n,P@'
p91
tp92
Rp93
ag10
(g14
S'Q\x8a5\x12\x96QN@'
p94
tp95
Rp96
ag10
(g14
S'e#:\x00R\xeaK@'
p97
tp98
Rp99
ag10
(g14
S'\x02\x10\xbb\xafk\xe3M@'
p100
tp101
Rp102
ag10
(g14
S'Y\xca\xc4\xd8otK@'
p103
tp104
Rp105
ag10
(g14
S'\xb7^\xa1\x04\xf4\xe4P@'
p106
tp107
Rp108
ag10
(g14
S'\x97g\x1dz\xa0\x91N@'
p109
tp110
Rp111
ag10
(g14
S'\xb6\x96\xb9]8\xb4N@'
p112
tp113
Rp114
ag10
(g14
S'\xe0\xeffsY\x9dP@'
p115
tp116
Rp117
ag10
(g14
S'\xd9-\xce\xc0\x1c`R@'
p118
tp119
Rp120
ag10
(g14
S'\xa0\x8eB\x98\xb5\xf6P@'
p121
tp122
Rp123
ag10
(g14
S'\x85c*\xd8\x10GK@'
p124
tp125
Rp126
ag10
(g14
S'\x97\x11\xdb\xe8l\xdbJ@'
p127
tp128
Rp129
ag10
(g14
S'^\xa8\xb3O$\x9bJ@'
p130
tp131
Rp132
ag10
(g14
S'8\xb9C%!\xa0Q@'
p133
tp134
Rp135
ag10
(g14
S'\xdd3y\x89\x8c\x90N@'
p136
tp137
Rp138
asssss.