(dp0
S'../Data/sqlite_29.csv'
p1
(dp2
S'../Data/sqlite_79.csv'
p3
(dp4
F0.1
(dp5
S'abs_res'
p6
(dp7
S'bellwether'
p8
(lp9
cnumpy.core.multiarray
scalar
p10
(cnumpy
dtype
p11
(S'f8'
p12
I0
I1
tp13
Rp14
(I3
S'<'
p15
NNNI-1
I-1
I0
tp16
bS'\x1bZd[5/DA'
p17
tp18
Rp19
ag10
(g14
S'\x0e\xac\x1cZ\xfc.DA'
p20
tp21
Rp22
ag10
(g14
S'\x86]\x01\xd2\x9b.DA'
p23
tp24
Rp25
ag10
(g14
S'\xc0I\x0c24/DA'
p26
tp27
Rp28
ag10
(g14
S'\x03\xd7\xa3`\xba.DA'
p29
tp30
Rp31
ag10
(g14
S'\x82\x07\xf3\xa4\xa1.DA'
p32
tp33
Rp34
ag10
(g14
S'\xcd\xa1E&h/DA'
p35
tp36
Rp37
ag10
(g14
S'3\\\x8fB\x01/DA'
p38
tp39
Rp40
ag10
(g14
S'`d;O\xa1/DA'
p41
tp42
Rp43
ag10
(g14
S'*$M9\xb0.DA'
p44
tp45
Rp46
ag10
(g14
S'*\x85\xeb\x81h.DA'
p47
tp48
Rp49
ag10
(g14
S'\xf2\x98\xe0!t/DA'
p50
tp51
Rp52
ag10
(g14
S"'\xce>\xdc\xe2.DA"
p53
tp54
Rp55
ag10
(g14
S'\xd3Mb\xd0\x08/DA'
p56
tp57
Rp58
ag10
(g14
S'|\x93\x18\xa4\xb1.DA'
p59
tp60
Rp61
ag10
(g14
S'vh\x91\xfds.DA'
p62
tp63
Rp64
ag10
(g14
S'\xc5K7\xb9t.DA'
p65
tp66
Rp67
ag10
(g14
S'\x9faWP\x15/DA'
p68
tp69
Rp70
ag10
(g14
S'y\x86]A\xd7.DA'
p71
tp72
Rp73
ag10
(g14
S'\x7f?5\x1e\xab.DA'
p74
tp75
Rp76
asS'target'
p77
(lp78
g10
(g14
S'O7\x89A`\xe9l@'
p79
tp80
Rp81
ag10
(g14
S'\xb3I\x0c\x02+Mt@'
p82
tp83
Rp84
ag10
(g14
S'\x15\xaeG\xe1z\xf4q@'
p85
tp86
Rp87
ag10
(g14
S'\xeb|?5^\x1ar@'
p88
tp89
Rp90
ag10
(g14
S'\xb3\xc6K7\x89\x06y@'
p91
tp92
Rp93
ag10
(g14
S'jffffHs@'
p94
tp95
Rp96
ag10
(g14
S'0\x87\x16\xd9\xce5{@'
p97
tp98
Rp99
ag10
(g14
S'O9\xb4\xc8vXs@'
p100
tp101
Rp102
ag10
(g14
S'\xb3\xc8v\xbe\x9f\xe0y@'
p103
tp104
Rp105
ag10
(g14
S'h\x12\x83\xc0\xca]m@'
p106
tp107
Rp108
ag10
(g14
S'b;\xdfO\x8d\x84v@'
p109
tp110
Rp111
ag10
(g14
S'\xb0I\x0c\x02+\x81x@'
p112
tp113
Rp114
ag10
(g14
S'\xb0G\xe1z\x14\x92s@'
p115
tp116
Rp117
ag10
(g14
S'\xca"\xdb\xf9~\x8cr@'
p118
tp119
Rp120
ag10
(g14
S'y\xe9&1\x08\xe6r@'
p121
tp122
Rp123
ag10
(g14
S',\xdd$\x06\x81\x1du@'
p124
tp125
Rp126
ag10
(g14
S'\x9dC\x8bl\xe7/x@'
p127
tp128
Rp129
ag10
(g14
S'"\x04V\x0e-\x84y@'
p130
tp131
Rp132
ag10
(g14
S'N\x0e-\xb2\x9dWx@'
p133
tp134
Rp135
ag10
(g14
S'rh\x91\xed|\x89p@'
p136
tp137
Rp138
asssss.