(dp0
S'../Data/sqlite_59.csv'
p1
(dp2
S'../Data/sqlite_90.csv'
p3
(dp4
F0.4
(dp5
S'mmre'
p6
(dp7
S'bellwether'
p8
(lp9
cnumpy.core.multiarray
scalar
p10
(cnumpy
dtype
p11
(S'f8'
p12
I0
I1
tp13
Rp14
(I3
S'<'
p15
NNNI-1
I-1
I0
tp16
bS'?\xc9[<i\x1bT@'
p17
tp18
Rp19
ag10
(g14
S'\xe1\xa6=\x94\xde*T@'
p20
tp21
Rp22
ag10
(g14
S'\x18\xbd\x93\x1f\xc0>T@'
p23
tp24
Rp25
ag10
(g14
S"\xd6=?[\x00'T@"
p26
tp27
Rp28
ag10
(g14
S'\xc2\x04\x07.\x91\x1bT@'
p29
tp30
Rp31
ag10
(g14
S'\xb4\xdaQ\x1d\x046T@'
p32
tp33
Rp34
ag10
(g14
S'S\x8b_\xc4p\x1cT@'
p35
tp36
Rp37
ag10
(g14
S'\\4\xd0_\x81\tT@'
p38
tp39
Rp40
ag10
(g14
S'o9.\xa2\n\x15T@'
p41
tp42
Rp43
ag10
(g14
S'\xfa\xe3qLy2T@'
p44
tp45
Rp46
ag10
(g14
S'\x1b\xdev\xeb\x0c$T@'
p47
tp48
Rp49
ag10
(g14
S'\x18x\x10p\xf1\tT@'
p50
tp51
Rp52
ag10
(g14
S'&W@%O\x11T@'
p53
tp54
Rp55
ag10
(g14
S'[\xc7l\x18\xe6\x19T@'
p56
tp57
Rp58
ag10
(g14
S'\xb4+P\x05=\x04T@'
p59
tp60
Rp61
ag10
(g14
S'ny`\x92\xd8+T@'
p62
tp63
Rp64
ag10
(g14
S'C\x87\xfdE\x86\x0fT@'
p65
tp66
Rp67
ag10
(g14
S'\x90yW*2\x07T@'
p68
tp69
Rp70
ag10
(g14
S"\xa1\xd9\xbb^\xc6'T@"
p71
tp72
Rp73
ag10
(g14
S'\xd9\xac=\x8d\xd7 T@'
p74
tp75
Rp76
asS'target'
p77
(lp78
g10
(g14
S'\xff`d\xe4\xe1\xc5@@'
p79
tp80
Rp81
ag10
(g14
S"QA'\x812\x14@@"
p82
tp83
Rp84
ag10
(g14
S'\xe3\xb2g0j\x9d=@'
p85
tp86
Rp87
ag10
(g14
S'8j\x92\t\xb8C@@'
p88
tp89
Rp90
ag10
(g14
S'\x15\x1a#n\xd5pA@'
p91
tp92
Rp93
ag10
(g14
S'\xf3B\x89\xff-\xc9?@'
p94
tp95
Rp96
ag10
(g14
S'o\x89\xc8J]fB@'
p97
tp98
Rp99
ag10
(g14
S'\xbc\xbb\x91\x99\xac\xcbA@'
p100
tp101
Rp102
ag10
(g14
S"\x87\xc0'\xf3\xe2%B@"
p103
tp104
Rp105
ag10
(g14
S'\xae\xbd-~`\xa9@@'
p106
tp107
Rp108
ag10
(g14
S'+O]l\xf1\x9fA@'
p109
tp110
Rp111
ag10
(g14
S"Kj\x02\xac\xd3'A@"
p112
tp113
Rp114
ag10
(g14
S'\xf2Y\x93[\xdd3B@'
p115
tp116
Rp117
ag10
(g14
S'\xf1\xdd\xc1\xc4\xc2\xd3@@'
p118
tp119
Rp120
ag10
(g14
S'eh\xa7\x13\x00ZC@'
p121
tp122
Rp123
ag10
(g14
S'\xa0\x81\xff\x04H\t@@'
p124
tp125
Rp126
ag10
(g14
S'\x86\xbem\x0f\xf3\xa5B@'
p127
tp128
Rp129
ag10
(g14
S'\x93\x9c\xa1\x9e\xb1\x95C@'
p130
tp131
Rp132
ag10
(g14
S'Dq.\xa0#QA@'
p133
tp134
Rp135
ag10
(g14
S'\xf99^=7\xe4?@'
p136
tp137
Rp138
asssss.