(dp0
S'../Data/sqlite_0.csv'
p1
(dp2
S'../Data/sqlite_84.csv'
p3
(dp4
F0.15
(dp5
S'mmre'
p6
(dp7
S'bellwether'
p8
(lp9
cnumpy.core.multiarray
scalar
p10
(cnumpy
dtype
p11
(S'f8'
p12
I0
I1
tp13
Rp14
(I3
S'<'
p15
NNNI-1
I-1
I0
tp16
bS'\xdced\xcb9R3@'
p17
tp18
Rp19
ag10
(g14
S'\xac|\x11\xe7\r>3@'
p20
tp21
Rp22
ag10
(g14
S'|\xafp\xfbX]3@'
p23
tp24
Rp25
ag10
(g14
S'\x1b\xef\xd1\x9e\x0ef3@'
p26
tp27
Rp28
ag10
(g14
S'\xecu\x14\xf4=\xab3@'
p29
tp30
Rp31
ag10
(g14
S'>\xb1\x1a\xed\x04\xaa3@'
p32
tp33
Rp34
ag10
(g14
S'U\x14\xb4Z \xad3@'
p35
tp36
Rp37
ag10
(g14
S'TQ@\x1eSi3@'
p38
tp39
Rp40
ag10
(g14
S'\xc9\xb3\xd8\x18\xfe\xa23@'
p41
tp42
Rp43
ag10
(g14
S'n\t\x97\x01>?3@'
p44
tp45
Rp46
ag10
(g14
S'\xcf/o\xf00c3@'
p47
tp48
Rp49
ag10
(g14
S'\x0f\xb1\x13?[93@'
p50
tp51
Rp52
ag10
(g14
S'\x11\xa3au\xdc\xee3@'
p53
tp54
Rp55
ag10
(g14
S'\xd5E\x1aW\xed\x953@'
p56
tp57
Rp58
ag10
(g14
S'\x984|\xfdJ{3@'
p59
tp60
Rp61
ag10
(g14
S'\x08\x94\xd2\x84\xd2\xff3@'
p62
tp63
Rp64
ag10
(g14
S'\xb1\xd7\xf9N&s3@'
p65
tp66
Rp67
ag10
(g14
S'\x88,F4\xd3\xf72@'
p68
tp69
Rp70
ag10
(g14
S'!\x0e\xd8;nl3@'
p71
tp72
Rp73
ag10
(g14
S'\x04\x9ddk\xf2\xa23@'
p74
tp75
Rp76
asS'target'
p77
(lp78
g10
(g14
S'^\xc2\xf3\xa1\xb9AQ@'
p79
tp80
Rp81
ag10
(g14
S'\xfd\xc9T\xb5\x05\x15Y@'
p82
tp83
Rp84
ag10
(g14
S'\x1ab#\xedf\xdaL@'
p85
tp86
Rp87
ag10
(g14
S'\xf0\x04\xa4\xf9V\x9aY@'
p88
tp89
Rp90
ag10
(g14
S'1lr\xec\xd4\xa2R@'
p91
tp92
Rp93
ag10
(g14
S'\x1c9bZE\xb9T@'
p94
tp95
Rp96
ag10
(g14
S'd\xf57CV\x95I@'
p97
tp98
Rp99
ag10
(g14
S'62]\x06A\xe5J@'
p100
tp101
Rp102
ag10
(g14
S'/\x9e\x18\x16\xd8\xf9P@'
p103
tp104
Rp105
ag10
(g14
S'\xdc\x9b\xe6\xf8Q>Q@'
p106
tp107
Rp108
ag10
(g14
S'\xbc5X\x07\xbf\xaaO@'
p109
tp110
Rp111
ag10
(g14
S'\xdc\r$\xbe\xf4LV@'
p112
tp113
Rp114
ag10
(g14
S"'^VR\xe4\x88P@"
p115
tp116
Rp117
ag10
(g14
S'i\xe5g{\x17\x11K@'
p118
tp119
Rp120
ag10
(g14
S'\x93Y%X\xaa*S@'
p121
tp122
Rp123
ag10
(g14
S'\xcdX\x9d^[6T@'
p124
tp125
Rp126
ag10
(g14
S'i\xe0\xd3\x93\x0c\xc7H@'
p127
tp128
Rp129
ag10
(g14
S'!]\x1f]\xb6\xddX@'
p130
tp131
Rp132
ag10
(g14
S'\x93\xf5?\x87\xd3wV@'
p133
tp134
Rp135
ag10
(g14
S'@\x90\x01*\xdf\xb2Q@'
p136
tp137
Rp138
asssss.