(dp0
S'../Data/sqlite_44.csv'
p1
(dp2
S'../Data/sqlite_90.csv'
p3
(dp4
F0.3
(dp5
S'mmre'
p6
(dp7
S'bellwether'
p8
(lp9
cnumpy.core.multiarray
scalar
p10
(cnumpy
dtype
p11
(S'f8'
p12
I0
I1
tp13
Rp14
(I3
S'<'
p15
NNNI-1
I-1
I0
tp16
bS'P*\xebF5EX@'
p17
tp18
Rp19
ag10
(g14
S'\xf5\xfa\x9a\xfevEX@'
p20
tp21
Rp22
ag10
(g14
S'\x17nV\x93\xcfCX@'
p23
tp24
Rp25
ag10
(g14
S'<\x96B\xb8vCX@'
p26
tp27
Rp28
ag10
(g14
S'hA\x96\xd5\xa3DX@'
p29
tp30
Rp31
ag10
(g14
S'U\xdbM\xc2&CX@'
p32
tp33
Rp34
ag10
(g14
S'\x9c\x9a\x8f\x1d1EX@'
p35
tp36
Rp37
ag10
(g14
S'w\x99J\xd4Z?X@'
p38
tp39
Rp40
ag10
(g14
S'\xf3\xfa\xe6)\\DX@'
p41
tp42
Rp43
ag10
(g14
S'\x04\x9f\xabQ\xe3BX@'
p44
tp45
Rp46
ag10
(g14
S'y"I\x9b\x9d>X@'
p47
tp48
Rp49
ag10
(g14
S'\xa9\xc3\xb0##?X@'
p50
tp51
Rp52
ag10
(g14
S'\xa7Mr!_EX@'
p53
tp54
Rp55
ag10
(g14
S'\xa2\x86zE@CX@'
p56
tp57
Rp58
ag10
(g14
S'\x86R\xfd\xcd`@X@'
p59
tp60
Rp61
ag10
(g14
S'c?\x7f\x88\xfd?X@'
p62
tp63
Rp64
ag10
(g14
S'\xcaA\x11\x0bE@X@'
p65
tp66
Rp67
ag10
(g14
S'\xd4\xac\x8c\xe9\xbcEX@'
p68
tp69
Rp70
ag10
(g14
S'\xd0l@\x0c\x89BX@'
p71
tp72
Rp73
ag10
(g14
S'\xe1\xb9G}\xb0IX@'
p74
tp75
Rp76
asS'target'
p77
(lp78
g10
(g14
S'\xf3\\J\xd9\xc0\x85A@'
p79
tp80
Rp81
ag10
(g14
S'\x13\x08F\x1f\xcd\x0c?@'
p82
tp83
Rp84
ag10
(g14
S'f\x01\x00\xb16U@@'
p85
tp86
Rp87
ag10
(g14
S'\x0b$\xce\xc6$\xb9@@'
p88
tp89
Rp90
ag10
(g14
S"\xb4'\xd5\xc89\xca@@"
p91
tp92
Rp93
ag10
(g14
S'\x88%#\xa42\xdfA@'
p94
tp95
Rp96
ag10
(g14
S'=\xa9WA\xabW@@'
p97
tp98
Rp99
ag10
(g14
S'\x83H\xc2\xf0t\x10A@'
p100
tp101
Rp102
ag10
(g14
S'\x15^\xff\x04\xd5/@@'
p103
tp104
Rp105
ag10
(g14
S'\x93p\xcd\x82\xb2\x9aA@'
p106
tp107
Rp108
ag10
(g14
S'"\x92\xdf.\x94@C@'
p109
tp110
Rp111
ag10
(g14
S'\xb7\xa5Xd@\xb6B@'
p112
tp113
Rp114
ag10
(g14
S'^P\x04\x17\xdb\x0cB@'
p115
tp116
Rp117
ag10
(g14
S'\xe5\x00Y*B\x99@@'
p118
tp119
Rp120
ag10
(g14
S'<\x15N\xa1&vA@'
p121
tp122
Rp123
ag10
(g14
S'\x02W\xcf\xee\xbeKB@'
p124
tp125
Rp126
ag10
(g14
S'E}x.\xcfuA@'
p127
tp128
Rp129
ag10
(g14
S'"\xf9\xc5\xd7\x08\x0fA@'
p130
tp131
Rp132
ag10
(g14
S'\x97\xad\x9c{\n\x95A@'
p133
tp134
Rp135
ag10
(g14
S'>\xceHA^\xee?@'
p136
tp137
Rp138
asssss.