(dp0
S'../Data/sqlite_56.csv'
p1
(dp2
S'../Data/sqlite_85.csv'
p3
(dp4
F0.05
(dp5
S'abs_res'
p6
(dp7
S'bellwether'
p8
(lp9
cnumpy.core.multiarray
scalar
p10
(cnumpy
dtype
p11
(S'f8'
p12
I0
I1
tp13
Rp14
(I3
S'<'
p15
NNNI-1
I-1
I0
tp16
bS'\x92\x0bI/M\x16ZA'
p17
tp18
Rp19
ag10
(g14
S';\xb4\xc8Vs0ZA'
p20
tp21
Rp22
ag10
(g14
S'\xa9\x8e\t\xf2@\x13ZA'
p23
tp24
Rp25
ag10
(g14
S'f\x91\xed\x9cC%ZA'
p26
tp27
Rp28
ag10
(g14
S'~[\xd6F=(ZA'
p29
tp30
Rp31
ag10
(g14
S'#\x87\x16\xa5\x9c/ZA'
p32
tp33
Rp34
ag10
(g14
S'=\xfb\xf05\xf7<ZA'
p35
tp36
Rp37
ag10
(g14
S'\x84\xebQ\x00`0ZA'
p38
tp39
Rp40
ag10
(g14
S'\x10\xd9\xce\xfb\xed0ZA'
p41
tp42
Rp43
ag10
(g14
S'\xb4\x1e\x85\xa7\x80\x1eZA'
p44
tp45
Rp46
ag10
(g14
S'*\x08\xac\xbc\xe86ZA'
p47
tp48
Rp49
ag10
(g14
S'\xda\xc1<\x99j:ZA'
p50
tp51
Rp52
ag10
(g14
S'\r\x9fa\x97\xe9&ZA'
p53
tp54
Rp55
ag10
(g14
S'\x18\xb0r\x9c\xc5!ZA'
p56
tp57
Rp58
ag10
(g14
S'\x88\xebQ <@ZA'
p59
tp60
Rp61
ag10
(g14
S'\xf3S\xe3\xd9\x13-ZA'
p62
tp63
Rp64
ag10
(g14
S'\xd9\xd0"\xab|#ZA'
p65
tp66
Rp67
ag10
(g14
S';\xd2\x94\x9a\x153ZA'
p68
tp69
Rp70
ag10
(g14
S'n\x05\xc8\xedV&ZA'
p71
tp72
Rp73
ag10
(g14
S'\\,\xf9\xe5\x925ZA'
p74
tp75
Rp76
asS'target'
p77
(lp78
g10
(g14
S'_ff\x86\xe2\x85EA'
p79
tp80
Rp81
ag10
(g14
S'I\n\xd7\xe3\xc5$DA'
p82
tp83
Rp84
ag10
(g14
S'affF\x9e\x84BA'
p85
tp86
Rp87
ag10
(g14
S'433s\x06\x97EA'
p88
tp89
Rp90
ag10
(g14
S"^\x8f\xc2\xb5z'FA"
p91
tp92
Rp93
ag10
(g14
S'\xa0\x99\x99Y=\x0eDA'
p94
tp95
Rp96
ag10
(g14
S'633\xf3\x14\x97EA'
p97
tp98
Rp99
ag10
(g14
S'\xa5p=\x8a\xa8\xe2AA'
p100
tp101
Rp102
ag10
(g14
S'3333\x10\x8cAA'
p103
tp104
Rp105
ag10
(g14
S'~\x14\xaeGzyAA'
p106
tp107
Rp108
ag10
(g14
S'R\xb8\x1e\x05\xd9*BA'
p109
tp110
Rp111
ag10
(g14
S'\xb2\x1e\x85\xcb XCA'
p112
tp113
Rp114
ag10
(g14
S'\xe0z\x14\xceE\xccAA'
p115
tp116
Rp117
ag10
(g14
S'B\xe1z\xb4;HGA'
p118
tp119
Rp120
ag10
(g14
S'%\\\x8fb\xf3YCA'
p121
tp122
Rp123
ag10
(g14
S'\x17\xaeG!<!DA'
p124
tp125
Rp126
ag10
(g14
S'\xfc\xff\xff\xbf8\xd1@A'
p127
tp128
Rp129
ag10
(g14
S'?\n\xd7\xe35\xd0CA'
p130
tp131
Rp132
ag10
(g14
S'q=\n\x17\x84\x13CA'
p133
tp134
Rp135
ag10
(g14
S'\xbd\xf5(\xdc\x90\x8aEA'
p136
tp137
Rp138
asssss.