(dp0
S'../Data/sqlite_49.csv'
p1
(dp2
S'../Data/sqlite_59.csv'
p3
(dp4
F0.05
(dp5
S'mmre'
p6
(dp7
S'bellwether'
p8
(lp9
cnumpy.core.multiarray
scalar
p10
(cnumpy
dtype
p11
(S'f8'
p12
I0
I1
tp13
Rp14
(I3
S'<'
p15
NNNI-1
I-1
I0
tp16
bS'\xaa\xdd\x93\xd4d?D@'
p17
tp18
Rp19
ag10
(g14
S'\xe5s\xc4\xa4\x11?D@'
p20
tp21
Rp22
ag10
(g14
S'EK\xd0G7FD@'
p23
tp24
Rp25
ag10
(g14
S's\xa0\x15;6:D@'
p26
tp27
Rp28
ag10
(g14
S'r\x97G\x81jBD@'
p29
tp30
Rp31
ag10
(g14
S'\x96fnf\x90<D@'
p32
tp33
Rp34
ag10
(g14
S'\xa0?`\xa0\xb9<D@'
p35
tp36
Rp37
ag10
(g14
S'rX2E\xfa@D@'
p38
tp39
Rp40
ag10
(g14
S'>\x0b?\xf6\xa74D@'
p41
tp42
Rp43
ag10
(g14
S'\x86+\x04~_8D@'
p44
tp45
Rp46
ag10
(g14
S'`@\xc3\xf816D@'
p47
tp48
Rp49
ag10
(g14
S'\\\xdd\x01>\xbeCD@'
p50
tp51
Rp52
ag10
(g14
S'3_D\xbf\xb4BD@'
p53
tp54
Rp55
ag10
(g14
S'\xcc\xbc\x19\x07}CD@'
p56
tp57
Rp58
ag10
(g14
S'\xaa3dT\xe9:D@'
p59
tp60
Rp61
ag10
(g14
S'\x96w\xd7gbED@'
p62
tp63
Rp64
ag10
(g14
S'\xbc\x95G\xa1\nDD@'
p65
tp66
Rp67
ag10
(g14
S'\xab{\x1dXX>D@'
p68
tp69
Rp70
ag10
(g14
S'\x11)F\nyDD@'
p71
tp72
Rp73
ag10
(g14
S'\r\xdd\x13a\x15<D@'
p74
tp75
Rp76
asS'target'
p77
(lp78
g10
(g14
S'_\x84\xba\x8d\x0f\xdb&@'
p79
tp80
Rp81
ag10
(g14
S'\xcb\xcb\x82\xbe\xadY*@'
p82
tp83
Rp84
ag10
(g14
S'\x8a`\x11\xb6\xdcK%@'
p85
tp86
Rp87
ag10
(g14
S'\xa6\xfb\xfb\xe6\xa1\x98(@'
p88
tp89
Rp90
ag10
(g14
S'J\xb7\xfc,\x9b&&@'
p91
tp92
Rp93
ag10
(g14
S'\xa86+\xedF\xfc$@'
p94
tp95
Rp96
ag10
(g14
S'\xa9\n\xbczk6#@'
p97
tp98
Rp99
ag10
(g14
S"g\xe8\xb4\xda\x0by'@"
p100
tp101
Rp102
ag10
(g14
S'"\x0e9\xa3\x1dx(@'
p103
tp104
Rp105
ag10
(g14
S'\x12.nP\x84\xee(@'
p106
tp107
Rp108
ag10
(g14
S'TcD\xcf\x82a+@'
p109
tp110
Rp111
ag10
(g14
S'V\x1e\xc4{\xce\xa9$@'
p112
tp113
Rp114
ag10
(g14
S'{\xc2\x16\x9f\xf0\xa6$@'
p115
tp116
Rp117
ag10
(g14
S'\xb1\xcbB\x9c\xb8\xdf$@'
p118
tp119
Rp120
ag10
(g14
S'\x13>\xf5\xe9\\&&@'
p121
tp122
Rp123
ag10
(g14
S'\xb8\xb1\x00%\xc3s$@'
p124
tp125
Rp126
ag10
(g14
S'j\xfd\n\xdaL\x87$@'
p127
tp128
Rp129
ag10
(g14
S'\x8b\x06\xed\xb0\xbc`)@'
p130
tp131
Rp132
ag10
(g14
S'\xe4\xa4\x1f\xfa\xf6\x14$@'
p133
tp134
Rp135
ag10
(g14
S"\xe5\xdfX\xaag-'@"
p136
tp137
Rp138
asssss.