(dp0
S'../Data/sqlite_92.csv'
p1
(dp2
S'../Data/sqlite_91.csv'
p3
(dp4
F0.1
(dp5
S'mmre'
p6
(dp7
S'bellwether'
p8
(lp9
cnumpy.core.multiarray
scalar
p10
(cnumpy
dtype
p11
(S'f8'
p12
I0
I1
tp13
Rp14
(I3
S'<'
p15
NNNI-1
I-1
I0
tp16
bS'\x12Iw\x1d\xfakX@'
p17
tp18
Rp19
ag10
(g14
S'\x7fNZ\xc5\xd7nX@'
p20
tp21
Rp22
ag10
(g14
S'\xb4\xd0\xc8\xdd\xf7|X@'
p23
tp24
Rp25
ag10
(g14
S'\x02\x04\x12\x01\xd0jX@'
p26
tp27
Rp28
ag10
(g14
S'\xa2\x8f\xea\x8d\x02nX@'
p29
tp30
Rp31
ag10
(g14
S'\xd5h"\xeb\xdfkX@'
p32
tp33
Rp34
ag10
(g14
S'#\xac\xe5\x9c\xe2iX@'
p35
tp36
Rp37
ag10
(g14
S'\xfe.e\xbf\x9dkX@'
p38
tp39
Rp40
ag10
(g14
S'\xf2;\xe0\x1e\xb8tX@'
p41
tp42
Rp43
ag10
(g14
S'\xf1\x99\xe3&=mX@'
p44
tp45
Rp46
ag10
(g14
S'D:\x00z7pX@'
p47
tp48
Rp49
ag10
(g14
S'\x9b|\xd6\xfc\xd1pX@'
p50
tp51
Rp52
ag10
(g14
S'0\x07\xa2:DsX@'
p53
tp54
Rp55
ag10
(g14
S'\x94\xf6\x00\xc5MtX@'
p56
tp57
Rp58
ag10
(g14
S'\\a\xea\x93WqX@'
p59
tp60
Rp61
ag10
(g14
S'\x08*2\x01tkX@'
p62
tp63
Rp64
ag10
(g14
S'\xc0\x91 \xb7 vX@'
p65
tp66
Rp67
ag10
(g14
S'2\xf8.s\x8bsX@'
p68
tp69
Rp70
ag10
(g14
S'\x02L\xee\xac\xc3qX@'
p71
tp72
Rp73
ag10
(g14
S'y~\x85\xcd}lX@'
p74
tp75
Rp76
asS'target'
p77
(lp78
g10
(g14
S'\xd4<i\xd5z\x16P@'
p79
tp80
Rp81
ag10
(g14
S'\xe9\r\xc5s}\xe7M@'
p82
tp83
Rp84
ag10
(g14
S'\xee\xf7 E\xeb\x8dL@'
p85
tp86
Rp87
ag10
(g14
S'e\xc2o R\x86P@'
p88
tp89
Rp90
ag10
(g14
S"Pz\x15'\xbb\xaaN@"
p91
tp92
Rp93
ag10
(g14
S'\x8de\xec9+\x83P@'
p94
tp95
Rp96
ag10
(g14
S':"A\xfc\xee\xc5P@'
p97
tp98
Rp99
ag10
(g14
S'\xa0X`1\xb6\x14Q@'
p100
tp101
Rp102
ag10
(g14
S'\x12c\xe57\xb6\xd2M@'
p103
tp104
Rp105
ag10
(g14
S'"2\'\xfd\xd0\xd0P@'
p106
tp107
Rp108
ag10
(g14
S'"\xb0\xd4\xeeDHO@'
p109
tp110
Rp111
ag10
(g14
S'@:@H\xa4YN@'
p112
tp113
Rp114
ag10
(g14
S'.\xb0\xc3\xa0\xbccN@'
p115
tp116
Rp117
ag10
(g14
S'|\xb6\x1d\xe2\x13\xd2M@'
p118
tp119
Rp120
ag10
(g14
S's\xf0kn\xd5JQ@'
p121
tp122
Rp123
ag10
(g14
S'=\x0c\x05\xa0@AP@'
p124
tp125
Rp126
ag10
(g14
S"'\xdfxc\xae\x87N@"
p127
tp128
Rp129
ag10
(g14
S'n\xb1\xd0@>IO@'
p130
tp131
Rp132
ag10
(g14
S'\xd0Wm\xf2\r\xd9O@'
p133
tp134
Rp135
ag10
(g14
S'\x1c"\xe9^\xc9eP@'
p136
tp137
Rp138
asssss.