(dp0
S'../Data/sqlite_26.csv'
p1
(dp2
S'../Data/sqlite_96.csv'
p3
(dp4
F0.3
(dp5
S'mmre'
p6
(dp7
S'bellwether'
p8
(lp9
cnumpy.core.multiarray
scalar
p10
(cnumpy
dtype
p11
(S'f8'
p12
I0
I1
tp13
Rp14
(I3
S'<'
p15
NNNI-1
I-1
I0
tp16
bS'.\x16gN6\x8b2@'
p17
tp18
Rp19
ag10
(g14
S'\xe9V\xf6^5z3@'
p20
tp21
Rp22
ag10
(g14
S'\x17$\x89\xab\xe203@'
p23
tp24
Rp25
ag10
(g14
S';\x8a$L\xc5s2@'
p26
tp27
Rp28
ag10
(g14
S'\xf0\xa3DV7)3@'
p29
tp30
Rp31
ag10
(g14
S'%sn\xb1]\xab2@'
p32
tp33
Rp34
ag10
(g14
S'\x12\xcb\x03J\xd8|3@'
p35
tp36
Rp37
ag10
(g14
S'jb\xaf*C\xe22@'
p38
tp39
Rp40
ag10
(g14
S'\xc2H\x04\xd5)H3@'
p41
tp42
Rp43
ag10
(g14
S'z/^yjX3@'
p44
tp45
Rp46
ag10
(g14
S'\n\xd3*eG\x813@'
p47
tp48
Rp49
ag10
(g14
S'\x1c\x9e58{\xd12@'
p50
tp51
Rp52
ag10
(g14
S'>\xf6dD\x12\xbf3@'
p53
tp54
Rp55
ag10
(g14
S'\x1f\xb0\x10\x91\xe1\xba2@'
p56
tp57
Rp58
ag10
(g14
S'\x1d\xd9L\xbe\x83s3@'
p59
tp60
Rp61
ag10
(g14
S'H\xdcD\x19\x10\x153@'
p62
tp63
Rp64
ag10
(g14
S'+\x08\xca\xc7\x13\xc03@'
p65
tp66
Rp67
ag10
(g14
S'ISY\xcb*\xdd2@'
p68
tp69
Rp70
ag10
(g14
S'\xc8\xff\xa9\xa42%3@'
p71
tp72
Rp73
ag10
(g14
S'>\xcc\x94#\xf4G3@'
p74
tp75
Rp76
asS'target'
p77
(lp78
g10
(g14
S'\xe2+\xea\x96^\xeeS@'
p79
tp80
Rp81
ag10
(g14
S';\xd6\xbb\xf6:\xcdM@'
p82
tp83
Rp84
ag10
(g14
S'\xbe\xd4\xd5{\x8e\x14_@'
p85
tp86
Rp87
ag10
(g14
S'\xa7j"\xfe\r\x8dW@'
p88
tp89
Rp90
ag10
(g14
S'\x9b\xa2\x94\xcc\xf8 ]@'
p91
tp92
Rp93
ag10
(g14
S'I\xd0\xa5\xc2\x8a\xa1X@'
p94
tp95
Rp96
ag10
(g14
S'_\xbd\xb4\x1a\xfd]P@'
p97
tp98
Rp99
ag10
(g14
S'\x1a\xa4T\xf8V2W@'
p100
tp101
Rp102
ag10
(g14
S'\xd0E%\xa79CX@'
p103
tp104
Rp105
ag10
(g14
S'"Y\xef\xc6\x13\xa2U@'
p106
tp107
Rp108
ag10
(g14
S'\xe6+I\xcc^\x05W@'
p109
tp110
Rp111
ag10
(g14
S')n\x91\xe4\xf7\x93Q@'
p112
tp113
Rp114
ag10
(g14
S'LQ\xc2<\xb1AS@'
p115
tp116
Rp117
ag10
(g14
S'\xc5G\xb1\xcf4\xd7U@'
p118
tp119
Rp120
ag10
(g14
S'\xeb%/Vh\xc2O@'
p121
tp122
Rp123
ag10
(g14
S'\x12Z\xbf\x0e\x8d\xbaT@'
p124
tp125
Rp126
ag10
(g14
S'\xe8D\xa1]\xa3#U@'
p127
tp128
Rp129
ag10
(g14
S'&\xd8gA_\x04W@'
p130
tp131
Rp132
ag10
(g14
S'\x82\xec$\xae^\x05_@'
p133
tp134
Rp135
ag10
(g14
S'\xe7I~\xc6\xfa\xb5R@'
p136
tp137
Rp138
asssss.