(dp0
S'../Data/sqlite_79.csv'
p1
(dp2
S'../Data/sqlite_86.csv'
p3
(dp4
F0.2
(dp5
S'mmre'
p6
(dp7
S'bellwether'
p8
(lp9
cnumpy.core.multiarray
scalar
p10
(cnumpy
dtype
p11
(S'f8'
p12
I0
I1
tp13
Rp14
(I3
S'<'
p15
NNNI-1
I-1
I0
tp16
bS'n\xfa\xab\xac\xa1&B@'
p17
tp18
Rp19
ag10
(g14
S'\x92\xf1R\xfaNmB@'
p20
tp21
Rp22
ag10
(g14
S'Ws\xfb\xe8\xff\x84B@'
p23
tp24
Rp25
ag10
(g14
S'\xa0\xf7\xf2\xb7\xe16B@'
p26
tp27
Rp28
ag10
(g14
S"> 3&'uB@"
p29
tp30
Rp31
ag10
(g14
S"\xfd\x03\n\xc0'JB@"
p32
tp33
Rp34
ag10
(g14
S'6\xa1A\x95\x0eDB@'
p35
tp36
Rp37
ag10
(g14
S'.\xb8\xfe4\xb8\x84B@'
p38
tp39
Rp40
ag10
(g14
S"G0\xa1'\x17PB@"
p41
tp42
Rp43
ag10
(g14
S'-T\xe8;\x99FB@'
p44
tp45
Rp46
ag10
(g14
S'&\x0b\xac\xc1\xcbAB@'
p47
tp48
Rp49
ag10
(g14
S'\x06 =\xc66\x0eB@'
p50
tp51
Rp52
ag10
(g14
S'z\x0c\x11\xbd{4B@'
p53
tp54
Rp55
ag10
(g14
S'\xfa\x11W\xab\x7f5B@'
p56
tp57
Rp58
ag10
(g14
S'\x00Y2\x90n\x80B@'
p59
tp60
Rp61
ag10
(g14
S'\xb8PPx\xfdEB@'
p62
tp63
Rp64
ag10
(g14
S'gK\xaf\x02\n\x83B@'
p65
tp66
Rp67
ag10
(g14
S'\xb4\xd3&|f}B@'
p68
tp69
Rp70
ag10
(g14
S'\xee\xedx\x8a\x1b$B@'
p71
tp72
Rp73
ag10
(g14
S'\xdc\x81P\xe6\xc38B@'
p74
tp75
Rp76
asS'target'
p77
(lp78
g10
(g14
S'in\xb1\x0fncH@'
p79
tp80
Rp81
ag10
(g14
S'l\xa8\xaf\xc4\xef\x9dR@'
p82
tp83
Rp84
ag10
(g14
S'\xe8B\xa2\xd9\xe8\x00K@'
p85
tp86
Rp87
ag10
(g14
S'\x9ddd\x0c\xe2 Q@'
p88
tp89
Rp90
ag10
(g14
S'Z\xe6pI\\dE@'
p91
tp92
Rp93
ag10
(g14
S'\xf2\\f\x94\x15\xb5O@'
p94
tp95
Rp96
ag10
(g14
S'\x08\t\xe7\x8a#wQ@'
p97
tp98
Rp99
ag10
(g14
S'0\x8a)g\x96\rK@'
p100
tp101
Rp102
ag10
(g14
S'\x18\xd8l\xde\x07$W@'
p103
tp104
Rp105
ag10
(g14
S'\xc2O-\x02o1R@'
p106
tp107
Rp108
ag10
(g14
S'\xfaZB\xf4\xac\xf6M@'
p109
tp110
Rp111
ag10
(g14
S'\x10\x9eD\x92\xb4\x81V@'
p112
tp113
Rp114
ag10
(g14
S'\xc4\xd5\xb5r\xa9\xa5N@'
p115
tp116
Rp117
ag10
(g14
S'\xee\xaf\xf4Cp\xbbP@'
p118
tp119
Rp120
ag10
(g14
S'eg>\x04\x12\xf2K@'
p121
tp122
Rp123
ag10
(g14
S'f-\xecf\x17jT@'
p124
tp125
Rp126
ag10
(g14
S'\xd25\x83\xc8b\xa0Q@'
p127
tp128
Rp129
ag10
(g14
S'\x16f\xae\xc1\x93\xc6K@'
p130
tp131
Rp132
ag10
(g14
S'L\xc3{\xc6\xfe\xc8Q@'
p133
tp134
Rp135
ag10
(g14
S'\xf1\xf6j\xa1*\xddS@'
p136
tp137
Rp138
asssss.