(dp0
S'../Data/sqlite_62.csv'
p1
(dp2
S'../Data/sqlite_96.csv'
p3
(dp4
F0.1
(dp5
S'mmre'
p6
(dp7
S'bellwether'
p8
(lp9
cnumpy.core.multiarray
scalar
p10
(cnumpy
dtype
p11
(S'f8'
p12
I0
I1
tp13
Rp14
(I3
S'<'
p15
NNNI-1
I-1
I0
tp16
bS'\r3\xe0gp4C@'
p17
tp18
Rp19
ag10
(g14
S' \xaa\x8d7\x1eMC@'
p20
tp21
Rp22
ag10
(g14
S'5\xf6\x0c\t[\x12C@'
p23
tp24
Rp25
ag10
(g14
S'2,\xb4a^-C@'
p26
tp27
Rp28
ag10
(g14
S'+t\xd5\x8e\xf6BC@'
p29
tp30
Rp31
ag10
(g14
S'\xea\x9en\x02\xea5C@'
p32
tp33
Rp34
ag10
(g14
S'\x0f\xe7\xe7z\xfc"C@'
p35
tp36
Rp37
ag10
(g14
S'\xc3\xb8Y\xc7\xba\tC@'
p38
tp39
Rp40
ag10
(g14
S'\x1a?\xab\xb8LfC@'
p41
tp42
Rp43
ag10
(g14
S'\xf3\x8c!\xc5+BC@'
p44
tp45
Rp46
ag10
(g14
S'\x92\xae\x9e/\xdbtC@'
p47
tp48
Rp49
ag10
(g14
S'\x7f@x\xc8\x92SC@'
p50
tp51
Rp52
ag10
(g14
S'D\x8f\xce\\@DC@'
p53
tp54
Rp55
ag10
(g14
S'[)U\xf9..C@'
p56
tp57
Rp58
ag10
(g14
S'\xb6\xee/\x1f\xcdSC@'
p59
tp60
Rp61
ag10
(g14
S'\xee\xea\x07\xf0\x148C@'
p62
tp63
Rp64
ag10
(g14
S'W\x10;C\xedIC@'
p65
tp66
Rp67
ag10
(g14
S'\xc0\xfd\xa4e\x12@C@'
p68
tp69
Rp70
ag10
(g14
S'\x8dc\xe2\x7f*(C@'
p71
tp72
Rp73
ag10
(g14
S"'\xc3B>`^C@"
p74
tp75
Rp76
asS'target'
p77
(lp78
g10
(g14
S'\x9e\x81K|\xcb^\\@'
p79
tp80
Rp81
ag10
(g14
S"\x1f\xbc\x9e'\xccIS@"
p82
tp83
Rp84
ag10
(g14
S'\x82\xc73\xc9[jh@'
p85
tp86
Rp87
ag10
(g14
S'&\x18\x90\xa4\x9b K@'
p88
tp89
Rp90
ag10
(g14
S'\xe44\xf7xC!V@'
p91
tp92
Rp93
ag10
(g14
S'\xc4\x99\xeb\xe0k\x82U@'
p94
tp95
Rp96
ag10
(g14
S'\x10\xc5\xe7\x00z\xcdX@'
p97
tp98
Rp99
ag10
(g14
S'7\x92\xf5V\xba\xb1\\@'
p100
tp101
Rp102
ag10
(g14
S'\x87u\xed\xe8\xd9h@@'
p103
tp104
Rp105
ag10
(g14
S'\x95f\x0f\xbb\xaevN@'
p106
tp107
Rp108
ag10
(g14
S'\xa7\xc4aLb\tC@'
p109
tp110
Rp111
ag10
(g14
S'n\xec\xa1;k\x1eH@'
p112
tp113
Rp114
ag10
(g14
S'\x15i}\x93\xd0rW@'
p115
tp116
Rp117
ag10
(g14
S'\xb7w\xdf\x18c_G@'
p118
tp119
Rp120
ag10
(g14
S'$\x17CV\xeafI@'
p121
tp122
Rp123
ag10
(g14
S'-\xe0\x81C1\xa5R@'
p124
tp125
Rp126
ag10
(g14
S'(\x85\x11Z\xde!X@'
p127
tp128
Rp129
ag10
(g14
S"\x91\x14'\x80\xfekK@"
p130
tp131
Rp132
ag10
(g14
S'@\xaa\x98\xbf?\xf8V@'
p133
tp134
Rp135
ag10
(g14
S'\x86\xea\xda\x03}\xd5C@'
p136
tp137
Rp138
asssss.