(dp0
S'../Data/sqlite_87.csv'
p1
(dp2
S'../Data/sqlite_86.csv'
p3
(dp4
F0.05
(dp5
S'mmre'
p6
(dp7
S'bellwether'
p8
(lp9
cnumpy.core.multiarray
scalar
p10
(cnumpy
dtype
p11
(S'f8'
p12
I0
I1
tp13
Rp14
(I3
S'<'
p15
NNNI-1
I-1
I0
tp16
bS'\x11/Y0few@'
p17
tp18
Rp19
ag10
(g14
S'E\x0e\x15\xe82pw@'
p20
tp21
Rp22
ag10
(g14
S'[\x98\xfet\xddow@'
p23
tp24
Rp25
ag10
(g14
S'<\xae\xa8\xd2\xaeaw@'
p26
tp27
Rp28
ag10
(g14
S'\xb8\xe5\x12a\x12rw@'
p29
tp30
Rp31
ag10
(g14
S'D\x9430\x93\x80w@'
p32
tp33
Rp34
ag10
(g14
S'\xab\xad\x83\xed/}w@'
p35
tp36
Rp37
ag10
(g14
S'\xfc~?|sdw@'
p38
tp39
Rp40
ag10
(g14
S'\x08{\xc0\x06\xedkw@'
p41
tp42
Rp43
ag10
(g14
S'\xda\x93:\xb9/zw@'
p44
tp45
Rp46
ag10
(g14
S'&\xc0X{\xb6pw@'
p47
tp48
Rp49
ag10
(g14
S'\x8aOC0\xa9jw@'
p50
tp51
Rp52
ag10
(g14
S'\x0f\xf4[\x1b\xd1xw@'
p53
tp54
Rp55
ag10
(g14
S'R\xe33\xdb\x87[w@'
p56
tp57
Rp58
ag10
(g14
S'\x1dJ5w\x88iw@'
p59
tp60
Rp61
ag10
(g14
S')\x91\x1e}\xb7lw@'
p62
tp63
Rp64
ag10
(g14
S' \xdaD\x9a}^w@'
p65
tp66
Rp67
ag10
(g14
S'\xe4Q\xfb[\xe2_w@'
p68
tp69
Rp70
ag10
(g14
S'\xc0\xcd\xba\x82Xlw@'
p71
tp72
Rp73
ag10
(g14
S'\x99]\x1a3\x9e\x80w@'
p74
tp75
Rp76
asS'target'
p77
(lp78
g10
(g14
S'\x84\x8f`\x05-\x07B@'
p79
tp80
Rp81
ag10
(g14
S'z\xe4\x92{\xf8KT@'
p82
tp83
Rp84
ag10
(g14
S'|\xd3\xb5^W\rT@'
p85
tp86
Rp87
ag10
(g14
S'X\xbf\x01\xc3J\xc8R@'
p88
tp89
Rp90
ag10
(g14
S'\xe5\xd8\xab\xa7^@G@'
p91
tp92
Rp93
ag10
(g14
S'2\x9eKs\xde\x83Q@'
p94
tp95
Rp96
ag10
(g14
S'\x8c\xb6\x91\x80\\\x01C@'
p97
tp98
Rp99
ag10
(g14
S'\x9e\xd1\x08\x05J\xb8P@'
p100
tp101
Rp102
ag10
(g14
S'\x05\xc9\x94W\x85%>@'
p103
tp104
Rp105
ag10
(g14
S'\xd9\xf0\x16|\xf2\xe8W@'
p106
tp107
Rp108
ag10
(g14
S'x\xbe>O\xd3FT@'
p109
tp110
Rp111
ag10
(g14
S'N\xab[\xbbf\xc4Q@'
p112
tp113
Rp114
ag10
(g14
S'\xb3\x97\xe9vk\xe6S@'
p115
tp116
Rp117
ag10
(g14
S'\xbf\x0b34\xb1\xc7S@'
p118
tp119
Rp120
ag10
(g14
S'1\x8b\xae^\t"J@'
p121
tp122
Rp123
ag10
(g14
S'GL\xb0i\x80yT@'
p124
tp125
Rp126
ag10
(g14
S'"\xf2\xa9\x9cJ\xfcC@'
p127
tp128
Rp129
ag10
(g14
S'@\xab\xe9\x8f\xc6ZY@'
p130
tp131
Rp132
ag10
(g14
S'AQ:@p\x9aS@'
p133
tp134
Rp135
ag10
(g14
S'\x83\xc5\xd7\x08H\xd9T@'
p136
tp137
Rp138
asssss.