(dp0
S'../Data/sqlite_28.csv'
p1
(dp2
S'../Data/sqlite_90.csv'
p3
(dp4
F0.1
(dp5
S'mmre'
p6
(dp7
S'bellwether'
p8
(lp9
cnumpy.core.multiarray
scalar
p10
(cnumpy
dtype
p11
(S'f8'
p12
I0
I1
tp13
Rp14
(I3
S'<'
p15
NNNI-1
I-1
I0
tp16
bS'5r\xceT1kW@'
p17
tp18
Rp19
ag10
(g14
S'P?9\x88\xf2gW@'
p20
tp21
Rp22
ag10
(g14
S'+\n,\xaekjW@'
p23
tp24
Rp25
ag10
(g14
S'\xe0\xee\xac\xe9\xeeaW@'
p26
tp27
Rp28
ag10
(g14
S'\xfcI\x0b\xfc\x92iW@'
p29
tp30
Rp31
ag10
(g14
S'\x04Nd%\x1fcW@'
p32
tp33
Rp34
ag10
(g14
S'\xbeI\xd0CkkW@'
p35
tp36
Rp37
ag10
(g14
S'(ok\xf58cW@'
p38
tp39
Rp40
ag10
(g14
S'\xff\xcbv\xa7XkW@'
p41
tp42
Rp43
ag10
(g14
S'\xe7\x81\x03\xba[dW@'
p44
tp45
Rp46
ag10
(g14
S'\xb1\xa6*D\x7ffW@'
p47
tp48
Rp49
ag10
(g14
S't\x0f\xc9\xadgiW@'
p50
tp51
Rp52
ag10
(g14
S'7\xdb\x04\x82~jW@'
p53
tp54
Rp55
ag10
(g14
S'\x8e\xb1\x1e\xd6LeW@'
p56
tp57
Rp58
ag10
(g14
S'\xd4z\xe1G"bW@'
p59
tp60
Rp61
ag10
(g14
S'\xfcM\xa4{\xb9kW@'
p62
tp63
Rp64
ag10
(g14
S'\x87\xb1 \x96\x84fW@'
p65
tp66
Rp67
ag10
(g14
S'\x88>\x135\x99hW@'
p68
tp69
Rp70
ag10
(g14
S'\x99\xba-V\x0ehW@'
p71
tp72
Rp73
ag10
(g14
S'R\x0c\xf0"\tgW@'
p74
tp75
Rp76
asS'target'
p77
(lp78
g10
(g14
S'^$t,-WA@'
p79
tp80
Rp81
ag10
(g14
S'\x1a0\xd7\xb8\xbe+@@'
p82
tp83
Rp84
ag10
(g14
S'\xc1xMA\x05AB@'
p85
tp86
Rp87
ag10
(g14
S'\r\xa3Y\xf55"A@'
p88
tp89
Rp90
ag10
(g14
S'Q\t\x0c\xd7\xc9\x1c@@'
p91
tp92
Rp93
ag10
(g14
S'D\xef\x0f\x91p_?@'
p94
tp95
Rp96
ag10
(g14
S'\x17\xd1\xe8\xf3\x98S@@'
p97
tp98
Rp99
ag10
(g14
S'\xc5k\xef\x84U\xe7A@'
p100
tp101
Rp102
ag10
(g14
S'\xc9\xc0,\x17\xf9\x01A@'
p103
tp104
Rp105
ag10
(g14
S'\x8c\x00\xfd\xedP\xd4B@'
p106
tp107
Rp108
ag10
(g14
S'\x8e2\xf7w\xa3oA@'
p109
tp110
Rp111
ag10
(g14
S'\xfa\xd8\x90Y\x89\x1fD@'
p112
tp113
Rp114
ag10
(g14
S'^\xef\xe7\x97\xee\x06D@'
p115
tp116
Rp117
ag10
(g14
S'\xd3\xd8\xfd\xd9\x16[A@'
p118
tp119
Rp120
ag10
(g14
S'\xf9\xa5^=\xe1\x15A@'
p121
tp122
Rp123
ag10
(g14
S'\xae\x94\x0f\xd2\xec\xf5@@'
p124
tp125
Rp126
ag10
(g14
S'\xe7\xa0\x11y\xc3\x9aB@'
p127
tp128
Rp129
ag10
(g14
S'M*\x821d{A@'
p130
tp131
Rp132
ag10
(g14
S"\xa7\x89\x89\x85'rA@"
p133
tp134
Rp135
ag10
(g14
S'7A\xa7H\x84\xb9A@'
p136
tp137
Rp138
asssss.