(dp0
S'../Data/sqlite_90.csv'
p1
(dp2
S'../Data/sqlite_88.csv'
p3
(dp4
F0.1
(dp5
S'mmre'
p6
(dp7
S'bellwether'
p8
(lp9
cnumpy.core.multiarray
scalar
p10
(cnumpy
dtype
p11
(S'f8'
p12
I0
I1
tp13
Rp14
(I3
S'<'
p15
NNNI-1
I-1
I0
tp16
bS'\x8e\xd5\x16\xa6\x07rX@'
p17
tp18
Rp19
ag10
(g14
S'\xb7\x8f\x8a\x9dSwX@'
p20
tp21
Rp22
ag10
(g14
S'b\xa8\xbe\x07\x14oX@'
p23
tp24
Rp25
ag10
(g14
S'"\x99\xf1\x96\x18zX@'
p26
tp27
Rp28
ag10
(g14
S'jw\xb1\x1c\xeeqX@'
p29
tp30
Rp31
ag10
(g14
S'E\x1cY^sqX@'
p32
tp33
Rp34
ag10
(g14
S'K\xa3\xa5\x03|vX@'
p35
tp36
Rp37
ag10
(g14
S'_\xe6V\xaa\xfatX@'
p38
tp39
Rp40
ag10
(g14
S'~e\x9e\x96#rX@'
p41
tp42
Rp43
ag10
(g14
S'}q\xa8o\xb4sX@'
p44
tp45
Rp46
ag10
(g14
S'\xc9>vRMrX@'
p47
tp48
Rp49
ag10
(g14
S'!C\x01\x13\xa0pX@'
p50
tp51
Rp52
ag10
(g14
S'B\xd5\xc2\xdf\xa1wX@'
p53
tp54
Rp55
ag10
(g14
S'K\x81\x92\x02\xbftX@'
p56
tp57
Rp58
ag10
(g14
S'\x96\x1c\xe8"\xd7pX@'
p59
tp60
Rp61
ag10
(g14
S'%\xb2z\x14ItX@'
p62
tp63
Rp64
ag10
(g14
S'P(<e\xe8rX@'
p65
tp66
Rp67
ag10
(g14
S'\xd6\x98"\xa7\xe0rX@'
p68
tp69
Rp70
ag10
(g14
S"\x87|\x92\x0c'pX@"
p71
tp72
Rp73
ag10
(g14
S'c3\x12ySsX@'
p74
tp75
Rp76
asS'target'
p77
(lp78
g10
(g14
S'\xc7\xa1\xae\x91\xb1mJ@'
p79
tp80
Rp81
ag10
(g14
S'\xd1R\xb0\xc4\xb83L@'
p82
tp83
Rp84
ag10
(g14
S'\xa7d\xf0\xdfP6L@'
p85
tp86
Rp87
ag10
(g14
S'\xaa\x12\xcd\xd4P\xffJ@'
p88
tp89
Rp90
ag10
(g14
S'\xa0A\xc3\xa8z\xbbJ@'
p91
tp92
Rp93
ag10
(g14
S'p\tb2&gL@'
p94
tp95
Rp96
ag10
(g14
S"\x1a'\x12g\xf8\x1cJ@"
p97
tp98
Rp99
ag10
(g14
S'\x00\xad\xea\xa4#\x13M@'
p100
tp101
Rp102
ag10
(g14
S'\xbeX\x1cBx\x9bL@'
p103
tp104
Rp105
ag10
(g14
S'\xfa\xfd\x1d3(\x85P@'
p106
tp107
Rp108
ag10
(g14
S'\xed.\x18\xf0ZsJ@'
p109
tp110
Rp111
ag10
(g14
S'w\x12\xf2\x0eL\x1fL@'
p112
tp113
Rp114
ag10
(g14
S'A\xbf\x1eM\xa4DM@'
p115
tp116
Rp117
ag10
(g14
S'\xac\xe7\xdbW4\x0eK@'
p118
tp119
Rp120
ag10
(g14
S'\xe3\x00\x08A$\rL@'
p121
tp122
Rp123
ag10
(g14
S'\xc4\x04[iB\xffJ@'
p124
tp125
Rp126
ag10
(g14
S'\x05\xcb\xc3\xc8\xd3@K@'
p127
tp128
Rp129
ag10
(g14
S'R5|\xab\xff\x8cL@'
p130
tp131
Rp132
ag10
(g14
S'\xd6\xd7l\xbd\xd0\x1dK@'
p133
tp134
Rp135
ag10
(g14
S'\x8f\x93\xc5*\xf2\xa6M@'
p136
tp137
Rp138
asssss.