(dp0
S'../Data/sqlite_4.csv'
p1
(dp2
S'../Data/sqlite_20.csv'
p3
(dp4
F0.35
(dp5
S'abs_res'
p6
(dp7
S'bellwether'
p8
(lp9
cnumpy.core.multiarray
scalar
p10
(cnumpy
dtype
p11
(S'f8'
p12
I0
I1
tp13
Rp14
(I3
S'<'
p15
NNNI-1
I-1
I0
tp16
bS'^\xf2\x8b\xe5\xb8.9A'
p17
tp18
Rp19
ag10
(g14
S":\x98'\xeaI09A"
p20
tp21
Rp22
ag10
(g14
S'\x90\x8a\xb3o^19A'
p23
tp24
Rp25
ag10
(g14
S'd\xc9/\xb6$19A'
p26
tp27
Rp28
ag10
(g14
S'\x82?5>l39A'
p29
tp30
Rp31
ag10
(g14
S'#\xcc\x13\xf5\x8029A'
p32
tp33
Rp34
ag10
(g14
S'\xa9\x8c\xde\xb6\x1a19A'
p35
tp36
Rp37
ag10
(g14
S'~[\xd6j\x9b09A'
p38
tp39
Rp40
ag10
(g14
S'qh\x91\r(39A'
p41
tp42
Rp43
ag10
(g14
S'\xcf\x13\xf5/:29A'
p44
tp45
Rp46
ag10
(g14
S'\xdb\xea\x98`\xd229A'
p47
tp48
Rp49
ag10
(g14
S'\x06\x02+g\xf5/9A'
p50
tp51
Rp52
ag10
(g14
S'>\xdfO\xcd\x0339A'
p53
tp54
Rp55
ag10
(g14
S'\xc4\x92_\xecO29A'
p56
tp57
Rp58
ag10
(g14
S'g\xe7\xfbi@19A'
p59
tp60
Rp61
ag10
(g14
S'6$MI\x10/9A'
p62
tp63
Rp64
ag10
(g14
S'\x9f}\xf8\xcc\x0429A'
p65
tp66
Rp67
ag10
(g14
S'oh\x91\rs39A'
p68
tp69
Rp70
ag10
(g14
S'-@\xee\xd5\xb919A'
p71
tp72
Rp73
ag10
(g14
S'`\x01r/\x1019A'
p74
tp75
Rp76
asS'target'
p77
(lp78
g10
(g14
S'\xc8\xa1E\xb6\xf3\xdbl@'
p79
tp80
Rp81
ag10
(g14
S'-\x06\x81\x95C\x1fk@'
p82
tp83
Rp84
ag10
(g14
S'65^\xbaI\x84k@'
p85
tp86
Rp87
ag10
(g14
S'V\xe3\xa5\x9b\xc4$l@'
p88
tp89
Rp90
ag10
(g14
S'\x8cC\x8bl\xe7\xe5l@'
p91
tp92
Rp93
ag10
(g14
S'T\x8d\x97n\x12\x11o@'
p94
tp95
Rp96
ag10
(g14
S'\x86\x97n\x12\x83<m@'
p97
tp98
Rp99
ag10
(g14
S',\x87\x16\xd9\xce\xf7j@'
p100
tp101
Rp102
ag10
(g14
S'!1\x08\xac\x1c*m@'
p103
tp104
Rp105
ag10
(g14
S'\xf2S\xe3\xa5\x9bJk@'
p106
tp107
Rp108
ag10
(g14
S'\x0bX9\xb4\xc8\x8el@'
p109
tp110
Rp111
ag10
(g14
S'.\xb4\xc8v\xbe\x1fl@'
p112
tp113
Rp114
ag10
(g14
S'\xe9z\x14\xaeGEk@'
p115
tp116
Rp117
ag10
(g14
S'\x06V\x0e-\xb2\x99m@'
p118
tp119
Rp120
ag10
(g14
S':\x96\xfcb\xc93n@'
p121
tp122
Rp123
ag10
(g14
S'ph\x91\xed|Il@'
p124
tp125
Rp126
ag10
(g14
S'\x88\x16\xd9\xce\xf7=n@'
p127
tp128
Rp129
ag10
(g14
S'\xeb\xfb\xa9\xf1\xd21n@'
p130
tp131
Rp132
ag10
(g14
S'\x0b+\x87\x16\xd9@k@'
p133
tp134
Rp135
ag10
(g14
S'\xf0(\\\x8f\xc2\x8bk@'
p136
tp137
Rp138
asssss.