(dp0
S'../Data/sqlite_36.csv'
p1
(dp2
S'../Data/sqlite_89.csv'
p3
(dp4
F0.2
(dp5
S'mmre'
p6
(dp7
S'bellwether'
p8
(lp9
cnumpy.core.multiarray
scalar
p10
(cnumpy
dtype
p11
(S'f8'
p12
I0
I1
tp13
Rp14
(I3
S'<'
p15
NNNI-1
I-1
I0
tp16
bS'\xf4\xc0t{\x0fdS@'
p17
tp18
Rp19
ag10
(g14
S'\x1d\xf2V0\xd8bS@'
p20
tp21
Rp22
ag10
(g14
S'5\x95\xa8\xe9ktS@'
p23
tp24
Rp25
ag10
(g14
S'\xb4\xebu\xedtaS@'
p26
tp27
Rp28
ag10
(g14
S'\x06\x16==\xe2PS@'
p29
tp30
Rp31
ag10
(g14
S'\x00\xec\xdaB\xcdiS@'
p32
tp33
Rp34
ag10
(g14
S'\xc7\xc2Y\xe7\xcdeS@'
p35
tp36
Rp37
ag10
(g14
S'v\x87\xcft\xc8_S@'
p38
tp39
Rp40
ag10
(g14
S'w\x92\xa4KNcS@'
p41
tp42
Rp43
ag10
(g14
S'P\xf3d\x86\xd6eS@'
p44
tp45
Rp46
ag10
(g14
S"\xe4G'\x11\xd0eS@"
p47
tp48
Rp49
ag10
(g14
S'_\x94.\x1a\x9bfS@'
p50
tp51
Rp52
ag10
(g14
S'\xd0n\x8e\x94bcS@'
p53
tp54
Rp55
ag10
(g14
S'\xc2\x91\x9b\x84\xbaXS@'
p56
tp57
Rp58
ag10
(g14
S'\xfe\xf0\xa86\x92eS@'
p59
tp60
Rp61
ag10
(g14
S'\xb7\xa1<D\x89\\S@'
p62
tp63
Rp64
ag10
(g14
S'|\x9e1-\xadbS@'
p65
tp66
Rp67
ag10
(g14
S'\xec\x8f}~\xa6dS@'
p68
tp69
Rp70
ag10
(g14
S'e\x9aPc\xfafS@'
p71
tp72
Rp73
ag10
(g14
S'zJ\x068\x92]S@'
p74
tp75
Rp76
asS'target'
p77
(lp78
g10
(g14
S'\x86\x90\x84\x83\xcf\xd7Q@'
p79
tp80
Rp81
ag10
(g14
S'.\xd4\x1b\xd4\x92rR@'
p82
tp83
Rp84
ag10
(g14
S'h\x9b\x87iA\xa5S@'
p85
tp86
Rp87
ag10
(g14
S'\xf7\xc3m\xe0\x07#P@'
p88
tp89
Rp90
ag10
(g14
S'\xa9P\xd5xPLU@'
p91
tp92
Rp93
ag10
(g14
S'To\x11_\xff\xc6V@'
p94
tp95
Rp96
ag10
(g14
S'\\\x08t\xe6b\xdfJ@'
p97
tp98
Rp99
ag10
(g14
S'\x8e\x95K^M\x0bK@'
p100
tp101
Rp102
ag10
(g14
S'w,\xb0?;,Q@'
p103
tp104
Rp105
ag10
(g14
S'\xean\x7f\xc6wTM@'
p106
tp107
Rp108
ag10
(g14
S'\x87bI\xb6\xbc\x9cJ@'
p109
tp110
Rp111
ag10
(g14
S'\xce\x16\xce\x87?xP@'
p112
tp113
Rp114
ag10
(g14
S'0\xc4\xd2|E\x9dQ@'
p115
tp116
Rp117
ag10
(g14
S'b\x9f\xedp\xf4LU@'
p118
tp119
Rp120
ag10
(g14
S'\x97\x10,r\x14\x9fM@'
p121
tp122
Rp123
ag10
(g14
S'J\x98\xfeM\xfd\xebM@'
p124
tp125
Rp126
ag10
(g14
S'F0Q\xd1\xd4\xc9S@'
p127
tp128
Rp129
ag10
(g14
S'5a\xf3\xaa\x08\xd6M@'
p130
tp131
Rp132
ag10
(g14
S'\xfan2\x1ff\x17R@'
p133
tp134
Rp135
ag10
(g14
S' \xa3\xf4\xd1x\xdcQ@'
p136
tp137
Rp138
asssss.