(dp0
S'../Data/sqlite_96.csv'
p1
(dp2
S'../Data/sqlite_85.csv'
p3
(dp4
F0.4
(dp5
S'mmre'
p6
(dp7
S'bellwether'
p8
(lp9
cnumpy.core.multiarray
scalar
p10
(cnumpy
dtype
p11
(S'f8'
p12
I0
I1
tp13
Rp14
(I3
S'<'
p15
NNNI-1
I-1
I0
tp16
bS'\x1f\x84vh\xde\x14X@'
p17
tp18
Rp19
ag10
(g14
S'.\xf0/3d<X@'
p20
tp21
Rp22
ag10
(g14
S'\x034\r\xfc\xdb(X@'
p23
tp24
Rp25
ag10
(g14
S'\xda\xcc\xc9\xc7{1X@'
p26
tp27
Rp28
ag10
(g14
S'\xeb\xf5A}a$X@'
p29
tp30
Rp31
ag10
(g14
S'8\x1b\xed\xbb\xe06X@'
p32
tp33
Rp34
ag10
(g14
S'tZ\xf4qx#X@'
p35
tp36
Rp37
ag10
(g14
S'\xfd\x10\xbe\x11&4X@'
p38
tp39
Rp40
ag10
(g14
S' GP\xecW\nX@'
p41
tp42
Rp43
ag10
(g14
S"\x08l\x0c\xfa\xa9'X@"
p44
tp45
Rp46
ag10
(g14
S'\x18\x7fPN\x08OX@'
p47
tp48
Rp49
ag10
(g14
S'\x94+\xdb\xbe\x7f:X@'
p50
tp51
Rp52
ag10
(g14
S'n\x9b\x1a\\\x90\x16X@'
p53
tp54
Rp55
ag10
(g14
S'\x95nK\xac\x127X@'
p56
tp57
Rp58
ag10
(g14
S'\x84\x92\x8e\xbb\x97@X@'
p59
tp60
Rp61
ag10
(g14
S'P\xc5\xed\xe3jBX@'
p62
tp63
Rp64
ag10
(g14
S'\x00\xdf\xd7J\x0b\x12X@'
p65
tp66
Rp67
ag10
(g14
S'\xad7\x13\xd4\n/X@'
p68
tp69
Rp70
ag10
(g14
S'\xf4\xb8(\x03\xf4\x0fX@'
p71
tp72
Rp73
ag10
(g14
S'6n\xb3\xe0i+X@'
p74
tp75
Rp76
asS'target'
p77
(lp78
g10
(g14
S']Pq \xf8\xd6R@'
p79
tp80
Rp81
ag10
(g14
S',\x8c\x1aVU\xa8R@'
p82
tp83
Rp84
ag10
(g14
S'\xc3E-\xdd\x81\xe9R@'
p85
tp86
Rp87
ag10
(g14
S'\xd2w\xe4\xd8\xf6\xc4R@'
p88
tp89
Rp90
ag10
(g14
S'$I\xa3\x1e\xc7pT@'
p91
tp92
Rp93
ag10
(g14
S'\x04T\xafo2\x9cR@'
p94
tp95
Rp96
ag10
(g14
S'\x8eQ\xe8\xb9\xb3ZQ@'
p97
tp98
Rp99
ag10
(g14
S'\x97.\xf1(\xfa\x13R@'
p100
tp101
Rp102
ag10
(g14
S't\x9a\x17\x1e~pT@'
p103
tp104
Rp105
ag10
(g14
S'\x07\xfd\x88\xa3\x99\x04T@'
p106
tp107
Rp108
ag10
(g14
S'c\n\xa2\x18\xad\rR@'
p109
tp110
Rp111
ag10
(g14
S'j\x13@\xd6]bR@'
p112
tp113
Rp114
ag10
(g14
S'\xf8\xe0W(I\x83R@'
p115
tp116
Rp117
ag10
(g14
S'\xb61\x1e\x8d\xf3mS@'
p118
tp119
Rp120
ag10
(g14
S'\x1a^B\x80\x0b\xa0R@'
p121
tp122
Rp123
ag10
(g14
S'\x8d2\xfc{\xd6\x86P@'
p124
tp125
Rp126
ag10
(g14
S'!Y@GG\x8fR@'
p127
tp128
Rp129
ag10
(g14
S'\x92lg\t\xd8!S@'
p130
tp131
Rp132
ag10
(g14
S'\xd3\x0f\xacp9DS@'
p133
tp134
Rp135
ag10
(g14
S'\x1d%\xd8\xf0I\x82R@'
p136
tp137
Rp138
asssss.