(dp0
S'../Data/sqlite_31.csv'
p1
(dp2
S'../Data/sqlite_62.csv'
p3
(dp4
F0.3
(dp5
S'mmre'
p6
(dp7
S'bellwether'
p8
(lp9
cnumpy.core.multiarray
scalar
p10
(cnumpy
dtype
p11
(S'f8'
p12
I0
I1
tp13
Rp14
(I3
S'<'
p15
NNNI-1
I-1
I0
tp16
bS'gTb\x1f\xcfAN@'
p17
tp18
Rp19
ag10
(g14
S'xa?\x1bVFN@'
p20
tp21
Rp22
ag10
(g14
S'\xd4\xf8r\x816GN@'
p23
tp24
Rp25
ag10
(g14
S'\x96\xf7\xa4<\xf3EN@'
p26
tp27
Rp28
ag10
(g14
S'\x12\xf4\xa6\x8dv:N@'
p29
tp30
Rp31
ag10
(g14
S'm\xf5/"\xa7LN@'
p32
tp33
Rp34
ag10
(g14
S'\x0e\xecbw\xf9;N@'
p35
tp36
Rp37
ag10
(g14
S'\x0b\xc0\xf8\x11{JN@'
p38
tp39
Rp40
ag10
(g14
S'\xf8\n\xd4\x865NN@'
p41
tp42
Rp43
ag10
(g14
S'\x82 \xff\xe7RBN@'
p44
tp45
Rp46
ag10
(g14
S'0\xbbm;\x84GN@'
p47
tp48
Rp49
ag10
(g14
S' \xb1t\xb5\xeeCN@'
p50
tp51
Rp52
ag10
(g14
S'm\xb0\xe4\xff~9N@'
p53
tp54
Rp55
ag10
(g14
S'\x9c\x1fW\x95\xf0<N@'
p56
tp57
Rp58
ag10
(g14
S'K\x89\x8fV\xf3DN@'
p59
tp60
Rp61
ag10
(g14
S'\x9f\xdd,\xb0"RN@'
p62
tp63
Rp64
ag10
(g14
S'R\xcd.q0@N@'
p65
tp66
Rp67
ag10
(g14
S'\x16\x07\xa4\xd4cLN@'
p68
tp69
Rp70
ag10
(g14
S'x{\xe0\xff^UN@'
p71
tp72
Rp73
ag10
(g14
S'\x94\x94\xab5\xe88N@'
p74
tp75
Rp76
asS'target'
p77
(lp78
g10
(g14
S'K\x17$D-\x9d!@'
p79
tp80
Rp81
ag10
(g14
S'\xc9\xef\x994|\xa2"@'
p82
tp83
Rp84
ag10
(g14
S'\x8e\x88\x1dfo\x0e"@'
p85
tp86
Rp87
ag10
(g14
S'\x1c+,Uq\x0e"@'
p88
tp89
Rp90
ag10
(g14
S'RK\x05\xa4}#"@'
p91
tp92
Rp93
ag10
(g14
S'\xa9\x1f3\x8f\xc3\x04!@'
p94
tp95
Rp96
ag10
(g14
S'4\xf9E\xf6\xbe\xdf"@'
p97
tp98
Rp99
ag10
(g14
S'G<@\xbfha @'
p100
tp101
Rp102
ag10
(g14
S'\xf4\x95\xf9\x83\x9e\x06"@'
p103
tp104
Rp105
ag10
(g14
S'"\x91\xe3Pr\xab"@'
p106
tp107
Rp108
ag10
(g14
S'\x11\xb0\xec\x8fN?!@'
p109
tp110
Rp111
ag10
(g14
S'\xb6\x16Fbv\r!@'
p112
tp113
Rp114
ag10
(g14
S'X\xeb]\xe0\xe5\x88!@'
p115
tp116
Rp117
ag10
(g14
S'\xf7w\xd1\xc2Q\x85#@'
p118
tp119
Rp120
ag10
(g14
S'\x81\xae2\xb8\x90#"@'
p121
tp122
Rp123
ag10
(g14
S'?\xed2\xa8\x89\xd1 @'
p124
tp125
Rp126
ag10
(g14
S'\x13L\x8dr\xa6\xc4 @'
p127
tp128
Rp129
ag10
(g14
S'@C(B\xf8\x91"@'
p130
tp131
Rp132
ag10
(g14
S'\xd8\xf3m\xeb\x7f\x92 @'
p133
tp134
Rp135
ag10
(g14
S'\xda\xaa\xb1\xad\x1f\x92!@'
p136
tp137
Rp138
asssss.