(dp0
S'../Data/sqlite_1.csv'
p1
(dp2
S'../Data/sqlite_42.csv'
p3
(dp4
F0.1
(dp5
S'abs_res'
p6
(dp7
S'bellwether'
p8
(lp9
cnumpy.core.multiarray
scalar
p10
(cnumpy
dtype
p11
(S'f8'
p12
I0
I1
tp13
Rp14
(I3
S'<'
p15
NNNI-1
I-1
I0
tp16
bS'\xf5\xd2MBN6AA'
p17
tp18
Rp19
ag10
(g14
S'\xe0O\x8dG\x906AA'
p20
tp21
Rp22
ag10
(g14
S'\xf8\xfd\xd4\xd8\xeb5AA'
p23
tp24
Rp25
ag10
(g14
S'6\x89A0:6AA'
p26
tp27
Rp28
ag10
(g14
S'\xda\xce\xf7\xd3L6AA'
p29
tp30
Rp31
ag10
(g14
S'\xe6\x98\xe0al6AA'
p32
tp33
Rp34
ag10
(g14
S'\xd7\x94\x8a\xa3i6AA'
p35
tp36
Rp37
ag10
(g14
S'\xbd\xf5(<\xa27AA'
p38
tp39
Rp40
ag10
(g14
S'v\x05\xc8\x9dr6AA'
p41
tp42
Rp43
ag10
(g14
S'\xd1"\xdb\xc9v6AA'
p44
tp45
Rp46
ag10
(g14
S'N\xb8\x1e\x15R6AA'
p47
tp48
Rp49
ag10
(g14
S'I\x8blW\xa15AA'
p50
tp51
Rp52
ag10
(g14
S'\x93\xed|\xff36AA'
p53
tp54
Rp55
ag10
(g14
S'\x96n\x12S\x9b6AA'
p56
tp57
Rp58
ag10
(g14
S'\x0e-\xb2\x8di6AA'
p59
tp60
Rp61
ag10
(g14
S'\xd9\xce\xf7s*6AA'
p62
tp63
Rp64
ag10
(g14
S'5z[\xa6\x9f6AA'
p65
tp66
Rp67
ag10
(g14
S'\x14<\x98gX6AA'
p68
tp69
Rp70
ag10
(g14
S'\x19v\x05\xf8\x067AA'
p71
tp72
Rp73
ag10
(g14
S'O\x0e-R\x806AA'
p74
tp75
Rp76
asS'target'
p77
(lp78
g10
(g14
S'V\xe3\xa5\x9b\xc4$l@'
p79
tp80
Rp81
ag10
(g14
S'\xf5~j\xbct#j@'
p82
tp83
Rp84
ag10
(g14
S'\xe9\xfb\xa9\xf1\xd2\xf5k@'
p85
tp86
Rp87
ag10
(g14
S'\xd7x\xe9&1\x94h@'
p88
tp89
Rp90
ag10
(g14
S'y\x93\x18\x04V\xb2g@'
p91
tp92
Rp93
ag10
(g14
S'\xfd\xff\xff\xff\xff\x1bl@'
p94
tp95
Rp96
ag10
(g14
S'I\x8d\x97n\x12\x17o@'
p97
tp98
Rp99
ag10
(g14
S'A5^\xbaI\x88j@'
p100
tp101
Rp102
ag10
(g14
S'd\x8f\xc2\xf5(@l@'
p103
tp104
Rp105
ag10
(g14
S'\x0f\xd5x\xe9&\xa5l@'
p106
tp107
Rp108
ag10
(g14
S'\x99\xc4 \xb0r\xe0i@'
p109
tp110
Rp111
ag10
(g14
S'\x96\x18\x04V\x0e\x9dj@'
p112
tp113
Rp114
ag10
(g14
S'\xc2rh\x91\xed(l@'
p115
tp116
Rp117
ag10
(g14
S'\x1dZd;\xdf\xe3k@'
p118
tp119
Rp120
ag10
(g14
S'R\x8f\xc2\xf5(\xb4m@'
p121
tp122
Rp123
ag10
(g14
S'\x14\x04V\x0e-vi@'
p124
tp125
Rp126
ag10
(g14
S'\xcbK7\x89A\xd4m@'
p127
tp128
Rp129
ag10
(g14
S'\xe3\xf9~j\xbc\xb4i@'
p130
tp131
Rp132
ag10
(g14
S'\xadG\xe1z\x146j@'
p133
tp134
Rp135
ag10
(g14
S'\xd9z\x14\xaeG\xe9f@'
p136
tp137
Rp138
asssss.