(dp0
S'../Data/sqlite_85.csv'
p1
(dp2
S'../Data/sqlite_88.csv'
p3
(dp4
F0.25
(dp5
S'mmre'
p6
(dp7
S'bellwether'
p8
(lp9
cnumpy.core.multiarray
scalar
p10
(cnumpy
dtype
p11
(S'f8'
p12
I0
I1
tp13
Rp14
(I3
S'<'
p15
NNNI-1
I-1
I0
tp16
bS'"qu+SNC@'
p17
tp18
Rp19
ag10
(g14
S'5\x94J\x7f\x9a\xd6B@'
p20
tp21
Rp22
ag10
(g14
S'\xb3\xd3=\xc7\xea\x15C@'
p23
tp24
Rp25
ag10
(g14
S'\xf1"\xfe\xd9\xbf\x17C@'
p26
tp27
Rp28
ag10
(g14
S'\xa2\xa2\x8a\xb4\x0eJC@'
p29
tp30
Rp31
ag10
(g14
S'\x84\x1c8\x11\x8d\xd8B@'
p32
tp33
Rp34
ag10
(g14
S'1\x9eRa\xb7WC@'
p35
tp36
Rp37
ag10
(g14
S'\x0fD(_\xca\x02C@'
p38
tp39
Rp40
ag10
(g14
S'\x86\xcb-c\x89%C@'
p41
tp42
Rp43
ag10
(g14
S'\x07odB\xf6\x0bC@'
p44
tp45
Rp46
ag10
(g14
S'\x8d#\xae;4#C@'
p47
tp48
Rp49
ag10
(g14
S'\xbe\xcf>N\xc2\x16C@'
p50
tp51
Rp52
ag10
(g14
S'"\xaa$`\x9e\xe1B@'
p53
tp54
Rp55
ag10
(g14
S'\x8fC!\xa6\x7f\x0eC@'
p56
tp57
Rp58
ag10
(g14
S'\xde\xdb_\xc4\x92\x10C@'
p59
tp60
Rp61
ag10
(g14
S'*\xfcr\xce\xb9\xc9B@'
p62
tp63
Rp64
ag10
(g14
S'M\x15\x1f\x82m:C@'
p65
tp66
Rp67
ag10
(g14
S'\r\xe47IG\xbfB@'
p68
tp69
Rp70
ag10
(g14
S'$\x88T\xa3UGC@'
p71
tp72
Rp73
ag10
(g14
S'f1h\x15\xb6\xc4B@'
p74
tp75
Rp76
asS'target'
p77
(lp78
g10
(g14
S'\x8b(\xec\xf0\x10BM@'
p79
tp80
Rp81
ag10
(g14
S'i\xba\xda~^RO@'
p82
tp83
Rp84
ag10
(g14
S'\x85[j\xfdB\x1eL@'
p85
tp86
Rp87
ag10
(g14
S'\x9c\xb4T\xd0\xf5\xaaH@'
p88
tp89
Rp90
ag10
(g14
S'\x1c:K\xd0\xb3\x93H@'
p91
tp92
Rp93
ag10
(g14
S'\t0\xd5\x8f\x01,L@'
p94
tp95
Rp96
ag10
(g14
S's\xa5\xbc\x13OcM@'
p97
tp98
Rp99
ag10
(g14
S'\xb8\x8dm\x02oqJ@'
p100
tp101
Rp102
ag10
(g14
S'\xf1\x0c\x8d\x96\x1d\x92J@'
p103
tp104
Rp105
ag10
(g14
S'\xcbc\x0b\xa4;NL@'
p106
tp107
Rp108
ag10
(g14
S'\xf6\x89\xa8<k\x06M@'
p109
tp110
Rp111
ag10
(g14
S'\x18\x1dn7\xf54K@'
p112
tp113
Rp114
ag10
(g14
S'\xb4\x97\x1f\x9eb,J@'
p115
tp116
Rp117
ag10
(g14
S'l\x9d\x918\xcb\\L@'
p118
tp119
Rp120
ag10
(g14
S'\xa4\xb4[bz\xd1M@'
p121
tp122
Rp123
ag10
(g14
S'=\x920h?\xa5I@'
p124
tp125
Rp126
ag10
(g14
S'\xf3\x1b\x89!8\x02M@'
p127
tp128
Rp129
ag10
(g14
S"X j\x95\x04'M@"
p130
tp131
Rp132
ag10
(g14
S'V\xdc\xd6RUlN@'
p133
tp134
Rp135
ag10
(g14
S'&2^\x91P\xeaI@'
p136
tp137
Rp138
asssss.