(dp0
S'../Data/sqlite_16.csv'
p1
(dp2
S'../Data/sqlite_96.csv'
p3
(dp4
F0.1
(dp5
S'mmre'
p6
(dp7
S'bellwether'
p8
(lp9
cnumpy.core.multiarray
scalar
p10
(cnumpy
dtype
p11
(S'f8'
p12
I0
I1
tp13
Rp14
(I3
S'<'
p15
NNNI-1
I-1
I0
tp16
bS'\xdf\xc2\xb4JQMW@'
p17
tp18
Rp19
ag10
(g14
S'\x0e\x95R+\xf9JW@'
p20
tp21
Rp22
ag10
(g14
S'\xab\xce\xa9QuKW@'
p23
tp24
Rp25
ag10
(g14
S'\x7f\x1a\xdc|@LW@'
p26
tp27
Rp28
ag10
(g14
S'\x02\xcf\x01\x01?LW@'
p29
tp30
Rp31
ag10
(g14
S'\x86|\x1aX\xc5NW@'
p32
tp33
Rp34
ag10
(g14
S'\x0ckO\xae\xa0LW@'
p35
tp36
Rp37
ag10
(g14
S'\x82p\xae#\xf5KW@'
p38
tp39
Rp40
ag10
(g14
S'\xd0\x8f\xbe\xb8\xbbKW@'
p41
tp42
Rp43
ag10
(g14
S'\xc08\x1a}]IW@'
p44
tp45
Rp46
ag10
(g14
S'\x8enz\x8c]KW@'
p47
tp48
Rp49
ag10
(g14
S'\xbc RG\xb1KW@'
p50
tp51
Rp52
ag10
(g14
S'\xee2\xb9<)KW@'
p53
tp54
Rp55
ag10
(g14
S'F\xef!\xd0\\LW@'
p56
tp57
Rp58
ag10
(g14
S' \xc9C\x95\xcaJW@'
p59
tp60
Rp61
ag10
(g14
S'\x987\xa9m\x03LW@'
p62
tp63
Rp64
ag10
(g14
S'0\x13\xd6[\xcbKW@'
p65
tp66
Rp67
ag10
(g14
S'\x8c\xf7\xb8\x99\x8fMW@'
p68
tp69
Rp70
ag10
(g14
S'\xa1|9K\xaeJW@'
p71
tp72
Rp73
ag10
(g14
S'\xc7\xa2k\xc5\x15LW@'
p74
tp75
Rp76
asS'target'
p77
(lp78
g10
(g14
S'\x8bu\xfa\xc9\xc8\x01Y@'
p79
tp80
Rp81
ag10
(g14
S'\xa8\x927J\x07\xecZ@'
p82
tp83
Rp84
ag10
(g14
S'\xf2A\xc8\xa5I\x97W@'
p85
tp86
Rp87
ag10
(g14
S'L\xbd\xb6\xb3uIP@'
p88
tp89
Rp90
ag10
(g14
S'B\x0b\xf6n\x9b+G@'
p91
tp92
Rp93
ag10
(g14
S'\x18\x9b\xdb;m;Q@'
p94
tp95
Rp96
ag10
(g14
S'\xca\xc7\x92\xfa@RR@'
p97
tp98
Rp99
ag10
(g14
S'\x9fGA\xa9\x91\x00Z@'
p100
tp101
Rp102
ag10
(g14
S'\xa5K\x1b\xc22\x10a@'
p103
tp104
Rp105
ag10
(g14
S'c\t~$(hS@'
p106
tp107
Rp108
ag10
(g14
S'\xe0Er)\xaeQ^@'
p109
tp110
Rp111
ag10
(g14
S'5\x99J,\tAS@'
p112
tp113
Rp114
ag10
(g14
S'\x0e\xc6\xfd\x94\x96\x17T@'
p115
tp116
Rp117
ag10
(g14
S"'\xe7\xbc\x1a>HO@"
p118
tp119
Rp120
ag10
(g14
S'g\x9a\x89\xa6t4`@'
p121
tp122
Rp123
ag10
(g14
S'\xf3\x87\x8d\xa4\xbb\xaaJ@'
p124
tp125
Rp126
ag10
(g14
S'K\xb4;+H>@@'
p127
tp128
Rp129
ag10
(g14
S'~\xc1\xb2\xb3\x95EN@'
p130
tp131
Rp132
ag10
(g14
S'n\x85j0r\x9cR@'
p133
tp134
Rp135
ag10
(g14
S'\xa2\xff\xfb`b5V@'
p136
tp137
Rp138
asssss.