(dp0
S'../Data/sqlite_30.csv'
p1
(dp2
S'../Data/sqlite_73.csv'
p3
(dp4
F0.15
(dp5
S'mmre'
p6
(dp7
S'bellwether'
p8
(lp9
cnumpy.core.multiarray
scalar
p10
(cnumpy
dtype
p11
(S'f8'
p12
I0
I1
tp13
Rp14
(I3
S'<'
p15
NNNI-1
I-1
I0
tp16
bS'\x99\xf3\xe4t\x95GW@'
p17
tp18
Rp19
ag10
(g14
S'-O\x19X\x11GW@'
p20
tp21
Rp22
ag10
(g14
S'e}kO+GW@'
p23
tp24
Rp25
ag10
(g14
S'\xe4v\xf6\xe3\xc2EW@'
p26
tp27
Rp28
ag10
(g14
S'\x14q\x08\x97\x01IW@'
p29
tp30
Rp31
ag10
(g14
S'>\x81\x91=\x0cFW@'
p32
tp33
Rp34
ag10
(g14
S'\xe8\xd67\x93\xcaGW@'
p35
tp36
Rp37
ag10
(g14
S'\xdf\x03B\x15vGW@'
p38
tp39
Rp40
ag10
(g14
S'\xcf\x95\x86\xb61HW@'
p41
tp42
Rp43
ag10
(g14
S'\xd8\xb4\xd3[\xa8GW@'
p44
tp45
Rp46
ag10
(g14
S'\xabk\x85\xdf\xa8GW@'
p47
tp48
Rp49
ag10
(g14
S'\xb8\xd0\xb3Q(FW@'
p50
tp51
Rp52
ag10
(g14
S'\x8dP\x02\x9f3HW@'
p53
tp54
Rp55
ag10
(g14
S'\x91\x98~BoGW@'
p56
tp57
Rp58
ag10
(g14
S'\x98\x9b\xed\xd2\xdeGW@'
p59
tp60
Rp61
ag10
(g14
S'\x8e<\x8fd\xe6FW@'
p62
tp63
Rp64
ag10
(g14
S'sz\xa6\x88\x80FW@'
p65
tp66
Rp67
ag10
(g14
S'8\x1cs1?FW@'
p68
tp69
Rp70
ag10
(g14
S'\xad\xa7\x9aQ\x17HW@'
p71
tp72
Rp73
ag10
(g14
S'qz01\xc5GW@'
p74
tp75
Rp76
asS'target'
p77
(lp78
g10
(g14
S'h\x19\x8d1 \r,@'
p79
tp80
Rp81
ag10
(g14
S'\xc0m\x9c$2p*@'
p82
tp83
Rp84
ag10
(g14
S'/b|\xc2\xe04-@'
p85
tp86
Rp87
ag10
(g14
S'\x12\xbb\x042\xf0\xca.@'
p88
tp89
Rp90
ag10
(g14
S"#w'\xa3,\x9f*@"
p91
tp92
Rp93
ag10
(g14
S'\xa5\x9bH^Z\xb9+@'
p94
tp95
Rp96
ag10
(g14
S'\xa7\x9c\x16\xde\xf6\xb0*@'
p97
tp98
Rp99
ag10
(g14
S'\xaa\xe5\x88\xd1\xee\x80*@'
p100
tp101
Rp102
ag10
(g14
S'_\x0f\x8f\x95q9+@'
p103
tp104
Rp105
ag10
(g14
S'\xe9g\xb0 9\x92.@'
p106
tp107
Rp108
ag10
(g14
S'W\xc2\x99\x10\x93\xec*@'
p109
tp110
Rp111
ag10
(g14
S'm\x92\x16I\xfeS-@'
p112
tp113
Rp114
ag10
(g14
S'\xaa\x87\xfb&}\xb5)@'
p115
tp116
Rp117
ag10
(g14
S'\x9f$\xee\xe8\xe9D+@'
p118
tp119
Rp120
ag10
(g14
S'\x01\xec\xa6\xef]\xa2-@'
p121
tp122
Rp123
ag10
(g14
S'{O\x83j~\x1f.@'
p124
tp125
Rp126
ag10
(g14
S'imkG\xd6\xa3-@'
p127
tp128
Rp129
ag10
(g14
S'\xd9f\xdb\xdad^-@'
p130
tp131
Rp132
ag10
(g14
S'\x01r3\xc3\xcaM+@'
p133
tp134
Rp135
ag10
(g14
S'mrsD\x82\xce,@'
p136
tp137
Rp138
asssss.