(dp0
S'../Data/sqlite_74.csv'
p1
(dp2
S'../Data/sqlite_79.csv'
p3
(dp4
F0.25
(dp5
S'abs_res'
p6
(dp7
S'bellwether'
p8
(lp9
cnumpy.core.multiarray
scalar
p10
(cnumpy
dtype
p11
(S'f8'
p12
I0
I1
tp13
Rp14
(I3
S'<'
p15
NNNI-1
I-1
I0
tp16
bS'\xed\xc3g\x94\xcdliA'
p17
tp18
Rp19
ag10
(g14
S'\x04\x9d6\x80\xeegiA'
p20
tp21
Rp22
ag10
(g14
S'~?5\x02"eiA'
p23
tp24
Rp25
ag10
(g14
S'\xf4\xd4x\x8d\x0feiA'
p26
tp27
Rp28
ag10
(g14
S'\xcaK7\x85\xcbpiA'
p29
tp30
Rp31
ag10
(g14
S'\x9f\x0bI\xcf\xa1UiA'
p32
tp33
Rp34
ag10
(g14
S'\xf1Q\xb8^\x9f]iA'
p35
tp36
Rp37
ag10
(g14
S'\xe7\xfb\xa9!\xa9hiA'
p38
tp39
Rp40
ag10
(g14
S'\xf1\x98\xe05\xf3miA'
p41
tp42
Rp43
ag10
(g14
S"'\xdb\xf9\xe2\xf9biA"
p44
tp45
Rp46
ag10
(g14
S't\xe7\xfbM\xfefiA'
p47
tp48
Rp49
ag10
(g14
S'\xf1\xc5\x92;\xf8xiA'
p50
tp51
Rp52
ag10
(g14
S'%x0[\xd5fiA'
p53
tp54
Rp55
ag10
(g14
S'\x83\x16\xd9\xde\x95ZiA'
p56
tp57
Rp58
ag10
(g14
S'\x12\x02+\x9f\x90fiA'
p59
tp60
Rp61
ag10
(g14
S'6^\xba1 piA'
p62
tp63
Rp64
ag10
(g14
S'\x90l\xe7\xc3\x16miA'
p65
tp66
Rp67
ag10
(g14
S'\xfb\xc5\x92\x0b\xa2eiA'
p68
tp69
Rp70
ag10
(g14
S'\x10\xac\x1c\xd6\x1ebiA'
p71
tp72
Rp73
ag10
(g14
S'\x91\xb5:V\xb0eiA'
p74
tp75
Rp76
asS'target'
p77
(lp78
g10
(g14
S'{\xc0\xca\xa1E\x14n@'
p79
tp80
Rp81
ag10
(g14
S'Ob\x10X9Xn@'
p82
tp83
Rp84
ag10
(g14
S'%\xdb\xf9~j\xa2t@'
p85
tp86
Rp87
ag10
(g14
S'\xc8v\xbe\x9f\x1aqq@'
p88
tp89
Rp90
ag10
(g14
S'\xbe\xca\xa1E\xb6\xf5p@'
p91
tp92
Rp93
ag10
(g14
S'\xa7\xc6K7\x89\x94p@'
p94
tp95
Rp96
ag10
(g14
S'Z9\xb4\xc8v\xf6m@'
p97
tp98
Rp99
ag10
(g14
S'\xed(\\\x8f\xc2Us@'
p100
tp101
Rp102
ag10
(g14
S'\r\xac\x1cZd\xd3q@'
p103
tp104
Rp105
ag10
(g14
S'\xd3"\xdb\xf9~`t@'
p106
tp107
Rp108
ag10
(g14
S'2\x08\xac\x1cZ\xa4r@'
p109
tp110
Rp111
ag10
(g14
S'\xc6 \xb0rh\x9dt@'
p112
tp113
Rp114
ag10
(g14
S'\xc8K7\x89A\x80m@'
p115
tp116
Rp117
ag10
(g14
S'\xbdK7\x89AAp@'
p118
tp119
Rp120
ag10
(g14
S'/3333oq@'
p121
tp122
Rp123
ag10
(g14
S'y\x93\x18\x04VFs@'
p124
tp125
Rp126
ag10
(g14
S'=5^\xbaIXq@'
p127
tp128
Rp129
ag10
(g14
S'4\xb4\xc8v\xbe!p@'
p130
tp131
Rp132
ag10
(g14
S'\xa5\xc8v\xbe\x9f\xeax@'
p133
tp134
Rp135
ag10
(g14
S'\xe1z\x14\xaeG\x07q@'
p136
tp137
Rp138
asssss.