(dp0
S'../Data/sqlite_23.csv'
p1
(dp2
S'../Data/sqlite_59.csv'
p3
(dp4
F0.3
(dp5
S'mmre'
p6
(dp7
S'bellwether'
p8
(lp9
cnumpy.core.multiarray
scalar
p10
(cnumpy
dtype
p11
(S'f8'
p12
I0
I1
tp13
Rp14
(I3
S'<'
p15
NNNI-1
I-1
I0
tp16
bS'\xd8\xf6\x8az\xd6.W@'
p17
tp18
Rp19
ag10
(g14
S'\xb5\xcf\xad\xaa\xe7,W@'
p20
tp21
Rp22
ag10
(g14
S'<\xc6Mk\x04,W@'
p23
tp24
Rp25
ag10
(g14
S'\xf1G\xce\xb5#-W@'
p26
tp27
Rp28
ag10
(g14
S'\x86\xa9l\x02\x96)W@'
p29
tp30
Rp31
ag10
(g14
S'0oSw\xcc*W@'
p32
tp33
Rp34
ag10
(g14
S'\xcf\xcf\xee\x9a\xb3,W@'
p35
tp36
Rp37
ag10
(g14
S'b\xc2\xa9\xc2<-W@'
p38
tp39
Rp40
ag10
(g14
S'\xacr\x8eI\x1c,W@'
p41
tp42
Rp43
ag10
(g14
S'\xb5\xc0Z\xc7\xda*W@'
p44
tp45
Rp46
ag10
(g14
S'>\xd2\xe9\x1d\x06-W@'
p47
tp48
Rp49
ag10
(g14
S'\xb0\x82X\x9d\xb2,W@'
p50
tp51
Rp52
ag10
(g14
S'\xdcB\xb2?\xaa,W@'
p53
tp54
Rp55
ag10
(g14
S'\xe1h\xa0,\n-W@'
p56
tp57
Rp58
ag10
(g14
S'P\xfc\x98\x9cQ+W@'
p59
tp60
Rp61
ag10
(g14
S'!\x80959,W@'
p62
tp63
Rp64
ag10
(g14
S'\n\xa67\xde|,W@'
p65
tp66
Rp67
ag10
(g14
S'\x89X\xbf\x85Z+W@'
p68
tp69
Rp70
ag10
(g14
S'\xd1\xe8\r\xfc;,W@'
p71
tp72
Rp73
ag10
(g14
S'\x89_\xcc\x1c\xa8+W@'
p74
tp75
Rp76
asS'target'
p77
(lp78
g10
(g14
S'Nw\\\xf9\xf7\xde%@'
p79
tp80
Rp81
ag10
(g14
S"ql\xaf]\x11f'@"
p82
tp83
Rp84
ag10
(g14
S"\x9c\xe0L\xb7\x83\x03'@"
p85
tp86
Rp87
ag10
(g14
S'\xbd\x03eGk\x00%@'
p88
tp89
Rp90
ag10
(g14
S"+k\xe1\x9a\x0fs'@"
p91
tp92
Rp93
ag10
(g14
S's\xa10\x81\xdf\xff(@'
p94
tp95
Rp96
ag10
(g14
S'/\x9a\xb7oi6%@'
p97
tp98
Rp99
ag10
(g14
S'K1\xa5\xadVE%@'
p100
tp101
Rp102
ag10
(g14
S"\x1585\x91tC'@"
p103
tp104
Rp105
ag10
(g14
S'\xb9N%\xbd\xael&@'
p106
tp107
Rp108
ag10
(g14
S'Gv\xd2\xfc\xe2\xc2%@'
p109
tp110
Rp111
ag10
(g14
S'\xf0^\x9d\xb1\xb4E&@'
p112
tp113
Rp114
ag10
(g14
S'\xd1\x8d\x8b+\xbee&@'
p115
tp116
Rp117
ag10
(g14
S'\xa9\x87\x1a%\\|%@'
p118
tp119
Rp120
ag10
(g14
S"^-\x13\x8a\xca\x99'@"
p121
tp122
Rp123
ag10
(g14
S'\xdd\x82\x16S\x9a;$@'
p124
tp125
Rp126
ag10
(g14
S'&\xe3\xc1\xff\xf7\x8f&@'
p127
tp128
Rp129
ag10
(g14
S'\xb7V\xb0a\xfe.&@'
p130
tp131
Rp132
ag10
(g14
S'\xa34\xf1\xa8,\xfd&@'
p133
tp134
Rp135
ag10
(g14
S"\xc0\x8fD\x08z\t'@"
p136
tp137
Rp138
asssss.