(dp0
S'../Data/sqlite_14.csv'
p1
(dp2
S'../Data/sqlite_86.csv'
p3
(dp4
F0.1
(dp5
S'mmre'
p6
(dp7
S'bellwether'
p8
(lp9
cnumpy.core.multiarray
scalar
p10
(cnumpy
dtype
p11
(S'f8'
p12
I0
I1
tp13
Rp14
(I3
S'<'
p15
NNNI-1
I-1
I0
tp16
bS'B\x00\xfe |WZ@'
p17
tp18
Rp19
ag10
(g14
S'A}<\xfc\xeaZZ@'
p20
tp21
Rp22
ag10
(g14
S'\n^\tb\xe5\x0eZ@'
p23
tp24
Rp25
ag10
(g14
S'\xa6#\xa3\xeb\xff\x12Z@'
p26
tp27
Rp28
ag10
(g14
S'.\x0bo\x7f\xed1Z@'
p29
tp30
Rp31
ag10
(g14
S'*\x08\xf5y\xa6]Z@'
p32
tp33
Rp34
ag10
(g14
S"\xdb\xd9;@Y'Z@"
p35
tp36
Rp37
ag10
(g14
S'\xacO%\xb3;\xeeY@'
p38
tp39
Rp40
ag10
(g14
S'\xee\xa4TL\xf4QZ@'
p41
tp42
Rp43
ag10
(g14
S'd\x7f\x00.\xbc\x12Z@'
p44
tp45
Rp46
ag10
(g14
S'y\x9f|\xaf\x1b#Z@'
p47
tp48
Rp49
ag10
(g14
S'\xf7\x01\xc5\xbb"AZ@'
p50
tp51
Rp52
ag10
(g14
S'\xb2\xab\xbb\xcf\x1ewZ@'
p53
tp54
Rp55
ag10
(g14
S'\x0bNzM\xf7;Z@'
p56
tp57
Rp58
ag10
(g14
S'R\x8d\xcd{\x9f\x02Z@'
p59
tp60
Rp61
ag10
(g14
S'\x0b@\xa9b\x8a Z@'
p62
tp63
Rp64
ag10
(g14
S"\xa5\xc6\xbd~'\x1dZ@"
p65
tp66
Rp67
ag10
(g14
S'\xa9\xaa;{ZdZ@'
p68
tp69
Rp70
ag10
(g14
S'+f\xeaqeKZ@'
p71
tp72
Rp73
ag10
(g14
S'\xcc\xc2I\x0f.KZ@'
p74
tp75
Rp76
asS'target'
p77
(lp78
g10
(g14
S'Qs]\x95Y|D@'
p79
tp80
Rp81
ag10
(g14
S'#\xb29\x109\x1cO@'
p82
tp83
Rp84
ag10
(g14
S'EkC\xf1]\xa2B@'
p85
tp86
Rp87
ag10
(g14
S'\xbe\x95_1\tpI@'
p88
tp89
Rp90
ag10
(g14
S"H#\x1a\x02\xbf'E@"
p91
tp92
Rp93
ag10
(g14
S'\xea06e7\xf1J@'
p94
tp95
Rp96
ag10
(g14
S'\x85]1\xb2\tVQ@'
p97
tp98
Rp99
ag10
(g14
S'u\x91\xd0-\t\x19L@'
p100
tp101
Rp102
ag10
(g14
S'(\x1dK\x0c[\x15S@'
p103
tp104
Rp105
ag10
(g14
S'I:\x9e\x92\xf9\x92O@'
p106
tp107
Rp108
ag10
(g14
S'\x003\xd5\xbd\xe5\x89T@'
p109
tp110
Rp111
ag10
(g14
S'\nd\x15\xcb3\xe1M@'
p112
tp113
Rp114
ag10
(g14
S'=`\xeet\x9a\x80M@'
p115
tp116
Rp117
ag10
(g14
S'&\xf3WF\xea\xd7O@'
p118
tp119
Rp120
ag10
(g14
S'\x87\xfa\x99\x92\xf6\xacI@'
p121
tp122
Rp123
ag10
(g14
S'l\x05\xe7\x04q\xbcK@'
p124
tp125
Rp126
ag10
(g14
S'\x1d\x8f\x15\xcf\xbfTO@'
p127
tp128
Rp129
ag10
(g14
S'\x97\x1a\n\x93\x1d\xd3E@'
p130
tp131
Rp132
ag10
(g14
S'\xde\x86\xb8L\\LR@'
p133
tp134
Rp135
ag10
(g14
S'J\xa6-\xe8\xf4\x9bJ@'
p136
tp137
Rp138
asssss.