(dp0
S'../Data/sqlite_74.csv'
p1
(dp2
S'../Data/sqlite_75.csv'
p3
(dp4
F0.25
(dp5
S'abs_res'
p6
(dp7
S'bellwether'
p8
(lp9
cnumpy.core.multiarray
scalar
p10
(cnumpy
dtype
p11
(S'f8'
p12
I0
I1
tp13
Rp14
(I3
S'<'
p15
NNNI-1
I-1
I0
tp16
bS'(1\x08\xb4\xc6diA'
p17
tp18
Rp19
ag10
(g14
S'\xf1\x9a\x0b\xc1\xeb\\iA'
p20
tp21
Rp22
ag10
(g14
S'\x1e\x85\xeb\xb5\x94diA'
p23
tp24
Rp25
ag10
(g14
S'\x07t\xda\xdc\xf3XiA'
p26
tp27
Rp28
ag10
(g14
S'\xc7\xa1E\xc2\n[iA'
p29
tp30
Rp31
ag10
(g14
S'\xf67Bi\xe3ZiA'
p32
tp33
Rp34
ag10
(g14
S'i.$\r.ciA'
p35
tp36
Rp37
ag10
(g14
S'"M\xa9`]XiA'
p38
tp39
Rp40
ag10
(g14
S'\xa3\xb7e\x9d\x12_iA'
p41
tp42
Rp43
ag10
(g14
S"'ku\xd8\x92aiA"
p44
tp45
Rp46
ag10
(g14
S'=\xb4\xc8^QdiA'
p47
tp48
Rp49
ag10
(g14
S'nh\x919\x07miA'
p50
tp51
Rp52
ag10
(g14
S'IS*\x1e\x9eXiA'
p53
tp54
Rp55
ag10
(g14
S'\x9d\x8a\xb3\xdf\x8d_iA'
p56
tp57
Rp58
ag10
(g14
S'\xa5\x8c\xde.\x7f^iA'
p59
tp60
Rp61
ag10
(g14
S'\x8e\x8a\xb3\xe3[biA'
p62
tp63
Rp64
ag10
(g14
S'\x91{\xcd1\x11UiA'
p65
tp66
Rp67
ag10
(g14
S'\x8b\xc2\xf5p<\\iA'
p68
tp69
Rp70
ag10
(g14
S'l0O\x184^iA'
p71
tp72
Rp73
ag10
(g14
S'}[\xd6\xe2uViA'
p74
tp75
Rp76
asS'target'
p77
(lp78
g10
(g14
S'k=\n\xd7\xa3(Y@'
p79
tp80
Rp81
ag10
(g14
S'6\n\xd7\xa3p\xedV@'
p82
tp83
Rp84
ag10
(g14
S']\x8f\xc2\xf5(\xdcW@'
p85
tp86
Rp87
ag10
(g14
S'\xe8Q\xb8\x1e\x85GX@'
p88
tp89
Rp90
ag10
(g14
S'\xeaQ\xb8\x1e\x85\xebW@'
p91
tp92
Rp93
ag10
(g14
S')1\x08\xac\x1c\xeeW@'
p94
tp95
Rp96
ag10
(g14
S'\xd9\xa3p=\n\xa7X@'
p97
tp98
Rp99
ag10
(g14
S'\t\x04V\x0e-\x1aX@'
p100
tp101
Rp102
ag10
(g14
S'\xdd\xf9~j\xbc0W@'
p103
tp104
Rp105
ag10
(g14
S's\xc0\xca\xa1E\x8aX@'
p106
tp107
Rp108
ag10
(g14
S'jffff\x1aW@'
p109
tp110
Rp111
ag10
(g14
S'\x05\x7fj\xbct{W@'
p112
tp113
Rp114
ag10
(g14
S'\xbf\xc8v\xbe\x9fBW@'
p115
tp116
Rp117
ag10
(g14
S'\xa3\x1cZd;\x0bX@'
p118
tp119
Rp120
ag10
(g14
S'\xdd|?5^ZX@'
p121
tp122
Rp123
ag10
(g14
S'\x06\xaa\xf1\xd2M*W@'
p124
tp125
Rp126
ag10
(g14
S'\x08\xd5x\xe9&\xc1W@'
p127
tp128
Rp129
ag10
(g14
S'\xbd\x1e\x85\xebQ\x08V@'
p130
tp131
Rp132
ag10
(g14
S'j\x93\x18\x04VfW@'
p133
tp134
Rp135
ag10
(g14
S';5^\xbaI\xfcW@'
p136
tp137
Rp138
asssss.