(dp0
S'../Data/sqlite_4.csv'
p1
(dp2
S'../Data/sqlite_20.csv'
p3
(dp4
F0.1
(dp5
S'abs_res'
p6
(dp7
S'bellwether'
p8
(lp9
cnumpy.core.multiarray
scalar
p10
(cnumpy
dtype
p11
(S'f8'
p12
I0
I1
tp13
Rp14
(I3
S'<'
p15
NNNI-1
I-1
I0
tp16
bS'\x11\xd9\xce\xc7\xc1qAA'
p17
tp18
Rp19
ag10
(g14
S'\xd6\xa3pM\x89qAA'
p20
tp21
Rp22
ag10
(g14
S'\xed\xfb\xa9\x81\xacqAA'
p23
tp24
Rp25
ag10
(g14
S'N\xb8\x1e\x85\xfcpAA'
p26
tp27
Rp28
ag10
(g14
S'\xd2Mb0|qAA'
p29
tp30
Rp31
ag10
(g14
S"y\x05\xc8M'qAA"
p32
tp33
Rp34
ag10
(g14
S'3^\xba\x19MqAA'
p35
tp36
Rp37
ag10
(g14
S'ph\x91-\xd5pAA'
p38
tp39
Rp40
ag10
(g14
S'\xe3\xdd\xddm!qAA'
p41
tp42
Rp43
ag10
(g14
S's!i:\xa1pAA'
p44
tp45
Rp46
ag10
(g14
S'\t\x90{\xed(qAA'
p47
tp48
Rp49
ag10
(g14
S'\x0c\xe6\x89\x1a*qAA'
p50
tp51
Rp52
ag10
(g14
S'a\xe5\xd0rNqAA'
p53
tp54
Rp55
ag10
(g14
S'\xf8~j\x0c\xf5pAA'
p56
tp57
Rp58
ag10
(g14
S'\x0b\xd7\xa3\x00\x1dqAA'
p59
tp60
Rp61
ag10
(g14
S'\xa3E\xb6\x13EqAA'
p62
tp63
Rp64
ag10
(g14
S'_\xbaI\\YqAA'
p65
tp66
Rp67
ag10
(g14
S'\\d;?`pAA'
p68
tp69
Rp70
ag10
(g14
S'\xe9\xd0"K\x11qAA'
p71
tp72
Rp73
ag10
(g14
S'\x8e\xfa7\x82\xc6qAA'
p74
tp75
Rp76
asS'target'
p77
(lp78
g10
(g14
S'\x88\x18\x04V\x0eir@'
p79
tp80
Rp81
ag10
(g14
S'\xbe\xca\xa1E\xb6et@'
p82
tp83
Rp84
ag10
(g14
S'3\x89A`\xe5\xfer@'
p85
tp86
Rp87
ag10
(g14
S'M7\x89A`\x11s@'
p88
tp89
Rp90
ag10
(g14
S'Mb\x10X9\x06v@'
p91
tp92
Rp93
ag10
(g14
S'\xd2"\xdb\xf9~\x86s@'
p94
tp95
Rp96
ag10
(g14
S'0\\\x8f\xc2\xf5\xeat@'
p97
tp98
Rp99
ag10
(g14
S'\xf2\xa9\xf1\xd2M\x9et@'
p100
tp101
Rp102
ag10
(g14
S'\x89\x16\xd9\xce\xf7Ct@'
p103
tp104
Rp105
ag10
(g14
S'\xeb|?5^\x08s@'
p106
tp107
Rp108
ag10
(g14
S'L\xb8\x1e\x85\xeb\x13t@'
p109
tp110
Rp111
ag10
(g14
S's\x12\x83\xc0\xcais@'
p112
tp113
Rp114
ag10
(g14
S'&\xdb\xf9~j\xd2r@'
p115
tp116
Rp117
ag10
(g14
S'\xa3\x1a/\xdd$*q@'
p118
tp119
Rp120
ag10
(g14
S'\x03\xac\x1cZd\xb5s@'
p121
tp122
Rp123
ag10
(g14
S'\x1b\xd9\xce\xf7S\xbbs@'
p124
tp125
Rp126
ag10
(g14
S'\x06\xd7\xa3p=\xe2r@'
p127
tp128
Rp129
ag10
(g14
S'6`\xe5\xd0"ou@'
p130
tp131
Rp132
ag10
(g14
S'\xdd\xf9~j\xbc\x1er@'
p133
tp134
Rp135
ag10
(g14
S'I\x0c\x02+\x87\xa8q@'
p136
tp137
Rp138
asssss.