(dp0
S'../Data/sqlite_48.csv'
p1
(dp2
S'../Data/sqlite_18.csv'
p3
(dp4
F0.15
(dp5
S'abs_res'
p6
(dp7
S'bellwether'
p8
(lp9
cnumpy.core.multiarray
scalar
p10
(cnumpy
dtype
p11
(S'f8'
p12
I0
I1
tp13
Rp14
(I3
S'<'
p15
NNNI-1
I-1
I0
tp16
bS'\xa7T\x9c\xa5\xbda@A'
p17
tp18
Rp19
ag10
(g14
S'\xa6rh93a@A'
p20
tp21
Rp22
ag10
(g14
S'\xb4+@\x86\ra@A'
p23
tp24
Rp25
ag10
(g14
S'!\xdb\xf9\x06\x81a@A'
p26
tp27
Rp28
ag10
(g14
S'z?5\xf6\x89a@A'
p29
tp30
Rp31
ag10
(g14
S' >\xc3\xae\xe5a@A'
p32
tp33
Rp34
ag10
(g14
S'\xfc\xa9\xf1"\x80a@A'
p35
tp36
Rp37
ag10
(g14
S'\x84\x16\xd9.\xdaa@A'
p38
tp39
Rp40
ag10
(g14
S'$\xdb\xf9&\x1eb@A'
p41
tp42
Rp43
ag10
(g14
S'\xfc\xa9\xf1\xb2;b@A'
p44
tp45
Rp46
ag10
(g14
S'\xd6\x85\xa4q!b@A'
p47
tp48
Rp49
ag10
(g14
S'[\xbaI\x04\xc5a@A'
p50
tp51
Rp52
ag10
(g14
S'\xa8\x1cZ|"a@A'
p53
tp54
Rp55
ag10
(g14
S'\x8fPF/\xf3`@A'
p56
tp57
Rp58
ag10
(g14
S'\x15\x83\xc0\x8a+b@A'
p59
tp60
Rp61
ag10
(g14
S'\xd9\xf9~j\x1db@A'
p62
tp63
Rp64
ag10
(g14
S'N\xf0`vwa@A'
p65
tp66
Rp67
ag10
(g14
S'}?5\xc6\xe5a@A'
p68
tp69
Rp70
ag10
(g14
S'\xb7\x9d\xef7Ka@A'
p71
tp72
Rp73
ag10
(g14
S'/\x87\x16!\xf8`@A'
p74
tp75
Rp76
asS'target'
p77
(lp78
g10
(g14
S'iffff8\xd1@'
p79
tp80
Rp81
ag10
(g14
S'mfff\x06\x8f\xd3@'
p82
tp83
Rp84
ag10
(g14
S'\xfd\xff\xff\xff\x7fN\xd2@'
p85
tp86
Rp87
ag10
(g14
S'\xcf\xcc\xcc\xcc\x0cp\xd2@'
p88
tp89
Rp90
ag10
(g14
S'\x99\x99\x99\x99\xf94\xd2@'
p91
tp92
Rp93
ag10
(g14
S'qfff\x06\xfc\xd2@'
p94
tp95
Rp96
ag10
(g14
S'5333S.\xd4@'
p97
tp98
Rp99
ag10
(g14
S'.333S\xba\xd3@'
p100
tp101
Rp102
ag10
(g14
S'cfff\xe6\xd7\xd2@'
p103
tp104
Rp105
ag10
(g14
S'fffffb\xd2@'
p106
tp107
Rp108
ag10
(g14
S'\x08\x00\x00\x00\x80\xd0\xd1@'
p109
tp110
Rp111
ag10
(g14
S'\x96\x99\x99\x99\xf9"\xd3@'
p112
tp113
Rp114
ag10
(g14
S'\x06\x00\x00\x00@W\xd1@'
p115
tp116
Rp117
ag10
(g14
S'13333\xcf\xd3@'
p118
tp119
Rp120
ag10
(g14
S'=333\x13\xc6\xd2@'
p121
tp122
Rp123
ag10
(g14
S'7333\xf3r\xd3@'
p124
tp125
Rp126
ag10
(g14
S'ifff\x86\xd3\xd1@'
p127
tp128
Rp129
ag10
(g14
S'\xff\xff\xff\xff?o\xd3@'
p130
tp131
Rp132
ag10
(g14
S'pfff\xa6\xc7\xd0@'
p133
tp134
Rp135
ag10
(g14
S'efff\xe6\xa2\xd2@'
p136
tp137
Rp138
asssss.