(dp0
S'../Data/sqlite_66.csv'
p1
(dp2
S'../Data/sqlite_0.csv'
p3
(dp4
F0.05
(dp5
S'abs_res'
p6
(dp7
S'bellwether'
p8
(lp9
cnumpy.core.multiarray
scalar
p10
(cnumpy
dtype
p11
(S'f8'
p12
I0
I1
tp13
Rp14
(I3
S'<'
p15
NNNI-1
I-1
I0
tp16
bS"T\xc7\x04\x8f\x1c'$A"
p17
tp18
Rp19
ag10
(g14
S'd\x91\xed\xbc\x85&$A'
p20
tp21
Rp22
ag10
(g14
S'\x98p=\x8a\xec&$A'
p23
tp24
Rp25
ag10
(g14
S"dW\x80\x1cl'$A"
p26
tp27
Rp28
ag10
(g14
S"\xcfMb\x10\x0e'$A"
p29
tp30
Rp31
ag10
(g14
S'\xc3X\xf2\x8b\x9c&$A'
p32
tp33
Rp34
ag10
(g14
S"E\x8blg\t'$A"
p35
tp36
Rp37
ag10
(g14
S"\x19\x13<\x98['$A"
p38
tp39
Rp40
ag10
(g14
S'8\xb4\xc8\xb6O&$A'
p41
tp42
Rp43
ag10
(g14
S'\x81j\xbc\xf4\xa5&$A'
p44
tp45
Rp46
ag10
(g14
S'\te\xf4\xf6\x9d&$A'
p47
tp48
Rp49
ag10
(g14
S"\xa1\x9b\xc4\xa0%'$A"
p50
tp51
Rp52
ag10
(g14
S"\xd9z\x14.\x1b'$A"
p53
tp54
Rp55
ag10
(g14
S'd;\xdfO\x91&$A'
p56
tp57
Rp58
ag10
(g14
S"|?5\xde\xb8'$A"
p59
tp60
Rp61
ag10
(g14
S"Y9\xb4\x08\x1f'$A"
p62
tp63
Rp64
ag10
(g14
S'\xdb$\x06A\xf9&$A'
p65
tp66
Rp67
ag10
(g14
S"\x13g\x1f>5'$A"
p68
tp69
Rp70
ag10
(g14
S'\xb0V\xc7D\xb4&$A'
p71
tp72
Rp73
ag10
(g14
S'\x19\x06\x81\x15\xeb&$A'
p74
tp75
Rp76
asS'target'
p77
(lp78
g10
(g14
S'&\xdb\xf9~j`g@'
p79
tp80
Rp81
ag10
(g14
S'A\xb4\xc8v\xbe\x9bf@'
p82
tp83
Rp84
ag10
(g14
S'\xcev\xbe\x9f\x1a!q@'
p85
tp86
Rp87
ag10
(g14
S'\xc9Mb\x10X\xf9j@'
p88
tp89
Rp90
ag10
(g14
S'\xd1\xf7S\xe3\xa5\xa7i@'
p91
tp92
Rp93
ag10
(g14
S'P\x8d\x97n\x12\xdfg@'
p94
tp95
Rp96
ag10
(g14
S't\x14\xaeG\xe1bj@'
p97
tp98
Rp99
ag10
(g14
S'\xe5&1\x08\xac\xccm@'
p100
tp101
Rp102
ag10
(g14
S'8\xb4\xc8v\xbe[h@'
p103
tp104
Rp105
ag10
(g14
S'\xe4z\x14\xaeG\x11k@'
p106
tp107
Rp108
ag10
(g14
S'u=\n\xd7\xa3@o@'
p109
tp110
Rp111
ag10
(g14
S'\x83\xc0\xca\xa1E\xbak@'
p112
tp113
Rp114
ag10
(g14
S'\x89l\xe7\xfb\xa9\x85k@'
p115
tp116
Rp117
ag10
(g14
S'e;\xdfO\x8d\xe3k@'
p118
tp119
Rp120
ag10
(g14
S'\xc1\x9f\x1a/\xdd@h@'
p121
tp122
Rp123
ag10
(g14
S'\xb6\xf5(\\\x8f\xcaj@'
p124
tp125
Rp126
ag10
(g14
S't\xe7\xfb\xa9\xf1^f@'
p127
tp128
Rp129
ag10
(g14
S',1\x08\xac\x1c\xd6g@'
p130
tp131
Rp132
ag10
(g14
S'7\x89A`\xe5`j@'
p133
tp134
Rp135
ag10
(g14
S'fffff\xbal@'
p136
tp137
Rp138
asssss.