(dp0
S'../Data/sqlite_52.csv'
p1
(dp2
S'../Data/sqlite_60.csv'
p3
(dp4
F0.25
(dp5
S'mmre'
p6
(dp7
S'bellwether'
p8
(lp9
cnumpy.core.multiarray
scalar
p10
(cnumpy
dtype
p11
(S'f8'
p12
I0
I1
tp13
Rp14
(I3
S'<'
p15
NNNI-1
I-1
I0
tp16
bS'\xd24\xeeIW?X@'
p17
tp18
Rp19
ag10
(g14
S"\xf1\xd7'NB?X@"
p20
tp21
Rp22
ag10
(g14
S'v\xd1\xecs??X@'
p23
tp24
Rp25
ag10
(g14
S'\x02\xdcjd\x05@X@'
p26
tp27
Rp28
ag10
(g14
S's:x\xb6R?X@'
p29
tp30
Rp31
ag10
(g14
S'Jet\x85\x11?X@'
p32
tp33
Rp34
ag10
(g14
S'3DV^^?X@'
p35
tp36
Rp37
ag10
(g14
S'\xfd\xd07\xddN?X@'
p38
tp39
Rp40
ag10
(g14
S'j\x80\xdb\xb3@?X@'
p41
tp42
Rp43
ag10
(g14
S'2<\xd4>#?X@'
p44
tp45
Rp46
ag10
(g14
S'\x00\xb8YPq?X@'
p47
tp48
Rp49
ag10
(g14
S'\x8c\x05T\xf8\xae?X@'
p50
tp51
Rp52
ag10
(g14
S'\xa1"\xcbyy?X@'
p53
tp54
Rp55
ag10
(g14
S'\xae\xa8k\xb5\r?X@'
p56
tp57
Rp58
ag10
(g14
S'\xe9\x91A\x948?X@'
p59
tp60
Rp61
ag10
(g14
S'\x8a\x89g\xb9\xac?X@'
p62
tp63
Rp64
ag10
(g14
S'\xd4\x18s^\x7f?X@'
p65
tp66
Rp67
ag10
(g14
S'\xe2y\xaeAN?X@'
p68
tp69
Rp70
ag10
(g14
S'S\t\xc6xd?X@'
p71
tp72
Rp73
ag10
(g14
S';\xc4\xb9;o?X@'
p74
tp75
Rp76
asS'target'
p77
(lp78
g10
(g14
S'9G\xb2I\xef\x00\x19@'
p79
tp80
Rp81
ag10
(g14
S'\x7f^\xaa0E\xc3\x19@'
p82
tp83
Rp84
ag10
(g14
S'\x8f\xd7\x9e\x9aR\r\x18@'
p85
tp86
Rp87
ag10
(g14
S'={x\xf4r,\x18@'
p88
tp89
Rp90
ag10
(g14
S'A,\x1c\x12^\xf2\x16@'
p91
tp92
Rp93
ag10
(g14
S'\x1c(\t}\x99E\x18@'
p94
tp95
Rp96
ag10
(g14
S'\xff\x8b\xcf7\rY\x18@'
p97
tp98
Rp99
ag10
(g14
S'^\x88)\x8c\xc5\x99\x17@'
p100
tp101
Rp102
ag10
(g14
S'U\x90\xcc\xe8<\xf3\x18@'
p103
tp104
Rp105
ag10
(g14
S'j\x9b\x06\x93\xc6\xf8\x18@'
p106
tp107
Rp108
ag10
(g14
S'\xbe\x1b\xfbSPT\x18@'
p109
tp110
Rp111
ag10
(g14
S'\x8fP3\xc0\xd4O\x18@'
p112
tp113
Rp114
ag10
(g14
S'\xd0\x1fPO|\x0f\x17@'
p115
tp116
Rp117
ag10
(g14
S'W(\xc1\xd7\xb6\xc7\x18@'
p118
tp119
Rp120
ag10
(g14
S'O<%\xf8@\xef\x17@'
p121
tp122
Rp123
ag10
(g14
S'\xbaa\xd4?\xcaH\x18@'
p124
tp125
Rp126
ag10
(g14
S']\x83\xb1\xf2~b\x17@'
p127
tp128
Rp129
ag10
(g14
S'\xe8\xc8\x92\xd881\x18@'
p130
tp131
Rp132
ag10
(g14
S'4b!\x9e~\x0c\x19@'
p133
tp134
Rp135
ag10
(g14
S'im\x1b,\xdc\x87\x18@'
p136
tp137
Rp138
asssss.