(dp0
S'../Data/sqlite_68.csv'
p1
(dp2
S'../Data/sqlite_73.csv'
p3
(dp4
F0.35
(dp5
S'mmre'
p6
(dp7
S'bellwether'
p8
(lp9
cnumpy.core.multiarray
scalar
p10
(cnumpy
dtype
p11
(S'f8'
p12
I0
I1
tp13
Rp14
(I3
S'<'
p15
NNNI-1
I-1
I0
tp16
bS'\xf1W\xd4\x159Zq@'
p17
tp18
Rp19
ag10
(g14
S'f$o\\\xe95q@'
p20
tp21
Rp22
ag10
(g14
S'2K\x97\x05~_q@'
p23
tp24
Rp25
ag10
(g14
S'd\x7ffoeFq@'
p26
tp27
Rp28
ag10
(g14
S'\x8a\xe3\xd7n\x1bhq@'
p29
tp30
Rp31
ag10
(g14
S'/\x00\xba\xa8vBq@'
p32
tp33
Rp34
ag10
(g14
S'\xf8\t\xf5\xd1\xe6@q@'
p35
tp36
Rp37
ag10
(g14
S'b]\xf1\x9b\x8bPq@'
p38
tp39
Rp40
ag10
(g14
S'`Z#Qf[q@'
p41
tp42
Rp43
ag10
(g14
S'=(D\xe5$uq@'
p44
tp45
Rp46
ag10
(g14
S'\xb9\xcd|\x1b\xd7Eq@'
p47
tp48
Rp49
ag10
(g14
S'{?=G\x18;q@'
p50
tp51
Rp52
ag10
(g14
S"\xa9\xb4t'\x03Jq@"
p53
tp54
Rp55
ag10
(g14
S'L\x9e\xa3\xfdw6q@'
p56
tp57
Rp58
ag10
(g14
S'\x15S\x16\xf4\x83?q@'
p59
tp60
Rp61
ag10
(g14
S'\n\xb5\xd4\x99\x13Lq@'
p62
tp63
Rp64
ag10
(g14
S"\x08_\x88'\x85Lq@"
p65
tp66
Rp67
ag10
(g14
S'7\x99\xc0\xc0SDq@'
p68
tp69
Rp70
ag10
(g14
S'\xb0m\x8d\x9d\xccXq@'
p71
tp72
Rp73
ag10
(g14
S'\x00S!?\xc0Hq@'
p74
tp75
Rp76
asS'target'
p77
(lp78
g10
(g14
S'\xa4\xae\xf7ioU-@'
p79
tp80
Rp81
ag10
(g14
S'\xf4\xa2\xede\t>,@'
p82
tp83
Rp84
ag10
(g14
S'\x8d\x136\x83\xc7\xad.@'
p85
tp86
Rp87
ag10
(g14
S'\x94\xd0~\x02M6*@'
p88
tp89
Rp90
ag10
(g14
S':\\(\xdc\x11\xe9,@'
p91
tp92
Rp93
ag10
(g14
S'\x84E\xd7\x04o+,@'
p94
tp95
Rp96
ag10
(g14
S'\xb6A\x1b\xbc\xb6\xde-@'
p97
tp98
Rp99
ag10
(g14
S'\xb7\x1e5\xd14\xc6*@'
p100
tp101
Rp102
ag10
(g14
S'\xb6\xb1\xa4<;\xda-@'
p103
tp104
Rp105
ag10
(g14
S'\xf7\xd0\xd8\xdc\x06\xed-@'
p106
tp107
Rp108
ag10
(g14
S'\xf0=\x12\x9a\xdai+@'
p109
tp110
Rp111
ag10
(g14
S'x2@_f<,@'
p112
tp113
Rp114
ag10
(g14
S' \x9d%;\xb2\xc1*@'
p115
tp116
Rp117
ag10
(g14
S'\xa1GF\x9c\xcc\x9f*@'
p118
tp119
Rp120
ag10
(g14
S'\xaf\xc5\x02\xdf-\xe2+@'
p121
tp122
Rp123
ag10
(g14
S'\x8f`\xaf*\xe0|*@'
p124
tp125
Rp126
ag10
(g14
S'\x88\n\xea\xca\x10\\*@'
p127
tp128
Rp129
ag10
(g14
S'\xc3\xfei\xa6\x11\x92)@'
p130
tp131
Rp132
ag10
(g14
S'\xfa\x82\x0b\xb12$*@'
p133
tp134
Rp135
ag10
(g14
S'\x9b\x93\xf1.an+@'
p136
tp137
Rp138
asssss.