(dp0
S'../Data/sqlite_18.csv'
p1
(dp2
S'../Data/sqlite_37.csv'
p3
(dp4
F0.4
(dp5
S'abs_res'
p6
(dp7
S'bellwether'
p8
(lp9
cnumpy.core.multiarray
scalar
p10
(cnumpy
dtype
p11
(S'f8'
p12
I0
I1
tp13
Rp14
(I3
S'<'
p15
NNNI-1
I-1
I0
tp16
bS'j\xf4\xb6\x8c\x92R7A'
p17
tp18
Rp19
ag10
(g14
S'K\xe1z\x94\x0fS7A'
p20
tp21
Rp22
ag10
(g14
S'\xf6b\xc9O[S7A'
p23
tp24
Rp25
ag10
(g14
S'4\xdfOm!R7A'
p26
tp27
Rp28
ag10
(g14
S'/\x96\xfc"UR7A'
p29
tp30
Rp31
ag10
(g14
S"'\x06\x81u@S7A"
p32
tp33
Rp34
ag10
(g14
S'\xbbV\xc7d\xa3T7A'
p35
tp36
Rp37
ag10
(g14
S'5\x89A`\xdcQ7A'
p38
tp39
Rp40
ag10
(g14
S'\xb4\x00\xb9\x97\xb0R7A'
p41
tp42
Rp43
ag10
(g14
S'j\x1f>\xe3=R7A'
p44
tp45
Rp46
ag10
(g14
S'Q(\xa3WrQ7A'
p47
tp48
Rp49
ag10
(g14
S'z\xcd\x85$kS7A'
p50
tp51
Rp52
ag10
(g14
S'\x1a>\xc3n,S7A'
p53
tp54
Rp55
ag10
(g14
S'\x12\x1e\xcc\xf3\x00Q7A'
p56
tp57
Rp58
ag10
(g14
S'\xe4^s\x01\x91P7A'
p59
tp60
Rp61
ag10
(g14
S'\x17\x04Vn?U7A'
p62
tp63
Rp64
ag10
(g14
S'\n\xbb\x02$\xb4S7A'
p65
tp66
Rp67
ag10
(g14
S'\x1b/\xdd$pS7A'
p68
tp69
Rp70
ag10
(g14
S'\x19g\x1f^HR7A'
p71
tp72
Rp73
ag10
(g14
S'SFo+\x12R7A'
p74
tp75
Rp76
asS'target'
p77
(lp78
g10
(g14
S'~?5^\xba\x91H@'
p79
tp80
Rp81
ag10
(g14
S'\x83j\xbct\x93(G@'
p82
tp83
Rp84
ag10
(g14
S'\xa2E\xb6\xf3\xfdlF@'
p85
tp86
Rp87
ag10
(g14
S'4\x08\xac\x1cZ\x8cH@'
p88
tp89
Rp90
ag10
(g14
S'-\xb2\x9d\xef\xa7\x16H@'
p91
tp92
Rp93
ag10
(g14
S'\xf8(\\\x8f\xc2\x15J@'
p94
tp95
Rp96
ag10
(g14
S'\xdb\xa5\x9b\xc4 `G@'
p97
tp98
Rp99
ag10
(g14
S'e\x10X9\xb4XI@'
p100
tp101
Rp102
ag10
(g14
S'\xb2\x9b\xc4 \xb0\xfaF@'
p103
tp104
Rp105
ag10
(g14
S'\xdcx\xe9&1`G@'
p106
tp107
Rp108
ag10
(g14
S'\x92\xc2\xf5(\\wG@'
p109
tp110
Rp111
ag10
(g14
S'z\xbe\x9f\x1a/\x8dG@'
p112
tp113
Rp114
ag10
(g14
S'\nX9\xb4\xc8\x8eG@'
p115
tp116
Rp117
ag10
(g14
S'\x1eZd;\xdf\xf7G@'
p118
tp119
Rp120
ag10
(g14
S'\xae\xf3\xfd\xd4x\xc1G@'
p121
tp122
Rp123
ag10
(g14
S'\x12\xd9\xce\xf7SCH@'
p124
tp125
Rp126
ag10
(g14
S'\xc1 \xb0rhyG@'
p127
tp128
Rp129
ag10
(g14
S'\xf8\xfd\xd4x\xe9fH@'
p130
tp131
Rp132
ag10
(g14
S'\xfaS\xe3\xa5\x9b\\G@'
p133
tp134
Rp135
ag10
(g14
S'\x1a\xb0rh\x91\xcdG@'
p136
tp137
Rp138
asssss.