(dp0
S'../Data/sqlite_2.csv'
p1
(dp2
S'../Data/sqlite_78.csv'
p3
(dp4
F0.1
(dp5
S'mmre'
p6
(dp7
S'bellwether'
p8
(lp9
cnumpy.core.multiarray
scalar
p10
(cnumpy
dtype
p11
(S'f8'
p12
I0
I1
tp13
Rp14
(I3
S'<'
p15
NNNI-1
I-1
I0
tp16
bS'\x8ahb\xbdfdN@'
p17
tp18
Rp19
ag10
(g14
S'\x10XU\xac\xdc`N@'
p20
tp21
Rp22
ag10
(g14
S'\xbak\x7f\x90\xd0bN@'
p23
tp24
Rp25
ag10
(g14
S'\xd33>\x7fmlN@'
p26
tp27
Rp28
ag10
(g14
S'\x90"r\xf8\x9acN@'
p29
tp30
Rp31
ag10
(g14
S'\xbc\xf9\xf9\x00\x96XN@'
p32
tp33
Rp34
ag10
(g14
S'\xcfK\xde\tcYN@'
p35
tp36
Rp37
ag10
(g14
S'.up/\xea[N@'
p38
tp39
Rp40
ag10
(g14
S'\xe7\xa5\x92j\x8cqN@'
p41
tp42
Rp43
ag10
(g14
S',\xbe\x06\x06\xf6\\N@'
p44
tp45
Rp46
ag10
(g14
S'\xa03|\xb6\xe2bN@'
p47
tp48
Rp49
ag10
(g14
S'z~\xdb\xd7\x1deN@'
p50
tp51
Rp52
ag10
(g14
S'GM|\xf7!uN@'
p53
tp54
Rp55
ag10
(g14
S'\xa6\xfe\x7f\xf2tMN@'
p56
tp57
Rp58
ag10
(g14
S'%_A\x9cGXN@'
p59
tp60
Rp61
ag10
(g14
S'\x88u\x1e\xb4\xf9iN@'
p62
tp63
Rp64
ag10
(g14
S'\xd25\x11\x014gN@'
p65
tp66
Rp67
ag10
(g14
S'.`\x17~\xaeiN@'
p68
tp69
Rp70
ag10
(g14
S'\x88/\xe3Q$^N@'
p71
tp72
Rp73
ag10
(g14
S'\x12}\xe0\x06\xbcgN@'
p74
tp75
Rp76
asS'target'
p77
(lp78
g10
(g14
S'M\xd6n\xe7WD2@'
p79
tp80
Rp81
ag10
(g14
S'L\xaa\xe1\xac"\x1e7@'
p82
tp83
Rp84
ag10
(g14
S'\xe3\xf1P\xaa\x1b\xfb2@'
p85
tp86
Rp87
ag10
(g14
S'\xeem\xb9\x07r\x9c3@'
p88
tp89
Rp90
ag10
(g14
S'p\x04xL;n4@'
p91
tp92
Rp93
ag10
(g14
S'EC\x83G\x12\x973@'
p94
tp95
Rp96
ag10
(g14
S'\x1aR\x19\x00MA5@'
p97
tp98
Rp99
ag10
(g14
S'\\\xaf\xcf\x84\x1d\xc63@'
p100
tp101
Rp102
ag10
(g14
S'+\xc4\x92\xa7^x3@'
p103
tp104
Rp105
ag10
(g14
S'\x002T\x1e\xf5\xc23@'
p106
tp107
Rp108
ag10
(g14
S'ec/\xab\xcb\xc43@'
p109
tp110
Rp111
ag10
(g14
S'\xa6\x8f\xc1\x81\xab\x1e2@'
p112
tp113
Rp114
ag10
(g14
S'"\xd0\xfcI\x8d\xed1@'
p115
tp116
Rp117
ag10
(g14
S'\x8bp\xbc\xf5\xdf\xdc6@'
p118
tp119
Rp120
ag10
(g14
S'y8\xbc\x91\xfa\x003@'
p121
tp122
Rp123
ag10
(g14
S'n\x82{\xb8w\xeb2@'
p124
tp125
Rp126
ag10
(g14
S'\xb7\x91\xb3&0\x024@'
p127
tp128
Rp129
ag10
(g14
S"\xb6\x92I\x84R'3@"
p130
tp131
Rp132
ag10
(g14
S'+\xda\x9a\xc0\xca\xd84@'
p133
tp134
Rp135
ag10
(g14
S'\x15\xc9\x8b{\x89S5@'
p136
tp137
Rp138
asssss.