(dp0
S'../Data/sqlite_57.csv'
p1
(dp2
S'../Data/sqlite_14.csv'
p3
(dp4
F0.1
(dp5
S'abs_res'
p6
(dp7
S'bellwether'
p8
(lp9
cnumpy.core.multiarray
scalar
p10
(cnumpy
dtype
p11
(S'f8'
p12
I0
I1
tp13
Rp14
(I3
S'<'
p15
NNNI-1
I-1
I0
tp16
bS'\xef\xfb\xa9\xd9\x964jA'
p17
tp18
Rp19
ag10
(g14
S'j\x91\xedh\x870jA'
p20
tp21
Rp22
ag10
(g14
S'f;\xdf\x1f]/jA'
p23
tp24
Rp25
ag10
(g14
S'\x92\xc2\xf5\x08 2jA'
p26
tp27
Rp28
ag10
(g14
S"7^\xbay='jA"
p29
tp30
Rp31
ag10
(g14
S'\xb9\x9f\x1a\x1b\xfc,jA'
p32
tp33
Rp34
ag10
(g14
S'L\x8bl?\x053jA'
p35
tp36
Rp37
ag10
(g14
S'\x04T\xe3}\xea4jA'
p38
tp39
Rp40
ag10
(g14
S'l;\xdf\x8b\x130jA'
p41
tp42
Rp43
ag10
(g14
S'[\xb8\x1e\r74jA'
p44
tp45
Rp46
ag10
(g14
S"\xcd\xa1E\xaa',jA"
p47
tp48
Rp49
ag10
(g14
S'\x92l\xe7\xe3\xa0/jA'
p50
tp51
Rp52
ag10
(g14
S'\xb4\x1e\x85_=3jA'
p53
tp54
Rp55
ag10
(g14
S'\x94n\x12K\xe4+jA'
p56
tp57
Rp58
ag10
(g14
S'\xe2\xa5\x9b\xe8S.jA'
p59
tp60
Rp61
ag10
(g14
S'\x92\xed|g\xac.jA'
p62
tp63
Rp64
ag10
(g14
S'\xe3\xa3p!F+jA'
p65
tp66
Rp67
ag10
(g14
S'\xf1S\xe3\x9d\xd91jA'
p68
tp69
Rp70
ag10
(g14
S'\xd6K7\xd1w,jA'
p71
tp72
Rp73
ag10
(g14
S'-\x87\x16II:jA'
p74
tp75
Rp76
asS'target'
p77
(lp78
g10
(g14
S'3\xdd$\x06\x81\xb5c@'
p79
tp80
Rp81
ag10
(g14
S'\x17X9\xb4\xc8Bg@'
p82
tp83
Rp84
ag10
(g14
S':\xb4\xc8v\xbece@'
p85
tp86
Rp87
ag10
(g14
S'A`\xe5\xd0"#h@'
p88
tp89
Rp90
ag10
(g14
S'a\x10X9\xb4\x94g@'
p91
tp92
Rp93
ag10
(g14
S'\xfe\xa9\xf1\xd2M\xc2g@'
p94
tp95
Rp96
ag10
(g14
S'D\x8bl\xe7\xfb\x85g@'
p97
tp98
Rp99
ag10
(g14
S'$\xb0rh\x91\xdbh@'
p100
tp101
Rp102
ag10
(g14
S'\xebO\x8d\x97n6g@'
p103
tp104
Rp105
ag10
(g14
S'\xba\x9d\xef\xa7\xc6\x0fi@'
p106
tp107
Rp108
ag10
(g14
S'\xa0\xc4 \xb0r\x90d@'
p109
tp110
Rp111
ag10
(g14
S'\x98\x18\x04V\x0e]e@'
p112
tp113
Rp114
ag10
(g14
S' \xb0rh\x91uf@'
p115
tp116
Rp117
ag10
(g14
S'dffff\x9ae@'
p118
tp119
Rp120
ag10
(g14
S'f;\xdfO\x8d\x1bh@'
p121
tp122
Rp123
ag10
(g14
S'\x88\x95C\x8bl\xafi@'
p124
tp125
Rp126
ag10
(g14
S'\xc7\xa1E\xb6\xf3\x1df@'
p127
tp128
Rp129
ag10
(g14
S'\x12X9\xb4\xc8vd@'
p130
tp131
Rp132
ag10
(g14
S'\xbbI\x0c\x02+\xf7c@'
p133
tp134
Rp135
ag10
(g14
S'Z\x10X9\xb4\xfcg@'
p136
tp137
Rp138
asssss.