(dp0
S'../Data/sqlite_67.csv'
p1
(dp2
S'../Data/sqlite_42.csv'
p3
(dp4
F0.1
(dp5
S'abs_res'
p6
(dp7
S'bellwether'
p8
(lp9
cnumpy.core.multiarray
scalar
p10
(cnumpy
dtype
p11
(S'f8'
p12
I0
I1
tp13
Rp14
(I3
S'<'
p15
NNNI-1
I-1
I0
tp16
bS'8B\x19}`L#A'
p17
tp18
Rp19
ag10
(g14
S'\x1a\xbd-\xeb:L#A'
p20
tp21
Rp22
ag10
(g14
S'\xac\x1cZ$*L#A'
p23
tp24
Rp25
ag10
(g14
S'[\xe3\xa5\x1b\xfbL#A'
p26
tp27
Rp28
ag10
(g14
S'V\x0e-\xb2\xe4L#A'
p29
tp30
Rp31
ag10
(g14
S'\xec\x8b%\xbfzL#A'
p32
tp33
Rp34
ag10
(g14
S'\xf6~j< M#A'
p35
tp36
Rp37
ag10
(g14
S'\xd3x\xe9\xe6\xd5K#A'
p38
tp39
Rp40
ag10
(g14
S'\x93\xed|\xbfwL#A'
p41
tp42
Rp43
ag10
(g14
S'{?5\x9e\x05M#A'
p44
tp45
Rp46
ag10
(g14
S'Mb\x10\x18\xd2K#A'
p47
tp48
Rp49
ag10
(g14
S'\nX9t\xdbL#A'
p50
tp51
Rp52
ag10
(g14
S'kJ\xc5\x19\xcbL#A'
p53
tp54
Rp55
ag10
(g14
S'a;\xdfO\x12L#A'
p56
tp57
Rp58
ag10
(g14
S'T\x8d\x97.pL#A'
p59
tp60
Rp61
ag10
(g14
S'd\x91\xed\xfc\xa2L#A'
p62
tp63
Rp64
ag10
(g14
S'Sd;\xdf\xd7L#A'
p65
tp66
Rp67
ag10
(g14
S'\n\x90{\xcdBM#A'
p68
tp69
Rp70
ag10
(g14
S'U9\xb4H\xceL#A'
p71
tp72
Rp73
ag10
(g14
S'\x9b\xa8\x7f\xa3\x04L#A'
p74
tp75
Rp76
asS'target'
p77
(lp78
g10
(g14
S'33333\xc3e@'
p79
tp80
Rp81
ag10
(g14
S'd;\xdfO\x8d\x83j@'
p82
tp83
Rp84
ag10
(g14
S'0\xb2\x9d\xef\xa7\x8ak@'
p85
tp86
Rp87
ag10
(g14
S'\xe3z\x14\xaeGUi@'
p88
tp89
Rp90
ag10
(g14
S'\xc2K7\x89A\x0ck@'
p91
tp92
Rp93
ag10
(g14
S'*\xdb\xf9~j\xdeh@'
p94
tp95
Rp96
ag10
(g14
S'6\x87\x16\xd9\xce\x13i@'
p97
tp98
Rp99
ag10
(g14
S'R\x8d\x97n\x12+l@'
p100
tp101
Rp102
ag10
(g14
S')\\\x8f\xc2\xf5(l@'
p103
tp104
Rp105
ag10
(g14
S'$\xb2\x9d\xef\xa7\xf2i@'
p106
tp107
Rp108
ag10
(g14
S'\xfc\xff\xff\xff\xff\xcfk@'
p109
tp110
Rp111
ag10
(g14
S'\xa2E\xb6\xf3\xfd(l@'
p112
tp113
Rp114
ag10
(g14
S'v\x12\x83\xc0\xca\x11i@'
p115
tp116
Rp117
ag10
(g14
S'\xec\xfb\xa9\xf1\xd21j@'
p118
tp119
Rp120
ag10
(g14
S'w\xbe\x9f\x1a/\xfdh@'
p121
tp122
Rp123
ag10
(g14
S'\xff\xfd\xd4x\xe9\xe6g@'
p124
tp125
Rp126
ag10
(g14
S'o\xbct\x93\x18\xfaj@'
p127
tp128
Rp129
ag10
(g14
S'\x0f\xaeG\xe1z\x04k@'
p130
tp131
Rp132
ag10
(g14
S':3333\xe7k@'
p133
tp134
Rp135
ag10
(g14
S'\x0f\xac\x1cZd\xbbj@'
p136
tp137
Rp138
asssss.