(dp0
S'../Data/sqlite_42.csv'
p1
(dp2
S'../Data/sqlite_97.csv'
p3
(dp4
F0.4
(dp5
S'mmre'
p6
(dp7
S'bellwether'
p8
(lp9
cnumpy.core.multiarray
scalar
p10
(cnumpy
dtype
p11
(S'f8'
p12
I0
I1
tp13
Rp14
(I3
S'<'
p15
NNNI-1
I-1
I0
tp16
bS'?^\xc7S-)U@'
p17
tp18
Rp19
ag10
(g14
S'j\xa0\xbd\xfeI)U@'
p20
tp21
Rp22
ag10
(g14
S'~\xfc\x13Q\xf77U@'
p23
tp24
Rp25
ag10
(g14
S'!0\xd3qO"U@'
p26
tp27
Rp28
ag10
(g14
S'\xfae\x03\xce\x963U@'
p29
tp30
Rp31
ag10
(g14
S'\x04\x9a,<z8U@'
p32
tp33
Rp34
ag10
(g14
S'^Dg\x86\xa2,U@'
p35
tp36
Rp37
ag10
(g14
S'w\xfc\xd4-\xc2(U@'
p38
tp39
Rp40
ag10
(g14
S'E\xd8+2U,U@'
p41
tp42
Rp43
ag10
(g14
S' \xa6c\xd2\x1f/U@'
p44
tp45
Rp46
ag10
(g14
S'9\xac\x0e\x811+U@'
p47
tp48
Rp49
ag10
(g14
S'?,\xf3\xe2\x95>U@'
p50
tp51
Rp52
ag10
(g14
S'y\xbcl\x02\xa52U@'
p53
tp54
Rp55
ag10
(g14
S'\xa2\xe8\x923\x96DU@'
p56
tp57
Rp58
ag10
(g14
S'P\n\xebm\xd8+U@'
p59
tp60
Rp61
ag10
(g14
S'\xfc\x1c(\x7f4.U@'
p62
tp63
Rp64
ag10
(g14
S'82\x19\x18\x1e0U@'
p65
tp66
Rp67
ag10
(g14
S'?+\xe4\xae\xd5+U@'
p68
tp69
Rp70
ag10
(g14
S'\xec\xa1\x90!\x1e3U@'
p71
tp72
Rp73
ag10
(g14
S'4\x81bM\x9c6U@'
p74
tp75
Rp76
asS'target'
p77
(lp78
g10
(g14
S'\x92\xf6\xfau\xad\xd4T@'
p79
tp80
Rp81
ag10
(g14
S'\x0b\xc5^\xd2\x8f\nR@'
p82
tp83
Rp84
ag10
(g14
S'6-\xc1.\xaa\xbfO@'
p85
tp86
Rp87
ag10
(g14
S' _N]J\xb2S@'
p88
tp89
Rp90
ag10
(g14
S'\x06{p\xf1PxS@'
p91
tp92
Rp93
ag10
(g14
S'\xf8\x84\x12;\x9baP@'
p94
tp95
Rp96
ag10
(g14
S'\x94W\x16t\xa8\xf8S@'
p97
tp98
Rp99
ag10
(g14
S')\xc3\x04\x84t\x15X@'
p100
tp101
Rp102
ag10
(g14
S'\xe8\xab\x91D\x03\x0fT@'
p103
tp104
Rp105
ag10
(g14
S'M\x10\x06\x1c<\xe0V@'
p106
tp107
Rp108
ag10
(g14
S'\xa1eFO\xe85L@'
p109
tp110
Rp111
ag10
(g14
S'\xf6\xdc\xcc2\xf6\x1cX@'
p112
tp113
Rp114
ag10
(g14
S'\n\x02UV\x8c\xb8N@'
p115
tp116
Rp117
ag10
(g14
S'-\xdd\xc7\xb7>\xbdQ@'
p118
tp119
Rp120
ag10
(g14
S'\xf0>-\xf5\xa8\xd4S@'
p121
tp122
Rp123
ag10
(g14
S'\x9f\xd6\x86\xb7\xb8iP@'
p124
tp125
Rp126
ag10
(g14
S'\xe2\xd7%D7AP@'
p127
tp128
Rp129
ag10
(g14
S'\xacT\xdac\x9c\x11R@'
p130
tp131
Rp132
ag10
(g14
S'`\xfa\x8dtQ\xf6Q@'
p133
tp134
Rp135
ag10
(g14
S'g\x84\xff\xff\xb7\xd9P@'
p136
tp137
Rp138
asssss.