(dp0
S'../Data/sqlite_26.csv'
p1
(dp2
S'../Data/sqlite_84.csv'
p3
(dp4
F0.25
(dp5
S'mmre'
p6
(dp7
S'bellwether'
p8
(lp9
cnumpy.core.multiarray
scalar
p10
(cnumpy
dtype
p11
(S'f8'
p12
I0
I1
tp13
Rp14
(I3
S'<'
p15
NNNI-1
I-1
I0
tp16
bS'v\xf1\xfb\xed\xbfmu@'
p17
tp18
Rp19
ag10
(g14
S'3OK\x9b\x15gu@'
p20
tp21
Rp22
ag10
(g14
S'\xa5\x8f\x8f\xa2W6u@'
p23
tp24
Rp25
ag10
(g14
S'd\xba\x03X\xe7Tu@'
p26
tp27
Rp28
ag10
(g14
S"\xe2\xca>\xc5Z'u@"
p29
tp30
Rp31
ag10
(g14
S'\x1c#\x85G\xf8Tu@'
p32
tp33
Rp34
ag10
(g14
S'H\xdc\xa2\x1bNHu@'
p35
tp36
Rp37
ag10
(g14
S'\x13\xfa\xcb\xca\x07Yu@'
p38
tp39
Rp40
ag10
(g14
S'Z\xd1v\xfek%u@'
p41
tp42
Rp43
ag10
(g14
S'=\xd2IIb]u@'
p44
tp45
Rp46
ag10
(g14
S'\x02\xd2T\xe7\xf6\x93u@'
p47
tp48
Rp49
ag10
(g14
S'\n\x02\x9d\x0c\xc4\x13u@'
p50
tp51
Rp52
ag10
(g14
S"\xd8_g\x1a':u@"
p53
tp54
Rp55
ag10
(g14
S' ,G\xe4&5u@'
p56
tp57
Rp58
ag10
(g14
S'\xae\xc9qMe>u@'
p59
tp60
Rp61
ag10
(g14
S'35\x8b\xdb _u@'
p62
tp63
Rp64
ag10
(g14
S'\xee7@\xad\xf5Au@'
p65
tp66
Rp67
ag10
(g14
S'wU\xfb\x1b<Su@'
p68
tp69
Rp70
ag10
(g14
S'\xa8\xc1l\xd3t&u@'
p71
tp72
Rp73
ag10
(g14
S'W\xafj\r\x10\x1au@'
p74
tp75
Rp76
asS'target'
p77
(lp78
g10
(g14
S'\x8b\xb2\xaf\x12\xe1KS@'
p79
tp80
Rp81
ag10
(g14
S'M\xcfr\xec\x13\xb9O@'
p82
tp83
Rp84
ag10
(g14
S'\xe6\xa9\xc1\x0f#CP@'
p85
tp86
Rp87
ag10
(g14
S'\r\xb6[\x0eI:L@'
p88
tp89
Rp90
ag10
(g14
S'\xba\x11\x9f\xb2\xa9&S@'
p91
tp92
Rp93
ag10
(g14
S'u4\xe4\x1b\xe5\xd0T@'
p94
tp95
Rp96
ag10
(g14
S'\x0f\x84$Bs7T@'
p97
tp98
Rp99
ag10
(g14
S'\x06\x0e\x05\r\x9c\xe3R@'
p100
tp101
Rp102
ag10
(g14
S'\x0fe\xaf\x02mCI@'
p103
tp104
Rp105
ag10
(g14
S'\xf3\n\xb5\x91D\x0fT@'
p106
tp107
Rp108
ag10
(g14
S'JU\\\x9d\nnQ@'
p109
tp110
Rp111
ag10
(g14
S'Z)\x1c.\x03\xd6K@'
p112
tp113
Rp114
ag10
(g14
S'P\x10\x87_\x00\xceM@'
p115
tp116
Rp117
ag10
(g14
S',\xa7\xe2\x89#\xe1C@'
p118
tp119
Rp120
ag10
(g14
S'\x8d,\x12\xe3\xf9\xfbM@'
p121
tp122
Rp123
ag10
(g14
S'\xaf\x99\x91v[\xfaU@'
p124
tp125
Rp126
ag10
(g14
S'(\xa3s\x98h\x1bR@'
p127
tp128
Rp129
ag10
(g14
S'YI6\n\xc0\xcdH@'
p130
tp131
Rp132
ag10
(g14
S',\x9f\xbfg\xb4KJ@'
p133
tp134
Rp135
ag10
(g14
S'\xfb\xeap[\xbb-N@'
p136
tp137
Rp138
asssss.