(dp0
S'../Data/sqlite_31.csv'
p1
(dp2
S'../Data/sqlite_91.csv'
p3
(dp4
F0.2
(dp5
S'mmre'
p6
(dp7
S'bellwether'
p8
(lp9
cnumpy.core.multiarray
scalar
p10
(cnumpy
dtype
p11
(S'f8'
p12
I0
I1
tp13
Rp14
(I3
S'<'
p15
NNNI-1
I-1
I0
tp16
bS'\xd6n\xf1U\xa2GX@'
p17
tp18
Rp19
ag10
(g14
S'#\x90\xf4~p8X@'
p20
tp21
Rp22
ag10
(g14
S'^\xe5\x89\r[<X@'
p23
tp24
Rp25
ag10
(g14
S'n\x9a\xa1x\xc23X@'
p26
tp27
Rp28
ag10
(g14
S'\x86\xf5\x93\xb0\xa0BX@'
p29
tp30
Rp31
ag10
(g14
S'\xff\xd3\x1ez\xde=X@'
p32
tp33
Rp34
ag10
(g14
S'\x08,\x7f\xfaD1X@'
p35
tp36
Rp37
ag10
(g14
S'\x1e\x99$\xc9\xdf0X@'
p38
tp39
Rp40
ag10
(g14
S'\xf8\xbcf\x9eS<X@'
p41
tp42
Rp43
ag10
(g14
S'\xf1\x12\xeb\xd2\xa21X@'
p44
tp45
Rp46
ag10
(g14
S'\xbaFo<\xda7X@'
p47
tp48
Rp49
ag10
(g14
S'V\xf2\xcb\xcaZ4X@'
p50
tp51
Rp52
ag10
(g14
S'\xbeng\x10\xb16X@'
p53
tp54
Rp55
ag10
(g14
S'\x92\\\xfe#??X@'
p56
tp57
Rp58
ag10
(g14
S'.\x1c\xbd\x9c\xdf4X@'
p59
tp60
Rp61
ag10
(g14
S'\x8c,\xce]\x129X@'
p62
tp63
Rp64
ag10
(g14
S'\ni\x96do;X@'
p65
tp66
Rp67
ag10
(g14
S'H\xbf\n\x8fX9X@'
p68
tp69
Rp70
ag10
(g14
S'LbY\xc1\xa25X@'
p71
tp72
Rp73
ag10
(g14
S'q9.\xb2(8X@'
p74
tp75
Rp76
asS'target'
p77
(lp78
g10
(g14
S'\x0b\xb9~\xbfx4M@'
p79
tp80
Rp81
ag10
(g14
S'\xd0\x14\xa9\xdcynP@'
p82
tp83
Rp84
ag10
(g14
S'\x0fj\xe4H\x13<P@'
p85
tp86
Rp87
ag10
(g14
S'{\xd2{\x1d\xf7\xfcN@'
p88
tp89
Rp90
ag10
(g14
S'\xa7g\xbc\x1f\x1dJM@'
p91
tp92
Rp93
ag10
(g14
S'\x116 \x00o\x8fO@'
p94
tp95
Rp96
ag10
(g14
S'\xfej\xa8\xecB!P@'
p97
tp98
Rp99
ag10
(g14
S'\xcd\xb1!\x164\xbcQ@'
p100
tp101
Rp102
ag10
(g14
S'\x9aA_A\xf4\x9aP@'
p103
tp104
Rp105
ag10
(g14
S'm\x9e/?u\x0cR@'
p106
tp107
Rp108
ag10
(g14
S'\xd6\xc9\xfc\x00x:Q@'
p109
tp110
Rp111
ag10
(g14
S'\xa1\x80|\xfe>-Q@'
p112
tp113
Rp114
ag10
(g14
S'b\x1b\xe8K\x8f\x97O@'
p115
tp116
Rp117
ag10
(g14
S'a<\x17\r\x00zL@'
p118
tp119
Rp120
ag10
(g14
S'\xff<\xde,\xa6\x82P@'
p121
tp122
Rp123
ag10
(g14
S'\xf8\x88\xab\x92\xbc\x0eP@'
p124
tp125
Rp126
ag10
(g14
S'\xa0\xad\xa0B\x9e\x0eP@'
p127
tp128
Rp129
ag10
(g14
S'\xf47/3\x9e=N@'
p130
tp131
Rp132
ag10
(g14
S'\xac\xc8\x8bb\x85\xe2P@'
p133
tp134
Rp135
ag10
(g14
S'\xe9\x94C\xae\x85\xe7O@'
p136
tp137
Rp138
asssss.