(dp0
S'../Data/sqlite_74.csv'
p1
(dp2
S'../Data/sqlite_22.csv'
p3
(dp4
F0.25
(dp5
S'abs_res'
p6
(dp7
S'bellwether'
p8
(lp9
cnumpy.core.multiarray
scalar
p10
(cnumpy
dtype
p11
(S'f8'
p12
I0
I1
tp13
Rp14
(I3
S'<'
p15
NNNI-1
I-1
I0
tp16
bS'\xa4\rt\xd6ekiA'
p17
tp18
Rp19
ag10
(g14
S'\xae\xe4\x17\x9f?hiA'
p20
tp21
Rp22
ag10
(g14
S'\x81\xe9&\x8d\x94_iA'
p23
tp24
Rp25
ag10
(g14
S'\x7f\xb1\xe4\x07\xb9biA'
p26
tp27
Rp28
ag10
(g14
S'.\xb0r\x98\xe0_iA'
p29
tp30
Rp31
ag10
(g14
S'D\x8bl\x13\x13_iA'
p32
tp33
Rp34
ag10
(g14
S'D5^J~eiA'
p35
tp36
Rp37
ag10
(g14
S'\xa2\x8c\xdev\xe6kiA'
p38
tp39
Rp40
ag10
(g14
S'\xc8\xcc\xcc\xa0\x03\\iA'
p41
tp42
Rp43
ag10
(g14
S'\xb2\x1e\x85o9_iA'
p44
tp45
Rp46
ag10
(g14
S'|\x05\xc8-\x88[iA'
p47
tp48
Rp49
ag10
(g14
S'\x84j\xbcX\xd6YiA'
p50
tp51
Rp52
ag10
(g14
S'\x81?5\x96\xe8fiA'
p53
tp54
Rp55
ag10
(g14
S'\xad\x8e\t\xb6\xbaSiA'
p56
tp57
Rp58
ag10
(g14
S'\xf1B\xd2\xd0\x00]iA'
p59
tp60
Rp61
ag10
(g14
S'7\x08\xac\xd4PbiA'
p62
tp63
Rp64
ag10
(g14
S'z\x86]e\xb2aiA'
p65
tp66
Rp67
ag10
(g14
S'cff6+]iA'
p68
tp69
Rp70
ag10
(g14
S'3kul*_iA'
p71
tp72
Rp73
ag10
(g14
S'#ZdG{]iA'
p74
tp75
Rp76
asS'target'
p77
(lp78
g10
(g14
S'w\xbe\x9f\x1a/=V@'
p79
tp80
Rp81
ag10
(g14
S'\xb4\x1e\x85\xebQ@V@'
p82
tp83
Rp84
ag10
(g14
S'\xed\xfb\xa9\xf1\xd21X@'
p85
tp86
Rp87
ag10
(g14
S'\xae\xc8v\xbe\x9f2W@'
p88
tp89
Rp90
ag10
(g14
S'\xd2Mb\x10X\xadU@'
p91
tp92
Rp93
ag10
(g14
S'_\x10X9\xb4\xa8U@'
p94
tp95
Rp96
ag10
(g14
S'\xc9K7\x89A\x98U@'
p97
tp98
Rp99
ag10
(g14
S'_;\xdfO\x8d\x87U@'
p100
tp101
Rp102
ag10
(g14
S'\x1d\x85\xebQ\xb8\xbeU@'
p103
tp104
Rp105
ag10
(g14
S'\x95\x97n\x12\x83XV@'
p106
tp107
Rp108
ag10
(g14
S'\x9eE\xb6\xf3\xfd4Y@'
p109
tp110
Rp111
ag10
(g14
S'\xa0\xef\xa7\xc6K\xefV@'
p112
tp113
Rp114
ag10
(g14
S'\xb3\xc8v\xbe\x9f&T@'
p115
tp116
Rp117
ag10
(g14
S'\xf6(\\\x8f\xc2\x15U@'
p118
tp119
Rp120
ag10
(g14
S'\x04\xaa\xf1\xd2M^U@'
p121
tp122
Rp123
ag10
(g14
S'z\xe9&1\x08\xb0V@'
p124
tp125
Rp126
ag10
(g14
S'\xb3rh\x91\xed\xb0V@'
p127
tp128
Rp129
ag10
(g14
S'z\xbe\x9f\x1a/=V@'
p130
tp131
Rp132
ag10
(g14
S'1\xb4\xc8v\xbe\xc7U@'
p133
tp134
Rp135
ag10
(g14
S'\xa8rh\x91\xed\xc4W@'
p136
tp137
Rp138
asssss.