(dp0
S'../Data/sqlite_70.csv'
p1
(dp2
S'../Data/sqlite_73.csv'
p3
(dp4
F0.05
(dp5
S'mmre'
p6
(dp7
S'bellwether'
p8
(lp9
cnumpy.core.multiarray
scalar
p10
(cnumpy
dtype
p11
(S'f8'
p12
I0
I1
tp13
Rp14
(I3
S'<'
p15
NNNI-1
I-1
I0
tp16
bS'yKU\xbc\xa1CE@'
p17
tp18
Rp19
ag10
(g14
S'\x83\x91\x1d+\xb2KE@'
p20
tp21
Rp22
ag10
(g14
S'\xa8\x0b\xcd\x80$AE@'
p23
tp24
Rp25
ag10
(g14
S'L\x93\x82\xf1\xddHE@'
p26
tp27
Rp28
ag10
(g14
S'|\xf6\x1f\x0e}DE@'
p29
tp30
Rp31
ag10
(g14
S'\x1e&\xdf"kJE@'
p32
tp33
Rp34
ag10
(g14
S'r\xb2V\xbe\xe0OE@'
p35
tp36
Rp37
ag10
(g14
S'\x91c\xf9l\xb2PE@'
p38
tp39
Rp40
ag10
(g14
S'1Xf:\xd6<E@'
p41
tp42
Rp43
ag10
(g14
S'\xff\xa1\xff\xeb6FE@'
p44
tp45
Rp46
ag10
(g14
S'\xcc\x0c\x8d\x1e\x87KE@'
p47
tp48
Rp49
ag10
(g14
S'<\x8e\xb7^\xe5RE@'
p50
tp51
Rp52
ag10
(g14
S'!&\x9a\xac\xfeNE@'
p53
tp54
Rp55
ag10
(g14
S'\x12%\x0e\x0ccRE@'
p56
tp57
Rp58
ag10
(g14
S'(\x0e\xf1\xde\x80LE@'
p59
tp60
Rp61
ag10
(g14
S'l\xf73\xdeZNE@'
p62
tp63
Rp64
ag10
(g14
S'\xc2\xc1\x80\n9IE@'
p65
tp66
Rp67
ag10
(g14
S'\x18}\xeeI\xeaHE@'
p68
tp69
Rp70
ag10
(g14
S'\t\xac3\xbf\x8fHE@'
p71
tp72
Rp73
ag10
(g14
S'\x068\xa0\xd1FJE@'
p74
tp75
Rp76
asS'target'
p77
(lp78
g10
(g14
S'S5\x053\xe4\x7f/@'
p79
tp80
Rp81
ag10
(g14
S',W5\x02a@,@'
p82
tp83
Rp84
ag10
(g14
S'I\x9b\xa5\x07!\xc9-@'
p85
tp86
Rp87
ag10
(g14
S'\xc7\x96\xe9\xa4\xa4K+@'
p88
tp89
Rp90
ag10
(g14
S'm"\x97\x9aJ\xcf*@'
p91
tp92
Rp93
ag10
(g14
S'gv\t\xfe\x18E*@'
p94
tp95
Rp96
ag10
(g14
S"\x91 e\xed\xc8\xf2'@"
p97
tp98
Rp99
ag10
(g14
S'\x00\xd6\x90t\xed\x01/@'
p100
tp101
Rp102
ag10
(g14
S'\xaf\x97\xe8R_71@'
p103
tp104
Rp105
ag10
(g14
S' uq\xca\x02\xbe+@'
p106
tp107
Rp108
ag10
(g14
S'("\xc5,+\'-@'
p109
tp110
Rp111
ag10
(g14
S'\xc6F\xa7Xr\x841@'
p112
tp113
Rp114
ag10
(g14
S'f\xeb\x91\xa9\x01\x0b(@'
p115
tp116
Rp117
ag10
(g14
S'\x12\xa3\xda\xfb\xd5\x10+@'
p118
tp119
Rp120
ag10
(g14
S'\xdaS5b\xd0\x1b,@'
p121
tp122
Rp123
ag10
(g14
S'\x83\xc2X\x92C\xc2*@'
p124
tp125
Rp126
ag10
(g14
S'\xc1\xf83\xcb#\xe7-@'
p127
tp128
Rp129
ag10
(g14
S'1X\xac\x054\xdf*@'
p130
tp131
Rp132
ag10
(g14
S'\xe5\x15\xd5\xfe*{*@'
p133
tp134
Rp135
ag10
(g14
S'\xa8v7\xe2\xd1o+@'
p136
tp137
Rp138
asssss.