(dp0
S'../Data/sqlite_48.csv'
p1
(dp2
S'../Data/sqlite_84.csv'
p3
(dp4
F0.05
(dp5
S'mmre'
p6
(dp7
S'bellwether'
p8
(lp9
cnumpy.core.multiarray
scalar
p10
(cnumpy
dtype
p11
(S'f8'
p12
I0
I1
tp13
Rp14
(I3
S'<'
p15
NNNI-1
I-1
I0
tp16
bS'\xa0x\x8a\x90waQ@'
p17
tp18
Rp19
ag10
(g14
S'\x88\xafl\x8f?aQ@'
p20
tp21
Rp22
ag10
(g14
S'$\xa4\x92\x16vsQ@'
p23
tp24
Rp25
ag10
(g14
S'\xae[1$\xf2hQ@'
p26
tp27
Rp28
ag10
(g14
S'\x00"P\r)GQ@'
p29
tp30
Rp31
ag10
(g14
S'\xe8S\x9b\xf7pfQ@'
p32
tp33
Rp34
ag10
(g14
S'o\xdc\xf4=cYQ@'
p35
tp36
Rp37
ag10
(g14
S'\xf7^\x184\xc0;Q@'
p38
tp39
Rp40
ag10
(g14
S'\xd9\x12\xb4\xa0\x0eBQ@'
p41
tp42
Rp43
ag10
(g14
S'O[+\xf2\xedTQ@'
p44
tp45
Rp46
ag10
(g14
S'\t\xff\x04c\x08]Q@'
p47
tp48
Rp49
ag10
(g14
S'\x16[1*\xa0ZQ@'
p50
tp51
Rp52
ag10
(g14
S'\xafN\x17\x1d\x16DQ@'
p53
tp54
Rp55
ag10
(g14
S'v\xd2e,\xccoQ@'
p56
tp57
Rp58
ag10
(g14
S'\xbb\xb2 y\x1fRQ@'
p59
tp60
Rp61
ag10
(g14
S'^\x91\x97\n\xe2FQ@'
p62
tp63
Rp64
ag10
(g14
S'Qj"\xfa\x1ehQ@'
p65
tp66
Rp67
ag10
(g14
S'\xd9\xbe\xcd\xa02RQ@'
p68
tp69
Rp70
ag10
(g14
S'h\xe0\xb7\x96LiQ@'
p71
tp72
Rp73
ag10
(g14
S'J\xb4\xbc]>TQ@'
p74
tp75
Rp76
asS'target'
p77
(lp78
g10
(g14
S'\xd1;\xeb$\xf0\xa4T@'
p79
tp80
Rp81
ag10
(g14
S'\xe0b\xb6\x87\xfe\xdbT@'
p82
tp83
Rp84
ag10
(g14
S'W\xe8=_\xdbZ^@'
p85
tp86
Rp87
ag10
(g14
S'\xbf\\1\xc8NiT@'
p88
tp89
Rp90
ag10
(g14
S'U>d\xacg\x8e@@'
p91
tp92
Rp93
ag10
(g14
S'\x15\xf2%\x0e\xc6\xd4C@'
p94
tp95
Rp96
ag10
(g14
S'R\x86s\x03\xfc\xe6T@'
p97
tp98
Rp99
ag10
(g14
S'\xf2\xdc\x14\t\x00\xd9L@'
p100
tp101
Rp102
ag10
(g14
S'P\x08M\x14nyU@'
p103
tp104
Rp105
ag10
(g14
S'\xd0xN\x02\xf5\x18M@'
p106
tp107
Rp108
ag10
(g14
S'\x9d9\xf4RN\x9bP@'
p109
tp110
Rp111
ag10
(g14
S'\x1f\x88\xff\xa4h\x8aU@'
p112
tp113
Rp114
ag10
(g14
S'>7\xcd\xa0^]C@'
p115
tp116
Rp117
ag10
(g14
S'\xaf\xc3\xe7\x85nqW@'
p118
tp119
Rp120
ag10
(g14
S'\xf1(\xe4\x10\xcd\x7fU@'
p121
tp122
Rp123
ag10
(g14
S'b{\x11J(\x9a^@'
p124
tp125
Rp126
ag10
(g14
S'\x96\xd9\xde\xe2\xefqH@'
p127
tp128
Rp129
ag10
(g14
S'o\xa2\x9a\xc0\x9d\xb1W@'
p130
tp131
Rp132
ag10
(g14
S'>\x83\xd7 \xffwR@'
p133
tp134
Rp135
ag10
(g14
S'\xd4\xe1\x12h\x05\x1c]@'
p136
tp137
Rp138
asssss.