(dp0
S'../Data/sqlite_28.csv'
p1
(dp2
S'../Data/sqlite_89.csv'
p3
(dp4
F0.15
(dp5
S'mmre'
p6
(dp7
S'bellwether'
p8
(lp9
cnumpy.core.multiarray
scalar
p10
(cnumpy
dtype
p11
(S'f8'
p12
I0
I1
tp13
Rp14
(I3
S'<'
p15
NNNI-1
I-1
I0
tp16
bS'\tm\x1bx\xf21K@'
p17
tp18
Rp19
ag10
(g14
S'e\x94\x83K!.K@'
p20
tp21
Rp22
ag10
(g14
S'\xe1m\x1f\xf4C<K@'
p23
tp24
Rp25
ag10
(g14
S'h\xe3:\xeeB\x17K@'
p26
tp27
Rp28
ag10
(g14
S'\x96F\x12\x00^+K@'
p29
tp30
Rp31
ag10
(g14
S'\x14z\xed\x82\xf3?K@'
p32
tp33
Rp34
ag10
(g14
S'\x91\xd5\x84\xca\xd5/K@'
p35
tp36
Rp37
ag10
(g14
S'\x04\xee\xc3r\xb9SK@'
p38
tp39
Rp40
ag10
(g14
S'\x1e|\xcb7\x93\x1aK@'
p41
tp42
Rp43
ag10
(g14
S'%\xd9O\x1e\xe9 K@'
p44
tp45
Rp46
ag10
(g14
S'&t*f\x15#K@'
p47
tp48
Rp49
ag10
(g14
S'\x08\xd6qj\x173K@'
p50
tp51
Rp52
ag10
(g14
S']hK\x90\xd68K@'
p53
tp54
Rp55
ag10
(g14
S'l<p\r\x89\x16K@'
p56
tp57
Rp58
ag10
(g14
S'\xe1\xef\x0b6\xbd)K@'
p59
tp60
Rp61
ag10
(g14
S'\xb2:M1\xf69K@'
p62
tp63
Rp64
ag10
(g14
S'E\x08a\xeaL5K@'
p65
tp66
Rp67
ag10
(g14
S'\x8d\xf4\x02\xce\xbd1K@'
p68
tp69
Rp70
ag10
(g14
S'\xe0#w*S9K@'
p71
tp72
Rp73
ag10
(g14
S'2\xc8g2+/K@'
p74
tp75
Rp76
asS'target'
p77
(lp78
g10
(g14
S'\x02i\x11\x96\x98\xb4R@'
p79
tp80
Rp81
ag10
(g14
S':4@\x0c\x1d\xa8Q@'
p82
tp83
Rp84
ag10
(g14
S'\xa8l\x84\x7f\xa8\xddM@'
p85
tp86
Rp87
ag10
(g14
S'\x889\xd1\xf6\xb6\x0eT@'
p88
tp89
Rp90
ag10
(g14
S'\xaa\xc6q[\xd4\x8fP@'
p91
tp92
Rp93
ag10
(g14
S'\x85\xf0Z$\xbb,M@'
p94
tp95
Rp96
ag10
(g14
S'\xfeK\x93-\xaa\xb1P@'
p97
tp98
Rp99
ag10
(g14
S'\xbc\xe0\xe4\xa6\xf0\x16I@'
p100
tp101
Rp102
ag10
(g14
S'\x98L\xa1\\\x9a\xf3J@'
p103
tp104
Rp105
ag10
(g14
S'\x1b\xe7\xb9$Q\xb8V@'
p106
tp107
Rp108
ag10
(g14
S'Z\xf0\xff\xfb`\x1dQ@'
p109
tp110
Rp111
ag10
(g14
S'\xc9\xe2C\xa9\xef\x86Q@'
p112
tp113
Rp114
ag10
(g14
S'\x8d$e\xb3\xce\xf6S@'
p115
tp116
Rp117
ag10
(g14
S's\xd9*?]MQ@'
p118
tp119
Rp120
ag10
(g14
S'p1I\xaf\xa7\xdaO@'
p121
tp122
Rp123
ag10
(g14
S'\x0f\xc5R:7rT@'
p124
tp125
Rp126
ag10
(g14
S'\xc1\x82\x167\x84\x1aM@'
p127
tp128
Rp129
ag10
(g14
S"\xcb< '\x19TR@"
p130
tp131
Rp132
ag10
(g14
S'U&\xbb\xd2\xd2\xd2P@'
p133
tp134
Rp135
ag10
(g14
S'\x96\x8b;\x13U\xd0V@'
p136
tp137
Rp138
asssss.