(dp0
S'../Data/sqlite_43.csv'
p1
(dp2
S'../Data/sqlite_61.csv'
p3
(dp4
F0.2
(dp5
S'abs_res'
p6
(dp7
S'bellwether'
p8
(lp9
cnumpy.core.multiarray
scalar
p10
(cnumpy
dtype
p11
(S'f8'
p12
I0
I1
tp13
Rp14
(I3
S'<'
p15
NNNI-1
I-1
I0
tp16
bS'\xc0\xd9\x87\xaf<7>A'
p17
tp18
Rp19
ag10
(g14
S'\x1f\xb0r(06>A'
p20
tp21
Rp22
ag10
(g14
S'\x9daW\x00\xff5>A'
p23
tp24
Rp25
ag10
(g14
S'\xd9\x13\xf5\x8f67>A'
p26
tp27
Rp28
ag10
(g14
S"\x98'\xea\xffX7>A"
p29
tp30
Rp31
ag10
(g14
S'3\xb2\x9d\xaf88>A'
p32
tp33
Rp34
ag10
(g14
S'\xb4:&\xf8?7>A'
p35
tp36
Rp37
ag10
(g14
S'\xae\x1cZ\xe4\xe56>A'
p38
tp39
Rp40
ag10
(g14
S'\x8a2z\x1b\x017>A'
p41
tp42
Rp43
ag10
(g14
S'@5^Z#7>A'
p44
tp45
Rp46
ag10
(g14
S'S9\xb4\xc8\xbd7>A'
p47
tp48
Rp49
ag10
(g14
S'\xf8\xfd\xd4\x18Z7>A'
p50
tp51
Rp52
ag10
(g14
S'1\x89A\xe0_7>A'
p53
tp54
Rp55
ag10
(g14
S'\x832z\xfb67>A'
p56
tp57
Rp58
ag10
(g14
S'+\xec\n0\xa36>A'
p59
tp60
Rp61
ag10
(g14
S'\xd4x\xe9&\xf47>A'
p62
tp63
Rp64
ag10
(g14
S'\xbee\xadN27>A'
p65
tp66
Rp67
ag10
(g14
S'\xf6\xa7\xc6k17>A'
p68
tp69
Rp70
ag10
(g14
S'\xc6K7\x89\xdf6>A'
p71
tp72
Rp73
ag10
(g14
S'\x1b\xd9\xce\x97;7>A'
p74
tp75
Rp76
asS'target'
p77
(lp78
g10
(g14
S'O\x8d\x97n\x12Ot@'
p79
tp80
Rp81
ag10
(g14
S'\x1e\x04V\x0e-\x90u@'
p82
tp83
Rp84
ag10
(g14
S'\xb6G\xe1z\x14\xe6r@'
p85
tp86
Rp87
ag10
(g14
S'\x97\xef\xa7\xc6K v@'
p88
tp89
Rp90
ag10
(g14
S'\xb3I\x0c\x02++v@'
p91
tp92
Rp93
ag10
(g14
S'"1\x08\xac\x1c\xf8u@'
p94
tp95
Rp96
ag10
(g14
S'D5^\xbaI\xc8{@'
p97
tp98
Rp99
ag10
(g14
S'?\x8bl\xe7\xfb\xb6v@'
p100
tp101
Rp102
ag10
(g14
S'\xf8~j\xbct\xd9t@'
p103
tp104
Rp105
ag10
(g14
S'\x0e\x02+\x87\x16\xd9r@'
p106
tp107
Rp108
ag10
(g14
S'\xa7\xc6K7\x89\xb5s@'
p109
tp110
Rp111
ag10
(g14
S'\x9e\x99\x99\x99\x99yw@'
p112
tp113
Rp114
ag10
(g14
S'\xd8\xce\xf7S\xe3\xe9n@'
p115
tp116
Rp117
ag10
(g14
S'&\xb0rh\x91\x7fr@'
p118
tp119
Rp120
ag10
(g14
S',\x87\x16\xd9\xceWt@'
p121
tp122
Rp123
ag10
(g14
S'\xf8\xa9\xf1\xd2M\xbct@'
p124
tp125
Rp126
ag10
(g14
S'\x86\x95C\x8blQz@'
p127
tp128
Rp129
ag10
(g14
S'.\xdd$\x06\x81{v@'
p130
tp131
Rp132
ag10
(g14
S'\xa5\xf1\xd2Mb\xbbs@'
p133
tp134
Rp135
ag10
(g14
S'S\x8d\x97n\x12\xe7r@'
p136
tp137
Rp138
asssss.