(dp0
S'../Data/sqlite_57.csv'
p1
(dp2
S'../Data/sqlite_35.csv'
p3
(dp4
F0.3
(dp5
S'abs_res'
p6
(dp7
S'bellwether'
p8
(lp9
cnumpy.core.multiarray
scalar
p10
(cnumpy
dtype
p11
(S'f8'
p12
I0
I1
tp13
Rp14
(I3
S'<'
p15
NNNI-1
I-1
I0
tp16
bS'\x96\xed|\xc7q^dA'
p17
tp18
Rp19
ag10
(g14
S'>\xb4\xc8\x92-]dA'
p20
tp21
Rp22
ag10
(g14
S'-\xb2\x9d\xef\xb7\\dA'
p23
tp24
Rp25
ag10
(g14
S'\xe0$\x06\xa5\xe5_dA'
p26
tp27
Rp28
ag10
(g14
S"'\\\x8f\x92=\\dA"
p29
tp30
Rp31
ag10
(g14
S'\xa8\xc6K\x97DUdA'
p32
tp33
Rp34
ag10
(g14
S'V\xe5\xd0\xae\nbdA'
p35
tp36
Rp37
ag10
(g14
S'\xe4|?\xf9K\\dA'
p38
tp39
Rp40
ag10
(g14
S'.1\x08\x987RdA'
p41
tp42
Rp43
ag10
(g14
S'\x1b\x85\xebI\x7fadA'
p44
tp45
Rp46
ag10
(g14
S'ph\x91\xb1\xaf^dA'
p47
tp48
Rp49
ag10
(g14
S'\x95n\x12cbfdA'
p50
tp51
Rp52
ag10
(g14
S'\xd3x\xe9N(\\dA'
p53
tp54
Rp55
ag10
(g14
S'd\x10X\xcd\xf9]dA'
p56
tp57
Rp58
ag10
(g14
S'Q\x8d\x97&\x03gdA'
p59
tp60
Rp61
ag10
(g14
S'\xac\x1cZ\x84\x16[dA'
p62
tp63
Rp64
ag10
(g14
S'\xa8p=\x06\xfd^dA'
p65
tp66
Rp67
ag10
(g14
S'\xa2E\xb6\xeb\x85UdA'
p68
tp69
Rp70
ag10
(g14
S'G\xb6\xf3}TXdA'
p71
tp72
Rp73
ag10
(g14
S"'\\\x8f\xfa\xa3^dA"
p74
tp75
Rp76
asS'target'
p77
(lp78
g10
(g14
S'\xaeG\xe1z\x14"]@'
p79
tp80
Rp81
ag10
(g14
S'\n\x81\x95C\x8b\x08^@'
p82
tp83
Rp84
ag10
(g14
S'6\xdd$\x06\x81=[@'
p85
tp86
Rp87
ag10
(g14
S'\x07\x81\x95C\x8bt[@'
p88
tp89
Rp90
ag10
(g14
S't\xbe\x9f\x1a/\x95\\@'
p91
tp92
Rp93
ag10
(g14
S'\x02\x02+\x87\x16-\\@'
p94
tp95
Rp96
ag10
(g14
S'4\xdd$\x06\x81aZ@'
p97
tp98
Rp99
ag10
(g14
S'\xdc\xa5\x9b\xc4 |]@'
p100
tp101
Rp102
ag10
(g14
S't=\n\xd7\xa3\xf4[@'
p103
tp104
Rp105
ag10
(g14
S'X\xe3\xa5\x9b\xc4\xe4\\@'
p106
tp107
Rp108
ag10
(g14
S'V\x0e-\xb2\x9d\x07[@'
p109
tp110
Rp111
ag10
(g14
S'\x1eX9\xb4\xc8\x0e_@'
p112
tp113
Rp114
ag10
(g14
S'Zb\x10X9\xa4\\@'
p115
tp116
Rp117
ag10
(g14
S'\xb4\xf3\xfd\xd4x%`@'
p118
tp119
Rp120
ag10
(g14
S'\xe4\xf9~j\xbcDZ@'
p121
tp122
Rp123
ag10
(g14
S'X\x8f\xc2\xf5(\x9c]@'
p124
tp125
Rp126
ag10
(g14
S'\xe5\xfb\xa9\xf1\xd2\xa9]@'
p127
tp128
Rp129
ag10
(g14
S'\xf1\xa7\xc6K7q]@'
p130
tp131
Rp132
ag10
(g14
S'\x1b\xaeG\xe1z\xf4[@'
p133
tp134
Rp135
ag10
(g14
S'5\xdfO\x8d\x97\x96\\@'
p136
tp137
Rp138
asssss.