(dp0
S'../Data/sqlite_33.csv'
p1
(dp2
S'../Data/sqlite_76.csv'
p3
(dp4
F0.3
(dp5
S'mmre'
p6
(dp7
S'bellwether'
p8
(lp9
cnumpy.core.multiarray
scalar
p10
(cnumpy
dtype
p11
(S'f8'
p12
I0
I1
tp13
Rp14
(I3
S'<'
p15
NNNI-1
I-1
I0
tp16
bS'}W\x88\xf1\xcbST@'
p17
tp18
Rp19
ag10
(g14
S'\xea\xee\t\x16\xfc]T@'
p20
tp21
Rp22
ag10
(g14
S'\xd5\xe7\xe9\xb5B[T@'
p23
tp24
Rp25
ag10
(g14
S'\xbc\x00p[\xd5VT@'
p26
tp27
Rp28
ag10
(g14
S'z&\xabd\xef\\T@'
p29
tp30
Rp31
ag10
(g14
S'6C\x07\xb1\xc3]T@'
p32
tp33
Rp34
ag10
(g14
S'U\xe14\xa6H[T@'
p35
tp36
Rp37
ag10
(g14
S'V\xa5\x0e\x86&XT@'
p38
tp39
Rp40
ag10
(g14
S'R\\H\xc7\xefZT@'
p41
tp42
Rp43
ag10
(g14
S'\x14\xa4\xb1\xcc~\\T@'
p44
tp45
Rp46
ag10
(g14
S'\x80m\xf5A\x04[T@'
p47
tp48
Rp49
ag10
(g14
S'\x87!\x8bW6OT@'
p50
tp51
Rp52
ag10
(g14
S'\\\xfc\x82\xd7\xacUT@'
p53
tp54
Rp55
ag10
(g14
S'Mf\x87\xec\xabaT@'
p56
tp57
Rp58
ag10
(g14
S'G\x19\xf0\xd7\xd9ZT@'
p59
tp60
Rp61
ag10
(g14
S'\x14X2QzVT@'
p62
tp63
Rp64
ag10
(g14
S'\xfb5\xb0\x07wWT@'
p65
tp66
Rp67
ag10
(g14
S'\xb6\xdb/x\x1aWT@'
p68
tp69
Rp70
ag10
(g14
S'\xd6\x95\xb2\x8d3YT@'
p71
tp72
Rp73
ag10
(g14
S'\x88\x98@\x19b^T@'
p74
tp75
Rp76
asS'target'
p77
(lp78
g10
(g14
S'\x96\xd2W\xda\xa7\xa90@'
p79
tp80
Rp81
ag10
(g14
S'8\xb1\xc8E"\xea0@'
p82
tp83
Rp84
ag10
(g14
S'8\x11\xf0z,\xb12@'
p85
tp86
Rp87
ag10
(g14
S"'\xbc\xe1\xf8<Q1@"
p88
tp89
Rp90
ag10
(g14
S'\xd5^\tf\xcb\xab1@'
p91
tp92
Rp93
ag10
(g14
S'\xc4\xbe\x7f)9\x001@'
p94
tp95
Rp96
ag10
(g14
S'\xcefm[T\x181@'
p97
tp98
Rp99
ag10
(g14
S'\xa6\x1d\xe5\xfc|\x911@'
p100
tp101
Rp102
ag10
(g14
S'\xc1\x8dT\xb8:\xf50@'
p103
tp104
Rp105
ag10
(g14
S'a\xd0r\xb2\xf5\xa31@'
p106
tp107
Rp108
ag10
(g14
S'\x85\x8e\xdc\x84Ic0@'
p109
tp110
Rp111
ag10
(g14
S'\xcca\xafJ\xbd*0@'
p112
tp113
Rp114
ag10
(g14
S'E\x13C\xd4\xc9\x820@'
p115
tp116
Rp117
ag10
(g14
S'%Am\xa8q\xbe0@'
p118
tp119
Rp120
ag10
(g14
S'4=\xd0\x84\xeb\xb60@'
p121
tp122
Rp123
ag10
(g14
S'c\x9ff\xdeC71@'
p124
tp125
Rp126
ag10
(g14
S'~K\xa2r#+1@'
p127
tp128
Rp129
ag10
(g14
S'\xa1\x93\x9a)\xbe\x960@'
p130
tp131
Rp132
ag10
(g14
S'l\xcb\x9c\xa3\x8c\xca0@'
p133
tp134
Rp135
ag10
(g14
S'\xfd\xef6~\x14k0@'
p136
tp137
Rp138
asssss.