(dp0
S'../Data/sqlite_43.csv'
p1
(dp2
S'../Data/sqlite_48.csv'
p3
(dp4
F0.25
(dp5
S'abs_res'
p6
(dp7
S'bellwether'
p8
(lp9
cnumpy.core.multiarray
scalar
p10
(cnumpy
dtype
p11
(S'f8'
p12
I0
I1
tp13
Rp14
(I3
S'<'
p15
NNNI-1
I-1
I0
tp16
bS'\xa4\xc6KW*M<A'
p17
tp18
Rp19
ag10
(g14
S'\x1fg\x1f~\xf7K<A'
p20
tp21
Rp22
ag10
(g14
S'\xc4e\xadN\rL<A'
p23
tp24
Rp25
ag10
(g14
S'm\x842:LL<A'
p26
tp27
Rp28
ag10
(g14
S'\x884\xa5\xc2\xe8K<A'
p29
tp30
Rp31
ag10
(g14
S'(1\x08l\x8cL<A'
p32
tp33
Rp34
ag10
(g14
S'\x11t\xda\xa0gM<A'
p35
tp36
Rp37
ag10
(g14
S'*\xb2\x9d\xcf*L<A'
p38
tp39
Rp40
ag10
(g14
S')\x06\x81\x15hM<A'
p41
tp42
Rp43
ag10
(g14
S'u\xda@gML<A'
p44
tp45
Rp46
ag10
(g14
S'\xcb\xa1E\xd6\xf5L<A'
p47
tp48
Rp49
ag10
(g14
S'\xa2\x1a/\x9d\xacM<A'
p50
tp51
Rp52
ag10
(g14
S'g\x03\x9dVfM<A'
p53
tp54
Rp55
ag10
(g14
S'\rX9\x14\xf4K<A'
p56
tp57
Rp58
ag10
(g14
S'\xfc\xd4x\xa9\xedL<A'
p59
tp60
Rp61
ag10
(g14
S'o=\nw9L<A'
p62
tp63
Rp64
ag10
(g14
S'\x06\x00\x00\xc0dL<A'
p65
tp66
Rp67
ag10
(g14
S'i\x12\x83\x00\xecK<A'
p68
tp69
Rp70
ag10
(g14
S'\xe8\xd0"\xfb\xd0K<A'
p71
tp72
Rp73
ag10
(g14
S'\x822z;YL<A'
p74
tp75
Rp76
asS'target'
p77
(lp78
g10
(g14
S'\x92\x18\x04V\x0e\x84p@'
p79
tp80
Rp81
ag10
(g14
S'U\xe3\xa5\x9b\xc4\xebp@'
p82
tp83
Rp84
ag10
(g14
S'\xbbI\x0c\x02+uq@'
p85
tp86
Rp87
ag10
(g14
S'3\xb2\x9d\xef\xa7~p@'
p88
tp89
Rp90
ag10
(g14
S'\x1d\x85\xebQ\xb8\x18r@'
p91
tp92
Rp93
ag10
(g14
S'\x9e\x1a/\xdd$Yq@'
p94
tp95
Rp96
ag10
(g14
S'\xc9K7\x89A\xb2q@'
p97
tp98
Rp99
ag10
(g14
S'E\xe1z\x14\xaeCq@'
p100
tp101
Rp102
ag10
(g14
S'O\xe1z\x14\xaekp@'
p103
tp104
Rp105
ag10
(g14
S'\xb8\xf3\xfd\xd4x}p@'
p106
tp107
Rp108
ag10
(g14
S'\x8cl\xe7\xfb\xa9\xe9p@'
p109
tp110
Rp111
ag10
(g14
S'r=\n\xd7\xa3Bq@'
p112
tp113
Rp114
ag10
(g14
S'a;\xdfO\x8d\xa4q@'
p115
tp116
Rp117
ag10
(g14
S'];\xdfO\x8d\xc3p@'
p118
tp119
Rp120
ag10
(g14
S'\xf7S\xe3\xa5\x9bXp@'
p121
tp122
Rp123
ag10
(g14
S'\x8dl\xe7\xfb\xa9\x13s@'
p124
tp125
Rp126
ag10
(g14
S'o\x91\xed|?\xe1p@'
p127
tp128
Rp129
ag10
(g14
S'\x14\xaeG\xe1z\x10q@'
p130
tp131
Rp132
ag10
(g14
S'\x80?5^\xba\xabr@'
p133
tp134
Rp135
ag10
(g14
S'P\x8d\x97n\x12\xb0p@'
p136
tp137
Rp138
asssss.