(dp0
S'../Data/sqlite_93.csv'
p1
(dp2
S'../Data/sqlite_85.csv'
p3
(dp4
F0.3
(dp5
S'abs_res'
p6
(dp7
S'bellwether'
p8
(lp9
cnumpy.core.multiarray
scalar
p10
(cnumpy
dtype
p11
(S'f8'
p12
I0
I1
tp13
Rp14
(I3
S'<'
p15
NNNI-1
I-1
I0
tp16
bS' \xdb\xf9\xba\xb5TSA'
p17
tp18
Rp19
ag10
(g14
S'\\\xabcj~iSA'
p20
tp21
Rp22
ag10
(g14
S'\xdb@\xa7\xc1\xa9?SA'
p23
tp24
Rp25
ag10
(g14
S'\x91{\xcd\xa5\xc8pSA'
p26
tp27
Rp28
ag10
(g14
S'\x85\xebQ8\xbdbSA'
p29
tp30
Rp31
ag10
(g14
S'\xb5\x0f\x9f\x85\xefXSA'
p32
tp33
Rp34
ag10
(g14
S'\x07\x02+\x8fi\x88SA'
p35
tp36
Rp37
ag10
(g14
S'o\x842\xba\x83cSA'
p38
tp39
Rp40
ag10
(g14
S'\xf8S\xe3mkwSA'
p41
tp42
Rp43
ag10
(g14
S'W\xe3\xa5\xe7\x15cSA'
p44
tp45
Rp46
ag10
(g14
S'\xa5p=\xa2Z$SA'
p47
tp48
Rp49
ag10
(g14
S'\x98_,}IKSA'
p50
tp51
Rp52
ag10
(g14
S'\t\xd7\xa3(\xa4YSA'
p53
tp54
Rp55
ag10
(g14
S'\xa6)\x15W\x8f0SA'
p56
tp57
Rp58
ag10
(g14
S'B\x8bl\xbbJ@SA'
p59
tp60
Rp61
ag10
(g14
S'd\xbaI$CQSA'
p62
tp63
Rp64
ag10
(g14
S'\x85\x88\x88p\xa0ySA'
p65
tp66
Rp67
ag10
(g14
S'\x05\xf3D\xf5tnSA'
p68
tp69
Rp70
ag10
(g14
S'\x01G(\x1b\xca`SA'
p71
tp72
Rp73
ag10
(g14
S'$\xf7\x9a\xfb\xf6iSA'
p74
tp75
Rp76
asS'target'
p77
(lp78
g10
(g14
S'+\\\x8f\xc2\xa8\xf2:A'
p79
tp80
Rp81
ag10
(g14
S'iff&\xd7\x17=A'
p82
tp83
Rp84
ag10
(g14
S'\x8b\xc2\xf5xl\x11@A'
p85
tp86
Rp87
ag10
(g14
S';33\xf3\x0e\xba=A'
p88
tp89
Rp90
ag10
(g14
S'@\n\xd7c\x13\x9a?A'
p91
tp92
Rp93
ag10
(g14
S'P\xb8\x1e\x85\x8d><A'
p94
tp95
Rp96
ag10
(g14
S'3\\\x8f\xc2\x97\xb4?A'
p97
tp98
Rp99
ag10
(g14
S"v=\nW\xb4'>A"
p100
tp101
Rp102
ag10
(g14
S'\xe0z\x14n\x81\x8e>A'
p103
tp104
Rp105
ag10
(g14
S'\x86\x14\xaeG\xe9\xe4?A'
p106
tp107
Rp108
ag10
(g14
S'833\x93A\t@A'
p109
tp110
Rp111
ag10
(g14
S'\xe8Q\xb8\xce\xb5\xb2@A'
p112
tp113
Rp114
ag10
(g14
S'\xf7\xff\xff\xff\xc0%<A'
p115
tp116
Rp117
ag10
(g14
S'\xbe\x1e\x85\xeb\x82l?A'
p118
tp119
Rp120
ag10
(g14
S'\xd7\xcc\xcc\x8c\x8ar=A'
p121
tp122
Rp123
ag10
(g14
S'\x8e\xc2\xf5\xe8\xcc\x90<A'
p124
tp125
Rp126
ag10
(g14
S'jff&\x01\xd49A'
p127
tp128
Rp129
ag10
(g14
S'\x05\x00\x00@h\xbc<A'
p130
tp131
Rp132
ag10
(g14
S'\xeaQ\xb8^*\x17@A'
p133
tp134
Rp135
ag10
(g14
S'n=\n\x97;y;A'
p136
tp137
Rp138
asssss.