(dp0
S'../Data/sqlite_31.csv'
p1
(dp2
S'../Data/sqlite_73.csv'
p3
(dp4
F0.15
(dp5
S'mmre'
p6
(dp7
S'bellwether'
p8
(lp9
cnumpy.core.multiarray
scalar
p10
(cnumpy
dtype
p11
(S'f8'
p12
I0
I1
tp13
Rp14
(I3
S'<'
p15
NNNI-1
I-1
I0
tp16
bS'\xd5\xfe\x0fO\x87XH@'
p17
tp18
Rp19
ag10
(g14
S"'z\x8f\xdd\x98ZH@"
p20
tp21
Rp22
ag10
(g14
S'\xbb\xdc\x19[[^H@'
p23
tp24
Rp25
ag10
(g14
S'\t\x0b\x93;\x9b_H@'
p26
tp27
Rp28
ag10
(g14
S'\xc9\x1b\xa9r\xadKH@'
p29
tp30
Rp31
ag10
(g14
S'w\x07\xe6\xd0+XH@'
p32
tp33
Rp34
ag10
(g14
S'\x85#\xaa1\xb8OH@'
p35
tp36
Rp37
ag10
(g14
S'\x9f\x96\xae3e>H@'
p38
tp39
Rp40
ag10
(g14
S'Y\xc9> \x8cNH@'
p41
tp42
Rp43
ag10
(g14
S'N\x15F[\x9fRH@'
p44
tp45
Rp46
ag10
(g14
S'\xf8\x9e4\xeb\x9cHH@'
p47
tp48
Rp49
ag10
(g14
S'\x00lRKaPH@'
p50
tp51
Rp52
ag10
(g14
S'%\x1f4\xffdQH@'
p53
tp54
Rp55
ag10
(g14
S'\xf3nA\x912PH@'
p56
tp57
Rp58
ag10
(g14
S'\x0b\x83F\x13\xffgH@'
p59
tp60
Rp61
ag10
(g14
S'q`\x99\x98\xe8OH@'
p62
tp63
Rp64
ag10
(g14
S'\x13A\xc4\x1bORH@'
p65
tp66
Rp67
ag10
(g14
S'\x9c\xbd\xe2o\x13<H@'
p68
tp69
Rp70
ag10
(g14
S'\xd7e\xadR\xacQH@'
p71
tp72
Rp73
ag10
(g14
S'\xc0H\xe0\xbc\xd8LH@'
p74
tp75
Rp76
asS'target'
p77
(lp78
g10
(g14
S'\xeb\x1d\x8c/\xe0\x90+@'
p79
tp80
Rp81
ag10
(g14
S'\xb4\x1bs\xafk{0@'
p82
tp83
Rp84
ag10
(g14
S'\xd5\xebD\x958$)@'
p85
tp86
Rp87
ag10
(g14
S'<:\xdd\x9f\x92\xe0,@'
p88
tp89
Rp90
ag10
(g14
S'\x02\xfel\x13\xe7\x0e+@'
p91
tp92
Rp93
ag10
(g14
S'\xbb\x1c\x82\xa3\xd1\x99+@'
p94
tp95
Rp96
ag10
(g14
S't\xcdk4\xabk*@'
p97
tp98
Rp99
ag10
(g14
S'\xa9f%7O&.@'
p100
tp101
Rp102
ag10
(g14
S'|Cz!\xffp*@'
p103
tp104
Rp105
ag10
(g14
S'\xac&\x05@?\xae,@'
p106
tp107
Rp108
ag10
(g14
S'&\xf2\x8aL\xac\xcd,@'
p109
tp110
Rp111
ag10
(g14
S'\x15\xdbQ\xb4\x10\n,@'
p112
tp113
Rp114
ag10
(g14
S'Rv(\r\x1di+@'
p115
tp116
Rp117
ag10
(g14
S'8\xf2\x95\x0f\x16W+@'
p118
tp119
Rp120
ag10
(g14
S'5}\x82K\x15\xed+@'
p121
tp122
Rp123
ag10
(g14
S'\xda\xe5\t\x86l\xf4+@'
p124
tp125
Rp126
ag10
(g14
S'\xefL\x97cl\x14-@'
p127
tp128
Rp129
ag10
(g14
S'\xd8\x9d\xe8\xcca\x030@'
p130
tp131
Rp132
ag10
(g14
S'\x13\xddf9MA*@'
p133
tp134
Rp135
ag10
(g14
S'\xc2k\x14B\xbd\x98+@'
p136
tp137
Rp138
asssss.