(dp0
S'../Data/sqlite_91.csv'
p1
(dp2
S'../Data/sqlite_33.csv'
p3
(dp4
F0.15
(dp5
S'abs_res'
p6
(dp7
S'bellwether'
p8
(lp9
cnumpy.core.multiarray
scalar
p10
(cnumpy
dtype
p11
(S'f8'
p12
I0
I1
tp13
Rp14
(I3
S'<'
p15
NNNI-1
I-1
I0
tp16
bS'\xd9x\xe9\xe6Nb%A'
p17
tp18
Rp19
ag10
(g14
S'\xb9t\x93X\xf4J%A'
p20
tp21
Rp22
ag10
(g14
S'C\xb6\xf3}\x08O%A'
p23
tp24
Rp25
ag10
(g14
S'\xf2|?u\xd0`%A'
p26
tp27
Rp28
ag10
(g14
S'$1\x08\xac\xb4o%A'
p29
tp30
Rp31
ag10
(g14
S'\x8aPF\xefIg%A'
p32
tp33
Rp34
ag10
(g14
S'v\xbe\x9f\x9ayU%A'
p35
tp36
Rp37
ag10
(g14
S'Ao\xcb\x1a\\[%A'
p38
tp39
Rp40
ag10
(g14
S'\rg\x1f>\xe7b%A'
p41
tp42
Rp43
ag10
(g14
S'\xf9S\xe3e\xccr%A'
p44
tp45
Rp46
ag10
(g14
S'\x9e\xc4 0\xdfr%A'
p47
tp48
Rp49
ag10
(g14
S'\xafT\x9c\xfd\xe3J%A'
p50
tp51
Rp52
ag10
(g14
S'\xddz\x14\xeePK%A'
p53
tp54
Rp55
ag10
(g14
S'\x86\xebQ8\x12h%A'
p56
tp57
Rp58
ag10
(g14
S'\x88\xf8\x0c;\x80f%A'
p59
tp60
Rp61
ag10
(g14
S'\xb5\xf3\xfd\x148c%A'
p62
tp63
Rp64
ag10
(g14
S'|\xa4)\x95\xbbU%A'
p65
tp66
Rp67
ag10
(g14
S'>\n\xd7c\xd7M%A'
p68
tp69
Rp70
ag10
(g14
S'efff\xcd[%A'
p71
tp72
Rp73
ag10
(g14
S'\x97n\x12\x03\x08t%A'
p74
tp75
Rp76
asS'target'
p77
(lp78
g10
(g14
S'?\xb4\xc8v\xbe\x8fM@'
p79
tp80
Rp81
ag10
(g14
S'\xf0(\\\x8f\xc2\xc5O@'
p82
tp83
Rp84
ag10
(g14
S'\xd4\xcc\xcc\xcc\xccLL@'
p85
tp86
Rp87
ag10
(g14
S'\xd3\xf9~j\xbc\xa4K@'
p88
tp89
Rp90
ag10
(g14
S'\x98\x1a/\xdd$\xb6L@'
p91
tp92
Rp93
ag10
(g14
S'th\x91\xed|\x7fP@'
p94
tp95
Rp96
ag10
(g14
S'\xb5I\x0c\x02+\xdfP@'
p97
tp98
Rp99
ag10
(g14
S'%\xb2\x9d\xef\xa7\x16M@'
p100
tp101
Rp102
ag10
(g14
S'f\x10X9\xb4\x88N@'
p103
tp104
Rp105
ag10
(g14
S':\xb4\xc8v\xbeWL@'
p106
tp107
Rp108
ag10
(g14
S'v\x12\x83\xc0\xca\x01N@'
p109
tp110
Rp111
ag10
(g14
S'C\xe1z\x14\xae\x07L@'
p112
tp113
Rp114
ag10
(g14
S'_\xbaI\x0c\x02\xfbN@'
p115
tp116
Rp117
ag10
(g14
S'{\x95C\x8bl\xe7J@'
p118
tp119
Rp120
ag10
(g14
S'\n\xd5x\xe9&aO@'
p121
tp122
Rp123
ag10
(g14
S'\xc0\x1e\x85\xebQ\x88L@'
p124
tp125
Rp126
ag10
(g14
S'\xff(\\\x8f\xc2\xd5K@'
p127
tp128
Rp129
ag10
(g14
S'Y\xe3\xa5\x9b\xc4\x18P@'
p130
tp131
Rp132
ag10
(g14
S'\xa3p=\n\xd7SQ@'
p133
tp134
Rp135
ag10
(g14
S'\xf2\xa7\xc6K7\xf1M@'
p136
tp137
Rp138
asssss.