(dp0
S'../Data/sqlite_63.csv'
p1
(dp2
S'../Data/sqlite_91.csv'
p3
(dp4
F0.25
(dp5
S'mmre'
p6
(dp7
S'bellwether'
p8
(lp9
cnumpy.core.multiarray
scalar
p10
(cnumpy
dtype
p11
(S'f8'
p12
I0
I1
tp13
Rp14
(I3
S'<'
p15
NNNI-1
I-1
I0
tp16
bS'\x86\xdb\x83\xf1Z9W@'
p17
tp18
Rp19
ag10
(g14
S'gy\xbd\xad\xbeTW@'
p20
tp21
Rp22
ag10
(g14
S'SuD\xac\xe5XW@'
p23
tp24
Rp25
ag10
(g14
S'>\xf1_\x934AW@'
p26
tp27
Rp28
ag10
(g14
S'\x00\xad\xe2\x01 CW@'
p29
tp30
Rp31
ag10
(g14
S'u\x062h\xa9IW@'
p32
tp33
Rp34
ag10
(g14
S'\xbam\\&\xa68W@'
p35
tp36
Rp37
ag10
(g14
S'(e\x15/VKW@'
p38
tp39
Rp40
ag10
(g14
S'>q\xe0\x80\xd4dW@'
p41
tp42
Rp43
ag10
(g14
S';\xb3ik\xedZW@'
p44
tp45
Rp46
ag10
(g14
S'\x15\x8d\x86rxMW@'
p47
tp48
Rp49
ag10
(g14
S'O\xc1\x1bkFOW@'
p50
tp51
Rp52
ag10
(g14
S'\xdf\xb2\x1c\xc1\x9eQW@'
p53
tp54
Rp55
ag10
(g14
S'@\x86\xbe\xe3\xd0@W@'
p56
tp57
Rp58
ag10
(g14
S'\xb2h\xdd\xc2\xceCW@'
p59
tp60
Rp61
ag10
(g14
S'\xd3\xdf\x86\xddmGW@'
p62
tp63
Rp64
ag10
(g14
S'\x1fi\x99\x0e\xbeIW@'
p65
tp66
Rp67
ag10
(g14
S'\xb5\xf4c#\x80@W@'
p68
tp69
Rp70
ag10
(g14
S'\xcd\xcc\xdb\xcd\x0fRW@'
p71
tp72
Rp73
ag10
(g14
S'1\xb7\xfe\xb1kaW@'
p74
tp75
Rp76
asS'target'
p77
(lp78
g10
(g14
S'\x1e\x07\xea\xdf]\x89R@'
p79
tp80
Rp81
ag10
(g14
S'<\xcbP\t\xaf\xd1P@'
p82
tp83
Rp84
ag10
(g14
S'Z#\xbd\xad)\x0bO@'
p85
tp86
Rp87
ag10
(g14
S'\x13\n\xca0,\x0cR@'
p88
tp89
Rp90
ag10
(g14
S'$\xbd\xc6\xbb\xbblQ@'
p91
tp92
Rp93
ag10
(g14
S'!L\x01##HQ@'
p94
tp95
Rp96
ag10
(g14
S'G3\x07#\tpQ@'
p97
tp98
Rp99
ag10
(g14
S'\xa5w\xb9\xa4\xec\xceQ@'
p100
tp101
Rp102
ag10
(g14
S'@\t\x1f\xfbj\x10N@'
p103
tp104
Rp105
ag10
(g14
S'\xceN\x13\x1e\x9eIK@'
p106
tp107
Rp108
ag10
(g14
S'\x07T$\xab\x1f`N@'
p109
tp110
Rp111
ag10
(g14
S'\x02\x8b\x8f\xa5\xdc\xeaP@'
p112
tp113
Rp114
ag10
(g14
S'\xb4zc\xc9\x15\xf8M@'
p115
tp116
Rp117
ag10
(g14
S'\xe1A\xac{X\xf7Q@'
p118
tp119
Rp120
ag10
(g14
S'\x05z\xb2\xda\x9dMQ@'
p121
tp122
Rp123
ag10
(g14
S'\x0e\x9eB\xdb<KO@'
p124
tp125
Rp126
ag10
(g14
S'B\xb3m\xc8x\xf9N@'
p127
tp128
Rp129
ag10
(g14
S'\x8fWH,\xdcZR@'
p130
tp131
Rp132
ag10
(g14
S' \x16]\xc4\xe0\x1cQ@'
p133
tp134
Rp135
ag10
(g14
S'\x9e\xa0\xcc\xa1d\xdbN@'
p136
tp137
Rp138
asssss.