(dp0
S'../Data/sqlite_66.csv'
p1
(dp2
S'../Data/sqlite_88.csv'
p3
(dp4
F0.4
(dp5
S'abs_res'
p6
(dp7
S'bellwether'
p8
(lp9
cnumpy.core.multiarray
scalar
p10
(cnumpy
dtype
p11
(S'f8'
p12
I0
I1
tp13
Rp14
(I3
S'<'
p15
NNNI-1
I-1
I0
tp16
bS'}ww\x8f\x99FYA'
p17
tp18
Rp19
ag10
(g14
S'U\xf2\x8b\xbd\xe7\x1bYA'
p20
tp21
Rp22
ag10
(g14
S'\xd9z\x14\x16\xa6\nYA'
p23
tp24
Rp25
ag10
(g14
S'6\xd0i\xc35\xd3XA'
p26
tp27
Rp28
ag10
(g14
S'<\xd0iS\xe1-YA'
p29
tp30
Rp31
ag10
(g14
S"D\xe1z,U'YA"
p32
tp33
Rp34
ag10
(g14
S'tww\x8f\xe5\x07YA'
p35
tp36
Rp37
ag10
(g14
S'\xf4\x8b%GO\x01YA'
p38
tp39
Rp40
ag10
(g14
S'\x8b\xfcbYb\x00YA'
p41
tp42
Rp43
ag10
(g14
S'I~\xb1\xbc\x1c&YA'
p44
tp45
Rp46
ag10
(g14
S".\xf9\xc5\xea\xdf'YA"
p47
tp48
Rp49
ag10
(g14
S'M\xa7\rT\x0f\x00YA'
p50
tp51
Rp52
ag10
(g14
S'p\xda@G0\xeeXA'
p53
tp54
Rp55
ag10
(g14
S'\xd7@\xa7}\r\xd5XA'
p56
tp57
Rp58
ag10
(g14
S'(\xbfX\xda\x04\x10YA'
p59
tp60
Rp61
ag10
(g14
S'ZUU\xed\xedjYA'
p62
tp63
Rp64
ag10
(g14
S'\xb3\xe4\x17;\x9cZYA'
p65
tp66
Rp67
ag10
(g14
S'\xc0\x92_D\xfe\x0eYA'
p68
tp69
Rp70
ag10
(g14
S'^,\xf9%3\x91YA'
p71
tp72
Rp73
ag10
(g14
S'6\xd0i\xabP8YA'
p74
tp75
Rp76
asS'target'
p77
(lp78
g10
(g14
S'\xb9\x1e\x85k@\xda(A'
p79
tp80
Rp81
ag10
(g14
S'\xd7\xa3p=\xd1$)A'
p82
tp83
Rp84
ag10
(g14
S'\xadG\xe1\xfa\xe6\x1a/A'
p85
tp86
Rp87
ag10
(g14
S'\x1c\x85\xeb\xd1\x0fO/A'
p88
tp89
Rp90
ag10
(g14
S'[\x8f\xc2u\x19_)A'
p91
tp92
Rp93
ag10
(g14
S'\xf5(\\\x0f\x10n-A'
p94
tp95
Rp96
ag10
(g14
S'\xa0p=\nW\xe3,A'
p97
tp98
Rp99
ag10
(g14
S'\xc5\xf5(\\D\xe5*A'
p100
tp101
Rp102
ag10
(g14
S'\x14\xaeG\xe1\x1b\xd9(A'
p103
tp104
Rp105
ag10
(g14
S'\xe3z\x14.\xa9\xb9&A'
p106
tp107
Rp108
ag10
(g14
S'\xf5(\\\x0f\x82^/A'
p109
tp110
Rp111
ag10
(g14
S'\x90\xc2\xf5(u\x99(A'
p112
tp113
Rp114
ag10
(g14
S'\xf4(\\\x8f\x07:,A'
p115
tp116
Rp117
ag10
(g14
S'o=\nW\xc3u(A'
p118
tp119
Rp120
ag10
(g14
S' \x85\xeb\xd1\x12 +A'
p121
tp122
Rp123
ag10
(g14
S'\xacG\xe1z\xd9%/A'
p124
tp125
Rp126
ag10
(g14
S'\xa2p=Jcs0A'
p127
tp128
Rp129
ag10
(g14
S'y\x14\xae\x07\xb9\x860A'
p130
tp131
Rp132
ag10
(g14
S")\\\x8fB\xa5W'A"
p133
tp134
Rp135
ag10
(g14
S'\xf4(\\\x8f\x0e\xd9+A'
p136
tp137
Rp138
asssss.