(dp0
S'../Data/sqlite_2.csv'
p1
(dp2
S'../Data/sqlite_62.csv'
p3
(dp4
F0.1
(dp5
S'mmre'
p6
(dp7
S'bellwether'
p8
(lp9
cnumpy.core.multiarray
scalar
p10
(cnumpy
dtype
p11
(S'f8'
p12
I0
I1
tp13
Rp14
(I3
S'<'
p15
NNNI-1
I-1
I0
tp16
bS'\xd6\xc8\xf5\x1b\xec5V@'
p17
tp18
Rp19
ag10
(g14
S'\xf9L\xea\x9a\xca4V@'
p20
tp21
Rp22
ag10
(g14
S'Q&f\x8c\xfd5V@'
p23
tp24
Rp25
ag10
(g14
S'5\xc7\x08\xd5&6V@'
p26
tp27
Rp28
ag10
(g14
S'F"=\xae\x8c6V@'
p29
tp30
Rp31
ag10
(g14
S'~:\xe4\x93\xb56V@'
p32
tp33
Rp34
ag10
(g14
S'\xc3\xa8\xd2\r\xd15V@'
p35
tp36
Rp37
ag10
(g14
S'\x88\xdd<\xf6x5V@'
p38
tp39
Rp40
ag10
(g14
S'\xaa\xca\xef\xdcM6V@'
p41
tp42
Rp43
ag10
(g14
S'\xf4\x92\xe5rW6V@'
p44
tp45
Rp46
ag10
(g14
S'4\x92I\xb4\xaa5V@'
p47
tp48
Rp49
ag10
(g14
S'\x1d\x02\xe0d\xbf5V@'
p50
tp51
Rp52
ag10
(g14
S'\x02\xf4&\xddo6V@'
p53
tp54
Rp55
ag10
(g14
S'\xe5\xa9\xf6\xf2\xb54V@'
p56
tp57
Rp58
ag10
(g14
S'\x8a\xa4\xb0\xfb06V@'
p59
tp60
Rp61
ag10
(g14
S'i\xa0\xb0~)4V@'
p62
tp63
Rp64
ag10
(g14
S'\xef\xb8k\xc0\x995V@'
p65
tp66
Rp67
ag10
(g14
S'g\xb7\xb4\x98q5V@'
p68
tp69
Rp70
ag10
(g14
S'g\xae6\x9a\xef5V@'
p71
tp72
Rp73
ag10
(g14
S'\x8a\x804t\xd85V@'
p74
tp75
Rp76
asS'target'
p77
(lp78
g10
(g14
S'\x9a]q\xff\xcf.!@'
p79
tp80
Rp81
ag10
(g14
S'\xb6\xf3;\x0e>\x82"@'
p82
tp83
Rp84
ag10
(g14
S'\xf4\n\xb4\xea$f!@'
p85
tp86
Rp87
ag10
(g14
S'7gpF\xb9\xbf @'
p88
tp89
Rp90
ag10
(g14
S'\t\x99C\xfa[\x9a"@'
p91
tp92
Rp93
ag10
(g14
S'\xd9\xb7\x10j3a @'
p94
tp95
Rp96
ag10
(g14
S'\nQn\xeb\xd48 @'
p97
tp98
Rp99
ag10
(g14
S'\xd8\x91"_u+"@'
p100
tp101
Rp102
ag10
(g14
S'70\x80\xd28\xd4!@'
p103
tp104
Rp105
ag10
(g14
S'\x15<`\xd43- @'
p106
tp107
Rp108
ag10
(g14
S'\x0b\x8e\xac\xf3\x9f\xae @'
p109
tp110
Rp111
ag10
(g14
S'{\xfc\xff\xce5\xa9"@'
p112
tp113
Rp114
ag10
(g14
S'\xf1\xee\xc0kge!@'
p115
tp116
Rp117
ag10
(g14
S'\xf6\xadR<>\xdd"@'
p118
tp119
Rp120
ag10
(g14
S'\xa3/B\x8c+\xab @'
p121
tp122
Rp123
ag10
(g14
S'+P\xfd\x8fL\xbb#@'
p124
tp125
Rp126
ag10
(g14
S'8?7\xa8a\xad!@'
p127
tp128
Rp129
ag10
(g14
S'\xf6\xbe$\xa3&\xc6 @'
p130
tp131
Rp132
ag10
(g14
S't\x01\x9b^\x7f\xad$@'
p133
tp134
Rp135
ag10
(g14
S'\tj\x010Mk!@'
p136
tp137
Rp138
asssss.