(dp0
S'../Data/sqlite_71.csv'
p1
(dp2
S'../Data/sqlite_36.csv'
p3
(dp4
F0.2
(dp5
S'abs_res'
p6
(dp7
S'bellwether'
p8
(lp9
cnumpy.core.multiarray
scalar
p10
(cnumpy
dtype
p11
(S'f8'
p12
I0
I1
tp13
Rp14
(I3
S'<'
p15
NNNI-1
I-1
I0
tp16
bS'g\xc9/\xc6\x1cbkA'
p17
tp18
Rp19
ag10
(g14
S'\xc5\xae\x00\xa5\x8fikA'
p20
tp21
Rp22
ag10
(g14
S"|\x842\xde'_kA"
p23
tp24
Rp25
ag10
(g14
S'\xe7z\x14\x96\xcbTkA'
p26
tp27
Rp28
ag10
(g14
S'\x16\xe6\x89\x82\x90nkA'
p29
tp30
Rp31
ag10
(g14
S'\xcbK7\xfdN`kA'
p32
tp33
Rp34
ag10
(g14
S'\x8c\xc2\xf5\xb0\x18UkA'
p35
tp36
Rp37
ag10
(g14
S'\xc5\xca\xa1\x8dzlkA'
p38
tp39
Rp40
ag10
(g14
S'\x1a/\xdd\xfcj_kA'
p41
tp42
Rp43
ag10
(g14
S'\x98\xfcb\x01[jkA'
p44
tp45
Rp46
ag10
(g14
S'\x0fISf1_kA'
p47
tp48
Rp49
ag10
(g14
S'\x06:m\xe8&_kA'
p50
tp51
Rp52
ag10
(g14
S'\x92PF\xa7\xabZkA'
p53
tp54
Rp55
ag10
(g14
S'\xfe\xd4x}CRkA'
p56
tp57
Rp58
ag10
(g14
S'5^\xba\xa1\x9fmkA'
p59
tp60
Rp61
ag10
(g14
S'\xda\xcc\xccd\xbfokA'
p62
tp63
Rp64
ag10
(g14
S'A\n\xd7\xdf\xa0gkA'
p65
tp66
Rp67
ag10
(g14
S'x!i\xfe\x13skA'
p68
tp69
Rp70
ag10
(g14
S'0ku\x0c\x96_kA'
p71
tp72
Rp73
ag10
(g14
S'\x08G(\xcb>WkA'
p74
tp75
Rp76
asS'target'
p77
(lp78
g10
(g14
S'\x97l\xe7\xfb\xa9\xa9W@'
p79
tp80
Rp81
ag10
(g14
S'\x9aC\x8bl\xe7+V@'
p82
tp83
Rp84
ag10
(g14
S'9\xdfO\x8d\x97.X@'
p85
tp86
Rp87
ag10
(g14
S'\x99n\x12\x83\xc0\xdaU@'
p88
tp89
Rp90
ag10
(g14
S'\xc8t\x93\x18\x04\xdeW@'
p91
tp92
Rp93
ag10
(g14
S'\x05\x81\x95C\x8blV@'
p94
tp95
Rp96
ag10
(g14
S'\x00\x7fj\xbct\xa7W@'
p97
tp98
Rp99
ag10
(g14
S'\xb3rh\x91\xed4Y@'
p100
tp101
Rp102
ag10
(g14
S'\x1cZd;\xdf\xd3W@'
p103
tp104
Rp105
ag10
(g14
S'}\x93\x18\x04V\xdeV@'
p106
tp107
Rp108
ag10
(g14
S'\xca\xf5(\\\x8f\x8aW@'
p109
tp110
Rp111
ag10
(g14
S'\xab\x9b\xc4 \xb0\xa2W@'
p112
tp113
Rp114
ag10
(g14
S'M\xe1z\x14\xae\x0fW@'
p115
tp116
Rp117
ag10
(g14
S'-3333\x0bW@'
p118
tp119
Rp120
ag10
(g14
S'C5^\xbaI\xecV@'
p121
tp122
Rp123
ag10
(g14
S'\x81\xc0\xca\xa1E6W@'
p124
tp125
Rp126
ag10
(g14
S'\x1eZd;\xdf\xffV@'
p127
tp128
Rp129
ag10
(g14
S'M\x8bl\xe7\xfb\xadX@'
p130
tp131
Rp132
ag10
(g14
S'N7\x89A`\xadV@'
p133
tp134
Rp135
ag10
(g14
S'\xe2$\x06\x81\x95\xfbU@'
p136
tp137
Rp138
asssss.