(dp0
S'../Data/sqlite_58.csv'
p1
(dp2
S'../Data/sqlite_93.csv'
p3
(dp4
F0.1
(dp5
S'mmre'
p6
(dp7
S'bellwether'
p8
(lp9
cnumpy.core.multiarray
scalar
p10
(cnumpy
dtype
p11
(S'f8'
p12
I0
I1
tp13
Rp14
(I3
S'<'
p15
NNNI-1
I-1
I0
tp16
bS'P\xdf\xa0&\x110g@'
p17
tp18
Rp19
ag10
(g14
S'\x10\xc3\x02i\x89Dg@'
p20
tp21
Rp22
ag10
(g14
S'0V\x8d\xa7vRg@'
p23
tp24
Rp25
ag10
(g14
S'ps\x89\xa1\xf1$g@'
p26
tp27
Rp28
ag10
(g14
S'\xa4B\xb6\x1d\xceAg@'
p29
tp30
Rp31
ag10
(g14
S'\x8aXD\xc7l0g@'
p32
tp33
Rp34
ag10
(g14
S'2IG\xac\xd3\x16g@'
p35
tp36
Rp37
ag10
(g14
S'Rk\xb1\xb5\xe4Rg@'
p38
tp39
Rp40
ag10
(g14
S'\xcaLE"u\x11g@'
p41
tp42
Rp43
ag10
(g14
S'\x17P~\xdc\x870g@'
p44
tp45
Rp46
ag10
(g14
S'yd\x0b\xe6\x89Og@'
p47
tp48
Rp49
ag10
(g14
S's\xe6\x16h\xaf\x04g@'
p50
tp51
Rp52
ag10
(g14
S'z\xb4ye\xbf\x19g@'
p53
tp54
Rp55
ag10
(g14
S'\x9b&\xbb\x80&8g@'
p56
tp57
Rp58
ag10
(g14
S'\xd6c(O\x06\x16g@'
p59
tp60
Rp61
ag10
(g14
S'Y\xf8Kp\x04Fg@'
p62
tp63
Rp64
ag10
(g14
S'T\x9cv\x89\xcd"g@'
p65
tp66
Rp67
ag10
(g14
S'\x00h\x7f\x0f\x82/g@'
p68
tp69
Rp70
ag10
(g14
S'\x87\x91ez61g@'
p71
tp72
Rp73
ag10
(g14
S'\x8c\xfe\xacY\xddGg@'
p74
tp75
Rp76
asS'target'
p77
(lp78
g10
(g14
S'\x9f\xcft=\x97\x86P@'
p79
tp80
Rp81
ag10
(g14
S']\xaa\xc9\xa3\xb3\xa8^@'
p82
tp83
Rp84
ag10
(g14
S'\x10V[\xcf\x84\xe9H@'
p85
tp86
Rp87
ag10
(g14
S'\xe1\xcf50\x10\xdaD@'
p88
tp89
Rp90
ag10
(g14
S'\x84`\x8c\xe5\x8b_T@'
p91
tp92
Rp93
ag10
(g14
S'\x9e\xe7Nm=S\\@'
p94
tp95
Rp96
ag10
(g14
S'\xf9\xb2\x13\xcd\x94lY@'
p97
tp98
Rp99
ag10
(g14
S'3\xe1\x8e\x9b\x98\xadR@'
p100
tp101
Rp102
ag10
(g14
S'\xefK\xc6G1+Q@'
p103
tp104
Rp105
ag10
(g14
S'\x9fz(\x9d?.E@'
p106
tp107
Rp108
ag10
(g14
S':\x91\x13\x1e\x8d&`@'
p109
tp110
Rp111
ag10
(g14
S'\xd8\xda\nm\x0fiL@'
p112
tp113
Rp114
ag10
(g14
S'g+\\\xd6\x84\x1eM@'
p115
tp116
Rp117
ag10
(g14
S'\x03cT\x1e\xd3iE@'
p118
tp119
Rp120
ag10
(g14
S'k*\xf2\xa0\xcd\xb6N@'
p121
tp122
Rp123
ag10
(g14
S'L5\x9c\xfb\xc3RF@'
p124
tp125
Rp126
ag10
(g14
S'@\x00{!\x0f8V@'
p127
tp128
Rp129
ag10
(g14
S'\xa7e\xbf\\\x8d\xc3\\@'
p130
tp131
Rp132
ag10
(g14
S'\xf2\x8eJ\x13\x93\x02Q@'
p133
tp134
Rp135
ag10
(g14
S'<\xd0\xf8\xeb\xfa\xbaW@'
p136
tp137
Rp138
asssss.