(dp0
S'../Data/sqlite_2.csv'
p1
(dp2
S'../Data/sqlite_97.csv'
p3
(dp4
F0.1
(dp5
S'mmre'
p6
(dp7
S'bellwether'
p8
(lp9
cnumpy.core.multiarray
scalar
p10
(cnumpy
dtype
p11
(S'f8'
p12
I0
I1
tp13
Rp14
(I3
S'<'
p15
NNNI-1
I-1
I0
tp16
bS'@\x96L|\x88|W@'
p17
tp18
Rp19
ag10
(g14
S'\xbfl\x7f[\xcf{W@'
p20
tp21
Rp22
ag10
(g14
S'9\x1an,\x8dzW@'
p23
tp24
Rp25
ag10
(g14
S'DW\x99|\xda|W@'
p26
tp27
Rp28
ag10
(g14
S'\x0e\x9d\x8eL\xe9zW@'
p29
tp30
Rp31
ag10
(g14
S'`\x1e\xbd\x03=|W@'
p32
tp33
Rp34
ag10
(g14
S'\x0f\x00s\xa7\x86yW@'
p35
tp36
Rp37
ag10
(g14
S'\xc7\x85AN\x9bxW@'
p38
tp39
Rp40
ag10
(g14
S'Q\t\xfcz\xf7yW@'
p41
tp42
Rp43
ag10
(g14
S'"\xca#\xd5\x1ezW@'
p44
tp45
Rp46
ag10
(g14
S'\xe2B!\t\x00|W@'
p47
tp48
Rp49
ag10
(g14
S'\xf5[0`\x0c}W@'
p50
tp51
Rp52
ag10
(g14
S'\xdd\xd1i\x81\x08yW@'
p53
tp54
Rp55
ag10
(g14
S'apY\x034|W@'
p56
tp57
Rp58
ag10
(g14
S'\x05M*m6|W@'
p59
tp60
Rp61
ag10
(g14
S'\xfeY\xfa~R}W@'
p62
tp63
Rp64
ag10
(g14
S'\x96\x0by:\xd6{W@'
p65
tp66
Rp67
ag10
(g14
S'\x82\xdd\xc1\xe4\x18zW@'
p68
tp69
Rp70
ag10
(g14
S'y9#0\x13{W@'
p71
tp72
Rp73
ag10
(g14
S'\xa2|\x8aE\x04zW@'
p74
tp75
Rp76
asS'target'
p77
(lp78
g10
(g14
S'#\xb7=pZ|Z@'
p79
tp80
Rp81
ag10
(g14
S'\x15\xf6\xd1#y\xf8G@'
p82
tp83
Rp84
ag10
(g14
S'yZ9{\x14\x9fQ@'
p85
tp86
Rp87
ag10
(g14
S'IS\xfc\x13\xc3#R@'
p88
tp89
Rp90
ag10
(g14
S'\x88\xea\xf8\xbeB\x98[@'
p91
tp92
Rp93
ag10
(g14
S'\x07\xb5\xf7\xb3\x95J\\@'
p94
tp95
Rp96
ag10
(g14
S'\x04K\xde\x18\xed\x12W@'
p97
tp98
Rp99
ag10
(g14
S'\xb9K\xdc\xcf5\x8eh@'
p100
tp101
Rp102
ag10
(g14
S'\xdc\xbc/\xbe\xb8\xd9W@'
p103
tp104
Rp105
ag10
(g14
S'c\xfe\xd9K(Tc@'
p106
tp107
Rp108
ag10
(g14
S') \t E\x85D@'
p109
tp110
Rp111
ag10
(g14
S'6\xb6s\xf92\xb3P@'
p112
tp113
Rp114
ag10
(g14
S'\xee\xa0\xa0Y+\xf1U@'
p115
tp116
Rp117
ag10
(g14
S'\x7f\x89\x9e\xa6\x0c_C@'
p118
tp119
Rp120
ag10
(g14
S'\xce\xcd\xc4\x9c\x8c\x86R@'
p121
tp122
Rp123
ag10
(g14
S'\xee\xd2\x1dCI\x8aM@'
p124
tp125
Rp126
ag10
(g14
S'er-\xd6\x06\n[@'
p127
tp128
Rp129
ag10
(g14
S'\xaa\xc4*\xb2\xb1)_@'
p130
tp131
Rp132
ag10
(g14
S'\x0c|\xe5\xdd\x19\xadP@'
p133
tp134
Rp135
ag10
(g14
S'\xda\x10\x18\xfc\xf9\x99H@'
p136
tp137
Rp138
asssss.