(dp0
S'../Data/sqlite_4.csv'
p1
(dp2
S'../Data/sqlite_82.csv'
p3
(dp4
F0.25
(dp5
S'abs_res'
p6
(dp7
S'bellwether'
p8
(lp9
cnumpy.core.multiarray
scalar
p10
(cnumpy
dtype
p11
(S'f8'
p12
I0
I1
tp13
Rp14
(I3
S'<'
p15
NNNI-1
I-1
I0
tp16
bS'\x16g\x1f\x1e\xafj<A'
p17
tp18
Rp19
ag10
(g14
S'cW\x80\x9c\x15k<A'
p20
tp21
Rp22
ag10
(g14
S')""\xe2uk<A'
p23
tp24
Rp25
ag10
(g14
S'\xc3\x1e\x85\xcb\x9ej<A'
p26
tp27
Rp28
ag10
(g14
S'O\xe3\xa5;\xc4j<A'
p29
tp30
Rp31
ag10
(g14
S'\x13\x9fa\xd7gi<A'
p32
tp33
Rp34
ag10
(g14
S'I\xe1zT\xaej<A'
p35
tp36
Rp37
ag10
(g14
S'm\xaf\xb9p\x8fi<A'
p38
tp39
Rp40
ag10
(g14
S'\x8c]\x01r+l<A'
p41
tp42
Rp43
ag10
(g14
S'\xffo\x84r\xc1l<A'
p44
tp45
Rp46
ag10
(g14
S"\xabc\x82g'l<A"
p47
tp48
Rp49
ag10
(g14
S'k\x842\xba\xfbk<A'
p50
tp51
Rp52
ag10
(g14
S'\x8a\x97n\xf2%j<A'
p53
tp54
Rp55
ag10
(g14
S'H\n\xd7#bl<A'
p56
tp57
Rp58
ag10
(g14
S'\xf9\x9a\x0biOl<A'
p59
tp60
Rp61
ag10
(g14
S'.\xf9\xc52\xe7i<A'
p62
tp63
Rp64
ag10
(g14
S'o\x12\x83\xa0\xc6i<A'
p65
tp66
Rp67
ag10
(g14
S'd\xd6\xea\xf8dl<A'
p68
tp69
Rp70
ag10
(g14
S'\xed\x98\xe0\x01hj<A'
p71
tp72
Rp73
ag10
(g14
S'\xcdMb0\xf9i<A'
p74
tp75
Rp76
asS'target'
p77
(lp78
g10
(g14
S'\xbfK7\x89A)\x80@'
p79
tp80
Rp81
ag10
(g14
S'X;\xdfO\x8d\xa9~@'
p82
tp83
Rp84
ag10
(g14
S'\xf8S\xe3\xa5\x9b\x08{@'
p85
tp86
Rp87
ag10
(g14
S'\x11\x81\x95C\x8b\x8a~@'
p88
tp89
Rp90
ag10
(g14
S'\x15\x04V\x0e-){@'
p91
tp92
Rp93
ag10
(g14
S'\xb4\xc8v\xbe\x9fBv@'
p94
tp95
Rp96
ag10
(g14
S'\xa6\xc6K7\x89>|@'
p97
tp98
Rp99
ag10
(g14
S'\xb0\x9d\xef\xa7\xc6\xd3x@'
p100
tp101
Rp102
ag10
(g14
S'\x88l\xe7\xfb\xa9Sy@'
p103
tp104
Rp105
ag10
(g14
S'5\xdd$\x06\x81\x1b{@'
p106
tp107
Rp108
ag10
(g14
S'\xfc\xff\xff\xff\xff\x83|@'
p109
tp110
Rp111
ag10
(g14
S'@5^\xbaIv|@'
p112
tp113
Rp114
ag10
(g14
S'0\xb4\xc8v\xbe\xfd}@'
p115
tp116
Rp117
ag10
(g14
S'd\xc0\xca\xa1E:|@'
p118
tp119
Rp120
ag10
(g14
S'\xe0z\x14\xaeG\xf1{@'
p121
tp122
Rp123
ag10
(g14
S'\x19/\xdd$\x06\xe9|@'
p124
tp125
Rp126
ag10
(g14
S'\xcex\xe9&1^\x84@'
p127
tp128
Rp129
ag10
(g14
S'tj\xbct\x93\xc6|@'
p130
tp131
Rp132
ag10
(g14
S'\xe9(\\\x8f\xc2w\x82@'
p133
tp134
Rp135
ag10
(g14
S'\xe2\xa7\xc6K7\x0bu@'
p136
tp137
Rp138
asssss.