(dp0
S'../Data/sqlite_57.csv'
p1
(dp2
S'../Data/sqlite_8.csv'
p3
(dp4
F0.4
(dp5
S'abs_res'
p6
(dp7
S'bellwether'
p8
(lp9
cnumpy.core.multiarray
scalar
p10
(cnumpy
dtype
p11
(S'f8'
p12
I0
I1
tp13
Rp14
(I3
S'<'
p15
NNNI-1
I-1
I0
tp16
bS'\x80\x95C/HtaA'
p17
tp18
Rp19
ag10
(g14
S'effvk}aA'
p20
tp21
Rp22
ag10
(g14
S'x\xe9&1\xe5saA'
p23
tp24
Rp25
ag10
(g14
S'2\x89A\xbcL\x7faA'
p26
tp27
Rp28
ag10
(g14
S'\x17\xd9\xce\xc7@|aA'
p29
tp30
Rp31
ag10
(g14
S'l=\n\x7f\xc7}aA'
p32
tp33
Rp34
ag10
(g14
S'\xfa~j8KsaA'
p35
tp36
Rp37
ag10
(g14
S'c;\xdf\xa3\x9d~aA'
p38
tp39
Rp40
ag10
(g14
S'H\xe1z \xfevaA'
p41
tp42
Rp43
ag10
(g14
S'2\xdd$\xee\xaf~aA'
p44
tp45
Rp46
ag10
(g14
S'b;\xdf\xdb\xb1saA'
p47
tp48
Rp49
ag10
(g14
S'.\xdd$\x8afyaA'
p50
tp51
Rp52
ag10
(g14
S'\xb6\x9d\xef\xef\xd2vaA'
p53
tp54
Rp55
ag10
(g14
S'e\x10XQ#waA'
p56
tp57
Rp58
ag10
(g14
S'E\x8bl\xe7ppaA'
p59
tp60
Rp61
ag10
(g14
S'\xafrh=\xaasaA'
p62
tp63
Rp64
ag10
(g14
S'\xeb\xa7\xc6\xfb\xdf{aA'
p65
tp66
Rp67
ag10
(g14
S'\xe5&1\x0cZpaA'
p68
tp69
Rp70
ag10
(g14
S'~j\xbch\xfasaA'
p71
tp72
Rp73
ag10
(g14
S'\xa4p=\xba\x07\x81aA'
p74
tp75
Rp76
asS'target'
p77
(lp78
g10
(g14
S' Zd;\xdf\x07S@'
p79
tp80
Rp81
ag10
(g14
S'\x1aZd;\xdfkR@'
p82
tp83
Rp84
ag10
(g14
S'?\x8bl\xe7\xfb\xb9Q@'
p85
tp86
Rp87
ag10
(g14
S'K\xb6\xf3\xfd\xd4\xc0R@'
p88
tp89
Rp90
ag10
(g14
S'ad;\xdfO\x01S@'
p91
tp92
Rp93
ag10
(g14
S'#\x85\xebQ\xb8\x06S@'
p94
tp95
Rp96
ag10
(g14
S'\xe9\xd0"\xdb\xf9\x0eU@'
p97
tp98
Rp99
ag10
(g14
S'\xd3Mb\x10X\x89R@'
p100
tp101
Rp102
ag10
(g14
S'\xe4\xd0"\xdb\xf9^S@'
p103
tp104
Rp105
ag10
(g14
S'\xbaI\x0c\x02+GS@'
p106
tp107
Rp108
ag10
(g14
S'\xfb\xd4x\xe9&\xa1Q@'
p109
tp110
Rp111
ag10
(g14
S'\xda\xce\xf7S\xe3\x8dR@'
p112
tp113
Rp114
ag10
(g14
S'?\xfb\xf0\x19v\x99S@'
p115
tp116
Rp117
ag10
(g14
S'J\x0c\x02+\x87\xe6R@'
p118
tp119
Rp120
ag10
(g14
S'\xdf\xce\xf7S\xe3US@'
p121
tp122
Rp123
ag10
(g14
S'\xfb*\x87\x16\xd9\xbeR@'
p124
tp125
Rp126
ag10
(g14
S'\xddz\x14\xaeG\xb1S@'
p127
tp128
Rp129
ag10
(g14
S'\x81\xc0\xca\xa1E"R@'
p130
tp131
Rp132
ag10
(g14
S'\x80j\xbct\x93\xd8R@'
p133
tp134
Rp135
ag10
(g14
S'\xbc\xca\xa1E\xb6#R@'
p136
tp137
Rp138
asssss.