(dp0
S'../Data/sqlite_28.csv'
p1
(dp2
S'../Data/sqlite_85.csv'
p3
(dp4
F0.05
(dp5
S'mmre'
p6
(dp7
S'bellwether'
p8
(lp9
cnumpy.core.multiarray
scalar
p10
(cnumpy
dtype
p11
(S'f8'
p12
I0
I1
tp13
Rp14
(I3
S'<'
p15
NNNI-1
I-1
I0
tp16
bS'T\xf3\x88\x83\x19\xf2X@'
p17
tp18
Rp19
ag10
(g14
S';\xa1\xb6\x1f7\xf2X@'
p20
tp21
Rp22
ag10
(g14
S'v%\x87A%\xf2X@'
p23
tp24
Rp25
ag10
(g14
S'Y{\xae\x14D\xf2X@'
p26
tp27
Rp28
ag10
(g14
S'8T\xa8\xef.\xf2X@'
p29
tp30
Rp31
ag10
(g14
S'\tXl1\x1a\xf2X@'
p32
tp33
Rp34
ag10
(g14
S'@\x81O\x908\xf2X@'
p35
tp36
Rp37
ag10
(g14
S'-\xe3\x83\xe2\n\xf2X@'
p38
tp39
Rp40
ag10
(g14
S'X.\x05\xd2)\xf2X@'
p41
tp42
Rp43
ag10
(g14
S'w\xf4\xce\\$\xf2X@'
p44
tp45
Rp46
ag10
(g14
S'\x96v\x92m\x16\xf2X@'
p47
tp48
Rp49
ag10
(g14
S's\xda{\x1fB\xf2X@'
p50
tp51
Rp52
ag10
(g14
S'roW[d\xf2X@'
p53
tp54
Rp55
ag10
(g14
S'~\xead\xe0\x1d\xf2X@'
p56
tp57
Rp58
ag10
(g14
S'V\x11D\xb7N\xf2X@'
p59
tp60
Rp61
ag10
(g14
S'$\xbc\xbb\x89$\xf2X@'
p62
tp63
Rp64
ag10
(g14
S'\x81\x0f\x9ex\x12\xf2X@'
p65
tp66
Rp67
ag10
(g14
S'vj\xac2)\xf2X@'
p68
tp69
Rp70
ag10
(g14
S'\xc7\xf1uR+\xf2X@'
p71
tp72
Rp73
ag10
(g14
S':Iw\x90"\xf2X@'
p74
tp75
Rp76
asS'target'
p77
(lp78
g10
(g14
S"Hv\xdf\xde\xc5'R@"
p79
tp80
Rp81
ag10
(g14
S's\xf0r\x89g\xb1V@'
p82
tp83
Rp84
ag10
(g14
S'o\xdeNo\xf5\x96R@'
p85
tp86
Rp87
ag10
(g14
S'E\x9c\xf1\xd7x\x10S@'
p88
tp89
Rp90
ag10
(g14
S'\xaf\xbekKW\xa5S@'
p91
tp92
Rp93
ag10
(g14
S'n.=\xb0q\x8eT@'
p94
tp95
Rp96
ag10
(g14
S'O\x9bn\xff_\xa9U@'
p97
tp98
Rp99
ag10
(g14
S'`\xce\x16\xb8\n\xc2S@'
p100
tp101
Rp102
ag10
(g14
S'\xee\xdb\rF6!T@'
p103
tp104
Rp105
ag10
(g14
S"e\x14\\'f\x93T@"
p106
tp107
Rp108
ag10
(g14
S'\x08\xbfMhd\xaaQ@'
p109
tp110
Rp111
ag10
(g14
S'(ju7TeR@'
p112
tp113
Rp114
ag10
(g14
S'7\xca\x1e\xe8\xfe\x94Z@'
p115
tp116
Rp117
ag10
(g14
S'\xbb\xc9\x02\x82L\x10T@'
p118
tp119
Rp120
ag10
(g14
S'\xeaA\xca:Y\xd9S@'
p121
tp122
Rp123
ag10
(g14
S'y\x83:\x91/\xecR@'
p124
tp125
Rp126
ag10
(g14
S'\x8e\xe1&\xfc=sZ@'
p127
tp128
Rp129
ag10
(g14
S'3)o/\xb4`U@'
p130
tp131
Rp132
ag10
(g14
S'\x06\x8d\xb9c\x04\xbaS@'
p133
tp134
Rp135
ag10
(g14
S'\xbacAbVbS@'
p136
tp137
Rp138
asssss.