(dp0
S'../Data/sqlite_31.csv'
p1
(dp2
S'../Data/sqlite_91.csv'
p3
(dp4
F0.35
(dp5
S'mmre'
p6
(dp7
S'bellwether'
p8
(lp9
cnumpy.core.multiarray
scalar
p10
(cnumpy
dtype
p11
(S'f8'
p12
I0
I1
tp13
Rp14
(I3
S'<'
p15
NNNI-1
I-1
I0
tp16
bS'\x02J\xde\xc1hCX@'
p17
tp18
Rp19
ag10
(g14
S'\x11\x8cN\xed\xbcAX@'
p20
tp21
Rp22
ag10
(g14
S'\t\x10\xd7B\x1f;X@'
p23
tp24
Rp25
ag10
(g14
S'\xafUEL\x13,X@'
p26
tp27
Rp28
ag10
(g14
S'\xcc\x8a\xf6\xee\x04$X@'
p29
tp30
Rp31
ag10
(g14
S'j\xd8\xcf\xc1J?X@'
p32
tp33
Rp34
ag10
(g14
S'\xa0:Q\xa7S!X@'
p35
tp36
Rp37
ag10
(g14
S'G\x05N\x07 7X@'
p38
tp39
Rp40
ag10
(g14
S'V\x00W ]KX@'
p41
tp42
Rp43
ag10
(g14
S'5`\xd2DzAX@'
p44
tp45
Rp46
ag10
(g14
S'U\xf1*\xc4\x14CX@'
p47
tp48
Rp49
ag10
(g14
S'\xfc\n6\x1a^;X@'
p50
tp51
Rp52
ag10
(g14
S'\x92\xa7\x9b\xd6\xf9?X@'
p53
tp54
Rp55
ag10
(g14
S'L\x85\x92\x0c\nJX@'
p56
tp57
Rp58
ag10
(g14
S'\xcb\xb1G\xf3\xff$X@'
p59
tp60
Rp61
ag10
(g14
S'\xe7\xab\xe3\x90}GX@'
p62
tp63
Rp64
ag10
(g14
S'}i\xf3\xf9NEX@'
p65
tp66
Rp67
ag10
(g14
S'y\xc6\xe6\xb1#IX@'
p68
tp69
Rp70
ag10
(g14
S'\xd8\x8e~\xd8y2X@'
p71
tp72
Rp73
ag10
(g14
S'\xeb\xe2+D\x0b$X@'
p74
tp75
Rp76
asS'target'
p77
(lp78
g10
(g14
S'\xca@\xa1\x80\xe9\xf3I@'
p79
tp80
Rp81
ag10
(g14
S'"\x9c&\xa0b5M@'
p82
tp83
Rp84
ag10
(g14
S'n\x16\x1f5\xd7XP@'
p85
tp86
Rp87
ag10
(g14
S'q\xfc)\x9a\xdc\xd3Q@'
p88
tp89
Rp90
ag10
(g14
S'\x1d\xe4\xd5\x9b$xS@'
p91
tp92
Rp93
ag10
(g14
S'\x04b\xf1\x19\xda4N@'
p94
tp95
Rp96
ag10
(g14
S'\xf9$\\{9QT@'
p97
tp98
Rp99
ag10
(g14
S'\x94t%\x97==P@'
p100
tp101
Rp102
ag10
(g14
S'l\x88\x1f\x89W\xefG@'
p103
tp104
Rp105
ag10
(g14
S'9,\x8f\x008|K@'
p106
tp107
Rp108
ag10
(g14
S'\x88\x10T\x02\x18\x05O@'
p109
tp110
Rp111
ag10
(g14
S'\xccP\xec\xd1w\x0eN@'
p112
tp113
Rp114
ag10
(g14
S'v,1,\xf4\x85N@'
p115
tp116
Rp117
ag10
(g14
S'\xc0+D\x8d\xdf\xbaG@'
p118
tp119
Rp120
ag10
(g14
S'j\x04\x14\xa5j\xedS@'
p121
tp122
Rp123
ag10
(g14
S'eCo\xfcl\xd1J@'
p124
tp125
Rp126
ag10
(g14
S'\xf8\x01f\x90fkM@'
p127
tp128
Rp129
ag10
(g14
S'IF0\x1e\x82\x87K@'
p130
tp131
Rp132
ag10
(g14
S',.&w6\x02R@'
p133
tp134
Rp135
ag10
(g14
S'|W\xc5q\xe1\xfdS@'
p136
tp137
Rp138
asssss.