(dp0
S'../Data/sqlite_1.csv'
p1
(dp2
S'../Data/sqlite_95.csv'
p3
(dp4
F0.15
(dp5
S'mmre'
p6
(dp7
S'bellwether'
p8
(lp9
cnumpy.core.multiarray
scalar
p10
(cnumpy
dtype
p11
(S'f8'
p12
I0
I1
tp13
Rp14
(I3
S'<'
p15
NNNI-1
I-1
I0
tp16
bS'\x86\x7fea\xd48G@'
p17
tp18
Rp19
ag10
(g14
S'\x83\x00\xd1\xbf\xafmG@'
p20
tp21
Rp22
ag10
(g14
S',\xf4gXBJH@'
p23
tp24
Rp25
ag10
(g14
S'\xa9S\xc0R\xf6\xa3G@'
p26
tp27
Rp28
ag10
(g14
S'q\x8dv\xa9$;G@'
p29
tp30
Rp31
ag10
(g14
S'2s^\xc5\x96BG@'
p32
tp33
Rp34
ag10
(g14
S'AvO\x80\x00CG@'
p35
tp36
Rp37
ag10
(g14
S'\xd0\x0f6W\x94\x9cG@'
p38
tp39
Rp40
ag10
(g14
S'r\xa8\xc6\xef+\xf6G@'
p41
tp42
Rp43
ag10
(g14
S'U`\xce\x1e1JG@'
p44
tp45
Rp46
ag10
(g14
S'_)H\xca\x16XG@'
p47
tp48
Rp49
ag10
(g14
S'\xb1Ew!\xab\xe5G@'
p50
tp51
Rp52
ag10
(g14
S'\xd9\\\xf0\xdb\xeeBG@'
p53
tp54
Rp55
ag10
(g14
S'nE\xe0:o&G@'
p56
tp57
Rp58
ag10
(g14
S'\xfc\xe5\xae0\xa1HG@'
p59
tp60
Rp61
ag10
(g14
S'S\x1au\xa6Q3G@'
p62
tp63
Rp64
ag10
(g14
S'\xae\x197\xca$XG@'
p65
tp66
Rp67
ag10
(g14
S'27.\xc9;\xd6F@'
p68
tp69
Rp70
ag10
(g14
S'Y:3\x80FAG@'
p71
tp72
Rp73
ag10
(g14
S'3\x97\xb0\xec?\x7fG@'
p74
tp75
Rp76
asS'target'
p77
(lp78
g10
(g14
S'*\x1cF\xf9\x92\x11A@'
p79
tp80
Rp81
ag10
(g14
S'\x92r#T\xd7\xf6@@'
p82
tp83
Rp84
ag10
(g14
S'G\x95\xa4io\xc0A@'
p85
tp86
Rp87
ag10
(g14
S'E\xed\x84!\x1b\xb4<@'
p88
tp89
Rp90
ag10
(g14
S'\x88\x05\x94y\x19&D@'
p91
tp92
Rp93
ag10
(g14
S'{\xb3\xbf\xa5(\x94B@'
p94
tp95
Rp96
ag10
(g14
S'S\xe4\x1b\xb6\xcfDC@'
p97
tp98
Rp99
ag10
(g14
S'\x12\xe6?$r\x19>@'
p100
tp101
Rp102
ag10
(g14
S'\xa5\x8c.Jm\x14=@'
p103
tp104
Rp105
ag10
(g14
S'V\xfe&\n\xce\xacB@'
p106
tp107
Rp108
ag10
(g14
S'\x1b,\xdb\x01>\xfa<@'
p109
tp110
Rp111
ag10
(g14
S'\x8a\x83Hc\xa4OF@'
p112
tp113
Rp114
ag10
(g14
S'_\xd3>\xb5\xf5\xd0A@'
p115
tp116
Rp117
ag10
(g14
S'\x8218\xb0+\x83C@'
p118
tp119
Rp120
ag10
(g14
S'\r\xe6V\xc3\xeb\xdbD@'
p121
tp122
Rp123
ag10
(g14
S"\x94'[\xd7\x07\x99C@"
p124
tp125
Rp126
ag10
(g14
S'\xad\x1d\xe5X\x1azC@'
p127
tp128
Rp129
ag10
(g14
S'F{\x1dc_\xca@@'
p130
tp131
Rp132
ag10
(g14
S'\xc7\xed\x86\xaa\xe6.@@'
p133
tp134
Rp135
ag10
(g14
S'\xcb\xcaA%\x042?@'
p136
tp137
Rp138
asssss.