(dp0
S'../Data/sqlite_57.csv'
p1
(dp2
S'../Data/sqlite_65.csv'
p3
(dp4
F0.2
(dp5
S'abs_res'
p6
(dp7
S'bellwether'
p8
(lp9
cnumpy.core.multiarray
scalar
p10
(cnumpy
dtype
p11
(S'f8'
p12
I0
I1
tp13
Rp14
(I3
S'<'
p15
NNNI-1
I-1
I0
tp16
bS'\xa4E\xb6\x9b\xa1MgA'
p17
tp18
Rp19
ag10
(g14
S'\x1aX98\xacFgA'
p20
tp21
Rp22
ag10
(g14
S'\x86l\xe7#qGgA'
p23
tp24
Rp25
ag10
(g14
S'N7\x89\xe9\x91?gA'
p26
tp27
Rp28
ag10
(g14
S'\x1f\xb0r,\xd0RgA'
p29
tp30
Rp31
ag10
(g14
S'\xf5\xd2M\x9eYHgA'
p32
tp33
Rp34
ag10
(g14
S'q\xe7\xfb9\x92FgA'
p35
tp36
Rp37
ag10
(g14
S'w=\n\xfb\x85CgA'
p38
tp39
Rp40
ag10
(g14
S'\x17\xaeG!\xc7NgA'
p41
tp42
Rp43
ag10
(g14
S'\x19\x04V2\xadIgA'
p44
tp45
Rp46
ag10
(g14
S'\xf0\xd0"cwKgA'
p47
tp48
Rp49
ag10
(g14
S'433{\xc4NgA'
p50
tp51
Rp52
ag10
(g14
S'\x1a\x85\xebe\xabJgA'
p53
tp54
Rp55
ag10
(g14
S'B5^\xd2\x19IgA'
p56
tp57
Rp58
ag10
(g14
S'\xe6\xa7\xc6S\x0cMgA'
p59
tp60
Rp61
ag10
(g14
S']9\xb4\xf4\x00EgA'
p62
tp63
Rp64
ag10
(g14
S"'\x06\x81%\x90LgA"
p65
tp66
Rp67
ag10
(g14
S'\xc3\xf5(\x1c\xefVgA'
p68
tp69
Rp70
ag10
(g14
S'\xeb\xa5\x9b\xf8EDgA'
p71
tp72
Rp73
ag10
(g14
S'\x8c\xc2\xf5p\xee@gA'
p74
tp75
Rp76
asS'target'
p77
(lp78
g10
(g14
S'\x80\x16\xd9\xce\xf7CZ@'
p79
tp80
Rp81
ag10
(g14
S'6\xdd$\x06\x81\xc5W@'
p82
tp83
Rp84
ag10
(g14
S'\\9\xb4\xc8v\xaeY@'
p85
tp86
Rp87
ag10
(g14
S'\x95\x99\x99\x99\x99]Y@'
p88
tp89
Rp90
ag10
(g14
S'J7\x89A`\x05X@'
p91
tp92
Rp93
ag10
(g14
S"K\xe1z\x14\xae'Y@"
p94
tp95
Rp96
ag10
(g14
S'\x8d\x18\x04V\x0e\x9d]@'
p97
tp98
Rp99
ag10
(g14
S'\xc4\xca\xa1E\xb6\xbbU@'
p100
tp101
Rp102
ag10
(g14
S'Z\x0e-\xb2\x9dgX@'
p103
tp104
Rp105
ag10
(g14
S'\x86\x95C\x8bl\xf3[@'
p106
tp107
Rp108
ag10
(g14
S'n\xe7\xfb\xa9\xf1BY@'
p109
tp110
Rp111
ag10
(g14
S'\xe5\xd0"\xdb\xf9*a@'
p112
tp113
Rp114
ag10
(g14
S'\xde\xa3p=\n\x0fX@'
p115
tp116
Rp117
ag10
(g14
S'\xb1rh\x91\xed\x80Z@'
p118
tp119
Rp120
ag10
(g14
S'{\xbe\x9f\x1a/}\\@'
p121
tp122
Rp123
ag10
(g14
S'=`\xe5\xd0"cZ@'
p124
tp125
Rp126
ag10
(g14
S'I\x0c\x02+\x87fX@'
p127
tp128
Rp129
ag10
(g14
S'A5^\xbaIT^@'
p130
tp131
Rp132
ag10
(g14
S'\xa7p=\n\xd7\x7fa@'
p133
tp134
Rp135
ag10
(g14
S'\xa6p=\n\xd7\xb3]@'
p136
tp137
Rp138
asssss.