(dp0
S'../Data/sqlite_6.csv'
p1
(dp2
S'../Data/sqlite_59.csv'
p3
(dp4
F0.3
(dp5
S'mmre'
p6
(dp7
S'bellwether'
p8
(lp9
cnumpy.core.multiarray
scalar
p10
(cnumpy
dtype
p11
(S'f8'
p12
I0
I1
tp13
Rp14
(I3
S'<'
p15
NNNI-1
I-1
I0
tp16
bS'<\xa4\xa6\x97m8>@'
p17
tp18
Rp19
ag10
(g14
S'$I\x13\xfe/u>@'
p20
tp21
Rp22
ag10
(g14
S'aK:\x98gb>@'
p23
tp24
Rp25
ag10
(g14
S'\x92\x0bJ\x93\x0f=>@'
p26
tp27
Rp28
ag10
(g14
S'\x80\xbd\xc1\xf7\x8e>>@'
p29
tp30
Rp31
ag10
(g14
S'\xc1\x8f\xba\x9f~J>@'
p32
tp33
Rp34
ag10
(g14
S'\x84\xfc\x1fc\x97M>@'
p35
tp36
Rp37
ag10
(g14
S'\xa4nd\x1cC:>@'
p38
tp39
Rp40
ag10
(g14
S'1\x00=tA|>@'
p41
tp42
Rp43
ag10
(g14
S'\xd5\xc5\x06\n\x8c\x12>@'
p44
tp45
Rp46
ag10
(g14
S'\xdb\x1a\xae\xf9\xc0?>@'
p47
tp48
Rp49
ag10
(g14
S'\\\x04--Rj>@'
p50
tp51
Rp52
ag10
(g14
S'\xbenn\x9b\rZ>@'
p53
tp54
Rp55
ag10
(g14
S'\x90i\xcc\xd4J/>@'
p56
tp57
Rp58
ag10
(g14
S'\xc7\xc1LQ\xd2\x05>@'
p59
tp60
Rp61
ag10
(g14
S'r(\xa5)\xbd->@'
p62
tp63
Rp64
ag10
(g14
S'Tc\xca#\x8fZ>@'
p65
tp66
Rp67
ag10
(g14
S'*\x9e\xf1\xc4\x7f1>@'
p68
tp69
Rp70
ag10
(g14
S'%z m\x1fc>@'
p71
tp72
Rp73
ag10
(g14
S'\x98\x83\x1b\x83T\x7f>@'
p74
tp75
Rp76
asS'target'
p77
(lp78
g10
(g14
S'\xeb>\xb1.\x90<&@'
p79
tp80
Rp81
ag10
(g14
S'\x9b}({\x0bh%@'
p82
tp83
Rp84
ag10
(g14
S'z\x9a\r\x15\n\xb9%@'
p85
tp86
Rp87
ag10
(g14
S'=\\\xb9\xe92\x9d%@'
p88
tp89
Rp90
ag10
(g14
S'\xa4F\x0c\xbeb!$@'
p91
tp92
Rp93
ag10
(g14
S'\x8a\xa6\x87\x81\xb9\xa9%@'
p94
tp95
Rp96
ag10
(g14
S'i[Bmz\x8d%@'
p97
tp98
Rp99
ag10
(g14
S'M\xff\x85\x19\t@&@'
p100
tp101
Rp102
ag10
(g14
S'W\xef\xad\x902\xd3%@'
p103
tp104
Rp105
ag10
(g14
S'\xa5\xa8\xbf\xc5\xd0]&@'
p106
tp107
Rp108
ag10
(g14
S'\x1e\xd9\xc2M\xf5g%@'
p109
tp110
Rp111
ag10
(g14
S'\x8a\xd9\xfd\xa8\x85\x1b&@'
p112
tp113
Rp114
ag10
(g14
S'\xa4(\xc2A\x9a\x7f$@'
p115
tp116
Rp117
ag10
(g14
S'Ul\x87\xdd\x1f\xab%@'
p118
tp119
Rp120
ag10
(g14
S"g*\xae\xee\x89]'@"
p121
tp122
Rp123
ag10
(g14
S'\xb2\x96\x03g;\xdb%@'
p124
tp125
Rp126
ag10
(g14
S'\xa1u_\xb7\x1f\x13%@'
p127
tp128
Rp129
ag10
(g14
S'\x7f\xb7\xca\x16dF%@'
p130
tp131
Rp132
ag10
(g14
S'\x8e\xb8s\xc4\xa3!%@'
p133
tp134
Rp135
ag10
(g14
S'M\xd5U[hc%@'
p136
tp137
Rp138
asssss.