(dp0
S'../Data/sqlite_44.csv'
p1
(dp2
S'../Data/sqlite_16.csv'
p3
(dp4
F0.35
(dp5
S'abs_res'
p6
(dp7
S'bellwether'
p8
(lp9
cnumpy.core.multiarray
scalar
p10
(cnumpy
dtype
p11
(S'f8'
p12
I0
I1
tp13
Rp14
(I3
S'<'
p15
NNNI-1
I-1
I0
tp16
bS'4\xdfO\x8d\x97.=@'
p17
tp18
Rp19
ag10
(g14
S'\xac\x9d\xef\xa7\xc6\xeb:@'
p20
tp21
Rp22
ag10
(g14
S'\x83N\x1b\xe8\xb4!<@'
p23
tp24
Rp25
ag10
(g14
S'\xb7e\xad\x8e\t~;@'
p26
tp27
Rp28
ag10
(g14
S'9\xee5\x17\x92v:@'
p29
tp30
Rp31
ag10
(g14
S'\xeamY\xabc\xd2:@'
p32
tp33
Rp34
ag10
(g14
S'2z[\xd6\xeaH<@'
p35
tp36
Rp37
ag10
(g14
S'8B\x19\xbd-\xdb:@'
p38
tp39
Rp40
ag10
(g14
S'\x93n\x12\x83\xc0\xba<@'
p41
tp42
Rp43
ag10
(g14
S'\xa7\xf1\xd2Mb ;@'
p44
tp45
Rp46
ag10
(g14
S'\xd0Mb\x10X\x89;@'
p47
tp48
Rp49
ag10
(g14
S'G\xb6\xf3\xfd\xd4\x98;@'
p50
tp51
Rp52
ag10
(g14
S'\xe9\xc3g\xd8\x15p;@'
p53
tp54
Rp55
ag10
(g14
S'H\xa98\xfb\xf0\xc9:@'
p56
tp57
Rp58
ag10
(g14
S'Z\xbaI\x0c\x02{=@'
p59
tp60
Rp61
ag10
(g14
S'{j\xbct\x93H;@'
p62
tp63
Rp64
ag10
(g14
S'\x88{\xcd\x85\xa4y<@'
p65
tp66
Rp67
ag10
(g14
S'Us!iJ\xc5:@'
p68
tp69
Rp70
ag10
(g14
S'\x16\x04V\x0e-r=@'
p71
tp72
Rp73
ag10
(g14
S'\xa2C\x8bl\xe7[<@'
p74
tp75
Rp76
asS'target'
p77
(lp78
g10
(g14
S'y\xa2\xfe\x8dPFE@'
p79
tp80
Rp81
ag10
(g14
S'\x1at\xda@\xa7=E@'
p82
tp83
Rp84
ag10
(g14
S'4\xb2\x9d\xef\xa7\x86H@'
p85
tp86
Rp87
ag10
(g14
S'\xfd\xd4x\xe9&)I@'
p88
tp89
Rp90
ag10
(g14
S'x\x93\x18\x04V\xdeF@'
p91
tp92
Rp93
ag10
(g14
S'\xd7\xa3p=\nOI@'
p94
tp95
Rp96
ag10
(g14
S'\x9fp=\n\xd7sG@'
p97
tp98
Rp99
ag10
(g14
S':3333\xfbH@'
p100
tp101
Rp102
ag10
(g14
S'\x17X9\xb4\xc8\xeeD@'
p103
tp104
Rp105
ag10
(g14
S'\r\x02+\x87\x16QE@'
p106
tp107
Rp108
ag10
(g14
S'=^\xbaI\x0c\xf2C@'
p109
tp110
Rp111
ag10
(g14
S'\x95\xc2\xf5(\\\x7fD@'
p112
tp113
Rp114
ag10
(g14
S'\x93\x18\x04V\x0e\xfdH@'
p115
tp116
Rp117
ag10
(g14
S'#\x87\x16\xd9\xce\xd7I@'
p118
tp119
Rp120
ag10
(g14
S'\xc4\x9f\x1a/\xdd\xb4F@'
p121
tp122
Rp123
ag10
(g14
S'\t\xac\x1cZd#E@'
p124
tp125
Rp126
ag10
(g14
S'\xb1\xc8v\xbe\x9f\xdaD@'
p127
tp128
Rp129
ag10
(g14
S'\xfa(\\\x8f\xc2]E@'
p130
tp131
Rp132
ag10
(g14
S'\xdc\xa3p=\n\x97E@'
p133
tp134
Rp135
ag10
(g14
S'c\x91\xed|?5D@'
p136
tp137
Rp138
asssss.