(dp0
S'../Data/sqlite_89.csv'
p1
(dp2
S'../Data/sqlite_85.csv'
p3
(dp4
F0.35
(dp5
S'abs_res'
p6
(dp7
S'bellwether'
p8
(lp9
cnumpy.core.multiarray
scalar
p10
(cnumpy
dtype
p11
(S'f8'
p12
I0
I1
tp13
Rp14
(I3
S'<'
p15
NNNI-1
I-1
I0
tp16
bS'-\x87\x16\xb9\xf5!RA'
p17
tp18
Rp19
ag10
(g14
S'sh\x91=&\xddQA'
p20
tp21
Rp22
ag10
(g14
S'\xb9rhYs\xedQA'
p23
tp24
Rp25
ag10
(g14
S'\xaf\xf1\xd2M~\xefQA'
p26
tp27
Rp28
ag10
(g14
S'\xda\xce\xf7\x97\x0c\xfeQA'
p29
tp30
Rp31
ag10
(g14
S'vh\x91\x95\x00\xbbQA'
p32
tp33
Rp34
ag10
(g14
S'L`\xe54y\xb7QA'
p35
tp36
Rp37
ag10
(g14
S'\x15X9 \xa62RA'
p38
tp39
Rp40
ag10
(g14
S'Y9\xb4x\xf0\xebQA'
p41
tp42
Rp43
ag10
(g14
S"effv'\xdbQA"
p44
tp45
Rp46
ag10
(g14
S'\x1aZd_\x1c\xd1QA'
p47
tp48
Rp49
ag10
(g14
S'\xd1"\xdb\xfd\x89\xfdQA'
p50
tp51
Rp52
ag10
(g14
S'\x9f\xef\xa7FB\xa5QA'
p53
tp54
Rp55
ag10
(g14
S'\xc5v\xbe\xdb$\x1aRA'
p56
tp57
Rp58
ag10
(g14
S'\xd1"\xdb9w\xccQA'
p59
tp60
Rp61
ag10
(g14
S'\x1a\xdb\xf9\x02OHRA'
p62
tp63
Rp64
ag10
(g14
S'\xb2I\x0cF\\\nRA'
p65
tp66
Rp67
ag10
(g14
S'o=\nG\xc5\xa9QA'
p68
tp69
Rp70
ag10
(g14
S'\xf6\xd2M6\xcd\xe9QA'
p71
tp72
Rp73
ag10
(g14
S'K\x0c\x023\x91\xf8QA'
p74
tp75
Rp76
asS'target'
p77
(lp78
g10
(g14
S"'\\\x8f\x02\t.>A"
p79
tp80
Rp81
ag10
(g14
S'\xb5G\xe1\xba\xed\xc2:A'
p82
tp83
Rp84
ag10
(g14
S'v\x14\xae\xe7\x12\xe89A'
p85
tp86
Rp87
ag10
(g14
S'a\x8f\xc25@1;A'
p88
tp89
Rp90
ag10
(g14
S'p=\nWE$;A'
p91
tp92
Rp93
ag10
(g14
S'\x90\xc2\xf5\xe8}\xea:A'
p94
tp95
Rp96
ag10
(g14
S'L\xb8\x1e\xa5j\xbc<A'
p97
tp98
Rp99
ag10
(g14
S'\x94\x99\x99Y]\xe0=A'
p100
tp101
Rp102
ag10
(g14
S'\xd4\xa3p\xbd\x90);A'
p103
tp104
Rp105
ag10
(g14
S'v=\n\x97*\x1e;A'
p106
tp107
Rp108
ag10
(g14
S'\xc3\xf5(\xdc\xdf5:A'
p109
tp110
Rp111
ag10
(g14
S'\xf2(\\\x8fr\x84<A'
p112
tp113
Rp114
ag10
(g14
S'U\xb8\x1e\x05Op;A'
p115
tp116
Rp117
ag10
(g14
S'\xd4\xa3p}\xdct;A'
p118
tp119
Rp120
ag10
(g14
S'{\x14\xae\xc720;A'
p121
tp122
Rp123
ag10
(g14
S'?\n\xd7\x03bX9A'
p124
tp125
Rp126
ag10
(g14
S'`\x8f\xc2u\xb6y;A'
p127
tp128
Rp129
ag10
(g14
S'\xdfz\x14\xee\x17\xb3:A'
p130
tp131
Rp132
ag10
(g14
S'\\\xb8\x1eE\x8b\x0c;A'
p133
tp134
Rp135
ag10
(g14
S'\xf5(\\o\xf7\xb7;A'
p136
tp137
Rp138
asssss.