(dp0
S'../Data/sqlite_60.csv'
p1
(dp2
S'../Data/sqlite_50.csv'
p3
(dp4
F0.25
(dp5
S'abs_res'
p6
(dp7
S'bellwether'
p8
(lp9
cnumpy.core.multiarray
scalar
p10
(cnumpy
dtype
p11
(S'f8'
p12
I0
I1
tp13
Rp14
(I3
S'<'
p15
NNNI-1
I-1
I0
tp16
bS'\xa0\x9b\xc4\xd0\xb0`eA'
p17
tp18
Rp19
ag10
(g14
S'rh\x91m)TeA'
p20
tp21
Rp22
ag10
(g14
S'\x95\xfcb\xd9R^eA'
p23
tp24
Rp25
ag10
(g14
S'\x9eE\xb6{\x98TeA'
p26
tp27
Rp28
ag10
(g14
S'\xb4\xc8v\x0eSTeA'
p29
tp30
Rp31
ag10
(g14
S'E\xb6\xf3\xe5 ^eA'
p32
tp33
Rp34
ag10
(g14
S'Jo\xcb*\xdaPeA'
p35
tp36
Rp37
ag10
(g14
S'[\x8f\xc2\x15\xe4[eA'
p38
tp39
Rp40
ag10
(g14
S'\xdc\x08e@\xb8UeA'
p41
tp42
Rp43
ag10
(g14
S'\xb8\xac\xd59\x14WeA'
p44
tp45
Rp46
ag10
(g14
S'hJ\xc5%|XeA'
p47
tp48
Rp49
ag10
(g14
S'\\\xc7\x04k\x03ZeA'
p50
tp51
Rp52
ag10
(g14
S'\xd7Mb\xb0\xeeVeA'
p53
tp54
Rp55
ag10
(g14
S'Rb\x10\x84\xadUeA'
p56
tp57
Rp58
ag10
(g14
S'Zd;{\xcfXeA'
p59
tp60
Rp61
ag10
(g14
S'\x84\xc0\xca\xd5\xa7ZeA'
p62
tp63
Rp64
ag10
(g14
S'#\xbd-+\xa9beA'
p65
tp66
Rp67
ag10
(g14
S'r\xf6\xe1oU`eA'
p68
tp69
Rp70
ag10
(g14
S'\x872z?\xc5eeA'
p71
tp72
Rp73
ag10
(g14
S'V\x1d\x13 \xd1eeA'
p74
tp75
Rp76
asS'target'
p77
(lp78
g10
(g14
S'%\xb0rh\x91aY@'
p79
tp80
Rp81
ag10
(g14
S'\x8dA`\xe5\xd0\xeaX@'
p82
tp83
Rp84
ag10
(g14
S'\xc1 \xb0rh\xb9V@'
p85
tp86
Rp87
ag10
(g14
S'\xcdx\xe9&10X@'
p88
tp89
Rp90
ag10
(g14
S'\x1bX9\xb4\xc8\x8eW@'
p91
tp92
Rp93
ag10
(g14
S'\x89\x07\xf3D\xfd\xe7Y@'
p94
tp95
Rp96
ag10
(g14
S'\x0eX9\xb4\xc8\xceY@'
p97
tp98
Rp99
ag10
(g14
S'\xef&1\x08\xacLX@'
p100
tp101
Rp102
ag10
(g14
S'>\xb6\xf3\xfd\xd4\xc8V@'
p103
tp104
Rp105
ag10
(g14
S'\xd4\xa1E\xb6\xf3\x95W@'
p106
tp107
Rp108
ag10
(g14
S'I\xe1z\x14\xaeOX@'
p109
tp110
Rp111
ag10
(g14
S'\x8f\xc2\xf5(\\\xd7X@'
p112
tp113
Rp114
ag10
(g14
S'(\xb2\x9d\xef\xa7VX@'
p115
tp116
Rp117
ag10
(g14
S'(\x06\x81\x95C\xf7X@'
p118
tp119
Rp120
ag10
(g14
S'\x89\xcf\xb0+@bV@'
p121
tp122
Rp123
ag10
(g14
S'b\x8f\xc2\xf5(\xacX@'
p124
tp125
Rp126
ag10
(g14
S':3333OY@'
p127
tp128
Rp129
ag10
(g14
S'R7\x89A`\xbdW@'
p130
tp131
Rp132
ag10
(g14
S'&\xb0rh\x91MW@'
p133
tp134
Rp135
ag10
(g14
S'\x98n\x12\x83\xc0\x02Z@'
p136
tp137
Rp138
asssss.