(dp0
S'../Data/sqlite_79.csv'
p1
(dp2
S'../Data/sqlite_84.csv'
p3
(dp4
F0.35
(dp5
S'mmre'
p6
(dp7
S'bellwether'
p8
(lp9
cnumpy.core.multiarray
scalar
p10
(cnumpy
dtype
p11
(S'f8'
p12
I0
I1
tp13
Rp14
(I3
S'<'
p15
NNNI-1
I-1
I0
tp16
bS'\xd7U\x92#`0R@'
p17
tp18
Rp19
ag10
(g14
S'\xe6s0E\x958R@'
p20
tp21
Rp22
ag10
(g14
S'\xea\xc5\x07\xe2\x84$R@'
p23
tp24
Rp25
ag10
(g14
S'\xe80{ t\x05R@'
p26
tp27
Rp28
ag10
(g14
S'\t\xc4\xbb\x04`5R@'
p29
tp30
Rp31
ag10
(g14
S'\xb0%Cy\xb6>R@'
p32
tp33
Rp34
ag10
(g14
S'Qi<1\xe0GR@'
p35
tp36
Rp37
ag10
(g14
S'U\r\x92\x9c\xdb3R@'
p38
tp39
Rp40
ag10
(g14
S'\xdb\x88\xbe\xcf\x91ER@'
p41
tp42
Rp43
ag10
(g14
S'\xb0Cl\xaf=\x1eR@'
p44
tp45
Rp46
ag10
(g14
S'F\xe3\x8b!\xd7\rR@'
p47
tp48
Rp49
ag10
(g14
S'\xfay\xd4\x83q+R@'
p50
tp51
Rp52
ag10
(g14
S'\xab\xado\x8160R@'
p53
tp54
Rp55
ag10
(g14
S'Q\xbc\xffD\x088R@'
p56
tp57
Rp58
ag10
(g14
S"\xfa\x80]h\xeb'R@"
p59
tp60
Rp61
ag10
(g14
S'\xbb\xa3\xd0\xe643R@'
p62
tp63
Rp64
ag10
(g14
S'\xbd\x0ec9J\x08R@'
p65
tp66
Rp67
ag10
(g14
S'\x89}\xbdoR(R@'
p68
tp69
Rp70
ag10
(g14
S'\xd7\xe0\x91\x1a\x137R@'
p71
tp72
Rp73
ag10
(g14
S'*Q\xab\x94kCR@'
p74
tp75
Rp76
asS'target'
p77
(lp78
g10
(g14
S'\xfc\x1e4.\x8d\x80L@'
p79
tp80
Rp81
ag10
(g14
S'\xe2R\xe7^\xf1gJ@'
p82
tp83
Rp84
ag10
(g14
S'\x00|\xbeF\x1b\x9eK@'
p85
tp86
Rp87
ag10
(g14
S'\xab\xde\xd9\xe99NX@'
p88
tp89
Rp90
ag10
(g14
S'\xec;e\xae\xa6wL@'
p91
tp92
Rp93
ag10
(g14
S'\n\x95\x0ep\x9f\xefP@'
p94
tp95
Rp96
ag10
(g14
S'\xdf3Nyb\x98K@'
p97
tp98
Rp99
ag10
(g14
S'`\xf9u\xfc\xc9\x04N@'
p100
tp101
Rp102
ag10
(g14
S'yXU\x12\xb3\xafT@'
p103
tp104
Rp105
ag10
(g14
S'\x02\x83\x8e\xcatwR@'
p106
tp107
Rp108
ag10
(g14
S'u;\xb8\xbf1\xe4X@'
p109
tp110
Rp111
ag10
(g14
S'1\x02O\xcc\xef\x83R@'
p112
tp113
Rp114
ag10
(g14
S'\xd6\xfd\x90n5+M@'
p115
tp116
Rp117
ag10
(g14
S'JC9\x1c\x93\x92R@'
p118
tp119
Rp120
ag10
(g14
S'\x7f\xa0\xd2\xda-\x16L@'
p121
tp122
Rp123
ag10
(g14
S'\xb2\xea\\L\x82\x01S@'
p124
tp125
Rp126
ag10
(g14
S'\xc5\x1alW\x9a\xe2S@'
p127
tp128
Rp129
ag10
(g14
S'e\x8fZ\xa9\xdf\x93V@'
p130
tp131
Rp132
ag10
(g14
S'\x1c~\xcb\x13\xb9\xb0P@'
p133
tp134
Rp135
ag10
(g14
S'\x88hK\xa74\x8eL@'
p136
tp137
Rp138
asssss.