(dp0
S'../Data/sqlite_37.csv'
p1
(dp2
S'../Data/sqlite_73.csv'
p3
(dp4
F0.15
(dp5
S'mmre'
p6
(dp7
S'bellwether'
p8
(lp9
cnumpy.core.multiarray
scalar
p10
(cnumpy
dtype
p11
(S'f8'
p12
I0
I1
tp13
Rp14
(I3
S'<'
p15
NNNI-1
I-1
I0
tp16
bS'\xbe\xe8\x0fk_[W@'
p17
tp18
Rp19
ag10
(g14
S'E\xe4\x08\xe0nZW@'
p20
tp21
Rp22
ag10
(g14
S'U\xff\x96\xc4\x01ZW@'
p23
tp24
Rp25
ag10
(g14
S'vSL\xb1y[W@'
p26
tp27
Rp28
ag10
(g14
S'(\x9f=8\xf8YW@'
p29
tp30
Rp31
ag10
(g14
S'\r\xd8\xe5\xed\x19ZW@'
p32
tp33
Rp34
ag10
(g14
S'\x1a\x9b;\xbaQYW@'
p35
tp36
Rp37
ag10
(g14
S'\x96ije2[W@'
p38
tp39
Rp40
ag10
(g14
S'[\xe8\xef\xe9PZW@'
p41
tp42
Rp43
ag10
(g14
S'\x97\xc0h\xdd\xffZW@'
p44
tp45
Rp46
ag10
(g14
S'\x1c\xdc}E)ZW@'
p47
tp48
Rp49
ag10
(g14
S'\xb8\xe2\xb8\x96\x92[W@'
p50
tp51
Rp52
ag10
(g14
S'\x82\xd1{\n\xe8YW@'
p53
tp54
Rp55
ag10
(g14
S'\x0e2\xf8\xd9\xc0ZW@'
p56
tp57
Rp58
ag10
(g14
S'\xa2V\xb6E\xefYW@'
p59
tp60
Rp61
ag10
(g14
S'\x9f3\xe3\x06\rZW@'
p62
tp63
Rp64
ag10
(g14
S'\x1a\x12\xa6\xfe\x01ZW@'
p65
tp66
Rp67
ag10
(g14
S'G\x8d\xb2\xd0\xb5[W@'
p68
tp69
Rp70
ag10
(g14
S'\xa4\xe4}t\x06[W@'
p71
tp72
Rp73
ag10
(g14
S'\xeb*\xa7U\x16[W@'
p74
tp75
Rp76
asS'target'
p77
(lp78
g10
(g14
S'\x91{9I\xe9\x15*@'
p79
tp80
Rp81
ag10
(g14
S'\xa8\xf7C\xf0\x94\x8b+@'
p82
tp83
Rp84
ag10
(g14
S'\xcb\xe2\xdaw\xc9\x1b-@'
p85
tp86
Rp87
ag10
(g14
S'?\xcc\xd9r\x8d\xe2+@'
p88
tp89
Rp90
ag10
(g14
S'=o~\xaf\xcc;.@'
p91
tp92
Rp93
ag10
(g14
S'\xc9w\xf4Q\x05\xc8)@'
p94
tp95
Rp96
ag10
(g14
S'\r\x86M\xa5\xddz*@'
p97
tp98
Rp99
ag10
(g14
S'%w\x94Nj21@'
p100
tp101
Rp102
ag10
(g14
S'\x88t@\x8dW\xf1+@'
p103
tp104
Rp105
ag10
(g14
S'<\x17$#.\xa6+@'
p106
tp107
Rp108
ag10
(g14
S'\t,~S\x1f\x83/@'
p109
tp110
Rp111
ag10
(g14
S'\xc7\xec\xbb\xcc+\x8c-@'
p112
tp113
Rp114
ag10
(g14
S'\xf7\xb2\xdc\xb9`7/@'
p115
tp116
Rp117
ag10
(g14
S'\xc0L\\\xb2\x99F+@'
p118
tp119
Rp120
ag10
(g14
S'\xc0D\x17jK\x9a-@'
p121
tp122
Rp123
ag10
(g14
S'\x9c09\xc1\x1dc)@'
p124
tp125
Rp126
ag10
(g14
S'\xcb\xd2\xd2\xf3c\x8e,@'
p127
tp128
Rp129
ag10
(g14
S',\x97\xa9\xe04\x9a)@'
p130
tp131
Rp132
ag10
(g14
S'\xd9\x84M\x87\xf3\xc4,@'
p133
tp134
Rp135
ag10
(g14
S'\x068`\xa5\xa0\x1a+@'
p136
tp137
Rp138
asssss.