(dp0
S'../Data/sqlite_71.csv'
p1
(dp2
S'../Data/sqlite_33.csv'
p3
(dp4
F0.35
(dp5
S'abs_res'
p6
(dp7
S'bellwether'
p8
(lp9
cnumpy.core.multiarray
scalar
p10
(cnumpy
dtype
p11
(S'f8'
p12
I0
I1
tp13
Rp14
(I3
S'<'
p15
NNNI-1
I-1
I0
tp16
bS'\xd2\xb0+\\\xf8:fA'
p17
tp18
Rp19
ag10
(g14
S'\xddz\x14\xa2\x96EfA'
p20
tp21
Rp22
ag10
(g14
S'/\xb4\xc8.U<fA'
p23
tp24
Rp25
ag10
(g14
S'\xf1\xa7\xc6349fA'
p26
tp27
Rp28
ag10
(g14
S'Q\xabc\xd6W9fA'
p29
tp30
Rp31
ag10
(g14
S'%\xea\xdf(\x02IfA'
p32
tp33
Rp34
ag10
(g14
S'nY\xabw=9fA'
p35
tp36
Rp37
ag10
(g14
S'\\\xf2\x8b\x05O.fA'
p38
tp39
Rp40
ag10
(g14
S'\xb2V\xc7\x18\xb8EfA'
p41
tp42
Rp43
ag10
(g14
S's\x05\xc8\xb1LGfA'
p44
tp45
Rp46
ag10
(g14
S'\x17\x04V\xd2Z1fA'
p47
tp48
Rp49
ag10
(g14
S'$1\x08$u=fA'
p50
tp51
Rp52
ag10
(g14
S'\xe9\xb4\x81\xba\x1d9fA'
p53
tp54
Rp55
ag10
(g14
S'&z[J\x8dEfA'
p56
tp57
Rp58
ag10
(g14
S'l\xa0\xd3\xb6&DfA'
p59
tp60
Rp61
ag10
(g14
S'\xb5\x81N\x97\xa59fA'
p62
tp63
Rp64
ag10
(g14
S'\x83#\x94\xe1\xc7<fA'
p65
tp66
Rp67
ag10
(g14
S'LDDL6LfA'
p68
tp69
Rp70
ag10
(g14
S'\x9a\xa8\x7fW\xb93fA'
p71
tp72
Rp73
ag10
(g14
S'>Q\xff\x86\xf6NfA'
p74
tp75
Rp76
asS'target'
p77
(lp78
g10
(g14
S'nffff~F@'
p79
tp80
Rp81
ag10
(g14
S'\x82\x95C\x8bl\xe7D@'
p82
tp83
Rp84
ag10
(g14
S'\xaa\xc6K7\x89yD@'
p85
tp86
Rp87
ag10
(g14
S'3\xdd$\x06\x81\x05F@'
p88
tp89
Rp90
ag10
(g14
S'\x16Zd;\xdfgI@'
p91
tp92
Rp93
ag10
(g14
S'z\xc0\xca\xa1E\x16F@'
p94
tp95
Rp96
ag10
(g14
S'h\xe7\xfb\xa9\xf1JE@'
p97
tp98
Rp99
ag10
(g14
S'\xfd|?5^\xc2E@'
p100
tp101
Rp102
ag10
(g14
S'\xc6\x1e\x85\xebQ\x90E@'
p103
tp104
Rp105
ag10
(g14
S'0\x08\xac\x1cZ\x9cF@'
p106
tp107
Rp108
ag10
(g14
S'\xe73\xec\n\x90sF@'
p109
tp110
Rp111
ag10
(g14
S'{h\x91\xed|_F@'
p112
tp113
Rp114
ag10
(g14
S'\xaerh\x91\xed\x9cI@'
p115
tp116
Rp117
ag10
(g14
S'S\xb8\x1e\x85\xeb\x99G@'
p118
tp119
Rp120
ag10
(g14
S'\xe6\xfb\xa9\xf1\xd2uD@'
p121
tp122
Rp123
ag10
(g14
S'\x0e\xd7\xa3p=\xfaF@'
p124
tp125
Rp126
ag10
(g14
S'\xb8\x9f\x1a/\xdd\xc4G@'
p127
tp128
Rp129
ag10
(g14
S'\xccv\xbe\x9f\x1a\x87F@'
p130
tp131
Rp132
ag10
(g14
S'w\xbct\x93\x18,G@'
p133
tp134
Rp135
ag10
(g14
S'H7\x89A`\xedE@'
p136
tp137
Rp138
asssss.