(dp0
S'../Data/sqlite_22.csv'
p1
(dp2
S'../Data/sqlite_59.csv'
p3
(dp4
F0.25
(dp5
S'mmre'
p6
(dp7
S'bellwether'
p8
(lp9
cnumpy.core.multiarray
scalar
p10
(cnumpy
dtype
p11
(S'f8'
p12
I0
I1
tp13
Rp14
(I3
S'<'
p15
NNNI-1
I-1
I0
tp16
bS'\xac\xdf\xe7\x93\xfe3T@'
p17
tp18
Rp19
ag10
(g14
S'\xf8\x84ak\xa0;T@'
p20
tp21
Rp22
ag10
(g14
S'\xfb\xa0\x06\xf7\x1f3T@'
p23
tp24
Rp25
ag10
(g14
S'W\x82w\xc1\xe26T@'
p26
tp27
Rp28
ag10
(g14
S'\x96?\xa4\xe7\xc34T@'
p29
tp30
Rp31
ag10
(g14
S'`\x9d\xbf\xc8;<T@'
p32
tp33
Rp34
ag10
(g14
S'~\xfc \xf7\xbe6T@'
p35
tp36
Rp37
ag10
(g14
S'\x9e\xc7\xa6\xd5\x98:T@'
p38
tp39
Rp40
ag10
(g14
S'\tfv\xaf\xb78T@'
p41
tp42
Rp43
ag10
(g14
S'Vk\x8c\xe8\t<T@'
p44
tp45
Rp46
ag10
(g14
S'u^\x85?x:T@'
p47
tp48
Rp49
ag10
(g14
S'+\xb6r\x90O9T@'
p50
tp51
Rp52
ag10
(g14
S'*\x9fl\x80\xfc6T@'
p53
tp54
Rp55
ag10
(g14
S'b\x0fuc\xc7:T@'
p56
tp57
Rp58
ag10
(g14
S'\xdc\x83\xbb1+7T@'
p59
tp60
Rp61
ag10
(g14
S'H\xbe-u(<T@'
p62
tp63
Rp64
ag10
(g14
S'Y\xae#d\x089T@'
p65
tp66
Rp67
ag10
(g14
S'\xcfq\xf1^\x825T@'
p68
tp69
Rp70
ag10
(g14
S'1\x85N\x03\xd09T@'
p71
tp72
Rp73
ag10
(g14
S'\x0e\xd8\xcf\x8b(8T@'
p74
tp75
Rp76
asS'target'
p77
(lp78
g10
(g14
S'\xcb\xaapnI5(@'
p79
tp80
Rp81
ag10
(g14
S'\xf1di\xd4\x02\x13(@'
p82
tp83
Rp84
ag10
(g14
S"\xc4\xe3C\xb5\xd6\x1a'@"
p85
tp86
Rp87
ag10
(g14
S'\xd9\x08\xe3\xaa+\xcb$@'
p88
tp89
Rp90
ag10
(g14
S'\x18\xaa1\xa7\xc4\xcd&@'
p91
tp92
Rp93
ag10
(g14
S'$\x1e\x03\xa41W&@'
p94
tp95
Rp96
ag10
(g14
S'\x1c&\xe7\xb5n7&@'
p97
tp98
Rp99
ag10
(g14
S"~C\x07\x90\x99\x88'@"
p100
tp101
Rp102
ag10
(g14
S"\rI\x9c\xa9\xed:'@"
p103
tp104
Rp105
ag10
(g14
S'\xa2iZg\x90\x13&@'
p106
tp107
Rp108
ag10
(g14
S"\xb3\x1a\x1e\xaf\xb8,'@"
p109
tp110
Rp111
ag10
(g14
S'\x01D\xd1@}\xed#@'
p112
tp113
Rp114
ag10
(g14
S"\xb2\x95\x97'y\xed%@"
p115
tp116
Rp117
ag10
(g14
S'\x82\xaa\x9e$\x81)%@'
p118
tp119
Rp120
ag10
(g14
S'"@\xd2!\x90y%@'
p121
tp122
Rp123
ag10
(g14
S'c\x9b\xfe\x08\xa4l#@'
p124
tp125
Rp126
ag10
(g14
S'Z{\xf9\xb1\x9a\x9e&@'
p127
tp128
Rp129
ag10
(g14
S'8\x01\xb4*\x91W$@'
p130
tp131
Rp132
ag10
(g14
S'\x9c\x00q\xc1\xc5\x91&@'
p133
tp134
Rp135
ag10
(g14
S'-Jj\xa6\xf6.&@'
p136
tp137
Rp138
asssss.