(dp0
S'../Data/sqlite_31.csv'
p1
(dp2
S'../Data/sqlite_62.csv'
p3
(dp4
F0.35
(dp5
S'mmre'
p6
(dp7
S'bellwether'
p8
(lp9
cnumpy.core.multiarray
scalar
p10
(cnumpy
dtype
p11
(S'f8'
p12
I0
I1
tp13
Rp14
(I3
S'<'
p15
NNNI-1
I-1
I0
tp16
bS'6=\xd2-\xe4LN@'
p17
tp18
Rp19
ag10
(g14
S'\xefO\x85\xa6\x1a:N@'
p20
tp21
Rp22
ag10
(g14
S'9\x17;\x1f\xb4CN@'
p23
tp24
Rp25
ag10
(g14
S'\xf2e\xfc\x0f\xc4GN@'
p26
tp27
Rp28
ag10
(g14
S']\x8e\xcc\x89\x89>N@'
p29
tp30
Rp31
ag10
(g14
S'\x82\xcf]\xb2\rLN@'
p32
tp33
Rp34
ag10
(g14
S'+\x03l\xc6\x984N@'
p35
tp36
Rp37
ag10
(g14
S'\x9d\xc9$\xb0O*N@'
p38
tp39
Rp40
ag10
(g14
S'\xe0-\x10\xcbQ?N@'
p41
tp42
Rp43
ag10
(g14
S'\xec\xf0\xc7\xfdlNN@'
p44
tp45
Rp46
ag10
(g14
S'6\x18\xf7\xaeXFN@'
p47
tp48
Rp49
ag10
(g14
S"\xf7\xd5'B\x1fTN@"
p50
tp51
Rp52
ag10
(g14
S's\xde\xc3\x93&CN@'
p53
tp54
Rp55
ag10
(g14
S'\x99V\xac\xab\xd4GN@'
p56
tp57
Rp58
ag10
(g14
S'\xc6\x1d\xd2\xd4\xb1;N@'
p59
tp60
Rp61
ag10
(g14
S'\xb3\x92\xb1pdLN@'
p62
tp63
Rp64
ag10
(g14
S'\xa0\xe9~0fHN@'
p65
tp66
Rp67
ag10
(g14
S' ^\x0e6\xc2DN@'
p68
tp69
Rp70
ag10
(g14
S'\xa7\xf86ZjBN@'
p71
tp72
Rp73
ag10
(g14
S'\xb4\xce\xf0bh6N@'
p74
tp75
Rp76
asS'target'
p77
(lp78
g10
(g14
S'\x9b\x8b\x17\x82\x0c\xf7!@'
p79
tp80
Rp81
ag10
(g14
S'v\x1d\x02\xabSq!@'
p82
tp83
Rp84
ag10
(g14
S'\xec7\xdcN}\xe3 @'
p85
tp86
Rp87
ag10
(g14
S'\xe6\x8d\xdd5f\xd9!@'
p88
tp89
Rp90
ag10
(g14
S'\xc1\x97\xf9\'O\xb5"@'
p91
tp92
Rp93
ag10
(g14
S'\xd4\xa3\x8c\x80\xd8\xa3!@'
p94
tp95
Rp96
ag10
(g14
S'X\xe3h\x92?\xe1!@'
p97
tp98
Rp99
ag10
(g14
S'6c{\xddX\xa4"@'
p100
tp101
Rp102
ag10
(g14
S'\xa69\x1c\xad\xf0w"@'
p103
tp104
Rp105
ag10
(g14
S'\xaa~r\xc1\x84_!@'
p106
tp107
Rp108
ag10
(g14
S')5\xb3\xa6{Q!@'
p109
tp110
Rp111
ag10
(g14
S'U8\x9b\xbd\x19\x7f"@'
p112
tp113
Rp114
ag10
(g14
S'/kS\xc7\x17\x1f!@'
p115
tp116
Rp117
ag10
(g14
S'+RG\x9eQ\x05#@'
p118
tp119
Rp120
ag10
(g14
S'\xdaCs\x0cQ\xd2 @'
p121
tp122
Rp123
ag10
(g14
S'\xb0D\x90\xe1\x0e\x14"@'
p124
tp125
Rp126
ag10
(g14
S'm$DRHb @'
p127
tp128
Rp129
ag10
(g14
S'\x82\xf9\xb3\xcfp\xc7!@'
p130
tp131
Rp132
ag10
(g14
S'x\x9d\xba7y\xb5 @'
p133
tp134
Rp135
ag10
(g14
S'z\xaa\xd6j\xb3>!@'
p136
tp137
Rp138
asssss.