(dp0
S'../Data/sqlite_3.csv'
p1
(dp2
S'../Data/sqlite_96.csv'
p3
(dp4
F0.25
(dp5
S'mmre'
p6
(dp7
S'bellwether'
p8
(lp9
cnumpy.core.multiarray
scalar
p10
(cnumpy
dtype
p11
(S'f8'
p12
I0
I1
tp13
Rp14
(I3
S'<'
p15
NNNI-1
I-1
I0
tp16
bS'7\xfe\x92\xfbg?R@'
p17
tp18
Rp19
ag10
(g14
S'\xa6\x8e\xdc\x8f\x838R@'
p20
tp21
Rp22
ag10
(g14
S'\xf5\xb0\xb2\x98TOR@'
p23
tp24
Rp25
ag10
(g14
S'\x0b\xcb\xd3\xe8\xb9CR@'
p26
tp27
Rp28
ag10
(g14
S'\xcb\x99\xe5l\xb4IR@'
p29
tp30
Rp31
ag10
(g14
S'Z\xe5\x9e\xdc\x0fYR@'
p32
tp33
Rp34
ag10
(g14
S'\xefQV\x86/LR@'
p35
tp36
Rp37
ag10
(g14
S'\xbb"f^yMR@'
p38
tp39
Rp40
ag10
(g14
S'\xfe`\xd2\xd95VR@'
p41
tp42
Rp43
ag10
(g14
S'\xb5\xb6I\x0b[HR@'
p44
tp45
Rp46
ag10
(g14
S'\xd5\xb81)>ER@'
p47
tp48
Rp49
ag10
(g14
S'H(\xcc\x15\xd8PR@'
p50
tp51
Rp52
ag10
(g14
S'\x00\xd5\x8a\xe6\xdfVR@'
p53
tp54
Rp55
ag10
(g14
S'%\x91\xb8\xaebGR@'
p56
tp57
Rp58
ag10
(g14
S'\x1d]s\x1b^NR@'
p59
tp60
Rp61
ag10
(g14
S'\xa8V\xdew\x959R@'
p62
tp63
Rp64
ag10
(g14
S'\n%PI\xe2KR@'
p65
tp66
Rp67
ag10
(g14
S'\xeaWd\xbb\xe8?R@'
p68
tp69
Rp70
ag10
(g14
S'w\xa1\x14d\xa8NR@'
p71
tp72
Rp73
ag10
(g14
S'\x9d3\x03\x0c4FR@'
p74
tp75
Rp76
asS'target'
p77
(lp78
g10
(g14
S'D\xef\xccJ\x8b\xfbV@'
p79
tp80
Rp81
ag10
(g14
S'\x81\xe5\xe3w;\x95P@'
p82
tp83
Rp84
ag10
(g14
S'\xd5,\xf4:\x8e\xa5Q@'
p85
tp86
Rp87
ag10
(g14
S'\xa2mBJ\xa9AU@'
p88
tp89
Rp90
ag10
(g14
S'*\xc8O|\xff\xaeL@'
p91
tp92
Rp93
ag10
(g14
S'j\xeeJK\x85\x00S@'
p94
tp95
Rp96
ag10
(g14
S'\xb6\xfbhq{!O@'
p97
tp98
Rp99
ag10
(g14
S'\xaf}%d\xe8\xaeQ@'
p100
tp101
Rp102
ag10
(g14
S'\x14\xda_T\xf5pS@'
p103
tp104
Rp105
ag10
(g14
S'Uw\xf4\xf2oSX@'
p106
tp107
Rp108
ag10
(g14
S'\xcc\t\x90\x99I\x0bP@'
p109
tp110
Rp111
ag10
(g14
S'%\xb6\xd4\xfam\x9bP@'
p112
tp113
Rp114
ag10
(g14
S'\xb9\x92{\xf8\xfd\xf6S@'
p115
tp116
Rp117
ag10
(g14
S'C\x14\xdbd\xae\x98V@'
p118
tp119
Rp120
ag10
(g14
S'\x15\xbc\xed\x9eB!S@'
p121
tp122
Rp123
ag10
(g14
S'\x97_\x81O\xf8\x82^@'
p124
tp125
Rp126
ag10
(g14
S":o0n\xab'T@"
p127
tp128
Rp129
ag10
(g14
S'xfV\xc7+z]@'
p130
tp131
Rp132
ag10
(g14
S'\xcb\x17Pq-\xeaR@'
p133
tp134
Rp135
ag10
(g14
S'\xec\xbd\xb3\xbe\x85\xa4K@'
p136
tp137
Rp138
asssss.