(dp0
S'../Data/sqlite_68.csv'
p1
(dp2
S'../Data/sqlite_85.csv'
p3
(dp4
F0.2
(dp5
S'mmre'
p6
(dp7
S'bellwether'
p8
(lp9
cnumpy.core.multiarray
scalar
p10
(cnumpy
dtype
p11
(S'f8'
p12
I0
I1
tp13
Rp14
(I3
S'<'
p15
NNNI-1
I-1
I0
tp16
bS';\x13\xb3"\x1dZX@'
p17
tp18
Rp19
ag10
(g14
S'\x82\xb3G\xd5\x04XX@'
p20
tp21
Rp22
ag10
(g14
S'\xd6\x87\x0e\x07H[X@'
p23
tp24
Rp25
ag10
(g14
S'-\xcbFW\xd7YX@'
p26
tp27
Rp28
ag10
(g14
S'Z/\xe3\xfag]X@'
p29
tp30
Rp31
ag10
(g14
S'\xdd\xce\xf1L\xc2]X@'
p32
tp33
Rp34
ag10
(g14
S'6\xe3}\xb0[XX@'
p35
tp36
Rp37
ag10
(g14
S'&Wo\r\xd0[X@'
p38
tp39
Rp40
ag10
(g14
S'-W~W\x01]X@'
p41
tp42
Rp43
ag10
(g14
S'\x98K\xf2N\xedXX@'
p44
tp45
Rp46
ag10
(g14
S'\xc6\xe0\xca\x8a\xb3aX@'
p47
tp48
Rp49
ag10
(g14
S'\x82 \x139+^X@'
p50
tp51
Rp52
ag10
(g14
S'vs\x19\xe8\x08\\X@'
p53
tp54
Rp55
ag10
(g14
S'"^8Q,ZX@'
p56
tp57
Rp58
ag10
(g14
S'T\xdc\xe1\x95\xe1ZX@'
p59
tp60
Rp61
ag10
(g14
S'%\xab\x18p\xfa\\X@'
p62
tp63
Rp64
ag10
(g14
S'Nf\x05\x93\xe6\\X@'
p65
tp66
Rp67
ag10
(g14
S'e+\xe7\xc4\xa0^X@'
p68
tp69
Rp70
ag10
(g14
S'\xd8t\x99\x10\x0b^X@'
p71
tp72
Rp73
ag10
(g14
S"\xee\xde'\x8cE`X@"
p74
tp75
Rp76
asS'target'
p77
(lp78
g10
(g14
S'\xd0\xbb\r"\x82\x87S@'
p79
tp80
Rp81
ag10
(g14
S'\x12\xa4\xe1\xe9\x90CT@'
p82
tp83
Rp84
ag10
(g14
S'p\x9f\x0c:\x1f^Q@'
p85
tp86
Rp87
ag10
(g14
S'\xe4\xe1\x00\xcd[TS@'
p88
tp89
Rp90
ag10
(g14
S'\xe4\x0b"_\xae\xb6S@'
p91
tp92
Rp93
ag10
(g14
S'\x01i\xabW\xb2>U@'
p94
tp95
Rp96
ag10
(g14
S'\xc4\x7f\xd2(\x9e\xddT@'
p97
tp98
Rp99
ag10
(g14
S'\n\xa49\xe4\xc4\xd9T@'
p100
tp101
Rp102
ag10
(g14
S'`\xf9PZ\xf1\x93R@'
p103
tp104
Rp105
ag10
(g14
S'Xp\t\x06\xee\xb0U@'
p106
tp107
Rp108
ag10
(g14
S'\t/VR\xc5jR@'
p109
tp110
Rp111
ag10
(g14
S'2#P\x908rR@'
p112
tp113
Rp114
ag10
(g14
S'\x06\x19\xf4\xe29\x0bV@'
p115
tp116
Rp117
ag10
(g14
S'\x1b\xaf{\xe0,VR@'
p118
tp119
Rp120
ag10
(g14
S'\xe7"sLw\xb9S@'
p121
tp122
Rp123
ag10
(g14
S'n\xf4\x1e\x9c\xb4\x1bR@'
p124
tp125
Rp126
ag10
(g14
S'\x1e\xfb\xef\xaf\xfd\rR@'
p127
tp128
Rp129
ag10
(g14
S'\x0c\xd9\xa5\xd3\x8b\x00R@'
p130
tp131
Rp132
ag10
(g14
S'I\x9e\x9aG\xe5\xa7S@'
p133
tp134
Rp135
ag10
(g14
S'\xb2\x07\xaf\x85\xd9\x85S@'
p136
tp137
Rp138
asssss.