(dp0
S'../Data/sqlite_15.csv'
p1
(dp2
S'../Data/sqlite_79.csv'
p3
(dp4
F0.15
(dp5
S'abs_res'
p6
(dp7
S'bellwether'
p8
(lp9
cnumpy.core.multiarray
scalar
p10
(cnumpy
dtype
p11
(S'f8'
p12
I0
I1
tp13
Rp14
(I3
S'<'
p15
NNNI-1
I-1
I0
tp16
bS'#iJ\x05<9@A'
p17
tp18
Rp19
ag10
(g14
S'Q\xf2\x8b5\x929@A'
p20
tp21
Rp22
ag10
(g14
S'\xc3 \xb0\xc2\xbe8@A'
p23
tp24
Rp25
ag10
(g14
S'\xb2\x9d\xef\x17\x819@A'
p26
tp27
Rp28
ag10
(g14
S'\xcaZ\x1d\x1309@A'
p29
tp30
Rp31
ag10
(g14
S'\x16\xaeG\x0169@A'
p32
tp33
Rp34
ag10
(g14
S'j\xcbZ=>9@A'
p35
tp36
Rp37
ag10
(g14
S'\xa5E\xb6S"9@A'
p38
tp39
Rp40
ag10
(g14
S'\xd0Mb\xc0\xde8@A'
p41
tp42
Rp43
ag10
(g14
S'L\xb8\x1e\xb5\x998@A'
p44
tp45
Rp46
ag10
(g14
S'133\xc3\xa28@A'
p47
tp48
Rp49
ag10
(g14
S'hJ\xc59K9@A'
p50
tp51
Rp52
ag10
(g14
S'\xbcI\x0c\xe2,9@A'
p53
tp54
Rp55
ag10
(g14
S',\xdd$Vn9@A'
p56
tp57
Rp58
ag10
(g14
S'9\xfb\xf0\xf9\xb68@A'
p59
tp60
Rp61
ag10
(g14
S'z\xdckn\x8d8@A'
p62
tp63
Rp64
ag10
(g14
S'\xc6v\xbe\xaf\xd28@A'
p65
tp66
Rp67
ag10
(g14
S'\x0f\x9fa\xd7\xa18@A'
p68
tp69
Rp70
ag10
(g14
S"\x9cRq\xf6'8@A"
p71
tp72
Rp73
ag10
(g14
S'\t\xbb\x02$\xb28@A'
p74
tp75
Rp76
asS'target'
p77
(lp78
g10
(g14
S'$\xb0rh\x91+s@'
p79
tp80
Rp81
ag10
(g14
S'!1\x08\xac\x1cHw@'
p82
tp83
Rp84
ag10
(g14
S'\x9a\x1a/\xdd$6\x7f@'
p85
tp86
Rp87
ag10
(g14
S'\x88l\xe7\xfb\xa9\x85x@'
p88
tp89
Rp90
ag10
(g14
S'w\xc0\xca\xa1E\x1cv@'
p91
tp92
Rp93
ag10
(g14
S'n\xe7\xfb\xa9\xf1\xdeu@'
p94
tp95
Rp96
ag10
(g14
S'\xe4|?5^\x86x@'
p97
tp98
Rp99
ag10
(g14
S'\xbbI\x0c\x02+\xadv@'
p100
tp101
Rp102
ag10
(g14
S'\xfc\xa9\xf1\xd2M\xe8v@'
p103
tp104
Rp105
ag10
(g14
S'\xa4p=\n\xd7\xd7t@'
p106
tp107
Rp108
ag10
(g14
S'\x97\xed|?5Nw@'
p109
tp110
Rp111
ag10
(g14
S'\xbd\xf3\xfd\xd4x\x07t@'
p112
tp113
Rp114
ag10
(g14
S'W9\xb4\xc8vP\x80@'
p115
tp116
Rp117
ag10
(g14
S'0\x89A`\xe5~u@'
p118
tp119
Rp120
ag10
(g14
S'\x97\xc4 \xb0r\x9au@'
p121
tp122
Rp123
ag10
(g14
S'\xc4v\xbe\x9f\x1a\xbdt@'
p124
tp125
Rp126
ag10
(g14
S'\xea\xa7\xc6K7\xa5o@'
p127
tp128
Rp129
ag10
(g14
S'\xdd\xf9~j\xbc\xd6v@'
p130
tp131
Rp132
ag10
(g14
S'\xb2\x1e\x85\xebQ\x92u@'
p133
tp134
Rp135
ag10
(g14
S'\x84\x97n\x12\x83\xf6\x7f@'
p136
tp137
Rp138
asssss.