(dp0
S'../Data/sqlite_66.csv'
p1
(dp2
S'../Data/sqlite_30.csv'
p3
(dp4
F0.1
(dp5
S'abs_res'
p6
(dp7
S'bellwether'
p8
(lp9
cnumpy.core.multiarray
scalar
p10
(cnumpy
dtype
p11
(S'f8'
p12
I0
I1
tp13
Rp14
(I3
S'<'
p15
NNNI-1
I-1
I0
tp16
bS'V\xe3\xa5\x1b\x17]#A'
p17
tp18
Rp19
ag10
(g14
S'\xcf\xb0+\x803]#A'
p20
tp21
Rp22
ag10
(g14
S'\xd7x\xe9fB]#A'
p23
tp24
Rp25
ag10
(g14
S'@DDDf]#A'
p26
tp27
Rp28
ag10
(g14
S'\xd2\x85\xa4)9]#A'
p29
tp30
Rp31
ag10
(g14
S'\xec\x89\xfa7\xc6]#A'
p32
tp33
Rp34
ag10
(g14
S'o\x12\x83\x00\x03]#A'
p35
tp36
Rp37
ag10
(g14
S'kuLp\x17]#A'
p38
tp39
Rp40
ag10
(g14
S'Y\x0e-\xf2j\\#A'
p41
tp42
Rp43
ag10
(g14
S'\xb1rh\xd1M]#A'
p44
tp45
Rp46
ag10
(g14
S'1\xec\n\x10\x95]#A'
p47
tp48
Rp49
ag10
(g14
S'\xfe\xa9\xf1R\xf0]#A'
p50
tp51
Rp52
ag10
(g14
S' \x85\xebQ\xad\\#A'
p53
tp54
Rp55
ag10
(g14
S'\xafrhQ{]#A'
p56
tp57
Rp58
ag10
(g14
S'a\xbaI\xcc\x94]#A'
p59
tp60
Rp61
ag10
(g14
S'\xb9\x1e\x85k\xbe\\#A'
p62
tp63
Rp64
ag10
(g14
S'"\x13<X\x93]#A'
p65
tp66
Rp67
ag10
(g14
S'y\xcbZ\xdd\xfd]#A'
p68
tp69
Rp70
ag10
(g14
S'\x86\xebQ\xb8y\\#A'
p71
tp72
Rp73
ag10
(g14
S'H\x0c\x02+\xcc]#A'
p74
tp75
Rp76
asS'target'
p77
(lp78
g10
(g14
S'\xb7rh\x91\xed\xf4G@'
p79
tp80
Rp81
ag10
(g14
S'h\x10X9\xb4\x18F@'
p82
tp83
Rp84
ag10
(g14
S'\xa6\xf1\xd2Mb\x10<@'
p85
tp86
Rp87
ag10
(g14
S'\xbf\xf3\xfd\xd4x\xe1E@'
p88
tp89
Rp90
ag10
(g14
S'Z\x0e-\xb2\x9dOA@'
p91
tp92
Rp93
ag10
(g14
S'\xd4v\xbe\x9f\x1a?A@'
p94
tp95
Rp96
ag10
(g14
S'0\x87\x16\xd9\xce\x97K@'
p97
tp98
Rp99
ag10
(g14
S'\x14\xd9\xce\xf7Sc?@'
p100
tp101
Rp102
ag10
(g14
S'\t-\xb2\x9d\xef\x07F@'
p103
tp104
Rp105
ag10
(g14
S'\x8d\x97n\x12\x83\xf0C@'
p106
tp107
Rp108
ag10
(g14
S'\xbf\x1e\x85\xebQ\xa8D@'
p109
tp110
Rp111
ag10
(g14
S'"\x85\xebQ\xb8~I@'
p112
tp113
Rp114
ag10
(g14
S'x=\n\xd7\xa3pE@'
p115
tp116
Rp117
ag10
(g14
S'\x04V\x0e-\xb2\x8dC@'
p118
tp119
Rp120
ag10
(g14
S'\x10\xaeG\xe1z\xe4@@'
p121
tp122
Rp123
ag10
(g14
S'\xcb\xca\xa1E\xb6\xc3D@'
p124
tp125
Rp126
ag10
(g14
S'\x81\x14\xaeG\xe1:C@'
p127
tp128
Rp129
ag10
(g14
S'gffff\x16B@'
p130
tp131
Rp132
ag10
(g14
S'j\xe7\xfb\xa9\xf12H@'
p133
tp134
Rp135
ag10
(g14
S'\x8d\xc2\xf5(\\\x8fH@'
p136
tp137
Rp138
asssss.