(dp0
S'../Data/sqlite_58.csv'
p1
(dp2
S'../Data/sqlite_62.csv'
p3
(dp4
F0.35
(dp5
S'mmre'
p6
(dp7
S'bellwether'
p8
(lp9
cnumpy.core.multiarray
scalar
p10
(cnumpy
dtype
p11
(S'f8'
p12
I0
I1
tp13
Rp14
(I3
S'<'
p15
NNNI-1
I-1
I0
tp16
bS'\x99\xb8\xa5>yHT@'
p17
tp18
Rp19
ag10
(g14
S'/U\t\xb4\xc3GT@'
p20
tp21
Rp22
ag10
(g14
S'\x1dm\xff\xac\x98HT@'
p23
tp24
Rp25
ag10
(g14
S'\x04_j\xbe\xc2AT@'
p26
tp27
Rp28
ag10
(g14
S'\xb9j|\xd0yIT@'
p29
tp30
Rp31
ag10
(g14
S"\x9f\xfb\x8b'\x06HT@"
p32
tp33
Rp34
ag10
(g14
S'zT\xad\xa5\x99LT@'
p35
tp36
Rp37
ag10
(g14
S'\xc6-B9\x19GT@'
p38
tp39
Rp40
ag10
(g14
S'T\xff\xd0\x13\x02GT@'
p41
tp42
Rp43
ag10
(g14
S'\xec}`\xfe\xc8ET@'
p44
tp45
Rp46
ag10
(g14
S'\x9d\x12\xfb\x89.ET@'
p47
tp48
Rp49
ag10
(g14
S'\x15\xe4Z\xcadIT@'
p50
tp51
Rp52
ag10
(g14
S'\x16wm\x10>JT@'
p53
tp54
Rp55
ag10
(g14
S'\xac\xeb\xbeHQDT@'
p56
tp57
Rp58
ag10
(g14
S',cc\x02\xb9DT@'
p59
tp60
Rp61
ag10
(g14
S'|\x8d\xc7\xab\xdaET@'
p62
tp63
Rp64
ag10
(g14
S'\x96\x1e\x13q\x8bFT@'
p65
tp66
Rp67
ag10
(g14
S'\xe0\x0e\xbey\x1aET@'
p68
tp69
Rp70
ag10
(g14
S'\x00n"eAFT@'
p71
tp72
Rp73
ag10
(g14
S'\x8co\x9c\x010IT@'
p74
tp75
Rp76
asS'target'
p77
(lp78
g10
(g14
S'\n\xb8\xbb\xb0qH!@'
p79
tp80
Rp81
ag10
(g14
S'\x1fvk\x7f\xd1\xaf!@'
p82
tp83
Rp84
ag10
(g14
S'Db\xeb\x97\xf4\x01"@'
p85
tp86
Rp87
ag10
(g14
S'\xd5+\xe0\xa5\xcd\x08!@'
p88
tp89
Rp90
ag10
(g14
S'5\xf6\x08s\xea9 @'
p91
tp92
Rp93
ag10
(g14
S'X4+K)M!@'
p94
tp95
Rp96
ag10
(g14
S'\x95K\x9arR\xf5 @'
p97
tp98
Rp99
ag10
(g14
S'g\xc1\x9a\x8d\x04\x06!@'
p100
tp101
Rp102
ag10
(g14
S'\x94\xfc\x1bV\x9eg!@'
p103
tp104
Rp105
ag10
(g14
S'-\xc9\x0e\x10@\x8e"@'
p106
tp107
Rp108
ag10
(g14
S'\xb44\n-\t\xbb!@'
p109
tp110
Rp111
ag10
(g14
S'&\xbe\xc4\xccB\x86 @'
p112
tp113
Rp114
ag10
(g14
S'\x0c\x8b\xaf\xd8k\xef!@'
p115
tp116
Rp117
ag10
(g14
S'\xa2\x8bL\x8c\xc2\x17!@'
p118
tp119
Rp120
ag10
(g14
S'{~\x97\x0egs!@'
p121
tp122
Rp123
ag10
(g14
S'\xd8\xb8\x07\x8a\x8ar#@'
p124
tp125
Rp126
ag10
(g14
S'\xa3A\r\xff\x0b !@'
p127
tp128
Rp129
ag10
(g14
S'\xc0\xf5\xd4c\xfeu!@'
p130
tp131
Rp132
ag10
(g14
S'\x91\xfb\xb9\xe1l\xdd @'
p133
tp134
Rp135
ag10
(g14
S'R\xack_\x07p @'
p136
tp137
Rp138
asssss.