(dp0
S'../Data/sqlite_15.csv'
p1
(dp2
S'../Data/sqlite_56.csv'
p3
(dp4
F0.25
(dp5
S'abs_res'
p6
(dp7
S'bellwether'
p8
(lp9
cnumpy.core.multiarray
scalar
p10
(cnumpy
dtype
p11
(S'f8'
p12
I0
I1
tp13
Rp14
(I3
S'<'
p15
NNNI-1
I-1
I0
tp16
bS's\xe9&\x91\xf2p<A'
p17
tp18
Rp19
ag10
(g14
S'\xa1aW\x80\xbcp<A'
p20
tp21
Rp22
ag10
(g14
S'QUUUjp<A'
p23
tp24
Rp25
ag10
(g14
S'\xfb\x1b\xa1\x0c\xfbn<A'
p26
tp27
Rp28
ag10
(g14
S'.&xp\xfdo<A'
p29
tp30
Rp31
ag10
(g14
S'\x83\xdck.zn<A'
p32
tp33
Rp34
ag10
(g14
S'K\x0e-\xf2&p<A'
p35
tp36
Rp37
ag10
(g14
S'\xb0\x9f\x1a/\x9ep<A'
p38
tp39
Rp40
ag10
(g14
S'\x90\x88\x88H\xa4n<A'
p41
tp42
Rp43
ag10
(g14
S'\x97E\xb6\x139p<A'
p44
tp45
Rp46
ag10
(g14
S'z0O4\x05o<A'
p47
tp48
Rp49
ag10
(g14
S'\xd0Mbp\xf0p<A'
p50
tp51
Rp52
ag10
(g14
S'\xe4\xee\xee\x8e)p<A'
p53
tp54
Rp55
ag10
(g14
S'\x02X94pq<A'
p56
tp57
Rp58
ag10
(g14
S'PFo\x8b\xfbo<A'
p59
tp60
Rp61
ag10
(g14
S'\x11/\xdd\xc4#p<A'
p62
tp63
Rp64
ag10
(g14
S'\x8a\xc2\xf5HXo<A'
p65
tp66
Rp67
ag10
(g14
S'\xb3e\xad\xae\xa6q<A'
p68
tp69
Rp70
ag10
(g14
S'\xa0\rt:\xbdo<A'
p71
tp72
Rp73
ag10
(g14
S'[d;_\x8cn<A'
p74
tp75
Rp76
asS'target'
p77
(lp78
g10
(g14
S'\xc8v\xbe\x9f\x1a\xd7^@'
p79
tp80
Rp81
ag10
(g14
S'\xb8\x1e\x85\xebQ@]@'
p82
tp83
Rp84
ag10
(g14
S'd\xe5\xd0"\xdb\x99]@'
p85
tp86
Rp87
ag10
(g14
S'\xe3\xa5\x9b\xc4 \x02`@'
p88
tp89
Rp90
ag10
(g14
S'\xca\xa3p=\n\xb7Z@'
p91
tp92
Rp93
ag10
(g14
S'\xfe(\\\x8f\xc2\xed\\@'
p94
tp95
Rp96
ag10
(g14
S'\xe1Mb\x10X\x89^@'
p97
tp98
Rp99
ag10
(g14
S'\xa6\xc6K7\x89\x15]@'
p100
tp101
Rp102
ag10
(g14
S'\xde\xce\xf7S\xe3\x15]@'
p103
tp104
Rp105
ag10
(g14
S'\xa5\x1a/\xdd$\xae^@'
p106
tp107
Rp108
ag10
(g14
S'\x99p=\n\xd7\xfb]@'
p109
tp110
Rp111
ag10
(g14
S'|h\x91\xed|?]@'
p112
tp113
Rp114
ag10
(g14
S'b\x10X9\xb4\xc8]@'
p115
tp116
Rp117
ag10
(g14
S'/\xb2\x9d\xef\xa7\xe6\\@'
p118
tp119
Rp120
ag10
(g14
S'!\xb0rh\x91\x1d\\@'
p121
tp122
Rp123
ag10
(g14
S'\xc2\xf5(\\\x8f\x1a\\@'
p124
tp125
Rp126
ag10
(g14
S' \x04V\x0e-\xfa]@'
p127
tp128
Rp129
ag10
(g14
S'\x90\x16\xd9\xce\xf7\x13]@'
p130
tp131
Rp132
ag10
(g14
S'F\x0c\x02+\x87\xf6\\@'
p133
tp134
Rp135
ag10
(g14
S'\xb4\xf3\xfd\xd4xu^@'
p136
tp137
Rp138
asssss.