(dp0
S'../Data/sqlite_14.csv'
p1
(dp2
S'../Data/sqlite_97.csv'
p3
(dp4
F0.25
(dp5
S'mmre'
p6
(dp7
S'bellwether'
p8
(lp9
cnumpy.core.multiarray
scalar
p10
(cnumpy
dtype
p11
(S'f8'
p12
I0
I1
tp13
Rp14
(I3
S'<'
p15
NNNI-1
I-1
I0
tp16
bS'TrS(\xc2.U@'
p17
tp18
Rp19
ag10
(g14
S'\x88\xf7\xddUO:U@'
p20
tp21
Rp22
ag10
(g14
S'4\xe1dv&2U@'
p23
tp24
Rp25
ag10
(g14
S'K\xe7\xcc\xb3m5U@'
p26
tp27
Rp28
ag10
(g14
S'\xad\xb4\x19\x8dr3U@'
p29
tp30
Rp31
ag10
(g14
S'g\t\x04\x8e\x075U@'
p32
tp33
Rp34
ag10
(g14
S'\xe2+`\xd4t1U@'
p35
tp36
Rp37
ag10
(g14
S'c\\GV\x183U@'
p38
tp39
Rp40
ag10
(g14
S'\xce\xf0\x80\xe8\xb51U@'
p41
tp42
Rp43
ag10
(g14
S'@\xaa\xc7.\r9U@'
p44
tp45
Rp46
ag10
(g14
S'\x93\x060,\x9d2U@'
p47
tp48
Rp49
ag10
(g14
S'\x19\x8a)\xd3\xd9<U@'
p50
tp51
Rp52
ag10
(g14
S'\x18*tq\xf51U@'
p53
tp54
Rp55
ag10
(g14
S'\x0b\xd7\\ht4U@'
p56
tp57
Rp58
ag10
(g14
S'x}p\xf1z;U@'
p59
tp60
Rp61
ag10
(g14
S'\x18\xd2C4\xf40U@'
p62
tp63
Rp64
ag10
(g14
S'@\xffUD\xb41U@'
p65
tp66
Rp67
ag10
(g14
S'\xd3\x03Xf76U@'
p68
tp69
Rp70
ag10
(g14
S'5B\xc5\x19\xa1-U@'
p71
tp72
Rp73
ag10
(g14
S"w'\x94\xc7\xc62U@"
p74
tp75
Rp76
asS'target'
p77
(lp78
g10
(g14
S'\xed\x19fY\x08;V@'
p79
tp80
Rp81
ag10
(g14
S'\\q}}5(W@'
p82
tp83
Rp84
ag10
(g14
S'k\xf7\xf3\r\xa2(T@'
p85
tp86
Rp87
ag10
(g14
S'\xd1\xdc\x9b\xf6\x0ewQ@'
p88
tp89
Rp90
ag10
(g14
S'\xe1\xe7\xef\x86\xf0\xb8R@'
p91
tp92
Rp93
ag10
(g14
S'\nBo\x1e\x05\xd9U@'
p94
tp95
Rp96
ag10
(g14
S'\xed\x81\x0e\x95\xcb\xd1Q@'
p97
tp98
Rp99
ag10
(g14
S'\xbb\xae\n\xa1\xc8[R@'
p100
tp101
Rp102
ag10
(g14
S'\xd5hE\xefW\xaaN@'
p103
tp104
Rp105
ag10
(g14
S'f\x9eG\xafb\x94L@'
p106
tp107
Rp108
ag10
(g14
S'DI\xe1j\xab\x8b[@'
p109
tp110
Rp111
ag10
(g14
S'\xbc\x95\x15\xe1\x87\xa6N@'
p112
tp113
Rp114
ag10
(g14
S'\x96\xbd\xa3\x08&\x17\\@'
p115
tp116
Rp117
ag10
(g14
S'\xdc\x8f\x92\x1b|\x96Y@'
p118
tp119
Rp120
ag10
(g14
S'\xc5Z\xa5\x1e\x10|P@'
p121
tp122
Rp123
ag10
(g14
S'\x1e \x16N\x17SS@'
p124
tp125
Rp126
ag10
(g14
S'\xc8Nz\xedr\xddN@'
p127
tp128
Rp129
ag10
(g14
S'\x9d\x9a\xa2\x15\x03wW@'
p130
tp131
Rp132
ag10
(g14
S'\x05)!\xdb\xdb~W@'
p133
tp134
Rp135
ag10
(g14
S'\x11\xecX\x04\xdc\xc3Q@'
p136
tp137
Rp138
asssss.