(dp0
S'../Data/sqlite_65.csv'
p1
(dp2
S'../Data/sqlite_90.csv'
p3
(dp4
F0.1
(dp5
S'mmre'
p6
(dp7
S'bellwether'
p8
(lp9
cnumpy.core.multiarray
scalar
p10
(cnumpy
dtype
p11
(S'f8'
p12
I0
I1
tp13
Rp14
(I3
S'<'
p15
NNNI-1
I-1
I0
tp16
bS'+55\xea\x06wX@'
p17
tp18
Rp19
ag10
(g14
S'_}\x10\xf7\xebwX@'
p20
tp21
Rp22
ag10
(g14
S'\x04h`\xd0JvX@'
p23
tp24
Rp25
ag10
(g14
S'\xa5\xd6i\xc7\xa5wX@'
p26
tp27
Rp28
ag10
(g14
S"-o\x89H'zX@"
p29
tp30
Rp31
ag10
(g14
S'\xb6\xac\xb5\xf3\xb9vX@'
p32
tp33
Rp34
ag10
(g14
S'Ew\xb3+OwX@'
p35
tp36
Rp37
ag10
(g14
S'\xde\x86\xf8)\x1ewX@'
p38
tp39
Rp40
ag10
(g14
S'=\x8c\xd9\x00/vX@'
p41
tp42
Rp43
ag10
(g14
S'ickQ\x93wX@'
p44
tp45
Rp46
ag10
(g14
S'\xc2\x0e\xcd4:vX@'
p47
tp48
Rp49
ag10
(g14
S'N\x1f4\xae\x17wX@'
p50
tp51
Rp52
ag10
(g14
S'\xdc\xcbI0EvX@'
p53
tp54
Rp55
ag10
(g14
S'm\x8d\x86\xcb\x07wX@'
p56
tp57
Rp58
ag10
(g14
S'awI\x9b[vX@'
p59
tp60
Rp61
ag10
(g14
S'\xd72HfayX@'
p62
tp63
Rp64
ag10
(g14
S'\xc33p\xce\x8fwX@'
p65
tp66
Rp67
ag10
(g14
S'\xb4\x8a7\xc8\x9ewX@'
p68
tp69
Rp70
ag10
(g14
S'\xd7\xb2\xa5\xdb\x8exX@'
p71
tp72
Rp73
ag10
(g14
S'\xca\xc1>\xa0 wX@'
p74
tp75
Rp76
asS'target'
p77
(lp78
g10
(g14
S'\xd1\x18n&\xaePA@'
p79
tp80
Rp81
ag10
(g14
S'\x16\xc0/\xaf\xf3\\A@'
p82
tp83
Rp84
ag10
(g14
S'^\x0fX4\x17U@@'
p85
tp86
Rp87
ag10
(g14
S'\x03\x16\x82\\\xe8.@@'
p88
tp89
Rp90
ag10
(g14
S'rl\x01\x10c\x1cB@'
p91
tp92
Rp93
ag10
(g14
S'\x10R\xe0\xf2\xfblB@'
p94
tp95
Rp96
ag10
(g14
S'\xe4\x03\xf4\xa2\xfb\x94D@'
p97
tp98
Rp99
ag10
(g14
S'\xae.[\xf9z?A@'
p100
tp101
Rp102
ag10
(g14
S'\xb4e\xd7RN\xe6A@'
p103
tp104
Rp105
ag10
(g14
S'\x03\xd7\x843\x1d\xfa@@'
p106
tp107
Rp108
ag10
(g14
S'\x1e\xfbt+\xbe\x11A@'
p109
tp110
Rp111
ag10
(g14
S'&x\x9d\xd5\xb8\xaa@@'
p112
tp113
Rp114
ag10
(g14
S'\xc9\x92\xf914\x97A@'
p115
tp116
Rp117
ag10
(g14
S'\xeb\xba\x1fk\xfa!B@'
p118
tp119
Rp120
ag10
(g14
S'\xae,q\x16\x83k@@'
p121
tp122
Rp123
ag10
(g14
S'\xd3I@\x95\xcf\xa1C@'
p124
tp125
Rp126
ag10
(g14
S'\x04\xfa\xf5g\xec\xbd@@'
p127
tp128
Rp129
ag10
(g14
S'\xc5\xebT\x05]\xe5@@'
p130
tp131
Rp132
ag10
(g14
S'7\xdf\xb1d\xa5wA@'
p133
tp134
Rp135
ag10
(g14
S'\x81\n\xc0\x9eaj@@'
p136
tp137
Rp138
asssss.