(dp0
S'../Data/sqlite_19.csv'
p1
(dp2
S'../Data/sqlite_91.csv'
p3
(dp4
F0.05
(dp5
S'mmre'
p6
(dp7
S'bellwether'
p8
(lp9
cnumpy.core.multiarray
scalar
p10
(cnumpy
dtype
p11
(S'f8'
p12
I0
I1
tp13
Rp14
(I3
S'<'
p15
NNNI-1
I-1
I0
tp16
bS'\xd5\x84\x83\x99t`X@'
p17
tp18
Rp19
ag10
(g14
S'\x91\xb3\xb4\xe8qeX@'
p20
tp21
Rp22
ag10
(g14
S'\x7fF"\xa7Q`X@'
p23
tp24
Rp25
ag10
(g14
S'\x06S\xb4\xb0NbX@'
p26
tp27
Rp28
ag10
(g14
S'\xd4o\x19\xc3\xdfaX@'
p29
tp30
Rp31
ag10
(g14
S'\xc5\x18f4\t_X@'
p32
tp33
Rp34
ag10
(g14
S'B\xfc\x8b\xb9\xb5]X@'
p35
tp36
Rp37
ag10
(g14
S'v:\x17\xd5FeX@'
p38
tp39
Rp40
ag10
(g14
S'\xa4\x8fB\xce\xe8_X@'
p41
tp42
Rp43
ag10
(g14
S'*\x0b\xf1\x0b\xee_X@'
p44
tp45
Rp46
ag10
(g14
S'\xaae\xafL\xf7bX@'
p47
tp48
Rp49
ag10
(g14
S'\xd8<5`q]X@'
p50
tp51
Rp52
ag10
(g14
S'n\x9dD\xd3w]X@'
p53
tp54
Rp55
ag10
(g14
S'j-\x062ubX@'
p56
tp57
Rp58
ag10
(g14
S'\xae=\xdf\xe0\x1c]X@'
p59
tp60
Rp61
ag10
(g14
S'}\xbd\xae\x8f\xf8cX@'
p62
tp63
Rp64
ag10
(g14
S'\xa1\x1c\x07\xf5\xe1_X@'
p65
tp66
Rp67
ag10
(g14
S'!f\xdf\xcaYbX@'
p68
tp69
Rp70
ag10
(g14
S'\xdd\x90[`$]X@'
p71
tp72
Rp73
ag10
(g14
S';6F\xf3mbX@'
p74
tp75
Rp76
asS'target'
p77
(lp78
g10
(g14
S'\x13Aj\xf1\xa3\xb0O@'
p79
tp80
Rp81
ag10
(g14
S'\xcaF\xf3\xdd\xd4\xc8O@'
p82
tp83
Rp84
ag10
(g14
S'\x82J*!\x07FP@'
p85
tp86
Rp87
ag10
(g14
S'\xbd\xa2|\xc8\x99\xb0N@'
p88
tp89
Rp90
ag10
(g14
S'\xd4\xd0>wCDP@'
p91
tp92
Rp93
ag10
(g14
S"\xa1\x99(T\xe0'O@"
p94
tp95
Rp96
ag10
(g14
S'\xc7\xa3g\n\xa5\xb1P@'
p97
tp98
Rp99
ag10
(g14
S'\xb6A\xf3d\xd4\x1bL@'
p100
tp101
Rp102
ag10
(g14
S'\x18J<\x99\xc7~P@'
p103
tp104
Rp105
ag10
(g14
S'Y\xfa9\xea\xf7\x87P@'
p106
tp107
Rp108
ag10
(g14
S'\x041h\x9ec\xfeO@'
p109
tp110
Rp111
ag10
(g14
S'\xae<\r\x96t\x92P@'
p112
tp113
Rp114
ag10
(g14
S'@\xc8D\xa3\x93\xd4O@'
p115
tp116
Rp117
ag10
(g14
S'v\xa0 \xb0=\xe8M@'
p118
tp119
Rp120
ag10
(g14
S'\xf4G\xc5\xea\xa2\x0cP@'
p121
tp122
Rp123
ag10
(g14
S'l\x04\x9a\xb8\xfa\x83P@'
p124
tp125
Rp126
ag10
(g14
S'\x9b\xd9\x0e\x05\xa1\x1fP@'
p127
tp128
Rp129
ag10
(g14
S'\xc2gJE\xfa\xa5N@'
p130
tp131
Rp132
ag10
(g14
S'\x0f9o\xcc\x9c\xe0O@'
p133
tp134
Rp135
ag10
(g14
S'p\x17\x8aC"\xd5N@'
p136
tp137
Rp138
asssss.