(dp0
S'../Data/sqlite_30.csv'
p1
(dp2
S'../Data/sqlite_97.csv'
p3
(dp4
F0.1
(dp5
S'mmre'
p6
(dp7
S'bellwether'
p8
(lp9
cnumpy.core.multiarray
scalar
p10
(cnumpy
dtype
p11
(S'f8'
p12
I0
I1
tp13
Rp14
(I3
S'<'
p15
NNNI-1
I-1
I0
tp16
bS'\x8b\x853J\xa4GX@'
p17
tp18
Rp19
ag10
(g14
S'\xc7\x02\x9cA\xeaFX@'
p20
tp21
Rp22
ag10
(g14
S'\xad\xd0\xfcr\xa5FX@'
p23
tp24
Rp25
ag10
(g14
S'\x94(\x03b\xbdFX@'
p26
tp27
Rp28
ag10
(g14
S'\x18\xf7\x9b\xa26GX@'
p29
tp30
Rp31
ag10
(g14
S'-z\x1b\xda\xd3GX@'
p32
tp33
Rp34
ag10
(g14
S'8\x08\xd2M\xe7FX@'
p35
tp36
Rp37
ag10
(g14
S'\x0bRj\xd6aGX@'
p38
tp39
Rp40
ag10
(g14
S'\xd2by$\x01GX@'
p41
tp42
Rp43
ag10
(g14
S'9\x03W\xe2\xc4GX@'
p44
tp45
Rp46
ag10
(g14
S'\xc4\x15!\xd3kGX@'
p47
tp48
Rp49
ag10
(g14
S'\xf0\x87)\xf4\xa4FX@'
p50
tp51
Rp52
ag10
(g14
S'N\xf9R.\xffFX@'
p53
tp54
Rp55
ag10
(g14
S'x\t\xeb\x0e\x85GX@'
p56
tp57
Rp58
ag10
(g14
S'\x86\x00\xdc 7HX@'
p59
tp60
Rp61
ag10
(g14
S'\xc6\x80\x0b\x1a\x16GX@'
p62
tp63
Rp64
ag10
(g14
S'%\xe3\xb4GfFX@'
p65
tp66
Rp67
ag10
(g14
S'4\x0e\x83\x18IGX@'
p68
tp69
Rp70
ag10
(g14
S'A\xb5\x1d?\xb7FX@'
p71
tp72
Rp73
ag10
(g14
S'\xfd\x1cn\xa5\xb8GX@'
p74
tp75
Rp76
asS'target'
p77
(lp78
g10
(g14
S'\xa7S<f\xb4\xaeC@'
p79
tp80
Rp81
ag10
(g14
S'\x8d\xfa\rg\xba\rF@'
p82
tp83
Rp84
ag10
(g14
S'(`\xd3\xef]!Q@'
p85
tp86
Rp87
ag10
(g14
S'\x8f\x90\xff\xc8AjR@'
p88
tp89
Rp90
ag10
(g14
S'\x8dW\xc1\x8d\xcd\x05[@'
p91
tp92
Rp93
ag10
(g14
S'$\xde\xc7\xfa=rQ@'
p94
tp95
Rp96
ag10
(g14
S')\x84S\xfen\xffS@'
p97
tp98
Rp99
ag10
(g14
S'\xf4\xd3$\xa4\xd3\xa0Q@'
p100
tp101
Rp102
ag10
(g14
S'\xde#|q~\x98W@'
p103
tp104
Rp105
ag10
(g14
S'(\xf2^}\xafn[@'
p106
tp107
Rp108
ag10
(g14
S'F\x8e\x98\xc8\xde\x11C@'
p109
tp110
Rp111
ag10
(g14
S'`\xf5\xd31\xcd\xdbV@'
p112
tp113
Rp114
ag10
(g14
S'%m\xe0\xc2\xc8\xb9S@'
p115
tp116
Rp117
ag10
(g14
S'zs\xcc(W\xe8R@'
p118
tp119
Rp120
ag10
(g14
S'\xe8x\xed\xd5#QO@'
p121
tp122
Rp123
ag10
(g14
S'\x8b\x15^_o\x8cV@'
p124
tp125
Rp126
ag10
(g14
S'lA\xde!\x03d]@'
p127
tp128
Rp129
ag10
(g14
S'\xafH\xfb\xc8\xa1\x8d^@'
p130
tp131
Rp132
ag10
(g14
S' \xed\xb6T\xa3\xe2X@'
p133
tp134
Rp135
ag10
(g14
S'\x15\xb38\x1f\xb1%P@'
p136
tp137
Rp138
asssss.