(dp0
S'../Data/sqlite_33.csv'
p1
(dp2
S'../Data/sqlite_81.csv'
p3
(dp4
F0.35
(dp5
S'mmre'
p6
(dp7
S'bellwether'
p8
(lp9
cnumpy.core.multiarray
scalar
p10
(cnumpy
dtype
p11
(S'f8'
p12
I0
I1
tp13
Rp14
(I3
S'<'
p15
NNNI-1
I-1
I0
tp16
bS'\xe3q\xd9F\x88RX@'
p17
tp18
Rp19
ag10
(g14
S'\x1fs6\xc5ORX@'
p20
tp21
Rp22
ag10
(g14
S'a\xf4MHBRX@'
p23
tp24
Rp25
ag10
(g14
S'\xaceZ\x1cMRX@'
p26
tp27
Rp28
ag10
(g14
S'\xd4\xd2\x9f\xf2kRX@'
p29
tp30
Rp31
ag10
(g14
S'\xe5\x81S\x00fRX@'
p32
tp33
Rp34
ag10
(g14
S'Jk_A.RX@'
p35
tp36
Rp37
ag10
(g14
S'%\x19\xa9\x1deRX@'
p38
tp39
Rp40
ag10
(g14
S'\x86\xa3\xd3@FRX@'
p41
tp42
Rp43
ag10
(g14
S'b\x01\xf4qNRX@'
p44
tp45
Rp46
ag10
(g14
S'\x11C\x03YeRX@'
p47
tp48
Rp49
ag10
(g14
S'3:\xb3$uRX@'
p50
tp51
Rp52
ag10
(g14
S'\xa3(+\x04wRX@'
p53
tp54
Rp55
ag10
(g14
S'_4\x90\xe1<RX@'
p56
tp57
Rp58
ag10
(g14
S'\xbd\xdc\xfd\x06pRX@'
p59
tp60
Rp61
ag10
(g14
S'\x16q\x07\x04YRX@'
p62
tp63
Rp64
ag10
(g14
S'-2\x1c:`RX@'
p65
tp66
Rp67
ag10
(g14
S'\x8a7\x1d\xb5\x15RX@'
p68
tp69
Rp70
ag10
(g14
S';f\x84v RX@'
p71
tp72
Rp73
ag10
(g14
S'"0\xf9PMRX@'
p74
tp75
Rp76
asS'target'
p77
(lp78
g10
(g14
S's2}\x08\x94\xe0\xef?'
p79
tp80
Rp81
ag10
(g14
S'\xd3_k:\xc7R\xef?'
p82
tp83
Rp84
ag10
(g14
S'\x0e\x04\x94mA|\xf1?'
p85
tp86
Rp87
ag10
(g14
S'\xa5b\xe3Pz?\xf0?'
p88
tp89
Rp90
ag10
(g14
S'\xc6\x99o\x90&m\xef?'
p91
tp92
Rp93
ag10
(g14
S'\x1b\xe1|\xf9\x0e\xdf\xf0?'
p94
tp95
Rp96
ag10
(g14
S'Q\xe4SA.\xd5\xf2?'
p97
tp98
Rp99
ag10
(g14
S'\x9b\x13\x99\xb44}\xf0?'
p100
tp101
Rp102
ag10
(g14
S'\xdd`\x9b\\\x9c\x19\xef?'
p103
tp104
Rp105
ag10
(g14
S'f\xbbA\xa1\x0c\xb8\xee?'
p106
tp107
Rp108
ag10
(g14
S'\xa2\rO\xe2\x95\x87\xef?'
p109
tp110
Rp111
ag10
(g14
S'\xd0\x16(\xe0QQ\xf0?'
p112
tp113
Rp114
ag10
(g14
S'\xf4(\xb6\x08\x7f\xcb\xf0?'
p115
tp116
Rp117
ag10
(g14
S'E\xee\xfa\xd4\x88;\x0b@'
p118
tp119
Rp120
ag10
(g14
S'\x9f:z>\x13\x10\xf0?'
p121
tp122
Rp123
ag10
(g14
S'\\\xc2\n\x92zI\x01@'
p124
tp125
Rp126
ag10
(g14
S'\xd0}#\x7f\x82\x82\xf0?'
p127
tp128
Rp129
ag10
(g14
S'>\x17\xbc\xac\xa5\xf2\xf6?'
p130
tp131
Rp132
ag10
(g14
S'\x0f\xa7H\x08-D\x00@'
p133
tp134
Rp135
ag10
(g14
S'\x1a\xf4\x1aeq\xc2\x00@'
p136
tp137
Rp138
asssss.