(dp0
S'../Data/sqlite_34.csv'
p1
(dp2
S'../Data/sqlite_73.csv'
p3
(dp4
F0.05
(dp5
S'mmre'
p6
(dp7
S'bellwether'
p8
(lp9
cnumpy.core.multiarray
scalar
p10
(cnumpy
dtype
p11
(S'f8'
p12
I0
I1
tp13
Rp14
(I3
S'<'
p15
NNNI-1
I-1
I0
tp16
bS'\x85C\x0f \xb88A@'
p17
tp18
Rp19
ag10
(g14
S'1\x83U\xac6OA@'
p20
tp21
Rp22
ag10
(g14
S'\xce\xa8\xee\x1b\xb2LA@'
p23
tp24
Rp25
ag10
(g14
S'\x91`\x85]\xa8:A@'
p26
tp27
Rp28
ag10
(g14
S'\xefK\xde/yEA@'
p29
tp30
Rp31
ag10
(g14
S"(A'\xfe\xef>A@"
p32
tp33
Rp34
ag10
(g14
S'\xaap\xe0X\xa48A@'
p35
tp36
Rp37
ag10
(g14
S'\xdcP\xe1~\x8f>A@'
p38
tp39
Rp40
ag10
(g14
S'\xbb\xb7q\x9b\xaa:A@'
p41
tp42
Rp43
ag10
(g14
S'\x1b\xdf\xd8\x08y=A@'
p44
tp45
Rp46
ag10
(g14
S'\x1er\xb1\x93*?A@'
p47
tp48
Rp49
ag10
(g14
S'\xc0\x92\xebz\x8f9A@'
p50
tp51
Rp52
ag10
(g14
S'\xc5"(Z\x179A@'
p53
tp54
Rp55
ag10
(g14
S'\xa7\x98\xd9|w0A@'
p56
tp57
Rp58
ag10
(g14
S'R!ouh2A@'
p59
tp60
Rp61
ag10
(g14
S'\x94w\x00\x9az3A@'
p62
tp63
Rp64
ag10
(g14
S'\xef\xa2-,\x9d>A@'
p65
tp66
Rp67
ag10
(g14
S'z\xa6\xa8\x16\xf9DA@'
p68
tp69
Rp70
ag10
(g14
S'$C\x14\xf5\x85DA@'
p71
tp72
Rp73
ag10
(g14
S'\xccxX\x81\x9f3A@'
p74
tp75
Rp76
asS'target'
p77
(lp78
g10
(g14
S'd\x1e\x80\xdaO\xad*@'
p79
tp80
Rp81
ag10
(g14
S']i\n\xb1N8&@'
p82
tp83
Rp84
ag10
(g14
S'\x0fNS\x19\xc4Z(@'
p85
tp86
Rp87
ag10
(g14
S'\xf0U\x0b\x03\xefT)@'
p88
tp89
Rp90
ag10
(g14
S'=E\xdf\xed\xdb\xfb)@'
p91
tp92
Rp93
ag10
(g14
S'V54\nUL.@'
p94
tp95
Rp96
ag10
(g14
S"r'n\x99~\xac0@"
p97
tp98
Rp99
ag10
(g14
S'7\xbc\xc0\x83\x89;)@'
p100
tp101
Rp102
ag10
(g14
S'\xe5\xf8d{K")@'
p103
tp104
Rp105
ag10
(g14
S'xJF\xb3N00@'
p106
tp107
Rp108
ag10
(g14
S'!\xf8\xbcO\x01,-@'
p109
tp110
Rp111
ag10
(g14
S'\xcf\x15KL\x06\x9f)@'
p112
tp113
Rp114
ag10
(g14
S'\xf5\xf9?$!\xa4.@'
p115
tp116
Rp117
ag10
(g14
S'\xa0\x9e\xdb\x1f\xacj-@'
p118
tp119
Rp120
ag10
(g14
S'\xfc\x88\x88\xd5b\x05-@'
p121
tp122
Rp123
ag10
(g14
S'\xf0\xdd^u\xea\x9c*@'
p124
tp125
Rp126
ag10
(g14
S'\xa6\x15\x12\xb2!\x13.@'
p127
tp128
Rp129
ag10
(g14
S"\xa3\xbb\xe8z+\xc5'@"
p130
tp131
Rp132
ag10
(g14
S'\x8f\xe9y\xca\x07\xa8(@'
p133
tp134
Rp135
ag10
(g14
S'\xde\xa8\x88\xf4\xfd\xe5+@'
p136
tp137
Rp138
asssss.