(dp0
S'../Data/sqlite_84.csv'
p1
(dp2
S'../Data/sqlite_89.csv'
p3
(dp4
F0.4
(dp5
S'mmre'
p6
(dp7
S'bellwether'
p8
(lp9
cnumpy.core.multiarray
scalar
p10
(cnumpy
dtype
p11
(S'f8'
p12
I0
I1
tp13
Rp14
(I3
S'<'
p15
NNNI-1
I-1
I0
tp16
bS'XC]p|\x07C@'
p17
tp18
Rp19
ag10
(g14
S'*>\xdd\xd0\xadKC@'
p20
tp21
Rp22
ag10
(g14
S'\xab#\xdduTyC@'
p23
tp24
Rp25
ag10
(g14
S'\xd1\xed[\xa2\x95MC@'
p26
tp27
Rp28
ag10
(g14
S'*a\xb8\xce\\9C@'
p29
tp30
Rp31
ag10
(g14
S'\xfd/\xd1<T\xefB@'
p32
tp33
Rp34
ag10
(g14
S'\xb4\xdd]\x1c\xe3CC@'
p35
tp36
Rp37
ag10
(g14
S'\xbb\xb8\xc7=p6C@'
p38
tp39
Rp40
ag10
(g14
S'\xeb_\xc0Sg\xfdB@'
p41
tp42
Rp43
ag10
(g14
S'1\xbby\xacL\x10C@'
p44
tp45
Rp46
ag10
(g14
S'\xbe\x8b#\x00\x19\x0fC@'
p47
tp48
Rp49
ag10
(g14
S'\xc8%\xf1\x1c\x87\xf0B@'
p50
tp51
Rp52
ag10
(g14
S'\xdf\xab@\x91b\x1eC@'
p53
tp54
Rp55
ag10
(g14
S'#\xfc\xfa\xb3\x11(C@'
p56
tp57
Rp58
ag10
(g14
S"\xf9_\x17#'\x04C@"
p59
tp60
Rp61
ag10
(g14
S',\xde|VB"C@'
p62
tp63
Rp64
ag10
(g14
S'{g\xf3\xd3\xa29C@'
p65
tp66
Rp67
ag10
(g14
S'MrRl\xaeOC@'
p68
tp69
Rp70
ag10
(g14
S'\x8f\x08W\xcdu\x15C@'
p71
tp72
Rp73
ag10
(g14
S'n\x9a\x1d\xd0~$C@'
p74
tp75
Rp76
asS'target'
p77
(lp78
g10
(g14
S';\xdf\x82\x1b\x02\xf9P@'
p79
tp80
Rp81
ag10
(g14
S'LA\x8a\x08UjW@'
p82
tp83
Rp84
ag10
(g14
S'`\x85\x89D\x9a\xe1Q@'
p85
tp86
Rp87
ag10
(g14
S'\x08D\x1e\xc9`NP@'
p88
tp89
Rp90
ag10
(g14
S'\xf6\xd2\x89\xd6\xef\x86N@'
p91
tp92
Rp93
ag10
(g14
S'wX\xd7\xb7\xfd\xabQ@'
p94
tp95
Rp96
ag10
(g14
S';\xf75\xde9,R@'
p97
tp98
Rp99
ag10
(g14
S'\xa8W\x91\xc8e\x08Q@'
p100
tp101
Rp102
ag10
(g14
S'\xb1\n}\xfe\x8f\x7fP@'
p103
tp104
Rp105
ag10
(g14
S'\x038\xfc\xf5\x80\xe3L@'
p106
tp107
Rp108
ag10
(g14
S'&\xf4\xfa\x82\xc2\xe4Q@'
p109
tp110
Rp111
ag10
(g14
S'|YP\xc8\x8c$Q@'
p112
tp113
Rp114
ag10
(g14
S'\x8b\x94\xc5F\x94vR@'
p115
tp116
Rp117
ag10
(g14
S'rZ\x9ez3JQ@'
p118
tp119
Rp120
ag10
(g14
S'0Z\xc9\xa0\x84/Y@'
p121
tp122
Rp123
ag10
(g14
S'\x83\xe3uf\xadlS@'
p124
tp125
Rp126
ag10
(g14
S'\xe7*\xd4\xe2\x13\xb7S@'
p127
tp128
Rp129
ag10
(g14
S'i \x92"@"S@'
p130
tp131
Rp132
ag10
(g14
S'\x11\xc2~\xf4j\xc1N@'
p133
tp134
Rp135
ag10
(g14
S'\xbf\x08\x18\xb29\x8eR@'
p136
tp137
Rp138
asssss.