(dp0
S'../Data/sqlite_29.csv'
p1
(dp2
S'../Data/sqlite_30.csv'
p3
(dp4
F0.1
(dp5
S'abs_res'
p6
(dp7
S'bellwether'
p8
(lp9
cnumpy.core.multiarray
scalar
p10
(cnumpy
dtype
p11
(S'f8'
p12
I0
I1
tp13
Rp14
(I3
S'<'
p15
NNNI-1
I-1
I0
tp16
bS'\xfd*\x87v22DA'
p17
tp18
Rp19
ag10
(g14
S'\xa8rh1_1DA'
p20
tp21
Rp22
ag10
(g14
S'\x03+\x876z1DA'
p23
tp24
Rp25
ag10
(g14
S'95^\xaa%1DA'
p26
tp27
Rp28
ag10
(g14
S'm\x12\x83\xc0r1DA'
p29
tp30
Rp31
ag10
(g14
S'3\xd0i\x83\xe21DA'
p32
tp33
Rp34
ag10
(g14
S'@`\xe5\xb0\x011DA'
p35
tp36
Rp37
ag10
(g14
S'a\x01r?\xe31DA'
p38
tp39
Rp40
ag10
(g14
S'233\xa3T1DA'
p41
tp42
Rp43
ag10
(g14
S'F\xb6\xf3\xcd\x971DA'
p44
tp45
Rp46
ag10
(g14
S'4\xa5\xe2\x1c\xb51DA'
p47
tp48
Rp49
ag10
(g14
S'"\xce>\x8c\x9e1DA'
p50
tp51
Rp52
ag10
(g14
S'\xb5t\x93\xc8\xeb1DA'
p53
tp54
Rp55
ag10
(g14
S'\xf0\xfd\xd4\x08\x072DA'
p56
tp57
Rp58
ag10
(g14
S'_\xbaI\x9c\xf00DA'
p59
tp60
Rp61
ag10
(g14
S'D\x8bl\x17\xe70DA'
p62
tp63
Rp64
ag10
(g14
S'4\x89A\x80\xde1DA'
p65
tp66
Rp67
ag10
(g14
S'\xe8Q\xb8\x9e;1DA'
p68
tp69
Rp70
ag10
(g14
S'#\xce>|(1DA'
p71
tp72
Rp73
ag10
(g14
S'\x08\x83\xc0j\x021DA'
p74
tp75
Rp76
asS'target'
p77
(lp78
g10
(g14
S't\xe7\xfb\xa9\xf1\xbaA@'
p79
tp80
Rp81
ag10
(g14
S'\x03\xd5x\xe9&\xc1F@'
p82
tp83
Rp84
ag10
(g14
S'\xd4\xf7S\xe3\xa5\xabJ@'
p85
tp86
Rp87
ag10
(g14
S'\xa8p=\n\xd73B@'
p88
tp89
Rp90
ag10
(g14
S'&\xb0rh\x91\x1dF@'
p91
tp92
Rp93
ag10
(g14
S'G`\xe5\xd0"{C@'
p94
tp95
Rp96
ag10
(g14
S'\xcc\xcc\xcc\xcc\xcc\x8cB@'
p97
tp98
Rp99
ag10
(g14
S'\xc2 \xb0rh\x91B@'
p100
tp101
Rp102
ag10
(g14
S'\x82A`\xe5\xd0\xc2<@'
p103
tp104
Rp105
ag10
(g14
S'\xd5Mb\x10X)R@'
p106
tp107
Rp108
ag10
(g14
S'\x1a\xaeG\xe1z\xf4D@'
p109
tp110
Rp111
ag10
(g14
S'\xdb\xa1E\xb6\xf3\xcdF@'
p112
tp113
Rp114
ag10
(g14
S'\xf7\xd2Mb\x10\xe8A@'
p115
tp116
Rp117
ag10
(g14
S'Hb\x10X9dA@'
p118
tp119
Rp120
ag10
(g14
S'\xdcMb\x10X\xb9R@'
p121
tp122
Rp123
ag10
(g14
S'z\x93\x18\x04V^C@'
p124
tp125
Rp126
ag10
(g14
S'\x00\xd5x\xe9&QC@'
p127
tp128
Rp129
ag10
(g14
S'\x95\xc2\xf5(\\\xaf=@'
p130
tp131
Rp132
ag10
(g14
S'{\xbe\x9f\x1a/\x8dH@'
p133
tp134
Rp135
ag10
(g14
S'\xd7Mb\x10XY?@'
p136
tp137
Rp138
asssss.