(dp0
S'../Data/sqlite_60.csv'
p1
(dp2
S'../Data/sqlite_82.csv'
p3
(dp4
F0.35
(dp5
S'abs_res'
p6
(dp7
S'bellwether'
p8
(lp9
cnumpy.core.multiarray
scalar
p10
(cnumpy
dtype
p11
(S'f8'
p12
I0
I1
tp13
Rp14
(I3
S'<'
p15
NNNI-1
I-1
I0
tp16
bS'1\xdd$*\x8ejbA'
p17
tp18
Rp19
ag10
(g14
S'\x15\xbd-\xa7\x83obA'
p20
tp21
Rp22
ag10
(g14
S'\xce\x06:eglbA'
p23
tp24
Rp25
ag10
(g14
S'v!i\x8e\xbfYbA'
p26
tp27
Rp28
ag10
(g14
S'\xc0\xca\xa1=J\\bA'
p29
tp30
Rp31
ag10
(g14
S'\x19\xbd-\xabTkbA'
p32
tp33
Rp34
ag10
(g14
S'\xaaT\x9c\x11UfbA'
p35
tp36
Rp37
ag10
(g14
S'j\xe7\xfb\xa17fbA'
p38
tp39
Rp40
ag10
(g14
S'LS*\xe6\x8dkbA'
p41
tp42
Rp43
ag10
(g14
S'\r\x83\xc0:\x8etbA'
p44
tp45
Rp46
ag10
(g14
S'\x01\xb9\xd7\x08\xb5^bA'
p47
tp48
Rp49
ag10
(g14
S'\xc9/\x96\x9c\xf2ibA'
p50
tp51
Rp52
ag10
(g14
S'&1\x08\xf8\x11jbA'
p53
tp54
Rp55
ag10
(g14
S'\xff~jx\xd8ebA'
p56
tp57
Rp58
ag10
(g14
S'\xd0"\xdb\x1d8lbA'
p59
tp60
Rp61
ag10
(g14
S'\xdc\x96\xb5\xfa\x04gbA'
p62
tp63
Rp64
ag10
(g14
S'\xde\x08e`0vbA'
p65
tp66
Rp67
ag10
(g14
S's\xaf\xb9\x0c\xe9fbA'
p68
tp69
Rp70
ag10
(g14
S'U\xe3\xa5+\x01ebA'
p71
tp72
Rp73
ag10
(g14
S'\xd5\x15 \xc3\xf5gbA'
p74
tp75
Rp76
asS'target'
p77
(lp78
g10
(g14
S'(^\xbaI\x0c\xfcu@'
p79
tp80
Rp81
ag10
(g14
S'F\x0c\x02+\x87\xeax@'
p82
tp83
Rp84
ag10
(g14
S'\xc2v\xbe\x9f\x1a\x15t@'
p85
tp86
Rp87
ag10
(g14
S'\xfb\xd4x\xe9&\xb7r@'
p88
tp89
Rp90
ag10
(g14
S'\x86\x97n\x12\x83\xa7~@'
p91
tp92
Rp93
ag10
(g14
S'\xbcI\x0c\x02+P~@'
p94
tp95
Rp96
ag10
(g14
S'\xf6*\x87\x16\xd9\x19t@'
p97
tp98
Rp99
ag10
(g14
S'\x06\x81\x95C\x8b\xcfv@'
p100
tp101
Rp102
ag10
(g14
S'_;\xdfO\x8d>{@'
p103
tp104
Rp105
ag10
(g14
S"\x94C\x8bl\xe7's@"
p106
tp107
Rp108
ag10
(g14
S'Rd;\xdfO\xc7t@'
p109
tp110
Rp111
ag10
(g14
S'@5^\xbaI\x1e}@'
p112
tp113
Rp114
ag10
(g14
S'\x1e\xbfX\xf2\x8b1v@'
p115
tp116
Rp117
ag10
(g14
S'\x02V\x0e-\xb2Kv@'
p118
tp119
Rp120
ag10
(g14
S'\x99\xc4 \xb0rIy@'
p121
tp122
Rp123
ag10
(g14
S'\xe5\xa7\xc6K7\xbd{@'
p124
tp125
Rp126
ag10
(g14
S'sh\x91\xed|i}@'
p127
tp128
Rp129
ag10
(g14
S'l\xe7\xfb\xa9\xf1\xc5t@'
p130
tp131
Rp132
ag10
(g14
S'\x96\x18\x04V\x0e@w@'
p133
tp134
Rp135
ag10
(g14
S'\\ffff\xa8u@'
p136
tp137
Rp138
asssss.