(dp0
S'../Data/sqlite_4.csv'
p1
(dp2
S'../Data/sqlite_51.csv'
p3
(dp4
F0.25
(dp5
S'abs_res'
p6
(dp7
S'bellwether'
p8
(lp9
cnumpy.core.multiarray
scalar
p10
(cnumpy
dtype
p11
(S'f8'
p12
I0
I1
tp13
Rp14
(I3
S'<'
p15
NNNI-1
I-1
I0
tp16
bS'\x8d\xb3\x0f?`O=A'
p17
tp18
Rp19
ag10
(g14
S'\xde\xa5\x9b$DM=A'
p20
tp21
Rp22
ag10
(g14
S'N\xf2\x8b\xc5\xc5L=A'
p23
tp24
Rp25
ag10
(g14
S'\xff\xe3^\x93zN=A'
p26
tp27
Rp28
ag10
(g14
S'\xc5K7)\x9eM=A'
p29
tp30
Rp31
ag10
(g14
S'W\xffF\x88\x0fM=A'
p32
tp33
Rp34
ag10
(g14
S'U\x80\xdc\x8brO=A'
p35
tp36
Rp37
ag10
(g14
S';B\x19\xbdBO=A'
p38
tp39
Rp40
ag10
(g14
S'\x0bX9t\xddN=A'
p41
tp42
Rp43
ag10
(g14
S'\xa4n\x12\xe35N=A'
p44
tp45
Rp46
ag10
(g14
S'N~\xb1\x04\x94L=A'
p47
tp48
Rp49
ag10
(g14
S'\xb0\x1e\x85K\x02N=A'
p50
tp51
Rp52
ag10
(g14
S'\x89\t\x1e\xac\x92N=A'
p53
tp54
Rp55
ag10
(g14
S'\xff\xa9\xf1\xf25O=A'
p56
tp57
Rp58
ag10
(g14
S'\x03\xac\x1c:\xf6L=A'
p59
tp60
Rp61
ag10
(g14
S'\x9fE\xb6\x93\xe7M=A'
p62
tp63
Rp64
ag10
(g14
S'.ku\xac\xe4M=A'
p65
tp66
Rp67
ag10
(g14
S'\xbf\xca\xa1eeM=A'
p68
tp69
Rp70
ag10
(g14
S'\xf4\xf0\x19\xd6|M=A'
p71
tp72
Rp73
ag10
(g14
S'NFo\xab\xeeP=A'
p74
tp75
Rp76
asS'target'
p77
(lp78
g10
(g14
S'\x82j\xbct\x93\x08?@'
p79
tp80
Rp81
ag10
(g14
S'v\xe9&1\x08d@@'
p82
tp83
Rp84
ag10
(g14
S'\x0bX9\xb4\xc8\xb6:@'
p85
tp86
Rp87
ag10
(g14
S'E\x8bl\xe7\xfb\x99@@'
p88
tp89
Rp90
ag10
(g14
S'Tb\x10X9d@@'
p91
tp92
Rp93
ag10
(g14
S'D`\xe5\xd0";A@'
p94
tp95
Rp96
ag10
(g14
S'#\xdb\xf9~j\xac=@'
p97
tp98
Rp99
ag10
(g14
S'\xb7rh\x91\xed\xec@@'
p100
tp101
Rp102
ag10
(g14
S'\xb1\x9d\xef\xa7\xc6+;@'
p103
tp104
Rp105
ag10
(g14
S'H\xb6\xf3\xfd\xd4(>@'
p106
tp107
Rp108
ag10
(g14
S'\xff~j\xbct\xb3A@'
p109
tp110
Rp111
ag10
(g14
S'l\x12\x83\xc0\xca\xf1@@'
p112
tp113
Rp114
ag10
(g14
S'\xb4\xf5(\\\x8f\x02=@'
p115
tp116
Rp117
ag10
(g14
S'\xda\xce\xf7S\xe3e?@'
p118
tp119
Rp120
ag10
(g14
S'\xf4\xd0"\xdb\xf9\x1e=@'
p121
tp122
Rp123
ag10
(g14
S'L\xe1z\x14\xaeg>@'
p124
tp125
Rp126
ag10
(g14
S'\xe8\xd2Mb\x108=@'
p127
tp128
Rp129
ag10
(g14
S'Y\x10X9\xb4(<@'
p130
tp131
Rp132
ag10
(g14
S"'\xb0rh\x91\xcd?@"
p133
tp134
Rp135
ag10
(g14
S'\xbb \xb0rh\xf1?@'
p136
tp137
Rp138
asssss.