(dp0
S'../Data/sqlite_76.csv'
p1
(dp2
S'../Data/sqlite_63.csv'
p3
(dp4
F0.25
(dp5
S'mmre'
p6
(dp7
S'bellwether'
p8
(lp9
cnumpy.core.multiarray
scalar
p10
(cnumpy
dtype
p11
(S'f8'
p12
I0
I1
tp13
Rp14
(I3
S'<'
p15
NNNI-1
I-1
I0
tp16
bS'}\xcb\xe88]\x9cJ@'
p17
tp18
Rp19
ag10
(g14
S"I\x8d\xcfNp'J@"
p20
tp21
Rp22
ag10
(g14
S'\x17O\x151\xf6rJ@'
p23
tp24
Rp25
ag10
(g14
S'\x89\xcd\xbb\x85M/J@'
p26
tp27
Rp28
ag10
(g14
S'[\xac\xb6\xea\xb0cJ@'
p29
tp30
Rp31
ag10
(g14
S'\x9eg\xff\xff\xc4\xb4J@'
p32
tp33
Rp34
ag10
(g14
S'[~XaV\xb0J@'
p35
tp36
Rp37
ag10
(g14
S'\xf2\x06\xc32a\x88J@'
p38
tp39
Rp40
ag10
(g14
S';\xe1*"D\x8cJ@'
p41
tp42
Rp43
ag10
(g14
S'P\x92\xfa\x86\x8e\xb9J@'
p44
tp45
Rp46
ag10
(g14
S"\x17\x0f^'\t\\J@"
p47
tp48
Rp49
ag10
(g14
S'\x0e\x99\xac\x92\x18*J@'
p50
tp51
Rp52
ag10
(g14
S'\x84^/\x85!4J@'
p53
tp54
Rp55
ag10
(g14
S'S\xf1\x04\x82:\x86J@'
p56
tp57
Rp58
ag10
(g14
S'\xf4\x0cu\x18>\x93J@'
p59
tp60
Rp61
ag10
(g14
S'*\x02ToD1J@'
p62
tp63
Rp64
ag10
(g14
S'h\x90i\x18\xb6#J@'
p65
tp66
Rp67
ag10
(g14
S"\xa3\xd8'\xb1\x04-J@"
p68
tp69
Rp70
ag10
(g14
S"$C'\r\xbenJ@"
p71
tp72
Rp73
ag10
(g14
S'\x1e\x89i\xc0\x85oJ@'
p74
tp75
Rp76
asS'target'
p77
(lp78
g10
(g14
S'+\xc03_\xe6\xff"@'
p79
tp80
Rp81
ag10
(g14
S'\xddX\xf5\xf3c.#@'
p82
tp83
Rp84
ag10
(g14
S'9\xd8\x15\xbdz\xc7"@'
p85
tp86
Rp87
ag10
(g14
S'\xd1YY\xe2F\xa9"@'
p88
tp89
Rp90
ag10
(g14
S'\x11\n\xffll\xcd"@'
p91
tp92
Rp93
ag10
(g14
S'\x9a\xcb\xa7\xf3\xed<#@'
p94
tp95
Rp96
ag10
(g14
S'\xcd\xbb\xf9p\xdb\xed"@'
p97
tp98
Rp99
ag10
(g14
S'\xd1\xe6\rO{t"@'
p100
tp101
Rp102
ag10
(g14
S'y\x9b\x13\xbf}o#@'
p103
tp104
Rp105
ag10
(g14
S'x \xa6\xe0\xe7\xf6"@'
p106
tp107
Rp108
ag10
(g14
S'\x18\xa0\x1d\xbe\x13("@'
p109
tp110
Rp111
ag10
(g14
S'\xe8\x8f5Nb<!@'
p112
tp113
Rp114
ag10
(g14
S'H\xaf\xae\xf6\x1er"@'
p115
tp116
Rp117
ag10
(g14
S'\r\xff\xa4\xbaY,"@'
p118
tp119
Rp120
ag10
(g14
S'\xc5\x1d\x94X$\xef#@'
p121
tp122
Rp123
ag10
(g14
S'\xf1kH\xf0\xb7\xdc#@'
p124
tp125
Rp126
ag10
(g14
S'\x00\xb8QuL\x91!@'
p127
tp128
Rp129
ag10
(g14
S'\x11O\xc2\xb7-\x94"@'
p130
tp131
Rp132
ag10
(g14
S'\xf3Nz=RV"@'
p133
tp134
Rp135
ag10
(g14
S'\xae\xbe\xece\x0c0$@'
p136
tp137
Rp138
asssss.