(dp0
S'../Data/sqlite_4.csv'
p1
(dp2
S'../Data/sqlite_22.csv'
p3
(dp4
F0.3
(dp5
S'abs_res'
p6
(dp7
S'bellwether'
p8
(lp9
cnumpy.core.multiarray
scalar
p10
(cnumpy
dtype
p11
(S'f8'
p12
I0
I1
tp13
Rp14
(I3
S'<'
p15
NNNI-1
I-1
I0
tp16
bS'}\xe9&\xb1_P;A'
p17
tp18
Rp19
ag10
(g14
S'\xe6O\x8d\xf7qO;A'
p20
tp21
Rp22
ag10
(g14
S'\r\xd7\xa3\xd0\xb0O;A'
p23
tp24
Rp25
ag10
(g14
S'\x1a/\xdd\x84\xc3N;A'
p26
tp27
Rp28
ag10
(g14
S'\tG(\xe3\x99P;A'
p29
tp30
Rp31
ag10
(g14
S'|\x07\xf3\xc4\x18R;A'
p32
tp33
Rp34
ag10
(g14
S'\xd5i\x03=3P;A'
p35
tp36
Rp37
ag10
(g14
S'f\x91\xed\xbc`P;A'
p38
tp39
Rp40
ag10
(g14
S'\xf9\xb6\xac\x95\xe4O;A'
p41
tp42
Rp43
ag10
(g14
S'\x95\xd1\xdb\xd2mO;A'
p44
tp45
Rp46
ag10
(g14
S'\x04e\xf46\xbfO;A'
p47
tp48
Rp49
ag10
(g14
S':\x17\x92&OP;A'
p50
tp51
Rp52
ag10
(g14
S'\x10X9T\x0eP;A'
p53
tp54
Rp55
ag10
(g14
S'\xb1\xb9\x90\xf4\x02O;A'
p56
tp57
Rp58
ag10
(g14
S')\xa3\xb7%]O;A'
p59
tp60
Rp61
ag10
(g14
S'wwwWJP;A'
p62
tp63
Rp64
ag10
(g14
S'[\xd6\xeaX\xebP;A'
p65
tp66
Rp67
ag10
(g14
S'\x93\x97n\xf2\xdbM;A'
p68
tp69
Rp70
ag10
(g14
S'\x13\xaeGA\tP;A'
p71
tp72
Rp73
ag10
(g14
S'q\xda@GGP;A'
p74
tp75
Rp76
asS'target'
p77
(lp78
g10
(g14
S'F\x0c\x02+\x87\xc2S@'
p79
tp80
Rp81
ag10
(g14
S'\xa4p=\n\xd7\xbbU@'
p82
tp83
Rp84
ag10
(g14
S'\x90\xed|?5ZT@'
p85
tp86
Rp87
ag10
(g14
S'D\xe1z\x14\xae\xd3V@'
p88
tp89
Rp90
ag10
(g14
S'\xacp=\n\xd7\x17T@'
p91
tp92
Rp93
ag10
(g14
S'\xc0\x1e\x85\xebQ\x0cU@'
p94
tp95
Rp96
ag10
(g14
S'\xed|?5^BT@'
p97
tp98
Rp99
ag10
(g14
S'\xd3\xcc\xcc\xcc\xcc<W@'
p100
tp101
Rp102
ag10
(g14
S'\nX9\xb4\xc8\xdeT@'
p103
tp104
Rp105
ag10
(g14
S'\xe2&1\x08\xac`V@'
p106
tp107
Rp108
ag10
(g14
S'\xce\xf7S\xe3\xa5\xc3R@'
p109
tp110
Rp111
ag10
(g14
S'\xe1&1\x08\xac\xd4T@'
p112
tp113
Rp114
ag10
(g14
S'lh\x91\xed|\x8fU@'
p115
tp116
Rp117
ag10
(g14
S'}?5^\xbaIT@'
p118
tp119
Rp120
ag10
(g14
S'\xaap=\n\xd7\xc3T@'
p121
tp122
Rp123
ag10
(g14
S'\xa9\xc6K7\x89\xb1T@'
p124
tp125
Rp126
ag10
(g14
S'\xa6\x9b\xc4 \xb0\x1eU@'
p127
tp128
Rp129
ag10
(g14
S'\x9d\xef\xa7\xc6K\xb3U@'
p130
tp131
Rp132
ag10
(g14
S'F`\xe5\xd0"\x1bU@'
p133
tp134
Rp135
ag10
(g14
S'2\xb4\xc8v\xbe\xa3R@'
p136
tp137
Rp138
asssss.