(dp0
S'../Data/sqlite_67.csv'
p1
(dp2
S'../Data/sqlite_85.csv'
p3
(dp4
F0.35
(dp5
S'mmre'
p6
(dp7
S'bellwether'
p8
(lp9
cnumpy.core.multiarray
scalar
p10
(cnumpy
dtype
p11
(S'f8'
p12
I0
I1
tp13
Rp14
(I3
S'<'
p15
NNNI-1
I-1
I0
tp16
bS'=\x18\x8d6:MU@'
p17
tp18
Rp19
ag10
(g14
S'\xce\xe8\xde\xea%9U@'
p20
tp21
Rp22
ag10
(g14
S'\xedI{\x86LsU@'
p23
tp24
Rp25
ag10
(g14
S'\xab\xd9\xbf\x85 hU@'
p26
tp27
Rp28
ag10
(g14
S'%e\x9c\x12#qU@'
p29
tp30
Rp31
ag10
(g14
S'\x96D\xde\xdar<U@'
p32
tp33
Rp34
ag10
(g14
S'\r\xf1\t\xd1*YU@'
p35
tp36
Rp37
ag10
(g14
S'\xde> 1\x7fzU@'
p38
tp39
Rp40
ag10
(g14
S'\xbb\xb9z\xeaemU@'
p41
tp42
Rp43
ag10
(g14
S'\xfb\xb5\xbcj=aU@'
p44
tp45
Rp46
ag10
(g14
S'6\xb9D\xbd\x81?U@'
p47
tp48
Rp49
ag10
(g14
S'%;b:\r%U@'
p50
tp51
Rp52
ag10
(g14
S'%\x81n\xf0\xa0OU@'
p53
tp54
Rp55
ag10
(g14
S'e\xdd\x15\x93\x05fU@'
p56
tp57
Rp58
ag10
(g14
S'\x00\xc8\x97\x1cHOU@'
p59
tp60
Rp61
ag10
(g14
S'\x85\x97\xde<\xf5RU@'
p62
tp63
Rp64
ag10
(g14
S'\xb4?\xcf\x95\xfdgU@'
p65
tp66
Rp67
ag10
(g14
S'D\x9d\x1f.\x8cTU@'
p68
tp69
Rp70
ag10
(g14
S'J\xe8\x000ecU@'
p71
tp72
Rp73
ag10
(g14
S'\xeaO\x89S{BU@'
p74
tp75
Rp76
asS'target'
p77
(lp78
g10
(g14
S'\xbfOL\x1bq\x81R@'
p79
tp80
Rp81
ag10
(g14
S'~\x83\xe6\xf8\x0fsU@'
p82
tp83
Rp84
ag10
(g14
S'^eo\xa9x]S@'
p85
tp86
Rp87
ag10
(g14
S'\xa5\xee`\xcc(_S@'
p88
tp89
Rp90
ag10
(g14
S'%Y\xf5\x83\xc1\xfaQ@'
p91
tp92
Rp93
ag10
(g14
S'\xe9\xad\xb1\xcf\xf9\xe5R@'
p94
tp95
Rp96
ag10
(g14
S'\x0c\xbf\xddlneS@'
p97
tp98
Rp99
ag10
(g14
S'R\xa7\xaf!K\\Q@'
p100
tp101
Rp102
ag10
(g14
S'\xe3\xe1yGK\xfaS@'
p103
tp104
Rp105
ag10
(g14
S'"\x13J\xd3\xd9zT@'
p106
tp107
Rp108
ag10
(g14
S'O$tF\x8a\xfaT@'
p109
tp110
Rp111
ag10
(g14
S')-\xd5\xa5\xb1\xb3U@'
p112
tp113
Rp114
ag10
(g14
S'#\x17n\xaa\x18\xe9R@'
p115
tp116
Rp117
ag10
(g14
S'\xfa\xa5\xc1>\x87)S@'
p118
tp119
Rp120
ag10
(g14
S'\x97\x8cr\xfb\x9b\x81S@'
p121
tp122
Rp123
ag10
(g14
S'X\r\x05\xc5\xca:S@'
p124
tp125
Rp126
ag10
(g14
S'\x84\xf4\xad;\xfa\x04S@'
p127
tp128
Rp129
ag10
(g14
S'\x9bm3\xa5\xeb8S@'
p130
tp131
Rp132
ag10
(g14
S'\xdfD\xbf\xc3\x1f\xf1R@'
p133
tp134
Rp135
ag10
(g14
S'\xc4\xf0\x17\xea\xdc~U@'
p136
tp137
Rp138
asssss.