(dp0
S'../Data/sqlite_91.csv'
p1
(dp2
S'../Data/sqlite_85.csv'
p3
(dp4
F0.35
(dp5
S'mmre'
p6
(dp7
S'bellwether'
p8
(lp9
cnumpy.core.multiarray
scalar
p10
(cnumpy
dtype
p11
(S'f8'
p12
I0
I1
tp13
Rp14
(I3
S'<'
p15
NNNI-1
I-1
I0
tp16
bS'\xe5\xceU\\\xd6oU@'
p17
tp18
Rp19
ag10
(g14
S'l\xb23\xbf\n_U@'
p20
tp21
Rp22
ag10
(g14
S'\xb0\xe5\xcc\xf52]U@'
p23
tp24
Rp25
ag10
(g14
S'y\xcc\x05Y\t~U@'
p26
tp27
Rp28
ag10
(g14
S'\xfd\xf3\x0b\xdc\x1c\x8bU@'
p29
tp30
Rp31
ag10
(g14
S'\x92r@\xae\xc8\x8cU@'
p32
tp33
Rp34
ag10
(g14
S'\x0f\xe2\x8c\x8c\x92UU@'
p35
tp36
Rp37
ag10
(g14
S':.)1h-U@'
p38
tp39
Rp40
ag10
(g14
S'\x1d\x99n\xab\xc7RU@'
p41
tp42
Rp43
ag10
(g14
S'y\xe6\xca\n\xcaAU@'
p44
tp45
Rp46
ag10
(g14
S'o0^\xc5meU@'
p47
tp48
Rp49
ag10
(g14
S'\x16\xe8\xb1\xe1\xd9bU@'
p50
tp51
Rp52
ag10
(g14
S'\x80\xc8\xa47\xb4aU@'
p53
tp54
Rp55
ag10
(g14
S'\xd2\x08&\x14\xceaU@'
p56
tp57
Rp58
ag10
(g14
S'or\x83\x18\xfdcU@'
p59
tp60
Rp61
ag10
(g14
S'\xf0\xe8pN\x10SU@'
p62
tp63
Rp64
ag10
(g14
S'\xab~u\x1bXWU@'
p65
tp66
Rp67
ag10
(g14
S'\x94\x9eL\xdb\xedaU@'
p68
tp69
Rp70
ag10
(g14
S'q\xc1\xc5\xbf}nU@'
p71
tp72
Rp73
ag10
(g14
S"h'\xbfc]NU@"
p74
tp75
Rp76
asS'target'
p77
(lp78
g10
(g14
S'=\xa2\xfa\x99\xbb\xf1S@'
p79
tp80
Rp81
ag10
(g14
S'\xef\xf3oX (S@'
p82
tp83
Rp84
ag10
(g14
S'td\x03,\xbf\xc1T@'
p85
tp86
Rp87
ag10
(g14
S'\xeb]\xd8\xdc8\x8dR@'
p88
tp89
Rp90
ag10
(g14
S'\x87\x19\x91B(\xf1R@'
p91
tp92
Rp93
ag10
(g14
S'F\xc3]RxoS@'
p94
tp95
Rp96
ag10
(g14
S'/\x03\xbd\xd8?cR@'
p97
tp98
Rp99
ag10
(g14
S'\xeaG\xdbf\xeb\xfaV@'
p100
tp101
Rp102
ag10
(g14
S'\xb3=\xd6\xa2\xe7kT@'
p103
tp104
Rp105
ag10
(g14
S'\x00\xa2\x8ec\xdb\x9aU@'
p106
tp107
Rp108
ag10
(g14
S'/i\x99\xe6\xc70S@'
p109
tp110
Rp111
ag10
(g14
S'`kVH,\x04S@'
p112
tp113
Rp114
ag10
(g14
S'GN\xc0\xc1x\xe5V@'
p115
tp116
Rp117
ag10
(g14
S'V\xe3p\xbb\xb7}S@'
p118
tp119
Rp120
ag10
(g14
S'\xaf\xfe\x8bL\xeb\x10S@'
p121
tp122
Rp123
ag10
(g14
S'\xa6l\xad\x8a\xb0QS@'
p124
tp125
Rp126
ag10
(g14
S'\xe2\x08n\x90j\x06R@'
p127
tp128
Rp129
ag10
(g14
S'\xe7\xd6\x1bzJ!T@'
p130
tp131
Rp132
ag10
(g14
S'\x91V\x9a\xbb\\fS@'
p133
tp134
Rp135
ag10
(g14
S'\xfeV*\xa7<\xe2U@'
p136
tp137
Rp138
asssss.