(dp0
S'../Data/sqlite_18.csv'
p1
(dp2
S'../Data/sqlite_61.csv'
p3
(dp4
F0.4
(dp5
S'abs_res'
p6
(dp7
S'bellwether'
p8
(lp9
cnumpy.core.multiarray
scalar
p10
(cnumpy
dtype
p11
(S'f8'
p12
I0
I1
tp13
Rp14
(I3
S'<'
p15
NNNI-1
I-1
I0
tp16
bS'|[\xd6j\xd4%7A'
p17
tp18
Rp19
ag10
(g14
S'\xf2\n\x90\xdb\x9c&7A'
p20
tp21
Rp22
ag10
(g14
S'H\xffF\xc8<&7A'
p23
tp24
Rp25
ag10
(g14
S'\xba\x02\xe4\xfe\x8b$7A'
p26
tp27
Rp28
ag10
(g14
S'\xd0\xce\xf7\xf36%7A'
p29
tp30
Rp31
ag10
(g14
S'TUU55%7A'
p32
tp33
Rp34
ag10
(g14
S'"v\x05\xa8\xa8%7A'
p35
tp36
Rp37
ag10
(g14
S'\x85\x88\x88H\x0e%7A'
p38
tp39
Rp40
ag10
(g14
S'^,\xf9\x05\xed%7A'
p41
tp42
Rp43
ag10
(g14
S']\xf2\x8be\x1a&7A'
p44
tp45
Rp46
ag10
(g14
S'\x80\x05\xc8=\x15&7A'
p47
tp48
Rp49
ag10
(g14
S"C\x19\xbd-\xb3'7A"
p50
tp51
Rp52
ag10
(g14
S';|\x86=c%7A'
p53
tp54
Rp55
ag10
(g14
S'\x19K~\x91/$7A'
p56
tp57
Rp58
ag10
(g14
S"X\x0e-\x922'7A"
p59
tp60
Rp61
ag10
(g14
S"lY\xabC\r'7A"
p62
tp63
Rp64
ag10
(g14
S'\x15\x83\xc0Js%7A'
p65
tp66
Rp67
ag10
(g14
S'\x95\xed|\xbf|&7A'
p68
tp69
Rp70
ag10
(g14
S'\x98\xb5:\xe6\x95&7A'
p71
tp72
Rp73
ag10
(g14
S'\xba:&X\xba&7A'
p74
tp75
Rp76
asS'target'
p77
(lp78
g10
(g14
S'-1\x08\xac\x1c`p@'
p79
tp80
Rp81
ag10
(g14
S'\x9d\x1a/\xdd$\xc2k@'
p82
tp83
Rp84
ag10
(g14
S'9^\xbaI\x0cWp@'
p85
tp86
Rp87
ag10
(g14
S'\xd6\xa3p=\nUq@'
p88
tp89
Rp90
ag10
(g14
S'fffff&r@'
p91
tp92
Rp93
ag10
(g14
S'\xb7rh\x91\xed\xbcq@'
p94
tp95
Rp96
ag10
(g14
S'\xf6(\\\x8f\xc2\xfdl@'
p97
tp98
Rp99
ag10
(g14
S'\xef\xd2Mb\x10wq@'
p100
tp101
Rp102
ag10
(g14
S'\x14X9\xb4\xc8\xd8n@'
p103
tp104
Rp105
ag10
(g14
S'O\xe3\xa5\x9b\xc4\x00o@'
p106
tp107
Rp108
ag10
(g14
S'B\n\xd7\xa3p\xd5l@'
p109
tp110
Rp111
ag10
(g14
S'\x85\x16\xd9\xce\xf7ip@'
p112
tp113
Rp114
ag10
(g14
S'\x08\x81\x95C\x8b\xfak@'
p115
tp116
Rp117
ag10
(g14
S'\xc8\xcc\xcc\xcc\xcc\x8eq@'
p118
tp119
Rp120
ag10
(g14
S'\xc7 \xb0rh\rr@'
p121
tp122
Rp123
ag10
(g14
S'\xf1Q\xb8\x1e\x85\x01n@'
p124
tp125
Rp126
ag10
(g14
S'\xdb\xa3p=\n\xcdl@'
p127
tp128
Rp129
ag10
(g14
S'f\xbaI\x0c\x02\xe1o@'
p130
tp131
Rp132
ag10
(g14
S'33333\xafq@'
p133
tp134
Rp135
ag10
(g14
S'*\xb0rh\x91\x11n@'
p136
tp137
Rp138
asssss.