(dp0
S'../Data/sqlite_74.csv'
p1
(dp2
S'../Data/sqlite_7.csv'
p3
(dp4
F0.4
(dp5
S'abs_res'
p6
(dp7
S'bellwether'
p8
(lp9
cnumpy.core.multiarray
scalar
p10
(cnumpy
dtype
p11
(S'f8'
p12
I0
I1
tp13
Rp14
(I3
S'<'
p15
NNNI-1
I-1
I0
tp16
bS'i\xa0\xd3n\xf0GdA'
p17
tp18
Rp19
ag10
(g14
S'g\x1f>k\nNdA'
p20
tp21
Rp22
ag10
(g14
S'\xd0Mb\xe8\xe5CdA'
p23
tp24
Rp25
ag10
(g14
S'`H\x9az\xa6HdA'
p26
tp27
Rp28
ag10
(g14
S'\\\xd6\xeahNHdA'
p29
tp30
Rp31
ag10
(g14
S'\xe8\xa5\x9b\xac\x13HdA'
p32
tp33
Rp34
ag10
(g14
S'\xe4^sa\xf3CdA'
p35
tp36
Rp37
ag10
(g14
S'D\xee5\x8fNUdA'
p38
tp39
Rp40
ag10
(g14
S'\xf3\x19v1\x12GdA'
p41
tp42
Rp43
ag10
(g14
S'\xcd\x85\xa4\xa5\x98QdA'
p44
tp45
Rp46
ag10
(g14
S'@\x19\xbdY\xbf?dA'
p47
tp48
Rp49
ag10
(g14
S'\x0c\x90{\xd5;KdA'
p50
tp51
Rp52
ag10
(g14
S'D\x9aR}`KdA'
p53
tp54
Rp55
ag10
(g14
S'n\xaf\xb9\xf0XPdA'
p56
tp57
Rp58
ag10
(g14
S'\xf2\xd2MB\xd2LdA'
p59
tp60
Rp61
ag10
(g14
S'\xe4\x17K\xd2\x8bNdA'
p62
tp63
Rp64
ag10
(g14
S'I\x9aR\xbdY=dA'
p65
tp66
Rp67
ag10
(g14
S'\x8e\x18\x04:\xc6@dA'
p68
tp69
Rp70
ag10
(g14
S'5\xb2\x9dC\xc3OdA'
p71
tp72
Rp73
ag10
(g14
S'\x85\x16\xd9\xd2yEdA'
p74
tp75
Rp76
asS'target'
p77
(lp78
g10
(g14
S'o\x12\x83\xc0\xca\xffc@'
p79
tp80
Rp81
ag10
(g14
S'E`\xe5\xd0"\x93e@'
p82
tp83
Rp84
ag10
(g14
S'\xeb|?5^\xdce@'
p85
tp86
Rp87
ag10
(g14
S'\xb0rh\x91\xedVc@'
p88
tp89
Rp90
ag10
(g14
S'\\\xbaI\x0c\x02Oc@'
p91
tp92
Rp93
ag10
(g14
S'hffff\x96c@'
p94
tp95
Rp96
ag10
(g14
S'N\xe1z\x14\xaewc@'
p97
tp98
Rp99
ag10
(g14
S'\x05\xd7\xa3p=\xacd@'
p100
tp101
Rp102
ag10
(g14
S'~\x95C\x8blyd@'
p103
tp104
Rp105
ag10
(g14
S'\xb9t\x93\x18\x04Je@'
p106
tp107
Rp108
ag10
(g14
S'\xb8\x1e\x85\xebQ\nd@'
p109
tp110
Rp111
ag10
(g14
S'\xd6\xf7S\xe3\xa5\xa7d@'
p112
tp113
Rp114
ag10
(g14
S'\x10\x83\xc0\xca\xa1\xefd@'
p115
tp116
Rp117
ag10
(g14
S'\x19Zd;\xdf\x9dd@'
p118
tp119
Rp120
ag10
(g14
S'd\x91\xed|?Ke@'
p121
tp122
Rp123
ag10
(g14
S'\xa2\x1a/\xdd$\x02e@'
p124
tp125
Rp126
ag10
(g14
S'\xc6v\xbe\x9f\x1acc@'
p127
tp128
Rp129
ag10
(g14
S'\x83\xebQ\xb8\x1e\xf3d@'
p130
tp131
Rp132
ag10
(g14
S'\xe5&1\x08\xac\x8ac@'
p133
tp134
Rp135
ag10
(g14
S'\xe9\x98\xe0\xc1<\x1fc@'
p136
tp137
Rp138
asssss.