(dp0
S'../Data/sqlite_80.csv'
p1
(dp2
S'../Data/sqlite_83.csv'
p3
(dp4
F0.3
(dp5
S'abs_res'
p6
(dp7
S'bellwether'
p8
(lp9
cnumpy.core.multiarray
scalar
p10
(cnumpy
dtype
p11
(S'f8'
p12
I0
I1
tp13
Rp14
(I3
S'<'
p15
NNNI-1
I-1
I0
tp16
bS'-\x87\x16\xd9M(\nA'
p17
tp18
Rp19
ag10
(g14
S'\xb6\xe6B\xd2J-\nA'
p20
tp21
Rp22
ag10
(g14
S')1\x08\xac]/\nA'
p23
tp24
Rp25
ag10
(g14
S'G\xfd\x1b\xa1\xea)\nA'
p26
tp27
Rp28
ag10
(g14
S'g\x03\x9d6\x1c0\nA'
p29
tp30
Rp31
ag10
(g14
S'\x87\xfa7B\xe7+\nA'
p32
tp33
Rp34
ag10
(g14
S'Z\xabc\x82.+\nA'
p35
tp36
Rp37
ag10
(g14
S'\xfb~j\xbcK/\nA'
p38
tp39
Rp40
ag10
(g14
S'@\xee5\x17\xc5.\nA'
p41
tp42
Rp43
ag10
(g14
S'\xbc\x904\xa5t/\nA'
p44
tp45
Rp46
ag10
(g14
S'\xc9Z\x1d\x13}-\nA'
p47
tp48
Rp49
ag10
(g14
S'\x8d\xb5:&\xd1.\nA'
p50
tp51
Rp52
ag10
(g14
S'\x01c\xc9/\xbe*\nA'
p53
tp54
Rp55
ag10
(g14
S'\xc4\x83y\xa2}*\nA'
p56
tp57
Rp58
ag10
(g14
S"\xf9\xb6\xac\xd5'.\nA"
p59
tp60
Rp61
ag10
(g14
S'\x14\x92\xa6T\x91+\nA'
p62
tp63
Rp64
ag10
(g14
S'\xd9x\xe9&\xf3,\nA'
p65
tp66
Rp67
ag10
(g14
S'\xd0\xa3p=\xcc-\nA'
p68
tp69
Rp70
ag10
(g14
S'\xecB\xd2\x94\x7f-\nA'
p71
tp72
Rp73
ag10
(g14
S'\xf4o\x842\x89+\nA'
p74
tp75
Rp76
asS'target'
p77
(lp78
g10
(g14
S'0\x06\x81\x95CW{@'
p79
tp80
Rp81
ag10
(g14
S'\xc3\x1e\x85\xebQ\x02z@'
p82
tp83
Rp84
ag10
(g14
S'"\xb0rh\x91\xdd{@'
p85
tp86
Rp87
ag10
(g14
S'\xc7\xc8v\xbe\x9f\x0ex@'
p88
tp89
Rp90
ag10
(g14
S'D5^\xbaI~z@'
p91
tp92
Rp93
ag10
(g14
S'z\xbe\x9f\x1a/\xb1z@'
p94
tp95
Rp96
ag10
(g14
S'\xc1I\x0c\x02+\xddz@'
p97
tp98
Rp99
ag10
(g14
S'\xe3\xf9~j\xbc\xda|@'
p100
tp101
Rp102
ag10
(g14
S')\x85\xebQ8f\x82@'
p103
tp104
Rp105
ag10
(g14
S'\xf0\xfb\xa9\xf1\xd2\x86\x81@'
p106
tp107
Rp108
ag10
(g14
S'\xb9I\x0c\x02+Kz@'
p109
tp110
Rp111
ag10
(g14
S'\xcf\xf5(\\\x8f~{@'
p112
tp113
Rp114
ag10
(g14
S'\xf0&1\x08\xacfx@'
p115
tp116
Rp117
ag10
(g14
S'W\x0e-\xb2\x9dh}@'
p118
tp119
Rp120
ag10
(g14
S'\xaf\xc6K7\x89\xc9}@'
p121
tp122
Rp123
ag10
(g14
S"\x05'1\x08\xac6~@"
p124
tp125
Rp126
ag10
(g14
S'\xa1n\x12\x83\xc0\x08~@'
p127
tp128
Rp129
ag10
(g14
S'h\xe5\xd0"\xdbWt@'
p130
tp131
Rp132
ag10
(g14
S'\xc4 \xb0rh\xe9\x81@'
p133
tp134
Rp135
ag10
(g14
S'\xb2\xc6K7\x89\xd7w@'
p136
tp137
Rp138
asssss.