(dp0
S'../Data/sqlite_52.csv'
p1
(dp2
S'../Data/sqlite_94.csv'
p3
(dp4
F0.25
(dp5
S'mmre'
p6
(dp7
S'bellwether'
p8
(lp9
cnumpy.core.multiarray
scalar
p10
(cnumpy
dtype
p11
(S'f8'
p12
I0
I1
tp13
Rp14
(I3
S'<'
p15
NNNI-1
I-1
I0
tp16
bS'm\x1b\xb6\xefl\xba4@'
p17
tp18
Rp19
ag10
(g14
S'\xeb\xbf\xdc\xdf\x0e>4@'
p20
tp21
Rp22
ag10
(g14
S'\xfe~\xd6=\x8eN4@'
p23
tp24
Rp25
ag10
(g14
S'\xcf\xa8u\x87\x00\xfe3@'
p26
tp27
Rp28
ag10
(g14
S'\xa7eUU\x82\xc04@'
p29
tp30
Rp31
ag10
(g14
S'\x1b\xbf\xc5k~[4@'
p32
tp33
Rp34
ag10
(g14
S'cI\xb7\xd3\xf1p3@'
p35
tp36
Rp37
ag10
(g14
S'\xa8\xe0\x8a\x19\xd3\xf83@'
p38
tp39
Rp40
ag10
(g14
S'\x17\x0e\t\xae\x03\x854@'
p41
tp42
Rp43
ag10
(g14
S'V\x983w\x9e\x894@'
p44
tp45
Rp46
ag10
(g14
S'z\xda\x89Vg04@'
p47
tp48
Rp49
ag10
(g14
S'>\x9b9\xd2I+4@'
p50
tp51
Rp52
ag10
(g14
S'\xb5m\xa8\xae[\x0c4@'
p53
tp54
Rp55
ag10
(g14
S'\x04V\xe3`\x8aA4@'
p56
tp57
Rp58
ag10
(g14
S'pi\x87\x8aoq4@'
p59
tp60
Rp61
ag10
(g14
S'h\x8e{qlh4@'
p62
tp63
Rp64
ag10
(g14
S'!)K\n=\x9e4@'
p65
tp66
Rp67
ag10
(g14
S'\xf8\xdf*\xa6\xcc\x894@'
p68
tp69
Rp70
ag10
(g14
S'\xcc\xad\x0f\xe3O%4@'
p71
tp72
Rp73
ag10
(g14
S'~7\xdf\x82\x9e\xe04@'
p74
tp75
Rp76
asS'target'
p77
(lp78
g10
(g14
S':S\xb4}\x11xP@'
p79
tp80
Rp81
ag10
(g14
S'\xb0-)8\xbc\xd0K@'
p82
tp83
Rp84
ag10
(g14
S'U\x88C\x16cNR@'
p85
tp86
Rp87
ag10
(g14
S'u\xbc\x9c{\x9afU@'
p88
tp89
Rp90
ag10
(g14
S't\xaf\t\xa9\xae\x94J@'
p91
tp92
Rp93
ag10
(g14
S'\x93\x80jS\xbf]P@'
p94
tp95
Rp96
ag10
(g14
S'e;\xca\r\x84GT@'
p97
tp98
Rp99
ag10
(g14
S'1*N\xdf"\x12X@'
p100
tp101
Rp102
ag10
(g14
S'S\xf8\xb4\x94\xbfLQ@'
p103
tp104
Rp105
ag10
(g14
S'\xef.\xfb\xaf\x0e\xaeH@'
p106
tp107
Rp108
ag10
(g14
S'\xfd\xef\xb5aMaY@'
p109
tp110
Rp111
ag10
(g14
S'\xa7\xfb\x0ce\xbbSP@'
p112
tp113
Rp114
ag10
(g14
S'M\xa4Wu\xb7^Q@'
p115
tp116
Rp117
ag10
(g14
S'\\\xee\xa5HM\x18M@'
p118
tp119
Rp120
ag10
(g14
S'\xe2m\xff\xdd\x98\xa8R@'
p121
tp122
Rp123
ag10
(g14
S'E\xdd\xc6g9LU@'
p124
tp125
Rp126
ag10
(g14
S'>\xc6\x9e\xff"\x84W@'
p127
tp128
Rp129
ag10
(g14
S'\xd3\x01\xcc\xfa\xab0S@'
p130
tp131
Rp132
ag10
(g14
S'\xfb>RCc\x8cS@'
p133
tp134
Rp135
ag10
(g14
S'\xb8\xc3\xc5Q\xad\xbeE@'
p136
tp137
Rp138
asssss.