(dp0
S'../Data/sqlite_2.csv'
p1
(dp2
S'../Data/sqlite_4.csv'
p3
(dp4
F0.2
(dp5
S'abs_res'
p6
(dp7
S'bellwether'
p8
(lp9
cnumpy.core.multiarray
scalar
p10
(cnumpy
dtype
p11
(S'f8'
p12
I0
I1
tp13
Rp14
(I3
S'<'
p15
NNNI-1
I-1
I0
tp16
bS'K\x9aR\x91\xb4;?A'
p17
tp18
Rp19
ag10
(g14
S'\xad\x8e\t\xde%<?A'
p20
tp21
Rp22
ag10
(g14
S'\x9cC\x8b\x9c\n;?A'
p23
tp24
Rp25
ag10
(g14
S'Zd;?P;?A'
p26
tp27
Rp28
ag10
(g14
S'\xa5c\x82w\xa7:?A'
p29
tp30
Rp31
ag10
(g14
S'\xce\x13\xf5\x1f\x009?A'
p32
tp33
Rp34
ag10
(g14
S'a\x8f\xc2\xc5\xbe;?A'
p35
tp36
Rp37
ag10
(g14
S'\x9d_,\t\\=?A'
p38
tp39
Rp40
ag10
(g14
S'\x03\xd5xy\xd7<?A'
p41
tp42
Rp43
ag10
(g14
S'.\xdd$\xa6\xeb;?A'
p44
tp45
Rp46
ag10
(g14
S'F\xdfO\x8d\x97;?A'
p47
tp48
Rp49
ag10
(g14
S"\xe7\xec\xc3'\xd5<?A"
p50
tp51
Rp52
ag10
(g14
S'\xdf\xc1<\xa1\xeb;?A'
p53
tp54
Rp55
ag10
(g14
S'\x9a\x99\x99)\x01;?A'
p56
tp57
Rp58
ag10
(g14
S'x0O\xa4\xf9:?A'
p59
tp60
Rp61
ag10
(g14
S'\x88C\x8b|I;?A'
p62
tp63
Rp64
ag10
(g14
S'\xeaB\xd2\x14\\;?A'
p65
tp66
Rp67
ag10
(g14
S'x\xa2\xfe\x8d\xbb;?A'
p68
tp69
Rp70
ag10
(g14
S'\xb1rha\xa49?A'
p71
tp72
Rp73
ag10
(g14
S'\xc5 \xb0B\n<?A'
p74
tp75
Rp76
asS'target'
p77
(lp78
g10
(g14
S'\xc3\xcc\xcc\xcc\xac\x0c\xd3@'
p79
tp80
Rp81
ag10
(g14
S'=333\x13\xf7\xd1@'
p82
tp83
Rp84
ag10
(g14
S'gfff&\x9f\xd2@'
p85
tp86
Rp87
ag10
(g14
S'-333\x13\x18\xd2@'
p88
tp89
Rp90
ag10
(g14
S'6333\xb3q\xd3@'
p91
tp92
Rp93
ag10
(g14
S'\xbd\xcc\xcc\xcc\x8c\xec\xd2@'
p94
tp95
Rp96
ag10
(g14
S'_fff\xa67\xd2@'
p97
tp98
Rp99
ag10
(g14
S'2333Sq\xd3@'
p100
tp101
Rp102
ag10
(g14
S'dffff\xdd\xd2@'
p103
tp104
Rp105
ag10
(g14
S'jfff\xa6v\xd3@'
p106
tp107
Rp108
ag10
(g14
S'\xc5\xcc\xcc\xcc|}\xd2@'
p109
tp110
Rp111
ag10
(g14
S'nfffv\x05\xd3@'
p112
tp113
Rp114
ag10
(g14
S'\x01\x00\x00\x00\xa0\r\xd3@'
p115
tp116
Rp117
ag10
(g14
S',3333\xce\xd0@'
p118
tp119
Rp120
ag10
(g14
S"efff\xc6'\xd3@"
p121
tp122
Rp123
ag10
(g14
S'2333\xd3\xcd\xd1@'
p124
tp125
Rp126
ag10
(g14
S'\xc8\xcc\xcc\xcc,E\xd3@'
p127
tp128
Rp129
ag10
(g14
S'\xcc\xcc\xcc\xccL\x8b\xd2@'
p130
tp131
Rp132
ag10
(g14
S'affff*\xd3@'
p133
tp134
Rp135
ag10
(g14
S'\x98\x99\x99\x99\xb9a\xd3@'
p136
tp137
Rp138
asssss.