(dp0
S'../Data/sqlite_49.csv'
p1
(dp2
S'../Data/sqlite_92.csv'
p3
(dp4
F0.05
(dp5
S'mmre'
p6
(dp7
S'bellwether'
p8
(lp9
cnumpy.core.multiarray
scalar
p10
(cnumpy
dtype
p11
(S'f8'
p12
I0
I1
tp13
Rp14
(I3
S'<'
p15
NNNI-1
I-1
I0
tp16
bS'\x1f\xd5p{\xa9^c@'
p17
tp18
Rp19
ag10
(g14
S'<\x9f\xc9S\xcb]c@'
p20
tp21
Rp22
ag10
(g14
S'\x8a<N\x8d\x92]c@'
p23
tp24
Rp25
ag10
(g14
S'\x0c2?\xeb\x12Yc@'
p26
tp27
Rp28
ag10
(g14
S'\x17X\x1c\xd8\xe1Mc@'
p29
tp30
Rp31
ag10
(g14
S'\xa0\xbdQ\xa6\xcaBc@'
p32
tp33
Rp34
ag10
(g14
S'v@\x92\xf6sqc@'
p35
tp36
Rp37
ag10
(g14
S'\x02\x1c\x81\xfc\xf27c@'
p38
tp39
Rp40
ag10
(g14
S'^\x07\xa2)\xed[c@'
p41
tp42
Rp43
ag10
(g14
S'wAe9\xb2Dc@'
p44
tp45
Rp46
ag10
(g14
S'\xdb\x15va#ac@'
p47
tp48
Rp49
ag10
(g14
S'\xc7\xf1.%O[c@'
p50
tp51
Rp52
ag10
(g14
S')0\xa6\x15\x87ic@'
p53
tp54
Rp55
ag10
(g14
S'\xb9>\x94"5`c@'
p56
tp57
Rp58
ag10
(g14
S'=.w\xf3\xf6_c@'
p59
tp60
Rp61
ag10
(g14
S'\xc0q\x0e9;Hc@'
p62
tp63
Rp64
ag10
(g14
S'Wf\x8dV\xa7Ec@'
p65
tp66
Rp67
ag10
(g14
S'\xb8\xb6I\xc9\x9bac@'
p68
tp69
Rp70
ag10
(g14
S'\xeb\xd4s\xbd\xeaic@'
p71
tp72
Rp73
ag10
(g14
S'ac\x189\xcddc@'
p74
tp75
Rp76
asS'target'
p77
(lp78
g10
(g14
S'\x97\x06W\xac\xfb\xb2P@'
p79
tp80
Rp81
ag10
(g14
S'\xd4\xf8\x06fcgZ@'
p82
tp83
Rp84
ag10
(g14
S'\xb3\xea2\xde\x9a\x0eX@'
p85
tp86
Rp87
ag10
(g14
S'\x9dkJ\x1aR=V@'
p88
tp89
Rp90
ag10
(g14
S'r4\xaaL\x06\xe9\\@'
p91
tp92
Rp93
ag10
(g14
S'\xb0\xf9MG\x055J@'
p94
tp95
Rp96
ag10
(g14
S'M\xade\x0b\xf7\x9fb@'
p97
tp98
Rp99
ag10
(g14
S'J\xe2\x8f9\xb0\xa3V@'
p100
tp101
Rp102
ag10
(g14
S'\x96\x9b?\xeb\xfd\xaaG@'
p103
tp104
Rp105
ag10
(g14
S'V\x1d\x07\xa1$\xa5i@'
p106
tp107
Rp108
ag10
(g14
S'MXJx)\x15S@'
p109
tp110
Rp111
ag10
(g14
S'c\x96W\xd2e\xefU@'
p112
tp113
Rp114
ag10
(g14
S'%\xc2N\xfb\xca\xb2I@'
p115
tp116
Rp117
ag10
(g14
S"'W\xd4\x9cB\xecV@"
p118
tp119
Rp120
ag10
(g14
S'8\x17\x18mJ\x96Z@'
p121
tp122
Rp123
ag10
(g14
S'\xce;\xce\x0b3\\\\@'
p124
tp125
Rp126
ag10
(g14
S'v\x8b\xff\xbc\xafSC@'
p127
tp128
Rp129
ag10
(g14
S'S\x92\x92\xefz\xd5W@'
p130
tp131
Rp132
ag10
(g14
S'2])\xdd\xd0\xee^@'
p133
tp134
Rp135
ag10
(g14
S'\x1e\n\xd3\x8d\xe5lV@'
p136
tp137
Rp138
asssss.