(dp0
S'../Data/sqlite_34.csv'
p1
(dp2
S'../Data/sqlite_96.csv'
p3
(dp4
F0.05
(dp5
S'mmre'
p6
(dp7
S'bellwether'
p8
(lp9
cnumpy.core.multiarray
scalar
p10
(cnumpy
dtype
p11
(S'f8'
p12
I0
I1
tp13
Rp14
(I3
S'<'
p15
NNNI-1
I-1
I0
tp16
bS'\xcf\x10\x125LMQ@'
p17
tp18
Rp19
ag10
(g14
S'\xca\xed\xf9\x15\x90LQ@'
p20
tp21
Rp22
ag10
(g14
S'/D\x8cV\xdfPQ@'
p23
tp24
Rp25
ag10
(g14
S'_\\\xef\xfa\xf4RQ@'
p26
tp27
Rp28
ag10
(g14
S'p\x06\xafU\x07RQ@'
p29
tp30
Rp31
ag10
(g14
S'{6]\x06\xb1NQ@'
p32
tp33
Rp34
ag10
(g14
S'`\x10\x8cclLQ@'
p35
tp36
Rp37
ag10
(g14
S'\xfaq\x02\x07\xd0QQ@'
p38
tp39
Rp40
ag10
(g14
S'f\x00\xe8T\xf9PQ@'
p41
tp42
Rp43
ag10
(g14
S'\xce\xfe\xa2N\xb7KQ@'
p44
tp45
Rp46
ag10
(g14
S'p\x0f\xd3\x96\xbeEQ@'
p47
tp48
Rp49
ag10
(g14
S'[\x8c\x1c\xbb\xc2TQ@'
p50
tp51
Rp52
ag10
(g14
S'a4\x04I\xdbLQ@'
p53
tp54
Rp55
ag10
(g14
S'\xc3Rjc\xbbKQ@'
p56
tp57
Rp58
ag10
(g14
S'\xd7O\xdfC%MQ@'
p59
tp60
Rp61
ag10
(g14
S't1\xcc\xe8\xe4TQ@'
p62
tp63
Rp64
ag10
(g14
S'\xb3/\x96\xe5\xc4HQ@'
p65
tp66
Rp67
ag10
(g14
S'\xca^p\x8a\xa9LQ@'
p68
tp69
Rp70
ag10
(g14
S'@\xdc\xd5\xb6\x7fMQ@'
p71
tp72
Rp73
ag10
(g14
S'\xcd\xd4CuRPQ@'
p74
tp75
Rp76
asS'target'
p77
(lp78
g10
(g14
S'6,<\xfd\xb1dm@'
p79
tp80
Rp81
ag10
(g14
S'\xf1\xaf\x8b\xd4\\\x13V@'
p82
tp83
Rp84
ag10
(g14
S'\x95,\x10d\x94\x0f]@'
p85
tp86
Rp87
ag10
(g14
S's\xf2k\xcf-\x13=@'
p88
tp89
Rp90
ag10
(g14
S'EF{\xd7\x17IF@'
p91
tp92
Rp93
ag10
(g14
S'\x18\xc9m\xcf\xd3&T@'
p94
tp95
Rp96
ag10
(g14
S'*fW\x0f\x911C@'
p97
tp98
Rp99
ag10
(g14
S'\x8e\x0f\xb8\x9fR~=@'
p100
tp101
Rp102
ag10
(g14
S'J%5\xb2W\xfdA@'
p103
tp104
Rp105
ag10
(g14
S'\xe2p\x11D\x95\xbfa@'
p106
tp107
Rp108
ag10
(g14
S'[`\ni\xa8Dc@'
p109
tp110
Rp111
ag10
(g14
S'#\n\xa6\x96~[R@'
p112
tp113
Rp114
ag10
(g14
S'\x06r[\xeb\xa1\xcaV@'
p115
tp116
Rp117
ag10
(g14
S'\xf06\xec\xa6"J\\@'
p118
tp119
Rp120
ag10
(g14
S'\x8b\xdb\xde]a\xaaU@'
p121
tp122
Rp123
ag10
(g14
S'\x94\xa12\x91`\x01S@'
p124
tp125
Rp126
ag10
(g14
S'\xfc\xb6\xef\x0b{\xc6_@'
p127
tp128
Rp129
ag10
(g14
S'kn\xb1G\xf3\xbf[@'
p130
tp131
Rp132
ag10
(g14
S'\xfe\xca\x9ekV5Y@'
p133
tp134
Rp135
ag10
(g14
S'\xa1\xe2\rWCFC@'
p136
tp137
Rp138
asssss.