(dp0
S'../Data/sqlite_84.csv'
p1
(dp2
S'../Data/sqlite_94.csv'
p3
(dp4
F0.2
(dp5
S'mmre'
p6
(dp7
S'bellwether'
p8
(lp9
cnumpy.core.multiarray
scalar
p10
(cnumpy
dtype
p11
(S'f8'
p12
I0
I1
tp13
Rp14
(I3
S'<'
p15
NNNI-1
I-1
I0
tp16
bS'\xd2T$WjQX@'
p17
tp18
Rp19
ag10
(g14
S'\xfb<c\x17\x14QX@'
p20
tp21
Rp22
ag10
(g14
S'\x92\x8f,|!RX@'
p23
tp24
Rp25
ag10
(g14
S'#s\x9f\xe2\x08RX@'
p26
tp27
Rp28
ag10
(g14
S'\x7f\xad\xebdyQX@'
p29
tp30
Rp31
ag10
(g14
S'`\xc3Hl\x00QX@'
p32
tp33
Rp34
ag10
(g14
S'\xce\x1a\xc1|\xf2QX@'
p35
tp36
Rp37
ag10
(g14
S'\x96\xfd3Y\xa7RX@'
p38
tp39
Rp40
ag10
(g14
S'\x19\xcc\xda$dQX@'
p41
tp42
Rp43
ag10
(g14
S'\x88D\xb99QQX@'
p44
tp45
Rp46
ag10
(g14
S'\x14\xf9S\n\x1eQX@'
p47
tp48
Rp49
ag10
(g14
S'\x00\xf7t\xc7\xebQX@'
p50
tp51
Rp52
ag10
(g14
S'\xb5\x94\xd6}\x90QX@'
p53
tp54
Rp55
ag10
(g14
S'\xcb\x9c\x85:\x1fPX@'
p56
tp57
Rp58
ag10
(g14
S'\xcf\xcfj\xe2\xe2QX@'
p59
tp60
Rp61
ag10
(g14
S'\xd8\x9f\x01\xa5,QX@'
p62
tp63
Rp64
ag10
(g14
S'\xfa\x93!\xf7+QX@'
p65
tp66
Rp67
ag10
(g14
S'\x8e\x10+\xc0\xfcQX@'
p68
tp69
Rp70
ag10
(g14
S'\xb9k\x92\x98\xb4PX@'
p71
tp72
Rp73
ag10
(g14
S'\x843\xeb\xc8\x83QX@'
p74
tp75
Rp76
asS'target'
p77
(lp78
g10
(g14
S'DA,5\xc3\xc1V@'
p79
tp80
Rp81
ag10
(g14
S'f\xbc\x0c\x9fR\x11O@'
p82
tp83
Rp84
ag10
(g14
S'\xa5\x9b\x18&_\xb4O@'
p85
tp86
Rp87
ag10
(g14
S'P~p\x81\x9d\x87I@'
p88
tp89
Rp90
ag10
(g14
S'q\xfa<\xfa\x86kP@'
p91
tp92
Rp93
ag10
(g14
S'\x98F5\x8d\xc9\xd3S@'
p94
tp95
Rp96
ag10
(g14
S'o\x06\xa0\xe0\xe3|Q@'
p97
tp98
Rp99
ag10
(g14
S'\x86\x02(\xd2\x93\xeaN@'
p100
tp101
Rp102
ag10
(g14
S']|\x94;:NQ@'
p103
tp104
Rp105
ag10
(g14
S'.\x0f\xe1\xafKj]@'
p106
tp107
Rp108
ag10
(g14
S'|e\x84\x03\\q`@'
p109
tp110
Rp111
ag10
(g14
S'\xe5pTn2\xb1P@'
p112
tp113
Rp114
ag10
(g14
S'Tu\xcf\xaa\x07!S@'
p115
tp116
Rp117
ag10
(g14
S'\xf0\x08\x0cpn\xbfQ@'
p118
tp119
Rp120
ag10
(g14
S'_\xf1X\xd6Z^Q@'
p121
tp122
Rp123
ag10
(g14
S')\xf9\xc6\xac\xba*Q@'
p124
tp125
Rp126
ag10
(g14
S':\x84\xc0\x1e\xb1\xa6V@'
p127
tp128
Rp129
ag10
(g14
S'j#BU\x0c\xb9M@'
p130
tp131
Rp132
ag10
(g14
S'q:\xe3\xb41\xcdO@'
p133
tp134
Rp135
ag10
(g14
S'({"\x9cz\xa4J@'
p136
tp137
Rp138
asssss.