(dp0
S'../Data/sqlite_67.csv'
p1
(dp2
S'../Data/sqlite_37.csv'
p3
(dp4
F0.15
(dp5
S'abs_res'
p6
(dp7
S'bellwether'
p8
(lp9
cnumpy.core.multiarray
scalar
p10
(cnumpy
dtype
p11
(S'f8'
p12
I0
I1
tp13
Rp14
(I3
S'<'
p15
NNNI-1
I-1
I0
tp16
bS'Mb\x10X&}"A'
p17
tp18
Rp19
ag10
(g14
S'A5^\xfa }"A'
p20
tp21
Rp22
ag10
(g14
S'<5^\xba\x01}"A'
p23
tp24
Rp25
ag10
(g14
S'\xeb&1\x08S}"A'
p26
tp27
Rp28
ag10
(g14
S'\xea\xd0"[\xde|"A'
p29
tp30
Rp31
ag10
(g14
S'[H\x9a\xd2Y}"A'
p32
tp33
Rp34
ag10
(g14
S'\xea\xdf\x08%\x9f|"A'
p35
tp36
Rp37
ag10
(g14
S'R\xb8\x1e\xc5\x9a|"A'
p38
tp39
Rp40
ag10
(g14
S'\x80\xdck.<|"A'
p41
tp42
Rp43
ag10
(g14
S'\x16X94\xd0}"A'
p44
tp45
Rp46
ag10
(g14
S'*\x06\x81U\x04}"A'
p47
tp48
Rp49
ag10
(g14
S'[\x9c}x\x12}"A'
p50
tp51
Rp52
ag10
(g14
S'\xc0\xca\xa1E\n|"A'
p53
tp54
Rp55
ag10
(g14
S'H\x8bl\'\xe8|"A'
p56
tp57
Rp58
ag10
(g14
S'\x03+\x87V:}"A'
p59
tp60
Rp61
ag10
(g14
S'6\xec\n\x90B}"A'
p62
tp63
Rp64
ag10
(g14
S'\x02\xe4^3\xe1|"A'
p65
tp66
Rp67
ag10
(g14
S'%\x06\x81\xd5\xef|"A'
p68
tp69
Rp70
ag10
(g14
S'\x9a\x99\x99\xd9\xdd{"A'
p71
tp72
Rp73
ag10
(g14
S'\xb2V\xc7\xc4G}"A'
p74
tp75
Rp76
asS'target'
p77
(lp78
g10
(g14
S'T\xe3\xa5\x9b\xc4\xb8P@'
p79
tp80
Rp81
ag10
(g14
S'p\x12\x83\xc0\xca\xadP@'
p82
tp83
Rp84
ag10
(g14
S'\x06\xd5x\xe9&\xc9P@'
p85
tp86
Rp87
ag10
(g14
S'\x8e\x16\xd9\xce\xf7\x9bP@'
p88
tp89
Rp90
ag10
(g14
S'\xacG\xe1z\x146P@'
p91
tp92
Rp93
ag10
(g14
S'0\xdd$\x06\x81\x85Q@'
p94
tp95
Rp96
ag10
(g14
S'p=\n\xd7\xa34Q@'
p97
tp98
Rp99
ag10
(g14
S'\xd3x\xe9&1\xd0Q@'
p100
tp101
Rp102
ag10
(g14
S'\x18/\xdd$\x06\x19P@'
p103
tp104
Rp105
ag10
(g14
S'\xed&1\x08\xacDR@'
p106
tp107
Rp108
ag10
(g14
S'vh\x91\xed|\xdfP@'
p109
tp110
Rp111
ag10
(g14
S'\x81j\xbct\x93\x80Q@'
p112
tp113
Rp114
ag10
(g14
S'\xce\xcc\xcc\xcc\xcc\x9cQ@'
p115
tp116
Rp117
ag10
(g14
S'\xb4\xf1\xd2Mb\x00O@'
p118
tp119
Rp120
ag10
(g14
S'c\xbaI\x0c\x02#R@'
p121
tp122
Rp123
ag10
(g14
S'\xc8\xca\xa1E\xb6#P@'
p124
tp125
Rp126
ag10
(g14
S's\x93\x18\x04V\x1eP@'
p127
tp128
Rp129
ag10
(g14
S'\xbc\x1e\x85\xebQ\xc0Q@'
p130
tp131
Rp132
ag10
(g14
S'\xdf\xce\xf7S\xe3\x95P@'
p133
tp134
Rp135
ag10
(g14
S'a\x8f\xc2\xf5(\xc4P@'
p136
tp137
Rp138
asssss.