(dp0
S'../Data/sqlite_32.csv'
p1
(dp2
S'../Data/sqlite_9.csv'
p3
(dp4
F0.25
(dp5
S'abs_res'
p6
(dp7
S'bellwether'
p8
(lp9
cnumpy.core.multiarray
scalar
p10
(cnumpy
dtype
p11
(S'f8'
p12
I0
I1
tp13
Rp14
(I3
S'<'
p15
NNNI-1
I-1
I0
tp16
bS'\x02\xd5x9DVAA'
p17
tp18
Rp19
ag10
(g14
S'\xbfI\x0cR\xe4YAA'
p20
tp21
Rp22
ag10
(g14
S'z\x14\xaeW1[AA'
p23
tp24
Rp25
ag10
(g14
S'\xb9\x1e\x85{\xa6YAA'
p26
tp27
Rp28
ag10
(g14
S'\xb9\xc8v\xceaZAA'
p29
tp30
Rp31
ag10
(g14
S'\x1dZd\xfbSYAA'
p32
tp33
Rp34
ag10
(g14
S'\xea\xa7\xc6\xdb<XAA'
p35
tp36
Rp37
ag10
(g14
S'~\x14\xae\xc7\x04XAA'
p38
tp39
Rp40
ag10
(g14
S';\xdfO\xbdtYAA'
p41
tp42
Rp43
ag10
(g14
S'W\xb8\x1eU\x9fZAA'
p44
tp45
Rp46
ag10
(g14
S'sh\x91]\xceYAA'
p47
tp48
Rp49
ag10
(g14
S']\x10X\xc9\xd7YAA'
p50
tp51
Rp52
ag10
(g14
S'Lb\x10\x98\xdcZAA'
p53
tp54
Rp55
ag10
(g14
S'O\x8d\x97N\x04[AA'
p56
tp57
Rp58
ag10
(g14
S'#\xb0r\x18jWAA'
p59
tp60
Rp61
ag10
(g14
S'\xea\xa5\x9b\x14ZYAA'
p62
tp63
Rp64
ag10
(g14
S'\x13\xaeG\xe1\x8cVAA'
p65
tp66
Rp67
ag10
(g14
S'\xb5\x1e\x85\x1b,VAA'
p68
tp69
Rp70
ag10
(g14
S'T\x0e-\xe2<WAA'
p71
tp72
Rp73
ag10
(g14
S'\xcc\xa1E\x06RYAA'
p74
tp75
Rp76
asS'target'
p77
(lp78
g10
(g14
S'\x94\xc4 \xb0r\xd8>@'
p79
tp80
Rp81
ag10
(g14
S'\xe9&1\x08\xac\\A@'
p82
tp83
Rp84
ag10
(g14
S'N\x8d\x97n\x12\xcb@@'
p85
tp86
Rp87
ag10
(g14
S'\xdbMb\x10XYD@'
p88
tp89
Rp90
ag10
(g14
S'2\xdd$\x06\x815@@'
p91
tp92
Rp93
ag10
(g14
S'I\xb4\xc8v\xbe\x8fD@'
p94
tp95
Rp96
ag10
(g14
S'R7\x89A`u?@'
p97
tp98
Rp99
ag10
(g14
S'y=\n\xd7\xa3\xe0@@'
p100
tp101
Rp102
ag10
(g14
S'\x10\x81\x95C\x8b\xdc=@'
p103
tp104
Rp105
ag10
(g14
S'\xad\xc6K7\x89\x19@@'
p106
tp107
Rp108
ag10
(g14
S'\xbe\xc8v\xbe\x9fj@@'
p109
tp110
Rp111
ag10
(g14
S'Ud;\xdfO\xad@@'
p112
tp113
Rp114
ag10
(g14
S'C5^\xbaItA@'
p115
tp116
Rp117
ag10
(g14
S'13333+B@'
p118
tp119
Rp120
ag10
(g14
S'\n-\xb2\x9d\xefG?@'
p121
tp122
Rp123
ag10
(g14
S'\xe7z\x14\xaeG\xe1B@'
p124
tp125
Rp126
ag10
(g14
S'\x8a\x95C\x8blg@@'
p127
tp128
Rp129
ag10
(g14
S'\xf2|?5^\x1aC@'
p130
tp131
Rp132
ag10
(g14
S'\x11\xd7\xa3p=\x8a<@'
p133
tp134
Rp135
ag10
(g14
S'\n\xd7\xa3p=:B@'
p136
tp137
Rp138
asssss.