(dp0
S'../Data/sqlite_95.csv'
p1
(dp2
S'../Data/sqlite_58.csv'
p3
(dp4
F0.35
(dp5
S'abs_res'
p6
(dp7
S'bellwether'
p8
(lp9
cnumpy.core.multiarray
scalar
p10
(cnumpy
dtype
p11
(S'f8'
p12
I0
I1
tp13
Rp14
(I3
S'<'
p15
NNNI-1
I-1
I0
tp16
bS'HS*.\xfd]3A'
p17
tp18
Rp19
ag10
(g14
S'\xeb`\x9e\xa8@K3A'
p20
tp21
Rp22
ag10
(g14
S'i\x1f>#\x12\x163A'
p23
tp24
Rp25
ag10
(g14
S'#v\x05\xc8\xdd\x8d3A'
p26
tp27
Rp28
ag10
(g14
S'\x04G(\x03\x03Q3A'
p29
tp30
Rp31
ag10
(g14
S'>\n\xd7\x83\x00_3A'
p32
tp33
Rp34
ag10
(g14
S'www\xb7\xf443A'
p35
tp36
Rp37
ag10
(g14
S'\x0e\x9fa\xf7%N3A'
p38
tp39
Rp40
ag10
(g14
S'M\xa98\xdb\x0b&3A'
p41
tp42
Rp43
ag10
(g14
S'\x13t\xda@\x99+3A'
p44
tp45
Rp46
ag10
(g14
S'>\xee5\xf7\x9e`3A'
p47
tp48
Rp49
ag10
(g14
S"8\x98'*1\xdb2A"
p50
tp51
Rp52
ag10
(g14
S'\x8b\x16\xd9\xae$o3A'
p53
tp54
Rp55
ag10
(g14
S'5$M\t\x85\xff2A'
p56
tp57
Rp58
ag10
(g14
S'I\xe1z\xb4\xe9+3A'
p59
tp60
Rp61
ag10
(g14
S'K(\xa3\xf7\xac\x003A'
p62
tp63
Rp64
ag10
(g14
S'\xe2k.D\xe0A3A'
p65
tp66
Rp67
ag10
(g14
S'\xe8\xa5\x9b\xc4\t\x003A'
p68
tp69
Rp70
ag10
(g14
S'\x0c\xf3D]\xeaE3A'
p71
tp72
Rp73
ag10
(g14
S'\xae8\xfb\xd0\xa9 3A'
p74
tp75
Rp76
asS'target'
p77
(lp78
g10
(g14
S'\x90\xc2\xf5(\\SR@'
p79
tp80
Rp81
ag10
(g14
S'8\xdfO\x8d\x97nQ@'
p82
tp83
Rp84
ag10
(g14
S'8\xdfO\x8d\x97.R@'
p85
tp86
Rp87
ag10
(g14
S'_\x10X9\xb4TQ@'
p88
tp89
Rp90
ag10
(g14
S'_\xe5\xd0"\xdb\x19R@'
p91
tp92
Rp93
ag10
(g14
S'X9\xb4\xc8v&Q@'
p94
tp95
Rp96
ag10
(g14
S'2\xdfO\x8d\x97~R@'
p97
tp98
Rp99
ag10
(g14
S'n=\n\xd7\xa3\xecP@'
p100
tp101
Rp102
ag10
(g14
S'U\xbaI\x0c\x02\xafR@'
p103
tp104
Rp105
ag10
(g14
S'1^\xbaI\x0cBR@'
p106
tp107
Rp108
ag10
(g14
S'\x82\xc0\xca\xa1E\xd2P@'
p109
tp110
Rp111
ag10
(g14
S'\x99\xef\xa7\xc6K\xd7P@'
p112
tp113
Rp114
ag10
(g14
S'x?5^\xba\xc1Q@'
p115
tp116
Rp117
ag10
(g14
S't\xbe\x9f\x1a/-R@'
p118
tp119
Rp120
ag10
(g14
S'\xa3p=\n\xd7\x13Q@'
p121
tp122
Rp123
ag10
(g14
S'|?5^\xbamQ@'
p124
tp125
Rp126
ag10
(g14
S'\x82j\xbct\x93\x98R@'
p127
tp128
Rp129
ag10
(g14
S'\xdaO\x8d\x97n\x12R@'
p130
tp131
Rp132
ag10
(g14
S'Ob\x10X9lR@'
p133
tp134
Rp135
ag10
(g14
S'\xc2\xf5(\\\x8f\xeaQ@'
p136
tp137
Rp138
asssss.