(dp0
S'../Data/sqlite_33.csv'
p1
(dp2
S'../Data/sqlite_90.csv'
p3
(dp4
F0.4
(dp5
S'mmre'
p6
(dp7
S'bellwether'
p8
(lp9
cnumpy.core.multiarray
scalar
p10
(cnumpy
dtype
p11
(S'f8'
p12
I0
I1
tp13
Rp14
(I3
S'<'
p15
NNNI-1
I-1
I0
tp16
bS's\x0fLi\xdadW@'
p17
tp18
Rp19
ag10
(g14
S'\xa0\x83\x03&\xc3eW@'
p20
tp21
Rp22
ag10
(g14
S'\x8d\xe5\x0b\x80\xa8nW@'
p23
tp24
Rp25
ag10
(g14
S'X\x9el\x93\x9eoW@'
p26
tp27
Rp28
ag10
(g14
S']\x15I\x98q^W@'
p29
tp30
Rp31
ag10
(g14
S'\xb0\xab\xa5\xe3\x7fWW@'
p32
tp33
Rp34
ag10
(g14
S'\x17\x7f\xd3$\xb2VW@'
p35
tp36
Rp37
ag10
(g14
S'\xeb\xb7\xb9\x0be^W@'
p38
tp39
Rp40
ag10
(g14
S'\xe4\xe3\xc10\x16lW@'
p41
tp42
Rp43
ag10
(g14
S'\x89b\xa3\x18x_W@'
p44
tp45
Rp46
ag10
(g14
S'\xe8\x07B @ZW@'
p47
tp48
Rp49
ag10
(g14
S'x\xabQ\xc7OUW@'
p50
tp51
Rp52
ag10
(g14
S'\x02\xfen\xc9\x9cdW@'
p53
tp54
Rp55
ag10
(g14
S'\xb0M:\x87\xa5UW@'
p56
tp57
Rp58
ag10
(g14
S'\x16 \xc6R\xdbaW@'
p59
tp60
Rp61
ag10
(g14
S'8;\xe6dnfW@'
p62
tp63
Rp64
ag10
(g14
S'\x90J#\x133]W@'
p65
tp66
Rp67
ag10
(g14
S'\xfbw|l\x00\\W@'
p68
tp69
Rp70
ag10
(g14
S'\x18rg;KWW@'
p71
tp72
Rp73
ag10
(g14
S'\xaam\x89\xf5|fW@'
p74
tp75
Rp76
asS'target'
p77
(lp78
g10
(g14
S'\xb1\xf8\xf1\x88wB@@'
p79
tp80
Rp81
ag10
(g14
S'\x8e\x03\x12;r\xe4@@'
p82
tp83
Rp84
ag10
(g14
S'\x9bN\x1b\x06]i@@'
p85
tp86
Rp87
ag10
(g14
S'\xfb\x8f\xe0+\x9e\x98?@'
p88
tp89
Rp90
ag10
(g14
S"\xc0m\xd1s'C@@"
p91
tp92
Rp93
ag10
(g14
S'\x86\x1c>\x1a3?B@'
p94
tp95
Rp96
ag10
(g14
S'\xe8\xc3\xb8\xfdI B@'
p97
tp98
Rp99
ag10
(g14
S']\xa2 \xef\xc2^A@'
p100
tp101
Rp102
ag10
(g14
S'6\x0b\xd9\x9f\x85\xb4@@'
p103
tp104
Rp105
ag10
(g14
S'%\xc3\x99jR\x9f>@'
p106
tp107
Rp108
ag10
(g14
S'%\xbd\xc3\xb8\xfc{A@'
p109
tp110
Rp111
ag10
(g14
S"'\xcfR\x01e\xffB@"
p112
tp113
Rp114
ag10
(g14
S'?\x9a\x07\x17v\xdc@@'
p115
tp116
Rp117
ag10
(g14
S'+\x91\x1b}hOA@'
p118
tp119
Rp120
ag10
(g14
S'48\xc9`\x18xA@'
p121
tp122
Rp123
ag10
(g14
S'\x06\\g\x06\xba\xf6A@'
p124
tp125
Rp126
ag10
(g14
S'\xf2\xf6R\x9dy\xe5@@'
p127
tp128
Rp129
ag10
(g14
S'\x85\xe8\xa2<Qh@@'
p130
tp131
Rp132
ag10
(g14
S'@\xf8\xea\xde\x9f\xc1A@'
p133
tp134
Rp135
ag10
(g14
S'\xff?\x01<}\x0f@@'
p136
tp137
Rp138
asssss.