(dp0
S'../Data/sqlite_28.csv'
p1
(dp2
S'../Data/sqlite_96.csv'
p3
(dp4
F0.35
(dp5
S'mmre'
p6
(dp7
S'bellwether'
p8
(lp9
cnumpy.core.multiarray
scalar
p10
(cnumpy
dtype
p11
(S'f8'
p12
I0
I1
tp13
Rp14
(I3
S'<'
p15
NNNI-1
I-1
I0
tp16
bS'\xefw\xf4\x8bzQU@'
p17
tp18
Rp19
ag10
(g14
S'\xefp\xca\r|XU@'
p20
tp21
Rp22
ag10
(g14
S'\xde\xd0~\x98\xe5QU@'
p23
tp24
Rp25
ag10
(g14
S'.=\xcd\xc2\xf8RU@'
p26
tp27
Rp28
ag10
(g14
S'\xc0\x19\xf8\x83\x15WU@'
p29
tp30
Rp31
ag10
(g14
S'\xd6d8s\xceNU@'
p32
tp33
Rp34
ag10
(g14
S']=\xbb\xa9<KU@'
p35
tp36
Rp37
ag10
(g14
S'\xab\x9cv\x03\xc1MU@'
p38
tp39
Rp40
ag10
(g14
S'6r\xcc:\xfaNU@'
p41
tp42
Rp43
ag10
(g14
S'\xa6\xfbT\xe48GU@'
p44
tp45
Rp46
ag10
(g14
S'\xe2Y\x82\x9f<HU@'
p47
tp48
Rp49
ag10
(g14
S'\x91\xd3@B\xc9PU@'
p50
tp51
Rp52
ag10
(g14
S'`B+e\xc6SU@'
p53
tp54
Rp55
ag10
(g14
S'\xafW/\xc3wRU@'
p56
tp57
Rp58
ag10
(g14
S'\x8foa\x96\xefQU@'
p59
tp60
Rp61
ag10
(g14
S'{\xa2\x9b\xfdATU@'
p62
tp63
Rp64
ag10
(g14
S'\xa9\xb0[\x9b\x8dAU@'
p65
tp66
Rp67
ag10
(g14
S'\x03-"xPGU@'
p68
tp69
Rp70
ag10
(g14
S'P\x89\xea\xdccWU@'
p71
tp72
Rp73
ag10
(g14
S'\xf7\x05\xa5R\xdaBU@'
p74
tp75
Rp76
asS'target'
p77
(lp78
g10
(g14
S'\x11s\xdb\x80\x04\xebV@'
p79
tp80
Rp81
ag10
(g14
S'\xd1\xb9\x10\xec\x02\x99Q@'
p82
tp83
Rp84
ag10
(g14
S'7R\x04`\xc33R@'
p85
tp86
Rp87
ag10
(g14
S'\xa2\xa6\x11\xb1\x88\xa6W@'
p88
tp89
Rp90
ag10
(g14
S'\x8fc\x97j\xcc\xeaG@'
p91
tp92
Rp93
ag10
(g14
S'\tY]o\x1f\x1bT@'
p94
tp95
Rp96
ag10
(g14
S'\xaf\xa0QS\xd85P@'
p97
tp98
Rp99
ag10
(g14
S'\xa2\x97\xd9Y(\xf4V@'
p100
tp101
Rp102
ag10
(g14
S'\x97\xf5o\xbe\xfdZV@'
p103
tp104
Rp105
ag10
(g14
S'\x02!wv\xe5\xa0S@'
p106
tp107
Rp108
ag10
(g14
S']\xd9\xc2sf\xfbU@'
p109
tp110
Rp111
ag10
(g14
S'\x95z!\x1a\x90\x8aS@'
p112
tp113
Rp114
ag10
(g14
S"a'\x16\xce\xa3\xe8U@"
p115
tp116
Rp117
ag10
(g14
S'b\xdfE\xb8W\x0eR@'
p118
tp119
Rp120
ag10
(g14
S'\xbfws\x82\xf9#O@'
p121
tp122
Rp123
ag10
(g14
S'\xa0\xa6\x03\xb5\x1e&Q@'
p124
tp125
Rp126
ag10
(g14
S'\xc6\xc4;\x18T\xceW@'
p127
tp128
Rp129
ag10
(g14
S'u\xf9\xdd\x18K\rQ@'
p130
tp131
Rp132
ag10
(g14
S'\x91\x9c\x92\xf5r\x18W@'
p133
tp134
Rp135
ag10
(g14
S'%\x1a\xa6xQ\\`@'
p136
tp137
Rp138
asssss.