(dp0
S'../Data/sqlite_66.csv'
p1
(dp2
S'../Data/sqlite_22.csv'
p3
(dp4
F0.05
(dp5
S'abs_res'
p6
(dp7
S'bellwether'
p8
(lp9
cnumpy.core.multiarray
scalar
p10
(cnumpy
dtype
p11
(S'f8'
p12
I0
I1
tp13
Rp14
(I3
S'<'
p15
NNNI-1
I-1
I0
tp16
bS'\x14X9\xf4<S$A'
p17
tp18
Rp19
ag10
(g14
S'\x9c\xc4 \xb0\xf6R$A'
p20
tp21
Rp22
ag10
(g14
S'\xe6\xfb\xa9\xf1\xf9R$A'
p23
tp24
Rp25
ag10
(g14
S'\xce\xf7S\xa3SS$A'
p26
tp27
Rp28
ag10
(g14
S'/kuLTR$A'
p29
tp30
Rp31
ag10
(g14
S'\xde\xa3p}_S$A'
p32
tp33
Rp34
ag10
(g14
S'\x1f/\xdd\xe4\x03S$A'
p35
tp36
Rp37
ag10
(g14
S'J7\x89\xc1\xd6S$A'
p38
tp39
Rp40
ag10
(g14
S'Q\xb8\x1e\xc5\x85R$A'
p41
tp42
Rp43
ag10
(g14
S'Vq\xf6\xa14S$A'
p44
tp45
Rp46
ag10
(g14
S'{\xe9&\xb1IS$A'
p47
tp48
Rp49
ag10
(g14
S'\x18\x83\xc0\xca\xcdR$A'
p50
tp51
Rp52
ag10
(g14
S'\x11X9\xb4\x8cS$A'
p53
tp54
Rp55
ag10
(g14
S'2\x89A\xa0\xcfR$A'
p56
tp57
Rp58
ag10
(g14
S"\x1a<\x98'7S$A"
p59
tp60
Rp61
ag10
(g14
S'I\xc5\xd9\x07\xc2R$A'
p62
tp63
Rp64
ag10
(g14
S'\xe9&1H S$A'
p65
tp66
Rp67
ag10
(g14
S'\xf2\xa7\xc6\xcbJS$A'
p68
tp69
Rp70
ag10
(g14
S'\xf4|?57R$A'
p71
tp72
Rp73
ag10
(g14
S'\xd7\xf9~*\x04S$A'
p74
tp75
Rp76
asS'target'
p77
(lp78
g10
(g14
S'\xca"\xdb\xf9~\x02Y@'
p79
tp80
Rp81
ag10
(g14
S'\x18/\xdd$\x06\xb9d@'
p82
tp83
Rp84
ag10
(g14
S'\xbc\x1e\x85\xebQ\x88^@'
p85
tp86
Rp87
ag10
(g14
S'z?5^\xbayX@'
p88
tp89
Rp90
ag10
(g14
S'\x16\xaeG\xe1z\x14_@'
p91
tp92
Rp93
ag10
(g14
S'O\x8d\x97n\x12\x97`@'
p94
tp95
Rp96
ag10
(g14
S'\x94\xc4 \xb0r\xf8^@'
p97
tp98
Rp99
ag10
(g14
S'8^\xbaI\x0cR_@'
p100
tp101
Rp102
ag10
(g14
S'\xd4z\x14\xaeG\x19^@'
p103
tp104
Rp105
ag10
(g14
S'\xad\xef\xa7\xc6K\x0f\\@'
p106
tp107
Rp108
ag10
(g14
S'\r-\xb2\x9d\xefO`@'
p109
tp110
Rp111
ag10
(g14
S'>`\xe5\xd0"kc@'
p112
tp113
Rp114
ag10
(g14
S';\n\xd7\xa3p\x8d]@'
p115
tp116
Rp117
ag10
(g14
S'g\x91\xed|?]_@'
p118
tp119
Rp120
ag10
(g14
S'\x10\xd9\xce\xf7SK[@'
p121
tp122
Rp123
ag10
(g14
S'\xab\xc6K7\x89\xa9^@'
p124
tp125
Rp126
ag10
(g14
S'\xf4\xd2Mb\x10xX@'
p127
tp128
Rp129
ag10
(g14
S'P\x8d\x97n\x12\xfbX@'
p130
tp131
Rp132
ag10
(g14
S':\xdfO\x8d\x97\x9a`@'
p133
tp134
Rp135
ag10
(g14
S'_d;\xdfO\xa5Z@'
p136
tp137
Rp138
asssss.