(dp0
S'../Data/sqlite_71.csv'
p1
(dp2
S'../Data/sqlite_9.csv'
p3
(dp4
F0.35
(dp5
S'abs_res'
p6
(dp7
S'bellwether'
p8
(lp9
cnumpy.core.multiarray
scalar
p10
(cnumpy
dtype
p11
(S'f8'
p12
I0
I1
tp13
Rp14
(I3
S'<'
p15
NNNI-1
I-1
I0
tp16
bS'\xbd-k\xdd52fA'
p17
tp18
Rp19
ag10
(g14
S'\xbf\xe6B\xb2\x895fA'
p20
tp21
Rp22
ag10
(g14
S')\xec\n@-4fA'
p23
tp24
Rp25
ag10
(g14
S'{\xf8\x0c\xc7 EfA'
p26
tp27
Rp28
ag10
(g14
S'\x82\xa4)\xc1\xe58fA'
p29
tp30
Rp31
ag10
(g14
S'?\xb4\xc8j\xc4JfA'
p32
tp33
Rp34
ag10
(g14
S'\xe3z\x142c=fA'
p35
tp36
Rp37
ag10
(g14
S'\x1e/\xdd\xd0\x1eJfA'
p38
tp39
Rp40
ag10
(g14
S'\xaa\x1cZX;;fA'
p41
tp42
Rp43
ag10
(g14
S'233\xaf|>fA'
p44
tp45
Rp46
ag10
(g14
S' \xcc\x13\xad\xcfDfA'
p47
tp48
Rp49
ag10
(g14
S'\x90\xed|\xd3LAfA'
p50
tp51
Rp52
ag10
(g14
S'8\xb4\xc8\xbea7fA'
p53
tp54
Rp55
ag10
(g14
S'\xa6\xf1\xd2\x1d\xc5<fA'
p56
tp57
Rp58
ag10
(g14
S'p\xa0\xd3\x1a\xc3LfA'
p59
tp60
Rp61
ag10
(g14
S'9|\x86m\xc1AfA'
p62
tp63
Rp64
ag10
(g14
S'|j\xbcP^CfA'
p65
tp66
Rp67
ag10
(g14
S'7\xec\n\x00\x1aCfA'
p68
tp69
Rp70
ag10
(g14
S'\xeb5\x17\xf6GQfA'
p71
tp72
Rp73
ag10
(g14
S'\x18\xaeG\x01F@fA'
p74
tp75
Rp76
asS'target'
p77
(lp78
g10
(g14
S'\x8fA`\xe5\xd0\xe2<@'
p79
tp80
Rp81
ag10
(g14
S'\r\xd7\xa3p=z?@'
p82
tp83
Rp84
ag10
(g14
S'Y\x0e-\xb2\x9d_=@'
p85
tp86
Rp87
ag10
(g14
S')\xb0rh\x91m>@'
p88
tp89
Rp90
ag10
(g14
S'\xb1G\xe1z\x14\x1e=@'
p91
tp92
Rp93
ag10
(g14
S'9^\xbaI\x0c\xc2:@'
p94
tp95
Rp96
ag10
(g14
S'\xacp=\n\xd7\x03<@'
p97
tp98
Rp99
ag10
(g14
S'\xa4n\x12\x83\xc0\xea?@'
p100
tp101
Rp102
ag10
(g14
S'\xfcS\xe3\xa5\x9bd<@'
p103
tp104
Rp105
ag10
(g14
S'\xe7Q\xb8\x1e\x85\xbb;@'
p106
tp107
Rp108
ag10
(g14
S'\xcav\xbe\x9f\x1a\xbf=@'
p109
tp110
Rp111
ag10
(g14
S'\xd3"\xdb\xf9~\x8a:@'
p112
tp113
Rp114
ag10
(g14
S'^d;\xdfO\xed:@'
p115
tp116
Rp117
ag10
(g14
S'>5^\xbaI\xac;@'
p118
tp119
Rp120
ag10
(g14
S'\x14-\xb2\x9d\xef\xa7;@'
p121
tp122
Rp123
ag10
(g14
S'\x19\xaeG\xe1z$=@'
p124
tp125
Rp126
ag10
(g14
S'E\xb4\xc8v\xbe\x7f:@'
p127
tp128
Rp129
ag10
(g14
S'\xdfz\x14\xaeGa?@'
p130
tp131
Rp132
ag10
(g14
S'I5^\xbaI\\>@'
p133
tp134
Rp135
ag10
(g14
S'n;\xdfO\x8d\xa7=@'
p136
tp137
Rp138
asssss.