(dp0
S'../Data/sqlite_58.csv'
p1
(dp2
S'../Data/sqlite_85.csv'
p3
(dp4
F0.15
(dp5
S'abs_res'
p6
(dp7
S'bellwether'
p8
(lp9
cnumpy.core.multiarray
scalar
p10
(cnumpy
dtype
p11
(S'f8'
p12
I0
I1
tp13
Rp14
(I3
S'<'
p15
NNNI-1
I-1
I0
tp16
bS'\xa2\xc4 t\x95\x8eWA'
p17
tp18
Rp19
ag10
(g14
S'P\xe3\xa5\x9f\xef\x95WA'
p20
tp21
Rp22
ag10
(g14
S'D\xb4\xc8\xb6\x8c\x8aWA'
p23
tp24
Rp25
ag10
(g14
S"\x9fE\xb6'\xa8yWA"
p26
tp27
Rp28
ag10
(g14
S'\xbfI\x0c>\nuWA'
p29
tp30
Rp31
ag10
(g14
S'\xa6\xe2\xec\xbb~ZWA'
p32
tp33
Rp34
ag10
(g14
S'X9\xb4\xecdmWA'
p35
tp36
Rp37
ag10
(g14
S'\x11e\xf4f\xc07WA'
p38
tp39
Rp40
ag10
(g14
S'I\x0c\x02WtiWA'
p41
tp42
Rp43
ag10
(g14
S'\xa6\xef\xa7>e`WA'
p44
tp45
Rp46
ag10
(g14
S'\xa1E\xb6\xab\xf0\x8eWA'
p47
tp48
Rp49
ag10
(g14
S'\r\xe6\x89\xce\xbe\x8bWA'
p50
tp51
Rp52
ag10
(g14
S'#\x04Vn\x03QWA'
p53
tp54
Rp55
ag10
(g14
S'\xac\xd51!p:WA'
p56
tp57
Rp58
ag10
(g14
S'\xf3\xa7\xc6O+~WA'
p59
tp60
Rp61
ag10
(g14
S'e\x91\xed4\x95}WA'
p62
tp63
Rp64
ag10
(g14
S'r\xbct\xd3\x9a^WA'
p65
tp66
Rp67
ag10
(g14
S'oh\x91mkqWA'
p68
tp69
Rp70
ag10
(g14
S'3\\\x8f\x92fiWA'
p71
tp72
Rp73
ag10
(g14
S'%\x06\x81\xa5\xc6rWA'
p74
tp75
Rp76
asS'target'
p77
(lp78
g10
(g14
S'Y\x8f\xc2\xe5\x17vEA'
p79
tp80
Rp81
ag10
(g14
S'\x84\xebQ\x98 \xad@A'
p82
tp83
Rp84
ag10
(g14
S'J\n\xd7\x03\x0c\xa8@A'
p85
tp86
Rp87
ag10
(g14
S'cff\x86M\xf6AA'
p88
tp89
Rp90
ag10
(g14
S'\x97\x99\x99\x99\x04eCA'
p91
tp92
Rp93
ag10
(g14
S'\xba\x1e\x85Ka\xb1AA'
p94
tp95
Rp96
ag10
(g14
S'P\xe1z4\x7f(BA'
p97
tp98
Rp99
ag10
(g14
S'?33s/\xd8EA'
p100
tp101
Rp102
ag10
(g14
S's=\nWG\x0fAA'
p103
tp104
Rp105
ag10
(g14
S'\xf0Q\xb8\x1e\xc0\xa6AA'
p106
tp107
Rp108
ag10
(g14
S'p=\nW\x19\xe8BA'
p109
tp110
Rp111
ag10
(g14
S'\x83\xebQ\x98\xa0\xbfBA'
p112
tp113
Rp114
ag10
(g14
S'\xce\xa3p]G]BA'
p115
tp116
Rp117
ag10
(g14
S'\xd0\xcc\xcc\xacv@DA'
p118
tp119
Rp120
ag10
(g14
S'133\xd3\xa8\x14BA'
p121
tp122
Rp123
ag10
(g14
S'C\n\xd7\xc3\xdc}AA'
p124
tp125
Rp126
ag10
(g14
S'\xc5\xf5(\x9c\x1e!BA'
p127
tp128
Rp129
ag10
(g14
S'Q\xe1zTx\xcd@A'
p130
tp131
Rp132
ag10
(g14
S'\xbe\x1e\x85\x8b\xc5/BA'
p133
tp134
Rp135
ag10
(g14
S'dff\xc6\xbc\xfeBA'
p136
tp137
Rp138
asssss.