(dp0
S'../Data/sqlite_35.csv'
p1
(dp2
S'../Data/sqlite_89.csv'
p3
(dp4
F0.1
(dp5
S'mmre'
p6
(dp7
S'bellwether'
p8
(lp9
cnumpy.core.multiarray
scalar
p10
(cnumpy
dtype
p11
(S'f8'
p12
I0
I1
tp13
Rp14
(I3
S'<'
p15
NNNI-1
I-1
I0
tp16
bS'\xfb+&+\x16\xbc;@'
p17
tp18
Rp19
ag10
(g14
S'\xf2\xfb\x91\nd\xf0;@'
p20
tp21
Rp22
ag10
(g14
S'x\xf9/v\xd9\x0c<@'
p23
tp24
Rp25
ag10
(g14
S'A\xb1\xd1+<J<@'
p26
tp27
Rp28
ag10
(g14
S'.\xa7\xb5\xf5v\x92;@'
p29
tp30
Rp31
ag10
(g14
S'\x02R\xc0\xb1\xc5\x9b;@'
p32
tp33
Rp34
ag10
(g14
S'\xa9\xe6\xd1\xdd\xac\xfb;@'
p35
tp36
Rp37
ag10
(g14
S'\x04\x90\xf2\xb7T\x01<@'
p38
tp39
Rp40
ag10
(g14
S'\xf0\x03\x90\xb0?\xbe;@'
p41
tp42
Rp43
ag10
(g14
S'&[\x8d{\x84\xda;@'
p44
tp45
Rp46
ag10
(g14
S'\xa4b\xf0\xba\x18\xeb;@'
p47
tp48
Rp49
ag10
(g14
S'\x1e[~\xf3\x17\xdd;@'
p50
tp51
Rp52
ag10
(g14
S'\\Dkr8\x03<@'
p53
tp54
Rp55
ag10
(g14
S'\xfath\x07!\n<@'
p56
tp57
Rp58
ag10
(g14
S'q\x81\x12\xb3j\xac;@'
p59
tp60
Rp61
ag10
(g14
S'\x04MZ0\x17\x08<@'
p62
tp63
Rp64
ag10
(g14
S'\xbc\xda\xf33m\x0b<@'
p65
tp66
Rp67
ag10
(g14
S'}6Z\x05b\xb7;@'
p68
tp69
Rp70
ag10
(g14
S'\xf8\x85B&\xf1@<@'
p71
tp72
Rp73
ag10
(g14
S'i\xf6\xba\r\xffL;@'
p74
tp75
Rp76
asS'target'
p77
(lp78
g10
(g14
S'\xf2~!\x16\xfa\x9eL@'
p79
tp80
Rp81
ag10
(g14
S'@\t{tU\x03S@'
p82
tp83
Rp84
ag10
(g14
S'\xce(9\xfa\xfc\x9bO@'
p85
tp86
Rp87
ag10
(g14
S'?u3\xa41\xe9R@'
p88
tp89
Rp90
ag10
(g14
S' \xdaL`\xf8\xb7^@'
p91
tp92
Rp93
ag10
(g14
S'i|\t \x8aQY@'
p94
tp95
Rp96
ag10
(g14
S'\x96\xc5\xf4Z8\xa0S@'
p97
tp98
Rp99
ag10
(g14
S'\xce\xb1\\h\xba\x1aL@'
p100
tp101
Rp102
ag10
(g14
S'\xd0K\x87\xd3<]Y@'
p103
tp104
Rp105
ag10
(g14
S'\xd3<)\x8d\xc4\xd5Q@'
p106
tp107
Rp108
ag10
(g14
S'\x9a)\xbbl\xdf\xbcP@'
p109
tp110
Rp111
ag10
(g14
S'\x11\xfa>\x9e\xc4\x04R@'
p112
tp113
Rp114
ag10
(g14
S':\xb7=\x9en\x7fP@'
p115
tp116
Rp117
ag10
(g14
S'c\x07\nv\x85\xadK@'
p118
tp119
Rp120
ag10
(g14
S'X\xba\xae:\xa9BI@'
p121
tp122
Rp123
ag10
(g14
S']us\xc5\x1e\x9aL@'
p124
tp125
Rp126
ag10
(g14
S'\xf7]K\x8fihQ@'
p127
tp128
Rp129
ag10
(g14
S'E\x8d.hJRT@'
p130
tp131
Rp132
ag10
(g14
S'\xf1\x1e\x84nm&K@'
p133
tp134
Rp135
ag10
(g14
S'\xca`&OJ\xf7U@'
p136
tp137
Rp138
asssss.