(dp0
S'../Data/sqlite_9.csv'
p1
(dp2
S'../Data/sqlite_89.csv'
p3
(dp4
F0.25
(dp5
S'mmre'
p6
(dp7
S'bellwether'
p8
(lp9
cnumpy.core.multiarray
scalar
p10
(cnumpy
dtype
p11
(S'f8'
p12
I0
I1
tp13
Rp14
(I3
S'<'
p15
NNNI-1
I-1
I0
tp16
bS'\xc8\xca\xa9XU`V@'
p17
tp18
Rp19
ag10
(g14
S"\x9f'\xdd\x85\xc8gV@"
p20
tp21
Rp22
ag10
(g14
S'\xfa\xd5K-\\cV@'
p23
tp24
Rp25
ag10
(g14
S'MwM\xb32dV@'
p26
tp27
Rp28
ag10
(g14
S'\xb8\xc6^\x13>`V@'
p29
tp30
Rp31
ag10
(g14
S'\xf7_q\xa0\x89jV@'
p32
tp33
Rp34
ag10
(g14
S'{\x85\xd9\xb7\xa7iV@'
p35
tp36
Rp37
ag10
(g14
S'@\x10\xce!\xe1cV@'
p38
tp39
Rp40
ag10
(g14
S'\xab\xa72\x90wcV@'
p41
tp42
Rp43
ag10
(g14
S'<\xef\xa5R\x8diV@'
p44
tp45
Rp46
ag10
(g14
S'$\xa9eq\xcceV@'
p47
tp48
Rp49
ag10
(g14
S'\xaf\xda\xac@\x1a]V@'
p50
tp51
Rp52
ag10
(g14
S'\xa4\x87\x7f\x8f\xe0gV@'
p53
tp54
Rp55
ag10
(g14
S'ps\x81\xe2YdV@'
p56
tp57
Rp58
ag10
(g14
S"a[4'\xb3aV@"
p59
tp60
Rp61
ag10
(g14
S'\x02A\xfd\x1a\xbbcV@'
p62
tp63
Rp64
ag10
(g14
S'\xb1\x183\x98\xa0dV@'
p65
tp66
Rp67
ag10
(g14
S'1H[ \xe9cV@'
p68
tp69
Rp70
ag10
(g14
S'r\x98\x8d(Y`V@'
p71
tp72
Rp73
ag10
(g14
S'\xa4\x8cb}\x8alV@'
p74
tp75
Rp76
asS'target'
p77
(lp78
g10
(g14
S't#<\x83X\xc3Q@'
p79
tp80
Rp81
ag10
(g14
S'_z\x1f8N\xc4L@'
p82
tp83
Rp84
ag10
(g14
S's\xc4\xed\xc0\xe4\xc6O@'
p85
tp86
Rp87
ag10
(g14
S'\xc3\x83\xa3\x91\xba6Q@'
p88
tp89
Rp90
ag10
(g14
S'80\x04\xf7\xecMS@'
p91
tp92
Rp93
ag10
(g14
S'9ik\x8eU\xc0P@'
p94
tp95
Rp96
ag10
(g14
S'\xff\x9bVT\xf7\xe2L@'
p97
tp98
Rp99
ag10
(g14
S'Y\xef\x08\xf6\xd1@Q@'
p100
tp101
Rp102
ag10
(g14
S'I\xd3^\x9fo%P@'
p103
tp104
Rp105
ag10
(g14
S'l\xe2?$\x01\x8bH@'
p106
tp107
Rp108
ag10
(g14
S'f\x08\x07{\x9d\xa2R@'
p109
tp110
Rp111
ag10
(g14
S'BJ\x13\xb1\xda\xe1N@'
p112
tp113
Rp114
ag10
(g14
S'\t.\xce\xaeZ\xcaQ@'
p115
tp116
Rp117
ag10
(g14
S'\x9b\xaa\xbc\x13\xaeQQ@'
p118
tp119
Rp120
ag10
(g14
S'\xd8IU\xd69\xf9S@'
p121
tp122
Rp123
ag10
(g14
S'\x90\x00#\x8e\n\x19S@'
p124
tp125
Rp126
ag10
(g14
S'\xba\xe8qL\xea\xc2N@'
p127
tp128
Rp129
ag10
(g14
S'>\xd9]\x90\xb7)S@'
p130
tp131
Rp132
ag10
(g14
S'\xb0\t\xc7\x8c$\x90P@'
p133
tp134
Rp135
ag10
(g14
S'r*R\x81\x1f*P@'
p136
tp137
Rp138
asssss.