(dp0
S'../Data/sqlite_65.csv'
p1
(dp2
S'../Data/sqlite_73.csv'
p3
(dp4
F0.3
(dp5
S'mmre'
p6
(dp7
S'bellwether'
p8
(lp9
cnumpy.core.multiarray
scalar
p10
(cnumpy
dtype
p11
(S'f8'
p12
I0
I1
tp13
Rp14
(I3
S'<'
p15
NNNI-1
I-1
I0
tp16
bS'p\x0e+\xa0\xa1[V@'
p17
tp18
Rp19
ag10
(g14
S'\x05/\xbdE\xde^V@'
p20
tp21
Rp22
ag10
(g14
S'\xf9\x8bI(\xfdaV@'
p23
tp24
Rp25
ag10
(g14
S'\xfe\xb8)^W`V@'
p26
tp27
Rp28
ag10
(g14
S'\x1c\xf0\x15\x1e\x8fcV@'
p29
tp30
Rp31
ag10
(g14
S'\xeerU\xb4\xd7[V@'
p32
tp33
Rp34
ag10
(g14
S'\xe9\x9f\x1e(\xfa]V@'
p35
tp36
Rp37
ag10
(g14
S'\x10\\\xa9\x00}_V@'
p38
tp39
Rp40
ag10
(g14
S'\xd4\xe7\xf9\x9f\x04^V@'
p41
tp42
Rp43
ag10
(g14
S'\x8emLT^aV@'
p44
tp45
Rp46
ag10
(g14
S'\xe0\x8eL\xec\xdc^V@'
p47
tp48
Rp49
ag10
(g14
S'K\x1c/\xd2Y_V@'
p50
tp51
Rp52
ag10
(g14
S'L\x1f\xeer\xe6]V@'
p53
tp54
Rp55
ag10
(g14
S'\xa7L\x086\xce_V@'
p56
tp57
Rp58
ag10
(g14
S'\xc2\x02]\xfdY\\V@'
p59
tp60
Rp61
ag10
(g14
S'\x87\x11\xc8\xb2h]V@'
p62
tp63
Rp64
ag10
(g14
S'\xfa()X/bV@'
p65
tp66
Rp67
ag10
(g14
S'\xee\xcbO\x02D_V@'
p68
tp69
Rp70
ag10
(g14
S'\xb0x\xe7Ub]V@'
p71
tp72
Rp73
ag10
(g14
S'z!\xb8N(_V@'
p74
tp75
Rp76
asS'target'
p77
(lp78
g10
(g14
S'e,\x83\x88\xc9\xaa,@'
p79
tp80
Rp81
ag10
(g14
S'i\x91\xd65\x07\xae-@'
p82
tp83
Rp84
ag10
(g14
S'L\xc5_\xa7bw+@'
p85
tp86
Rp87
ag10
(g14
S'\xa5&\x19\x10}?-@'
p88
tp89
Rp90
ag10
(g14
S'r\x8c\x8c \xf4\xad)@'
p91
tp92
Rp93
ag10
(g14
S'`O\xa5)\xf0\xfd)@'
p94
tp95
Rp96
ag10
(g14
S'\xa5\x9a\xea"VH*@'
p97
tp98
Rp99
ag10
(g14
S':\xa8\x02\xb0{3*@'
p100
tp101
Rp102
ag10
(g14
S'n&\xd7\x184\xdf+@'
p103
tp104
Rp105
ag10
(g14
S'\xf7\xf7\xd5\x1dY\xee(@'
p106
tp107
Rp108
ag10
(g14
S'\x9b\xb3\x9dwd=+@'
p109
tp110
Rp111
ag10
(g14
S'\x01\x1d\xfb8z6,@'
p112
tp113
Rp114
ag10
(g14
S'CV\x1a\xbb\xdf\x06)@'
p115
tp116
Rp117
ag10
(g14
S'\xd0\xc2\xe9?\xbe-*@'
p118
tp119
Rp120
ag10
(g14
S'\x07\xbd;/\xb0{+@'
p121
tp122
Rp123
ag10
(g14
S'\xe8Bo\xb5H\xcb-@'
p124
tp125
Rp126
ag10
(g14
S'\xde\x8b}P\x16k+@'
p127
tp128
Rp129
ag10
(g14
S'\xb0\x0eA=\xe5\xd8+@'
p130
tp131
Rp132
ag10
(g14
S'\xe2/\xab\x85\xc4>.@'
p133
tp134
Rp135
ag10
(g14
S'\x17z\xee>\x8b%*@'
p136
tp137
Rp138
asssss.