(dp0
S'../Data/sqlite_4.csv'
p1
(dp2
S'../Data/sqlite_36.csv'
p3
(dp4
F0.2
(dp5
S'abs_res'
p6
(dp7
S'bellwether'
p8
(lp9
cnumpy.core.multiarray
scalar
p10
(cnumpy
dtype
p11
(S'f8'
p12
I0
I1
tp13
Rp14
(I3
S'<'
p15
NNNI-1
I-1
I0
tp16
bS'j.$\xedq;?A'
p17
tp18
Rp19
ag10
(g14
S'z\x842z(9?A'
p20
tp21
Rp22
ag10
(g14
S'jJ\xc59\xec:?A'
p23
tp24
Rp25
ag10
(g14
S'N~\xb1$\xc6:?A'
p26
tp27
Rp28
ag10
(g14
S'W\x8d\x97\x8e\xa29?A'
p29
tp30
Rp31
ag10
(g14
S'\xf2\xee\xee\xcex9?A'
p32
tp33
Rp34
ag10
(g14
S'I\x8bl\xc7\x99:?A'
p35
tp36
Rp37
ag10
(g14
S'\xbb\x11\xca\xc8\xa09?A'
p38
tp39
Rp40
ag10
(g14
S'\x8f\xebQ\x18\xc4;?A'
p41
tp42
Rp43
ag10
(g14
S"%x0\xcf'9?A"
p44
tp45
Rp46
ag10
(g14
S'\x0b\x9d6\xf0\xe19?A'
p47
tp48
Rp49
ag10
(g14
S'\xa8\xaa\xaaj\xf79?A'
p50
tp51
Rp52
ag10
(g14
S'\x92\xed|?\xed9?A'
p53
tp54
Rp55
ag10
(g14
S'\x14\xa1\x8c\xbe\xd49?A'
p56
tp57
Rp58
ag10
(g14
S'v\xe7\xfb\t\x1b<?A'
p59
tp60
Rp61
ag10
(g14
S'\xe7\xfb\xa9\xf1#:?A'
p62
tp63
Rp64
ag10
(g14
S'4\xdd$\xa6^;?A'
p65
tp66
Rp67
ag10
(g14
S'~0O\x94\x809?A'
p68
tp69
Rp70
ag10
(g14
S'\x99\x18\x046\x10;?A'
p71
tp72
Rp73
ag10
(g14
S'\xa7p=\xaa\xc78?A'
p74
tp75
Rp76
asS'target'
p77
(lp78
g10
(g14
S'\x84\xebQ\xb8\x1e\x8dV@'
p79
tp80
Rp81
ag10
(g14
S'\xbd\xf5(\\\x8f\x9aV@'
p82
tp83
Rp84
ag10
(g14
S'.\x06\x81\x95C\xcbU@'
p85
tp86
Rp87
ag10
(g14
S'\xfa~j\xbct\xbfX@'
p88
tp89
Rp90
ag10
(g14
S'\x1b\xaeG\xe1z\xbcX@'
p91
tp92
Rp93
ag10
(g14
S'\xb9\xc8v\xbe\x9fJX@'
p94
tp95
Rp96
ag10
(g14
S'&Zd;\xdf\xdfX@'
p97
tp98
Rp99
ag10
(g14
S'\xb1G\xe1z\x14\xd6W@'
p100
tp101
Rp102
ag10
(g14
S'\xa1\x1a/\xdd$>Y@'
p103
tp104
Rp105
ag10
(g14
S'\x93n\x12\x83\xc0\xf2W@'
p106
tp107
Rp108
ag10
(g14
S'L5^\xbaI\x8cU@'
p109
tp110
Rp111
ag10
(g14
S'\x87\xebQ\xb8\x1e\xcdW@'
p112
tp113
Rp114
ag10
(g14
S'0\xb2\x9d\xef\xa7\xe6Z@'
p115
tp116
Rp117
ag10
(g14
S'\xa4\x1a/\xdd$>X@'
p118
tp119
Rp120
ag10
(g14
S'a9\xb4\xc8v\xf6U@'
p121
tp122
Rp123
ag10
(g14
S'\xa4C\x8bl\xe7kX@'
p124
tp125
Rp126
ag10
(g14
S'\x04\xd5x\xe9&\x8dW@'
p127
tp128
Rp129
ag10
(g14
S'\x8b\x95C\x8blKW@'
p130
tp131
Rp132
ag10
(g14
S"'\xdb\xf9~j\xacZ@"
p133
tp134
Rp135
ag10
(g14
S'\x92\xed|?5\xd6X@'
p136
tp137
Rp138
asssss.