(dp0
S'../Data/sqlite_9.csv'
p1
(dp2
S'../Data/sqlite_59.csv'
p3
(dp4
F0.1
(dp5
S'mmre'
p6
(dp7
S'bellwether'
p8
(lp9
cnumpy.core.multiarray
scalar
p10
(cnumpy
dtype
p11
(S'f8'
p12
I0
I1
tp13
Rp14
(I3
S'<'
p15
NNNI-1
I-1
I0
tp16
bS'\xd9\x8f\x08\x80\x1e,W@'
p17
tp18
Rp19
ag10
(g14
S'\x82\x002z\x10-W@'
p20
tp21
Rp22
ag10
(g14
S'\x08\xdf\xdd\xb5v-W@'
p23
tp24
Rp25
ag10
(g14
S'\xda\xe0\x95\xb2\r-W@'
p26
tp27
Rp28
ag10
(g14
S'rU(\xe2"-W@'
p29
tp30
Rp31
ag10
(g14
S'_\xfb\xe0~W-W@'
p32
tp33
Rp34
ag10
(g14
S'\x84\xb6\x8f\xd3R-W@'
p35
tp36
Rp37
ag10
(g14
S'\xd8YJ?\x9c-W@'
p38
tp39
Rp40
ag10
(g14
S'uW\x0b\xce\xc8,W@'
p41
tp42
Rp43
ag10
(g14
S'\x995\x95\x94n-W@'
p44
tp45
Rp46
ag10
(g14
S'\x0b@\xb4\x89i,W@'
p47
tp48
Rp49
ag10
(g14
S'f\xe5\xa0\xeaC-W@'
p50
tp51
Rp52
ag10
(g14
S'\x1c\xe58\xeb\x18.W@'
p53
tp54
Rp55
ag10
(g14
S'd\xa21r\x90,W@'
p56
tp57
Rp58
ag10
(g14
S'3\x8b%\xdf\x14-W@'
p59
tp60
Rp61
ag10
(g14
S'\xed\xf5\x8c\xeb^,W@'
p62
tp63
Rp64
ag10
(g14
S'\x8e\x14\xd8\x03\x00.W@'
p65
tp66
Rp67
ag10
(g14
S'\x0e\xbeV\xce\xc6,W@'
p68
tp69
Rp70
ag10
(g14
S'i\r\x01\x1a2,W@'
p71
tp72
Rp73
ag10
(g14
S'\x87_\x95DX-W@'
p74
tp75
Rp76
asS'target'
p77
(lp78
g10
(g14
S'\x89\x12\x08\x9a\x00\xd2&@'
p79
tp80
Rp81
ag10
(g14
S"5PB\xf3LA'@"
p82
tp83
Rp84
ag10
(g14
S'\xa2x\x10b\xd6\x1f%@'
p85
tp86
Rp87
ag10
(g14
S'D\x0e\x9f\xfa\r,(@'
p88
tp89
Rp90
ag10
(g14
S'\x0ej_\xc93\x9b(@'
p91
tp92
Rp93
ag10
(g14
S'\xa7u\x9b\xb3\t\x95%@'
p94
tp95
Rp96
ag10
(g14
S"\x99\xda\xefY\xce\x85'@"
p97
tp98
Rp99
ag10
(g14
S'\x9dp\xe2u\x945&@'
p100
tp101
Rp102
ag10
(g14
S'\x02\x8f\xee\x9d\x83a%@'
p103
tp104
Rp105
ag10
(g14
S'\xee\x8d&m=L%@'
p106
tp107
Rp108
ag10
(g14
S'\xb5\xc6\xcf,\x831&@'
p109
tp110
Rp111
ag10
(g14
S'Hx\xa1\xe50(#@'
p112
tp113
Rp114
ag10
(g14
S'<\xc5V\xf0\x16v$@'
p115
tp116
Rp117
ag10
(g14
S'p,L3@k$@'
p118
tp119
Rp120
ag10
(g14
S'.3\xb0\xb1\x14\xcf(@'
p121
tp122
Rp123
ag10
(g14
S'H\xc7\x8cG\xed,&@'
p124
tp125
Rp126
ag10
(g14
S"\x1cH\xf4{=*'@"
p127
tp128
Rp129
ag10
(g14
S'\xb0\xd3\x86O\x11\xca&@'
p130
tp131
Rp132
ag10
(g14
S'\x16\xb7T\xe6x\xa4%@'
p133
tp134
Rp135
ag10
(g14
S'>\xeb\x82\xe7\x08-$@'
p136
tp137
Rp138
asssss.