(dp0
S'../Data/sqlite_2.csv'
p1
(dp2
S'../Data/sqlite_90.csv'
p3
(dp4
F0.15
(dp5
S'mmre'
p6
(dp7
S'bellwether'
p8
(lp9
cnumpy.core.multiarray
scalar
p10
(cnumpy
dtype
p11
(S'f8'
p12
I0
I1
tp13
Rp14
(I3
S'<'
p15
NNNI-1
I-1
I0
tp16
bS'\xe5i\xd2\xdc\xecBX@'
p17
tp18
Rp19
ag10
(g14
S'\x83\xd3?w\xafAX@'
p20
tp21
Rp22
ag10
(g14
S'c9F\x8ftEX@'
p23
tp24
Rp25
ag10
(g14
S')\xba~\xdf\xdeFX@'
p26
tp27
Rp28
ag10
(g14
S'\x8f\xcd7D}BX@'
p29
tp30
Rp31
ag10
(g14
S'\xb3j\xf7\x93\x8bAX@'
p32
tp33
Rp34
ag10
(g14
S'\x9b\xd7}\x9c8EX@'
p35
tp36
Rp37
ag10
(g14
S'\x1c{\xd9E\x1eAX@'
p38
tp39
Rp40
ag10
(g14
S'\xdefH\xea6CX@'
p41
tp42
Rp43
ag10
(g14
S'\xc7I\xcd\x07VBX@'
p44
tp45
Rp46
ag10
(g14
S'\x1b\x1eX\xec9FX@'
p47
tp48
Rp49
ag10
(g14
S'\xb4\x1e\x0c\xd3\xc9AX@'
p50
tp51
Rp52
ag10
(g14
S'|+U\xdd\xc4BX@'
p53
tp54
Rp55
ag10
(g14
S'\x86\x9f\xb5\x01\x0eEX@'
p56
tp57
Rp58
ag10
(g14
S',\xa6\x0c\xf7\xa5BX@'
p59
tp60
Rp61
ag10
(g14
S'p*\x9d\x91uBX@'
p62
tp63
Rp64
ag10
(g14
S'>\xcbc_\\EX@'
p65
tp66
Rp67
ag10
(g14
S'\x8b\xda\xd4M[?X@'
p68
tp69
Rp70
ag10
(g14
S'\t\x03Ez2BX@'
p71
tp72
Rp73
ag10
(g14
S'o\xdeeb\xb2FX@'
p74
tp75
Rp76
asS'target'
p77
(lp78
g10
(g14
S'\xd2\x9cF)#\x98A@'
p79
tp80
Rp81
ag10
(g14
S'\xd9\xcb_\t\x84\x04A@'
p82
tp83
Rp84
ag10
(g14
S'\xb3Rw\xff\xb9\xd4A@'
p85
tp86
Rp87
ag10
(g14
S'yL\x04\xd7FKA@'
p88
tp89
Rp90
ag10
(g14
S'D\x86_\xd7\r\x01A@'
p91
tp92
Rp93
ag10
(g14
S'=!\xe1\x11a\xc8A@'
p94
tp95
Rp96
ag10
(g14
S'(\x88R<a\xbfA@'
p97
tp98
Rp99
ag10
(g14
S'A\xd3\x18\x0f|\xd1@@'
p100
tp101
Rp102
ag10
(g14
S'\xe2\x89\xe6J*\x00B@'
p103
tp104
Rp105
ag10
(g14
S'\xe9\x92\xdc\xf5\xc2vB@'
p106
tp107
Rp108
ag10
(g14
S'\xc8u\xe9O\x86\xd5@@'
p109
tp110
Rp111
ag10
(g14
S'\xf4I\x81\x7f\x8c*B@'
p112
tp113
Rp114
ag10
(g14
S'\xdeR\xd4\xf7<\xb3@@'
p115
tp116
Rp117
ag10
(g14
S'H\xcc`\xcfD=A@'
p118
tp119
Rp120
ag10
(g14
S'\x14d\xe4\xd6\n\x05A@'
p121
tp122
Rp123
ag10
(g14
S"\xe2'\xd1\xc4#\xe0A@"
p124
tp125
Rp126
ag10
(g14
S'\xeb\x85y\x99\nJC@'
p127
tp128
Rp129
ag10
(g14
S'\xed\x9b\xa7\xd8\xb3\xcaB@'
p130
tp131
Rp132
ag10
(g14
S'\xff!\x14\xd5EyA@'
p133
tp134
Rp135
ag10
(g14
S'WLi\xa6\\iA@'
p136
tp137
Rp138
asssss.