(dp0
S'../Data/sqlite_80.csv'
p1
(dp2
S'../Data/sqlite_88.csv'
p3
(dp4
F0.2
(dp5
S'abs_res'
p6
(dp7
S'bellwether'
p8
(lp9
cnumpy.core.multiarray
scalar
p10
(cnumpy
dtype
p11
(S'f8'
p12
I0
I1
tp13
Rp14
(I3
S'<'
p15
NNNI-1
I-1
I0
tp16
bS'\x9e\xd3\x06\xc6c2aA'
p17
tp18
Rp19
ag10
(g14
S'\xddz\x14\xfa\x00NaA'
p20
tp21
Rp22
ag10
(g14
S'<\xe1z\xf8\x88OaA'
p23
tp24
Rp25
ag10
(g14
S'yN\x1b\x80\xe63aA'
p26
tp27
Rp28
ag10
(g14
S'EDD\xf0\xbf/aA'
p29
tp30
Rp31
ag10
(g14
S'\x0f\x11\x11\x1d>CaA'
p32
tp33
Rp34
ag10
(g14
S'\x08:m\x08\xd9\x1daA'
p35
tp36
Rp37
ag10
(g14
S'\xcb\xcc\xcc\x10,1aA'
p38
tp39
Rp40
ag10
(g14
S'\x89\xc2\xf5$\xbe?aA'
p41
tp42
Rp43
ag10
(g14
S'\xd3\xa3p\x1d!+aA'
p44
tp45
Rp46
ag10
(g14
S'\t\xd7\xa3\xa4<?aA'
p47
tp48
Rp49
ag10
(g14
S'\xb4\x81N\xeb-,aA'
p50
tp51
Rp52
ag10
(g14
S'_ffn\x013aA'
p53
tp54
Rp55
ag10
(g14
S'\xabG\xe1\x92\x84:aA'
p56
tp57
Rp58
ag10
(g14
S'\xe3z\x14\xbeQ%aA'
p59
tp60
Rp61
ag10
(g14
S'(\\\x8f\x16\x9d3aA'
p62
tp63
Rp64
ag10
(g14
S'\x85N\x1b\xccnjaA'
p65
tp66
Rp67
ag10
(g14
S'\xc5X\xf2[\x12[aA'
p68
tp69
Rp70
ag10
(g14
S'O\x1b\xe8\xd4\xc4&aA'
p71
tp72
Rp73
ag10
(g14
S'\x07\xd7\xa3t?:aA'
p74
tp75
Rp76
asS'target'
p77
(lp78
g10
(g14
S'r=\n\x97\xd6\xce0A'
p79
tp80
Rp81
ag10
(g14
S'p=\n\x17\x9a\xcf1A'
p82
tp83
Rp84
ag10
(g14
S'\x89\xc2\xf5h\x11\xa87A'
p85
tp86
Rp87
ag10
(g14
S'o=\n\xd7\x8a\xbd(A'
p88
tp89
Rp90
ag10
(g14
S'\xf5(\\\x8f\x8d\x143A'
p91
tp92
Rp93
ag10
(g14
S'\xcc\xcc\xccL5\xe07A'
p94
tp95
Rp96
ag10
(g14
S'2333E\x8a,A'
p97
tp98
Rp99
ag10
(g14
S'\xa4p=\x8a\x1a05A'
p100
tp101
Rp102
ag10
(g14
S'\xaaG\xe1\xfa\xeb\xe7.A'
p103
tp104
Rp105
ag10
(g14
S'\xb9\x1e\x85k~\xd30A'
p106
tp107
Rp108
ag10
(g14
S'\xa5p=\x8a\xef\xa22A'
p109
tp110
Rp111
ag10
(g14
S'Q\xb8\x1eEM\x8c6A'
p112
tp113
Rp114
ag10
(g14
S'\xd9z\x14.\x7f$?A'
p115
tp116
Rp117
ag10
(g14
S'P\xb8\x1eEm.8A'
p118
tp119
Rp120
ag10
(g14
S'\x8f\xc2\xf5\xe8>\x121A'
p121
tp122
Rp123
ag10
(g14
S'\xc2\xf5(\\\xc2H2A'
p124
tp125
Rp126
ag10
(g14
S'\x94\xc2\xf5(=\x1d>A'
p127
tp128
Rp129
ag10
(g14
S'l=\n\xd7\xdcP5A'
p130
tp131
Rp132
ag10
(g14
S'2333\xc8!6A'
p133
tp134
Rp135
ag10
(g14
S'\xce\xcc\xcc\xcc\xa3\x881A'
p136
tp137
Rp138
asssss.