(dp0
S'../Data/sqlite_43.csv'
p1
(dp2
S'../Data/sqlite_5.csv'
p3
(dp4
F0.25
(dp5
S'abs_res'
p6
(dp7
S'bellwether'
p8
(lp9
cnumpy.core.multiarray
scalar
p10
(cnumpy
dtype
p11
(S'f8'
p12
I0
I1
tp13
Rp14
(I3
S'<'
p15
NNNI-1
I-1
I0
tp16
bS',\xdb\xf9\xfe:h<A'
p17
tp18
Rp19
ag10
(g14
S'bW\x80\x9c\x9dh<A'
p20
tp21
Rp22
ag10
(g14
S'\xf4Q\xb8\xdeIg<A'
p23
tp24
Rp25
ag10
(g14
S'\x04G(\x83\xach<A'
p26
tp27
Rp28
ag10
(g14
S'\x8b\xc0\xca\xc1\x85g<A'
p29
tp30
Rp31
ag10
(g14
S'\x01\x81\x95c/h<A'
p32
tp33
Rp34
ag10
(g14
S'KS*nag<A'
p35
tp36
Rp37
ag10
(g14
S"'\x85\xeb\xd1bg<A"
p38
tp39
Rp40
ag10
(g14
S'~\x05\xc8\xfd\xdfg<A'
p41
tp42
Rp43
ag10
(g14
S'\xf0\x19v\xe5\xf9h<A'
p44
tp45
Rp46
ag10
(g14
S'\xc1I\x0c\x82Zh<A'
p47
tp48
Rp49
ag10
(g14
S'\xfb\xd2M\x82\xdfh<A'
p50
tp51
Rp52
ag10
(g14
S'\x03\x8c%\xdf\xcff<A'
p53
tp54
Rp55
ag10
(g14
S'\xdf\x96\xb5zeg<A'
p56
tp57
Rp58
ag10
(g14
S'x.$M\xdef<A'
p59
tp60
Rp61
ag10
(g14
S'\xfb~j\xdc\xa1h<A'
p62
tp63
Rp64
ag10
(g14
S'\xe31\xc1\xa3\xeeg<A'
p65
tp66
Rp67
ag10
(g14
S'\xeaB\xd2\xd45h<A'
p68
tp69
Rp70
ag10
(g14
S'\x984\xa5\xc28g<A'
p71
tp72
Rp73
ag10
(g14
S'\x93\xde\x965\xd1i<A'
p74
tp75
Rp76
asS'target'
p77
(lp78
g10
(g14
S'I5^\xbaI\x04V@'
p79
tp80
Rp81
ag10
(g14
S' \x85\xebQ\xb8\xb6Z@'
p82
tp83
Rp84
ag10
(g14
S'\xd5O\x8d\x97n:W@'
p85
tp86
Rp87
ag10
(g14
S'\xb6\xf3\xfd\xd4x\x19Y@'
p88
tp89
Rp90
ag10
(g14
S'}\x95C\x8bl\xd3X@'
p91
tp92
Rp93
ag10
(g14
S'^\x8f\xc2\xf5(\xd4X@'
p94
tp95
Rp96
ag10
(g14
S'\x9ep=\n\xd7\xdfZ@'
p97
tp98
Rp99
ag10
(g14
S'x?5^\xba\x91]@'
p100
tp101
Rp102
ag10
(g14
S'\xa6p=\n\xd7\xcbW@'
p103
tp104
Rp105
ag10
(g14
S'\xfa~j\xbctsY@'
p106
tp107
Rp108
ag10
(g14
S'\xb5I\x0c\x02+\x97\\@'
p109
tp110
Rp111
ag10
(g14
S'\x91\xc2\xf5(\\\xb7Y@'
p112
tp113
Rp114
ag10
(g14
S'\xdc"\xdb\xf9~\xb6V@'
p115
tp116
Rp117
ag10
(g14
S'\x99n\x12\x83\xc0\xa2X@'
p118
tp119
Rp120
ag10
(g14
S'\x8e\xc2\xf5(\\\x07Z@'
p121
tp122
Rp123
ag10
(g14
S'5\xb4\xc8v\xbe/Z@'
p124
tp125
Rp126
ag10
(g14
S'\x94C\x8bl\xe7{\\@'
p127
tp128
Rp129
ag10
(g14
S'\xce\xa1E\xb6\xf3Y[@'
p130
tp131
Rp132
ag10
(g14
S'\xac\x1a/\xdd$\xae[@'
p133
tp134
Rp135
ag10
(g14
S'\x86A`\xe5\xd0JZ@'
p136
tp137
Rp138
asssss.