(dp0
S'../Data/sqlite_71.csv'
p1
(dp2
S'../Data/sqlite_44.csv'
p3
(dp4
F0.2
(dp5
S'abs_res'
p6
(dp7
S'bellwether'
p8
(lp9
cnumpy.core.multiarray
scalar
p10
(cnumpy
dtype
p11
(S'f8'
p12
I0
I1
tp13
Rp14
(I3
S'<'
p15
NNNI-1
I-1
I0
tp16
bS'W\x8d\x97\xaa\x04_kA'
p17
tp18
Rp19
ag10
(g14
S'w=\n\x93t[kA'
p20
tp21
Rp22
ag10
(g14
S'\x02\x81\x95\x1fdZkA'
p23
tp24
Rp25
ag10
(g14
S'\x00\xaa\xf16\x8cakA'
p26
tp27
Rp28
ag10
(g14
S'\n\xac\x1c\x16\xf9hkA'
p29
tp30
Rp31
ag10
(g14
S'\x8e\xcf\xb0oo]kA'
p32
tp33
Rp34
ag10
(g14
S'C\x89Al\x0cbkA'
p35
tp36
Rp37
ag10
(g14
S'\\d;\x7f\xa6ZkA'
p38
tp39
Rp40
ag10
(g14
S'\xb3\xf3\xfd\x18\xffikA'
p41
tp42
Rp43
ag10
(g14
S'\xb0V\xc7h\xe5ckA'
p44
tp45
Rp46
ag10
(g14
S'\x88\xa4)Q\xe5ikA'
p47
tp48
Rp49
ag10
(g14
S'o\xa0\xd3FY`kA'
p50
tp51
Rp52
ag10
(g14
S'\xf8\xa9\xf1>\x07skA'
p53
tp54
Rp55
ag10
(g14
S'!Zd\x07\x1cikA'
p56
tp57
Rp58
ag10
(g14
S'p\x12\x83\x98\x16bkA'
p59
tp60
Rp61
ag10
(g14
S'\xbbI\x0c\x1a\x04ckA'
p62
tp63
Rp64
ag10
(g14
S'!Zd3\xc2\\kA'
p65
tp66
Rp67
ag10
(g14
S'\xf2`\x9e\xf0\xc5pkA'
p68
tp69
Rp70
ag10
(g14
S'\x11\xaeG\x89udkA'
p71
tp72
Rp73
ag10
(g14
S'E\xdfO}\xc9akA'
p74
tp75
Rp76
asS'target'
p77
(lp78
g10
(g14
S'\xef\xd2Mb\x10\x18N@'
p79
tp80
Rp81
ag10
(g14
S'v=\n\xd7\xa3dP@'
p82
tp83
Rp84
ag10
(g14
S'n\x12\x83\xc0\xca\tP@'
p85
tp86
Rp87
ag10
(g14
S'[\xbct\x93\x18\xb4J@'
p88
tp89
Rp90
ag10
(g14
S'mffff\xd6N@'
p91
tp92
Rp93
ag10
(g14
S'\xd6\xce\xf7S\xe3\xd5Q@'
p94
tp95
Rp96
ag10
(g14
S'h\x91\xed|?\xb1Q@'
p97
tp98
Rp99
ag10
(g14
S'\xeeQ\xb8\x1e\x85CP@'
p100
tp101
Rp102
ag10
(g14
S'\x81\x95C\x8bl\xd7M@'
p103
tp104
Rp105
ag10
(g14
S'\x06\xac\x1cZd[M@'
p106
tp107
Rp108
ag10
(g14
S'\xbet\x93\x18\x04\x06P@'
p109
tp110
Rp111
ag10
(g14
S'j=\n\xd7\xa3XO@'
p112
tp113
Rp114
ag10
(g14
S'\xe1\xd0"\xdb\xf9:Q@'
p115
tp116
Rp117
ag10
(g14
S'\xcc"\xdb\xf9~\xfaN@'
p118
tp119
Rp120
ag10
(g14
S'b\xbaI\x0c\x02;M@'
p121
tp122
Rp123
ag10
(g14
S'\x88\x18\x04V\x0e-O@'
p124
tp125
Rp126
ag10
(g14
S'u=\n\xd7\xa3\xc0R@'
p127
tp128
Rp129
ag10
(g14
S'\xf7~j\xbct\xcbR@'
p130
tp131
Rp132
ag10
(g14
S'%3333#L@'
p133
tp134
Rp135
ag10
(g14
S'a\x0e-\xb2\x9d\x7fJ@'
p136
tp137
Rp138
asssss.