(dp0
S'../Data/sqlite_57.csv'
p1
(dp2
S'../Data/sqlite_5.csv'
p3
(dp4
F0.4
(dp5
S'abs_res'
p6
(dp7
S'bellwether'
p8
(lp9
cnumpy.core.multiarray
scalar
p10
(cnumpy
dtype
p11
(S'f8'
p12
I0
I1
tp13
Rp14
(I3
S'<'
p15
NNNI-1
I-1
I0
tp16
bS'Ib\x10\xb0\xde{aA'
p17
tp18
Rp19
ag10
(g14
S'\x1c\xb0r\x18\x9cxaA'
p20
tp21
Rp22
ag10
(g14
S'd\x10X\x9d\xbbbaA'
p23
tp24
Rp25
ag10
(g14
S'\x17/\xdd\xb8x{aA'
p26
tp27
Rp28
ag10
(g14
S'\xde$\x06\xa10qaA'
p29
tp30
Rp31
ag10
(g14
S'\xbbrh\r,vaA'
p32
tp33
Rp34
ag10
(g14
S'\x0f-\xb2i:haA'
p35
tp36
Rp37
ag10
(g14
S'Vd;k~saA'
p38
tp39
Rp40
ag10
(g14
S'#\xdb\xf9>\xf6waA'
p41
tp42
Rp43
ag10
(g14
S'\\\x8f\xc2\xa9MwaA'
p44
tp45
Rp46
ag10
(g14
S'~?5z\x88saA'
p47
tp48
Rp49
ag10
(g14
S'\xa4p=F2paA'
p50
tp51
Rp52
ag10
(g14
S'\x9d\xef\xa7\x06>uaA'
p53
tp54
Rp55
ag10
(g14
S'\x9e\xc4 \xf4\xb9zaA'
p56
tp57
Rp58
ag10
(g14
S'A\x8bl\xdb\xaf}aA'
p59
tp60
Rp61
ag10
(g14
S'@5^j\xbbpaA'
p62
tp63
Rp64
ag10
(g14
S'\x04V\x0e\xa1)\x81aA'
p65
tp66
Rp67
ag10
(g14
S'b\xe5\xd0\x86\xe1xaA'
p68
tp69
Rp70
ag10
(g14
S'?5^n\x1f\x7faA'
p71
tp72
Rp73
ag10
(g14
S'\xb3\xc8v\x8aVoaA'
p74
tp75
Rp76
asS'target'
p77
(lp78
g10
(g14
S'\x87\x18\x04V\x0e\xc5T@'
p79
tp80
Rp81
ag10
(g14
S'\xec|?5^\x06S@'
p82
tp83
Rp84
ag10
(g14
S'\xf9*\x87\x16\xd9\x8aU@'
p85
tp86
Rp87
ag10
(g14
S'\xcfMb\x10X\xd9T@'
p88
tp89
Rp90
ag10
(g14
S'\xdb\xfb\xa9\xf1\xd2\xe5W@'
p91
tp92
Rp93
ag10
(g14
S'\xdd\xce\xf7S\xe3QT@'
p94
tp95
Rp96
ag10
(g14
S'\x08\xaeG\xe1zTS@'
p97
tp98
Rp99
ag10
(g14
S'z?5^\xba\xa5U@'
p100
tp101
Rp102
ag10
(g14
S'\x96\xc2\xf5(\\\xbbS@'
p103
tp104
Rp105
ag10
(g14
S'\xa2\x99\x99\x99\x99\x85V@'
p106
tp107
Rp108
ag10
(g14
S'\xff\xd4x\xe9&\x95T@'
p109
tp110
Rp111
ag10
(g14
S'\x93\xebQ\xb8\x1e\xd5S@'
p112
tp113
Rp114
ag10
(g14
S'Z\xe3\xa5\x9b\xc4\xb4S@'
p115
tp116
Rp117
ag10
(g14
S'\xb2\x9d\xef\xa7\xc6SU@'
p118
tp119
Rp120
ag10
(g14
S'\xdaO\x8d\x97n&U@'
p121
tp122
Rp123
ag10
(g14
S'\xb8\x9f\x1a/\xdd\xf0T@'
p124
tp125
Rp126
ag10
(g14
S'mffff\x9aS@'
p127
tp128
Rp129
ag10
(g14
S'=^\xbaI\x0cFS@'
p130
tp131
Rp132
ag10
(g14
S'\x84\xebQ\xb8\x1e\xf5S@'
p133
tp134
Rp135
ag10
(g14
S'\x82\x14\xaeG\xe1jR@'
p136
tp137
Rp138
asssss.