(dp0
S'../Data/sqlite_2.csv'
p1
(dp2
S'../Data/sqlite_78.csv'
p3
(dp4
F0.35
(dp5
S'mmre'
p6
(dp7
S'bellwether'
p8
(lp9
cnumpy.core.multiarray
scalar
p10
(cnumpy
dtype
p11
(S'f8'
p12
I0
I1
tp13
Rp14
(I3
S'<'
p15
NNNI-1
I-1
I0
tp16
bS'\x8b\x94FmRXN@'
p17
tp18
Rp19
ag10
(g14
S'\x0cv\x8e\xd14wN@'
p20
tp21
Rp22
ag10
(g14
S'=\xd9o\xd7\xfekN@'
p23
tp24
Rp25
ag10
(g14
S'EU<\xf7\xe4lN@'
p26
tp27
Rp28
ag10
(g14
S'J\xefZu{LN@'
p29
tp30
Rp31
ag10
(g14
S'\xb6=\xed\xfe\x83_N@'
p32
tp33
Rp34
ag10
(g14
S'\xb9?\x99\xcd3hN@'
p35
tp36
Rp37
ag10
(g14
S'\x10\x9bj\xb6\xd4gN@'
p38
tp39
Rp40
ag10
(g14
S'\xc7\x95\xae\n\xb6\\N@'
p41
tp42
Rp43
ag10
(g14
S'Q\x1d\xb8\xaf\xa4QN@'
p44
tp45
Rp46
ag10
(g14
S'\r\xa5z\xf2_PN@'
p47
tp48
Rp49
ag10
(g14
S'l\n\x82\x172ON@'
p50
tp51
Rp52
ag10
(g14
S'%\xf5T\xef\xd2^N@'
p53
tp54
Rp55
ag10
(g14
S'\xf6\xe8+\xd46`N@'
p56
tp57
Rp58
ag10
(g14
S',\xf8$\x08\x8acN@'
p59
tp60
Rp61
ag10
(g14
S']sh\x90\x88zN@'
p62
tp63
Rp64
ag10
(g14
S'\xd4\x81\xda3\xe6QN@'
p65
tp66
Rp67
ag10
(g14
S'd\xed6P&cN@'
p68
tp69
Rp70
ag10
(g14
S' 7\xb4\x1a\x81jN@'
p71
tp72
Rp73
ag10
(g14
S"'gPV\xdcjN@"
p74
tp75
Rp76
asS'target'
p77
(lp78
g10
(g14
S'@\x98\x17*~\x9d4@'
p79
tp80
Rp81
ag10
(g14
S'\xd2\xb7\xc1\xd1\xf7\x8f2@'
p82
tp83
Rp84
ag10
(g14
S'\x80\xe0\xc7\xf0114@'
p85
tp86
Rp87
ag10
(g14
S'\xa0A\xeaJ\xc9\xca2@'
p88
tp89
Rp90
ag10
(g14
S'Jew\x9e2\\3@'
p91
tp92
Rp93
ag10
(g14
S'>\r4^>\x063@'
p94
tp95
Rp96
ag10
(g14
S'\x04\xb8\xb0\x9a\xc3U3@'
p97
tp98
Rp99
ag10
(g14
S'g\xd0RvF\xb52@'
p100
tp101
Rp102
ag10
(g14
S'\x0cu{W\xc9~3@'
p103
tp104
Rp105
ag10
(g14
S'\xd9QT\xa8\x80\xb94@'
p106
tp107
Rp108
ag10
(g14
S'K >d}\xa42@'
p109
tp110
Rp111
ag10
(g14
S'\xc0\xdcR)\xfa64@'
p112
tp113
Rp114
ag10
(g14
S'\xac\xeay\xb4\x9cO4@'
p115
tp116
Rp117
ag10
(g14
S'\x82\xe8\xb9\xe3\xbe\xa44@'
p118
tp119
Rp120
ag10
(g14
S'\x1a\x08I\x8f\xc4\xb93@'
p121
tp122
Rp123
ag10
(g14
S'\xb00\x85_P\xb83@'
p124
tp125
Rp126
ag10
(g14
S'\xaaQ,.=(5@'
p127
tp128
Rp129
ag10
(g14
S"\xb0'\xc9fu\x984@"
p130
tp131
Rp132
ag10
(g14
S'k\x95\xa5\x13\xd2\xb12@'
p133
tp134
Rp135
ag10
(g14
S'\xf4\xed\xfd!\xf9\xb72@'
p136
tp137
Rp138
asssss.