(dp0
S'../Data/sqlite_14.csv'
p1
(dp2
S'../Data/sqlite_87.csv'
p3
(dp4
F0.05
(dp5
S'mmre'
p6
(dp7
S'bellwether'
p8
(lp9
cnumpy.core.multiarray
scalar
p10
(cnumpy
dtype
p11
(S'f8'
p12
I0
I1
tp13
Rp14
(I3
S'<'
p15
NNNI-1
I-1
I0
tp16
bS'f\xbf]\x93\xceML@'
p17
tp18
Rp19
ag10
(g14
S',\x12\x9ae\x1fRL@'
p20
tp21
Rp22
ag10
(g14
S"j\xc2}'\xe3EL@"
p23
tp24
Rp25
ag10
(g14
S'"\xc1u\xd0\x1d[L@'
p26
tp27
Rp28
ag10
(g14
S'\xc3\xf7\xe2\x8b:VL@'
p29
tp30
Rp31
ag10
(g14
S'!\xf5\x0c"\x03JL@'
p32
tp33
Rp34
ag10
(g14
S'\x17\xaf\xb3b\xbecL@'
p35
tp36
Rp37
ag10
(g14
S'h\xd9\x19\xd4^iL@'
p38
tp39
Rp40
ag10
(g14
S'\xacC&KZPL@'
p41
tp42
Rp43
ag10
(g14
S'\x83\xf1+]JIL@'
p44
tp45
Rp46
ag10
(g14
S'[;\x99\x98GaL@'
p47
tp48
Rp49
ag10
(g14
S'\x1b\xc7\x8fv\xbeqL@'
p50
tp51
Rp52
ag10
(g14
S'\xf6\r\x9b1^YL@'
p53
tp54
Rp55
ag10
(g14
S'\xc7\x11+\x15mgL@'
p56
tp57
Rp58
ag10
(g14
S'\xc4\xb7\xc8\x84\xccYL@'
p59
tp60
Rp61
ag10
(g14
S'!\xe0B!\xb4XL@'
p62
tp63
Rp64
ag10
(g14
S'\xf5D.\x17\x1dML@'
p65
tp66
Rp67
ag10
(g14
S'C\xee\xec/\xfe^L@'
p68
tp69
Rp70
ag10
(g14
S'\xc0\x8c\x16\tLjL@'
p71
tp72
Rp73
ag10
(g14
S'\x0f\xc6\x12\x1b@dL@'
p74
tp75
Rp76
asS'target'
p77
(lp78
g10
(g14
S'\r\x90\x88\xd4n\x1aE@'
p79
tp80
Rp81
ag10
(g14
S'6\x90Z\x11AIP@'
p82
tp83
Rp84
ag10
(g14
S'3\x9e\xd2\x97Z)O@'
p85
tp86
Rp87
ag10
(g14
S's\xbe\x05PpiT@'
p88
tp89
Rp90
ag10
(g14
S'C\x14\xaa\xfd\x07-Q@'
p91
tp92
Rp93
ag10
(g14
S'\xaaV\xf1kD\xaeQ@'
p94
tp95
Rp96
ag10
(g14
S'$(\xd0l\xab\x12a@'
p97
tp98
Rp99
ag10
(g14
S'p\x83P>p\x87Z@'
p100
tp101
Rp102
ag10
(g14
S'\xe7\xa6B\xb26\x93S@'
p103
tp104
Rp105
ag10
(g14
S'\xf66\xad\x9e7W\\@'
p106
tp107
Rp108
ag10
(g14
S'E!<\xf2\xda\xdfS@'
p109
tp110
Rp111
ag10
(g14
S'6\xbc\x0c%g\xe1Q@'
p112
tp113
Rp114
ag10
(g14
S'Y\x06*\xde\xad~Q@'
p115
tp116
Rp117
ag10
(g14
S'\xe4a\x18d\xc7\x0fN@'
p118
tp119
Rp120
ag10
(g14
S'\x93\x1a\x19\x07\xb7\xd6R@'
p121
tp122
Rp123
ag10
(g14
S'\xd3]s\xbd%\xfcS@'
p124
tp125
Rp126
ag10
(g14
S'i\xd8\xbbu\x8f\xedS@'
p127
tp128
Rp129
ag10
(g14
S'\xa6\xf7\xb7T\\PZ@'
p130
tp131
Rp132
ag10
(g14
S'\x99n"S\xd1\x7fU@'
p133
tp134
Rp135
ag10
(g14
S'u\r\xbf\xb4\xc4\x99I@'
p136
tp137
Rp138
asssss.