(dp0
S'../Data/sqlite_33.csv'
p1
(dp2
S'../Data/sqlite_76.csv'
p3
(dp4
F0.2
(dp5
S'mmre'
p6
(dp7
S'bellwether'
p8
(lp9
cnumpy.core.multiarray
scalar
p10
(cnumpy
dtype
p11
(S'f8'
p12
I0
I1
tp13
Rp14
(I3
S'<'
p15
NNNI-1
I-1
I0
tp16
bS'\x03\xeeu\x10\xc4TT@'
p17
tp18
Rp19
ag10
(g14
S':A\xbb\xe3\x9f[T@'
p20
tp21
Rp22
ag10
(g14
S'\xd4\x04\xe9\x87\xffWT@'
p23
tp24
Rp25
ag10
(g14
S'\xa6k\xee\xb9\xc2YT@'
p26
tp27
Rp28
ag10
(g14
S'\x92pWav\\T@'
p29
tp30
Rp31
ag10
(g14
S'\xc5\xaa\x98\x15~YT@'
p32
tp33
Rp34
ag10
(g14
S'\x94\xe1\xfe\xd9}YT@'
p35
tp36
Rp37
ag10
(g14
S'`j\xf2\xec\xa0XT@'
p38
tp39
Rp40
ag10
(g14
S'\x8c\x03\xf3\xfa.UT@'
p41
tp42
Rp43
ag10
(g14
S'F/hD\xdbYT@'
p44
tp45
Rp46
ag10
(g14
S'\x82\x94o#\xc6VT@'
p47
tp48
Rp49
ag10
(g14
S'\xa0I\xfd\xc7\xfdUT@'
p50
tp51
Rp52
ag10
(g14
S'n\xc5y\xdaKXT@'
p53
tp54
Rp55
ag10
(g14
S'`Gu\x94aWT@'
p56
tp57
Rp58
ag10
(g14
S'4A\x16/\xd3\\T@'
p59
tp60
Rp61
ag10
(g14
S'\\\xf6\xa4\x84\x13WT@'
p62
tp63
Rp64
ag10
(g14
S'2axL\xffVT@'
p65
tp66
Rp67
ag10
(g14
S'H\x8a\x16\x92\x0bST@'
p68
tp69
Rp70
ag10
(g14
S'\xe6\x8f)\x84\xe0ZT@'
p71
tp72
Rp73
ag10
(g14
S'V\xa4i\xbf\x8eZT@'
p74
tp75
Rp76
asS'target'
p77
(lp78
g10
(g14
S'\x8c\x88/Y\\^1@'
p79
tp80
Rp81
ag10
(g14
S'\xba\xaaCF\xe8~1@'
p82
tp83
Rp84
ag10
(g14
S'\xb2\xfc\xf8\xa3.\xf40@'
p85
tp86
Rp87
ag10
(g14
S'\xd6\xc5H\xf9-\xba0@'
p88
tp89
Rp90
ag10
(g14
S'\xbe9\r<\xe6\xa41@'
p91
tp92
Rp93
ag10
(g14
S'd\xc7\x85Z]A1@'
p94
tp95
Rp96
ag10
(g14
S'/\x16\x9cDS\xba0@'
p97
tp98
Rp99
ag10
(g14
S'\xa6\x8e\xc32\xc9,1@'
p100
tp101
Rp102
ag10
(g14
S'\x7f\x94\xf1\x97a\xde1@'
p103
tp104
Rp105
ag10
(g14
S'D9\xbe\xf7o+0@'
p106
tp107
Rp108
ag10
(g14
S'\xda~\xbc\x81c\xd91@'
p109
tp110
Rp111
ag10
(g14
S'\xf3\xfdW\x17\x1a\xe70@'
p112
tp113
Rp114
ag10
(g14
S'X\xee\x12xGt0@'
p115
tp116
Rp117
ag10
(g14
S'\xcap\x1b`\x94\x880@'
p118
tp119
Rp120
ag10
(g14
S'7}(n\x90l0@'
p121
tp122
Rp123
ag10
(g14
S'Rh>Eq\xe21@'
p124
tp125
Rp126
ag10
(g14
S'\xc8\xbb\xe7\xc5\x92,3@'
p127
tp128
Rp129
ag10
(g14
S'\x10\x9a\n\x92\xd1R2@'
p130
tp131
Rp132
ag10
(g14
S'\xc6\x1d9\x04{\xf00@'
p133
tp134
Rp135
ag10
(g14
S'^\xed"X\xcaK0@'
p136
tp137
Rp138
asssss.