(dp0
S'../Data/sqlite_69.csv'
p1
(dp2
S'../Data/sqlite_85.csv'
p3
(dp4
F0.35
(dp5
S'mmre'
p6
(dp7
S'bellwether'
p8
(lp9
cnumpy.core.multiarray
scalar
p10
(cnumpy
dtype
p11
(S'f8'
p12
I0
I1
tp13
Rp14
(I3
S'<'
p15
NNNI-1
I-1
I0
tp16
bS'J\xaa\xc6M\x8cXX@'
p17
tp18
Rp19
ag10
(g14
S'\x9d\xb8tjAXX@'
p20
tp21
Rp22
ag10
(g14
S'\xa2qi\x8fS\\X@'
p23
tp24
Rp25
ag10
(g14
S"Bi'\xb0\xcaVX@"
p26
tp27
Rp28
ag10
(g14
S'\xff\x8f\xea\x05ZYX@'
p29
tp30
Rp31
ag10
(g14
S'\x00\x06\xf3\xc2TYX@'
p32
tp33
Rp34
ag10
(g14
S'\xeaOv\xba?QX@'
p35
tp36
Rp37
ag10
(g14
S' Ioa\xcbNX@'
p38
tp39
Rp40
ag10
(g14
S'\x96-U\xdf%TX@'
p41
tp42
Rp43
ag10
(g14
S'\xbe\xf9\x13e`UX@'
p44
tp45
Rp46
ag10
(g14
S'f\xfc&g\xafRX@'
p47
tp48
Rp49
ag10
(g14
S'O\x9c\xeb\xc6\xf7SX@'
p50
tp51
Rp52
ag10
(g14
S'\xcb\xa2\x13\xcf\x18UX@'
p53
tp54
Rp55
ag10
(g14
S'\x1c\xd9\x1eRXXX@'
p56
tp57
Rp58
ag10
(g14
S'%\xfcK\xb9\x03_X@'
p59
tp60
Rp61
ag10
(g14
S'\x81]\x9d\xad\x13XX@'
p62
tp63
Rp64
ag10
(g14
S',O}\xc3\x90SX@'
p65
tp66
Rp67
ag10
(g14
S' \xde/\xc3\xd3SX@'
p68
tp69
Rp70
ag10
(g14
S'\xe0]\xa4\xba\xf2SX@'
p71
tp72
Rp73
ag10
(g14
S'\xef\xd8\xeb\xc7\x1dVX@'
p74
tp75
Rp76
asS'target'
p77
(lp78
g10
(g14
S'\x16w\x1e\x92\xc8sR@'
p79
tp80
Rp81
ag10
(g14
S'vj\xe8J?\x0bR@'
p82
tp83
Rp84
ag10
(g14
S'\xa3%\\\xdav\x89Q@'
p85
tp86
Rp87
ag10
(g14
S'e\xf9\xbc\xc9\xe4\xdaT@'
p88
tp89
Rp90
ag10
(g14
S'\xb8!\x11n\xcfwS@'
p91
tp92
Rp93
ag10
(g14
S'\x93\xd9*\xd7HWS@'
p94
tp95
Rp96
ag10
(g14
S'\x18&\xef\xa8\x19+U@'
p97
tp98
Rp99
ag10
(g14
S'b\xf8b\xc9(\xf0T@'
p100
tp101
Rp102
ag10
(g14
S'G\x18c\xd4\x94TS@'
p103
tp104
Rp105
ag10
(g14
S'N\xa34\xf5\xf1\xf0R@'
p106
tp107
Rp108
ag10
(g14
S'\xf1}\xac\x04\xa5UV@'
p109
tp110
Rp111
ag10
(g14
S'z\x8e\xb1y8\xa2U@'
p112
tp113
Rp114
ag10
(g14
S';\xa0t\xf5\xd7\xd7R@'
p115
tp116
Rp117
ag10
(g14
S'\xce\xdf\xbd\n\x1c\xb7R@'
p118
tp119
Rp120
ag10
(g14
S'C8\x00\xcb\xae.P@'
p121
tp122
Rp123
ag10
(g14
S'\xbd^V\\\xb2~S@'
p124
tp125
Rp126
ag10
(g14
S'n\x87\xecB\xe2;V@'
p127
tp128
Rp129
ag10
(g14
S'w\x84\xce\xc2g0S@'
p130
tp131
Rp132
ag10
(g14
S'\xa6Y\x1f\xfe\xcc\xcdR@'
p133
tp134
Rp135
ag10
(g14
S'\x8a\xc7\n.\x00\nR@'
p136
tp137
Rp138
asssss.