(dp0
S'../Data/sqlite_59.csv'
p1
(dp2
S'../Data/sqlite_97.csv'
p3
(dp4
F0.35
(dp5
S'mmre'
p6
(dp7
S'bellwether'
p8
(lp9
cnumpy.core.multiarray
scalar
p10
(cnumpy
dtype
p11
(S'f8'
p12
I0
I1
tp13
Rp14
(I3
S'<'
p15
NNNI-1
I-1
I0
tp16
bS'2d\x9f\rx.M@'
p17
tp18
Rp19
ag10
(g14
S'\x88\xb4\x85\x08d\xe1L@'
p20
tp21
Rp22
ag10
(g14
S'\x90\xb6yK7RM@'
p23
tp24
Rp25
ag10
(g14
S'\xf4\xec!htCM@'
p26
tp27
Rp28
ag10
(g14
S'\xbf\xfcsL\xd4#M@'
p29
tp30
Rp31
ag10
(g14
S'\x93$\xff\xde\xe2\x0fM@'
p32
tp33
Rp34
ag10
(g14
S'\x03r*.\x82\xe9L@'
p35
tp36
Rp37
ag10
(g14
S'\x978\xa8\x87E\x0cM@'
p38
tp39
Rp40
ag10
(g14
S'6\x04\x1dz\x9a\x1aM@'
p41
tp42
Rp43
ag10
(g14
S'\x896_N$\x00M@'
p44
tp45
Rp46
ag10
(g14
S'\x1e\xf5\xeccD\x0cM@'
p47
tp48
Rp49
ag10
(g14
S'c\xa1\x9b\x8bR\nM@'
p50
tp51
Rp52
ag10
(g14
S'V\xd5\xf7\x02j\x04M@'
p53
tp54
Rp55
ag10
(g14
S'*W\xfb3z\nM@'
p56
tp57
Rp58
ag10
(g14
S'\x9d\xf1\xe3!\x1b(M@'
p59
tp60
Rp61
ag10
(g14
S'\x80\xeb\x8fM\xed\xb9L@'
p62
tp63
Rp64
ag10
(g14
S'\xba\xf8\x0c^\t,M@'
p65
tp66
Rp67
ag10
(g14
S'\xb7R\xee\xc4t[M@'
p68
tp69
Rp70
ag10
(g14
S'8kU\x00W:M@'
p71
tp72
Rp73
ag10
(g14
S"'fYgj\xdbL@"
p74
tp75
Rp76
asS'target'
p77
(lp78
g10
(g14
S'\xf5\x19\xd7EV\xdcP@'
p79
tp80
Rp81
ag10
(g14
S':\x0e\xc8\x82\x05\xd6W@'
p82
tp83
Rp84
ag10
(g14
S'[n\x11^\xbb:Y@'
p85
tp86
Rp87
ag10
(g14
S'_$\xaf\xe2\xdd\xa9T@'
p88
tp89
Rp90
ag10
(g14
S'\xa7B\x82f\xc5\x02S@'
p91
tp92
Rp93
ag10
(g14
S'6\xdb\xaap\x98\xe0S@'
p94
tp95
Rp96
ag10
(g14
S'\xea\xf4\xde\xe1\xd4\xe0Q@'
p97
tp98
Rp99
ag10
(g14
S'\x86\xe9\xfa\xc1\xe2(Y@'
p100
tp101
Rp102
ag10
(g14
S'\xb8&\xfa\x88\x1f\xfdS@'
p103
tp104
Rp105
ag10
(g14
S'\xf0$">\x0c\x15V@'
p106
tp107
Rp108
ag10
(g14
S'%2\x1awO\x81V@'
p109
tp110
Rp111
ag10
(g14
S'\x967\xdc\xfdh\xa1X@'
p112
tp113
Rp114
ag10
(g14
S'\xe3uT\x8e\x9b\x7fT@'
p115
tp116
Rp117
ag10
(g14
S'Gs\x00&=\xcd[@'
p118
tp119
Rp120
ag10
(g14
S'\xad\xbe\x9bL\xcfPH@'
p121
tp122
Rp123
ag10
(g14
S'K\xdd[\xb0\xc5\xc2V@'
p124
tp125
Rp126
ag10
(g14
S'\xce5{\x7fC\xe9Q@'
p127
tp128
Rp129
ag10
(g14
S'\xe2[\xa7s\x05\x98P@'
p130
tp131
Rp132
ag10
(g14
S'\xcclC \x07\xc1O@'
p133
tp134
Rp135
ag10
(g14
S'%\x10Qd}>Y@'
p136
tp137
Rp138
asssss.