(dp0
S'../Data/sqlite_23.csv'
p1
(dp2
S'../Data/sqlite_73.csv'
p3
(dp4
F0.35
(dp5
S'mmre'
p6
(dp7
S'bellwether'
p8
(lp9
cnumpy.core.multiarray
scalar
p10
(cnumpy
dtype
p11
(S'f8'
p12
I0
I1
tp13
Rp14
(I3
S'<'
p15
NNNI-1
I-1
I0
tp16
bS'\nP:\xec\xc64W@'
p17
tp18
Rp19
ag10
(g14
S'\xff\xb8\xa2\x03J4W@'
p20
tp21
Rp22
ag10
(g14
S':\xe3Z\x14\xd0/W@'
p23
tp24
Rp25
ag10
(g14
S'\xfb\x92T\xba\xab/W@'
p26
tp27
Rp28
ag10
(g14
S'C\xf1\x82<\xb50W@'
p29
tp30
Rp31
ag10
(g14
S'\xbcu\xa5\xd0j1W@'
p32
tp33
Rp34
ag10
(g14
S'\x18\x88\x98Ih2W@'
p35
tp36
Rp37
ag10
(g14
S'K\x1e\xc7\xe0\xe51W@'
p38
tp39
Rp40
ag10
(g14
S'Y\xe0_\xbd"3W@'
p41
tp42
Rp43
ag10
(g14
S'\xe6w\x96a\x811W@'
p44
tp45
Rp46
ag10
(g14
S',\xb1\xd9\xc3\x113W@'
p47
tp48
Rp49
ag10
(g14
S'\xd7_\xe9\xe6\x1b1W@'
p50
tp51
Rp52
ag10
(g14
S'\x0eC\x90P\x9d2W@'
p53
tp54
Rp55
ag10
(g14
S'\xd6;1\x83\xbb1W@'
p56
tp57
Rp58
ag10
(g14
S'<\xbfz\x9f\xc82W@'
p59
tp60
Rp61
ag10
(g14
S'b\x14\x92l\x802W@'
p62
tp63
Rp64
ag10
(g14
S'\xd1cv\xdf\xf2/W@'
p65
tp66
Rp67
ag10
(g14
S'"\xc7\x82\x9d\xda1W@'
p68
tp69
Rp70
ag10
(g14
S'\x96\x80\xedM\xef.W@'
p71
tp72
Rp73
ag10
(g14
S'-\x92\xe7\xb1a3W@'
p74
tp75
Rp76
asS'target'
p77
(lp78
g10
(g14
S'e\x11\x0b-2\n+@'
p79
tp80
Rp81
ag10
(g14
S'o\xc1\xca\xca-\xf0+@'
p82
tp83
Rp84
ag10
(g14
S'\xb2JC\xccp\xc4,@'
p85
tp86
Rp87
ag10
(g14
S'\x04\xa2S\x1dB\xa3,@'
p88
tp89
Rp90
ag10
(g14
S'\xd8w=\xe3/Q-@'
p91
tp92
Rp93
ag10
(g14
S'&\x13\xa7r\xc2q*@'
p94
tp95
Rp96
ag10
(g14
S'_m\xf7\xcf\x17\xc1,@'
p97
tp98
Rp99
ag10
(g14
S'(\x92\x0c\xda_(+@'
p100
tp101
Rp102
ag10
(g14
S'\xc5\xd7Vs\x8b\x15,@'
p103
tp104
Rp105
ag10
(g14
S'(\x83{\xb5.6-@'
p106
tp107
Rp108
ag10
(g14
S'\xf0k+$Bc)@'
p109
tp110
Rp111
ag10
(g14
S'\x8e6\x8d\x94z7+@'
p112
tp113
Rp114
ag10
(g14
S'\xb3\x9ec\xdb\x98\x1d,@'
p115
tp116
Rp117
ag10
(g14
S's\xf5Q?\x84D,@'
p118
tp119
Rp120
ag10
(g14
S'\x07\x86k\x8d\x03\xfb+@'
p121
tp122
Rp123
ag10
(g14
S'T\xee\xef\xc5}/-@'
p124
tp125
Rp126
ag10
(g14
S'\x03|\xd0\x08\xae\xf6+@'
p127
tp128
Rp129
ag10
(g14
S'/7\xd3\xc2\xfc\xb3.@'
p130
tp131
Rp132
ag10
(g14
S'J"72#\xb7+@'
p133
tp134
Rp135
ag10
(g14
S'>\x13{\x1a\x9a\xee)@'
p136
tp137
Rp138
asssss.