(dp0
S'../Data/sqlite_16.csv'
p1
(dp2
S'../Data/sqlite_90.csv'
p3
(dp4
F0.4
(dp5
S'mmre'
p6
(dp7
S'bellwether'
p8
(lp9
cnumpy.core.multiarray
scalar
p10
(cnumpy
dtype
p11
(S'f8'
p12
I0
I1
tp13
Rp14
(I3
S'<'
p15
NNNI-1
I-1
I0
tp16
bS'\xd3\xc3-Z\x9b<X@'
p17
tp18
Rp19
ag10
(g14
S'$D\xb2?\x88GX@'
p20
tp21
Rp22
ag10
(g14
S'B\x17\n\xeb\xf0>X@'
p23
tp24
Rp25
ag10
(g14
S'P\xa2\xfe`\x98FX@'
p26
tp27
Rp28
ag10
(g14
S'#\xd7\xee\x89\xb7GX@'
p29
tp30
Rp31
ag10
(g14
S'\x86\xff\x10\xc9.DX@'
p32
tp33
Rp34
ag10
(g14
S'\x0e\xae\xa9IX@X@'
p35
tp36
Rp37
ag10
(g14
S'\xdc\x94R\x91\xedBX@'
p38
tp39
Rp40
ag10
(g14
S'\x07\x8aF\xde\xfe?X@'
p41
tp42
Rp43
ag10
(g14
S'\xf4\x80\xac{y@X@'
p44
tp45
Rp46
ag10
(g14
S'~J5(\x94CX@'
p47
tp48
Rp49
ag10
(g14
S'-\x1e\xc5\xde\x9eEX@'
p50
tp51
Rp52
ag10
(g14
S'\x1f\xe6\xf2\xde\x0fDX@'
p53
tp54
Rp55
ag10
(g14
S'Y\x0ccjuFX@'
p56
tp57
Rp58
ag10
(g14
S']N\xcez\xcd=X@'
p59
tp60
Rp61
ag10
(g14
S'\xc8=5_\x16CX@'
p62
tp63
Rp64
ag10
(g14
S'Q\xf0\xac\x95ODX@'
p65
tp66
Rp67
ag10
(g14
S'\xe8\xa4d*SAX@'
p68
tp69
Rp70
ag10
(g14
S'\xd1;*m8BX@'
p71
tp72
Rp73
ag10
(g14
S'\xc0\x93AdVHX@'
p74
tp75
Rp76
asS'target'
p77
(lp78
g10
(g14
S':\xdc1\x06jEC@'
p79
tp80
Rp81
ag10
(g14
S'\x93\xd2-}9\x16<@'
p82
tp83
Rp84
ag10
(g14
S'?q\xaa\xa3a\xe5A@'
p85
tp86
Rp87
ag10
(g14
S'\xf6\xd2\xf4m\x9d5@@'
p88
tp89
Rp90
ag10
(g14
S'\xbc\xc44\x1b\xb7\xad@@'
p91
tp92
Rp93
ag10
(g14
S'\xf04\xff\x19\xc4}?@'
p94
tp95
Rp96
ag10
(g14
S'\xf5\xd3\x94\x13<\xdeB@'
p97
tp98
Rp99
ag10
(g14
S'\xf2"\xc8>l\x13A@'
p100
tp101
Rp102
ag10
(g14
S'\x91\xcf\x99\x02t\x0bB@'
p103
tp104
Rp105
ag10
(g14
S'\xa9\xd08\xff\xb9\xb7A@'
p106
tp107
Rp108
ag10
(g14
S'x\x08~F\xa6\xa4A@'
p109
tp110
Rp111
ag10
(g14
S'\xb3\x13[I\x83\xd3@@'
p112
tp113
Rp114
ag10
(g14
S'-\xa4T\xe8\x05\xd5?@'
p115
tp116
Rp117
ag10
(g14
S'\xbc`$\x1b\xd97@@'
p118
tp119
Rp120
ag10
(g14
S'f\xabs\\I-D@'
p121
tp122
Rp123
ag10
(g14
S']+\xebd\xc31B@'
p124
tp125
Rp126
ag10
(g14
S'\x81\x18\xeeV\x01sA@'
p127
tp128
Rp129
ag10
(g14
S'F\x1ee\xe6\xad\xa7C@'
p130
tp131
Rp132
ag10
(g14
S'\x00\\\x16\xa7:\xebC@'
p133
tp134
Rp135
ag10
(g14
S'q\xbb\xd9\xcd\xa1,@@'
p136
tp137
Rp138
asssss.