(dp0
S'../Data/sqlite_29.csv'
p1
(dp2
S'../Data/sqlite_79.csv'
p3
(dp4
F0.35
(dp5
S'abs_res'
p6
(dp7
S'bellwether'
p8
(lp9
cnumpy.core.multiarray
scalar
p10
(cnumpy
dtype
p11
(S'f8'
p12
I0
I1
tp13
Rp14
(I3
S'<'
p15
NNNI-1
I-1
I0
tp16
bS"}\xcd\x85\x04I'=A"
p17
tp18
Rp19
ag10
(g14
S"\x91\xfcb\xa9\xd8'=A"
p20
tp21
Rp22
ag10
(g14
S"Z\xd6\xea\xd8\x01'=A"
p23
tp24
Rp25
ag10
(g14
S'\xcaK7\xe90%=A'
p26
tp27
Rp28
ag10
(g14
S"\xe3\xdf\x08\xa5\x87'=A"
p29
tp30
Rp31
ag10
(g14
S";&x\xd0\xde'=A"
p32
tp33
Rp34
ag10
(g14
S'\xee\n\x90\xdb\xc2&=A'
p35
tp36
Rp37
ag10
(g14
S'\xccZ\x1d3\xb0&=A'
p38
tp39
Rp40
ag10
(g14
S"\x01c\xc9\x0f\xd3'=A"
p41
tp42
Rp43
ag10
(g14
S'=$M\t\x19&=A'
p44
tp45
Rp46
ag10
(g14
S"+\xf9\xc5\xd2p'=A"
p47
tp48
Rp49
ag10
(g14
S"\xbe\xd7\\Hp'=A"
p50
tp51
Rp52
ag10
(g14
S"\xee\x98\xe0A<'=A"
p53
tp54
Rp55
ag10
(g14
S"iuL\xb0\x89'=A"
p56
tp57
Rp58
ag10
(g14
S'\x96PF/\xbd%=A'
p59
tp60
Rp61
ag10
(g14
S'2ku\x0c\\%=A'
p62
tp63
Rp64
ag10
(g14
S'\x02\xb9\xd7\xfc\x02(=A'
p65
tp66
Rp67
ag10
(g14
S"\xa3\xb7e\xad;'=A"
p68
tp69
Rp70
ag10
(g14
S"\xb0\xf1\xd2\xad\xdd'=A"
p71
tp72
Rp73
ag10
(g14
S'\xca\xae\x00\xf9\t(=A'
p74
tp75
Rp76
asS'target'
p77
(lp78
g10
(g14
S'\xc5\xf7S\xe3\xa5\x1fm@'
p79
tp80
Rp81
ag10
(g14
S'\xf8~j\xbcttq@'
p82
tp83
Rp84
ag10
(g14
S' \x85\xebQ\xb8\x18p@'
p85
tp86
Rp87
ag10
(g14
S'\x1fx0O\xd4Wq@'
p88
tp89
Rp90
ag10
(g14
S'\xe7\xfb\xa9\xf1\xd2Kp@'
p91
tp92
Rp93
ag10
(g14
S'\xe2O\x8d\x97n\x96p@'
p94
tp95
Rp96
ag10
(g14
S'!\xdb\xf9~jwp@'
p97
tp98
Rp99
ag10
(g14
S'y?5^\xba\xbaq@'
p100
tp101
Rp102
ag10
(g14
S'\xec|?5^\ni@'
p103
tp104
Rp105
ag10
(g14
S'\xe4&1\x08\xaclq@'
p106
tp107
Rp108
ag10
(g14
S'[\x8f\xc2\xf5(\xbco@'
p109
tp110
Rp111
ag10
(g14
S'3\x89A`\xe5ln@'
p112
tp113
Rp114
ag10
(g14
S'\xdf\xfb\xa9\xf1\xd2\x89o@'
p115
tp116
Rp117
ag10
(g14
S'\x8c\xc4 \xb0r\xd0l@'
p118
tp119
Rp120
ag10
(g14
S'\xf3S\xe3\xa5\x9b\\m@'
p121
tp122
Rp123
ag10
(g14
S'\xf1(\\\x8f\xc2\xfdl@'
p124
tp125
Rp126
ag10
(g14
S'\xd4x\xe9&1\xc8m@'
p127
tp128
Rp129
ag10
(g14
S'\xd8$\x06\x81\x95\xafm@'
p130
tp131
Rp132
ag10
(g14
S'43333\x83q@'
p133
tp134
Rp135
ag10
(g14
S'=\x8bl\xe7\xfbYq@'
p136
tp137
Rp138
asssss.