(dp0
S'../Data/sqlite_22.csv'
p1
(dp2
S'../Data/sqlite_87.csv'
p3
(dp4
F0.05
(dp5
S'mmre'
p6
(dp7
S'bellwether'
p8
(lp9
cnumpy.core.multiarray
scalar
p10
(cnumpy
dtype
p11
(S'f8'
p12
I0
I1
tp13
Rp14
(I3
S'<'
p15
NNNI-1
I-1
I0
tp16
bS'97\xbe\xe4aiS@'
p17
tp18
Rp19
ag10
(g14
S'\xebe\x86\xae\xbfeS@'
p20
tp21
Rp22
ag10
(g14
S'\xa0\xcfQp\x0cfS@'
p23
tp24
Rp25
ag10
(g14
S'\xe8\x06\xb7}=pS@'
p26
tp27
Rp28
ag10
(g14
S'`\x92\xc7f\x82iS@'
p29
tp30
Rp31
ag10
(g14
S'\x7f:\xc1\x03\xbf_S@'
p32
tp33
Rp34
ag10
(g14
S'O\x9a;\x15GgS@'
p35
tp36
Rp37
ag10
(g14
S'P\xaf\xe7RwjS@'
p38
tp39
Rp40
ag10
(g14
S'\xeb\xf5\xd2\x1c\x8adS@'
p41
tp42
Rp43
ag10
(g14
S'\x9c\xf7\x98HWhS@'
p44
tp45
Rp46
ag10
(g14
S'\xda\xd7\x1d\xf3\xe4gS@'
p47
tp48
Rp49
ag10
(g14
S'D(\xd2\x10*kS@'
p50
tp51
Rp52
ag10
(g14
S'\xaf(\xac\x9epjS@'
p53
tp54
Rp55
ag10
(g14
S'\xd2l\x0e|\xe8fS@'
p56
tp57
Rp58
ag10
(g14
S'V\xa9\x8a\xb7[jS@'
p59
tp60
Rp61
ag10
(g14
S'g\xf1\xb5V\x90bS@'
p62
tp63
Rp64
ag10
(g14
S'O.q\xff*bS@'
p65
tp66
Rp67
ag10
(g14
S'8-G\xf6\xedcS@'
p68
tp69
Rp70
ag10
(g14
S'\x05\xb4:\x88~cS@'
p71
tp72
Rp73
ag10
(g14
S'l\x0bm\x17>jS@'
p74
tp75
Rp76
asS'target'
p77
(lp78
g10
(g14
S'`_\xa1\xf9\xa2\xc4Y@'
p79
tp80
Rp81
ag10
(g14
S'\xda\xd1>\xb0V\xd2S@'
p82
tp83
Rp84
ag10
(g14
S'\x00\xca\xb8\x86\xd6TP@'
p85
tp86
Rp87
ag10
(g14
S'b\x83L\x9e\x81~Q@'
p88
tp89
Rp90
ag10
(g14
S'^\xe5\xa8M\x00AB@'
p91
tp92
Rp93
ag10
(g14
S')\x1f\xa16\x87\xa6V@'
p94
tp95
Rp96
ag10
(g14
S'\xec&a$\xdb\x8aC@'
p97
tp98
Rp99
ag10
(g14
S'.>\x9f\xdb\xd40T@'
p100
tp101
Rp102
ag10
(g14
S'p>7\xd1\xf0\xd7J@'
p103
tp104
Rp105
ag10
(g14
S'M,\xf5%\x03cB@'
p106
tp107
Rp108
ag10
(g14
S'\xb93~\x82\x13\xfeE@'
p109
tp110
Rp111
ag10
(g14
S'Dhm?\x13+C@'
p112
tp113
Rp114
ag10
(g14
S'\xe6u\x90b\xb5\xc8M@'
p115
tp116
Rp117
ag10
(g14
S'L~/\x12\\\xf3V@'
p118
tp119
Rp120
ag10
(g14
S'\xcdUv\x1e\x08\x94G@'
p121
tp122
Rp123
ag10
(g14
S'\x06\xbd\x9ee\xa3\x89T@'
p124
tp125
Rp126
ag10
(g14
S'\x1d\x82\xc3\x1b0>Y@'
p127
tp128
Rp129
ag10
(g14
S'\xe2\x86\xa9Y\x01\xa8O@'
p130
tp131
Rp132
ag10
(g14
S'\xc8\x91P`\r%T@'
p133
tp134
Rp135
ag10
(g14
S'P+7\xf0\x03\x9aD@'
p136
tp137
Rp138
asssss.