(dp0
S'../Data/sqlite_15.csv'
p1
(dp2
S'../Data/sqlite_28.csv'
p3
(dp4
F0.2
(dp5
S'abs_res'
p6
(dp7
S'bellwether'
p8
(lp9
cnumpy.core.multiarray
scalar
p10
(cnumpy
dtype
p11
(S'f8'
p12
I0
I1
tp13
Rp14
(I3
S'<'
p15
NNNI-1
I-1
I0
tp16
bS's\x03\x9d\x16\ns>A'
p17
tp18
Rp19
ag10
(g14
S't.$-\xf0s>A'
p20
tp21
Rp22
ag10
(g14
S'\x19\xd9\xce\x17\xbas>A'
p23
tp24
Rp25
ag10
(g14
S'N7\x89\x81\x90r>A'
p26
tp27
Rp28
ag10
(g14
S'\xefB\xd2\xf4Bu>A'
p29
tp30
Rp31
ag10
(g14
S'\x96\xb5:\x06\xd3s>A'
p32
tp33
Rp34
ag10
(g14
S'\xa1\xc4 P\nt>A'
p35
tp36
Rp37
ag10
(g14
S'\xe1\x96\xb5\xda(t>A'
p38
tp39
Rp40
ag10
(g14
S'\\\x8f\xc25\xfat>A'
p41
tp42
Rp43
ag10
(g14
S'\xa8\x8c\xde\x969t>A'
p44
tp45
Rp46
ag10
(g14
S'\xc4\x0f\x9f\xe1\x01t>A'
p47
tp48
Rp49
ag10
(g14
S'\xc2\x904E:t>A'
p50
tp51
Rp52
ag10
(g14
S'\x16\x02+G\xa9r>A'
p53
tp54
Rp55
ag10
(g14
S'\xd3\xa1E6\xc2u>A'
p56
tp57
Rp58
ag10
(g14
S'p;\xdf\xef\x8dt>A'
p59
tp60
Rp61
ag10
(g14
S'\x19\xaeGA+t>A'
p62
tp63
Rp64
ag10
(g14
S'\x9d\xe0\xc1\\\x8es>A'
p65
tp66
Rp67
ag10
(g14
S'\x01G(c\x00u>A'
p68
tp69
Rp70
ag10
(g14
S'\x8c\x07\xf3$\x83t>A'
p71
tp72
Rp73
ag10
(g14
S'G`\xe5P6t>A'
p74
tp75
Rp76
asS'target'
p77
(lp78
g10
(g14
S'\x84\xebQ\xb8\x1eAa@'
p79
tp80
Rp81
ag10
(g14
S'\xd3x\xe9&1\x10`@'
p82
tp83
Rp84
ag10
(g14
S'U\x0e-\xb2\x9d\x9b`@'
p85
tp86
Rp87
ag10
(g14
S'\x98\xc4 \xb0r\x8aa@'
p88
tp89
Rp90
ag10
(g14
S'\x0c-\xb2\x9d\xefcc@'
p91
tp92
Rp93
ag10
(g14
S'^d;\xdfOM`@'
p94
tp95
Rp96
ag10
(g14
S'\x19\x83\xc0\xca\xa1\xd1`@'
p97
tp98
Rp99
ag10
(g14
S'?\xdfO\x8d\x97\xa2a@'
p100
tp101
Rp102
ag10
(g14
S'.\\\x8f\xc2\xf5\xe2a@'
p103
tp104
Rp105
ag10
(g14
S'\x8b\xed|?56`@'
p106
tp107
Rp108
ag10
(g14
S't\xe9&1\x08\xd8a@'
p109
tp110
Rp111
ag10
(g14
S'\xe6\xd0"\xdb\xf9\x8ab@'
p112
tp113
Rp114
ag10
(g14
S'\x9dC\x8bl\xe7\xc3_@'
p115
tp116
Rp117
ag10
(g14
S'\xf4\xa7\xc6K7qa@'
p118
tp119
Rp120
ag10
(g14
S'\\\x8f\xc2\xf5(\x00a@'
p121
tp122
Rp123
ag10
(g14
S'~\xebQ\xb8\x1e3a@'
p124
tp125
Rp126
ag10
(g14
S'W\xe3\xa5\x9b\xc4\x08`@'
p127
tp128
Rp129
ag10
(g14
S'\x94\x18\x04V\x0e-a@'
p130
tp131
Rp132
ag10
(g14
S'\xf5|?5^\x96`@'
p133
tp134
Rp135
ag10
(g14
S'\xd7O\x8d\x97n"_@'
p136
tp137
Rp138
asssss.