(dp0
S'../Data/sqlite_15.csv'
p1
(dp2
S'../Data/sqlite_72.csv'
p3
(dp4
F0.15
(dp5
S'abs_res'
p6
(dp7
S'bellwether'
p8
(lp9
cnumpy.core.multiarray
scalar
p10
(cnumpy
dtype
p11
(S'f8'
p12
I0
I1
tp13
Rp14
(I3
S'<'
p15
NNNI-1
I-1
I0
tp16
bS'\x13<\x98g\xca8@A'
p17
tp18
Rp19
ag10
(g14
S'}wwgj9@A'
p20
tp21
Rp22
ag10
(g14
S'\xc8\xcc\xcc\xbc\x1a9@A'
p23
tp24
Rp25
ag10
(g14
S'\x02+\x87\x96\xe18@A'
p26
tp27
Rp28
ag10
(g14
S'\ne\xf4F\xb88@A'
p29
tp30
Rp31
ag10
(g14
S'*\xb2\x9do\x0f9@A'
p32
tp33
Rp34
ag10
(g14
S'#\x06\x81\xd5\x978@A'
p35
tp36
Rp37
ag10
(g14
S'>&x`\x928@A'
p38
tp39
Rp40
ag10
(g14
S'\x1dZd\xfb\xc29@A'
p41
tp42
Rp43
ag10
(g14
S'\xa1\xef\xa7\xb6Q8@A'
p44
tp45
Rp46
ag10
(g14
S'R\x9c}8\xda8@A'
p47
tp48
Rp49
ag10
(g14
S'\x83\x16\xd9~\xa18@A'
p50
tp51
Rp52
ag10
(g14
S'\xda\xce\xf7s\xbb9@A'
p53
tp54
Rp55
ag10
(g14
S'\xfb\xd4x)e9@A'
p56
tp57
Rp58
ag10
(g14
S'\x0e-\xb2\x9dH9@A'
p59
tp60
Rp61
ag10
(g14
S'\x8dPF\xbf&9@A'
p62
tp63
Rp64
ag10
(g14
S'\x04V\x0e-\x889@A'
p65
tp66
Rp67
ag10
(g14
S'\x10\x11\x11\x91\x019@A'
p68
tp69
Rp70
ag10
(g14
S'\x9bn\x12\xb3\xaf8@A'
p71
tp72
Rp73
ag10
(g14
S'\xc2K7\xd9\xe58@A'
p74
tp75
Rp76
asS'target'
p77
(lp78
g10
(g14
S'\\\xe3\xa5\x9b\xc4XS@'
p79
tp80
Rp81
ag10
(g14
S'\xc1\xf3\xfd\xd4x9S@'
p82
tp83
Rp84
ag10
(g14
S'\x8e\xebQ\xb8\x1eUS@'
p85
tp86
Rp87
ag10
(g14
S'R7\x89A`\x85S@'
p88
tp89
Rp90
ag10
(g14
S'\xf1\xd2Mb\x10\xe0T@'
p91
tp92
Rp93
ag10
(g14
S'g\xbaI\x0c\x02\xfbS@'
p94
tp95
Rp96
ag10
(g14
S'r\x14\xaeG\xe1\x02T@'
p97
tp98
Rp99
ag10
(g14
S'\x19\xd7\xa3p=\x8aT@'
p100
tp101
Rp102
ag10
(g14
S'\xd5x\xe9&1\xd0R@'
p103
tp104
Rp105
ag10
(g14
S'\xdcMb\x10X\xb9S@'
p106
tp107
Rp108
ag10
(g14
S'\x82\x95C\x8bl\x8fT@'
p109
tp110
Rp111
ag10
(g14
S'\xea\xd0"\xdb\xf9vT@'
p112
tp113
Rp114
ag10
(g14
S'\x9c\xc4 \xb0r`T@'
p115
tp116
Rp117
ag10
(g14
S'rffff\x1eT@'
p118
tp119
Rp120
ag10
(g14
S'\x04+\x87\x16\xd96R@'
p121
tp122
Rp123
ag10
(g14
S'\xb9rh\x91\xed\xbcT@'
p124
tp125
Rp126
ag10
(g14
S'\xcfMb\x10X\x89S@'
p127
tp128
Rp129
ag10
(g14
S'\xee|?5^\xfaS@'
p130
tp131
Rp132
ag10
(g14
S"\x1dZd;\xdf'S@"
p133
tp134
Rp135
ag10
(g14
S'z\x14\xaeG\xe1\xceR@'
p136
tp137
Rp138
asssss.