(dp0
S'../Data/sqlite_70.csv'
p1
(dp2
S'../Data/sqlite_73.csv'
p3
(dp4
F0.4
(dp5
S'mmre'
p6
(dp7
S'bellwether'
p8
(lp9
cnumpy.core.multiarray
scalar
p10
(cnumpy
dtype
p11
(S'f8'
p12
I0
I1
tp13
Rp14
(I3
S'<'
p15
NNNI-1
I-1
I0
tp16
bS'\x14\xe4\xac\xc5\xacPE@'
p17
tp18
Rp19
ag10
(g14
S'\xf2\xd6\xd6L\x1a^E@'
p20
tp21
Rp22
ag10
(g14
S'\xa9z\xda/U5E@'
p23
tp24
Rp25
ag10
(g14
S'\xc4\xa8\x8c\x17lQE@'
p26
tp27
Rp28
ag10
(g14
S'\x03\\v\xed\x02TE@'
p29
tp30
Rp31
ag10
(g14
S']C4O\xa3VE@'
p32
tp33
Rp34
ag10
(g14
S'\xc0\xc4\x81\x90\x01_E@'
p35
tp36
Rp37
ag10
(g14
S']\x87\xd9:\x0e E@'
p38
tp39
Rp40
ag10
(g14
S'\n\x94yX\xe7QE@'
p41
tp42
Rp43
ag10
(g14
S'\xd1\x86\xf6\x05\xe0UE@'
p44
tp45
Rp46
ag10
(g14
S'ej\x8at\xb8\\E@'
p47
tp48
Rp49
ag10
(g14
S'(\xd8q\x03v E@'
p50
tp51
Rp52
ag10
(g14
S'\xee3}\xbe\xc0gE@'
p53
tp54
Rp55
ag10
(g14
S'\xdfS|\x84q_E@'
p56
tp57
Rp58
ag10
(g14
S'\xb7\xb8\x8cR\x0fFE@'
p59
tp60
Rp61
ag10
(g14
S'\xf6\x8f\xc3_\xb5XE@'
p62
tp63
Rp64
ag10
(g14
S"&\xb2'\xa3\xaePE@"
p65
tp66
Rp67
ag10
(g14
S'n"\x9f\xf8\x0eaE@'
p68
tp69
Rp70
ag10
(g14
S'o\xe1\x1f\x1a\x1dHE@'
p71
tp72
Rp73
ag10
(g14
S'\xa0A\x8b\xb9MYE@'
p74
tp75
Rp76
asS'target'
p77
(lp78
g10
(g14
S'N#\x1f`\xccn-@'
p79
tp80
Rp81
ag10
(g14
S'a\x16t\xce\xe2\x11.@'
p82
tp83
Rp84
ag10
(g14
S';\xdajOwQ,@'
p85
tp86
Rp87
ag10
(g14
S'\x80\xa1\xd4dw\x15*@'
p88
tp89
Rp90
ag10
(g14
S'\x15\xd7\x18T9\xce+@'
p91
tp92
Rp93
ag10
(g14
S'Eh*Q#\x91)@'
p94
tp95
Rp96
ag10
(g14
S'\xad\x06N\xfa#\x8b)@'
p97
tp98
Rp99
ag10
(g14
S'\x1c\xa9s\xdb[\xb5-@'
p100
tp101
Rp102
ag10
(g14
S'\xc7V\xca\xe8T\x80,@'
p103
tp104
Rp105
ag10
(g14
S'\x14\xde\xc1\xccmP+@'
p106
tp107
Rp108
ag10
(g14
S'\x96\x04]\x95_b+@'
p109
tp110
Rp111
ag10
(g14
S'\xee\xab\xc71$\xe2*@'
p112
tp113
Rp114
ag10
(g14
S'6\xf3*%y\xe6)@'
p115
tp116
Rp117
ag10
(g14
S'\xc3\xdb\x94kB\xf5)@'
p118
tp119
Rp120
ag10
(g14
S'\xf2\x96\xe0\xb9+\xdb-@'
p121
tp122
Rp123
ag10
(g14
S'\xd1\xdd\x7f\xb6%\xa3,@'
p124
tp125
Rp126
ag10
(g14
S'\xca0\xe0S\xbb\xe7-@'
p127
tp128
Rp129
ag10
(g14
S"\xad\x0b|'\x96\xbc,@"
p130
tp131
Rp132
ag10
(g14
S'&\xecV:\xb5\x99,@'
p133
tp134
Rp135
ag10
(g14
S'\xc0d1=\xf3\xb6)@'
p136
tp137
Rp138
asssss.