(dp0
S'../Data/sqlite_79.csv'
p1
(dp2
S'../Data/sqlite_63.csv'
p3
(dp4
F0.4
(dp5
S'mmre'
p6
(dp7
S'bellwether'
p8
(lp9
cnumpy.core.multiarray
scalar
p10
(cnumpy
dtype
p11
(S'f8'
p12
I0
I1
tp13
Rp14
(I3
S'<'
p15
NNNI-1
I-1
I0
tp16
bS'L\\^_\xaezV@'
p17
tp18
Rp19
ag10
(g14
S'X]Q=gzV@'
p20
tp21
Rp22
ag10
(g14
S'e)\xec\xc3\xb4{V@'
p23
tp24
Rp25
ag10
(g14
S'B\xddabMwV@'
p26
tp27
Rp28
ag10
(g14
S'\x1e\x11\xa3\xd5\n{V@'
p29
tp30
Rp31
ag10
(g14
S'\xd7\xb3\xad! xV@'
p32
tp33
Rp34
ag10
(g14
S'\xb8\x18\x11E\xc6yV@'
p35
tp36
Rp37
ag10
(g14
S'=\xd3\xb9\xbd\xd8yV@'
p38
tp39
Rp40
ag10
(g14
S'\xde\x07\xda]IzV@'
p41
tp42
Rp43
ag10
(g14
S'@\x051V\x8d\x80V@'
p44
tp45
Rp46
ag10
(g14
S'\x1b\xc5\n\xfb\xbauV@'
p47
tp48
Rp49
ag10
(g14
S'O n8&}V@'
p50
tp51
Rp52
ag10
(g14
S'm\xb8_\xfe\xcdrV@'
p53
tp54
Rp55
ag10
(g14
S'K\xf0\x97W\xbeyV@'
p56
tp57
Rp58
ag10
(g14
S'-\xf5\x15\xa2\xd8vV@'
p59
tp60
Rp61
ag10
(g14
S'\x1c:@3\x93wV@'
p62
tp63
Rp64
ag10
(g14
S'\x1ba\x05S\xfd|V@'
p65
tp66
Rp67
ag10
(g14
S'\xc0he}\x9czV@'
p68
tp69
Rp70
ag10
(g14
S'4\\L\x17\xfczV@'
p71
tp72
Rp73
ag10
(g14
S'\xb6\xfb#U\x99xV@'
p74
tp75
Rp76
asS'target'
p77
(lp78
g10
(g14
S'\xf4\xa5O>\x83\x18"@'
p79
tp80
Rp81
ag10
(g14
S'\xa0\x82mhaW!@'
p82
tp83
Rp84
ag10
(g14
S'\xabm:\x11\x0cB#@'
p85
tp86
Rp87
ag10
(g14
S'\x08\xad\x17MY\xcb#@'
p88
tp89
Rp90
ag10
(g14
S'k@\xcbh\xbf\x86"@'
p91
tp92
Rp93
ag10
(g14
S'KI\x92\x84 ["@'
p94
tp95
Rp96
ag10
(g14
S'B\xc8\xfcJ\xb0\xfd!@'
p97
tp98
Rp99
ag10
(g14
S'\x7f[\xa2i\xa1P"@'
p100
tp101
Rp102
ag10
(g14
S'\x84|\x991:\xc4"@'
p103
tp104
Rp105
ag10
(g14
S'\xab7\xa3n\x1c\x82"@'
p106
tp107
Rp108
ag10
(g14
S'\xeeRN\x91\xc9\x1d"@'
p109
tp110
Rp111
ag10
(g14
S'@\xba\x9b\r\xcf{#@'
p112
tp113
Rp114
ag10
(g14
S'Q\xa6\xd7\xe6!\x1c#@'
p115
tp116
Rp117
ag10
(g14
S'\xf5\xa8\x9d6\x1ax!@'
p118
tp119
Rp120
ag10
(g14
S'8\x19\xd7\xef0\xa0"@'
p121
tp122
Rp123
ag10
(g14
S'd\x7f\xa0\x8fY\xf0"@'
p124
tp125
Rp126
ag10
(g14
S'\xcd9\xe1\xd3\xc6\x9e"@'
p127
tp128
Rp129
ag10
(g14
S'\x96\xa3M\x9c\xf8%"@'
p130
tp131
Rp132
ag10
(g14
S'\x02\x18\xe2\x19\x0e\xeb!@'
p133
tp134
Rp135
ag10
(g14
S'\xc73R\xd3\x82)#@'
p136
tp137
Rp138
asssss.