(dp0
S'../Data/sqlite_74.csv'
p1
(dp2
S'../Data/sqlite_3.csv'
p3
(dp4
F0.4
(dp5
S'abs_res'
p6
(dp7
S'bellwether'
p8
(lp9
cnumpy.core.multiarray
scalar
p10
(cnumpy
dtype
p11
(S'f8'
p12
I0
I1
tp13
Rp14
(I3
S'<'
p15
NNNI-1
I-1
I0
tp16
bS'\x91\xde\x96\xf1N?dA'
p17
tp18
Rp19
ag10
(g14
S'"M\xa9\xec\x8dEdA'
p20
tp21
Rp22
ag10
(g14
S']\x82\x07wo?dA'
p23
tp24
Rp25
ag10
(g14
S'\xd7i\x03)\xd8UdA'
p26
tp27
Rp28
ag10
(g14
S'\xac\xb9\x90\x80v?dA'
p29
tp30
Rp31
ag10
(g14
S'C~\xb1\xf8\xc3LdA'
p32
tp33
Rp34
ag10
(g14
S'i\x842J\xa59dA'
p35
tp36
Rp37
ag10
(g14
S'\xe3\xd0"\xab\xe5HdA'
p38
tp39
Rp40
ag10
(g14
S'\x9c\xb5:\x82\xc3KdA'
p41
tp42
Rp43
ag10
(g14
S'wL\xf0\xbc\x83QdA'
p44
tp45
Rp46
ag10
(g14
S'\xf7\x1b\xa18tNdA'
p47
tp48
Rp49
ag10
(g14
S'\x00+\x87\x06r<dA'
p50
tp51
Rp52
ag10
(g14
S'\xbe\x9f\x1a[\x7fJdA'
p53
tp54
Rp55
ag10
(g14
S'v0O(\x8fHdA'
p56
tp57
Rp58
ag10
(g14
S'\x8e\xed|\x17OQdA'
p59
tp60
Rp61
ag10
(g14
S'\x0c\x9fa\x87_JdA'
p62
tp63
Rp64
ag10
(g14
S'\x8a%\xbf\x00tCdA'
p65
tp66
Rp67
ag10
(g14
S'v\x93\x18<\x98RdA'
p68
tp69
Rp70
ag10
(g14
S'o.$\x85\xeaPdA'
p71
tp72
Rp73
ag10
(g14
S'f\xad\x8e\xd9|IdA'
p74
tp75
Rp76
asS'target'
p77
(lp78
g10
(g14
S'^\x8f\xc2\xf5(nf@'
p79
tp80
Rp81
ag10
(g14
S'T\x0e-\xb2\x9d\x1fg@'
p82
tp83
Rp84
ag10
(g14
S'\x86\xed|?5.e@'
p85
tp86
Rp87
ag10
(g14
S'^d;\xdfOGd@'
p88
tp89
Rp90
ag10
(g14
S'\xb5\xc8v\xbe\x9f&f@'
p91
tp92
Rp93
ag10
(g14
S'\x12X9\xb4\xc8\xb0e@'
p94
tp95
Rp96
ag10
(g14
S'y\xbe\x9f\x1a/\x11f@'
p97
tp98
Rp99
ag10
(g14
S'\x03+\x87\x16\xd9\xcad@'
p100
tp101
Rp102
ag10
(g14
S"\x8f\x18\x04V\x0e'g@"
p103
tp104
Rp105
ag10
(g14
S'|j\xbct\x93Pe@'
p106
tp107
Rp108
ag10
(g14
S'_\x12\x83\xc0\xca\x15f@'
p109
tp110
Rp111
ag10
(g14
S'\x9f\x9b\xc4 \xb0$e@'
p112
tp113
Rp114
ag10
(g14
S'=\xdfO\x8d\x97\xf6c@'
p115
tp116
Rp117
ag10
(g14
S'\xc0 \xb0rh\xbdd@'
p118
tp119
Rp120
ag10
(g14
S'\x8fA`\xe5\xd0\xaee@'
p121
tp122
Rp123
ag10
(g14
S'\xb4I\x0c\x02+\xbdf@'
p124
tp125
Rp126
ag10
(g14
S'\x15\xd9\xce\xf7S\x91d@'
p127
tp128
Rp129
ag10
(g14
S'\xc3K7\x89A`f@'
p130
tp131
Rp132
ag10
(g14
S'\xfb\xa9\xf1\xd2M\x1af@'
p133
tp134
Rp135
ag10
(g14
S'#\xdb\xf9~j\x8ce@'
p136
tp137
Rp138
asssss.