(dp0
S'../Data/sqlite_17.csv'
p1
(dp2
S'../Data/sqlite_89.csv'
p3
(dp4
F0.3
(dp5
S'mmre'
p6
(dp7
S'bellwether'
p8
(lp9
cnumpy.core.multiarray
scalar
p10
(cnumpy
dtype
p11
(S'f8'
p12
I0
I1
tp13
Rp14
(I3
S'<'
p15
NNNI-1
I-1
I0
tp16
bS'B\x1e@\xa9*\xae;@'
p17
tp18
Rp19
ag10
(g14
S'\x18\xabN\xdaYV<@'
p20
tp21
Rp22
ag10
(g14
S'\xdfQ\xd1{\xa3\xd9;@'
p23
tp24
Rp25
ag10
(g14
S'7\x1fKm\x06\xca;@'
p26
tp27
Rp28
ag10
(g14
S'`\xb8\x91\xcd\xb8\xbe;@'
p29
tp30
Rp31
ag10
(g14
S'\xe7@D:\xce\xfe;@'
p32
tp33
Rp34
ag10
(g14
S'\x91u\xf2}\xdbJ<@'
p35
tp36
Rp37
ag10
(g14
S'\xe0\xd2,\xe4\xe1G<@'
p38
tp39
Rp40
ag10
(g14
S'\x9e\xe9\x19\xd4\x8f\xe2:@'
p41
tp42
Rp43
ag10
(g14
S'd_&@I\n;@'
p44
tp45
Rp46
ag10
(g14
S'\xeb\x8d\xb9\n\x81*;@'
p47
tp48
Rp49
ag10
(g14
S'\x9dL\x185-\xfe;@'
p50
tp51
Rp52
ag10
(g14
S'>M\r#@%;@'
p53
tp54
Rp55
ag10
(g14
S'T:e};\xf8;@'
p56
tp57
Rp58
ag10
(g14
S'\x14c\x15i\x81%<@'
p59
tp60
Rp61
ag10
(g14
S'~\xae\x88[R\x8e;@'
p62
tp63
Rp64
ag10
(g14
S'\x8e\xc9 \x12\xdd$;@'
p65
tp66
Rp67
ag10
(g14
S'\xd5\x16\xde\x9d/\x9a;@'
p68
tp69
Rp70
ag10
(g14
S'\x05\xb8\x05Q#\xe0;@'
p71
tp72
Rp73
ag10
(g14
S'w\x0b|\x0f.@;@'
p74
tp75
Rp76
asS'target'
p77
(lp78
g10
(g14
S'\xb9\x9a\xfe\xee$_P@'
p79
tp80
Rp81
ag10
(g14
S"\xcb\xf4\x0f\xd7\x18'L@"
p82
tp83
Rp84
ag10
(g14
S'PI\xcbD\xfetP@'
p85
tp86
Rp87
ag10
(g14
S'6sb\x0f\x8c\x1cR@'
p88
tp89
Rp90
ag10
(g14
S'$krqwER@'
p91
tp92
Rp93
ag10
(g14
S'\xf5\xff!\xaf\xc8OO@'
p94
tp95
Rp96
ag10
(g14
S'\xa7\xaan\xeaw\x07N@'
p97
tp98
Rp99
ag10
(g14
S'\x8a\xf3\xf4\xda\xdc\xb3M@'
p100
tp101
Rp102
ag10
(g14
S'\x16\xf8\xe4\x14-vU@'
p103
tp104
Rp105
ag10
(g14
S'(\x81j\x12e\x84Q@'
p106
tp107
Rp108
ag10
(g14
S'C\x81i\x87\xa3\xc4Q@'
p109
tp110
Rp111
ag10
(g14
S'\x92\xe8\xec\xbcZ2P@'
p112
tp113
Rp114
ag10
(g14
S'p\xfd\x7f\xc0~\x1bR@'
p115
tp116
Rp117
ag10
(g14
S'\xafL\xaf\xda+\x12N@'
p118
tp119
Rp120
ag10
(g14
S'\xf3#e\xa4\x933L@'
p121
tp122
Rp123
ag10
(g14
S'\xd1 \xcf\xdf\xd7FQ@'
p124
tp125
Rp126
ag10
(g14
S'\x9e\xdb\xf9%t\xdeR@'
p127
tp128
Rp129
ag10
(g14
S'\x12\x12\x93eq\xa4R@'
p130
tp131
Rp132
ag10
(g14
S'@\t\xf00\x891P@'
p133
tp134
Rp135
ag10
(g14
S'\xebWk\x8dLwU@'
p136
tp137
Rp138
asssss.