(dp0
S'../Data/sqlite_62.csv'
p1
(dp2
S'../Data/sqlite_76.csv'
p3
(dp4
F0.15
(dp5
S'mmre'
p6
(dp7
S'bellwether'
p8
(lp9
cnumpy.core.multiarray
scalar
p10
(cnumpy
dtype
p11
(S'f8'
p12
I0
I1
tp13
Rp14
(I3
S'<'
p15
NNNI-1
I-1
I0
tp16
bS'\xb8\x99!u\xe3@8@'
p17
tp18
Rp19
ag10
(g14
S'n\x02!&z_8@'
p20
tp21
Rp22
ag10
(g14
S'\xeeM\x871\x1db8@'
p23
tp24
Rp25
ag10
(g14
S'\xfe\xcd\x9a\xfc\x15\x888@'
p26
tp27
Rp28
ag10
(g14
S'?\xf1L\xd7:J8@'
p29
tp30
Rp31
ag10
(g14
S' G\xff\xba\x1d78@'
p32
tp33
Rp34
ag10
(g14
S'U3\x06\xa2n\x8c8@'
p35
tp36
Rp37
ag10
(g14
S'\x96\xe6Q\xe8\x1eM8@'
p38
tp39
Rp40
ag10
(g14
S'\x9c%<\x02\xad\xb08@'
p41
tp42
Rp43
ag10
(g14
S'\x08\xabQ\x97.\x1e8@'
p44
tp45
Rp46
ag10
(g14
S'\x07\xef\x9f\tGY8@'
p47
tp48
Rp49
ag10
(g14
S'\xfc\xe4\x18o\x89L8@'
p50
tp51
Rp52
ag10
(g14
S'\xa0\x18[\x90\xefM8@'
p53
tp54
Rp55
ag10
(g14
S'\xf3a\xfb\x8f _8@'
p56
tp57
Rp58
ag10
(g14
S'y\xbfyg"(8@'
p59
tp60
Rp61
ag10
(g14
S'\x8a\xf5\xe9iSj8@'
p62
tp63
Rp64
ag10
(g14
S'\x9e=\x83$"k8@'
p65
tp66
Rp67
ag10
(g14
S'E_\x02L\x00^8@'
p68
tp69
Rp70
ag10
(g14
S'SJ*\x909R8@'
p71
tp72
Rp73
ag10
(g14
S'7$\xfbJ\xecO8@'
p74
tp75
Rp76
asS'target'
p77
(lp78
g10
(g14
S'\xb8\x7f\x15\xf93=1@'
p79
tp80
Rp81
ag10
(g14
S'\xber:P\xc3\x9c2@'
p82
tp83
Rp84
ag10
(g14
S'\x99%\xc7f\x82\xc20@'
p85
tp86
Rp87
ag10
(g14
S' \xdac"{\x081@'
p88
tp89
Rp90
ag10
(g14
S'bc;\x80m\xdf1@'
p91
tp92
Rp93
ag10
(g14
S'B\\F\xe0No1@'
p94
tp95
Rp96
ag10
(g14
S'\xe5g\x16l\xf6\xaa/@'
p97
tp98
Rp99
ag10
(g14
S"\xb0\xbfP\xdf'\x014@"
p100
tp101
Rp102
ag10
(g14
S'\xe2\x18\t\xb0\xe5\xfb0@'
p103
tp104
Rp105
ag10
(g14
S'\xc0\x08\xdf_\x8b\x8c0@'
p106
tp107
Rp108
ag10
(g14
S'N#\xceo\r\x9e1@'
p109
tp110
Rp111
ag10
(g14
S'#\xc0\x819J\xc60@'
p112
tp113
Rp114
ag10
(g14
S'\x1b\xfal\xd2\x01k0@'
p115
tp116
Rp117
ag10
(g14
S'H\x97\x01xI\n1@'
p118
tp119
Rp120
ag10
(g14
S'B\xd6P\xe1\x19L2@'
p121
tp122
Rp123
ag10
(g14
S'w9\x9a\x18\xc2\x030@'
p124
tp125
Rp126
ag10
(g14
S'.P\xa5\xa0a\x8a2@'
p127
tp128
Rp129
ag10
(g14
S'7z\xc2\x8f\xb6w/@'
p130
tp131
Rp132
ag10
(g14
S'\xe0\xe8(\xa7\x83\xb00@'
p133
tp134
Rp135
ag10
(g14
S'\xaa\xa8\xcb:H,0@'
p136
tp137
Rp138
asssss.