(dp0
S'../Data/sqlite_19.csv'
p1
(dp2
S'../Data/sqlite_63.csv'
p3
(dp4
F0.25
(dp5
S'mmre'
p6
(dp7
S'bellwether'
p8
(lp9
cnumpy.core.multiarray
scalar
p10
(cnumpy
dtype
p11
(S'f8'
p12
I0
I1
tp13
Rp14
(I3
S'<'
p15
NNNI-1
I-1
I0
tp16
bS'\xe8\xc7{2b\xf7O@'
p17
tp18
Rp19
ag10
(g14
S'\xec:\x10\xf4\x06\x02P@'
p20
tp21
Rp22
ag10
(g14
S'\x82\x94+<\xf0\xfaO@'
p23
tp24
Rp25
ag10
(g14
S'\xe5b3oJ\xf2O@'
p26
tp27
Rp28
ag10
(g14
S'.2a\xb8\xcb\xe8O@'
p29
tp30
Rp31
ag10
(g14
S'\xc7\xd6K9\xc4\x03P@'
p32
tp33
Rp34
ag10
(g14
S'\xc5\xd2\xf5C6\xfdO@'
p35
tp36
Rp37
ag10
(g14
S'npg\xc0O\xffO@'
p38
tp39
Rp40
ag10
(g14
S'zu\x8f\x8bG\x00P@'
p41
tp42
Rp43
ag10
(g14
S'\xc6\x97\x8d@\x92\xfdO@'
p44
tp45
Rp46
ag10
(g14
S'\xebu\xc5\xb7\xab\x03P@'
p47
tp48
Rp49
ag10
(g14
S'"\xcb\'\x19V\xfaO@'
p50
tp51
Rp52
ag10
(g14
S'\x12Yw\x05\x16\xf9O@'
p53
tp54
Rp55
ag10
(g14
S'\xf3k\xe02\xe2\x02P@'
p56
tp57
Rp58
ag10
(g14
S'\xd5/iz\xc4\x00P@'
p59
tp60
Rp61
ag10
(g14
S'D\\ma\\\x03P@'
p62
tp63
Rp64
ag10
(g14
S'Q&\xb7K)\xf8O@'
p65
tp66
Rp67
ag10
(g14
S'\x8f\xfcVq<\xfbO@'
p68
tp69
Rp70
ag10
(g14
S'\xacFM\x8d\x89\x00P@'
p71
tp72
Rp73
ag10
(g14
S'\x1b \xe6\xbfT\xf8O@'
p74
tp75
Rp76
asS'target'
p77
(lp78
g10
(g14
S'3\x06s"-""@'
p79
tp80
Rp81
ag10
(g14
S'\xd6/C\xe7R\xf2!@'
p82
tp83
Rp84
ag10
(g14
S'i2P\xf0\x19B#@'
p85
tp86
Rp87
ag10
(g14
S'\xb9y$\xc7\xe2\xa8"@'
p88
tp89
Rp90
ag10
(g14
S'\xd17|qS\x1d#@'
p91
tp92
Rp93
ag10
(g14
S';F|\x83\xf3<#@'
p94
tp95
Rp96
ag10
(g14
S'\x16\x1a\x05\xd9w\xd0!@'
p97
tp98
Rp99
ag10
(g14
S'\xc8=X\x9cS\x88"@'
p100
tp101
Rp102
ag10
(g14
S'\x0b\xe8\x8aZ\x8d\xc5"@'
p103
tp104
Rp105
ag10
(g14
S'\'\xc6C\xfc\x83\xd7"@'
p106
tp107
Rp108
ag10
(g14
S'\xe7hQPPf"@'
p109
tp110
Rp111
ag10
(g14
S'\x86\x87\xc4\xb0&\xc1!@'
p112
tp113
Rp114
ag10
(g14
S'\xae\x98\xb5e\x8d\x1f"@'
p115
tp116
Rp117
ag10
(g14
S'\xe9\xfd\\\xbe7p!@'
p118
tp119
Rp120
ag10
(g14
S'\xad\x0cy:h\x00"@'
p121
tp122
Rp123
ag10
(g14
S' R\xbe]r\x04#@'
p124
tp125
Rp126
ag10
(g14
S'\t=\xfc&\x1e\xd4"@'
p127
tp128
Rp129
ag10
(g14
S'\xed[\xb9\x84 \xb6!@'
p130
tp131
Rp132
ag10
(g14
S')\x01\xd0\x0f\xc1\xbb"@'
p133
tp134
Rp135
ag10
(g14
S'+\xf2\x152$\xf3!@'
p136
tp137
Rp138
asssss.