(dp0
S'../Data/sqlite_44.csv'
p1
(dp2
S'../Data/sqlite_78.csv'
p3
(dp4
F0.25
(dp5
S'mmre'
p6
(dp7
S'bellwether'
p8
(lp9
cnumpy.core.multiarray
scalar
p10
(cnumpy
dtype
p11
(S'f8'
p12
I0
I1
tp13
Rp14
(I3
S'<'
p15
NNNI-1
I-1
I0
tp16
bS'\xc2\xbe\xef\x7f\x96wN@'
p17
tp18
Rp19
ag10
(g14
S'\xc2U\x8da\x01dN@'
p20
tp21
Rp22
ag10
(g14
S'y\x1a\xbbn9|N@'
p23
tp24
Rp25
ag10
(g14
S'\x84\xc2\x08QX^N@'
p26
tp27
Rp28
ag10
(g14
S'x\xeasm\xe5ZN@'
p29
tp30
Rp31
ag10
(g14
S'\xa2;\xcd5\x04eN@'
p32
tp33
Rp34
ag10
(g14
S'U\xb2\x82\n\xb2IN@'
p35
tp36
Rp37
ag10
(g14
S'\x8b*Y\x1f\x8aaN@'
p38
tp39
Rp40
ag10
(g14
S'J3\xbbt\x8fpN@'
p41
tp42
Rp43
ag10
(g14
S'|\xe7j\xc1zuN@'
p44
tp45
Rp46
ag10
(g14
S'xfP\xce\xafUN@'
p47
tp48
Rp49
ag10
(g14
S'\xe2\xc0\x04W}mN@'
p50
tp51
Rp52
ag10
(g14
S'\x996\xdf\xb1\xb0RN@'
p53
tp54
Rp55
ag10
(g14
S'\xbe|)\x89\xbdpN@'
p56
tp57
Rp58
ag10
(g14
S'\xa87\x9dT\xc4`N@'
p59
tp60
Rp61
ag10
(g14
S'\x17\xaeK\xb1\x1fuN@'
p62
tp63
Rp64
ag10
(g14
S'\xb0\xbc\xb6Z\x16yN@'
p65
tp66
Rp67
ag10
(g14
S'd_\xe1\xaf\x0esN@'
p68
tp69
Rp70
ag10
(g14
S'\x19Y\xefPAWN@'
p71
tp72
Rp73
ag10
(g14
S'\xb5\xe5\x9eJ\xebnN@'
p74
tp75
Rp76
asS'target'
p77
(lp78
g10
(g14
S'~\xde\xaaP\xfa\xa32@'
p79
tp80
Rp81
ag10
(g14
S'%\xb0CD\x8a\xf84@'
p82
tp83
Rp84
ag10
(g14
S'M-\xca\xc1\x12S2@'
p85
tp86
Rp87
ag10
(g14
S'\x86\x19\xfd\xa9\xcd\x833@'
p88
tp89
Rp90
ag10
(g14
S'\x15\x17\xd5%\x08K4@'
p91
tp92
Rp93
ag10
(g14
S'\xab\x9b\x89J[\xc93@'
p94
tp95
Rp96
ag10
(g14
S'\xa1\xea\xcd\x8c\xc405@'
p97
tp98
Rp99
ag10
(g14
S';\xde\xa1\xc8\xe7\xaa2@'
p100
tp101
Rp102
ag10
(g14
S'w\x8f1\xe2\x86,5@'
p103
tp104
Rp105
ag10
(g14
S'T\x08Eg\xadB3@'
p106
tp107
Rp108
ag10
(g14
S'\xaa\x0b\xd1\xf7\xe4\xb14@'
p109
tp110
Rp111
ag10
(g14
S'|bwM\xdeL3@'
p112
tp113
Rp114
ag10
(g14
S'\xf1N\xc4\xbf\xcd\x905@'
p115
tp116
Rp117
ag10
(g14
S'\xc0@\x08\xdd$l3@'
p118
tp119
Rp120
ag10
(g14
S'g6;?%25@'
p121
tp122
Rp123
ag10
(g14
S'\t\xf6\x1a\xf9\x99\xf83@'
p124
tp125
Rp126
ag10
(g14
S'\xd5N\xcb\xaa~\xd72@'
p127
tp128
Rp129
ag10
(g14
S'~\xb5\xfa\xf9\x11J3@'
p130
tp131
Rp132
ag10
(g14
S'\xa5\r]\xa8\xdeP3@'
p133
tp134
Rp135
ag10
(g14
S'\x99\xf8k\xb9@w3@'
p136
tp137
Rp138
asssss.