(dp0
S'../Data/sqlite_79.csv'
p1
(dp2
S'../Data/sqlite_90.csv'
p3
(dp4
F0.3
(dp5
S'mmre'
p6
(dp7
S'bellwether'
p8
(lp9
cnumpy.core.multiarray
scalar
p10
(cnumpy
dtype
p11
(S'f8'
p12
I0
I1
tp13
Rp14
(I3
S'<'
p15
NNNI-1
I-1
I0
tp16
bS'\xcb^"\xd6\x01iX@'
p17
tp18
Rp19
ag10
(g14
S'\x11\xcc8{\x05gX@'
p20
tp21
Rp22
ag10
(g14
S'N\xe8k0xgX@'
p23
tp24
Rp25
ag10
(g14
S'F\x03\xe2\xb4\xeagX@'
p26
tp27
Rp28
ag10
(g14
S'n\x8c3\x13RiX@'
p29
tp30
Rp31
ag10
(g14
S'\xed\xdc\x10\xe7)gX@'
p32
tp33
Rp34
ag10
(g14
S'e\x1d\x94\xa0\xa6lX@'
p35
tp36
Rp37
ag10
(g14
S'k\xaf\xb0\xa0\x92gX@'
p38
tp39
Rp40
ag10
(g14
S'\x0fW\xcf;vnX@'
p41
tp42
Rp43
ag10
(g14
S'^\xee\xee\xd4MlX@'
p44
tp45
Rp46
ag10
(g14
S'0s\xee\x95FkX@'
p47
tp48
Rp49
ag10
(g14
S'W`\xaez1lX@'
p50
tp51
Rp52
ag10
(g14
S'\xadN\xcb\\FjX@'
p53
tp54
Rp55
ag10
(g14
S'+\x83\xd6\x89\xc7hX@'
p56
tp57
Rp58
ag10
(g14
S'\x0c)0l\xa0iX@'
p59
tp60
Rp61
ag10
(g14
S'b\xf8\x80\x9e\x16hX@'
p62
tp63
Rp64
ag10
(g14
S'P\xb8}\x7fFiX@'
p65
tp66
Rp67
ag10
(g14
S'+Av\x91\xc3lX@'
p68
tp69
Rp70
ag10
(g14
S'\xb4\x1aK|\x06hX@'
p71
tp72
Rp73
ag10
(g14
S'\x03HP8flX@'
p74
tp75
Rp76
asS'target'
p77
(lp78
g10
(g14
S'\xa7\xaaK"6\x9dA@'
p79
tp80
Rp81
ag10
(g14
S'd\xff\x8f\xf3[PA@'
p82
tp83
Rp84
ag10
(g14
S'\xa8\nI\xf7\xa4eA@'
p85
tp86
Rp87
ag10
(g14
S'l\xad\xaa\x0e\xa4yB@'
p88
tp89
Rp90
ag10
(g14
S'\x11\xc6\xcb\x1cL\x0bB@'
p91
tp92
Rp93
ag10
(g14
S'\xc37\xc8\xe2^|A@'
p94
tp95
Rp96
ag10
(g14
S'\x8c\xdf5\x03\x8dF=@'
p97
tp98
Rp99
ag10
(g14
S'\xacCB\x97J\x0eB@'
p100
tp101
Rp102
ag10
(g14
S'l\x0f\x8b$s\x8d>@'
p103
tp104
Rp105
ag10
(g14
S'?\xbb-\x14"\\?@'
p106
tp107
Rp108
ag10
(g14
S'68\xb63\x83\x10@@'
p109
tp110
Rp111
ag10
(g14
S'*uN\x7f\xf5\x13A@'
p112
tp113
Rp114
ag10
(g14
S'\xf6\xc1\x9b\xa3\xd6\xc9A@'
p115
tp116
Rp117
ag10
(g14
S'\xadU\x7fb\x88\xcbB@'
p118
tp119
Rp120
ag10
(g14
S'\xb3\x10\xdbVpM@@'
p121
tp122
Rp123
ag10
(g14
S'\x85\xf4\xac\x8b\xa9\x14A@'
p124
tp125
Rp126
ag10
(g14
S'\xb4<\xda\xef\xe9\x04C@'
p127
tp128
Rp129
ag10
(g14
S')\x1c\xfd\x88`|B@'
p130
tp131
Rp132
ag10
(g14
S'r\x18\x9b\x9eL\x0eB@'
p133
tp134
Rp135
ag10
(g14
S'\xecR\x06\xf6a\x03@@'
p136
tp137
Rp138
asssss.