(dp0
S'../Data/sqlite_43.csv'
p1
(dp2
S'../Data/sqlite_14.csv'
p3
(dp4
F0.25
(dp5
S'abs_res'
p6
(dp7
S'bellwether'
p8
(lp9
cnumpy.core.multiarray
scalar
p10
(cnumpy
dtype
p11
(S'f8'
p12
I0
I1
tp13
Rp14
(I3
S'<'
p15
NNNI-1
I-1
I0
tp16
bS'3$M\xa9\x8el<A'
p17
tp18
Rp19
ag10
(g14
S'\xc8\x92_\x8c?m<A'
p20
tp21
Rp22
ag10
(g14
S'\x88\x07\xf3\xa4Hm<A'
p23
tp24
Rp25
ag10
(g14
S'533\x13\rl<A'
p26
tp27
Rp28
ag10
(g14
S'\xcag\xd8\x95\x89n<A'
p29
tp30
Rp31
ag10
(g14
S"\xba\x9d\xef'\x81m<A"
p32
tp33
Rp34
ag10
(g14
S'&1\x08l\x93m<A'
p35
tp36
Rp37
ag10
(g14
S'\xfd\xc5\x92_\xb4l<A'
p38
tp39
Rp40
ag10
(g14
S'\x98\x0bI\xb3Gm<A'
p41
tp42
Rp43
ag10
(g14
S'\x9fE\xb6\xd3\xf8l<A'
p44
tp45
Rp46
ag10
(g14
S'!\xa1\x8c\xfe\xebm<A'
p47
tp48
Rp49
ag10
(g14
S'\xd5i\x03\xddSm<A'
p50
tp51
Rp52
ag10
(g14
S'I\xe1ztrm<A'
p53
tp54
Rp55
ag10
(g14
S']*\xce^1l<A'
p56
tp57
Rp58
ag10
(g14
S'\x82\xdck\x0e}l<A'
p59
tp60
Rp61
ag10
(g14
S'A\xb4\xc8v\xc2m<A'
p62
tp63
Rp64
ag10
(g14
S'\xfc\xf0\x19\xd6wk<A'
p65
tp66
Rp67
ag10
(g14
S'\xcav\xbe?jl<A'
p68
tp69
Rp70
ag10
(g14
S'lff&\xd4k<A'
p71
tp72
Rp73
ag10
(g14
S'g\x10X\xb9\xe1l<A'
p74
tp75
Rp76
asS'target'
p77
(lp78
g10
(g14
S'\x83\x16\xd9\xce\xf7\rb@'
p79
tp80
Rp81
ag10
(g14
S'\xd8\xa3p=\n\xd3`@'
p82
tp83
Rp84
ag10
(g14
S'\x97\xc4 \xb0r\xfca@'
p85
tp86
Rp87
ag10
(g14
S'\x87l\xe7\xfb\xa9\xf3b@'
p88
tp89
Rp90
ag10
(g14
S'\x93l\xe7\xfb\xa9\xd5b@'
p91
tp92
Rp93
ag10
(g14
S'=5^\xbaI\x08c@'
p94
tp95
Rp96
ag10
(g14
S'03333\xafb@'
p97
tp98
Rp99
ag10
(g14
S'\xfc*\x87\x16\xd90a@'
p100
tp101
Rp102
ag10
(g14
S'\x18\x04V\x0e-rd@'
p103
tp104
Rp105
ag10
(g14
S'x\x93\x18\x04V\xdeb@'
p106
tp107
Rp108
ag10
(g14
S'(\xdd$\x06\x81\xf9b@'
p109
tp110
Rp111
ag10
(g14
S'\xe1\xfb\xa9\xf1\xd2)e@'
p112
tp113
Rp114
ag10
(g14
S'>`\xe5\xd0"#c@'
p115
tp116
Rp117
ag10
(g14
S'\xc0\x9f\x1a/\xdd\x96b@'
p118
tp119
Rp120
ag10
(g14
S'\xefS\xe3\xa5\x9b$b@'
p121
tp122
Rp123
ag10
(g14
S'.\xdd$\x06\x81}c@'
p124
tp125
Rp126
ag10
(g14
S'\xd1\xcc\xcc\xcc\xcc\xd2b@'
p127
tp128
Rp129
ag10
(g14
S'\xeb|?5^\x1cd@'
p130
tp131
Rp132
ag10
(g14
S'T\xe3\xa5\x9b\xc4\xe8b@'
p133
tp134
Rp135
ag10
(g14
S'\xd8\xa3p=\n\xe7b@'
p136
tp137
Rp138
asssss.