(dp0
S'../Data/sqlite_17.csv'
p1
(dp2
S'../Data/sqlite_84.csv'
p3
(dp4
F0.25
(dp5
S'mmre'
p6
(dp7
S'bellwether'
p8
(lp9
cnumpy.core.multiarray
scalar
p10
(cnumpy
dtype
p11
(S'f8'
p12
I0
I1
tp13
Rp14
(I3
S'<'
p15
NNNI-1
I-1
I0
tp16
bS'\xbcgf\xe0\xefxF@'
p17
tp18
Rp19
ag10
(g14
S'I\xa8\xb8\xde5CF@'
p20
tp21
Rp22
ag10
(g14
S'\x96b\xc7\xc8\n\xc2E@'
p23
tp24
Rp25
ag10
(g14
S'z\xea\x1f\xa0\x86}F@'
p26
tp27
Rp28
ag10
(g14
S'\xf0\x9d\x1d\xfe4\x89F@'
p29
tp30
Rp31
ag10
(g14
S'\x06i\xcc\xedLWF@'
p32
tp33
Rp34
ag10
(g14
S'F\xae\xee\xf3WmF@'
p35
tp36
Rp37
ag10
(g14
S'\xa2\xba]\x05ZfF@'
p38
tp39
Rp40
ag10
(g14
S'\xef\x1c\xd5\xba\x91\xf6E@'
p41
tp42
Rp43
ag10
(g14
S'YV\xed\xc2\xa9IF@'
p44
tp45
Rp46
ag10
(g14
S'#\x88\xd9&\x837F@'
p47
tp48
Rp49
ag10
(g14
S'Sb\x9a-\xbffF@'
p50
tp51
Rp52
ag10
(g14
S'\x02\x8f\xad\xff\x91"F@'
p53
tp54
Rp55
ag10
(g14
S'X=\x97\x1b_\xbcF@'
p56
tp57
Rp58
ag10
(g14
S'\xc8U)\x92[;F@'
p59
tp60
Rp61
ag10
(g14
S'6&Uw=6F@'
p62
tp63
Rp64
ag10
(g14
S'\xc4p\x0b\xe9_+F@'
p65
tp66
Rp67
ag10
(g14
S'\n\xfc\x105\xd70F@'
p68
tp69
Rp70
ag10
(g14
S'P)\x93X\xc3.F@'
p71
tp72
Rp73
ag10
(g14
S'B\xbb\xe8?\x11AF@'
p74
tp75
Rp76
asS'target'
p77
(lp78
g10
(g14
S'\xb5\x14ch\x86&P@'
p79
tp80
Rp81
ag10
(g14
S'8\xbdu\t6\xcbR@'
p82
tp83
Rp84
ag10
(g14
S'\xc8VR\xeb\xcc\x96R@'
p85
tp86
Rp87
ag10
(g14
S'y\x0e\tH\xb6.P@'
p88
tp89
Rp90
ag10
(g14
S'V\xefd\xf2n\xcdQ@'
p91
tp92
Rp93
ag10
(g14
S'\x14\xa3)\xa6l\xe6Q@'
p94
tp95
Rp96
ag10
(g14
S'\x8f\xcb\xaf\xf4\xd1\x16Q@'
p97
tp98
Rp99
ag10
(g14
S'Y\xb3\x1e[\xf0\x8eP@'
p100
tp101
Rp102
ag10
(g14
S'D\x89J\x19\x043W@'
p103
tp104
Rp105
ag10
(g14
S'ZFzk~+X@'
p106
tp107
Rp108
ag10
(g14
S'k\xbb\xc5\x82\x0f/G@'
p109
tp110
Rp111
ag10
(g14
S'w\x84\x07U\xc1\x18Y@'
p112
tp113
Rp114
ag10
(g14
S'W\xb4V\x1b\x03\xe3P@'
p115
tp116
Rp117
ag10
(g14
S',\xa09Q1\xbeH@'
p118
tp119
Rp120
ag10
(g14
S'\xa1\xd9v\xc3-\xdcQ@'
p121
tp122
Rp123
ag10
(g14
S'\x05\xbdBr\xe2\x81Q@'
p124
tp125
Rp126
ag10
(g14
S'\xdf\x91\xdfVS\xdeP@'
p127
tp128
Rp129
ag10
(g14
S'\xc9wV9\xfe\xb4M@'
p130
tp131
Rp132
ag10
(g14
S'\x05\xfe\x11\xf8\xb4\xe9P@'
p133
tp134
Rp135
ag10
(g14
S'g]\x11P\xc1sT@'
p136
tp137
Rp138
asssss.