(dp0
S'../Data/sqlite_96.csv'
p1
(dp2
S'../Data/sqlite_97.csv'
p3
(dp4
F0.05
(dp5
S'mmre'
p6
(dp7
S'bellwether'
p8
(lp9
cnumpy.core.multiarray
scalar
p10
(cnumpy
dtype
p11
(S'f8'
p12
I0
I1
tp13
Rp14
(I3
S'<'
p15
NNNI-1
I-1
I0
tp16
bS'\x08\xad\xd5\x90\xd9d)@'
p17
tp18
Rp19
ag10
(g14
S'y\x1c\x856\xeb<)@'
p20
tp21
Rp22
ag10
(g14
S'\xff\x0c\xa1\x9f\xd3D)@'
p23
tp24
Rp25
ag10
(g14
S'\x00@\xb3\xd1\xd3[)@'
p26
tp27
Rp28
ag10
(g14
S'\xaa\xdb\xc2?D\x1a)@'
p29
tp30
Rp31
ag10
(g14
S'V\xdd2\xe5\x96+)@'
p32
tp33
Rp34
ag10
(g14
S'\xc3L\x13\xb0pV)@'
p35
tp36
Rp37
ag10
(g14
S'\xfc\x9b5\xf1\x13\x10)@'
p38
tp39
Rp40
ag10
(g14
S'\xf9Q\x00\xc0\xfe>)@'
p41
tp42
Rp43
ag10
(g14
S'\x9a`\xaf\x9d\xfd9)@'
p44
tp45
Rp46
ag10
(g14
S'm\x1a\x19\xda\xbaB)@'
p47
tp48
Rp49
ag10
(g14
S'H{LW\xa9f)@'
p50
tp51
Rp52
ag10
(g14
S'\xd4\xe3\xe2\xf2\xdb/)@'
p53
tp54
Rp55
ag10
(g14
S'&/\xd4\xa3MC)@'
p56
tp57
Rp58
ag10
(g14
S'\x0f0\x05/U\x16)@'
p59
tp60
Rp61
ag10
(g14
S'\x93\x17p\x88].)@'
p62
tp63
Rp64
ag10
(g14
S'\xd2\x9fO\x87*\x1b)@'
p65
tp66
Rp67
ag10
(g14
S'\xfc\x0fx\xe2!C)@'
p68
tp69
Rp70
ag10
(g14
S'\x9d\xb4z\xf2\xb1J)@'
p71
tp72
Rp73
ag10
(g14
S'a;\xccX\x18B)@'
p74
tp75
Rp76
asS'target'
p77
(lp78
g10
(g14
S'\xfe\xec\xd2\xfd\x08jY@'
p79
tp80
Rp81
ag10
(g14
S'\x00Rxk\xc8\xde]@'
p82
tp83
Rp84
ag10
(g14
S'o\x16\x89\xf12\x82X@'
p85
tp86
Rp87
ag10
(g14
S'\xae\xad$c\xecd\\@'
p88
tp89
Rp90
ag10
(g14
S'\xc0\xa3^h9\xd5X@'
p91
tp92
Rp93
ag10
(g14
S'\xc2v\xa1\xdc2\nd@'
p94
tp95
Rp96
ag10
(g14
S'}\tN\xdd9\\C@'
p97
tp98
Rp99
ag10
(g14
S'R\x83*\t\x00\xb5C@'
p100
tp101
Rp102
ag10
(g14
S'\xb4?\xf1\xd7\xb0.X@'
p103
tp104
Rp105
ag10
(g14
S'\xcfy\x13\xd0PfG@'
p106
tp107
Rp108
ag10
(g14
S'\xbf6\x18|\x8b\xd4a@'
p109
tp110
Rp111
ag10
(g14
S'\x8c:oM&\xceA@'
p112
tp113
Rp114
ag10
(g14
S'8@\x98\x92fdM@'
p115
tp116
Rp117
ag10
(g14
S'Jd\xfa\xff^\xcbY@'
p118
tp119
Rp120
ag10
(g14
S',\x98\x83\xca\x16[C@'
p121
tp122
Rp123
ag10
(g14
S'\x80\x85(;G\xe9W@'
p124
tp125
Rp126
ag10
(g14
S'\xeb4.%D\xdaZ@'
p127
tp128
Rp129
ag10
(g14
S'\xf3==X3?Y@'
p130
tp131
Rp132
ag10
(g14
S'4D\xf0\x9e_\xe1X@'
p133
tp134
Rp135
ag10
(g14
S'y#\xa6\xc3U\x08b@'
p136
tp137
Rp138
asssss.