(dp0
S'../Data/sqlite_74.csv'
p1
(dp2
S'../Data/sqlite_28.csv'
p3
(dp4
F0.25
(dp5
S'abs_res'
p6
(dp7
S'bellwether'
p8
(lp9
cnumpy.core.multiarray
scalar
p10
(cnumpy
dtype
p11
(S'f8'
p12
I0
I1
tp13
Rp14
(I3
S'<'
p15
NNNI-1
I-1
I0
tp16
bS'\xf2\xc3g\x90\x16aiA'
p17
tp18
Rp19
ag10
(g14
S'\xfaF(\xefU\\iA'
p20
tp21
Rp22
ag10
(g14
S'\x80\x05\xc8\r\xbb_iA'
p23
tp24
Rp25
ag10
(g14
S'\x96\xde\x96=\x02SiA'
p26
tp27
Rp28
ag10
(g14
S'/$M\xd9\xaeaiA'
p29
tp30
Rp31
ag10
(g14
S'I~\xb1\x98o[iA'
p32
tp33
Rp34
ag10
(g14
S'.\xf9\xc5\xb6\xedZiA'
p35
tp36
Rp37
ag10
(g14
S';Q\xffnRjiA'
p38
tp39
Rp40
ag10
(g14
S'\x9cn\x12\x97SaiA'
p41
tp42
Rp43
ag10
(g14
S'\xcev\xbe\xe7dZiA'
p44
tp45
Rp46
ag10
(g14
S'\x03\xf3D\xad\x8c`iA'
p47
tp48
Rp49
ag10
(g14
S'\x18\xe8\xb4y\xd8ZiA'
p50
tp51
Rp52
ag10
(g14
S'\xbdK7\xfd\xe6YiA'
p53
tp54
Rp55
ag10
(g14
S'c\x82\x07\x07\x03RiA'
p56
tp57
Rp58
ag10
(g14
S's\xda@o\xa1biA'
p59
tp60
Rp61
ag10
(g14
S'.\x08\xacX\x1faiA'
p62
tp63
Rp64
ag10
(g14
S'\xcf\xf7SG\xe7aiA'
p65
tp66
Rp67
ag10
(g14
S'mh\x91\xb9\x05giA'
p68
tp69
Rp70
ag10
(g14
S'b\x8f\xc2\xf5CmiA'
p71
tp72
Rp73
ag10
(g14
S"\x04\xe4^'3ViA"
p74
tp75
Rp76
asS'target'
p77
(lp78
g10
(g14
S'\x87\x16\xd9\xce\xf73`@'
p79
tp80
Rp81
ag10
(g14
S'\t+\x87\x16\xd9&_@'
p82
tp83
Rp84
ag10
(g14
S'\x82\x95C\x8bl\xc1`@'
p85
tp86
Rp87
ag10
(g14
S'\xa4\x9b\xc4 \xb0*_@'
p88
tp89
Rp90
ag10
(g14
S'\xe3\xa5\x9b\xc4 \x02`@'
p91
tp92
Rp93
ag10
(g14
S'\xe1\xf9~j\xbc,`@'
p94
tp95
Rp96
ag10
(g14
S'\x8c\x97n\x12\x83@`@'
p97
tp98
Rp99
ag10
(g14
S'\xe8\xfb\xa9\xf1\xd2\xd9`@'
p100
tp101
Rp102
ag10
(g14
S'\xcf\xa1E\xb6\xf3m^@'
p103
tp104
Rp105
ag10
(g14
S'\xac\xf1\xd2Mb(`@'
p106
tp107
Rp108
ag10
(g14
S'\xf9(\\\x8f\xc2]_@'
p109
tp110
Rp111
ag10
(g14
S'\x13X9\xb4\xc8D`@'
p112
tp113
Rp114
ag10
(g14
S'hffff~`@'
p115
tp116
Rp117
ag10
(g14
S'\x8c\xc2\xf5(\\5a@'
p118
tp119
Rp120
ag10
(g14
S'\x06-\xb2\x9d\xef\x0b`@'
p121
tp122
Rp123
ag10
(g14
S'\xb7G\xe1z\x14~_@'
p124
tp125
Rp126
ag10
(g14
S'\xb8\xf3\xfd\xd4xQ_@'
p127
tp128
Rp129
ag10
(g14
S'$\xdb\xf9~j\x12a@'
p130
tp131
Rp132
ag10
(g14
S'>\xdfO\x8d\x97._@'
p133
tp134
Rp135
ag10
(g14
S'N\xb6\xf3\xfd\xd4P^@'
p136
tp137
Rp138
asssss.