(dp0
S'../Data/sqlite_47.csv'
p1
(dp2
S'../Data/sqlite_79.csv'
p3
(dp4
F0.3
(dp5
S'mmre'
p6
(dp7
S'bellwether'
p8
(lp9
cnumpy.core.multiarray
scalar
p10
(cnumpy
dtype
p11
(S'f8'
p12
I0
I1
tp13
Rp14
(I3
S'<'
p15
NNNI-1
I-1
I0
tp16
bS'\xe7\x84|\x97\xfelp@'
p17
tp18
Rp19
ag10
(g14
S'\x8a\xac \xbeAkp@'
p20
tp21
Rp22
ag10
(g14
S'bO\x19f\xbenp@'
p23
tp24
Rp25
ag10
(g14
S'\xecj\x8e\xb5\xaabp@'
p26
tp27
Rp28
ag10
(g14
S'\x0fAC\xa6f^p@'
p29
tp30
Rp31
ag10
(g14
S'\xffv\x08]ifp@'
p32
tp33
Rp34
ag10
(g14
S'\x90"|\xaf\xbblp@'
p35
tp36
Rp37
ag10
(g14
S'T\xdbi\x1f\xf8rp@'
p38
tp39
Rp40
ag10
(g14
S'b\xc8yXq\x81p@'
p41
tp42
Rp43
ag10
(g14
S'`z\xf7\x87\x94kp@'
p44
tp45
Rp46
ag10
(g14
S'n&\x1b\xb8rup@'
p47
tp48
Rp49
ag10
(g14
S'\x8b.S\x86\xd2np@'
p50
tp51
Rp52
ag10
(g14
S'\xe9\xdb\xfeX\x1bsp@'
p53
tp54
Rp55
ag10
(g14
S'4\x19$\xeb6Zp@'
p56
tp57
Rp58
ag10
(g14
S'\x94\x9c\xd2\x8f\x7fap@'
p59
tp60
Rp61
ag10
(g14
S'M\xd0E\rnvp@'
p62
tp63
Rp64
ag10
(g14
S'a:y\r\x1fcp@'
p65
tp66
Rp67
ag10
(g14
S'z\x89\xd18o\\p@'
p68
tp69
Rp70
ag10
(g14
S'M\xce\xe3\xd2\xf9kp@'
p71
tp72
Rp73
ag10
(g14
S'\xdcrD\xd2\x0ehp@'
p74
tp75
Rp76
asS'target'
p77
(lp78
g10
(g14
S"b'\xcb\xe5/\xe6#@"
p79
tp80
Rp81
ag10
(g14
S'\xb2\x00\xed\xd4\xc5m"@'
p82
tp83
Rp84
ag10
(g14
S'\xe7\xc7\x9e"HC @'
p85
tp86
Rp87
ag10
(g14
S'\x02\x1a4\xa3\x10\x18\x1e@'
p88
tp89
Rp90
ag10
(g14
S'\xca\x13\xf2o+\x1e @'
p91
tp92
Rp93
ag10
(g14
S'\x96\xc6\xf5_\xa2\x0c$@'
p94
tp95
Rp96
ag10
(g14
S'\xf2\x85\x08L\x1a\xb7\x1d@'
p97
tp98
Rp99
ag10
(g14
S'\xe2]\x81t\xc8| @'
p100
tp101
Rp102
ag10
(g14
S"_\x94\t\xd5\x9c\xa2'@"
p103
tp104
Rp105
ag10
(g14
S'\xd9\x1b\x01\xd7\xa3q$@'
p106
tp107
Rp108
ag10
(g14
S'fE\xbe3\xfc\n!@'
p109
tp110
Rp111
ag10
(g14
S'l\r\xad^\xefZ#@'
p112
tp113
Rp114
ag10
(g14
S'\x99\xbbr\xf9\xbbV$@'
p115
tp116
Rp117
ag10
(g14
S'\xcc\x12\xff\xee\xbc\x8c @'
p118
tp119
Rp120
ag10
(g14
S'\x84\x87{\x96\xd6\xc7 @'
p121
tp122
Rp123
ag10
(g14
S'j4\xae\x18\xea\xc2%@'
p124
tp125
Rp126
ag10
(g14
S'\xb6u+\xfd\x0e+"@'
p127
tp128
Rp129
ag10
(g14
S'A\xe4\xc2NcX#@'
p130
tp131
Rp132
ag10
(g14
S'\xf0r8/q\x01!@'
p133
tp134
Rp135
ag10
(g14
S'\x14\xaf\xed\xfch/!@'
p136
tp137
Rp138
asssss.