(dp0
S'../Data/sqlite_46.csv'
p1
(dp2
S'../Data/sqlite_17.csv'
p3
(dp4
F0.15
(dp5
S'abs_res'
p6
(dp7
S'bellwether'
p8
(lp9
cnumpy.core.multiarray
scalar
p10
(cnumpy
dtype
p11
(S'f8'
p12
I0
I1
tp13
Rp14
(I3
S'<'
p15
NNNI-1
I-1
I0
tp16
bS'A\xb6\xf3\xcd&]@A'
p17
tp18
Rp19
ag10
(g14
S'\x08\xd7\xa3\x80\xac]@A'
p20
tp21
Rp22
ag10
(g14
S'\xb3\xf3\xfddi^@A'
p23
tp24
Rp25
ag10
(g14
S':\xdfO\xfdB]@A'
p26
tp27
Rp28
ag10
(g14
S'\xd2MbP\x0b^@A'
p29
tp30
Rp31
ag10
(g14
S'~\x95CK\x07^@A'
p32
tp33
Rp34
ag10
(g14
S'}j\xbc\x04T^@A'
p35
tp36
Rp37
ag10
(g14
S'z\x95CK\xce]@A'
p38
tp39
Rp40
ag10
(g14
S'\xce"\xdb9\xda]@A'
p41
tp42
Rp43
ag10
(g14
S'\xd9\xce\xf7\x83\x04^@A'
p44
tp45
Rp46
ag10
(g14
S'\xf6~j\xec\xf1]@A'
p47
tp48
Rp49
ag10
(g14
S'\x90\xed|\x0fy^@A'
p50
tp51
Rp52
ag10
(g14
S'S9\xb4\xa8\xb2]@A'
p53
tp54
Rp55
ag10
(g14
S'\xa6\x1cZ\x14\xc6]@A'
p56
tp57
Rp58
ag10
(g14
S'\xb4\xc8v^\xfb]@A'
p59
tp60
Rp61
ag10
(g14
S'[\xe5\xd0\xf2=^@A'
p62
tp63
Rp64
ag10
(g14
S'q\x93\x18\x94w]@A'
p65
tp66
Rp67
ag10
(g14
S'#\\\x8f\x12%^@A'
p68
tp69
Rp70
ag10
(g14
S'\xfd*\x87\xc6L^@A'
p71
tp72
Rp73
ag10
(g14
S'V\x8f\xc2U\xa1]@A'
p74
tp75
Rp76
asS'target'
p77
(lp78
g10
(g14
S'x\xbe\x9f\x1a/\x9dp@'
p79
tp80
Rp81
ag10
(g14
S'\xc9\xca\xa1E\xb6\x8fn@'
p82
tp83
Rp84
ag10
(g14
S'\xf7\xa9\xf1\xd2M\x92m@'
p85
tp86
Rp87
ag10
(g14
S'\xcav\xbe\x9f\x1a\x93l@'
p88
tp89
Rp90
ag10
(g14
S'\xb0\xc6K7\x89\x0fq@'
p91
tp92
Rp93
ag10
(g14
S'D\xb6\xf3\xfd\xd4\x8cn@'
p94
tp95
Rp96
ag10
(g14
S'\x9cn\x12\x83\xc0\xc0k@'
p97
tp98
Rp99
ag10
(g14
S'6^\xbaI\x0c\x92p@'
p100
tp101
Rp102
ag10
(g14
S'j\x91\xed|?-p@'
p103
tp104
Rp105
ag10
(g14
S'\xbe\xf5(\\\x8f\xeal@'
p106
tp107
Rp108
ag10
(g14
S'\xcd"\xdb\xf9~\xf6l@'
p109
tp110
Rp111
ag10
(g14
S'\x95C\x8bl\xe7\x0bo@'
p112
tp113
Rp114
ag10
(g14
S'y\x95C\x8blgm@'
p115
tp116
Rp117
ag10
(g14
S'\x08-\xb2\x9d\xef\xe7m@'
p118
tp119
Rp120
ag10
(g14
S'\xf0|?5^\x92j@'
p121
tp122
Rp123
ag10
(g14
S'.3333_q@'
p124
tp125
Rp126
ag10
(g14
S'C\x0c\x02+\x87\x1an@'
p127
tp128
Rp129
ag10
(g14
S'.3333\xbbk@'
p130
tp131
Rp132
ag10
(g14
S'\xa2\x1a/\xdd$\xb0p@'
p133
tp134
Rp135
ag10
(g14
S'\x9c\x99\x99\x99\x99Ap@'
p136
tp137
Rp138
asssss.