(dp0
S'../Data/sqlite_18.csv'
p1
(dp2
S'../Data/sqlite_88.csv'
p3
(dp4
F0.25
(dp5
S'abs_res'
p6
(dp7
S'bellwether'
p8
(lp9
cnumpy.core.multiarray
scalar
p10
(cnumpy
dtype
p11
(S'f8'
p12
I0
I1
tp13
Rp14
(I3
S'<'
p15
NNNI-1
I-1
I0
tp16
bS'Vff\xe6!\xa1ZA'
p17
tp18
Rp19
ag10
(g14
S':\xa7\r\x84\xa9iZA'
p20
tp21
Rp22
ag10
(g14
S'\x18\x85\xeba\xcbsZA'
p23
tp24
Rp25
ag10
(g14
S'\x9e\xaa\xaa\x9a0OZA'
p26
tp27
Rp28
ag10
(g14
S'\x07t\xda\x00BcZA'
p29
tp30
Rp31
ag10
(g14
S'\xef\x8b%\xdf\x91EZA'
p32
tp33
Rp34
ag10
(g14
S'\x81\xc2\xf5\xa8I\x8bZA'
p35
tp36
Rp37
ag10
(g14
S'\x91\xc2\xf5\x98\xb8}ZA'
p38
tp39
Rp40
ag10
(g14
S'\x84\xebQ\x08\xe8\x8fZA'
p41
tp42
Rp43
ag10
(g14
S'\xcf@\xa7m\thZA'
p44
tp45
Rp46
ag10
(g14
S'0\n\xd7\x13\x9dNZA'
p47
tp48
Rp49
ag10
(g14
S'\xa0\rtz\x0e\xa7ZA'
p50
tp51
Rp52
ag10
(g14
S'\x81\x88\x88\x88\x12\x92ZA'
p53
tp54
Rp55
ag10
(g14
S'>~\xb1D\x0cxZA'
p56
tp57
Rp58
ag10
(g14
S'\xbfi\x03-"cZA'
p59
tp60
Rp61
ag10
(g14
S'\x01\x9d60$\x86ZA'
p62
tp63
Rp64
ag10
(g14
S'e\x03\x9d\x96:mZA'
p65
tp66
Rp67
ag10
(g14
S'\xc4i\x03\xadm_ZA'
p68
tp69
Rp70
ag10
(g14
S'x\xb1\xe4\x87n2ZA'
p71
tp72
Rp73
ag10
(g14
S'\xdb\x17K\x9e\x16JZA'
p74
tp75
Rp76
asS'target'
p77
(lp78
g10
(g14
S'T\xb8\x1eE\xa7\xd42A'
p79
tp80
Rp81
ag10
(g14
S'\xe8Q\xb8^4\xb9=A'
p82
tp83
Rp84
ag10
(g14
S'\xb7\x1e\x85+\xe1M5A'
p85
tp86
Rp87
ag10
(g14
S'\xa2p=Jc\x902A'
p88
tp89
Rp90
ag10
(g14
S'efff}<+A'
p91
tp92
Rp93
ag10
(g14
S'!\x85\xebQt.0A'
p94
tp95
Rp96
ag10
(g14
S'Z\x8f\xc2\xb5m\xd94A'
p97
tp98
Rp99
ag10
(g14
S'dfffy\x11/A'
p100
tp101
Rp102
ag10
(g14
S't=\nW\xb3\xd45A'
p103
tp104
Rp105
ag10
(g14
S'\n\xd7\xa3\xf0\xce\xba1A'
p106
tp107
Rp108
ag10
(g14
S"\xd5\xa3p\xbd`\x03'A"
p109
tp110
Rp111
ag10
(g14
S'\xa4p=J\xda41A'
p112
tp113
Rp114
ag10
(g14
S'\x87\xebQx\x9b\xf82A'
p115
tp116
Rp117
ag10
(g14
S'\xa6p=\n&I)A'
p118
tp119
Rp120
ag10
(g14
S'\x87\xebQ8V6-A'
p121
tp122
Rp123
ag10
(g14
S'u\x14\xae\x87\xfeb5A'
p124
tp125
Rp126
ag10
(g14
S'\xd4\xa3p=\xd6|-A'
p127
tp128
Rp129
ag10
(g14
S'\xb9\x1e\x85+4\x840A'
p130
tp131
Rp132
ag10
(g14
S'\xacG\xe1z\x89G1A'
p133
tp134
Rp135
ag10
(g14
S']\x8f\xc25\xe1\x942A'
p136
tp137
Rp138
asssss.