(dp0
S'../Data/sqlite_46.csv'
p1
(dp2
S'../Data/sqlite_58.csv'
p3
(dp4
F0.05
(dp5
S'abs_res'
p6
(dp7
S'bellwether'
p8
(lp9
cnumpy.core.multiarray
scalar
p10
(cnumpy
dtype
p11
(S'f8'
p12
I0
I1
tp13
Rp14
(I3
S'<'
p15
NNNI-1
I-1
I0
tp16
bS'\xa2\xef\xa7fH_BA'
p17
tp18
Rp19
ag10
(g14
S'\xf2|?%0_BA'
p20
tp21
Rp22
ag10
(g14
S'\x98\xc2\xf5\xc8\x90_BA'
p23
tp24
Rp25
ag10
(g14
S'G\n\xd7\xb3\xea^BA'
p26
tp27
Rp28
ag10
(g14
S'\xbd\xca\xa1\x05\x9e_BA'
p29
tp30
Rp31
ag10
(g14
S'\x8dl\xe7k\xef^BA'
p32
tp33
Rp34
ag10
(g14
S'\x19\xd9\xce\x07X_BA'
p35
tp36
Rp37
ag10
(g14
S'\x9f\xc4 \xc0q_BA'
p38
tp39
Rp40
ag10
(g14
S'\xae\xc6K\xc7\x90_BA'
p41
tp42
Rp43
ag10
(g14
S'933\x13\x1e_BA'
p44
tp45
Rp46
ag10
(g14
S'\xe8\xd0"\x1bQ_BA'
p47
tp48
Rp49
ag10
(g14
S'\xc0\xf5(\xdc\x15_BA'
p50
tp51
Rp52
ag10
(g14
S'&\\\x8fr]_BA'
p53
tp54
Rp55
ag10
(g14
S'\x95\x18\x04\xe6X_BA'
p56
tp57
Rp58
ag10
(g14
S'\x84?5\xce\x88_BA'
p59
tp60
Rp61
ag10
(g14
S'\xfd~j\xec\xea^BA'
p62
tp63
Rp64
ag10
(g14
S'D5^j/_BA'
p65
tp66
Rp67
ag10
(g14
S'\x16X9\x94y_BA'
p68
tp69
Rp70
ag10
(g14
S't=\n\x07p_BA'
p71
tp72
Rp73
ag10
(g14
S'\xb2\xc8vN._BA'
p74
tp75
Rp76
asS'target'
p77
(lp78
g10
(g14
S'\xf5\xfd\xd4x\xe9\xce_@'
p79
tp80
Rp81
ag10
(g14
S'.\xdd$\x06\x81M^@'
p82
tp83
Rp84
ag10
(g14
S'<^\xbaI\x0cj]@'
p85
tp86
Rp87
ag10
(g14
S'\r-\xb2\x9d\xefO[@'
p88
tp89
Rp90
ag10
(g14
S'V\xb8\x1e\x85\xeb\x89_@'
p91
tp92
Rp93
ag10
(g14
S'-Zd;\xdf\x8f\\@'
p94
tp95
Rp96
ag10
(g14
S'\x16-\xb2\x9d\xef+`@'
p97
tp98
Rp99
ag10
(g14
S'\xafG\xe1z\x14\xa6Z@'
p100
tp101
Rp102
ag10
(g14
S'\x19\xb0rh\x91\xf5_@'
p103
tp104
Rp105
ag10
(g14
S'\xbfK7\x89AP^@'
p106
tp107
Rp108
ag10
(g14
S'H\xb8\x1e\x85\xeb\xa9]@'
p109
tp110
Rp111
ag10
(g14
S'\x85\x95C\x8bl\x03`@'
p112
tp113
Rp114
ag10
(g14
S'\x07\x02+\x87\x16)^@'
p115
tp116
Rp117
ag10
(g14
S'|\xbe\x9f\x1a/\x8d^@'
p118
tp119
Rp120
ag10
(g14
S'\x0c\x83\xc0\xca\xa1\x95[@'
p121
tp122
Rp123
ag10
(g14
S'\xed|?5^\x12`@'
p124
tp125
Rp126
ag10
(g14
S'Sd;\xdfO\xb1a@'
p127
tp128
Rp129
ag10
(g14
S'd9\xb4\xc8v&`@'
p130
tp131
Rp132
ag10
(g14
S'\xfd(\\\x8f\xc2\x9d^@'
p133
tp134
Rp135
ag10
(g14
S'\xe1&1\x08\xac\xc8`@'
p136
tp137
Rp138
asssss.