(dp0
S'../Data/sqlite_71.csv'
p1
(dp2
S'../Data/sqlite_6.csv'
p3
(dp4
F0.2
(dp5
S'abs_res'
p6
(dp7
S'bellwether'
p8
(lp9
cnumpy.core.multiarray
scalar
p10
(cnumpy
dtype
p11
(S'f8'
p12
I0
I1
tp13
Rp14
(I3
S'<'
p15
NNNI-1
I-1
I0
tp16
bS'\x0e\x11\x115\x05WkA'
p17
tp18
Rp19
ag10
(g14
S'\x15\xd7\xa3D\x9dakA'
p20
tp21
Rp22
ag10
(g14
S'\xb7\xf1\xd2e\x15TkA'
p23
tp24
Rp25
ag10
(g14
S'\x85j\xbc\x04p]kA'
p26
tp27
Rp28
ag10
(g14
S'\xd9\x15 \xfb)ckA'
p29
tp30
Rp31
ag10
(g14
S'\xf4\xd2M~\xd5`kA'
p32
tp33
Rp34
ag10
(g14
S'A`\xe588UkA'
p35
tp36
Rp37
ag10
(g14
S'\xa4\rt&\x81]kA'
p38
tp39
Rp40
ag10
(g14
S'u!i\x06\xc0QkA'
p41
tp42
Rp43
ag10
(g14
S'B5^\x12\xcaakA'
p44
tp45
Rp46
ag10
(g14
S'>\x89AX0PkA'
p47
tp48
Rp49
ag10
(g14
S'M\x8d\x97\x12\x8cUkA'
p50
tp51
Rp52
ag10
(g14
S'K\xb6\xf3)\xe4TkA'
p53
tp54
Rp55
ag10
(g14
S'v\xbe\x9fB\x9bdkA'
p56
tp57
Rp58
ag10
(g14
S'\xedB\xd20\x0fZkA'
p59
tp60
Rp61
ag10
(g14
S'\xdc\x87\xcf\x04_TkA'
p62
tp63
Rp64
ag10
(g14
S'#\xb0r(\xb7WkA'
p65
tp66
Rp67
ag10
(g14
S'\xfd7B\xb1WYkA'
p68
tp69
Rp70
ag10
(g14
S'\xc8v\xbe\xef\xecAkA'
p71
tp72
Rp73
ag10
(g14
S' /\xdd,\xf7^kA'
p74
tp75
Rp76
asS'target'
p77
(lp78
g10
(g14
S' \xb0rh\x91\xa0p@'
p79
tp80
Rp81
ag10
(g14
S'\xf8\xfd\xd4x\xe9\xd0p@'
p82
tp83
Rp84
ag10
(g14
S'F\xe1z\x14\xaelp@'
p85
tp86
Rp87
ag10
(g14
S'!\x85\xebQ\xb8\xdcp@'
p88
tp89
Rp90
ag10
(g14
S'\x19Zd;\xdf\xcas@'
p91
tp92
Rp93
ag10
(g14
S'\x85\x16\xd9\xce\xf7~p@'
p94
tp95
Rp96
ag10
(g14
S'F5^\xbaIaq@'
p97
tp98
Rp99
ag10
(g14
S'\x94\xc2\xf5(\\gp@'
p100
tp101
Rp102
ag10
(g14
S'3\x08\xac\x1cZ\x9cq@'
p103
tp104
Rp105
ag10
(g14
S'0\x08\xac\x1cZ\xa4r@'
p106
tp107
Rp108
ag10
(g14
S'g;\xdfO\x8d\x8fp@'
p109
tp110
Rp111
ag10
(g14
S'\xbf\x9f\x1a/\xdd\xe2q@'
p112
tp113
Rp114
ag10
(g14
S'7\x08\xac\x1cZ\x87p@'
p115
tp116
Rp117
ag10
(g14
S'\x1b\x83\xc0\xca\xa1\xb1o@'
p118
tp119
Rp120
ag10
(g14
S'\xc0\xf5(\\\x8f|r@'
p121
tp122
Rp123
ag10
(g14
S'\xf6(\\\x8f\xc27s@'
p124
tp125
Rp126
ag10
(g14
S'\xe6\xd0"\xdb\xf9\xdbp@'
p127
tp128
Rp129
ag10
(g14
S'X9\xb4\xc8v\xf0p@'
p130
tp131
Rp132
ag10
(g14
S'\xe4O\x8d\x97nPs@'
p133
tp134
Rp135
ag10
(g14
S'\xf7S\xe3\xa5\x9b\xe0q@'
p136
tp137
Rp138
asssss.