(dp0
S'../Data/sqlite_36.csv'
p1
(dp2
S'../Data/sqlite_78.csv'
p3
(dp4
F0.15
(dp5
S'mmre'
p6
(dp7
S'bellwether'
p8
(lp9
cnumpy.core.multiarray
scalar
p10
(cnumpy
dtype
p11
(S'f8'
p12
I0
I1
tp13
Rp14
(I3
S'<'
p15
NNNI-1
I-1
I0
tp16
bS'B\xb3<\xd0D\x06M@'
p17
tp18
Rp19
ag10
(g14
S'\xd6y\xea\xc2_#M@'
p20
tp21
Rp22
ag10
(g14
S'\xafW\xa9\x1cF,M@'
p23
tp24
Rp25
ag10
(g14
S'\x9a\xe1\xbc\xf5q!M@'
p26
tp27
Rp28
ag10
(g14
S'\x1c\xde\xe7{\xb1"M@'
p29
tp30
Rp31
ag10
(g14
S'K\xe2H\x97< M@'
p32
tp33
Rp34
ag10
(g14
S')\xd7\xdb!\x01-M@'
p35
tp36
Rp37
ag10
(g14
S'g\xa3a\x9e\xbb%M@'
p38
tp39
Rp40
ag10
(g14
S"\xd2\x95'\xc3D$M@"
p41
tp42
Rp43
ag10
(g14
S'\x81\xacDRU\x1dM@'
p44
tp45
Rp46
ag10
(g14
S'\x04\x7f(_\xe0!M@'
p47
tp48
Rp49
ag10
(g14
S'\xf6\xd9z\xc7W-M@'
p50
tp51
Rp52
ag10
(g14
S'\x89C8\xc7\xa4 M@'
p53
tp54
Rp55
ag10
(g14
S'D\xc74\x1d\x9f2M@'
p56
tp57
Rp58
ag10
(g14
S's\n\x9b\xc3{-M@'
p59
tp60
Rp61
ag10
(g14
S'4\\\xeeu\xc6\x16M@'
p62
tp63
Rp64
ag10
(g14
S'<\r\x0fJ\x05\x14M@'
p65
tp66
Rp67
ag10
(g14
S'\xdc\xf6\x84\xc7\x157M@'
p68
tp69
Rp70
ag10
(g14
S'O\xc2\xac\x05\x8c(M@'
p71
tp72
Rp73
ag10
(g14
S'\x17v\x1e\x9e\x9b\rM@'
p74
tp75
Rp76
asS'target'
p77
(lp78
g10
(g14
S'\x95t\x0cgH\xd54@'
p79
tp80
Rp81
ag10
(g14
S'{K],\\\xce2@'
p82
tp83
Rp84
ag10
(g14
S'iR\x0b\x06F\xd01@'
p85
tp86
Rp87
ag10
(g14
S'EC\xccx?o3@'
p88
tp89
Rp90
ag10
(g14
S'\xf5\x10$\x80\xf1\xd81@'
p91
tp92
Rp93
ag10
(g14
S"\x04p9'\x11\xa13@"
p94
tp95
Rp96
ag10
(g14
S'\x94\xf7\xc4k\xbca2@'
p97
tp98
Rp99
ag10
(g14
S'\\\xfb\x10\xd2K\xa81@'
p100
tp101
Rp102
ag10
(g14
S'\xa0\xb6[O\xf8\xa83@'
p103
tp104
Rp105
ag10
(g14
S'D\xc8X\xe7\x04V5@'
p106
tp107
Rp108
ag10
(g14
S'>\x88GBY\x0f3@'
p109
tp110
Rp111
ag10
(g14
S'\xdc:\xde\x90\x85\x126@'
p112
tp113
Rp114
ag10
(g14
S'\xaf\xae\x1eE\x00\x146@'
p115
tp116
Rp117
ag10
(g14
S'Z\x1cz\x83\xd4z3@'
p118
tp119
Rp120
ag10
(g14
S'\x82\x1eG!\xc2\x8c4@'
p121
tp122
Rp123
ag10
(g14
S'\xaa\xb8|\xc9D34@'
p124
tp125
Rp126
ag10
(g14
S'n+\x0c\x8ek\xb04@'
p127
tp128
Rp129
ag10
(g14
S'/\x08\xcdU\x9a\x084@'
p130
tp131
Rp132
ag10
(g14
S'R\x93\xd5++\xc74@'
p133
tp134
Rp135
ag10
(g14
S'\xab6\x13*Q\xa44@'
p136
tp137
Rp138
asssss.