(dp0
S'../Data/sqlite_66.csv'
p1
(dp2
S'../Data/sqlite_79.csv'
p3
(dp4
F0.2
(dp5
S'abs_res'
p6
(dp7
S'bellwether'
p8
(lp9
cnumpy.core.multiarray
scalar
p10
(cnumpy
dtype
p11
(S'f8'
p12
I0
I1
tp13
Rp14
(I3
S'<'
p15
NNNI-1
I-1
I0
tp16
bS',ku\xcc\xe6,!A'
p17
tp18
Rp19
ag10
(g14
S'~\x95CK\xd8,!A'
p20
tp21
Rp22
ag10
(g14
S'\xed`\x9e(`-!A'
p23
tp24
Rp25
ag10
(g14
S'\xa6T\x9c}\x0c,!A'
p26
tp27
Rp28
ag10
(g14
S'\xa4p=\xcao,!A'
p29
tp30
Rp31
ag10
(g14
S'\n\xac\x1c\x9a1,!A'
p32
tp33
Rp34
ag10
(g14
S'\xba\x02\xe4\xde\xfc,!A'
p35
tp36
Rp37
ag10
(g14
S'\xb5+@.\x14,!A'
p38
tp39
Rp40
ag10
(g14
S'\xe2z\x14\xaeY+!A'
p41
tp42
Rp43
ag10
(g14
S'~\xc0\xca\xa1\xa2,!A'
p44
tp45
Rp46
ag10
(g14
S'\xdb\xce\xf7\xd3\xb1,!A'
p47
tp48
Rp49
ag10
(g14
S'\xb6\x81N[W,!A'
p50
tp51
Rp52
ag10
(g14
S'\xe9&1\x88b-!A'
p53
tp54
Rp55
ag10
(g14
S'~\xb1\xe4W\x9b,!A'
p56
tp57
Rp58
ag10
(g14
S'\xe6\x98\xe0A`,!A'
p59
tp60
Rp61
ag10
(g14
S' 1\x08l\x82,!A'
p62
tp63
Rp64
ag10
(g14
S'\xa4E\xb6\xb3s+!A'
p65
tp66
Rp67
ag10
(g14
S'|N\x1b\xa8*-!A'
p68
tp69
Rp70
ag10
(g14
S'\xf3~j\xbc\xfc,!A'
p71
tp72
Rp73
ag10
(g14
S'\x1a/\xdd$\t,!A'
p74
tp75
Rp76
asS'target'
p77
(lp78
g10
(g14
S'\xcax\xe9&1Fu@'
p79
tp80
Rp81
ag10
(g14
S'\x08\xd7\xa3p=\xfeo@'
p82
tp83
Rp84
ag10
(g14
S'\xa3p=\n\xd7\x87t@'
p85
tp86
Rp87
ag10
(g14
S'\xdd$\x06\x81\x95Iv@'
p88
tp89
Rp90
ag10
(g14
S'\xac\x9d\xef\xa7\xc6\x8bn@'
p91
tp92
Rp93
ag10
(g14
S'\xd4Mb\x10X\x98q@'
p94
tp95
Rp96
ag10
(g14
S'\xceMb\x10X\x03q@'
p97
tp98
Rp99
ag10
(g14
S'7\xdfO\x8d\x97~s@'
p100
tp101
Rp102
ag10
(g14
S'=`\xe5\xd0"\xb9q@'
p103
tp104
Rp105
ag10
(g14
S'O9\xb4\xc8v\x80w@'
p106
tp107
Rp108
ag10
(g14
S'\xee\xa7\xc6K7\xdds@'
p109
tp110
Rp111
ag10
(g14
S'\xe5&1\x08\xac\xf0o@'
p112
tp113
Rp114
ag10
(g14
S'r\xbe\x9f\x1a/\x8du@'
p115
tp116
Rp117
ag10
(g14
S'4^\xbaI\x0c\x9bt@'
p118
tp119
Rp120
ag10
(g14
S'\xe2\xd0"\xdb\xf9@u@'
p121
tp122
Rp123
ag10
(g14
S'n\xbct\x93\x18\x9ap@'
p124
tp125
Rp126
ag10
(g14
S'l=\n\xd7\xa3\xd0w@'
p127
tp128
Rp129
ag10
(g14
S'\xdd$\x06\x81\x95\xeft@'
p130
tp131
Rp132
ag10
(g14
S'r!iJ\xc5\xd9q@'
p133
tp134
Rp135
ag10
(g14
S'^ffff\xben@'
p136
tp137
Rp138
asssss.