(dp0
S'../Data/sqlite_67.csv'
p1
(dp2
S'../Data/sqlite_33.csv'
p3
(dp4
F0.15
(dp5
S'abs_res'
p6
(dp7
S'bellwether'
p8
(lp9
cnumpy.core.multiarray
scalar
p10
(cnumpy
dtype
p11
(S'f8'
p12
I0
I1
tp13
Rp14
(I3
S'<'
p15
NNNI-1
I-1
I0
tp16
bS'\xfc~j|\x01D"A'
p17
tp18
Rp19
ag10
(g14
S'\xad\xc6K7\\C"A'
p20
tp21
Rp22
ag10
(g14
S'^d;_+D"A'
p23
tp24
Rp25
ag10
(g14
S'\x99\xef\xa7\xc6\xf5C"A'
p26
tp27
Rp28
ag10
(g14
S'\xf6\xe13\xac\xfcC"A'
p29
tp30
Rp31
ag10
(g14
S'\xcdv\xbe\x9fAD"A'
p32
tp33
Rp34
ag10
(g14
S'\xfc\x0c\xbb\x82YD"A'
p35
tp36
Rp37
ag10
(g14
S'\xa0\xc4 0 C"A'
p38
tp39
Rp40
ag10
(g14
S'\xec\xfd\xd4x:D"A'
p41
tp42
Rp43
ag10
(g14
S'\xe2^s\xe1\xaeC"A'
p44
tp45
Rp46
ag10
(g14
S'l\xe7\xfb\xa9\xe8C"A'
p47
tp48
Rp49
ag10
(g14
S'\x86\xc0\xca!?D"A'
p50
tp51
Rp52
ag10
(g14
S'\xd5\x06:m\xa1C"A'
p53
tp54
Rp55
ag10
(g14
S'\xdd\x08e\xf4\xa7D"A'
p56
tp57
Rp58
ag10
(g14
S'\x8bA`%XE"A'
p59
tp60
Rp61
ag10
(g14
S'\xccv\xbe\x9f"D"A'
p62
tp63
Rp64
ag10
(g14
S'c\xbaI\x8c\x13D"A'
p65
tp66
Rp67
ag10
(g14
S'*\xb2\x9d\xef\xfeC"A'
p68
tp69
Rp70
ag10
(g14
S'J7\x89\xc1\x92D"A'
p71
tp72
Rp73
ag10
(g14
S'\x86PF\xef4D"A'
p74
tp75
Rp76
asS'target'
p77
(lp78
g10
(g14
S'\xcc"\xdb\xf9~:L@'
p79
tp80
Rp81
ag10
(g14
S'\x0b\xac\x1cZd+P@'
p82
tp83
Rp84
ag10
(g14
S'\x14\x04V\x0e-\xc2L@'
p85
tp86
Rp87
ag10
(g14
S's=\n\xd7\xa3@L@'
p88
tp89
Rp90
ag10
(g14
S'b\x0e-\xb2\x9d\xafJ@'
p91
tp92
Rp93
ag10
(g14
S'\xbc\xf3\xfd\xd4x\xe9M@'
p94
tp95
Rp96
ag10
(g14
S'hffff\x16N@'
p97
tp98
Rp99
ag10
(g14
S'\x10\xac\x1cZd{O@'
p100
tp101
Rp102
ag10
(g14
S'\xce"\xdb\xf9~:L@'
p103
tp104
Rp105
ag10
(g14
S'\xdaMb\x10X]P@'
p106
tp107
Rp108
ag10
(g14
S'{\x14\xaeG\xe1"R@'
p109
tp110
Rp111
ag10
(g14
S'\xfa~j\xbctsL@'
p112
tp113
Rp114
ag10
(g14
S'\xa4rh\x91\xed\x9cK@'
p115
tp116
Rp117
ag10
(g14
S'"\x89A`\xe5\x10K@'
p118
tp119
Rp120
ag10
(g14
S'\x0e+\x87\x16\xd9vL@'
p121
tp122
Rp123
ag10
(g14
S'\xf8\x80\x95C\x8b\xc4M@'
p124
tp125
Rp126
ag10
(g14
S'\xc6\xf5(\\\x8f\xf2M@'
p127
tp128
Rp129
ag10
(g14
S'\x17\xd9\xce\xf7S\xc3Q@'
p130
tp131
Rp132
ag10
(g14
S'4\x89A`\xe5\xb0N@'
p133
tp134
Rp135
ag10
(g14
S'\xe2\xa7\xc6K7\x99O@'
p136
tp137
Rp138
asssss.