(dp0
S'../Data/sqlite_3.csv'
p1
(dp2
S'../Data/sqlite_77.csv'
p3
(dp4
F0.1
(dp5
S'mmre'
p6
(dp7
S'bellwether'
p8
(lp9
cnumpy.core.multiarray
scalar
p10
(cnumpy
dtype
p11
(S'f8'
p12
I0
I1
tp13
Rp14
(I3
S'<'
p15
NNNI-1
I-1
I0
tp16
bS'\xd6-i\x08\x87\x84N@'
p17
tp18
Rp19
ag10
(g14
S'\xcbF4\xc3\xc7\x91N@'
p20
tp21
Rp22
ag10
(g14
S'j\x156\x10\xc6\x85N@'
p23
tp24
Rp25
ag10
(g14
S'\xe1^\x07\xcd\xda~N@'
p26
tp27
Rp28
ag10
(g14
S'z\x17\xf6\xe8\xf7\x84N@'
p29
tp30
Rp31
ag10
(g14
S'\xb6\xf6\xaa\x13\xf7xN@'
p32
tp33
Rp34
ag10
(g14
S'\xe7\xd94z\xdb\x80N@'
p35
tp36
Rp37
ag10
(g14
S'\x0e\xa9\xebC-|N@'
p38
tp39
Rp40
ag10
(g14
S'\x92\xc3y:\x8evN@'
p41
tp42
Rp43
ag10
(g14
S'\x00\x0c\xed@\xcf\x83N@'
p44
tp45
Rp46
ag10
(g14
S'\xf0\xedD\x88\xaevN@'
p47
tp48
Rp49
ag10
(g14
S'Y\x900\xcd\xb1{N@'
p50
tp51
Rp52
ag10
(g14
S'jn\xaf\x05\xf1qN@'
p53
tp54
Rp55
ag10
(g14
S'.\xc3\x9cn\xab|N@'
p56
tp57
Rp58
ag10
(g14
S'\x1a:ef,\x83N@'
p59
tp60
Rp61
ag10
(g14
S'\x87Y\xc1Q[qN@'
p62
tp63
Rp64
ag10
(g14
S'd%<S\xcf\x8dN@'
p65
tp66
Rp67
ag10
(g14
S'\xcf\xfa\x12m\\\x82N@'
p68
tp69
Rp70
ag10
(g14
S';ox\xfe:vN@'
p71
tp72
Rp73
ag10
(g14
S"\xeb\xc1'\xd3\x83\x81N@"
p74
tp75
Rp76
asS'target'
p77
(lp78
g10
(g14
S'\x84\xadG\xbc\xa3,5@'
p79
tp80
Rp81
ag10
(g14
S'\x92\x1ck\xf8\xf0B5@'
p82
tp83
Rp84
ag10
(g14
S'T[\xc4y\xf2b4@'
p85
tp86
Rp87
ag10
(g14
S't_C\x9a\xd1\xbe3@'
p88
tp89
Rp90
ag10
(g14
S'4;R_\xb0\xb05@'
p91
tp92
Rp93
ag10
(g14
S'j\x7f\xb5C8\xe05@'
p94
tp95
Rp96
ag10
(g14
S'n\xdf\x19H\xa1p6@'
p97
tp98
Rp99
ag10
(g14
S'\re@\x1f\xd9_6@'
p100
tp101
Rp102
ag10
(g14
S'\x02b\xae=Kb7@'
p103
tp104
Rp105
ag10
(g14
S'\x16q4"\xfe\x1f6@'
p106
tp107
Rp108
ag10
(g14
S'u\xcc\xe4\xf6\xa0\xb46@'
p109
tp110
Rp111
ag10
(g14
S'\xde\x17\xe2\xca\x02`6@'
p112
tp113
Rp114
ag10
(g14
S'\x10S\x97p\x12\x9e7@'
p115
tp116
Rp117
ag10
(g14
S'\x0e{8R\xf4\n:@'
p118
tp119
Rp120
ag10
(g14
S'\xdf<@g\x13U5@'
p121
tp122
Rp123
ag10
(g14
S'\xaf\xd2\x9b-\x13\x9a6@'
p124
tp125
Rp126
ag10
(g14
S'\xda:\x82.ep6@'
p127
tp128
Rp129
ag10
(g14
S'\xe0J\xce\xeb\xd116@'
p130
tp131
Rp132
ag10
(g14
S'\xe4z\rvE\xca4@'
p133
tp134
Rp135
ag10
(g14
S']7>\x863q5@'
p136
tp137
Rp138
asssss.