(dp0
S'../Data/sqlite_2.csv'
p1
(dp2
S'../Data/sqlite_96.csv'
p3
(dp4
F0.15
(dp5
S'mmre'
p6
(dp7
S'bellwether'
p8
(lp9
cnumpy.core.multiarray
scalar
p10
(cnumpy
dtype
p11
(S'f8'
p12
I0
I1
tp13
Rp14
(I3
S'<'
p15
NNNI-1
I-1
I0
tp16
bS'\x05\xacV,TJW@'
p17
tp18
Rp19
ag10
(g14
S'E\x84`!\xf9LW@'
p20
tp21
Rp22
ag10
(g14
S'\xdcSe\xa1\xabLW@'
p23
tp24
Rp25
ag10
(g14
S'dT\x1f\xc2\x90LW@'
p26
tp27
Rp28
ag10
(g14
S'\x06\xb5\x1b7\xb4LW@'
p29
tp30
Rp31
ag10
(g14
S'\x8d\xbb\xc5\x97\xffHW@'
p32
tp33
Rp34
ag10
(g14
S'\t\xef\xb7\\\xb1LW@'
p35
tp36
Rp37
ag10
(g14
S')V\x07y4IW@'
p38
tp39
Rp40
ag10
(g14
S'\xa2\xa9t\xe4\xe9JW@'
p41
tp42
Rp43
ag10
(g14
S'\xfc\xf1\x16?\xe6KW@'
p44
tp45
Rp46
ag10
(g14
S'vA\xd3\xb9\xd2HW@'
p47
tp48
Rp49
ag10
(g14
S'\xf8o\x15:\xaaJW@'
p50
tp51
Rp52
ag10
(g14
S'\xf6\xfas.DJW@'
p53
tp54
Rp55
ag10
(g14
S'\xd5l\\^RKW@'
p56
tp57
Rp58
ag10
(g14
S'\xb7\x1a\x8b\xe3\xf2JW@'
p59
tp60
Rp61
ag10
(g14
S'5\x92\xa1\xf3kIW@'
p62
tp63
Rp64
ag10
(g14
S'f\xab\x19\x19\xa3LW@'
p65
tp66
Rp67
ag10
(g14
S'3\x8cN\xb0}MW@'
p68
tp69
Rp70
ag10
(g14
S'Vw6\xe4fLW@'
p71
tp72
Rp73
ag10
(g14
S'\x16HU\xfd\xe7KW@'
p74
tp75
Rp76
asS'target'
p77
(lp78
g10
(g14
S' \xb8o\x0fl\xc0P@'
p79
tp80
Rp81
ag10
(g14
S'i\x18K}\x04\xadO@'
p82
tp83
Rp84
ag10
(g14
S'><\r\x16\xefKJ@'
p85
tp86
Rp87
ag10
(g14
S'#Ag\xa9\xd1\x81@@'
p88
tp89
Rp90
ag10
(g14
S'h\x0f\xd3\xacv\xdfT@'
p91
tp92
Rp93
ag10
(g14
S'\xb0\xf3z\xf9\xd1\xe2U@'
p94
tp95
Rp96
ag10
(g14
S'n\x10\x8c`)dL@'
p97
tp98
Rp99
ag10
(g14
S'\xcd\xd4\xb2\xd4\xca\xa5X@'
p100
tp101
Rp102
ag10
(g14
S'wy\x1c\xb1\xf6\xedL@'
p103
tp104
Rp105
ag10
(g14
S'S\x1b\xba\xee5gM@'
p106
tp107
Rp108
ag10
(g14
S'\xb8\x84\xd2\x9c\xfb.]@'
p109
tp110
Rp111
ag10
(g14
S'S\xb0|\xec\n\x9f^@'
p112
tp113
Rp114
ag10
(g14
S'\xe6\xea\xc3\x93t\x1dK@'
p115
tp116
Rp117
ag10
(g14
S'\x91\x81x\x93\x0b\xe2P@'
p118
tp119
Rp120
ag10
(g14
S'\xd2\n2j3\xaeX@'
p121
tp122
Rp123
ag10
(g14
S'\xebP(k@\x02b@'
p124
tp125
Rp126
ag10
(g14
S'\xd9\x91#J\x1c\x16S@'
p127
tp128
Rp129
ag10
(g14
S'\x10\xc6\xb3\xe8\xd3\xbfK@'
p130
tp131
Rp132
ag10
(g14
S'\xd4\xbdD\x91J$R@'
p133
tp134
Rp135
ag10
(g14
S'\xfc\xd8gO\xe9@V@'
p136
tp137
Rp138
asssss.