(dp0
S'../Data/sqlite_58.csv'
p1
(dp2
S'../Data/sqlite_97.csv'
p3
(dp4
F0.4
(dp5
S'mmre'
p6
(dp7
S'bellwether'
p8
(lp9
cnumpy.core.multiarray
scalar
p10
(cnumpy
dtype
p11
(S'f8'
p12
I0
I1
tp13
Rp14
(I3
S'<'
p15
NNNI-1
I-1
I0
tp16
bS'\x95\x81D\x0eCtV@'
p17
tp18
Rp19
ag10
(g14
S'\xed\x9b\xef\xe4\x1flV@'
p20
tp21
Rp22
ag10
(g14
S'\xeb\xa9\xbc\x8c\xabnV@'
p23
tp24
Rp25
ag10
(g14
S'\xd2\r\x99\xfc\xfajV@'
p26
tp27
Rp28
ag10
(g14
S'[\x80\xbf\x95\xd8sV@'
p29
tp30
Rp31
ag10
(g14
S'e\xe0\xb1`ueV@'
p32
tp33
Rp34
ag10
(g14
S';W\xb6/\x8ebV@'
p35
tp36
Rp37
ag10
(g14
S'\x8d\xd8\xea\xeb\x8atV@'
p38
tp39
Rp40
ag10
(g14
S'\x1c{\x9b^\xe3tV@'
p41
tp42
Rp43
ag10
(g14
S':\x17b5\xb7sV@'
p44
tp45
Rp46
ag10
(g14
S'\xd0Z\n$\x8cjV@'
p47
tp48
Rp49
ag10
(g14
S'S+\xa6>:nV@'
p50
tp51
Rp52
ag10
(g14
S'\x8bn\x931\x99qV@'
p53
tp54
Rp55
ag10
(g14
S'\xe8\xf7p\xe5&rV@'
p56
tp57
Rp58
ag10
(g14
S'd\x0e\xc1>\x8cqV@'
p59
tp60
Rp61
ag10
(g14
S'<\x98\xf7\xaf7hV@'
p62
tp63
Rp64
ag10
(g14
S'k\x0c\x99\xc61mV@'
p65
tp66
Rp67
ag10
(g14
S'mH\x8f\x9c\x95aV@'
p68
tp69
Rp70
ag10
(g14
S'\xe5\xbc\xa4\xde_nV@'
p71
tp72
Rp73
ag10
(g14
S'?\x84\x1f*\x98qV@'
p74
tp75
Rp76
asS'target'
p77
(lp78
g10
(g14
S'\xda\x7f\xded\xedoT@'
p79
tp80
Rp81
ag10
(g14
S'Yv(\x0b\x99\x1eQ@'
p82
tp83
Rp84
ag10
(g14
S'\x0b\xaa\xe4\x9a4\x80V@'
p85
tp86
Rp87
ag10
(g14
S';\xba\xbb\x1e7\xe1U@'
p88
tp89
Rp90
ag10
(g14
S'7cI\x8c(jJ@'
p91
tp92
Rp93
ag10
(g14
S'\x0f\xd7\xb1\x8eFzS@'
p94
tp95
Rp96
ag10
(g14
S'p\t\xb9\xa7\xa2&X@'
p97
tp98
Rp99
ag10
(g14
S'\xbd\xfc\x16\xdam\x19S@'
p100
tp101
Rp102
ag10
(g14
S'R\x8a^\x01\xa9\xe5S@'
p103
tp104
Rp105
ag10
(g14
S'B7\tB\t\xddQ@'
p106
tp107
Rp108
ag10
(g14
S'\x18,\x85\xb1\xd2\x99Z@'
p109
tp110
Rp111
ag10
(g14
S'x\xec\x1a\xac\x93uO@'
p112
tp113
Rp114
ag10
(g14
S'\x9c\x02\xa3=\xae\xf2Q@'
p115
tp116
Rp117
ag10
(g14
S'\xa28\xe9`\xebPM@'
p118
tp119
Rp120
ag10
(g14
S'#\x80|\x9fo\xf9G@'
p121
tp122
Rp123
ag10
(g14
S'\x9af\x98&\x88GM@'
p124
tp125
Rp126
ag10
(g14
S'\xecm\x86\\)1T@'
p127
tp128
Rp129
ag10
(g14
S'\x1ae\x0e\xde\xfd\xa0[@'
p130
tp131
Rp132
ag10
(g14
S'\x9e_\xc9\xaf\xa0;U@'
p133
tp134
Rp135
ag10
(g14
S'\x17,(\xd8;BV@'
p136
tp137
Rp138
asssss.