(dp0
S'../Data/sqlite_49.csv'
p1
(dp2
S'../Data/sqlite_62.csv'
p3
(dp4
F0.4
(dp5
S'mmre'
p6
(dp7
S'bellwether'
p8
(lp9
cnumpy.core.multiarray
scalar
p10
(cnumpy
dtype
p11
(S'f8'
p12
I0
I1
tp13
Rp14
(I3
S'<'
p15
NNNI-1
I-1
I0
tp16
bS'\xd1\x07\xb8\xd6EQK@'
p17
tp18
Rp19
ag10
(g14
S'\x81\xd7P]\xaadK@'
p20
tp21
Rp22
ag10
(g14
S'\xa2w\xd8\x1c`gK@'
p23
tp24
Rp25
ag10
(g14
S'\xb5\xaa.\x90\x16uK@'
p26
tp27
Rp28
ag10
(g14
S'p\xc9|\xd7\xf7uK@'
p29
tp30
Rp31
ag10
(g14
S'e\xb1\x82\xc1\x00iK@'
p32
tp33
Rp34
ag10
(g14
S'\x80K<\xac\xb8aK@'
p35
tp36
Rp37
ag10
(g14
S'\xb09\xb3\x9b\xebcK@'
p38
tp39
Rp40
ag10
(g14
S'\xce\xcd\x03\xe2\xc4\x80K@'
p41
tp42
Rp43
ag10
(g14
S'W\xe5-\xc5\x9d\\K@'
p44
tp45
Rp46
ag10
(g14
S'(\xbe\x02\x18GTK@'
p47
tp48
Rp49
ag10
(g14
S'\x9cqE\x12\xc9wK@'
p50
tp51
Rp52
ag10
(g14
S'\x06db\xc9\xc6cK@'
p53
tp54
Rp55
ag10
(g14
S'u\xda\xc0\x86\x9caK@'
p56
tp57
Rp58
ag10
(g14
S'XG\x94\xde:gK@'
p59
tp60
Rp61
ag10
(g14
S'i\x91A\xb1\xc7\\K@'
p62
tp63
Rp64
ag10
(g14
S'\xf8\x0b\xb2F\xdfdK@'
p65
tp66
Rp67
ag10
(g14
S'c\xbc\x89\xe8\t^K@'
p68
tp69
Rp70
ag10
(g14
S'\xdd?\xa8\xe7\xf2[K@'
p71
tp72
Rp73
ag10
(g14
S'\x0f;J\xc9\x04dK@'
p74
tp75
Rp76
asS'target'
p77
(lp78
g10
(g14
S'OrQr\xb6\x88"@'
p79
tp80
Rp81
ag10
(g14
S'MVl\xbdWa!@'
p82
tp83
Rp84
ag10
(g14
S'.96\xd2\xcan!@'
p85
tp86
Rp87
ag10
(g14
S'\xa9\x9aV\xcdS\xb3!@'
p88
tp89
Rp90
ag10
(g14
S'Y7r\xcc\x02\x14!@'
p91
tp92
Rp93
ag10
(g14
S'\x04\x9f\xd5VS\xad!@'
p94
tp95
Rp96
ag10
(g14
S'\x18\x832>q\xb6!@'
p97
tp98
Rp99
ag10
(g14
S'\x04gi.N\xb9!@'
p100
tp101
Rp102
ag10
(g14
S')\x9c{\xcbZ\x91"@'
p103
tp104
Rp105
ag10
(g14
S'r  \xac*\xe2!@'
p106
tp107
Rp108
ag10
(g14
S'\xa6\x1b\xf3\xf6\xcaH"@'
p109
tp110
Rp111
ag10
(g14
S'\x10Y\xfa7\xc4> @'
p112
tp113
Rp114
ag10
(g14
S'\xd4\xa3\x97\x88Vc"@'
p115
tp116
Rp117
ag10
(g14
S'TB!=\xe8u!@'
p118
tp119
Rp120
ag10
(g14
S'R\xa7h[\x0c\xfe @'
p121
tp122
Rp123
ag10
(g14
S'\xd2>\x88\x93$l!@'
p124
tp125
Rp126
ag10
(g14
S'^\x96}\x9d\xc7a!@'
p127
tp128
Rp129
ag10
(g14
S'H\xa4\xa4\xe5\xcc5!@'
p130
tp131
Rp132
ag10
(g14
S'\x02\x876\x9fw\x14"@'
p133
tp134
Rp135
ag10
(g14
S'\x92\x93\x01t\xfc\xe0 @'
p136
tp137
Rp138
asssss.