(dp0
S'../Data/sqlite_60.csv'
p1
(dp2
S'../Data/sqlite_14.csv'
p3
(dp4
F0.25
(dp5
S'abs_res'
p6
(dp7
S'bellwether'
p8
(lp9
cnumpy.core.multiarray
scalar
p10
(cnumpy
dtype
p11
(S'f8'
p12
I0
I1
tp13
Rp14
(I3
S'<'
p15
NNNI-1
I-1
I0
tp16
bS'\xeaQ\xb8\xa6\x8bTeA'
p17
tp18
Rp19
ag10
(g14
S'\xba\xbb\xbb\xd3\x86TeA'
p20
tp21
Rp22
ag10
(g14
S'|\xebQ\xb0\xcdUeA'
p23
tp24
Rp25
ag10
(g14
S'6\xee5\x17 `eA'
p26
tp27
Rp28
ag10
(g14
S'\xf8\x0c\xbb\x9e,YeA'
p29
tp30
Rp31
ag10
(g14
S'\x11\xd7\xa3\xf0\xb6VeA'
p32
tp33
Rp34
ag10
(g14
S'\xfa7BMqbeA'
p35
tp36
Rp37
ag10
(g14
S'\xc6K7]\x1daeA'
p38
tp39
Rp40
ag10
(g14
S'\xe8\xa5\x9b\xb0kZeA'
p41
tp42
Rp43
ag10
(g14
S'\xa1\xe2\xec\xafjSeA'
p44
tp45
Rp46
ag10
(g14
S'\xb9\x81N\xe7\xaa^eA'
p47
tp48
Rp49
ag10
(g14
S'\xdb$\x06%OWeA'
p50
tp51
Rp52
ag10
(g14
S'\xaerh\x91R_eA'
p53
tp54
Rp55
ag10
(g14
S'\x03\xe4^\x07\xb2^eA'
p56
tp57
Rp58
ag10
(g14
S'<\xc3\xae(\x0e_eA'
p59
tp60
Rp61
ag10
(g14
S'\x974\xa5:\xddFeA'
p62
tp63
Rp64
ag10
(g14
S'\xaa\xf1\xd2\t_WeA'
p65
tp66
Rp67
ag10
(g14
S'\x80#\x94)\xde_eA'
p68
tp69
Rp70
ag10
(g14
S'l\xa0\xd3\xe21eeA'
p71
tp72
Rp73
ag10
(g14
S'r\xcbZ!]`eA'
p74
tp75
Rp76
asS'target'
p77
(lp78
g10
(g14
S'\xa0\xef\xa7\xc6K\xd1d@'
p79
tp80
Rp81
ag10
(g14
S'Q\xe1z\x14\xae\xb7b@'
p82
tp83
Rp84
ag10
(g14
S'\xd3x\xe9&14c@'
p85
tp86
Rp87
ag10
(g14
S'\xbft\x93\x18\x04\x8eb@'
p88
tp89
Rp90
ag10
(g14
S'[\x0e-\xb2\x9dkd@'
p91
tp92
Rp93
ag10
(g14
S'i\x91\xed|?\xf1b@'
p94
tp95
Rp96
ag10
(g14
S'th\x91\xed|\xafc@'
p97
tp98
Rp99
ag10
(g14
S'~?5^\xba\ra@'
p100
tp101
Rp102
ag10
(g14
S'\xec\xd0"\xdb\xf9\nb@'
p103
tp104
Rp105
ag10
(g14
S'\xeaQ\xb8\x1e\x85gb@'
p106
tp107
Rp108
ag10
(g14
S'\x19/\xdd$\x06\xc7c@'
p109
tp110
Rp111
ag10
(g14
S'{\x95C\x8bl)b@'
p112
tp113
Rp114
ag10
(g14
S'o\xbct\x93\x18\x92b@'
p115
tp116
Rp117
ag10
(g14
S'\xed|?5^\x96c@'
p118
tp119
Rp120
ag10
(g14
S'\x98n\x12\x83\xc0\xe4b@'
p121
tp122
Rp123
ag10
(g14
S'\xbe\xca\xa1E\xb63a@'
p124
tp125
Rp126
ag10
(g14
S'\xd1"\xdb\xf9~\x92b@'
p127
tp128
Rp129
ag10
(g14
S'\xdd\xa3p=\noc@'
p130
tp131
Rp132
ag10
(g14
S'\x1a\x04V\x0e-Xd@'
p133
tp134
Rp135
ag10
(g14
S'*\\\x8f\xc2\xf5`b@'
p136
tp137
Rp138
asssss.