(dp0
S'../Data/sqlite_66.csv'
p1
(dp2
S'../Data/sqlite_72.csv'
p3
(dp4
F0.2
(dp5
S'abs_res'
p6
(dp7
S'bellwether'
p8
(lp9
cnumpy.core.multiarray
scalar
p10
(cnumpy
dtype
p11
(S'f8'
p12
I0
I1
tp13
Rp14
(I3
S'<'
p15
NNNI-1
I-1
I0
tp16
bS'8^\xbaI\x96,!A'
p17
tp18
Rp19
ag10
(g14
S'8\xb4\xc8\xb6\x88-!A'
p20
tp21
Rp22
ag10
(g14
S'\xca\x04\x0f&\xb2+!A'
p23
tp24
Rp25
ag10
(g14
S'R\x8d\x97\xee1-!A'
p26
tp27
Rp28
ag10
(g14
S'\xa6T\x9c=\x86-!A'
p29
tp30
Rp31
ag10
(g14
S'\xf1&1H\x91,!A'
p32
tp33
Rp34
ag10
(g14
S'H\xb6\xf3\xfdO-!A'
p35
tp36
Rp37
ag10
(g14
S'u[\xd6\xaa\xb5,!A'
p38
tp39
Rp40
ag10
(g14
S'K\xb6\xf3}q,!A'
p41
tp42
Rp43
ag10
(g14
S'\xfa(\\\x0f\xc9-!A'
p44
tp45
Rp46
ag10
(g14
S'\xfb\xa9\xf1R\xcf-!A'
p47
tp48
Rp49
ag10
(g14
S'\xabp=J\xd3,!A'
p50
tp51
Rp52
ag10
(g14
S'd\x1f>\x031-!A'
p53
tp54
Rp55
ag10
(g14
S'\\d;\x9f\xb9,!A'
p56
tp57
Rp58
ag10
(g14
S'I\x9aR\xf1,,!A'
p59
tp60
Rp61
ag10
(g14
S'\xfe\xff\xff\xff\xc3,!A'
p62
tp63
Rp64
ag10
(g14
S'jJ\xc5Y\xf3,!A'
p65
tp66
Rp67
ag10
(g14
S'\x05V\x0e-\x92+!A'
p68
tp69
Rp70
ag10
(g14
S'3\xc1\x839\xc3-!A'
p71
tp72
Rp73
ag10
(g14
S'r=\n\x17V-!A'
p74
tp75
Rp76
asS'target'
p77
(lp78
g10
(g14
S'K\xb8\x1e\x85\xebmQ@'
p79
tp80
Rp81
ag10
(g14
S'\xc0\x9f\x1a/\xdd\x14S@'
p82
tp83
Rp84
ag10
(g14
S'\xbb\xf3\xfd\xd4x\x81R@'
p85
tp86
Rp87
ag10
(g14
S'i;\xdfO\x8d\xb7R@'
p88
tp89
Rp90
ag10
(g14
S'f;\xdfO\x8d\x9fR@'
p91
tp92
Rp93
ag10
(g14
S'\x18\x04V\x0e-*R@'
p94
tp95
Rp96
ag10
(g14
S'\xe3$\x06\x81\x95kS@'
p97
tp98
Rp99
ag10
(g14
S'\xf7\xd2Mb\x10HS@'
p100
tp101
Rp102
ag10
(g14
S'P\x8d\x97n\x12\x9bQ@'
p103
tp104
Rp105
ag10
(g14
S'\xa3\x1a/\xdd$vQ@'
p106
tp107
Rp108
ag10
(g14
S'\x90\x18\x04V\x0e]Q@'
p109
tp110
Rp111
ag10
(g14
S'\x9e\xc4 \xb0r\xd0Q@'
p112
tp113
Rp114
ag10
(g14
S'|\xbe\x9f\x1a/=R@'
p115
tp116
Rp117
ag10
(g14
S'\xb9rh\x91\xed\xc0Q@'
p118
tp119
Rp120
ag10
(g14
S'\x89l\xe7\xfb\xa9\xd9R@'
p121
tp122
Rp123
ag10
(g14
S'\x8dl\xe7\xfb\xa9\xe9Q@'
p124
tp125
Rp126
ag10
(g14
S"'\x87\x16\xd9\xce\x17S@"
p127
tp128
Rp129
ag10
(g14
S'N\x8d\x97n\x12\xc3Q@'
p130
tp131
Rp132
ag10
(g14
S'C\x89A`\xe5hT@'
p133
tp134
Rp135
ag10
(g14
S'\xab\xf1\xd2Mb\x00Q@'
p136
tp137
Rp138
asssss.