(dp0
S'../Data/sqlite_69.csv'
p1
(dp2
S'../Data/sqlite_59.csv'
p3
(dp4
F0.05
(dp5
S'mmre'
p6
(dp7
S'bellwether'
p8
(lp9
cnumpy.core.multiarray
scalar
p10
(cnumpy
dtype
p11
(S'f8'
p12
I0
I1
tp13
Rp14
(I3
S'<'
p15
NNNI-1
I-1
I0
tp16
bS'y\x14K\xdcA=r@'
p17
tp18
Rp19
ag10
(g14
S'\xd9\xaa|\xeaY0r@'
p20
tp21
Rp22
ag10
(g14
S'\xe51\x15\x08\x8b>r@'
p23
tp24
Rp25
ag10
(g14
S'm\xb0\xe4\x0c9:r@'
p26
tp27
Rp28
ag10
(g14
S'w\x149\x1c\xad6r@'
p29
tp30
Rp31
ag10
(g14
S'=;\xda\x88\xa87r@'
p32
tp33
Rp34
ag10
(g14
S'\t\xa8\xb6T\xb3@r@'
p35
tp36
Rp37
ag10
(g14
S'\xd1WL\xd4*7r@'
p38
tp39
Rp40
ag10
(g14
S'=\x03\x17Y\xa5=r@'
p41
tp42
Rp43
ag10
(g14
S'X{\x13\xa6\xbb9r@'
p44
tp45
Rp46
ag10
(g14
S'\xb4jP\xacL4r@'
p47
tp48
Rp49
ag10
(g14
S'\r\x83\x00Hk=r@'
p50
tp51
Rp52
ag10
(g14
S'\xe7\x846\xa235r@'
p53
tp54
Rp55
ag10
(g14
S'\x02x\x8e\x83\x175r@'
p56
tp57
Rp58
ag10
(g14
S'\x1a3i.[=r@'
p59
tp60
Rp61
ag10
(g14
S'N1-\xc4b.r@'
p62
tp63
Rp64
ag10
(g14
S'8K~\x0c\xc99r@'
p65
tp66
Rp67
ag10
(g14
S'\xc7\x0b\x1e\xaf"7r@'
p68
tp69
Rp70
ag10
(g14
S'\xce\x95\x16\xa5\xd87r@'
p71
tp72
Rp73
ag10
(g14
S'\xdeX\xf2?yBr@'
p74
tp75
Rp76
asS'target'
p77
(lp78
g10
(g14
S"\xab~\xb7\xcc!\x06'@"
p79
tp80
Rp81
ag10
(g14
S'\xc7\x1a\xe9\xbdc~%@'
p82
tp83
Rp84
ag10
(g14
S"t\xb2\x1dd\nS'@"
p85
tp86
Rp87
ag10
(g14
S'\xd6s\x10\xea\x92\xce&@'
p88
tp89
Rp90
ag10
(g14
S'\xb1\xec\xc6\xe9\x9f\x95$@'
p91
tp92
Rp93
ag10
(g14
S'8\xac\xca\x02\xca\xf0#@'
p94
tp95
Rp96
ag10
(g14
S'%1B\xaa\xa9\xc0&@'
p97
tp98
Rp99
ag10
(g14
S's\x03Q\x9e/\xe3%@'
p100
tp101
Rp102
ag10
(g14
S'\xa3C\x06\xab:\x1d&@'
p103
tp104
Rp105
ag10
(g14
S'\xdf\xd2\xc2o\xa6C$@'
p106
tp107
Rp108
ag10
(g14
S'F\x04\x8a/\x96\x86%@'
p109
tp110
Rp111
ag10
(g14
S'q\x90\x81\xfdN\xc9%@'
p112
tp113
Rp114
ag10
(g14
S'n\xdfsU\xdc\r)@'
p115
tp116
Rp117
ag10
(g14
S'=\t\xcb:\xacJ%@'
p118
tp119
Rp120
ag10
(g14
S"\xf2U\xc3\xce\x97\x1e'@"
p121
tp122
Rp123
ag10
(g14
S'\xb6\xf0\xdf\xef\xac\x89&@'
p124
tp125
Rp126
ag10
(g14
S'1\x83$1s|%@'
p127
tp128
Rp129
ag10
(g14
S'p\xd0*\xc5i\xf6#@'
p130
tp131
Rp132
ag10
(g14
S'L0t\xa6\x94\xee%@'
p133
tp134
Rp135
ag10
(g14
S'\xa3\xa6f\xeeB\xb5&@'
p136
tp137
Rp138
asssss.