(dp0
S'../Data/sqlite_54.csv'
p1
(dp2
S'../Data/sqlite_46.csv'
p3
(dp4
F0.15
(dp5
S'mmre'
p6
(dp7
S'bellwether'
p8
(lp9
cnumpy.core.multiarray
scalar
p10
(cnumpy
dtype
p11
(S'f8'
p12
I0
I1
tp13
Rp14
(I3
S'<'
p15
NNNI-1
I-1
I0
tp16
bS'|\xf7!0KbX@'
p17
tp18
Rp19
ag10
(g14
S'n5\x8d24bX@'
p20
tp21
Rp22
ag10
(g14
S'\x98\xccv\x80CbX@'
p23
tp24
Rp25
ag10
(g14
S'\x19\x17\xa4\x8cGbX@'
p26
tp27
Rp28
ag10
(g14
S'\xfdw\xa6\xc8EbX@'
p29
tp30
Rp31
ag10
(g14
S'sU\xb9\xac7bX@'
p32
tp33
Rp34
ag10
(g14
S'ld\xf6\xdcXbX@'
p35
tp36
Rp37
ag10
(g14
S'\x94\x12\xc0mSbX@'
p38
tp39
Rp40
ag10
(g14
S'{w[\xf6_bX@'
p41
tp42
Rp43
ag10
(g14
S'\xf4\xf26uHbX@'
p44
tp45
Rp46
ag10
(g14
S'Y\x83~oibX@'
p47
tp48
Rp49
ag10
(g14
S'\xb1\xe4\x02\xe6=bX@'
p50
tp51
Rp52
ag10
(g14
S'\xf5\xd3\xcffBbX@'
p53
tp54
Rp55
ag10
(g14
S'\xcc\x0e\xa7&ObX@'
p56
tp57
Rp58
ag10
(g14
S'\x86\xcd\xc1#VbX@'
p59
tp60
Rp61
ag10
(g14
S'~\xf1\xfe~DbX@'
p62
tp63
Rp64
ag10
(g14
S'\x8d\xd6#\x91]bX@'
p65
tp66
Rp67
ag10
(g14
S'8\x1bPzFbX@'
p68
tp69
Rp70
ag10
(g14
S'L]n\x8cQbX@'
p71
tp72
Rp73
ag10
(g14
S'<5V\x04=bX@'
p74
tp75
Rp76
asS'target'
p77
(lp78
g10
(g14
S'4\xee\xe1p\xa1\xf4\xe2?'
p79
tp80
Rp81
ag10
(g14
S'\xd3lM\x13V1\xe2?'
p82
tp83
Rp84
ag10
(g14
S'\xe9y\xc9jR\x8e\xe2?'
p85
tp86
Rp87
ag10
(g14
S'\x9b\x01^\xc24\xa2\xe4?'
p88
tp89
Rp90
ag10
(g14
S'(\xfff?\xe9t\xe2?'
p91
tp92
Rp93
ag10
(g14
S'\xd8i){K\xad\xe3?'
p94
tp95
Rp96
ag10
(g14
S'~\xa4 \xd0gz\xe1?'
p97
tp98
Rp99
ag10
(g14
S'\xe5\xf0\xbbx\x0e\xb3\xe2?'
p100
tp101
Rp102
ag10
(g14
S'DN\x9c-\xe1\x8e\xe4?'
p103
tp104
Rp105
ag10
(g14
S'/h\x0e\xb9\xb4B\xe2?'
p106
tp107
Rp108
ag10
(g14
S'\x94\xfe\x93\xcc\xb4\x9e\xe3?'
p109
tp110
Rp111
ag10
(g14
S'\xc0\x1d\xfb\x0c\x81j\xe2?'
p112
tp113
Rp114
ag10
(g14
S'\xd8n\xed\xad9:\xe3?'
p115
tp116
Rp117
ag10
(g14
S'\rk\xcc2\nJ\xe4?'
p118
tp119
Rp120
ag10
(g14
S'\xf6\xfd\xa1\x19\xdf\x00\xe4?'
p121
tp122
Rp123
ag10
(g14
S'HTJ\x84\x82\xf8\xe3?'
p124
tp125
Rp126
ag10
(g14
S'\r\x80\xf3\x11\x9a\xb9\xe6?'
p127
tp128
Rp129
ag10
(g14
S'w\xf4\xbaG\xde;\xe2?'
p130
tp131
Rp132
ag10
(g14
S'\xb6\xceN\xf0\x91\xd4\xe3?'
p133
tp134
Rp135
ag10
(g14
S'\x82#{<\xd3O\xe2?'
p136
tp137
Rp138
asssss.