(dp0
S'../Data/sqlite_18.csv'
p1
(dp2
S'../Data/sqlite_22.csv'
p3
(dp4
F0.15
(dp5
S'abs_res'
p6
(dp7
S'bellwether'
p8
(lp9
cnumpy.core.multiarray
scalar
p10
(cnumpy
dtype
p11
(S'f8'
p12
I0
I1
tp13
Rp14
(I3
S'<'
p15
NNNI-1
I-1
I0
tp16
bS'\xaf+@\xbe\x11~@A'
p17
tp18
Rp19
ag10
(g14
S'233C\xd6}@A'
p20
tp21
Rp22
ag10
(g14
S'j\x12\x83\x10Z}@A'
p23
tp24
Rp25
ag10
(g14
S'\x8el\xe7\xcb\xc1}@A'
p26
tp27
Rp28
ag10
(g14
S'k;\xdf\x0f\x0f~@A'
p29
tp30
Rp31
ag10
(g14
S'\xad\xf1\xd2\x9d\x01~@A'
p32
tp33
Rp34
ag10
(g14
S'N\x8d\x97\x8eO~@A'
p35
tp36
Rp37
ag10
(g14
S'D\x9aR\xe1\xa6}@A'
p38
tp39
Rp40
ag10
(g14
S'th\x91\xbdG~@A'
p41
tp42
Rp43
ag10
(g14
S',\\\x8f\x12F}@A'
p44
tp45
Rp46
ag10
(g14
S'\xdc\xb2VG\xbc~@A'
p47
tp48
Rp49
ag10
(g14
S'\xef\xa7\xc6\x8b\x1c~@A'
p50
tp51
Rp52
ag10
(g14
S'\xc2\xca\xa1%\x02~@A'
p53
tp54
Rp55
ag10
(g14
S'\xba\x83ybD}@A'
p56
tp57
Rp58
ag10
(g14
S'{\xe9&\xf1-~@A'
p59
tp60
Rp61
ag10
(g14
S'\xfbb\xc9O\xbb}@A'
p62
tp63
Rp64
ag10
(g14
S'\xc0\x9f\x1a\xbft}@A'
p65
tp66
Rp67
ag10
(g14
S';\xb4\xc8\xd6\x02~@A'
p68
tp69
Rp70
ag10
(g14
S'X\x0e-\xb2\xde}@A'
p71
tp72
Rp73
ag10
(g14
S'&\xea\xdfx ~@A'
p74
tp75
Rp76
asS'target'
p77
(lp78
g10
(g14
S'\x01\xd5x\xe9&\xa1X@'
p79
tp80
Rp81
ag10
(g14
S'kffff\xceX@'
p82
tp83
Rp84
ag10
(g14
S'!\x04V\x0e-Z[@'
p85
tp86
Rp87
ag10
(g14
S'\xb7t\x93\x18\x04\xbeZ@'
p88
tp89
Rp90
ag10
(g14
S'I\n\xd7\xa3pMW@'
p91
tp92
Rp93
ag10
(g14
S'e\xbct\x93\x18\xccY@'
p94
tp95
Rp96
ag10
(g14
S'\xa5p=\n\xd73Z@'
p97
tp98
Rp99
ag10
(g14
S'\xb3\x9d\xef\xa7\xc6\x8bX@'
p100
tp101
Rp102
ag10
(g14
S'r;\xdfO\x8d\x7fY@'
p103
tp104
Rp105
ag10
(g14
S'\x84\x16\xd9\xce\xf7cW@'
p106
tp107
Rp108
ag10
(g14
S"\xcev\xbe\x9f\x1a'[@"
p109
tp110
Rp111
ag10
(g14
S'k\x91\xed|?\x05Y@'
p112
tp113
Rp114
ag10
(g14
S'\xeaz\x14\xaeGiY@'
p115
tp116
Rp117
ag10
(g14
S'\x8b\xed|?5\xd6Z@'
p118
tp119
Rp120
ag10
(g14
S'\xdd\xa5\x9b\xc4 \x80X@'
p121
tp122
Rp123
ag10
(g14
S'\x11X9\xb4\xc8Z]@'
p124
tp125
Rp126
ag10
(g14
S'b\x8f\xc2\xf5( W@'
p127
tp128
Rp129
ag10
(g14
S'\xf8\xa7\xc6K7\t]@'
p130
tp131
Rp132
ag10
(g14
S'\xce\xf7S\xe3\xa53Y@'
p133
tp134
Rp135
ag10
(g14
S'^;\xdfO\x8d\xcfV@'
p136
tp137
Rp138
asssss.