(dp0
S'../Data/sqlite_12.csv'
p1
(dp2
S'../Data/sqlite_85.csv'
p3
(dp4
F0.15
(dp5
S'abs_res'
p6
(dp7
S'bellwether'
p8
(lp9
cnumpy.core.multiarray
scalar
p10
(cnumpy
dtype
p11
(S'f8'
p12
I0
I1
tp13
Rp14
(I3
S'<'
p15
NNNI-1
I-1
I0
tp16
bS'\xa4\x9b\xc4p\x1f<WA'
p17
tp18
Rp19
ag10
(g14
S'\xc8\xce\xf7\x07\xd0AWA'
p20
tp21
Rp22
ag10
(g14
S'\x9faW\x1c\xa8\nWA'
p23
tp24
Rp25
ag10
(g14
S'r\x93\x18\xbc\x80>WA'
p26
tp27
Rp28
ag10
(g14
S'\xdek.\xec\xa6EWA'
p29
tp30
Rp31
ag10
(g14
S'xh\x91\x05$\x1eWA'
p32
tp33
Rp34
ag10
(g14
S'~j\xbc|/=WA'
p35
tp36
Rp37
ag10
(g14
S'\x06r\xaf\x95G WA'
p38
tp39
Rp40
ag10
(g14
S'\xe4\xc1<\xe5\x96DWA'
p41
tp42
Rp43
ag10
(g14
S'\x8b\xebQ\x04\xe4:WA'
p44
tp45
Rp46
ag10
(g14
S'\xe0O\x8d;\xf2WWA'
p47
tp48
Rp49
ag10
(g14
S'x\xe9&\xf9\xa7bWA'
p50
tp51
Rp52
ag10
(g14
S'\x90\x8a\xb3C\xd9eWA'
p53
tp54
Rp55
ag10
(g14
S'\x90\x18\x04\xc2\x1f\x1dWA'
p56
tp57
Rp58
ag10
(g14
S'\x1f\xf7\x9aK\xca3WA'
p59
tp60
Rp61
ag10
(g14
S'.\xf9\xc5\x12G!WA'
p62
tp63
Rp64
ag10
(g14
S'^,\xf9\xb5\x8aFWA'
p65
tp66
Rp67
ag10
(g14
S'\xce\x94\x8aS$1WA'
p68
tp69
Rp70
ag10
(g14
S'\x02\xbb\x02d\xd3]WA'
p71
tp72
Rp73
ag10
(g14
S'^;\xdf\x8f\xa0eWA'
p74
tp75
Rp76
asS'target'
p77
(lp78
g10
(g14
S'\xfb(\\\x8f\xb0>EA'
p79
tp80
Rp81
ag10
(g14
S'\xeb(\\_\n\x05CA'
p82
tp83
Rp84
ag10
(g14
S'\x12\xaeG\x01K\x8aEA'
p85
tp86
Rp87
ag10
(g14
S'\xfe\xff\xff_\x0f\xe9AA'
p88
tp89
Rp90
ag10
(g14
S'\x11\xaeG\xe1\xb4\x89GA'
p91
tp92
Rp93
ag10
(g14
S'\x02\x00\x00\xc0_}@A'
p94
tp95
Rp96
ag10
(g14
S'\x14\xd7\xa3P\x15LBA'
p97
tp98
Rp99
ag10
(g14
S'\xadG\xe1\xfa\x98^AA'
p100
tp101
Rp102
ag10
(g14
S'dfff\xb9JCA'
p103
tp104
Rp105
ag10
(g14
S'\xd8\xa3p\xfd?lAA'
p106
tp107
Rp108
ag10
(g14
S'P\xe1zT\xebQCA'
p109
tp110
Rp111
ag10
(g14
S'\xe9Q\xb8^hBAA'
p112
tp113
Rp114
ag10
(g14
S'\xfb(\\\xef\x0b3AA'
p115
tp116
Rp117
ag10
(g14
S'V\x8f\xc25\x19SAA'
p118
tp119
Rp120
ag10
(g14
S'\x12\xaeGa\xd1\xb3IA'
p121
tp122
Rp123
ag10
(g14
S'333S-\x05BA'
p124
tp125
Rp126
ag10
(g14
S'N\xe1zt\xd2\xc7@A'
p127
tp128
Rp129
ag10
(g14
S'A\n\xd7C\x9e7BA'
p130
tp131
Rp132
ag10
(g14
S'\x1a\xaeGa\xd3_AA'
p133
tp134
Rp135
ag10
(g14
S'+\\\x8fB\x97\x03BA'
p136
tp137
Rp138
asssss.