(dp0
S'../Data/sqlite_66.csv'
p1
(dp2
S'../Data/sqlite_85.csv'
p3
(dp4
F0.35
(dp5
S'mmre'
p6
(dp7
S'bellwether'
p8
(lp9
cnumpy.core.multiarray
scalar
p10
(cnumpy
dtype
p11
(S'f8'
p12
I0
I1
tp13
Rp14
(I3
S'<'
p15
NNNI-1
I-1
I0
tp16
bS'\x9f\x03D\xd6\xc3bU@'
p17
tp18
Rp19
ag10
(g14
S'Q*]jt\x88U@'
p20
tp21
Rp22
ag10
(g14
S"'\x85Q\x84\xa5~U@"
p23
tp24
Rp25
ag10
(g14
S'\xef\x91i\xfd\xc7sU@'
p26
tp27
Rp28
ag10
(g14
S'qeus\xf2\x8eU@'
p29
tp30
Rp31
ag10
(g14
S'\xaa\x0e\x9b\xcc&UU@'
p32
tp33
Rp34
ag10
(g14
S'q\xa1\xd4\xc4htU@'
p35
tp36
Rp37
ag10
(g14
S'\x0b{d_\xbeyU@'
p38
tp39
Rp40
ag10
(g14
S'M\xe0\xcdi\x14VU@'
p41
tp42
Rp43
ag10
(g14
S'\x91\xc2u\x8a\xeejU@'
p44
tp45
Rp46
ag10
(g14
S'\xc5o\x12*b\x99U@'
p47
tp48
Rp49
ag10
(g14
S'\xd1\xa1\x18FcfU@'
p50
tp51
Rp52
ag10
(g14
S'\xado\x04,DSU@'
p53
tp54
Rp55
ag10
(g14
S'\xec\xcfW\xeb\xbaYU@'
p56
tp57
Rp58
ag10
(g14
S'\xbb2\xfe\xb4xoU@'
p59
tp60
Rp61
ag10
(g14
S'{[\xb9\xed8NU@'
p62
tp63
Rp64
ag10
(g14
S'6\x91\xeb\x0e\xa1~U@'
p65
tp66
Rp67
ag10
(g14
S'\xf1u&\x17|HU@'
p68
tp69
Rp70
ag10
(g14
S'\x9ea\x07\xdd\xc7vU@'
p71
tp72
Rp73
ag10
(g14
S'\x07\xd84\xfe _U@'
p74
tp75
Rp76
asS'target'
p77
(lp78
g10
(g14
S'\xb8\x82\xe1T\xb6\xe9S@'
p79
tp80
Rp81
ag10
(g14
S'\x05\xaa\xacL\xac\x0bR@'
p82
tp83
Rp84
ag10
(g14
S'\xb0\x92\xe5\x00\x8b[S@'
p85
tp86
Rp87
ag10
(g14
S'\xd3\xd3i\x9fu\rT@'
p88
tp89
Rp90
ag10
(g14
S'\xc9H/;I\xe2Q@'
p91
tp92
Rp93
ag10
(g14
S'\xe01\x92\x94\x03XS@'
p94
tp95
Rp96
ag10
(g14
S'%j\xeb\xda*GR@'
p97
tp98
Rp99
ag10
(g14
S'\x9ac\x1aS^\xbaR@'
p100
tp101
Rp102
ag10
(g14
S'k6;\xa0\xd9\xe9S@'
p103
tp104
Rp105
ag10
(g14
S'v\xf0\x9d\xc6Z.S@'
p106
tp107
Rp108
ag10
(g14
S'" \x16L\x02\x92Q@'
p109
tp110
Rp111
ag10
(g14
S'\xb7\xde;>\xbcbS@'
p112
tp113
Rp114
ag10
(g14
S'\xc2\xaaJ\xd1<\xc2U@'
p115
tp116
Rp117
ag10
(g14
S'9\x17\x1a\xbeeST@'
p118
tp119
Rp120
ag10
(g14
S'8\xfc\xb5&\xc1%R@'
p121
tp122
Rp123
ag10
(g14
S"@\xd3af'\xf3T@"
p124
tp125
Rp126
ag10
(g14
S'\x144\xdb\xca\xfaqQ@'
p127
tp128
Rp129
ag10
(g14
S'ei\xd4\xbd\xd0\xefR@'
p130
tp131
Rp132
ag10
(g14
S'\xeb\xc3\xb5\xe0\xc2mR@'
p133
tp134
Rp135
ag10
(g14
S'V\xab\xa8\x08\xf8\xc2S@'
p136
tp137
Rp138
asssss.