(dp0
S'../Data/sqlite_58.csv'
p1
(dp2
S'../Data/sqlite_88.csv'
p3
(dp4
F0.05
(dp5
S'mmre'
p6
(dp7
S'bellwether'
p8
(lp9
cnumpy.core.multiarray
scalar
p10
(cnumpy
dtype
p11
(S'f8'
p12
I0
I1
tp13
Rp14
(I3
S'<'
p15
NNNI-1
I-1
I0
tp16
bS'\xa2K\xa8\x80[\xf9X@'
p17
tp18
Rp19
ag10
(g14
S'\xb8HA\x90f\xf9X@'
p20
tp21
Rp22
ag10
(g14
S'\x94\x02O4w\xf9X@'
p23
tp24
Rp25
ag10
(g14
S'\x1e\x9c\xb3_[\xf9X@'
p26
tp27
Rp28
ag10
(g14
S'\xd0g\x8f<[\xf9X@'
p29
tp30
Rp31
ag10
(g14
S'\x82,\xaf\x10y\xf9X@'
p32
tp33
Rp34
ag10
(g14
S'\x1b\xa3\xd1\x10{\xf9X@'
p35
tp36
Rp37
ag10
(g14
S'\xb1\xad9/y\xf9X@'
p38
tp39
Rp40
ag10
(g14
S'\xce\x9b\x11X^\xf9X@'
p41
tp42
Rp43
ag10
(g14
S'.\x01h\x9eg\xf9X@'
p44
tp45
Rp46
ag10
(g14
S'\x8d\xb59\xd3{\xf9X@'
p47
tp48
Rp49
ag10
(g14
S' 9\xc2Lz\xf9X@'
p50
tp51
Rp52
ag10
(g14
S'dN1\xb9f\xf9X@'
p53
tp54
Rp55
ag10
(g14
S'\xc3Wo\xd2P\xf9X@'
p56
tp57
Rp58
ag10
(g14
S'G\x8fq=s\xf9X@'
p59
tp60
Rp61
ag10
(g14
S'K\xc0\xa4\x98\x95\xf9X@'
p62
tp63
Rp64
ag10
(g14
S'D~f\x1ct\xf9X@'
p65
tp66
Rp67
ag10
(g14
S'\x06\xec\xe2\x94s\xf9X@'
p68
tp69
Rp70
ag10
(g14
S'\xf7R>\xbar\xf9X@'
p71
tp72
Rp73
ag10
(g14
S'\xd8\xa3jM{\xf9X@'
p74
tp75
Rp76
asS'target'
p77
(lp78
g10
(g14
S'\xfd5\t\xc1\xb1)J@'
p79
tp80
Rp81
ag10
(g14
S'\xa1\x8f^\x0c\xd0\x08L@'
p82
tp83
Rp84
ag10
(g14
S'\x82E\x9c\xb9O{I@'
p85
tp86
Rp87
ag10
(g14
S'\xaft\x8a\x02\xf6nS@'
p88
tp89
Rp90
ag10
(g14
S'\xa5\xd1\x11\xfc\xc8\xa8N@'
p91
tp92
Rp93
ag10
(g14
S'~\xb9\x95\xd8\xbf6J@'
p94
tp95
Rp96
ag10
(g14
S'P\x1cGZ\n\xe8H@'
p97
tp98
Rp99
ag10
(g14
S'+\x0f\xcaI])J@'
p100
tp101
Rp102
ag10
(g14
S',y,\xb4HML@'
p103
tp104
Rp105
ag10
(g14
S'(\xbc(\xca\xbd\x98K@'
p106
tp107
Rp108
ag10
(g14
S'G\xb5q\xcd`\xdbK@'
p109
tp110
Rp111
ag10
(g14
S'XrK\x9fT\x90K@'
p112
tp113
Rp114
ag10
(g14
S'f\xb4as\xf3\xc6N@'
p115
tp116
Rp117
ag10
(g14
S"\x8bG\x96J\xa4'K@"
p118
tp119
Rp120
ag10
(g14
S'8\xe6D!\xf2}H@'
p121
tp122
Rp123
ag10
(g14
S'\x17Ae\xbb\xc2\xfeK@'
p124
tp125
Rp126
ag10
(g14
S'\x00Q\xe1\xc0\xa2uL@'
p127
tp128
Rp129
ag10
(g14
S'QDe\xddQ\xc9J@'
p130
tp131
Rp132
ag10
(g14
S"\xc0'\xa1\x8f\x84\x85K@"
p133
tp134
Rp135
ag10
(g14
S'y\x89z\xc5\xd6\x1bJ@'
p136
tp137
Rp138
asssss.