(dp0
S'../Data/sqlite_18.csv'
p1
(dp2
S'../Data/sqlite_16.csv'
p3
(dp4
F0.3
(dp5
S'abs_res'
p6
(dp7
S'bellwether'
p8
(lp9
cnumpy.core.multiarray
scalar
p10
(cnumpy
dtype
p11
(S'f8'
p12
I0
I1
tp13
Rp14
(I3
S'<'
p15
NNNI-1
I-1
I0
tp16
bS'\x86\xb3\x0f\xff\x92-;A'
p17
tp18
Rp19
ag10
(g14
S'\x9d8\xfbP\x88.;A'
p20
tp21
Rp22
ag10
(g14
S'J\xd2\x94J\xa3.;A'
p23
tp24
Rp25
ag10
(g14
S'O\x8d\x97\x8e\x80.;A'
p26
tp27
Rp28
ag10
(g14
S'0\xa5\xe2\xac&/;A'
p29
tp30
Rp31
ag10
(g14
S'J\xe3\xa5[\xd4+;A'
p32
tp33
Rp34
ag10
(g14
S'\xd3\xdb\xb2\xb6\xf9.;A'
p35
tp36
Rp37
ag10
(g14
S'E\xb6\xf3]s.;A'
p38
tp39
Rp40
ag10
(g14
S'\xb3\x9d\xef\xa7\xed.;A'
p41
tp42
Rp43
ag10
(g14
S'\xf0\xc3gx\x8b-;A'
p44
tp45
Rp46
ag10
(g14
S'\x0ft\xda 7/;A'
p47
tp48
Rp49
ag10
(g14
S'\x05IS\xca\xd4*;A'
p50
tp51
Rp52
ag10
(g14
S'\xd8x\xe9\x06j,;A'
p53
tp54
Rp55
ag10
(g14
S'-m\xa0\xb31-;A'
p56
tp57
Rp58
ag10
(g14
S'\xf8\xf0\x19\xd6\xa1,;A'
p59
tp60
Rp61
ag10
(g14
S'2\xd0i\x83\xd8,;A'
p62
tp63
Rp64
ag10
(g14
S'\x80\xc0\xca\x01\x80.;A'
p65
tp66
Rp67
ag10
(g14
S')\xf9\xc5\xf26-;A'
p68
tp69
Rp70
ag10
(g14
S'\xa6\x1a/\xbd\n/;A'
p71
tp72
Rp73
ag10
(g14
S'\xed|?\xb5D,;A'
p74
tp75
Rp76
asS'target'
p77
(lp78
g10
(g14
S'\xe2O\x8d\x97nbG@'
p79
tp80
Rp81
ag10
(g14
S'/\\\x8f\xc2\xf5\xf8G@'
p82
tp83
Rp84
ag10
(g14
S'\xbet\x93\x18\x04\xc6F@'
p85
tp86
Rp87
ag10
(g14
S'|j\xbct\x938F@'
p88
tp89
Rp90
ag10
(g14
S'\xae\xf1\xd2Mb`I@'
p91
tp92
Rp93
ag10
(g14
S'\x19/\xdd$\x06\xd1G@'
p94
tp95
Rp96
ag10
(g14
S'\xff\xd4x\xe9&!J@'
p97
tp98
Rp99
ag10
(g14
S'\xcf\xcc\xcc\xcc\xcc\x14F@'
p100
tp101
Rp102
ag10
(g14
S'\xf0~j\xbct\x8bE@'
p103
tp104
Rp105
ag10
(g14
S'\r\x02+\x87\x16iN@'
p106
tp107
Rp108
ag10
(g14
S'\xf6|?5^zE@'
p109
tp110
Rp111
ag10
(g14
S'gffff\xc6E@'
p112
tp113
Rp114
ag10
(g14
S'\xba\xf3\xfd\xd4xyH@'
p115
tp116
Rp117
ag10
(g14
S'\x81\x14\xaeG\xe1zG@'
p118
tp119
Rp120
ag10
(g14
S'\x8d\x18\x04V\x0e%K@'
p121
tp122
Rp123
ag10
(g14
S'`d;\xdfOmI@'
p124
tp125
Rp126
ag10
(g14
S'\xdb\xa3p=\n\xa7G@'
p127
tp128
Rp129
ag10
(g14
S'[;\xdfO\x8d\x0fH@'
p130
tp131
Rp132
ag10
(g14
S'\x1d\xb2\x9d\xef\xa76I@'
p133
tp134
Rp135
ag10
(g14
S'\x93\x18\x04V\x0e]G@'
p136
tp137
Rp138
asssss.