(dp0
S'../Data/sqlite_0.csv'
p1
(dp2
S'../Data/sqlite_94.csv'
p3
(dp4
F0.35
(dp5
S'mmre'
p6
(dp7
S'bellwether'
p8
(lp9
cnumpy.core.multiarray
scalar
p10
(cnumpy
dtype
p11
(S'f8'
p12
I0
I1
tp13
Rp14
(I3
S'<'
p15
NNNI-1
I-1
I0
tp16
bS'\x14[\x8c\xcb\xa3lX@'
p17
tp18
Rp19
ag10
(g14
S'\xf6\xdc\x93\x082mX@'
p20
tp21
Rp22
ag10
(g14
S'Mh\x878\xf5nX@'
p23
tp24
Rp25
ag10
(g14
S'\x8c\xf2\xae\xf1tlX@'
p26
tp27
Rp28
ag10
(g14
S'\x86\r\xd4 \xcbmX@'
p29
tp30
Rp31
ag10
(g14
S"e\x95;'\x8clX@"
p32
tp33
Rp34
ag10
(g14
S'\xdb\xa9\xd5\x17_oX@'
p35
tp36
Rp37
ag10
(g14
S'\x80*\x80\xefnmX@'
p38
tp39
Rp40
ag10
(g14
S'\x89y.f&pX@'
p41
tp42
Rp43
ag10
(g14
S'=\x83\x12\xc37mX@'
p44
tp45
Rp46
ag10
(g14
S'x\xe0\xce\xe0\xb3jX@'
p47
tp48
Rp49
ag10
(g14
S'\xe5\x05\x89\xc8\x1fkX@'
p50
tp51
Rp52
ag10
(g14
S'9\x80\x07|\x93nX@'
p53
tp54
Rp55
ag10
(g14
S'>C\x03\x97XkX@'
p56
tp57
Rp58
ag10
(g14
S'\x16\xea\xfd\xf1\xb7lX@'
p59
tp60
Rp61
ag10
(g14
S'\x05#l2\\lX@'
p62
tp63
Rp64
ag10
(g14
S'\xd57\xefxZmX@'
p65
tp66
Rp67
ag10
(g14
S'@)\xa9"llX@'
p68
tp69
Rp70
ag10
(g14
S'b\x1b\xca\xe33mX@'
p71
tp72
Rp73
ag10
(g14
S'\x0fg~l\xfamX@'
p74
tp75
Rp76
asS'target'
p77
(lp78
g10
(g14
S'\xc6d{c\xd9\x1fS@'
p79
tp80
Rp81
ag10
(g14
S'\xd1\x88\x1b\xb1\xafGG@'
p82
tp83
Rp84
ag10
(g14
S'C\xad(\xd9|6R@'
p85
tp86
Rp87
ag10
(g14
S'f\xd3WVJ\x16Q@'
p88
tp89
Rp90
ag10
(g14
S'\xa6\x9b\x93 \xdf\tO@'
p91
tp92
Rp93
ag10
(g14
S'+\xfa\xc2\xb7dUP@'
p94
tp95
Rp96
ag10
(g14
S"\xbak\xd9'\xbf;O@"
p97
tp98
Rp99
ag10
(g14
S'\x85&\xfd\xb4,\xf3R@'
p100
tp101
Rp102
ag10
(g14
S'\x03\xdc$\\\xb0\xe9N@'
p103
tp104
Rp105
ag10
(g14
S'\xdb\xdc91_\x16U@'
p106
tp107
Rp108
ag10
(g14
S'\x91a\xee\xc2m\x15X@'
p109
tp110
Rp111
ag10
(g14
S'\xdc\\t\xf5\x8c\xafU@'
p112
tp113
Rp114
ag10
(g14
S'\x068\x1b\xaex\xa9O@'
p115
tp116
Rp117
ag10
(g14
S'\x03\x97nT>3S@'
p118
tp119
Rp120
ag10
(g14
S'\xfd\xe8}\x06d\x03H@'
p121
tp122
Rp123
ag10
(g14
S'!\x14 3Q\xceP@'
p124
tp125
Rp126
ag10
(g14
S'\xb4+\x01\x8b\x0e"P@'
p127
tp128
Rp129
ag10
(g14
S'\xc7\x08,\xccmtQ@'
p130
tp131
Rp132
ag10
(g14
S'XP\xfaV\xa0~L@'
p133
tp134
Rp135
ag10
(g14
S'\xeeF\xb4\xb4\xc8-L@'
p136
tp137
Rp138
asssss.