(dp0
S'../Data/sqlite_45.csv'
p1
(dp2
S'../Data/sqlite_77.csv'
p3
(dp4
F0.2
(dp5
S'mmre'
p6
(dp7
S'bellwether'
p8
(lp9
cnumpy.core.multiarray
scalar
p10
(cnumpy
dtype
p11
(S'f8'
p12
I0
I1
tp13
Rp14
(I3
S'<'
p15
NNNI-1
I-1
I0
tp16
bS'\x88\x91^E~nN@'
p17
tp18
Rp19
ag10
(g14
S'\x1c\x10_#\xdd\x85N@'
p20
tp21
Rp22
ag10
(g14
S'p\xd69\x8b\xa5cN@'
p23
tp24
Rp25
ag10
(g14
S'\xc3r\xfb\xd33\x7fN@'
p26
tp27
Rp28
ag10
(g14
S'\xabV\xc6\xfa\x80{N@'
p29
tp30
Rp31
ag10
(g14
S'R6\xd2\xc7\xa1dN@'
p32
tp33
Rp34
ag10
(g14
S'\x1e\xeb\xb0\x8e\x82\\N@'
p35
tp36
Rp37
ag10
(g14
S'\xee\xbbmXclN@'
p38
tp39
Rp40
ag10
(g14
S'\xbb\xdd\x03\x12{iN@'
p41
tp42
Rp43
ag10
(g14
S'l\xcc$\xa4=_N@'
p44
tp45
Rp46
ag10
(g14
S'\n\xb8W\xd4\xa0NN@'
p47
tp48
Rp49
ag10
(g14
S'\xdf\xedvm\x1eiN@'
p50
tp51
Rp52
ag10
(g14
S'n8*%\xbfpN@'
p53
tp54
Rp55
ag10
(g14
S'\x17XZ=\xc0hN@'
p56
tp57
Rp58
ag10
(g14
S'\xd0~gy\x1bzN@'
p59
tp60
Rp61
ag10
(g14
S'NJ\xfd!v{N@'
p62
tp63
Rp64
ag10
(g14
S'\xe1Y\xa3HyaN@'
p65
tp66
Rp67
ag10
(g14
S'\xb40L\xbeibN@'
p68
tp69
Rp70
ag10
(g14
S'\x98vz]0FN@'
p71
tp72
Rp73
ag10
(g14
S'-\xf3m\xaf\\iN@'
p74
tp75
Rp76
asS'target'
p77
(lp78
g10
(g14
S'f\x19p\xc4\xf9;5@'
p79
tp80
Rp81
ag10
(g14
S'\xfe;\xd9\x9f<F5@'
p82
tp83
Rp84
ag10
(g14
S'd\xa6x\xe0\xfb\x066@'
p85
tp86
Rp87
ag10
(g14
S'3\xdc\xe6#\xbdH6@'
p88
tp89
Rp90
ag10
(g14
S'\xe7\xc8\xd4v\xa2\r4@'
p91
tp92
Rp93
ag10
(g14
S'nn\x9a\xa7tD5@'
p94
tp95
Rp96
ag10
(g14
S'\xc3\xc6(.Y?5@'
p97
tp98
Rp99
ag10
(g14
S'\xaeW#;\xa5\x116@'
p100
tp101
Rp102
ag10
(g14
S'\xa4\xf3\xa9+\xc1\xd85@'
p103
tp104
Rp105
ag10
(g14
S'\xb5aP\x84\xc2T5@'
p106
tp107
Rp108
ag10
(g14
S'\xd0\xb3\xb1\xce\xcb\xc06@'
p109
tp110
Rp111
ag10
(g14
S'\xd0\xab\x12\x04@&5@'
p112
tp113
Rp114
ag10
(g14
S'6b\x95J\x08\xdc5@'
p115
tp116
Rp117
ag10
(g14
S'\x95\xe8$\xd5\xc8D5@'
p118
tp119
Rp120
ag10
(g14
S'\x8f\x1b\x9fr\xd3\xdc5@'
p121
tp122
Rp123
ag10
(g14
S'\x86\x1f\xf6|\xcb\xc44@'
p124
tp125
Rp126
ag10
(g14
S'\x0cA\x14w\xa6o6@'
p127
tp128
Rp129
ag10
(g14
S'\xe0v\xd6\x05H>6@'
p130
tp131
Rp132
ag10
(g14
S'&9:\xf8x\x988@'
p133
tp134
Rp135
ag10
(g14
S'\xb8wX4\x92r5@'
p136
tp137
Rp138
asssss.