(dp0
S'../Data/sqlite_46.csv'
p1
(dp2
S'../Data/sqlite_64.csv'
p3
(dp4
F0.4
(dp5
S'abs_res'
p6
(dp7
S'bellwether'
p8
(lp9
cnumpy.core.multiarray
scalar
p10
(cnumpy
dtype
p11
(S'f8'
p12
I0
I1
tp13
Rp14
(I3
S'<'
p15
NNNI-1
I-1
I0
tp16
bS'3\n\xd7#\xcb.7A'
p17
tp18
Rp19
ag10
(g14
S'7\xdfOm\x83.7A'
p20
tp21
Rp22
ag10
(g14
S'\xd7\xa3p}i.7A'
p23
tp24
Rp25
ag10
(g14
S"?\x8bl'\xc7-7A"
p26
tp27
Rp28
ag10
(g14
S'\xc0\xf5(<(-7A'
p29
tp30
Rp31
ag10
(g14
S'\xeb|?\xb5\x0b-7A'
p32
tp33
Rp34
ag10
(g14
S'\xe9\xfb\xa9\xb1\xe1.7A'
p35
tp36
Rp37
ag10
(g14
S'\x89\x18\x04v\x1f/7A'
p38
tp39
Rp40
ag10
(g14
S'\x1c\xb0r\xe82.7A'
p41
tp42
Rp43
ag10
(g14
S'E\x8bl\x07\x98-7A'
p44
tp45
Rp46
ag10
(g14
S'\xc8v\xbe\xbf..7A'
p47
tp48
Rp49
ag10
(g14
S'\x91\x18\x046\xa2.7A'
p50
tp51
Rp52
ag10
(g14
S':\n\xd7C\xed-7A'
p53
tp54
Rp55
ag10
(g14
S'\xc1\xca\xa1%Y,7A'
p56
tp57
Rp58
ag10
(g14
S'\xc7K7I\xa7-7A'
p59
tp60
Rp61
ag10
(g14
S'j\x91\xed\x1c\xfb.7A'
p62
tp63
Rp64
ag10
(g14
S'\x00\x00\x00\x00\x8e/7A'
p65
tp66
Rp67
ag10
(g14
S'Pb\x10xX.7A'
p68
tp69
Rp70
ag10
(g14
S'\xf5\xa7\xc6++.7A'
p71
tp72
Rp73
ag10
(g14
S'\r\xac\x1cz\xb1-7A'
p74
tp75
Rp76
asS'target'
p77
(lp78
g10
(g14
S'}\x93\x18\x04V\xbdq@'
p79
tp80
Rp81
ag10
(g14
S'P7\x89A`\x06r@'
p82
tp83
Rp84
ag10
(g14
S'\xdez\x14\xaeG\xffr@'
p85
tp86
Rp87
ag10
(g14
S'\xb28\xfb\xf0\x19\x98o@'
p88
tp89
Rp90
ag10
(g14
S'm=\n\xd7\xa3np@'
p91
tp92
Rp93
ag10
(g14
S'\xb1\x9d\xef\xa7\xc6\xc6q@'
p94
tp95
Rp96
ag10
(g14
S'/\x08\xac\x1cZ\x0co@'
p97
tp98
Rp99
ag10
(g14
S'/\x08\xac\x1cZ\x0bq@'
p100
tp101
Rp102
ag10
(g14
S'\xa6p=\n\xd7\x08p@'
p103
tp104
Rp105
ag10
(g14
S'O\x8d\x97n\x12\x9bp@'
p106
tp107
Rp108
ag10
(g14
S'[d;\xdfO\xcbq@'
p109
tp110
Rp111
ag10
(g14
S'v\x93\x18\x04V\xfaq@'
p112
tp113
Rp114
ag10
(g14
S'\x8fl\xe7\xfb\xa9\xa0q@'
p115
tp116
Rp117
ag10
(g14
S'\xccK7\x89A\xc0q@'
p118
tp119
Rp120
ag10
(g14
S'P\x8d\x97n\x12\xd8p@'
p121
tp122
Rp123
ag10
(g14
S'3^\xbaI\x0c\xc7p@'
p124
tp125
Rp126
ag10
(g14
S'\x85\xebQ\xb8\x1e\xbdq@'
p127
tp128
Rp129
ag10
(g14
S'\x0f\x02+\x87\x16\x07p@'
p130
tp131
Rp132
ag10
(g14
S'\xc8K7\x89A\xf9p@'
p133
tp134
Rp135
ag10
(g14
S'\xf3\xd2Mb\x10Pq@'
p136
tp137
Rp138
asssss.