(dp0
S'../Data/sqlite_77.csv'
p1
(dp2
S'../Data/sqlite_95.csv'
p3
(dp4
F0.4
(dp5
S'mmre'
p6
(dp7
S'bellwether'
p8
(lp9
cnumpy.core.multiarray
scalar
p10
(cnumpy
dtype
p11
(S'f8'
p12
I0
I1
tp13
Rp14
(I3
S'<'
p15
NNNI-1
I-1
I0
tp16
bS'e\xb0U&\x1cIX@'
p17
tp18
Rp19
ag10
(g14
S'\xa3\x89\x07\xaerMX@'
p20
tp21
Rp22
ag10
(g14
S'\xad\xc9\x10E/FX@'
p23
tp24
Rp25
ag10
(g14
S"?'\x96=\x1bGX@"
p26
tp27
Rp28
ag10
(g14
S'L_V\x82@IX@'
p29
tp30
Rp31
ag10
(g14
S'#.]\x84\x90IX@'
p32
tp33
Rp34
ag10
(g14
S'\xeal# \x8eHX@'
p35
tp36
Rp37
ag10
(g14
S'A\xfa\x02\x95YLX@'
p38
tp39
Rp40
ag10
(g14
S'\x0bC\x00\\\xb7KX@'
p41
tp42
Rp43
ag10
(g14
S'4b\x0cF-FX@'
p44
tp45
Rp46
ag10
(g14
S'\xc3\x03-\xeePHX@'
p47
tp48
Rp49
ag10
(g14
S'\xa0\xfe\n\x7f\nHX@'
p50
tp51
Rp52
ag10
(g14
S'xV\x7fD\xafHX@'
p53
tp54
Rp55
ag10
(g14
S'\x80u\xaesVGX@'
p56
tp57
Rp58
ag10
(g14
S'"3\x18\x19pFX@'
p59
tp60
Rp61
ag10
(g14
S'F2\xe8$\x08JX@'
p62
tp63
Rp64
ag10
(g14
S'xtf\xbf\xb1HX@'
p65
tp66
Rp67
ag10
(g14
S'u@\x1cX}FX@'
p68
tp69
Rp70
ag10
(g14
S'\r_\xc6\xbbjIX@'
p71
tp72
Rp73
ag10
(g14
S'\x81\xba]\xc6%FX@'
p74
tp75
Rp76
asS'target'
p77
(lp78
g10
(g14
S'{\xb7\x93\x90\xad/F@'
p79
tp80
Rp81
ag10
(g14
S'EX1)\x9b|@@'
p82
tp83
Rp84
ag10
(g14
S'X\xb3\x10\xa0\xbaT@@'
p85
tp86
Rp87
ag10
(g14
S'\xbc\xd3\xd7\x06\x96\x8c@@'
p88
tp89
Rp90
ag10
(g14
S'\xb4\x8b\xbc8n\xa9A@'
p91
tp92
Rp93
ag10
(g14
S'\x95\x96r\xa1r\xaf@@'
p94
tp95
Rp96
ag10
(g14
S'\xd0i\xa9\x8f2OC@'
p97
tp98
Rp99
ag10
(g14
S'):\xe1I\xd9\xe9@@'
p100
tp101
Rp102
ag10
(g14
S'\x9d.\x99`\xa1^A@'
p103
tp104
Rp105
ag10
(g14
S'\x15Q\x9f\x88\xb7,B@'
p106
tp107
Rp108
ag10
(g14
S'=9j\x81f\x14@@'
p109
tp110
Rp111
ag10
(g14
S'\x983\x87cRbA@'
p112
tp113
Rp114
ag10
(g14
S'\x81]y\xc6G\xfc@@'
p115
tp116
Rp117
ag10
(g14
S"\n\xbe)i_'@@"
p118
tp119
Rp120
ag10
(g14
S'\xfd\x81\x12Sn\xf5A@'
p121
tp122
Rp123
ag10
(g14
S'\xddj\x94\xec\x17\x87C@'
p124
tp125
Rp126
ag10
(g14
S'M\xfe\x840FsB@'
p127
tp128
Rp129
ag10
(g14
S'_V\x8a\xc7\x00dC@'
p130
tp131
Rp132
ag10
(g14
S'\x1f\x93\xa2\xe5\x00#E@'
p133
tp134
Rp135
ag10
(g14
S'\x1eS\xdf\xf3\xf07A@'
p136
tp137
Rp138
asssss.