(dp0
S'../Data/sqlite_58.csv'
p1
(dp2
S'../Data/sqlite_76.csv'
p3
(dp4
F0.4
(dp5
S'mmre'
p6
(dp7
S'bellwether'
p8
(lp9
cnumpy.core.multiarray
scalar
p10
(cnumpy
dtype
p11
(S'f8'
p12
I0
I1
tp13
Rp14
(I3
S'<'
p15
NNNI-1
I-1
I0
tp16
bS'\xf8b\xee|\xf2sU@'
p17
tp18
Rp19
ag10
(g14
S'\xdd\x18\xa0\xa9\xefoU@'
p20
tp21
Rp22
ag10
(g14
S'\x83\xed\x02\x97\x87dU@'
p23
tp24
Rp25
ag10
(g14
S'\x1e\x87\xf6\xaeMoU@'
p26
tp27
Rp28
ag10
(g14
S'\x82\x85\xc3\xfa\xeclU@'
p29
tp30
Rp31
ag10
(g14
S'\xb1o_\xb2\xeasU@'
p32
tp33
Rp34
ag10
(g14
S'\x80\x071\xb0\x8ahU@'
p35
tp36
Rp37
ag10
(g14
S'\xf5>\xdazYjU@'
p38
tp39
Rp40
ag10
(g14
S'\x98z\t&\xecmU@'
p41
tp42
Rp43
ag10
(g14
S'\xf2\xf3\xbda\xa8fU@'
p44
tp45
Rp46
ag10
(g14
S'\xbd\x17\x86kjbU@'
p47
tp48
Rp49
ag10
(g14
S'\xe0w\xe1\t\x8fgU@'
p50
tp51
Rp52
ag10
(g14
S'\x82\xf3\x01\xa5\x81nU@'
p53
tp54
Rp55
ag10
(g14
S'\xad\xbaS(FrU@'
p56
tp57
Rp58
ag10
(g14
S'\xffZ9M\x0fkU@'
p59
tp60
Rp61
ag10
(g14
S'G\x14K\xf6\x8diU@'
p62
tp63
Rp64
ag10
(g14
S'"[\xe0A{iU@'
p65
tp66
Rp67
ag10
(g14
S'd1\xdf\xf5\x8elU@'
p68
tp69
Rp70
ag10
(g14
S'\x90\xc9\xf4\x81\xacdU@'
p71
tp72
Rp73
ag10
(g14
S'@,\xf7A"lU@'
p74
tp75
Rp76
asS'target'
p77
(lp78
g10
(g14
S'\xf3\xbb\x06b\xfc\xfa0@'
p79
tp80
Rp81
ag10
(g14
S'^\xca;\x18er0@'
p82
tp83
Rp84
ag10
(g14
S'\x00_7\x0eF\xb91@'
p85
tp86
Rp87
ag10
(g14
S'\xdbo\xc2zN\x9a0@'
p88
tp89
Rp90
ag10
(g14
S"'mQ \xca\xc11@"
p91
tp92
Rp93
ag10
(g14
S'\x01[\x9ac2\xf31@'
p94
tp95
Rp96
ag10
(g14
S'\x9a\x126D\xc2+1@'
p97
tp98
Rp99
ag10
(g14
S'j\xdfp\xfa\xa2l1@'
p100
tp101
Rp102
ag10
(g14
S'\xc6\xcb\x17**\xde0@'
p103
tp104
Rp105
ag10
(g14
S'e!O6\xbd\x102@'
p106
tp107
Rp108
ag10
(g14
S'|\xd6\x93T3R1@'
p109
tp110
Rp111
ag10
(g14
S'(W\x91aya2@'
p112
tp113
Rp114
ag10
(g14
S'=\xd1\x7f\x8e\x81:1@'
p115
tp116
Rp117
ag10
(g14
S'\xbe\xe2\x9fL\xe0\xd81@'
p118
tp119
Rp120
ag10
(g14
S'\n1L\x04_\xef1@'
p121
tp122
Rp123
ag10
(g14
S'\xf1\xb3\x12\xd9\xd1\x971@'
p124
tp125
Rp126
ag10
(g14
S'r*\xd3\x16}\x9c0@'
p127
tp128
Rp129
ag10
(g14
S'\xf6\xd7\x1a\xfa\x93\xcd0@'
p130
tp131
Rp132
ag10
(g14
S'\xee\x81\x1dFlu1@'
p133
tp134
Rp135
ag10
(g14
S'Q,\x1e\x19;\x081@'
p136
tp137
Rp138
asssss.