(dp0
S'../Data/sqlite_46.csv'
p1
(dp2
S'../Data/sqlite_5.csv'
p3
(dp4
F0.15
(dp5
S'abs_res'
p6
(dp7
S'bellwether'
p8
(lp9
cnumpy.core.multiarray
scalar
p10
(cnumpy
dtype
p11
(S'f8'
p12
I0
I1
tp13
Rp14
(I3
S'<'
p15
NNNI-1
I-1
I0
tp16
bS'p=\n\x17\x9ef@A'
p17
tp18
Rp19
ag10
(g14
S'.1\x08\xac\xd3f@A'
p20
tp21
Rp22
ag10
(g14
S'h\xbct\xa3\x9ef@A'
p23
tp24
Rp25
ag10
(g14
S'\x1aZd\xabJf@A'
p26
tp27
Rp28
ag10
(g14
S'\x92C\x8b\x1c\xbbf@A'
p29
tp30
Rp31
ag10
(g14
S'\xecQ\xb8\xae\xd1f@A'
p32
tp33
Rp34
ag10
(g14
S'@5^\x1amg@A'
p35
tp36
Rp37
ag10
(g14
S'\t\x81\x95\xc3#g@A'
p38
tp39
Rp40
ag10
(g14
S'hffF\xc5f@A'
p41
tp42
Rp43
ag10
(g14
S'"Zd\xeb4g@A'
p44
tp45
Rp46
ag10
(g14
S'i\xbct\xf3\xb4f@A'
p47
tp48
Rp49
ag10
(g14
S'~\x14\xae\x97\x1eg@A'
p50
tp51
Rp52
ag10
(g14
S'<^\xba\xe9\xd3f@A'
p53
tp54
Rp55
ag10
(g14
S'\xf3\xd2M\x12Df@A'
p56
tp57
Rp58
ag10
(g14
S'\xef\xfb\xa9\x91\xbcf@A'
p59
tp60
Rp61
ag10
(g14
S'\xa2\x1a/\x1d\x8cf@A'
p62
tp63
Rp64
ag10
(g14
S'\x12\x83\xc0\xba\xf4f@A'
p65
tp66
Rp67
ag10
(g14
S'L7\x89Q\xd0f@A'
p68
tp69
Rp70
ag10
(g14
S'\xf5\xfd\xd4\x98\xd2f@A'
p71
tp72
Rp73
ag10
(g14
S'\xd6\xa3p}\xaef@A'
p74
tp75
Rp76
asS'target'
p77
(lp78
g10
(g14
S'\x17\xd9\xce\xf7S/_@'
p79
tp80
Rp81
ag10
(g14
S'\xdb&1\x08\xac\x0c\\@'
p82
tp83
Rp84
ag10
(g14
S'\xb9\xf3\xfd\xd4xi\\@'
p85
tp86
Rp87
ag10
(g14
S'\xaf\xc8v\xbe\x9f\xd6`@'
p88
tp89
Rp90
ag10
(g14
S'~l\xe7\xfb\xa9\x81_@'
p91
tp92
Rp93
ag10
(g14
S'63333\xdfZ@'
p94
tp95
Rp96
ag10
(g14
S'T\xb8\x1e\x85\xeb\x81[@'
p97
tp98
Rp99
ag10
(g14
S'\x90\xed|?5Za@'
p100
tp101
Rp102
ag10
(g14
S'\xc6 \xb0rh\xb1X@'
p103
tp104
Rp105
ag10
(g14
S'Z9\xb4\xc8v\xda^@'
p106
tp107
Rp108
ag10
(g14
S'\x1b-\xb2\x9d\xef;e@'
p109
tp110
Rp111
ag10
(g14
S'\xf3\xfd\xd4x\xe9H`@'
p112
tp113
Rp114
ag10
(g14
S'|?5^\xba\xf9a@'
p115
tp116
Rp117
ag10
(g14
S'.3333K^@'
p118
tp119
Rp120
ag10
(g14
S'\x9e\xc4 \xb0rX[@'
p121
tp122
Rp123
ag10
(g14
S'\x88?5^\xba![@'
p124
tp125
Rp126
ag10
(g14
S'\x8bl\xe7\xfb\xa9\x19`@'
p127
tp128
Rp129
ag10
(g14
S'\x11\x04V\x0e-\x86Y@'
p130
tp131
Rp132
ag10
(g14
S'\x11\x02+\x87\x16\xc1[@'
p133
tp134
Rp135
ag10
(g14
S'\x85A`\xe5\xd0\xda[@'
p136
tp137
Rp138
asssss.