(dp0
S'../Data/sqlite_75.csv'
p1
(dp2
S'../Data/sqlite_77.csv'
p3
(dp4
F0.05
(dp5
S'mmre'
p6
(dp7
S'bellwether'
p8
(lp9
cnumpy.core.multiarray
scalar
p10
(cnumpy
dtype
p11
(S'f8'
p12
I0
I1
tp13
Rp14
(I3
S'<'
p15
NNNI-1
I-1
I0
tp16
bS'\x80\xac\xc8^\x83VP@'
p17
tp18
Rp19
ag10
(g14
S'K` 4\xf5UP@'
p20
tp21
Rp22
ag10
(g14
S'm\xf3x\xebxUP@'
p23
tp24
Rp25
ag10
(g14
S'\x01\xef4\xb3.SP@'
p26
tp27
Rp28
ag10
(g14
S'.\'\x00"\xb7XP@'
p29
tp30
Rp31
ag10
(g14
S'\x1a\xe8$\x18\x1bXP@'
p32
tp33
Rp34
ag10
(g14
S'H-\xff\x92\xf1ZP@'
p35
tp36
Rp37
ag10
(g14
S'\x8dq\x9d#\xc7UP@'
p38
tp39
Rp40
ag10
(g14
S'D\x18SH?YP@'
p41
tp42
Rp43
ag10
(g14
S'\x93\xb0c^\xbdSP@'
p44
tp45
Rp46
ag10
(g14
S'\xef\xe5\xb1\x12\xe1XP@'
p47
tp48
Rp49
ag10
(g14
S' \xa8\xcc\xed;TP@'
p50
tp51
Rp52
ag10
(g14
S'\x8b\xa2\x17\xb3\xf2WP@'
p53
tp54
Rp55
ag10
(g14
S'\xaf1\xb1\xfc\x9bUP@'
p56
tp57
Rp58
ag10
(g14
S'i\x18i\x16wXP@'
p59
tp60
Rp61
ag10
(g14
S'\xed&\xddn\nVP@'
p62
tp63
Rp64
ag10
(g14
S'\x0e\xe9\xb3\xe0\xc2TP@'
p65
tp66
Rp67
ag10
(g14
S'G\xa4\xfb\x04<WP@'
p68
tp69
Rp70
ag10
(g14
S'/44\x968UP@'
p71
tp72
Rp73
ag10
(g14
S"26,y'ZP@"
p74
tp75
Rp76
asS'target'
p77
(lp78
g10
(g14
S'\xef\x9e\xcc\x15\xf5\xcb5@'
p79
tp80
Rp81
ag10
(g14
S'\xaf\x0fen$\xa25@'
p82
tp83
Rp84
ag10
(g14
S'\t\xb6\x98\x1c\xeb\x9d3@'
p85
tp86
Rp87
ag10
(g14
S'Ds\x14n\x80_4@'
p88
tp89
Rp90
ag10
(g14
S'\xb8\xaac6Vb8@'
p91
tp92
Rp93
ag10
(g14
S'\x98\xe8\x8c\xd0[\xba5@'
p94
tp95
Rp96
ag10
(g14
S'Q1\x00\xd9]\x835@'
p97
tp98
Rp99
ag10
(g14
S'w\x8b\xc7\x85\x86\x9e7@'
p100
tp101
Rp102
ag10
(g14
S'\xa2\x02\x1b\xf6\xf8,9@'
p103
tp104
Rp105
ag10
(g14
S'l\x11_f\x1525@'
p106
tp107
Rp108
ag10
(g14
S'\xd6\x9ej\xa9\x89 4@'
p109
tp110
Rp111
ag10
(g14
S'\x1ak\xa8\xfb\xbb\xb25@'
p112
tp113
Rp114
ag10
(g14
S'\x9d1\xde\x14I\x103@'
p115
tp116
Rp117
ag10
(g14
S'\xa4\xa3T\xa3\xab35@'
p118
tp119
Rp120
ag10
(g14
S'uB\xd3\xaeq\xb03@'
p121
tp122
Rp123
ag10
(g14
S'\x8a\xbbk\xc8i\xe24@'
p124
tp125
Rp126
ag10
(g14
S'J\xbd\x96C\x9d\x846@'
p127
tp128
Rp129
ag10
(g14
S'>\xf4mT\x08\xb06@'
p130
tp131
Rp132
ag10
(g14
S'6\x91\xb5\xeeV\xd48@'
p133
tp134
Rp135
ag10
(g14
S'\r1geN\x947@'
p136
tp137
Rp138
asssss.