(dp0
S'../Data/sqlite_66.csv'
p1
(dp2
S'../Data/sqlite_23.csv'
p3
(dp4
F0.25
(dp5
S'abs_res'
p6
(dp7
S'bellwether'
p8
(lp9
cnumpy.core.multiarray
scalar
p10
(cnumpy
dtype
p11
(S'f8'
p12
I0
I1
tp13
Rp14
(I3
S'<'
p15
NNNI-1
I-1
I0
tp16
bS'D\xa7\rto" A'
p17
tp18
Rp19
ag10
(g14
S'\x94\xa6T\\L" A'
p20
tp21
Rp22
ag10
(g14
S'\xe7\xb4\x81N\\# A'
p23
tp24
Rp25
ag10
(g14
S'u\x93\x18\x84\xb8! A'
p26
tp27
Rp28
ag10
(g14
S')\x06\x81Ug" A'
p29
tp30
Rp31
ag10
(g14
S'{?5\xde\x83" A'
p32
tp33
Rp34
ag10
(g14
S'\xd3x\xe9&\xb5" A'
p35
tp36
Rp37
ag10
(g14
S'\xcd>|\x86\xe9! A'
p38
tp39
Rp40
ag10
(g14
S'\xcb\xae\x009-" A'
p41
tp42
Rp43
ag10
(g14
S'\xd4\xa3p=\x86# A'
p44
tp45
Rp46
ag10
(g14
S'\xd5\xbf\x11JJ" A'
p47
tp48
Rp49
ag10
(g14
S'!Zd;\xf8! A'
p50
tp51
Rp52
ag10
(g14
S'\xa4\xe2\xec\x03># A'
p53
tp54
Rp55
ag10
(g14
S'1\xdd$\xc6H" A'
p56
tp57
Rp58
ag10
(g14
S'Pq\xf6as" A'
p59
tp60
Rp61
ag10
(g14
S'\xe8Q\xb8\x1e<" A'
p62
tp63
Rp64
ag10
(g14
S'GDD\xc4\xd8" A'
p65
tp66
Rp67
ag10
(g14
S'D\xa7\r\xb45" A'
p68
tp69
Rp70
ag10
(g14
S'\x0ft\xda\x80\xdc# A'
p71
tp72
Rp73
ag10
(g14
S'tL\xf0 z" A'
p74
tp75
Rp76
asS'target'
p77
(lp78
g10
(g14
S'G\n\xd7\xa3p\x9d@@'
p79
tp80
Rp81
ag10
(g14
S'\xfd\xd2Mb\x10x<@'
p82
tp83
Rp84
ag10
(g14
S'\xbf\xc8v\xbe\x9f\x9a=@'
p85
tp86
Rp87
ag10
(g14
S'\x90l\xe7\xfb\xa91;@'
p88
tp89
Rp90
ag10
(g14
S'h\x91\xed|?e?@'
p91
tp92
Rp93
ag10
(g14
S'\x9c\x1a/\xdd$&>@'
p94
tp95
Rp96
ag10
(g14
S'Kb\x10X9D>@'
p97
tp98
Rp99
ag10
(g14
S'\r-\xb2\x9d\xef\x87=@'
p100
tp101
Rp102
ag10
(g14
S'C\xb6\xf3\xfd\xd4\x00@@'
p103
tp104
Rp105
ag10
(g14
S'\xb3G\xe1z\x14.@@'
p106
tp107
Rp108
ag10
(g14
S'\xe3\xd0"\xdb\xf9&@@'
p109
tp110
Rp111
ag10
(g14
S'?5^\xbaI\x0c>@'
p112
tp113
Rp114
ag10
(g14
S'j\xe7\xfb\xa9\xf1\xd2<@'
p115
tp116
Rp117
ag10
(g14
S'\x97l\xe7\xfb\xa9\x91?@'
p118
tp119
Rp120
ag10
(g14
S'\xd2\xcc\xcc\xcc\xccL>@'
p121
tp122
Rp123
ag10
(g14
S'\x0f\xd7\xa3p=Z@@'
p124
tp125
Rp126
ag10
(g14
S'\xdez\x14\xaeG\xc1<@'
p127
tp128
Rp129
ag10
(g14
S'\xca\xcc\xcc\xcc\xcc\\;@'
p130
tp131
Rp132
ag10
(g14
S'\xe2\xa5\x9b\xc4 \xd0=@'
p133
tp134
Rp135
ag10
(g14
S'6\x89A`\xe5P;@'
p136
tp137
Rp138
asssss.