(dp0
S'../Data/sqlite_22.csv'
p1
(dp2
S'../Data/sqlite_73.csv'
p3
(dp4
F0.35
(dp5
S'mmre'
p6
(dp7
S'bellwether'
p8
(lp9
cnumpy.core.multiarray
scalar
p10
(cnumpy
dtype
p11
(S'f8'
p12
I0
I1
tp13
Rp14
(I3
S'<'
p15
NNNI-1
I-1
I0
tp16
bS'\xf5\xa1e\xb9\x04IT@'
p17
tp18
Rp19
ag10
(g14
S'\x0c\xcb\x1e\x97\xceFT@'
p20
tp21
Rp22
ag10
(g14
S'\x07\xaa^\xa9\x8cKT@'
p23
tp24
Rp25
ag10
(g14
S'\x07\xe3$E\x08JT@'
p26
tp27
Rp28
ag10
(g14
S'bb\xa1VOLT@'
p29
tp30
Rp31
ag10
(g14
S'Oc\xe8${KT@'
p32
tp33
Rp34
ag10
(g14
S'\xfa\xefA\xce\xbdGT@'
p35
tp36
Rp37
ag10
(g14
S'\xc5\xa1\xad\x91\xe0CT@'
p38
tp39
Rp40
ag10
(g14
S'=4\x83\xef)OT@'
p41
tp42
Rp43
ag10
(g14
S'O\xb8H\xf3\xeaOT@'
p44
tp45
Rp46
ag10
(g14
S'V\x9d0{\xc3GT@'
p47
tp48
Rp49
ag10
(g14
S'O\x01\x98)dCT@'
p50
tp51
Rp52
ag10
(g14
S'\x81N\x003\x9eBT@'
p53
tp54
Rp55
ag10
(g14
S'@%\xcf-\xb9DT@'
p56
tp57
Rp58
ag10
(g14
S'1\xf2\xb3\xc1LAT@'
p59
tp60
Rp61
ag10
(g14
S'-\xf3w\x9b\nET@'
p62
tp63
Rp64
ag10
(g14
S'\xbf`-\xa9\xf7HT@'
p65
tp66
Rp67
ag10
(g14
S'\x04%\x8e\xba\xebJT@'
p68
tp69
Rp70
ag10
(g14
S'F\xe4\x901\x00KT@'
p71
tp72
Rp73
ag10
(g14
S'?W\x8d\xdbMLT@'
p74
tp75
Rp76
asS'target'
p77
(lp78
g10
(g14
S'\xf0\xf8\xd8@7\xe0*@'
p79
tp80
Rp81
ag10
(g14
S'\xf1\x104H\xf1\x81-@'
p82
tp83
Rp84
ag10
(g14
S'\xd4\x904\xc1\xa8\x9a+@'
p85
tp86
Rp87
ag10
(g14
S'7\x14ag{y+@'
p88
tp89
Rp90
ag10
(g14
S'\xd8iw\x05)\x14+@'
p91
tp92
Rp93
ag10
(g14
S'[jE|\x1dv+@'
p94
tp95
Rp96
ag10
(g14
S'\xd4\xc6\x1f\xf1it,@'
p97
tp98
Rp99
ag10
(g14
S'\x17\x14\xcc\xd5\x02\xe4+@'
p100
tp101
Rp102
ag10
(g14
S'\x80\xa2\xb62\xa5T+@'
p103
tp104
Rp105
ag10
(g14
S'|o\xd5\xe4aF*@'
p106
tp107
Rp108
ag10
(g14
S'\x8cnP\x8du\x06+@'
p109
tp110
Rp111
ag10
(g14
S'U\xf0;\xb30\xe1-@'
p112
tp113
Rp114
ag10
(g14
S'"S\xb9%\x01\xe1+@'
p115
tp116
Rp117
ag10
(g14
S']\xd5\xc2\xb1y\x1a,@'
p118
tp119
Rp120
ag10
(g14
S'\t\x82\xedu\xbc\xce(@'
p121
tp122
Rp123
ag10
(g14
S'\x15\xf3\xfa\xda\x9c@,@'
p124
tp125
Rp126
ag10
(g14
S'\xdaX\xc7\xf9\xb1\xc8+@'
p127
tp128
Rp129
ag10
(g14
S'*\xf3&J\x98\x91*@'
p130
tp131
Rp132
ag10
(g14
S'\xb6\x93=\x19.\xd6+@'
p133
tp134
Rp135
ag10
(g14
S'\xbb\xa8+\xef0J,@'
p136
tp137
Rp138
asssss.