(dp0
S'../Data/sqlite_66.csv'
p1
(dp2
S'../Data/sqlite_79.csv'
p3
(dp4
F0.05
(dp5
S'abs_res'
p6
(dp7
S'bellwether'
p8
(lp9
cnumpy.core.multiarray
scalar
p10
(cnumpy
dtype
p11
(S'f8'
p12
I0
I1
tp13
Rp14
(I3
S'<'
p15
NNNI-1
I-1
I0
tp16
bS'?\xb6\xf3\xbd\xd3d$A'
p17
tp18
Rp19
ag10
(g14
S'\x0b\x83\xc0J\xe8d$A'
p20
tp21
Rp22
ag10
(g14
S'\n\xac\x1c\x9a\xbbd$A'
p23
tp24
Rp25
ag10
(g14
S'\xd2x\xe9\xa6we$A'
p26
tp27
Rp28
ag10
(g14
S'\xeb|?\xb5\x00e$A'
p29
tp30
Rp31
ag10
(g14
S'\x83?5\xde\xc8d$A'
p32
tp33
Rp34
ag10
(g14
S'\x98\xc2\xf5(3e$A'
p35
tp36
Rp37
ag10
(g14
S'\x8d\x97nR\xf9d$A'
p38
tp39
Rp40
ag10
(g14
S'\xe5^sa6d$A'
p41
tp42
Rp43
ag10
(g14
S'L\xb8\x1eE!e$A'
p44
tp45
Rp46
ag10
(g14
S'\xa7\xef\xa7\xc6Se$A'
p47
tp48
Rp49
ag10
(g14
S'\x14\x83\xc0J\xb4d$A'
p50
tp51
Rp52
ag10
(g14
S'}?5\xde\x82d$A'
p53
tp54
Rp55
ag10
(g14
S'^\xbaI\x8c\xffd$A'
p56
tp57
Rp58
ag10
(g14
S'\x80?5\x9e\xdcd$A'
p59
tp60
Rp61
ag10
(g14
S"'\x06\x81U%d$A"
p62
tp63
Rp64
ag10
(g14
S'\xd6\xa3p}7e$A'
p65
tp66
Rp67
ag10
(g14
S'?\xb6\xf3\xbd\xf8d$A'
p68
tp69
Rp70
ag10
(g14
S'=\x8blg\x86d$A'
p71
tp72
Rp73
ag10
(g14
S'\xce"\xdbyBe$A'
p74
tp75
Rp76
asS'target'
p77
(lp78
g10
(g14
S'\xea\xd0"\xdb\xf9\xf6q@'
p79
tp80
Rp81
ag10
(g14
S'\x84\xebQ\xb8\x1e\xabw@'
p82
tp83
Rp84
ag10
(g14
S'@\xb4\xc8v\xbe\xd7n@'
p85
tp86
Rp87
ag10
(g14
S'*\xb2\x9d\xef\xa7Rz@'
p88
tp89
Rp90
ag10
(g14
S'\xc8\xcc\xcc\xcc\xcc\xd8t@'
p91
tp92
Rp93
ag10
(g14
S's\xbct\x93\x18|\x86@'
p94
tp95
Rp96
ag10
(g14
S'\xb8\xc8v\xbe\x9f\xf8r@'
p97
tp98
Rp99
ag10
(g14
S'\xfe\xd4x\xe9&1t@'
p100
tp101
Rp102
ag10
(g14
S'4^\xbaI\x0cXr@'
p103
tp104
Rp105
ag10
(g14
S'\xdfz\x14\xaeG\xe3r@'
p106
tp107
Rp108
ag10
(g14
S'\xc2K7\x89A\x12u@'
p109
tp110
Rp111
ag10
(g14
S'\x1d/\xdd$\x06Kp@'
p112
tp113
Rp114
ag10
(g14
S'<`\xe5\xd0"\xb9p@'
p115
tp116
Rp117
ag10
(g14
S'>\n\xd7\xa3p\xf9h@'
p118
tp119
Rp120
ag10
(g14
S'd\xbct\x93\x18\xeat@'
p121
tp122
Rp123
ag10
(g14
S'1\x89A`\xe5\xf8y@'
p124
tp125
Rp126
ag10
(g14
S'+\x08\xac\x1cZ\xe8p@'
p127
tp128
Rp129
ag10
(g14
S'\x16Zd;\xdf+~@'
p130
tp131
Rp132
ag10
(g14
S'\xb0I\x0c\x02+/t@'
p133
tp134
Rp135
ag10
(g14
S'\xea&1\x08\xac[\x80@'
p136
tp137
Rp138
asssss.