(dp0
S'../Data/sqlite_15.csv'
p1
(dp2
S'../Data/sqlite_64.csv'
p3
(dp4
F0.15
(dp5
S'abs_res'
p6
(dp7
S'bellwether'
p8
(lp9
cnumpy.core.multiarray
scalar
p10
(cnumpy
dtype
p11
(S'f8'
p12
I0
I1
tp13
Rp14
(I3
S'<'
p15
NNNI-1
I-1
I0
tp16
bS'*\xb2\x9d/\x98,@A'
p17
tp18
Rp19
ag10
(g14
S'5\x17\x92f\x0e,@A'
p20
tp21
Rp22
ag10
(g14
S'\x04V\x0e}\x19-@A'
p23
tp24
Rp25
ag10
(g14
S'\x0c\x02+\x97\xd9,@A'
p26
tp27
Rp28
ag10
(g14
S'\rX9\x94\r,@A'
p29
tp30
Rp31
ag10
(g14
S'\xc9\xbd\xe6bV,@A'
p32
tp33
Rp34
ag10
(g14
S'\x19ZdK^,@A'
p35
tp36
Rp37
ag10
(g14
S'C`\xe5@%,@A'
p38
tp39
Rp40
ag10
(g14
S'\xf6\xfd\xd4h\t,@A'
p41
tp42
Rp43
ag10
(g14
S'8\xb4\xc8\x06\x7f,@A'
p44
tp45
Rp46
ag10
(g14
S'~j\xbc$\xf1,@A'
p47
tp48
Rp49
ag10
(g14
S'\x8f\x97n\xe2\xd2,@A'
p50
tp51
Rp52
ag10
(g14
S'&\x87\x169\x9e,@A'
p53
tp54
Rp55
ag10
(g14
S'Yd;\xcf\x92,@A'
p56
tp57
Rp58
ag10
(g14
S'\xc8v\xbeO\xac,@A'
p59
tp60
Rp61
ag10
(g14
S'\x8c\xfa72`,@A'
p62
tp63
Rp64
ag10
(g14
S'\xea|?\xc5`,@A'
p65
tp66
Rp67
ag10
(g14
S'\x98n\x12\x93\x1c-@A'
p68
tp69
Rp70
ag10
(g14
S'\xd4\xce\xf7\x93\xd0,@A'
p71
tp72
Rp73
ag10
(g14
S'\x15X9\xd4\xb8,@A'
p74
tp75
Rp76
asS'target'
p77
(lp78
g10
(g14
S'\x1eZd;\xdf\x05{@'
p79
tp80
Rp81
ag10
(g14
S'S\x8d\x97n\x12\xf9w@'
p82
tp83
Rp84
ag10
(g14
S'\x1d\x85\xebQ\xb8\xccz@'
p85
tp86
Rp87
ag10
(g14
S'\xa8E\xb6\xf3\xfd\xdax@'
p88
tp89
Rp90
ag10
(g14
S'\x1b\xdb\xf9~j\x1cx@'
p91
tp92
Rp93
ag10
(g14
S'\xdd\xa5\x9b\xc4 N~@'
p94
tp95
Rp96
ag10
(g14
S'ad;\xdfO\xa5x@'
p97
tp98
Rp99
ag10
(g14
S'\x13\xb0rh\x91\x0bz@'
p100
tp101
Rp102
ag10
(g14
S'\xc6K7\x89A\xcav@'
p103
tp104
Rp105
ag10
(g14
S'a\x91\xed|?kv@'
p106
tp107
Rp108
ag10
(g14
S'\xd5x\xe9&1\x13{@'
p109
tp110
Rp111
ag10
(g14
S's\xe7\xfb\xa9\xf1\xdcu@'
p112
tp113
Rp114
ag10
(g14
S'q\xbct\x93\x18R|@'
p115
tp116
Rp117
ag10
(g14
S'\xf6\xd2Mb\x10\xc2x@'
p118
tp119
Rp120
ag10
(g14
S'\x16\xd9\xce\xf7S;w@'
p121
tp122
Rp123
ag10
(g14
S'\xd2z\x14\xaeGYy@'
p124
tp125
Rp126
ag10
(g14
S'\x9e\xc4 \xb0r\x8ew@'
p127
tp128
Rp129
ag10
(g14
S'p\x93\x18\x04V\xf2x@'
p130
tp131
Rp132
ag10
(g14
S'\x85j\xbct\x93pt@'
p133
tp134
Rp135
ag10
(g14
S'\xaf\x1cZd;\x89w@'
p136
tp137
Rp138
asssss.