(dp0
S'../Data/sqlite_66.csv'
p1
(dp2
S'../Data/sqlite_22.csv'
p3
(dp4
F0.1
(dp5
S'abs_res'
p6
(dp7
S'bellwether'
p8
(lp9
cnumpy.core.multiarray
scalar
p10
(cnumpy
dtype
p11
(S'f8'
p12
I0
I1
tp13
Rp14
(I3
S'<'
p15
NNNI-1
I-1
I0
tp16
bS'MDD\xc4\xbcA#A'
p17
tp18
Rp19
ag10
(g14
S'X\x1d\x13\xbc\x19A#A'
p20
tp21
Rp22
ag10
(g14
S'\xc2K7I!B#A'
p23
tp24
Rp25
ag10
(g14
S'Zs!\xe9J@#A'
p26
tp27
Rp28
ag10
(g14
S'\xce \xb02\xaaA#A'
p29
tp30
Rp31
ag10
(g14
S'k\xbct\x93T@#A'
p32
tp33
Rp34
ag10
(g14
S'\x0b\xac\x1c\xda\xea@#A'
p35
tp36
Rp37
ag10
(g14
S'4\x08\xac\xdc`A#A'
p38
tp39
Rp40
ag10
(g14
S'!\xdb\xf9~#A#A'
p41
tp42
Rp43
ag10
(g14
S'b\xbaI\x0c\x8f@#A'
p44
tp45
Rp46
ag10
(g14
S'\xd8Mb\x10\x85A#A'
p47
tp48
Rp49
ag10
(g14
S'\xa0}\xf8\x0cKA#A'
p50
tp51
Rp52
ag10
(g14
S'\x04\xd7\xa3\xf0rA#A'
p53
tp54
Rp55
ag10
(g14
S'\xa9\x9b\xc4\xa0"A#A'
p56
tp57
Rp58
ag10
(g14
S'V\x8d\x97\xeeeA#A'
p59
tp60
Rp61
ag10
(g14
S'\xfbb\xc9/)A#A'
p62
tp63
Rp64
ag10
(g14
S'\xe1\xb4\x81\x0e\xb5@#A'
p65
tp66
Rp67
ag10
(g14
S'\xec\xd2M"Z@#A'
p68
tp69
Rp70
ag10
(g14
S'\xae\x1cZd$B#A'
p71
tp72
Rp73
ag10
(g14
S'\x87\xc2\xf5\xa8OA#A'
p74
tp75
Rp76
asS'target'
p77
(lp78
g10
(g14
S'\x8e\xc0\xca\xa1E\xfeX@'
p79
tp80
Rp81
ag10
(g14
S'\x7fA`\xe5\xd0\x92Z@'
p82
tp83
Rp84
ag10
(g14
S'+1\x08\xac\x1c:Z@'
p85
tp86
Rp87
ag10
(g14
S'{\x14\xaeG\xe1\xf2X@'
p88
tp89
Rp90
ag10
(g14
S'H\x0c\x02+\x87~]@'
p91
tp92
Rp93
ag10
(g14
S'C\xe1z\x14\xae\xdf\\@'
p94
tp95
Rp96
ag10
(g14
S'\x9b\x99\x99\x99\x99AY@'
p97
tp98
Rp99
ag10
(g14
S'\xcaMb\x10XyZ@'
p100
tp101
Rp102
ag10
(g14
S'\x14\x83\xc0\xca\xa1=Z@'
p103
tp104
Rp105
ag10
(g14
S'A\x0c\x02+\x87\xf6[@'
p106
tp107
Rp108
ag10
(g14
S'\xe3\xce\xf7S\xe3U^@'
p109
tp110
Rp111
ag10
(g14
S'\xfe~j\xbct\x8b\\@'
p112
tp113
Rp114
ag10
(g14
S'\x99\x1a/\xdd$~\\@'
p115
tp116
Rp117
ag10
(g14
S'\xd4Mb\x10X\xe1]@'
p118
tp119
Rp120
ag10
(g14
S'/\\\x8f\xc2\xf5\xb8Y@'
p121
tp122
Rp123
ag10
(g14
S'\xce\xf5(\\\x8f\x02Z@'
p124
tp125
Rp126
ag10
(g14
S'\xf7|?5^2Y@'
p127
tp128
Rp129
ag10
(g14
S'\nZd;\xdf\x07[@'
p130
tp131
Rp132
ag10
(g14
S'\xd1\xf7S\xe3\xa5\x1b[@'
p133
tp134
Rp135
ag10
(g14
S'*\\\x8f\xc2\xf5\xb0Z@'
p136
tp137
Rp138
asssss.