(dp0
S'../Data/sqlite_5.csv'
p1
(dp2
S'../Data/sqlite_96.csv'
p3
(dp4
F0.1
(dp5
S'mmre'
p6
(dp7
S'bellwether'
p8
(lp9
cnumpy.core.multiarray
scalar
p10
(cnumpy
dtype
p11
(S'f8'
p12
I0
I1
tp13
Rp14
(I3
S'<'
p15
NNNI-1
I-1
I0
tp16
bS'K\x91]>z"T@'
p17
tp18
Rp19
ag10
(g14
S'>r\xdc\x83\xd8\x1eT@'
p20
tp21
Rp22
ag10
(g14
S'\xca@N"\xeb!T@'
p23
tp24
Rp25
ag10
(g14
S'p,\xbdE\x08\x1eT@'
p26
tp27
Rp28
ag10
(g14
S'\x02\xd0\x08\x15\xb0\x1dT@'
p29
tp30
Rp31
ag10
(g14
S'L\xb6^\xa3\xc7!T@'
p32
tp33
Rp34
ag10
(g14
S'\xec_\x96\xc9\xa0#T@'
p35
tp36
Rp37
ag10
(g14
S'\xdd\r!g\x02%T@'
p38
tp39
Rp40
ag10
(g14
S'n\xe0\xa2\xacF(T@'
p41
tp42
Rp43
ag10
(g14
S'\x94\x81\xdd\xbd\xf8$T@'
p44
tp45
Rp46
ag10
(g14
S'\xd9\xe8\x1cZ\x03\x1eT@'
p47
tp48
Rp49
ag10
(g14
S'5\xfeM\xa3p&T@'
p50
tp51
Rp52
ag10
(g14
S'e7%\xcb\x85\x1cT@'
p53
tp54
Rp55
ag10
(g14
S'ENc\x1eL%T@'
p56
tp57
Rp58
ag10
(g14
S'P"\xef\n\xaf!T@'
p59
tp60
Rp61
ag10
(g14
S'`\xbb\xc8\xd7\xbf$T@'
p62
tp63
Rp64
ag10
(g14
S'\xcb\xef\\\xc9h&T@'
p65
tp66
Rp67
ag10
(g14
S'\xeev\xea\xac)\x16T@'
p68
tp69
Rp70
ag10
(g14
S'\x89qJ\x85\xb5 T@'
p71
tp72
Rp73
ag10
(g14
S'i\\\xd5vt#T@'
p74
tp75
Rp76
asS'target'
p77
(lp78
g10
(g14
S'.\x17\xb7O\xa8\xc2T@'
p79
tp80
Rp81
ag10
(g14
S'\xa9g\x18\xa0\xb8rd@'
p82
tp83
Rp84
ag10
(g14
S'y\xb6\x04Qp\xa8]@'
p85
tp86
Rp87
ag10
(g14
S'5b\r\xe6H^F@'
p88
tp89
Rp90
ag10
(g14
S'B\xc6q\x92x\xc1T@'
p91
tp92
Rp93
ag10
(g14
S'20\x87\xb4Y\xf2P@'
p94
tp95
Rp96
ag10
(g14
S'\xd3\xefS\x848\x9cL@'
p97
tp98
Rp99
ag10
(g14
S'\x88Jz\x8b\x99}L@'
p100
tp101
Rp102
ag10
(g14
S'\xbcS\xb2\xdbZ\xa9F@'
p103
tp104
Rp105
ag10
(g14
S'D8\x99X\x8e\x88S@'
p106
tp107
Rp108
ag10
(g14
S'\xdbP]\x86\x0b5T@'
p109
tp110
Rp111
ag10
(g14
S'\xd6J\x8e\x9c\xaf7U@'
p112
tp113
Rp114
ag10
(g14
S'\xf1\rw\xb3>\xc6b@'
p115
tp116
Rp117
ag10
(g14
S'ZE\x0b\xa6<FA@'
p118
tp119
Rp120
ag10
(g14
S'~b\xfe`^\xfcY@'
p121
tp122
Rp123
ag10
(g14
S'\x05\xf5H\xdee\xbc@@'
p124
tp125
Rp126
ag10
(g14
S'\xcb\x8an\xe9\x07?N@'
p127
tp128
Rp129
ag10
(g14
S'\xc5\xd4G\x87\x1bDf@'
p130
tp131
Rp132
ag10
(g14
S'\x82\x10\x93\x08{\x08W@'
p133
tp134
Rp135
ag10
(g14
S'\xfc\xb0\xda\xe0\x1dZN@'
p136
tp137
Rp138
asssss.