(dp0
S'../Data/sqlite_93.csv'
p1
(dp2
S'../Data/sqlite_92.csv'
p3
(dp4
F0.4
(dp5
S'mmre'
p6
(dp7
S'bellwether'
p8
(lp9
cnumpy.core.multiarray
scalar
p10
(cnumpy
dtype
p11
(S'f8'
p12
I0
I1
tp13
Rp14
(I3
S'<'
p15
NNNI-1
I-1
I0
tp16
bS'XL\x98\xa7-NO@'
p17
tp18
Rp19
ag10
(g14
S'\xe5)6\xbe\x0cTO@'
p20
tp21
Rp22
ag10
(g14
S'\x8a\x16\x82\xf2&YO@'
p23
tp24
Rp25
ag10
(g14
S'\xa2\x80\x9e0\xefdO@'
p26
tp27
Rp28
ag10
(g14
S'\xf6"\x84\x08\xb5XO@'
p29
tp30
Rp31
ag10
(g14
S'M\xe4p\xf9\x8aRO@'
p32
tp33
Rp34
ag10
(g14
S'\x08\x0e\xa8\x06\xceSO@'
p35
tp36
Rp37
ag10
(g14
S'\x9b\xf7\xd3\xaa\x90RO@'
p38
tp39
Rp40
ag10
(g14
S'A\x00q\x92R@O@'
p41
tp42
Rp43
ag10
(g14
S'\x05^c\xdc\xfeRO@'
p44
tp45
Rp46
ag10
(g14
S'\xb0ff!<YO@'
p47
tp48
Rp49
ag10
(g14
S"\x13\x1c'N\x03;O@"
p50
tp51
Rp52
ag10
(g14
S"\x04'\xf6\xf3\xf5]O@"
p53
tp54
Rp55
ag10
(g14
S'\xbd\xe6\xbd-\xfeRO@'
p56
tp57
Rp58
ag10
(g14
S'\x16\xdck\xf70LO@'
p59
tp60
Rp61
ag10
(g14
S'l[I\xa3\x9cOO@'
p62
tp63
Rp64
ag10
(g14
S'\xc5\xd3W\xfc\x90HO@'
p65
tp66
Rp67
ag10
(g14
S'\x8ai}\x9c)HO@'
p68
tp69
Rp70
ag10
(g14
S'\xb9m\xb6\x10\xf9GO@'
p71
tp72
Rp73
ag10
(g14
S'\xe2\xd7\xc8%\x86@O@'
p74
tp75
Rp76
asS'target'
p77
(lp78
g10
(g14
S'J\xd1\x0c>|\x94U@'
p79
tp80
Rp81
ag10
(g14
S'\xf57\xe9\xf9k\x85U@'
p82
tp83
Rp84
ag10
(g14
S'B\xb3\xb5q\x00\x90R@'
p85
tp86
Rp87
ag10
(g14
S'+}\xf9a\x97\x9cR@'
p88
tp89
Rp90
ag10
(g14
S'm\xb8\xa2\x05\xf1\xa2P@'
p91
tp92
Rp93
ag10
(g14
S'n\x9b}\xb1\x81\xeaM@'
p94
tp95
Rp96
ag10
(g14
S'\xe2\x10\xf5Q\x96lW@'
p97
tp98
Rp99
ag10
(g14
S'\xa8\xda\xe7\x11Y#S@'
p100
tp101
Rp102
ag10
(g14
S'\xe5\xb1!~U\xbeN@'
p103
tp104
Rp105
ag10
(g14
S'OB\x17\x07\x0fcU@'
p106
tp107
Rp108
ag10
(g14
S'Wqv\x03\xb1sM@'
p109
tp110
Rp111
ag10
(g14
S'\xf1N\xe6\x82\xdaOP@'
p112
tp113
Rp114
ag10
(g14
S'x\xc2\xf6\xcc+\x92O@'
p115
tp116
Rp117
ag10
(g14
S'\xac`\xe0{-\xc0U@'
p118
tp119
Rp120
ag10
(g14
S'p|\xd8\x05`3[@'
p121
tp122
Rp123
ag10
(g14
S'Hy\x93\xaf[BN@'
p124
tp125
Rp126
ag10
(g14
S')=Cs2/V@'
p127
tp128
Rp129
ag10
(g14
S'\xa6\xf0\x8b7\xf7\xf7S@'
p130
tp131
Rp132
ag10
(g14
S'\xd8\x83\xa3\x0b5QS@'
p133
tp134
Rp135
ag10
(g14
S'O\x1f08\x01$X@'
p136
tp137
Rp138
asssss.