(dp0
S'../Data/sqlite_9.csv'
p1
(dp2
S'../Data/sqlite_86.csv'
p3
(dp4
F0.1
(dp5
S'mmre'
p6
(dp7
S'bellwether'
p8
(lp9
cnumpy.core.multiarray
scalar
p10
(cnumpy
dtype
p11
(S'f8'
p12
I0
I1
tp13
Rp14
(I3
S'<'
p15
NNNI-1
I-1
I0
tp16
bS'/\x04\x8ar*)N@'
p17
tp18
Rp19
ag10
(g14
S'\xc5\xcd\xb8\x17+\tN@'
p20
tp21
Rp22
ag10
(g14
S'\x8e\x83\x8d8c\x12N@'
p23
tp24
Rp25
ag10
(g14
S'k\xfa\xcds\xe5+N@'
p26
tp27
Rp28
ag10
(g14
S"\x96\xbe\x070\x0e'N@"
p29
tp30
Rp31
ag10
(g14
S'.\x8d\xda||\x14N@'
p32
tp33
Rp34
ag10
(g14
S'\xcf,\x8b\x0c\xea\x05N@'
p35
tp36
Rp37
ag10
(g14
S'\xc3g~\xae\x0c\xfaM@'
p38
tp39
Rp40
ag10
(g14
S'Q\xa8\xf0;\xde\x18N@'
p41
tp42
Rp43
ag10
(g14
S'\x0f\xb2\xac-\r+N@'
p44
tp45
Rp46
ag10
(g14
S'\xd2zh\xfc`\x11N@'
p47
tp48
Rp49
ag10
(g14
S'\r\xdfM9\xaa\xfeM@'
p50
tp51
Rp52
ag10
(g14
S'r\x9d4\xf4\xa1,N@'
p53
tp54
Rp55
ag10
(g14
S'2\xc8Wk\xd8\x18N@'
p56
tp57
Rp58
ag10
(g14
S'=\xa3mBh-N@'
p59
tp60
Rp61
ag10
(g14
S'\x96POxM N@'
p62
tp63
Rp64
ag10
(g14
S'\x12\xc4\x9dc\x1a\x10N@'
p65
tp66
Rp67
ag10
(g14
S"\xa1\x99-'@%N@"
p68
tp69
Rp70
ag10
(g14
S'\'pf|\xb2"N@'
p71
tp72
Rp73
ag10
(g14
S'\x18\xbfpa* N@'
p74
tp75
Rp76
asS'target'
p77
(lp78
g10
(g14
S'-\xaaqh\x1d\x90T@'
p79
tp80
Rp81
ag10
(g14
S'\xb7\x9f\xab4\xfd\xc1N@'
p82
tp83
Rp84
ag10
(g14
S"\x86\xc8\xaf'\x7fsU@"
p85
tp86
Rp87
ag10
(g14
S'N\xabbo\x1aMC@'
p88
tp89
Rp90
ag10
(g14
S'\x15\x1d\x07To|A@'
p91
tp92
Rp93
ag10
(g14
S'\xc6\xfe\nm\xd0xS@'
p94
tp95
Rp96
ag10
(g14
S'5T\x89K\x1a\xfcL@'
p97
tp98
Rp99
ag10
(g14
S'\x02P=\xbbk\xb4Z@'
p100
tp101
Rp102
ag10
(g14
S'\xef\xf1-e\xd4 Q@'
p103
tp104
Rp105
ag10
(g14
S'n\nK\n+\xb8V@'
p106
tp107
Rp108
ag10
(g14
S'P\x97\xf8*}\xc2O@'
p109
tp110
Rp111
ag10
(g14
S'\xcf\x91\xfc9V\x02Y@'
p112
tp113
Rp114
ag10
(g14
S'<\xb9\xe7\xc2\xe7yF@'
p115
tp116
Rp117
ag10
(g14
S'.\x9b2\x19@\xe4I@'
p118
tp119
Rp120
ag10
(g14
S'\xe2\xee\xd1\xe7<DR@'
p121
tp122
Rp123
ag10
(g14
S'\x9d\xbb\xe4\xac{\xa4H@'
p124
tp125
Rp126
ag10
(g14
S'\x19\x9b\xf2"\xc8DM@'
p127
tp128
Rp129
ag10
(g14
S'\xd4\xad[3e\xeaQ@'
p130
tp131
Rp132
ag10
(g14
S'\xa9\xcc\xc0\r,7M@'
p133
tp134
Rp135
ag10
(g14
S'<JK\xddi\xceO@'
p136
tp137
Rp138
asssss.