(dp0
S'../Data/sqlite_57.csv'
p1
(dp2
S'../Data/sqlite_37.csv'
p3
(dp4
F0.4
(dp5
S'abs_res'
p6
(dp7
S'bellwether'
p8
(lp9
cnumpy.core.multiarray
scalar
p10
(cnumpy
dtype
p11
(S'f8'
p12
I0
I1
tp13
Rp14
(I3
S'<'
p15
NNNI-1
I-1
I0
tp16
bS'\r\x83\xc0F\xdawaA'
p17
tp18
Rp19
ag10
(g14
S'\xc0 \xb0\xf6\xec}aA'
p20
tp21
Rp22
ag10
(g14
S'\xf1\xfd\xd4(\xd6raA'
p23
tp24
Rp25
ag10
(g14
S'\xc2K7\xf1\xe7\x7faA'
p26
tp27
Rp28
ag10
(g14
S'\xa7p=\xae\xd4|aA'
p29
tp30
Rp31
ag10
(g14
S'-\\\x8f\xe6\xbbsaA'
p32
tp33
Rp34
ag10
(g14
S'^\xbaI\x1c\x84\x81aA'
p35
tp36
Rp37
ag10
(g14
S'(\\\x8f~;\x82aA'
p38
tp39
Rp40
ag10
(g14
S'\xbf\x9f\x1a\xef\xaa}aA'
p41
tp42
Rp43
ag10
(g14
S'?\xdfO\t\xdcraA'
p44
tp45
Rp46
ag10
(g14
S',\xdd$~sjaA'
p47
tp48
Rp49
ag10
(g14
S'}\x14\xae\xb3\x7f\x7faA'
p50
tp51
Rp52
ag10
(g14
S'\xec|?\xa5\xff\x7faA'
p53
tp54
Rp55
ag10
(g14
S'\x0b\x02+\x7f#raA'
p56
tp57
Rp58
ag10
(g14
S'\xa4p=\xea\xc1~aA'
p59
tp60
Rp61
ag10
(g14
S'B\x8bl\x1f\x9eyaA'
p62
tp63
Rp64
ag10
(g14
S'\x94\x99\x99\xad\x9cyaA'
p65
tp66
Rp67
ag10
(g14
S'\xb9t\x93\xc8\xd2uaA'
p68
tp69
Rp70
ag10
(g14
S'Z\x8f\xc2\xa9\xdf\x89aA'
p71
tp72
Rp73
ag10
(g14
S'\xdb$\x06e\xcbraA'
p74
tp75
Rp76
asS'target'
p77
(lp78
g10
(g14
S'\xc8 \xb0rh1H@'
p79
tp80
Rp81
ag10
(g14
S'D7\x89A`UJ@'
p82
tp83
Rp84
ag10
(g14
S'\x81\xc0\xca\xa1E\x9eG@'
p85
tp86
Rp87
ag10
(g14
S'\xaeG\xe1z\x14nI@'
p88
tp89
Rp90
ag10
(g14
S';\x89A`\xe58G@'
p91
tp92
Rp93
ag10
(g14
S'\xd4\xa3p=\n_G@'
p94
tp95
Rp96
ag10
(g14
S'd\x8f\xc2\xf5(lH@'
p97
tp98
Rp99
ag10
(g14
S'\xa5p=\n\xd7KH@'
p100
tp101
Rp102
ag10
(g14
S'\x96\x18\x04V\x0eeG@'
p103
tp104
Rp105
ag10
(g14
S't\x91\xed|?eG@'
p106
tp107
Rp108
ag10
(g14
S'\x0b\xac\x1cZd\xf3H@'
p109
tp110
Rp111
ag10
(g14
S'9^\xbaI\x0c\xaaG@'
p112
tp113
Rp114
ag10
(g14
S'dffff\xeeG@'
p115
tp116
Rp117
ag10
(g14
S'\x86\x95C\x8bl\xffF@'
p118
tp119
Rp120
ag10
(g14
S'h\x91\xed|?\x95F@'
p121
tp122
Rp123
ag10
(g14
S'0\x87\x16\xd9\xceGG@'
p124
tp125
Rp126
ag10
(g14
S'O7\x89A`\xc5F@'
p127
tp128
Rp129
ag10
(g14
S'\xda"\xdb\xf9~\x9aI@'
p130
tp131
Rp132
ag10
(g14
S'\x83l\xe7\xfb\xa9\xa1F@'
p133
tp134
Rp135
ag10
(g14
S'L\xb6\xf3\xfd\xd4\xc0G@'
p136
tp137
Rp138
asssss.