(dp0
S'../Data/sqlite_91.csv'
p1
(dp2
S'../Data/sqlite_19.csv'
p3
(dp4
F0.15
(dp5
S'abs_res'
p6
(dp7
S'bellwether'
p8
(lp9
cnumpy.core.multiarray
scalar
p10
(cnumpy
dtype
p11
(S'f8'
p12
I0
I1
tp13
Rp14
(I3
S'<'
p15
NNNI-1
I-1
I0
tp16
bS'A\n\xd7\xa3\xe9*%A'
p17
tp18
Rp19
ag10
(g14
S'\x96_,yf>%A'
p20
tp21
Rp22
ag10
(g14
S'\x06\xac\x1c\x9a\xa5D%A'
p23
tp24
Rp25
ag10
(g14
S'\x04c\xc9o\xbcW%A'
p26
tp27
Rp28
ag10
(g14
S'\xcf\xf7S\xa3RX%A'
p29
tp30
Rp31
ag10
(g14
S'^\x9e\xa8\xbf\xc32%A'
p32
tp33
Rp34
ag10
(g14
S'\xdaMb\xd0>7%A'
p35
tp36
Rp37
ag10
(g14
S'\xfaU\x0e\xed\xf6Y%A'
p38
tp39
Rp40
ag10
(g14
S'4^\xba\tV4%A'
p41
tp42
Rp43
ag10
(g14
S'033\xf3I>%A'
p44
tp45
Rp46
ag10
(g14
S'*1\x08\xecqI%A'
p47
tp48
Rp49
ag10
(g14
S'D33\xb3\xdb=%A'
p50
tp51
Rp52
ag10
(g14
S'\x18g\x1f>%U%A'
p53
tp54
Rp55
ag10
(g14
S'\xfa~j<r8%A'
p56
tp57
Rp58
ag10
(g14
S'\xa8}\xf8LN3%A'
p59
tp60
Rp61
ag10
(g14
S'\x12-\xb2\xdd\xd3:%A'
p62
tp63
Rp64
ag10
(g14
S'p\xe7\xfbi\x13L%A'
p65
tp66
Rp67
ag10
(g14
S'+\x87\x16\xd9ST%A'
p68
tp69
Rp70
ag10
(g14
S'\xe5O\x8d\xd7\xff[%A'
p71
tp72
Rp73
ag10
(g14
S'!@\xee\xb5n7%A'
p74
tp75
Rp76
asS'target'
p77
(lp78
g10
(g14
S'fh\x91\xed|wY@'
p79
tp80
Rp81
ag10
(g14
S'\xf7\xd4x\xe9&iY@'
p82
tp83
Rp84
ag10
(g14
S'\xe6\xa5\x9b\xc4 `W@'
p85
tp86
Rp87
ag10
(g14
S'\x9b\x1a/\xdd$nW@'
p88
tp89
Rp90
ag10
(g14
S'h;\xdfO\x8dKW@'
p91
tp92
Rp93
ag10
(g14
S'\x0eV\x0e-\xb2\x8d\\@'
p94
tp95
Rp96
ag10
(g14
S'bd;\xdfO\xd1X@'
p97
tp98
Rp99
ag10
(g14
S'\x92\x18\x04V\x0e\xa5X@'
p100
tp101
Rp102
ag10
(g14
S'n\xbct\x93\x18\xf4X@'
p103
tp104
Rp105
ag10
(g14
S'e\x91\xed|?\x95W@'
p106
tp107
Rp108
ag10
(g14
S'\xbdI\x0c\x02+\xcfV@'
p109
tp110
Rp111
ag10
(g14
S'\n+\x87\x16\xd9\xfeX@'
p112
tp113
Rp114
ag10
(g14
S'J\xe1z\x14\xaegW@'
p115
tp116
Rp117
ag10
(g14
S'f;\xdfO\x8d\x87W@'
p118
tp119
Rp120
ag10
(g14
S'\xef\xd2Mb\x10\xa8X@'
p121
tp122
Rp123
ag10
(g14
S'\xd9\xce\xf7S\xe3=W@'
p124
tp125
Rp126
ag10
(g14
S'y=\n\xd7\xa3PX@'
p127
tp128
Rp129
ag10
(g14
S'\x12\xac\x1cZd3Y@'
p130
tp131
Rp132
ag10
(g14
S'\xa0\xf1\xd2MbxW@'
p133
tp134
Rp135
ag10
(g14
S'\xfa\xd4x\xe9&\t[@'
p136
tp137
Rp138
asssss.