(dp0
S'../Data/sqlite_4.csv'
p1
(dp2
S'../Data/sqlite_3.csv'
p3
(dp4
F0.05
(dp5
S'abs_res'
p6
(dp7
S'bellwether'
p8
(lp9
cnumpy.core.multiarray
scalar
p10
(cnumpy
dtype
p11
(S'f8'
p12
I0
I1
tp13
Rp14
(I3
S'<'
p15
NNNI-1
I-1
I0
tp16
bS'\x02\x7fj\xbc\xd4pBA'
p17
tp18
Rp19
ag10
(g14
S'h\xe5\xd0\xb2\xb5pBA'
p20
tp21
Rp22
ag10
(g14
S'\x1b\xd9\xceg\xf5pBA'
p23
tp24
Rp25
ag10
(g14
S'\xd2Mb\xa0^pBA'
p26
tp27
Rp28
ag10
(g14
S'\x00\xaa\xf1\xc2\xa0pBA'
p29
tp30
Rp31
ag10
(g14
S'\x07\x02+w\xffpBA'
p32
tp33
Rp34
ag10
(g14
S'6^\xba\xe9\x84pBA'
p35
tp36
Rp37
ag10
(g14
S'\x06\x81\x95S\xd6pBA'
p38
tp39
Rp40
ag10
(g14
S'\xbf\xf5(\xbc\x14qBA'
p41
tp42
Rp43
ag10
(g14
S'\xc2K7y\xeapBA'
p44
tp45
Rp46
ag10
(g14
S'b;\xdf\x8f\xf7pBA'
p47
tp48
Rp49
ag10
(g14
S'\x1a\x04V>\\pBA'
p50
tp51
Rp52
ag10
(g14
S'`\xe7\xfb\x99HpBA'
p53
tp54
Rp55
ag10
(g14
S'\x97\x18\x04\xd6spBA'
p56
tp57
Rp58
ag10
(g14
S'\x03\xd5x)\xfepBA'
p59
tp60
Rp61
ag10
(g14
S'\x00+\x87\xa6\xdepBA'
p62
tp63
Rp64
ag10
(g14
S'G\xb6\xf3=\xbfpBA'
p65
tp66
Rp67
ag10
(g14
S'\xe1$\x06\x11/qBA'
p68
tp69
Rp70
ag10
(g14
S'\xf4(\\O\x16qBA'
p71
tp72
Rp73
ag10
(g14
S'i\xa0\xd3\xc6\x03qBA'
p74
tp75
Rp76
asS'target'
p77
(lp78
g10
(g14
S'\xdd\xa3p=\nwn@'
p79
tp80
Rp81
ag10
(g14
S'\xdcz\x14\xaeG\xa2p@'
p82
tp83
Rp84
ag10
(g14
S'\xc2\xa1E\xb6\xf3uq@'
p85
tp86
Rp87
ag10
(g14
S'\xd7\xa3p=\nmq@'
p88
tp89
Rp90
ag10
(g14
S'\xf5\xd4x\xe9&\xf1s@'
p91
tp92
Rp93
ag10
(g14
S',\xdd$\x06\x81\x0fp@'
p94
tp95
Rp96
ag10
(g14
S'\xa9\x1cZd;Cn@'
p97
tp98
Rp99
ag10
(g14
S'\xf8|?5^Nr@'
p100
tp101
Rp102
ag10
(g14
S'\xec\xd2Mb\x10lp@'
p103
tp104
Rp105
ag10
(g14
S'+\x08\xac\x1cZ&r@'
p106
tp107
Rp108
ag10
(g14
S'\xa7rh\x91\xed\x86s@'
p109
tp110
Rp111
ag10
(g14
S'4\xdfO\x8d\x97\xe2m@'
p112
tp113
Rp114
ag10
(g14
S'\x06+\x87\x16\xd9\x0bp@'
p115
tp116
Rp117
ag10
(g14
S't\x95C\x8bl\xd1q@'
p118
tp119
Rp120
ag10
(g14
S'U\x8bl\xe7\xfb\xf5o@'
p121
tp122
Rp123
ag10
(g14
S'\xbf\xf5(\\\x8f6q@'
p124
tp125
Rp126
ag10
(g14
S'\xffW9\xb4\xc8vn@'
p127
tp128
Rp129
ag10
(g14
S'\x82\x95C\x8bl?n@'
p130
tp131
Rp132
ag10
(g14
S'\xa1G\xe1z\x14\x86l@'
p133
tp134
Rp135
ag10
(g14
S'\xe6z\x14\xaeG\xabs@'
p136
tp137
Rp138
asssss.