(dp0
S'../Data/sqlite_74.csv'
p1
(dp2
S'../Data/sqlite_50.csv'
p3
(dp4
F0.4
(dp5
S'abs_res'
p6
(dp7
S'bellwether'
p8
(lp9
cnumpy.core.multiarray
scalar
p10
(cnumpy
dtype
p11
(S'f8'
p12
I0
I1
tp13
Rp14
(I3
S'<'
p15
NNNI-1
I-1
I0
tp16
bS'\xa5\rt\x1e\xd9HdA'
p17
tp18
Rp19
ag10
(g14
S'\xce\x92_ \xb9QdA'
p20
tp21
Rp22
ag10
(g14
S'r\x05\xc8\xdd\x0cMdA'
p23
tp24
Rp25
ag10
(g14
S'J\xc5\xd9\x8f\xc9\\dA'
p26
tp27
Rp28
ag10
(g14
S'C5^JkSdA'
p29
tp30
Rp31
ag10
(g14
S'\x18g\x1f\xc2\x89RdA'
p32
tp33
Rp34
ag10
(g14
S'J\xf0`\x0e\x9aGdA'
p35
tp36
Rp37
ag10
(g14
S'`\x82\x07w\xcbNdA'
p38
tp39
Rp40
ag10
(g14
S'(x0+xPdA'
p41
tp42
Rp43
ag10
(g14
S'\xbb\x9f\x1a\x13`PdA'
p44
tp45
Rp46
ag10
(g14
S'\xe3\x17K\xa64JdA'
p47
tp48
Rp49
ag10
(g14
S'\xab\x9b\xc4\xf88WdA'
p50
tp51
Rp52
ag10
(g14
S'X\x1d\x13\xa0\xc4GdA'
p53
tp54
Rp55
ag10
(g14
S'\xe3z\x14\x02E^dA'
p56
tp57
Rp58
ag10
(g14
S'\xfe\xa9\xf1z\xddKdA'
p59
tp60
Rp61
ag10
(g14
S';33\xdb<cdA'
p62
tp63
Rp64
ag10
(g14
S'L\xc5\xd9/\xa2PdA'
p65
tp66
Rp67
ag10
(g14
S'|\xe9&\x19xUdA'
p68
tp69
Rp70
ag10
(g14
S'\x15\xf5o\x10,MdA'
p71
tp72
Rp73
ag10
(g14
S'\xc8Z\x1d\x8f\x02ZdA'
p74
tp75
Rp76
asS'target'
p77
(lp78
g10
(g14
S'^\x10X9\xb4\x10R@'
p79
tp80
Rp81
ag10
(g14
S'\x0c\x81\x95C\x8bhR@'
p82
tp83
Rp84
ag10
(g14
S'N\x8d\x97n\x12\xcbQ@'
p85
tp86
Rp87
ag10
(g14
S'n\xbct\x93\x18\xe4S@'
p88
tp89
Rp90
ag10
(g14
S'\x9c\x99\x99\x99\x99\xd5R@'
p91
tp92
Rp93
ag10
(g14
S'\x80?5^\xba\xa9R@'
p94
tp95
Rp96
ag10
(g14
S'Tb\x10X9\xdcS@'
p97
tp98
Rp99
ag10
(g14
S'z\x93\x18\x04V\x9eT@'
p100
tp101
Rp102
ag10
(g14
S'$\xb0rh\x91\xf1R@'
p103
tp104
Rp105
ag10
(g14
S'S7\x89A`\xa9S@'
p106
tp107
Rp108
ag10
(g14
S'R9\xb4\xc8v\x1aT@'
p109
tp110
Rp111
ag10
(g14
S'\x06\x00\x00\x00\x00hR@'
p112
tp113
Rp114
ag10
(g14
S'6\x89A`\xe5\xd8R@'
p115
tp116
Rp117
ag10
(g14
S'#M\xa98\xfb\xd8R@'
p118
tp119
Rp120
ag10
(g14
S'\xaap=\n\xd7SS@'
p121
tp122
Rp123
ag10
(g14
S'\xdfz\x14\xaeGiR@'
p124
tp125
Rp126
ag10
(g14
S'\x19/\xdd$\x06iT@'
p127
tp128
Rp129
ag10
(g14
S'\x96C\x8bl\xe7kT@'
p130
tp131
Rp132
ag10
(g14
S'\xfd\xd4x\xe9&\xc1R@'
p133
tp134
Rp135
ag10
(g14
S'\x1a/\xdd$\x06US@'
p136
tp137
Rp138
asssss.