(dp0
S'../Data/sqlite_46.csv'
p1
(dp2
S'../Data/sqlite_44.csv'
p3
(dp4
F0.15
(dp5
S'abs_res'
p6
(dp7
S'bellwether'
p8
(lp9
cnumpy.core.multiarray
scalar
p10
(cnumpy
dtype
p11
(S'f8'
p12
I0
I1
tp13
Rp14
(I3
S'<'
p15
NNNI-1
I-1
I0
tp16
bS'\xb5G\xe1\xfa*v@A'
p17
tp18
Rp19
ag10
(g14
S'\xac\xc6K\x97\x0bu@A'
p20
tp21
Rp22
ag10
(g14
S'Q\xb8\x1e5?v@A'
p23
tp24
Rp25
ag10
(g14
S'\x92\x97n\x92\xc3u@A'
p26
tp27
Rp28
ag10
(g14
S'/\x06\x81\x05Yu@A'
p29
tp30
Rp31
ag10
(g14
S'\xa8\x9b\xc4\xb0\xccv@A'
p32
tp33
Rp34
ag10
(g14
S'\x13-\xb2M\xb7u@A'
p35
tp36
Rp37
ag10
(g14
S'\xd7x\xe9frv@A'
p38
tp39
Rp40
ag10
(g14
S'\xba\x1e\x85K\xc8v@A'
p41
tp42
Rp43
ag10
(g14
S'\xb7rh\xa1{u@A'
p44
tp45
Rp46
ag10
(g14
S'\x10\x02+\x07\x1av@A'
p47
tp48
Rp49
ag10
(g14
S'\x00\xaa\xf1\x82\x95u@A'
p50
tp51
Rp52
ag10
(g14
S'\x81\x95C\x8b4v@A'
p53
tp54
Rp55
ag10
(g14
S'k\xbctC\xbdu@A'
p56
tp57
Rp58
ag10
(g14
S'E\x8bl\x17Qv@A'
p59
tp60
Rp61
ag10
(g14
S'\x92\xed|\xff\xe7u@A'
p62
tp63
Rp64
ag10
(g14
S'\xd6MbP\x93v@A'
p65
tp66
Rp67
ag10
(g14
S'\xe5O\x8dw\xbbu@A'
p68
tp69
Rp70
ag10
(g14
S'\n\x81\x95\xa3mv@A'
p71
tp72
Rp73
ag10
(g14
S'\xbbrh\xb1 v@A'
p74
tp75
Rp76
asS'target'
p77
(lp78
g10
(g14
S'C\xb4\xc8v\xbe\x0fR@'
p79
tp80
Rp81
ag10
(g14
S"'\xb0rh\x91=T@"
p82
tp83
Rp84
ag10
(g14
S'%\x06\x81\x95C\x0bP@'
p85
tp86
Rp87
ag10
(g14
S'33333sN@'
p88
tp89
Rp90
ag10
(g14
S'\xd1Mb\x10X\xa9M@'
p91
tp92
Rp93
ag10
(g14
S'm=\n\xd7\xa3PP@'
p94
tp95
Rp96
ag10
(g14
S']\xbaI\x0c\x02cO@'
p97
tp98
Rp99
ag10
(g14
S'v\x93\x18\x04V\x9aQ@'
p100
tp101
Rp102
ag10
(g14
S'\xc3\xf3\xfd\xd4x\xc9N@'
p103
tp104
Rp105
ag10
(g14
S'\xd6\xa3p=\ngQ@'
p106
tp107
Rp108
ag10
(g14
S'\x16/\xdd$\x06aP@'
p109
tp110
Rp111
ag10
(g14
S'b;\xdfO\x8d_Q@'
p112
tp113
Rp114
ag10
(g14
S' \x85\xebQ\xb8\xeeN@'
p115
tp116
Rp117
ag10
(g14
S'\xb8\x9f\x1a/\xdd\x04O@'
p118
tp119
Rp120
ag10
(g14
S'M\x0c\x02+\x87.Q@'
p121
tp122
Rp123
ag10
(g14
S'F7\x89A`\xc5N@'
p124
tp125
Rp126
ag10
(g14
S'3\xdd$\x06\x81\x85P@'
p127
tp128
Rp129
ag10
(g14
S'\x88\xc2\xf5(\\#S@'
p130
tp131
Rp132
ag10
(g14
S'1\xdd$\x06\x81\xedM@'
p133
tp134
Rp135
ag10
(g14
S'\xa5\xef\xa7\xc6K\xefR@'
p136
tp137
Rp138
asssss.