(dp0
S'../Data/sqlite_43.csv'
p1
(dp2
S'../Data/sqlite_6.csv'
p3
(dp4
F0.2
(dp5
S'abs_res'
p6
(dp7
S'bellwether'
p8
(lp9
cnumpy.core.multiarray
scalar
p10
(cnumpy
dtype
p11
(S'f8'
p12
I0
I1
tp13
Rp14
(I3
S'<'
p15
NNNI-1
I-1
I0
tp16
bS'\x99p=\xea\xa2/>A'
p17
tp18
Rp19
ag10
(g14
S'\xe9\xa7\xc6k 0>A'
p20
tp21
Rp22
ag10
(g14
S'\x8dn\x12\xc3\x0b0>A'
p23
tp24
Rp25
ag10
(g14
S'\xa0c\x82g\xd2/>A'
p26
tp27
Rp28
ag10
(g14
S'\x8e\x8a\xb3O\x030>A'
p29
tp30
Rp31
ag10
(g14
S'\xd8\xc1<\xb1\xd7/>A'
p32
tp33
Rp34
ag10
(g14
S'4Q\xff\xa6`.>A'
p35
tp36
Rp37
ag10
(g14
S'\xaeG\xe1\x1a\x1d0>A'
p38
tp39
Rp40
ag10
(g14
S'1`\xe5PG1>A'
p41
tp42
Rp43
ag10
(g14
S'c.$\r\xf6.>A'
p44
tp45
Rp46
ag10
(g14
S'\x1b""\xa2I0>A'
p47
tp48
Rp49
ag10
(g14
S'\t\x9fa\xd7\xd5/>A'
p50
tp51
Rp52
ag10
(g14
S'\xfc\x0e\xe6Ik.>A'
p53
tp54
Rp55
ag10
(g14
S'u?5\x9e\xa7/>A'
p56
tp57
Rp58
ag10
(g14
S'$x0o\xa4/>A'
p59
tp60
Rp61
ag10
(g14
S'\xdbO\x8d\xb7J0>A'
p62
tp63
Rp64
ag10
(g14
S'F\xb8\x1eE\xc6/>A'
p65
tp66
Rp67
ag10
(g14
S';\xc5\xd9\x07\x19/>A'
p68
tp69
Rp70
ag10
(g14
S'\x1c\x06\x81Uy/>A'
p71
tp72
Rp73
ag10
(g14
S'"\xb0r\xc88/>A'
p74
tp75
Rp76
asS'target'
p77
(lp78
g10
(g14
S'\xcd \xb0rh\x01q@'
p79
tp80
Rp81
ag10
(g14
S'U\xe3\xa5\x9b\xc4pq@'
p82
tp83
Rp84
ag10
(g14
S'}?5^\xba\xcdo@'
p85
tp86
Rp87
ag10
(g14
S'hffff\x04p@'
p88
tp89
Rp90
ag10
(g14
S'\rX9\xb4\xc8\xcep@'
p91
tp92
Rp93
ag10
(g14
S'\x8fl\xe7\xfb\xa9\x07r@'
p94
tp95
Rp96
ag10
(g14
S'\x1cZd;\xdf[r@'
p97
tp98
Rp99
ag10
(g14
S'\x11\xd9\xce\xf7S1q@'
p100
tp101
Rp102
ag10
(g14
S'\xce\xf7S\xe3\xa5\x0fr@'
p103
tp104
Rp105
ag10
(g14
S'\xb7\x1e\x85\xebQ\xf6q@'
p106
tp107
Rp108
ag10
(g14
S'\xb9\xf3\xfd\xd4x\xa9p@'
p109
tp110
Rp111
ag10
(g14
S'p\x12\x83\xc0\xca\xdfp@'
p112
tp113
Rp114
ag10
(g14
S'\xe7\xd0"\xdb\xf9\xfcp@'
p115
tp116
Rp117
ag10
(g14
S'g;\xdfO\x8d\x1bs@'
p118
tp119
Rp120
ag10
(g14
S'\x0f\xaeG\xe1z\x96s@'
p121
tp122
Rp123
ag10
(g14
S'=`\xe5\xd0"\x97q@'
p124
tp125
Rp126
ag10
(g14
S'\x11X9\xb4\xc8\xces@'
p127
tp128
Rp129
ag10
(g14
S'q=\n\xd7\xa3>r@'
p130
tp131
Rp132
ag10
(g14
S'\x99\x99\x99\x99\x99\x99q@'
p133
tp134
Rp135
ag10
(g14
S'6\xb4\xc8v\xbe\xe7q@'
p136
tp137
Rp138
asssss.