(dp0
S'../Data/sqlite_49.csv'
p1
(dp2
S'../Data/sqlite_76.csv'
p3
(dp4
F0.15
(dp5
S'mmre'
p6
(dp7
S'bellwether'
p8
(lp9
cnumpy.core.multiarray
scalar
p10
(cnumpy
dtype
p11
(S'f8'
p12
I0
I1
tp13
Rp14
(I3
S'<'
p15
NNNI-1
I-1
I0
tp16
bS'\xb30=@ZtP@'
p17
tp18
Rp19
ag10
(g14
S'&\x00\xb4>\x7fqP@'
p20
tp21
Rp22
ag10
(g14
S'\x1cT\x8e\xcc\xf1nP@'
p23
tp24
Rp25
ag10
(g14
S'\xc5\x87\xc4\xbd\x16uP@'
p26
tp27
Rp28
ag10
(g14
S'\x999\xe3D\xffyP@'
p29
tp30
Rp31
ag10
(g14
S'\x8a\xc1\xa3\xc7\xf3qP@'
p32
tp33
Rp34
ag10
(g14
S'\xf74\x01V^oP@'
p35
tp36
Rp37
ag10
(g14
S'\x96O\xad\xa4\x0cqP@'
p38
tp39
Rp40
ag10
(g14
S'?\xb8\x17\xca\xd6vP@'
p41
tp42
Rp43
ag10
(g14
S'sfJW\x8bxP@'
p44
tp45
Rp46
ag10
(g14
S'(\xfa\x17\xf7\xebvP@'
p47
tp48
Rp49
ag10
(g14
S'Q\xbe6\x93\xf5wP@'
p50
tp51
Rp52
ag10
(g14
S'\x12\xfd)\xb8fvP@'
p53
tp54
Rp55
ag10
(g14
S'\xe9\x8dL\x90\x8fpP@'
p56
tp57
Rp58
ag10
(g14
S',\x99S\xda\x86vP@'
p59
tp60
Rp61
ag10
(g14
S'\xde9\xdd\x13NuP@'
p62
tp63
Rp64
ag10
(g14
S'\xc8&|\x81d|P@'
p65
tp66
Rp67
ag10
(g14
S'2\xb3\xb79doP@'
p68
tp69
Rp70
ag10
(g14
S'\xf0\x94~s\x02uP@'
p71
tp72
Rp73
ag10
(g14
S'\x0b8\x90H\xa1jP@'
p74
tp75
Rp76
asS'target'
p77
(lp78
g10
(g14
S'\x15\xad\x8e\x9e:M0@'
p79
tp80
Rp81
ag10
(g14
S'\xb6\xa1R\x8bB\xd40@'
p82
tp83
Rp84
ag10
(g14
S'&g\xcc\x86z\xea0@'
p85
tp86
Rp87
ag10
(g14
S'u\xfe\xa9\x1det2@'
p88
tp89
Rp90
ag10
(g14
S'\x97k\xa0\x15\xef\x820@'
p91
tp92
Rp93
ag10
(g14
S'\xc3\xec\x9b\xa3\xe1!1@'
p94
tp95
Rp96
ag10
(g14
S'==o\xdb\xe4$4@'
p97
tp98
Rp99
ag10
(g14
S'\x0b\x06Y1\xe8\x032@'
p100
tp101
Rp102
ag10
(g14
S'\xe8ux\x0b\x98a2@'
p103
tp104
Rp105
ag10
(g14
S"\xc3\xfaa\x85'\x910@"
p106
tp107
Rp108
ag10
(g14
S'\x8dm\xf3]~\xf41@'
p109
tp110
Rp111
ag10
(g14
S'\xb4.\x1b\x96\xbaV2@'
p112
tp113
Rp114
ag10
(g14
S'\xc6K\xcaE\x07.1@'
p115
tp116
Rp117
ag10
(g14
S'\x13W\xc2\xdeN\xe41@'
p118
tp119
Rp120
ag10
(g14
S'CEM\x02tM1@'
p121
tp122
Rp123
ag10
(g14
S'\xcd\xb2\xa1\x81\x8a\x160@'
p124
tp125
Rp126
ag10
(g14
S'S\xc8K\xe5#,0@'
p127
tp128
Rp129
ag10
(g14
S'\xf1\xbfc&\xb0\x8e1@'
p130
tp131
Rp132
ag10
(g14
S'N\xf1}GU\xfe0@'
p133
tp134
Rp135
ag10
(g14
S'.\xa9\xa3f\xd0\xe32@'
p136
tp137
Rp138
asssss.