(dp0
S'../Data/sqlite_21.csv'
p1
(dp2
S'../Data/sqlite_96.csv'
p3
(dp4
F0.35
(dp5
S'mmre'
p6
(dp7
S'bellwether'
p8
(lp9
cnumpy.core.multiarray
scalar
p10
(cnumpy
dtype
p11
(S'f8'
p12
I0
I1
tp13
Rp14
(I3
S'<'
p15
NNNI-1
I-1
I0
tp16
bS'v\x9b\xa4sn<R@'
p17
tp18
Rp19
ag10
(g14
S'\xa6\xce\xd8hK-R@'
p20
tp21
Rp22
ag10
(g14
S'w\xd8sw\xac@R@'
p23
tp24
Rp25
ag10
(g14
S'%r\xe7\xcc\xa4AR@'
p26
tp27
Rp28
ag10
(g14
S'\xdf\xee\x9f\xdf\xb8:R@'
p29
tp30
Rp31
ag10
(g14
S'\t]\x05\xcaS/R@'
p32
tp33
Rp34
ag10
(g14
S'\xffm\x8a\xf8\xc5GR@'
p35
tp36
Rp37
ag10
(g14
S'\x0c\xb0\xe7\x00\x8f(R@'
p38
tp39
Rp40
ag10
(g14
S'\xe8\xcc\xa9j\xff9R@'
p41
tp42
Rp43
ag10
(g14
S'AC\x12\xdf44R@'
p44
tp45
Rp46
ag10
(g14
S'\xb3\xe3\x85\xee\xa2:R@'
p47
tp48
Rp49
ag10
(g14
S'\x8bmY g>R@'
p50
tp51
Rp52
ag10
(g14
S's\xca\xe2\x7fG0R@'
p53
tp54
Rp55
ag10
(g14
S"j1\x1a\x9b\x89'R@"
p56
tp57
Rp58
ag10
(g14
S'\xd0\\_\xeb\xbf4R@'
p59
tp60
Rp61
ag10
(g14
S'_\xd9\x88W\x97DR@'
p62
tp63
Rp64
ag10
(g14
S'wF\xeb\xd1 =R@'
p65
tp66
Rp67
ag10
(g14
S'.\x0b\x9a\xf1\x177R@'
p68
tp69
Rp70
ag10
(g14
S'\x02P\xd3\xb5\xaaAR@'
p71
tp72
Rp73
ag10
(g14
S'b8\xd6\xcax1R@'
p74
tp75
Rp76
asS'target'
p77
(lp78
g10
(g14
S'\xc2\xc6\xad4QRN@'
p79
tp80
Rp81
ag10
(g14
S'>P\xa7J\xd7\x0e^@'
p82
tp83
Rp84
ag10
(g14
S'%:M\xee\xf6>P@'
p85
tp86
Rp87
ag10
(g14
S'\x12\x87\xaa\xae\xdf\x08N@'
p88
tp89
Rp90
ag10
(g14
S'\x89s\xcc\xfe\x8d\xbcY@'
p91
tp92
Rp93
ag10
(g14
S'W!\x82\xf9\x8e\x88Y@'
p94
tp95
Rp96
ag10
(g14
S'`\xb7FH\x8c\xb2I@'
p97
tp98
Rp99
ag10
(g14
S'#^m=\xd4rP@'
p100
tp101
Rp102
ag10
(g14
S'\xc6\xa8~\x05,\x80S@'
p103
tp104
Rp105
ag10
(g14
S'\xc1\x05\r+\xbe\xd1T@'
p106
tp107
Rp108
ag10
(g14
S'mY\xc1\x03\\8I@'
p109
tp110
Rp111
ag10
(g14
S'\xec\xa4\r\x99\xf1\x9cD@'
p112
tp113
Rp114
ag10
(g14
S';AY\x92\xbd]S@'
p115
tp116
Rp117
ag10
(g14
S'\xd0\xeb.>d\xb1T@'
p118
tp119
Rp120
ag10
(g14
S'v\x91O`\xa14O@'
p121
tp122
Rp123
ag10
(g14
S'\xe2\xac\x15|g\xd8S@'
p124
tp125
Rp126
ag10
(g14
S'++\xc6\xb1\x0c:Z@'
p127
tp128
Rp129
ag10
(g14
S'\r\xbd\xe2\x08\x8b\xa3R@'
p130
tp131
Rp132
ag10
(g14
S'\xf0c\xf2\xf9\t\xfeH@'
p133
tp134
Rp135
ag10
(g14
S'\x8a\xab\xf4\xf8;ZV@'
p136
tp137
Rp138
asssss.