(dp0
S'../Data/sqlite_23.csv'
p1
(dp2
S'../Data/sqlite_96.csv'
p3
(dp4
F0.2
(dp5
S'mmre'
p6
(dp7
S'bellwether'
p8
(lp9
cnumpy.core.multiarray
scalar
p10
(cnumpy
dtype
p11
(S'f8'
p12
I0
I1
tp13
Rp14
(I3
S'<'
p15
NNNI-1
I-1
I0
tp16
bS"\x94:'R\xbe'X@"
p17
tp18
Rp19
ag10
(g14
S'\xc8\x85\xac~&(X@'
p20
tp21
Rp22
ag10
(g14
S"\x9aw&\x16I'X@"
p23
tp24
Rp25
ag10
(g14
S'\xff%\xaezg(X@'
p26
tp27
Rp28
ag10
(g14
S'"\xef\x9f\xb7~&X@'
p29
tp30
Rp31
ag10
(g14
S'\xcd(\x91KI)X@'
p32
tp33
Rp34
ag10
(g14
S"Y\xaa\xad6\xb1'X@"
p35
tp36
Rp37
ag10
(g14
S"\xba@1\x96#'X@"
p38
tp39
Rp40
ag10
(g14
S"\x0f%\xe3(F'X@"
p41
tp42
Rp43
ag10
(g14
S"'?\xef\x85j'X@"
p44
tp45
Rp46
ag10
(g14
S'8o\x9f\xb4!(X@'
p47
tp48
Rp49
ag10
(g14
S'<\xee\x07\x1c/(X@'
p50
tp51
Rp52
ag10
(g14
S"\xd8\xcd\x14\n\x94'X@"
p53
tp54
Rp55
ag10
(g14
S'\xdd\xe2\x9f$u(X@'
p56
tp57
Rp58
ag10
(g14
S'\x9c\xf0\xe6?A)X@'
p59
tp60
Rp61
ag10
(g14
S"(0\x1d`\xc5'X@"
p62
tp63
Rp64
ag10
(g14
S'\x88/D=\x1f(X@'
p65
tp66
Rp67
ag10
(g14
S'\xc6\x1f\xf1\x84J(X@'
p68
tp69
Rp70
ag10
(g14
S"\x14'\xc2\xf8\xb1%X@"
p71
tp72
Rp73
ag10
(g14
S'lV\xcec\x98(X@'
p74
tp75
Rp76
asS'target'
p77
(lp78
g10
(g14
S'\xa3\r\x90\xd7+\xbfL@'
p79
tp80
Rp81
ag10
(g14
S'A\xba\xcc\x83\xffmR@'
p82
tp83
Rp84
ag10
(g14
S'\xa9\x86\x9b\xfa\n\x89Z@'
p85
tp86
Rp87
ag10
(g14
S'\xd7v|\x97Z;T@'
p88
tp89
Rp90
ag10
(g14
S'B\xba\x0b\x93M\xb3X@'
p91
tp92
Rp93
ag10
(g14
S'\x8c\x93(\xe4\x07\xa2S@'
p94
tp95
Rp96
ag10
(g14
S'\x84e\xee\x87\xeaeS@'
p97
tp98
Rp99
ag10
(g14
S'\xae4{\xe7\xd0\x1a\\@'
p100
tp101
Rp102
ag10
(g14
S'\xda\x13\x00u\x04\xc2X@'
p103
tp104
Rp105
ag10
(g14
S'\x8cN\xd3\xd9\xa1wS@'
p106
tp107
Rp108
ag10
(g14
S's\x8d\xaa\xa4#?M@'
p109
tp110
Rp111
ag10
(g14
S'\x80B\xb4\xd7\xe2%D@'
p112
tp113
Rp114
ag10
(g14
S'\xa82\xec=\x06-O@'
p115
tp116
Rp117
ag10
(g14
S' \xab5\xed\x96\x94P@'
p118
tp119
Rp120
ag10
(g14
S'h?:\x82\x1f>Q@'
p121
tp122
Rp123
ag10
(g14
S'@\xb0G\x97\x80\xc3S@'
p124
tp125
Rp126
ag10
(g14
S'\xb1\xc8\x83y\x8a\xcfQ@'
p127
tp128
Rp129
ag10
(g14
S'KG\xe95O\xf4N@'
p130
tp131
Rp132
ag10
(g14
S'\xd4 \xbb\x0b\xdc\xb5V@'
p133
tp134
Rp135
ag10
(g14
S'Vc\x84c&\x95Q@'
p136
tp137
Rp138
asssss.