(dp0
S'../Data/sqlite_18.csv'
p1
(dp2
S'../Data/sqlite_70.csv'
p3
(dp4
F0.05
(dp5
S'abs_res'
p6
(dp7
S'bellwether'
p8
(lp9
cnumpy.core.multiarray
scalar
p10
(cnumpy
dtype
p11
(S'f8'
p12
I0
I1
tp13
Rp14
(I3
S'<'
p15
NNNI-1
I-1
I0
tp16
bS'\xa3)\x15G\xc4VBA'
p17
tp18
Rp19
ag10
(g14
S'\x19\xb0r\x08OVBA'
p20
tp21
Rp22
ag10
(g14
S'\x17\x04V\xbe\x8fVBA'
p23
tp24
Rp25
ag10
(g14
S'\t-\xb2-1VBA'
p26
tp27
Rp28
ag10
(g14
S'\x00+\x87\x86\x93VBA'
p29
tp30
Rp31
ag10
(g14
S'a\x91\xed\x1c$VBA'
p32
tp33
Rp34
ag10
(g14
S';\xb4\xc86\xfcUBA'
p35
tp36
Rp37
ag10
(g14
S'\xe2\xfb\xa9\x81\xfdUBA'
p38
tp39
Rp40
ag10
(g14
S'\xec\xd2MbpVBA'
p41
tp42
Rp43
ag10
(g14
S'C\xe1z\x94\xfeUBA'
p44
tp45
Rp46
ag10
(g14
S'7`\xe5P"VBA'
p47
tp48
Rp49
ag10
(g14
S'a\xe5\xd0\xc2-VBA'
p50
tp51
Rp52
ag10
(g14
S'\xbat\x938\x83VBA'
p53
tp54
Rp55
ag10
(g14
S'\x95C\x8b\\-VBA'
p56
tp57
Rp58
ag10
(g14
S'p\xe9&1\xaeVBA'
p59
tp60
Rp61
ag10
(g14
S'\x0b\xe6\x89z\x85VBA'
p62
tp63
Rp64
ag10
(g14
S'\xe7z\x14\x8elVBA'
p65
tp66
Rp67
ag10
(g14
S'\xc7\xf7S\xe3\xcbUBA'
p68
tp69
Rp70
ag10
(g14
S'L\x0e-"]VBA'
p71
tp72
Rp73
ag10
(g14
S'9\x19\xbd\xcdqVBA'
p74
tp75
Rp76
asS'target'
p77
(lp78
g10
(g14
S'\xcf\xa1E\xb6\xf39b@'
p79
tp80
Rp81
ag10
(g14
S'*\xb0rh\x91\x89e@'
p82
tp83
Rp84
ag10
(g14
S'|\xe9&1\x08\xf4c@'
p85
tp86
Rp87
ag10
(g14
S':\xb4\xc8v\xbe\xdbb@'
p88
tp89
Rp90
ag10
(g14
S'\xcc\xcc\xcc\xcc\xcc\x08e@'
p91
tp92
Rp93
ag10
(g14
S'\xc7\xf5(\\\x8f6a@'
p94
tp95
Rp96
ag10
(g14
S'k\xe7\xfb\xa9\xf1\xa2e@'
p97
tp98
Rp99
ag10
(g14
S'Vd;\xdfO=d@'
p100
tp101
Rp102
ag10
(g14
S'Z9\xb4\xc8v\xfae@'
p103
tp104
Rp105
ag10
(g14
S'j\xe9&1\x08\xccd@'
p106
tp107
Rp108
ag10
(g14
S'\x02-\xb2\x9d\xef/b@'
p109
tp110
Rp111
ag10
(g14
S'\x84\x16\xd9\xce\xf7Kc@'
p112
tp113
Rp114
ag10
(g14
S'\xe0\xd0"\xdb\xf9\xb2g@'
p115
tp116
Rp117
ag10
(g14
S'\xe8&1\x08\xac<a@'
p118
tp119
Rp120
ag10
(g14
S'\xb0\x9d\xef\xa7\xc6\x93b@'
p121
tp122
Rp123
ag10
(g14
S'\x82\x95C\x8bl\xafe@'
p124
tp125
Rp126
ag10
(g14
S']ffffFb@'
p127
tp128
Rp129
ag10
(g14
S'\xbbrh\x91\xed\xa0g@'
p130
tp131
Rp132
ag10
(g14
S'p\x93\x18\x04V\xfaa@'
p133
tp134
Rp135
ag10
(g14
S'\x98\xef\xa7\xc6K\x9bd@'
p136
tp137
Rp138
asssss.