(dp0
S'../Data/sqlite_18.csv'
p1
(dp2
S'../Data/sqlite_33.csv'
p3
(dp4
F0.4
(dp5
S'abs_res'
p6
(dp7
S'bellwether'
p8
(lp9
cnumpy.core.multiarray
scalar
p10
(cnumpy
dtype
p11
(S'f8'
p12
I0
I1
tp13
Rp14
(I3
S'<'
p15
NNNI-1
I-1
I0
tp16
bS'\x0f\xbb\x02df?7A'
p17
tp18
Rp19
ag10
(g14
S'T*\xce\x1e\x93=7A'
p20
tp21
Rp22
ag10
(g14
S'\x88\xf8\x0c\xfbz>7A'
p23
tp24
Rp25
ag10
(g14
S'\xd0>|&\xf3=7A'
p26
tp27
Rp28
ag10
(g14
S' \x92\xa6\xd4\xa1?7A'
p29
tp30
Rp31
ag10
(g14
S'4\xa5\xe2\x0c|=7A'
p32
tp33
Rp34
ag10
(g14
S'\xb3\xd7\\\x08 >7A'
p35
tp36
Rp37
ag10
(g14
S'|j\xbc\xb4.>7A'
p38
tp39
Rp40
ag10
(g14
S'\xac\x8e\t^5>7A'
p41
tp42
Rp43
ag10
(g14
S'\x7f[\xd6J8=7A'
p44
tp45
Rp46
ag10
(g14
S'\xbe\xd7\\\xe8p<7A'
p47
tp48
Rp49
ag10
(g14
S'\xc7/\x96\x9c\xe9=7A'
p50
tp51
Rp52
ag10
(g14
S'\xc7v\xbe_\x0c>7A'
p53
tp54
Rp55
ag10
(g14
S'\x11<\x98\xe7\xd7>7A'
p56
tp57
Rp58
ag10
(g14
S'\x1e\xbd-\xcbb=7A'
p59
tp60
Rp61
ag10
(g14
S'{?5\xde\x93=7A'
p62
tp63
Rp64
ag10
(g14
S'\x03\xb9\xd7\xbc\xd8=7A'
p65
tp66
Rp67
ag10
(g14
S'\xc9\x04\x0f\xa6N?7A'
p68
tp69
Rp70
ag10
(g14
S't\xda@\xe77=7A'
p71
tp72
Rp73
ag10
(g14
S'l\x91\xed\xfc\xa6>7A'
p74
tp75
Rp76
asS'target'
p77
(lp78
g10
(g14
S'\xae\xf1\xd2Mb\xc8C@'
p79
tp80
Rp81
ag10
(g14
S'\xa5\x1cZd;\xcfC@'
p82
tp83
Rp84
ag10
(g14
S';5^\xbaI\xd4D@'
p85
tp86
Rp87
ag10
(g14
S'\x87j\xbct\x93\xd8C@'
p88
tp89
Rp90
ag10
(g14
S'\r\xd7\xa3p=ZD@'
p91
tp92
Rp93
ag10
(g14
S'\xa4p=\n\xd7\xb3E@'
p94
tp95
Rp96
ag10
(g14
S'N\x0c\x02+\x87\x9eE@'
p97
tp98
Rp99
ag10
(g14
S'\x1c/\xdd$\x06YD@'
p100
tp101
Rp102
ag10
(g14
S'\xdd$\x06\x81\x95\xb3E@'
p103
tp104
Rp105
ag10
(g14
S'\xc9\xa1E\xb6\xf3%F@'
p106
tp107
Rp108
ag10
(g14
S'z?5^\xbaAE@'
p109
tp110
Rp111
ag10
(g14
S'l\x91\xed|?\xb5C@'
p112
tp113
Rp114
ag10
(g14
S'\xa4\x9b\xc4 \xb0zB@'
p115
tp116
Rp117
ag10
(g14
S'O7\x89A`\x15D@'
p118
tp119
Rp120
ag10
(g14
S'F7\x89A`\x9dD@'
p121
tp122
Rp123
ag10
(g14
S'Y\x0e-\xb2\x9d?E@'
p124
tp125
Rp126
ag10
(g14
S'\xec|?5^ZC@'
p127
tp128
Rp129
ag10
(g14
S'\xf5\xd2Mb\x10`D@'
p130
tp131
Rp132
ag10
(g14
S'\x90\x18\x04V\x0e\x8dB@'
p133
tp134
Rp135
ag10
(g14
S'g\x03\x9d6\xd0aD@'
p136
tp137
Rp138
asssss.