(dp0
S'../Data/sqlite_59.csv'
p1
(dp2
S'../Data/sqlite_78.csv'
p3
(dp4
F0.25
(dp5
S'mmre'
p6
(dp7
S'bellwether'
p8
(lp9
cnumpy.core.multiarray
scalar
p10
(cnumpy
dtype
p11
(S'f8'
p12
I0
I1
tp13
Rp14
(I3
S'<'
p15
NNNI-1
I-1
I0
tp16
bS'\xe8y\x8f\xc0z`e@'
p17
tp18
Rp19
ag10
(g14
S'U\xb3^\xcf9Ke@'
p20
tp21
Rp22
ag10
(g14
S'\rm\x88\x12#@e@'
p23
tp24
Rp25
ag10
(g14
S'\xfd \xae\x14\x91Ne@'
p26
tp27
Rp28
ag10
(g14
S'\x80\xe7\x84\xe3\x15Oe@'
p29
tp30
Rp31
ag10
(g14
S'5\x06\xeb\xee\xb4Ke@'
p32
tp33
Rp34
ag10
(g14
S'\x08(K\xfd40e@'
p35
tp36
Rp37
ag10
(g14
S'1\x88\x93\x18\x86be@'
p38
tp39
Rp40
ag10
(g14
S'\xf5\x1a\x10eu\xddd@'
p41
tp42
Rp43
ag10
(g14
S'\xa9\xaf5q\x12\xedd@'
p44
tp45
Rp46
ag10
(g14
S'WU\xad\xb9\xcdne@'
p47
tp48
Rp49
ag10
(g14
S'\xa5\x94\\\x9e=0e@'
p50
tp51
Rp52
ag10
(g14
S'>\xb1r\xceU?e@'
p53
tp54
Rp55
ag10
(g14
S'\x02\x8e\x1c\xdb5\x89e@'
p56
tp57
Rp58
ag10
(g14
S'~\t\x1a\xfd-\x1ce@'
p59
tp60
Rp61
ag10
(g14
S'\xfc*\xf6Va&e@'
p62
tp63
Rp64
ag10
(g14
S'l\xd8t&\xdbCe@'
p65
tp66
Rp67
ag10
(g14
S'\xad\x8f.\x95\xa7\xf8d@'
p68
tp69
Rp70
ag10
(g14
S'\xe0A@7\xc5\x0fe@'
p71
tp72
Rp73
ag10
(g14
S'\xc4\x0e:\xaeF,e@'
p74
tp75
Rp76
asS'target'
p77
(lp78
g10
(g14
S'\xe6k)\xf7\xf4\xfa3@'
p79
tp80
Rp81
ag10
(g14
S'J\x10\x1a\xa6684@'
p82
tp83
Rp84
ag10
(g14
S'sT#1\xbf\xd32@'
p85
tp86
Rp87
ag10
(g14
S'&\xd4\xe1\x8a\x06\xcf4@'
p88
tp89
Rp90
ag10
(g14
S'h \xb5y\x19\x065@'
p91
tp92
Rp93
ag10
(g14
S'\xc5\x8c\xf68\rZ3@'
p94
tp95
Rp96
ag10
(g14
S'\xa5\xea\x01mr\xfb2@'
p97
tp98
Rp99
ag10
(g14
S'jx\x91\xf0\xc0\x903@'
p100
tp101
Rp102
ag10
(g14
S'\x97\xefn\x0b\x0c92@'
p103
tp104
Rp105
ag10
(g14
S'\xcagB>\x8e\xdd3@'
p106
tp107
Rp108
ag10
(g14
S'\xbe\xf5\x97\xdd:\xc91@'
p109
tp110
Rp111
ag10
(g14
S'\x84X?X@\r4@'
p112
tp113
Rp114
ag10
(g14
S'\xa2\xac5\x08\nx3@'
p115
tp116
Rp117
ag10
(g14
S'(\xa82\x11CB4@'
p118
tp119
Rp120
ag10
(g14
S'{\xfb\xf0\x7f\xb7\x883@'
p121
tp122
Rp123
ag10
(g14
S'\x0b`a<\xe143@'
p124
tp125
Rp126
ag10
(g14
S'\x0f\xd66\xad-\xb32@'
p127
tp128
Rp129
ag10
(g14
S'\xf3-A \xddH3@'
p130
tp131
Rp132
ag10
(g14
S'S\xab\xdc\t\xe3u3@'
p133
tp134
Rp135
ag10
(g14
S'\xfe\x92\xe6}\xec\xd64@'
p136
tp137
Rp138
asssss.