(dp0
S'../Data/sqlite_51.csv'
p1
(dp2
S'../Data/sqlite_73.csv'
p3
(dp4
F0.15
(dp5
S'mmre'
p6
(dp7
S'bellwether'
p8
(lp9
cnumpy.core.multiarray
scalar
p10
(cnumpy
dtype
p11
(S'f8'
p12
I0
I1
tp13
Rp14
(I3
S'<'
p15
NNNI-1
I-1
I0
tp16
bS'\xe0\xfb^2\x11)W@'
p17
tp18
Rp19
ag10
(g14
S'\xda\xaa\x07S\xe8+W@'
p20
tp21
Rp22
ag10
(g14
S'\xdb@V\xc7?,W@'
p23
tp24
Rp25
ag10
(g14
S'\xf3\x8dD\x9a\xb1)W@'
p26
tp27
Rp28
ag10
(g14
S'1\xe8\\?\xdc*W@'
p29
tp30
Rp31
ag10
(g14
S'W%\xa6W\x8b*W@'
p32
tp33
Rp34
ag10
(g14
S'/\x12\xf9\x11\xd0*W@'
p35
tp36
Rp37
ag10
(g14
S'\xa1\xa6\xdc\xfd\xa4)W@'
p38
tp39
Rp40
ag10
(g14
S'D\xc5E\xbf\xe5*W@'
p41
tp42
Rp43
ag10
(g14
S'~u\x19\x87\xd0)W@'
p44
tp45
Rp46
ag10
(g14
S'\xbc\xba(;L)W@'
p47
tp48
Rp49
ag10
(g14
S'&\xfcw0\x0f*W@'
p50
tp51
Rp52
ag10
(g14
S'B\xd8ar\xaf+W@'
p53
tp54
Rp55
ag10
(g14
S'\xd3\xa07\xfa\x9e)W@'
p56
tp57
Rp58
ag10
(g14
S'+\x82EUO+W@'
p59
tp60
Rp61
ag10
(g14
S'\xcf\xa9\x8e\xc9\x14+W@'
p62
tp63
Rp64
ag10
(g14
S'e\x8e\x18\xf5`+W@'
p65
tp66
Rp67
ag10
(g14
S'\x00\x9f\x01\x90++W@'
p68
tp69
Rp70
ag10
(g14
S'/\xe7\x7fB\xc6)W@'
p71
tp72
Rp73
ag10
(g14
S'\x8d\xce\xa4o\xf9*W@'
p74
tp75
Rp76
asS'target'
p77
(lp78
g10
(g14
S"m\xe3bKJ'0@"
p79
tp80
Rp81
ag10
(g14
S'\x14X\x1b~,\xa5*@'
p82
tp83
Rp84
ag10
(g14
S'/\xb8\xcajam+@'
p85
tp86
Rp87
ag10
(g14
S'LE\xdb\xbe\x83\x96-@'
p88
tp89
Rp90
ag10
(g14
S'\x86|\xf0\xb5\xcc\xa2,@'
p91
tp92
Rp93
ag10
(g14
S'\xec\x9c\xdd\x1c\xd1u,@'
p94
tp95
Rp96
ag10
(g14
S'O\xa4B\x02MI*@'
p97
tp98
Rp99
ag10
(g14
S'b\xe4\xd4!Q\x92,@'
p100
tp101
Rp102
ag10
(g14
S'\xed\xfb\xe19\x08<)@'
p103
tp104
Rp105
ag10
(g14
S'j\\\x12\x82z\xde-@'
p106
tp107
Rp108
ag10
(g14
S'@\x7f[\xfe\x06\x13.@'
p109
tp110
Rp111
ag10
(g14
S'\xc7\x84;~U_)@'
p112
tp113
Rp114
ag10
(g14
S'"\xadO\xc8\x19C+@'
p115
tp116
Rp117
ag10
(g14
S'!\x8a\x8f\x9b\xddk/@'
p118
tp119
Rp120
ag10
(g14
S'\xe8\xd4\xa2\x87J\x11.@'
p121
tp122
Rp123
ag10
(g14
S'A\x18e&\xa1K,@'
p124
tp125
Rp126
ag10
(g14
S'F\x89P\x91 \xdb*@'
p127
tp128
Rp129
ag10
(g14
S'(b\xc6M?o*@'
p130
tp131
Rp132
ag10
(g14
S'E(.\x7f\xe4\x10.@'
p133
tp134
Rp135
ag10
(g14
S'^\xbc[\xcc\x13\x7f-@'
p136
tp137
Rp138
asssss.