(dp0
S'../Data/sqlite_15.csv'
p1
(dp2
S'../Data/sqlite_23.csv'
p3
(dp4
F0.05
(dp5
S'abs_res'
p6
(dp7
S'bellwether'
p8
(lp9
cnumpy.core.multiarray
scalar
p10
(cnumpy
dtype
p11
(S'f8'
p12
I0
I1
tp13
Rp14
(I3
S'<'
p15
NNNI-1
I-1
I0
tp16
bS'\xe9\xd0"\xcbW$BA'
p17
tp18
Rp19
ag10
(g14
S'o=\n7\xc1$BA'
p20
tp21
Rp22
ag10
(g14
S'k\x91\xed,\x1c$BA'
p23
tp24
Rp25
ag10
(g14
S'\x05V\x0e-\x01$BA'
p26
tp27
Rp28
ag10
(g14
S':\xdfO\x1d3$BA'
p29
tp30
Rp31
ag10
(g14
S'\xce\xcc\xcc\xacP$BA'
p32
tp33
Rp34
ag10
(g14
S'S\xb8\x1eu\xf1#BA'
p35
tp36
Rp37
ag10
(g14
S'\x14\xbd-\xeb\xf0#BA'
p38
tp39
Rp40
ag10
(g14
S'\xdc\xf9~\x9a\xd2#BA'
p41
tp42
Rp43
ag10
(g14
S'w\xbe\x9f*P$BA'
p44
tp45
Rp46
ag10
(g14
S'I\xe1zD\xfc#BA'
p47
tp48
Rp49
ag10
(g14
S'\xb8\xc8v^\x17$BA'
p50
tp51
Rp52
ag10
(g14
S'bH\x9a\xe2\xcb#BA'
p53
tp54
Rp55
ag10
(g14
S'\xb2\xc8v.\xa9$BA'
p56
tp57
Rp58
ag10
(g14
S'@5^\x9a\xf2#BA'
p59
tp60
Rp61
ag10
(g14
S'\x9c\xc4 \xb0\xb7$BA'
p62
tp63
Rp64
ag10
(g14
S'l\xbct\x93t$BA'
p65
tp66
Rp67
ag10
(g14
S'\xc4X\xf2;\xf8#BA'
p68
tp69
Rp70
ag10
(g14
S'_\x8f\xc2\x15R$BA'
p71
tp72
Rp73
ag10
(g14
S'\x96\x18\x04\xf6@$BA'
p74
tp75
Rp76
asS'target'
p77
(lp78
g10
(g14
S'M\x8d\x97n\x12SD@'
p79
tp80
Rp81
ag10
(g14
S'\x92\xed|?5.B@'
p82
tp83
Rp84
ag10
(g14
S'\x1f\x04V\x0e-\xf2C@'
p85
tp86
Rp87
ag10
(g14
S'\xae\x9d\xef\xa7\xc6\xfb@@'
p88
tp89
Rp90
ag10
(g14
S'\xd8\xf7S\xe3\xa5\xebM@'
p91
tp92
Rp93
ag10
(g14
S'^9\xb4\xc8v\x8e@@'
p94
tp95
Rp96
ag10
(g14
S'\xdfz\x14\xaeG\x81?@'
p97
tp98
Rp99
ag10
(g14
S'\xf7\xa9\xf1\xd2M\xa2A@'
p100
tp101
Rp102
ag10
(g14
S'\x00\x7fj\xbctc@@'
p103
tp104
Rp105
ag10
(g14
S'"\xb0rh\x91\x8dA@'
p106
tp107
Rp108
ag10
(g14
S'\xbf\xca\xa1E\xb63D@'
p109
tp110
Rp111
ag10
(g14
S'3\n\xd7\xa3p\xfdC@'
p112
tp113
Rp114
ag10
(g14
S'<1\x08\xac\x1c\xda?@'
p115
tp116
Rp117
ag10
(g14
S'[9\xb4\xc8v\x8eD@'
p118
tp119
Rp120
ag10
(g14
S'\x80A`\xe5\xd0\x02A@'
p121
tp122
Rp123
ag10
(g14
S'\x84j\xbct\x93HC@'
p124
tp125
Rp126
ag10
(g14
S'Qb\x10X9TB@'
p127
tp128
Rp129
ag10
(g14
S'\x1d\x85\xebQ\xb8\xaeB@'
p130
tp131
Rp132
ag10
(g14
S'\xc6\xcc\xcc\xcc\xcc\\A@'
p133
tp134
Rp135
ag10
(g14
S'\x02T\xe3\xa5\x9b\xe4@@'
p136
tp137
Rp138
asssss.