(dp0
S'../Data/sqlite_31.csv'
p1
(dp2
S'../Data/sqlite_94.csv'
p3
(dp4
F0.4
(dp5
S'mmre'
p6
(dp7
S'bellwether'
p8
(lp9
cnumpy.core.multiarray
scalar
p10
(cnumpy
dtype
p11
(S'f8'
p12
I0
I1
tp13
Rp14
(I3
S'<'
p15
NNNI-1
I-1
I0
tp16
bS'\xff\xee\xc6\n33X@'
p17
tp18
Rp19
ag10
(g14
S'67#\xf0\xcd/X@'
p20
tp21
Rp22
ag10
(g14
S'\x19\x0eB9\xaa1X@'
p23
tp24
Rp25
ag10
(g14
S"p'\xbe^)1X@"
p26
tp27
Rp28
ag10
(g14
S'-\xe6\xa2u\x8d2X@'
p29
tp30
Rp31
ag10
(g14
S'\x17\\-\\\xbe.X@'
p32
tp33
Rp34
ag10
(g14
S'\xeak\xdb\xd210X@'
p35
tp36
Rp37
ag10
(g14
S'p\x03\xe5n\xf51X@'
p38
tp39
Rp40
ag10
(g14
S'\xe9D)\x9b^0X@'
p41
tp42
Rp43
ag10
(g14
S'\xa2j\xff\xd8\x940X@'
p44
tp45
Rp46
ag10
(g14
S'\xb3\xf0\xd3\xffB/X@'
p47
tp48
Rp49
ag10
(g14
S"\x1be\xce'\xfe1X@"
p50
tp51
Rp52
ag10
(g14
S'\xd6\xa8\xebO\xee5X@'
p53
tp54
Rp55
ag10
(g14
S'\xca\x84@\xd9\x961X@'
p56
tp57
Rp58
ag10
(g14
S'S\x14\xd1\x16\xaa3X@'
p59
tp60
Rp61
ag10
(g14
S'\xa0\xa2\x17D\xe41X@'
p62
tp63
Rp64
ag10
(g14
S'$\x98F\x01\xa1/X@'
p65
tp66
Rp67
ag10
(g14
S'\xce\xa4y\xc4\x103X@'
p68
tp69
Rp70
ag10
(g14
S'O\xc4\x0c5\xd30X@'
p71
tp72
Rp73
ag10
(g14
S'\x1c,H\x94\xad/X@'
p74
tp75
Rp76
asS'target'
p77
(lp78
g10
(g14
S'\xaf\x1b\xe5\x0e\\_U@'
p79
tp80
Rp81
ag10
(g14
S'Fv\xe9_\x1f\x97J@'
p82
tp83
Rp84
ag10
(g14
S'\x9c\x07\xfe\xd7?MJ@'
p85
tp86
Rp87
ag10
(g14
S'\xd0\xb4\x1f\xf2\xd4kR@'
p88
tp89
Rp90
ag10
(g14
S'\x153\xe2Yu\xcdM@'
p91
tp92
Rp93
ag10
(g14
S'|\xfa\xc1\xd8\x1apQ@'
p94
tp95
Rp96
ag10
(g14
S'\xd8\xfb\x83\xca|\xc8P@'
p97
tp98
Rp99
ag10
(g14
S'\xb6\x1c\xc1\xf2\xa0\xd4N@'
p100
tp101
Rp102
ag10
(g14
S'\x11F\xff\xd9#[T@'
p103
tp104
Rp105
ag10
(g14
S"L3V'\x03SO@"
p106
tp107
Rp108
ag10
(g14
S'\x1b:\x91>NOP@'
p109
tp110
Rp111
ag10
(g14
S'g\x88\x8b\x94xnM@'
p112
tp113
Rp114
ag10
(g14
S'\xbfbF\x11*gI@'
p115
tp116
Rp117
ag10
(g14
S'p\xba\x04w\xdc^T@'
p118
tp119
Rp120
ag10
(g14
S"\x18zw\x99\x90'Q@"
p121
tp122
Rp123
ag10
(g14
S'\xc4\xab\xb8{\n\x1cQ@'
p124
tp125
Rp126
ag10
(g14
S'\xbe\x03\x1d\x07;\x10P@'
p127
tp128
Rp129
ag10
(g14
S'p\x97\xa5k\\JN@'
p130
tp131
Rp132
ag10
(g14
S"\x96\x12\xb2'vTS@"
p133
tp134
Rp135
ag10
(g14
S'\xbc`\x17\x19\xa5\xd2R@'
p136
tp137
Rp138
asssss.