(dp0
S'../Data/sqlite_79.csv'
p1
(dp2
S'../Data/sqlite_63.csv'
p3
(dp4
F0.15
(dp5
S'mmre'
p6
(dp7
S'bellwether'
p8
(lp9
cnumpy.core.multiarray
scalar
p10
(cnumpy
dtype
p11
(S'f8'
p12
I0
I1
tp13
Rp14
(I3
S'<'
p15
NNNI-1
I-1
I0
tp16
bS',Yd\xfeRyV@'
p17
tp18
Rp19
ag10
(g14
S'o?9\xdb\xbcyV@'
p20
tp21
Rp22
ag10
(g14
S'68\xcf\x8evyV@'
p23
tp24
Rp25
ag10
(g14
S'S\xf6q\x15|xV@'
p26
tp27
Rp28
ag10
(g14
S'<}\r\x8dSzV@'
p29
tp30
Rp31
ag10
(g14
S'\xd2f\x91|\x06zV@'
p32
tp33
Rp34
ag10
(g14
S'9BPn\xe9zV@'
p35
tp36
Rp37
ag10
(g14
S'u\x86[\x8b\xc9{V@'
p38
tp39
Rp40
ag10
(g14
S"'\xb5\xfb\xf2\xb7{V@"
p41
tp42
Rp43
ag10
(g14
S'\xb6\xa3\xb9\x926{V@'
p44
tp45
Rp46
ag10
(g14
S'\xb7\xb5\xbbN\x16{V@'
p47
tp48
Rp49
ag10
(g14
S'&9\xbe9\x7fwV@'
p50
tp51
Rp52
ag10
(g14
S'\x82\x04#\xbc\xa3zV@'
p53
tp54
Rp55
ag10
(g14
S'\xfav\xeeF\x96yV@'
p56
tp57
Rp58
ag10
(g14
S'z$\x11\x14\xfc{V@'
p59
tp60
Rp61
ag10
(g14
S'\x8e\xce6-\xed{V@'
p62
tp63
Rp64
ag10
(g14
S'\r,\xad<\xc3yV@'
p65
tp66
Rp67
ag10
(g14
S'=YK]\xffyV@'
p68
tp69
Rp70
ag10
(g14
S'\xf6E\x00n\x1c{V@'
p71
tp72
Rp73
ag10
(g14
S'\xd4\xd7\x9bZ\xc3xV@'
p74
tp75
Rp76
asS'target'
p77
(lp78
g10
(g14
S'g\xbc-\x8f\xb1\x83"@'
p79
tp80
Rp81
ag10
(g14
S'\x94+\x9f\xe4\x98\xe6!@'
p82
tp83
Rp84
ag10
(g14
S'\x9c9hN5u"@'
p85
tp86
Rp87
ag10
(g14
S'\x06\xb2\xdf+\xe3e"@'
p88
tp89
Rp90
ag10
(g14
S'r`\x8e\xd3q\x8f"@'
p91
tp92
Rp93
ag10
(g14
S'\xdcr\'x\x80Y"@'
p94
tp95
Rp96
ag10
(g14
S'\xc6\x06\xad\x93\xe2B#@'
p97
tp98
Rp99
ag10
(g14
S'\x01\xb0\x1eO\xd2?"@'
p100
tp101
Rp102
ag10
(g14
S'\xc5\xec\xf41\x85|!@'
p103
tp104
Rp105
ag10
(g14
S'\x85}\xf5\xc2\xd9Z#@'
p106
tp107
Rp108
ag10
(g14
S'=z=+\xda6#@'
p109
tp110
Rp111
ag10
(g14
S'0\x95Y\x06\xf4\x02#@'
p112
tp113
Rp114
ag10
(g14
S'hD\xd2\xc7\x16I#@'
p115
tp116
Rp117
ag10
(g14
S'\xe56c\x9c\x05\x97!@'
p118
tp119
Rp120
ag10
(g14
S'\x1c\xe7\x86&d8%@'
p121
tp122
Rp123
ag10
(g14
S'\xa9chT!\xc8!@'
p124
tp125
Rp126
ag10
(g14
S'5\xdf\xc7\x0e\xd1\x91!@'
p127
tp128
Rp129
ag10
(g14
S'\x0f]\xd7\xe2\x9eM#@'
p130
tp131
Rp132
ag10
(g14
S':\xb6|\xbfw\xa4"@'
p133
tp134
Rp135
ag10
(g14
S'h\xff\x9c\x84!\xc2#@'
p136
tp137
Rp138
asssss.