(dp0
S'../Data/sqlite_17.csv'
p1
(dp2
S'../Data/sqlite_84.csv'
p3
(dp4
F0.3
(dp5
S'mmre'
p6
(dp7
S'bellwether'
p8
(lp9
cnumpy.core.multiarray
scalar
p10
(cnumpy
dtype
p11
(S'f8'
p12
I0
I1
tp13
Rp14
(I3
S'<'
p15
NNNI-1
I-1
I0
tp16
bS'\xcf\x9e\x1d\x87\xe5$F@'
p17
tp18
Rp19
ag10
(g14
S'>\x1a7\xca\xfb\xbcE@'
p20
tp21
Rp22
ag10
(g14
S'\xff+\xfct\x05BF@'
p23
tp24
Rp25
ag10
(g14
S'\xb69\xd1Ps\xdaE@'
p26
tp27
Rp28
ag10
(g14
S'C\x14{7\xea\x81F@'
p29
tp30
Rp31
ag10
(g14
S'v\xdd\x9fZ\x84\xf8E@'
p32
tp33
Rp34
ag10
(g14
S'_U\xcbjJlF@'
p35
tp36
Rp37
ag10
(g14
S'M\xf6n\xfdj:F@'
p38
tp39
Rp40
ag10
(g14
S'\xe1\xdd\xd0\xb9\xce#F@'
p41
tp42
Rp43
ag10
(g14
S'\xf5`\x01f\x93>F@'
p44
tp45
Rp46
ag10
(g14
S'\xbe\xb0\x8f\xc2^yF@'
p47
tp48
Rp49
ag10
(g14
S'\xba\xa1\x11\xe8\xc5SF@'
p50
tp51
Rp52
ag10
(g14
S'\xdc\xb6\xf1Pv\x11F@'
p53
tp54
Rp55
ag10
(g14
S'1H\xe68\xc1yF@'
p56
tp57
Rp58
ag10
(g14
S'\xe5& J9\xbbF@'
p59
tp60
Rp61
ag10
(g14
S':\x9c\xa4\xf4\xbd\xd8E@'
p62
tp63
Rp64
ag10
(g14
S'\x1eT7,G\xc6E@'
p65
tp66
Rp67
ag10
(g14
S'@\x81\x88\x15\\0F@'
p68
tp69
Rp70
ag10
(g14
S'Y\xd6\xaf\xd8b/F@'
p71
tp72
Rp73
ag10
(g14
S'\xa5\x89+@|\xdbE@'
p74
tp75
Rp76
asS'target'
p77
(lp78
g10
(g14
S'\xee\x7f1\x7fo>O@'
p79
tp80
Rp81
ag10
(g14
S'\xfa\xd46*\x8f3N@'
p82
tp83
Rp84
ag10
(g14
S'9\xee/\xf06\xabH@'
p85
tp86
Rp87
ag10
(g14
S'\x99M4pX\xd0W@'
p88
tp89
Rp90
ag10
(g14
S'\xa1$\x10\xd0Y\xa5Q@'
p91
tp92
Rp93
ag10
(g14
S'f+C\x92\x1b\xa6[@'
p94
tp95
Rp96
ag10
(g14
S'.\x8fD\xbf8\xf7R@'
p97
tp98
Rp99
ag10
(g14
S'K5\xbd\xdb<\x87L@'
p100
tp101
Rp102
ag10
(g14
S'\xf4\t\xd5\xe1W\x10R@'
p103
tp104
Rp105
ag10
(g14
S'\xdb{\xb18B[K@'
p106
tp107
Rp108
ag10
(g14
S'\xf7\xc8\t\x0c\xae\xb0P@'
p109
tp110
Rp111
ag10
(g14
S'\x7f\xefPV$\xfeR@'
p112
tp113
Rp114
ag10
(g14
S'u\x8e\x88\xab\x8e\x01O@'
p115
tp116
Rp117
ag10
(g14
S'v\xb9\x16\xca\x11\xf7H@'
p118
tp119
Rp120
ag10
(g14
S'\x00ORx\xbc\xe3Q@'
p121
tp122
Rp123
ag10
(g14
S'\xaeQ\xbaX\x0b\xe8Q@'
p124
tp125
Rp126
ag10
(g14
S'\xe24QFy\xc1K@'
p127
tp128
Rp129
ag10
(g14
S'\x16\x97\xca^\xb5lP@'
p130
tp131
Rp132
ag10
(g14
S'~\xc7\tb\x0e^S@'
p133
tp134
Rp135
ag10
(g14
S'\x144~\xa2\xd9\xd4W@'
p136
tp137
Rp138
asssss.