(dp0
S'../Data/sqlite_95.csv'
p1
(dp2
S'../Data/sqlite_65.csv'
p3
(dp4
F0.35
(dp5
S'abs_res'
p6
(dp7
S'bellwether'
p8
(lp9
cnumpy.core.multiarray
scalar
p10
(cnumpy
dtype
p11
(S'f8'
p12
I0
I1
tp13
Rp14
(I3
S'<'
p15
NNNI-1
I-1
I0
tp16
bS'\xe6\xa5\x9b\x04\xdbZ3A'
p17
tp18
Rp19
ag10
(g14
S'\xe0O\x8d\xf7`R3A'
p20
tp21
Rp22
ag10
(g14
S'\xc0\x9f\x1a\xcf\xfd43A'
p23
tp24
Rp25
ag10
(g14
S'F\xd2\x94\xea\xf2n3A'
p26
tp27
Rp28
ag10
(g14
S'>Q\xff&\xfa/3A'
p29
tp30
Rp31
ag10
(g14
S'a\xbaIL\xceP3A'
p32
tp33
Rp34
ag10
(g14
S'z\x86]\x01\xe1^3A'
p35
tp36
Rp37
ag10
(g14
S'o\xf6\xe1\x93\x89#3A'
p38
tp39
Rp40
ag10
(g14
S'+\xf9\xc52F\x9c3A'
p41
tp42
Rp43
ag10
(g14
S'\xf4\x8b%\x1fP\xf72A'
p44
tp45
Rp46
ag10
(g14
S'\x06\x8ePfU^3A'
p47
tp48
Rp49
ag10
(g14
S'\xbct\x93\xb8t*3A'
p50
tp51
Rp52
ag10
(g14
S'\xf9(\\\xcfa93A'
p53
tp54
Rp55
ag10
(g14
S'\xfd\x1b\xa1\xec\xcb\x173A'
p56
tp57
Rp58
ag10
(g14
S's\xcbZ]\x10=3A'
p59
tp60
Rp61
ag10
(g14
S'kJ\xc5Y113A'
p62
tp63
Rp64
ag10
(g14
S'\x8e4\xa5b\x1453A'
p65
tp66
Rp67
ag10
(g14
S'\xfbb\xc9\x8fsc3A'
p68
tp69
Rp70
ag10
(g14
S'\xe0B\xd24m@3A'
p71
tp72
Rp73
ag10
(g14
S'A|\x86]\xa9l3A'
p74
tp75
Rp76
asS'target'
p77
(lp78
g10
(g14
S'_9\xb4\xc8v\xb2T@'
p79
tp80
Rp81
ag10
(g14
S'T7\x89A`\xe5U@'
p82
tp83
Rp84
ag10
(g14
S'\xed&1\x08\xac\x1cT@'
p85
tp86
Rp87
ag10
(g14
S'#\xb0rh\x91\tU@'
p88
tp89
Rp90
ag10
(g14
S'R9\xb4\xc8vfU@'
p91
tp92
Rp93
ag10
(g14
S'\xdfO\x8d\x97n\xa2U@'
p94
tp95
Rp96
ag10
(g14
S'\xe8\xfb\xa9\xf1\xd2\x95S@'
p97
tp98
Rp99
ag10
(g14
S'\x8a\x16\xd9\xce\xf7sU@'
p100
tp101
Rp102
ag10
(g14
S'h\x10X9\xb4dU@'
p103
tp104
Rp105
ag10
(g14
S'=\n\xd7\xa3p\xc5S@'
p106
tp107
Rp108
ag10
(g14
S'"\xb0rh\x91)V@'
p109
tp110
Rp111
ag10
(g14
S'|\xe9&1\x08\xf4S@'
p112
tp113
Rp114
ag10
(g14
S'\x1c\xb0rh\x91\x85U@'
p115
tp116
Rp117
ag10
(g14
S'"Zd;\xdfKU@'
p118
tp119
Rp120
ag10
(g14
S'\xba\xc8v\xbe\x9f:V@'
p121
tp122
Rp123
ag10
(g14
S'\xb6\x9d\xef\xa7\xc6\x8bS@'
p124
tp125
Rp126
ag10
(g14
S'h\x10X9\xb4xT@'
p127
tp128
Rp129
ag10
(g14
S'G`\xe5\xd0"\xbbW@'
p130
tp131
Rp132
ag10
(g14
S'\x16X9\xb4\xc8fV@'
p133
tp134
Rp135
ag10
(g14
S'\x8f\xed|?5\x8eU@'
p136
tp137
Rp138
asssss.