(dp0
S'../Data/sqlite_35.csv'
p1
(dp2
S'../Data/sqlite_79.csv'
p3
(dp4
F0.15
(dp5
S'mmre'
p6
(dp7
S'bellwether'
p8
(lp9
cnumpy.core.multiarray
scalar
p10
(cnumpy
dtype
p11
(S'f8'
p12
I0
I1
tp13
Rp14
(I3
S'<'
p15
NNNI-1
I-1
I0
tp16
bS'\xa8\xba\xedW\x10`v@'
p17
tp18
Rp19
ag10
(g14
S'sa[E\xadzv@'
p20
tp21
Rp22
ag10
(g14
S'\xc0\xc57s\xdb^v@'
p23
tp24
Rp25
ag10
(g14
S'5\xfe\xe8X\x88mv@'
p26
tp27
Rp28
ag10
(g14
S'Sp\xe3L\x96~v@'
p29
tp30
Rp31
ag10
(g14
S'e\xf2%\xae\xb0ev@'
p32
tp33
Rp34
ag10
(g14
S'\xafQ\x87v\xe9rv@'
p35
tp36
Rp37
ag10
(g14
S'\xc9\x12\xc0o\xeeUv@'
p38
tp39
Rp40
ag10
(g14
S'\xe3\xa2\x9e<\x8bkv@'
p41
tp42
Rp43
ag10
(g14
S'bu8w\x19^v@'
p44
tp45
Rp46
ag10
(g14
S'\xe0\xe5\xa4\x08Yov@'
p47
tp48
Rp49
ag10
(g14
S'O`\xc5h\xb1tv@'
p50
tp51
Rp52
ag10
(g14
S'\xaf\xeb\x050ybv@'
p53
tp54
Rp55
ag10
(g14
S'\x93*H|\x83dv@'
p56
tp57
Rp58
ag10
(g14
S'm\xe7\x08\x0fj]v@'
p59
tp60
Rp61
ag10
(g14
S'\x1e\x15\xfd-[\x81v@'
p62
tp63
Rp64
ag10
(g14
S'\x9cs\xd7\xeb\xdbkv@'
p65
tp66
Rp67
ag10
(g14
S'\xcd\x92Qzobv@'
p68
tp69
Rp70
ag10
(g14
S'\t\x1d\xc4\x1b\xeeiv@'
p71
tp72
Rp73
ag10
(g14
S'\xe3\xb0^!=Zv@'
p74
tp75
Rp76
asS'target'
p77
(lp78
g10
(g14
S'\xect~\x93;"$@'
p79
tp80
Rp81
ag10
(g14
S'\xc3\xb2))\x07f$@'
p82
tp83
Rp84
ag10
(g14
S'\xf2yxgH\xfd$@'
p85
tp86
Rp87
ag10
(g14
S'\xfaJ7X\r\xc1\x1e@'
p88
tp89
Rp90
ag10
(g14
S'\x08\xa2}\\QM*@'
p91
tp92
Rp93
ag10
(g14
S'\x14Q\xfe\xb4$\x13\x1a@'
p94
tp95
Rp96
ag10
(g14
S'\x13Jm\x99\xcd\x0e,@'
p97
tp98
Rp99
ag10
(g14
S'u7\x07P(\xda @'
p100
tp101
Rp102
ag10
(g14
S'q v6\xfb\xe4!@'
p103
tp104
Rp105
ag10
(g14
S'\x9c\x10\x1eN\x07\x86\x19@'
p106
tp107
Rp108
ag10
(g14
S'\x1e1<2\x1e\x0c(@'
p109
tp110
Rp111
ag10
(g14
S'L\x1d\xdb"\xbd\xef#@'
p112
tp113
Rp114
ag10
(g14
S'\x8f%\xd8\xc3\xd2\xef @'
p115
tp116
Rp117
ag10
(g14
S'\xa7\xf2\x19=OR$@'
p118
tp119
Rp120
ag10
(g14
S'\xf16\xc7\xb3\x16(\x1f@'
p121
tp122
Rp123
ag10
(g14
S'OH\xe5\x9fsZ0@'
p124
tp125
Rp126
ag10
(g14
S'<_q\xb9\x80`\x1f@'
p127
tp128
Rp129
ag10
(g14
S"m\xe4~\xf6\xc4\xf2'@"
p130
tp131
Rp132
ag10
(g14
S'Cxt\xaf@y\x1f@'
p133
tp134
Rp135
ag10
(g14
S'\x1e\x13+\xf1\xbbY\x1e@'
p136
tp137
Rp138
asssss.