(dp0
S'../Data/sqlite_60.csv'
p1
(dp2
S'../Data/sqlite_35.csv'
p3
(dp4
F0.15
(dp5
S'abs_res'
p6
(dp7
S'bellwether'
p8
(lp9
cnumpy.core.multiarray
scalar
p10
(cnumpy
dtype
p11
(S'f8'
p12
I0
I1
tp13
Rp14
(I3
S'<'
p15
NNNI-1
I-1
I0
tp16
bS'\xaeG\xe1\xde\x867hA'
p17
tp18
Rp19
ag10
(g14
S'\xf0\x19v\x9d\x8d1hA'
p20
tp21
Rp22
ag10
(g14
S'.\xdd$Z(8hA'
p23
tp24
Rp25
ag10
(g14
S'\xb7\xd7\\\xa4X7hA'
p26
tp27
Rp28
ag10
(g14
S'\x0f\x83\xc0"\x15*hA'
p29
tp30
Rp31
ag10
(g14
S'_\x10X\xa9\x106hA'
p32
tp33
Rp34
ag10
(g14
S'Y9\xb4\x98./hA'
p35
tp36
Rp37
ag10
(g14
S'\xca\xbd\xe6"\xa09hA'
p38
tp39
Rp40
ag10
(g14
S'\x8b{\xcd\r\xc72hA'
p41
tp42
Rp43
ag10
(g14
S'\xf4\xd2M\x9e\xda3hA'
p44
tp45
Rp46
ag10
(g14
S'\xef\xa7\xc6\xe3Q6hA'
p47
tp48
Rp49
ag10
(g14
S'\x84\xcf\xb0\x03;"hA'
p50
tp51
Rp52
ag10
(g14
S'T9\xb4\x9c\xb5&hA'
p53
tp54
Rp55
ag10
(g14
S'/\x08\xac\xa4x5hA'
p56
tp57
Rp58
ag10
(g14
S'\xb3\xf3\xfd\\\xf3&hA'
p59
tp60
Rp61
ag10
(g14
S'o=\n+\xbc8hA'
p62
tp63
Rp64
ag10
(g14
S'$\\\x8f\x1e\x8e,hA'
p65
tp66
Rp67
ag10
(g14
S'\xd0\xa3p\xcd\x8f/hA'
p68
tp69
Rp70
ag10
(g14
S'\xbb\x1e\x85{\xa0"hA'
p71
tp72
Rp73
ag10
(g14
S'(@\xee\xf9\x82*hA'
p74
tp75
Rp76
asS'target'
p77
(lp78
g10
(g14
S'\x91\x18\x04V\x0eYa@'
p79
tp80
Rp81
ag10
(g14
S'b\x10X9\xb4La@'
p82
tp83
Rp84
ag10
(g14
S'T\x8d\x97n\x12\x9ba@'
p85
tp86
Rp87
ag10
(g14
S'qh\x91\xed|\x07c@'
p88
tp89
Rp90
ag10
(g14
S'\x18\xd9\xce\xf7S\xa9a@'
p91
tp92
Rp93
ag10
(g14
S'\xa0\xef\xa7\xc6KK`@'
p94
tp95
Rp96
ag10
(g14
S'\xf1|?5^R`@'
p97
tp98
Rp99
ag10
(g14
S')\xb2\x9d\xef\xa7\xb0a@'
p100
tp101
Rp102
ag10
(g14
S'\x03\x02+\x87\x16=`@'
p103
tp104
Rp105
ag10
(g14
S'Z\x8f\xc2\xf5(\xa0`@'
p106
tp107
Rp108
ag10
(g14
S'\r\x83\xc0\xca\xa1\xfb`@'
p109
tp110
Rp111
ag10
(g14
S'O\x0c\x02+\x876`@'
p112
tp113
Rp114
ag10
(g14
S'zj\xbct\x93\x8cb@'
p115
tp116
Rp117
ag10
(g14
S'6^\xbaI\x0cz`@'
p118
tp119
Rp120
ag10
(g14
S'\xf5(\\\x8f\xc2\x01a@'
p121
tp122
Rp123
ag10
(g14
S'\n-\xb2\x9d\xef__@'
p124
tp125
Rp126
ag10
(g14
S'r\x93\x18\x04V\xaa`@'
p127
tp128
Rp129
ag10
(g14
S'\xd8\xa3p=\nma@'
p130
tp131
Rp132
ag10
(g14
S'"Zd;\xdf\xb3`@'
p133
tp134
Rp135
ag10
(g14
S'\xa4E\xb6\xf3\xfd\xb2`@'
p136
tp137
Rp138
asssss.