(dp0
S'../Data/sqlite_37.csv'
p1
(dp2
S'../Data/sqlite_59.csv'
p3
(dp4
F0.1
(dp5
S'mmre'
p6
(dp7
S'bellwether'
p8
(lp9
cnumpy.core.multiarray
scalar
p10
(cnumpy
dtype
p11
(S'f8'
p12
I0
I1
tp13
Rp14
(I3
S'<'
p15
NNNI-1
I-1
I0
tp16
bS'IN\xe8\x1d\xbdUW@'
p17
tp18
Rp19
ag10
(g14
S'.\xdaR] UW@'
p20
tp21
Rp22
ag10
(g14
S'\xd0\x04\xa7\xde\x17UW@'
p23
tp24
Rp25
ag10
(g14
S'\xf2\x14\xfc\x0c#UW@'
p26
tp27
Rp28
ag10
(g14
S'\xa9\x1bVdvUW@'
p29
tp30
Rp31
ag10
(g14
S'>\x89i\xe5\xa9TW@'
p32
tp33
Rp34
ag10
(g14
S'\x87\x1e\xa5\x9b\x98UW@'
p35
tp36
Rp37
ag10
(g14
S'\xd5\xf7\xbfF1UW@'
p38
tp39
Rp40
ag10
(g14
S'h,\xaa\xa69TW@'
p41
tp42
Rp43
ag10
(g14
S'\xc4\xc8\x156\x0fUW@'
p44
tp45
Rp46
ag10
(g14
S"0>'\xbd\x9cUW@"
p47
tp48
Rp49
ag10
(g14
S'\x10O\xffQ\xb9UW@'
p50
tp51
Rp52
ag10
(g14
S'[W7\xdc\x19VW@'
p53
tp54
Rp55
ag10
(g14
S'\xc3gjY\xbfUW@'
p56
tp57
Rp58
ag10
(g14
S'\xb0\x81\xf3\x00\xb0UW@'
p59
tp60
Rp61
ag10
(g14
S'T\x16\x0e\xb2\x86UW@'
p62
tp63
Rp64
ag10
(g14
S'\xb5(w\x8a\x05VW@'
p65
tp66
Rp67
ag10
(g14
S'\xe5\xf9\xca\x88 UW@'
p68
tp69
Rp70
ag10
(g14
S'n\xd5\x10\x0e\xd6UW@'
p71
tp72
Rp73
ag10
(g14
S'\x97/>I\xffUW@'
p74
tp75
Rp76
asS'target'
p77
(lp78
g10
(g14
S"\xf7;\xbdn\xae\xd1'@"
p79
tp80
Rp81
ag10
(g14
S'^\xa1\x9et\xde\x81$@'
p82
tp83
Rp84
ag10
(g14
S'L-\xa1\xf9X\t)@'
p85
tp86
Rp87
ag10
(g14
S'W\x89\x88\x8b\xc9y%@'
p88
tp89
Rp90
ag10
(g14
S'/\xbf\xa5\xa4\x8e\xfa$@'
p91
tp92
Rp93
ag10
(g14
S'\xb3\xfe\x15\t\xa3\xba&@'
p94
tp95
Rp96
ag10
(g14
S'ib\xb0\x08\xcf?&@'
p97
tp98
Rp99
ag10
(g14
S'%I\\\xfdKg(@'
p100
tp101
Rp102
ag10
(g14
S'}#\xfc\x93[7*@'
p103
tp104
Rp105
ag10
(g14
S'&t\xff\xfe\x81\x1a&@'
p106
tp107
Rp108
ag10
(g14
S'V/X\xe5\x85X&@'
p109
tp110
Rp111
ag10
(g14
S'VB\xc96\r\x07%@'
p112
tp113
Rp114
ag10
(g14
S':\xc4\xb1a[o$@'
p115
tp116
Rp117
ag10
(g14
S")Q\xe0@\xed\xc5'@"
p118
tp119
Rp120
ag10
(g14
S'\x04\xf4N\xad\xc9*+@'
p121
tp122
Rp123
ag10
(g14
S']oG;S\xb8%@'
p124
tp125
Rp126
ag10
(g14
S'R:\x9dn)+%@'
p127
tp128
Rp129
ag10
(g14
S"\x98\x95D\xfb\xff\x17'@"
p130
tp131
Rp132
ag10
(g14
S"\x0b\x04Oo[\x12'@"
p133
tp134
Rp135
ag10
(g14
S'\xa7%e)G\x9f%@'
p136
tp137
Rp138
asssss.