(dp0
S'../Data/sqlite_8.csv'
p1
(dp2
S'../Data/sqlite_89.csv'
p3
(dp4
F0.05
(dp5
S'mmre'
p6
(dp7
S'bellwether'
p8
(lp9
cnumpy.core.multiarray
scalar
p10
(cnumpy
dtype
p11
(S'f8'
p12
I0
I1
tp13
Rp14
(I3
S'<'
p15
NNNI-1
I-1
I0
tp16
bS' \xc06\xe5\x82+R@'
p17
tp18
Rp19
ag10
(g14
S'\x14Z\x19\xd7D1R@'
p20
tp21
Rp22
ag10
(g14
S'$\xca\x82\x1c--R@'
p23
tp24
Rp25
ag10
(g14
S'kYZ\xeb\xd91R@'
p26
tp27
Rp28
ag10
(g14
S'U}\xcc\xbe\xa52R@'
p29
tp30
Rp31
ag10
(g14
S'7\x8a\xd9M\xa9.R@'
p32
tp33
Rp34
ag10
(g14
S'\x88Y\x14\xa0\xeb,R@'
p35
tp36
Rp37
ag10
(g14
S'to\xe1\xa0\xec+R@'
p38
tp39
Rp40
ag10
(g14
S'\x0cj\xa3Eh/R@'
p41
tp42
Rp43
ag10
(g14
S'w\xac3\x84E1R@'
p44
tp45
Rp46
ag10
(g14
S'\xf6\xe0\xc5m|*R@'
p47
tp48
Rp49
ag10
(g14
S'\x02\xbfp\x0f\x9f-R@'
p50
tp51
Rp52
ag10
(g14
S'\xb4+\xb9d\x16-R@'
p53
tp54
Rp55
ag10
(g14
S'Sg\x11\xc7\x92"R@'
p56
tp57
Rp58
ag10
(g14
S'X2Z\x99\x003R@'
p59
tp60
Rp61
ag10
(g14
S'\xe8a\x81\xd0")R@'
p62
tp63
Rp64
ag10
(g14
S'\xf5B\xe0\xbb|%R@'
p65
tp66
Rp67
ag10
(g14
S'dJ\xb7F\xc1+R@'
p68
tp69
Rp70
ag10
(g14
S'\xe9~V\x97\xc0/R@'
p71
tp72
Rp73
ag10
(g14
S'\x05\x97\x8b\x10D-R@'
p74
tp75
Rp76
asS'target'
p77
(lp78
g10
(g14
S'Y\xbav\xae\xbb/N@'
p79
tp80
Rp81
ag10
(g14
S'\xb8)\xa4\x9da\xc5R@'
p82
tp83
Rp84
ag10
(g14
S'\x0b}\x8a|A\x00W@'
p85
tp86
Rp87
ag10
(g14
S'zo[]k\xceR@'
p88
tp89
Rp90
ag10
(g14
S'\n\t\xdf\xdd\xeb\x06R@'
p91
tp92
Rp93
ag10
(g14
S'h\xa4\x8e\xb1\xfa\xfaV@'
p94
tp95
Rp96
ag10
(g14
S'7\x8d\xb8}\x03vP@'
p97
tp98
Rp99
ag10
(g14
S'[\x90\xb4\xeb\xa5\xe9P@'
p100
tp101
Rp102
ag10
(g14
S'K;\xf4O\xce\xe9H@'
p103
tp104
Rp105
ag10
(g14
S'J\xf4[E\xffVH@'
p106
tp107
Rp108
ag10
(g14
S'\x0f5\xbd\xb7M\xfba@'
p109
tp110
Rp111
ag10
(g14
S'\x88\x12\x966\xc8\x96N@'
p112
tp113
Rp114
ag10
(g14
S'\xea \xc3^\xe6\xd6O@'
p115
tp116
Rp117
ag10
(g14
S'\xf4F\x99\x19\xb1BU@'
p118
tp119
Rp120
ag10
(g14
S'\x00/39\xb8\x96F@'
p121
tp122
Rp123
ag10
(g14
S'\xd1\x85|\x08iM]@'
p124
tp125
Rp126
ag10
(g14
S'1-\xda\xc5\xe0\xa2X@'
p127
tp128
Rp129
ag10
(g14
S'Z\xad\xfc\xca<\xbdV@'
p130
tp131
Rp132
ag10
(g14
S'\xb8r\xfd:BwS@'
p133
tp134
Rp135
ag10
(g14
S'\xb4<\xad\xe3T\x87U@'
p136
tp137
Rp138
asssss.