(dp0
S'../Data/sqlite_33.csv'
p1
(dp2
S'../Data/sqlite_63.csv'
p3
(dp4
F0.2
(dp5
S'mmre'
p6
(dp7
S'bellwether'
p8
(lp9
cnumpy.core.multiarray
scalar
p10
(cnumpy
dtype
p11
(S'f8'
p12
I0
I1
tp13
Rp14
(I3
S'<'
p15
NNNI-1
I-1
I0
tp16
bS'\xccE\xaa\x15e\x0bR@'
p17
tp18
Rp19
ag10
(g14
S'T\x84\x87X\x92\x0bR@'
p20
tp21
Rp22
ag10
(g14
S'n\x077\x8b}\x0bR@'
p23
tp24
Rp25
ag10
(g14
S'\xd8.\xf30y\x0fR@'
p26
tp27
Rp28
ag10
(g14
S'`\xb5)!z\tR@'
p29
tp30
Rp31
ag10
(g14
S'1\xcb\xcczf\tR@'
p32
tp33
Rp34
ag10
(g14
S'\xf0J\x98z\xdf\x0eR@'
p35
tp36
Rp37
ag10
(g14
S'`C\xce\xfaP\x0bR@'
p38
tp39
Rp40
ag10
(g14
S'{AgPd\x0eR@'
p41
tp42
Rp43
ag10
(g14
S'\xf8\x07\x12w\xac\x0cR@'
p44
tp45
Rp46
ag10
(g14
S'\x9d\x85\xe1\x81m\tR@'
p47
tp48
Rp49
ag10
(g14
S't\xb8ww6\x0cR@'
p50
tp51
Rp52
ag10
(g14
S'\xb5R:\x9f}\x0cR@'
p53
tp54
Rp55
ag10
(g14
S'7\xe6\xcdlb\nR@'
p56
tp57
Rp58
ag10
(g14
S'\x07\xc3R\xa9U\x0cR@'
p59
tp60
Rp61
ag10
(g14
S'\x82U\x9dNk\x13R@'
p62
tp63
Rp64
ag10
(g14
S'uf\x15\x00\xf9\x0bR@'
p65
tp66
Rp67
ag10
(g14
S'!\xa1\xb9\xbf\xda\tR@'
p68
tp69
Rp70
ag10
(g14
S'\xdew\xc2\xd2\x86\x0bR@'
p71
tp72
Rp73
ag10
(g14
S'\x18-@\x90\x1e\rR@'
p74
tp75
Rp76
asS'target'
p77
(lp78
g10
(g14
S'%g:m\x1c\xaf"@'
p79
tp80
Rp81
ag10
(g14
S"\x9e'\xfa\xf3\xb2\x96#@"
p82
tp83
Rp84
ag10
(g14
S'I9\x13\x80\xc6L"@'
p85
tp86
Rp87
ag10
(g14
S'\x94/\xc9^`p"@'
p88
tp89
Rp90
ag10
(g14
S'k|\x87-\xdc\xc1"@'
p91
tp92
Rp93
ag10
(g14
S'c&8zG1#@'
p94
tp95
Rp96
ag10
(g14
S'J\x16}\x05\xe1\x16"@'
p97
tp98
Rp99
ag10
(g14
S'XV=7\xc7\xd1$@'
p100
tp101
Rp102
ag10
(g14
S'\xca7-\x8a\x83\xb1"@'
p103
tp104
Rp105
ag10
(g14
S'\xda\x9fLQ\x0e\xfa"@'
p106
tp107
Rp108
ag10
(g14
S'.M\xe2\xdf\xccj$@'
p109
tp110
Rp111
ag10
(g14
S'\x88U\x8c~\x05\xee"@'
p112
tp113
Rp114
ag10
(g14
S'\xac\xe8\xac\xf2\x15\x89"@'
p115
tp116
Rp117
ag10
(g14
S'\x84\x117\xcc\xf8\xac"@'
p118
tp119
Rp120
ag10
(g14
S'\x05\xa1[\xfcz\xb7!@'
p121
tp122
Rp123
ag10
(g14
S'\x80\xf8=\xf1\xc58"@'
p124
tp125
Rp126
ag10
(g14
S'\x84\xa13\x00\xedt!@'
p127
tp128
Rp129
ag10
(g14
S'&q\x03/\xf3v#@'
p130
tp131
Rp132
ag10
(g14
S'L\xc00\x7f\xa9:"@'
p133
tp134
Rp135
ag10
(g14
S'\xc6e\xd0\x8b\x88Q#@'
p136
tp137
Rp138
asssss.