(dp0
S'../Data/sqlite_29.csv'
p1
(dp2
S'../Data/sqlite_79.csv'
p3
(dp4
F0.3
(dp5
S'abs_res'
p6
(dp7
S'bellwether'
p8
(lp9
cnumpy.core.multiarray
scalar
p10
(cnumpy
dtype
p11
(S'f8'
p12
I0
I1
tp13
Rp14
(I3
S'<'
p15
NNNI-1
I-1
I0
tp16
bS'\x14g\x1f\xfe\xc0d?A'
p17
tp18
Rp19
ag10
(g14
S'\xddO\x8dW\x88f?A'
p20
tp21
Rp22
ag10
(g14
S'\xf6\n\x90\xfb\x10h?A'
p23
tp24
Rp25
ag10
(g14
S'\r\xd7\xa3P@f?A'
p26
tp27
Rp28
ag10
(g14
S'\xf1(\\/\x87f?A'
p29
tp30
Rp31
ag10
(g14
S'[\xc7\x04O/f?A'
p32
tp33
Rp34
ag10
(g14
S'1\x17\x92f4f?A'
p35
tp36
Rp37
ag10
(g14
S'O\xc5\xd9G\x07e?A'
p38
tp39
Rp40
ag10
(g14
S'\xb5-ku\xb1d?A'
p41
tp42
Rp43
ag10
(g14
S'5\x08\xac\xdc\td?A'
p44
tp45
Rp46
ag10
(g14
S'\xb3\xd51\xe1\x13f?A'
p47
tp48
Rp49
ag10
(g14
S'fs!\t\xe8e?A'
p50
tp51
Rp52
ag10
(g14
S'\xadI\x0c\xa2\x97f?A'
p53
tp54
Rp55
ag10
(g14
S'd;\xdf\xcfXc?A'
p56
tp57
Rp58
ag10
(g14
S'\xe5B\xd24Zd?A'
p59
tp60
Rp61
ag10
(g14
S'\x8dy\xa2~\xd8e?A'
p62
tp63
Rp64
ag10
(g14
S'0\x96\xfcB\x18e?A'
p65
tp66
Rp67
ag10
(g14
S'\xa9\x8e\t\xfeDf?A'
p68
tp69
Rp70
ag10
(g14
S'=\n\xd7\xc3Qe?A'
p71
tp72
Rp73
ag10
(g14
S'1\\\x8f\xa2re?A'
p74
tp75
Rp76
asS'target'
p77
(lp78
g10
(g14
S'\xae\x1cZd;[k@'
p79
tp80
Rp81
ag10
(g14
S'\xbaI\x0c\x02+\tq@'
p82
tp83
Rp84
ag10
(g14
S')\x89A`\xe5\x9en@'
p85
tp86
Rp87
ag10
(g14
S'\xb3t\x93\x18\x04\xaal@'
p88
tp89
Rp90
ag10
(g14
S'u\xe9&1\x08\x88u@'
p91
tp92
Rp93
ag10
(g14
S'\x98n\x12\x83\xc0\xa4s@'
p94
tp95
Rp96
ag10
(g14
S'\xd7\xa3p=\n\x01s@'
p97
tp98
Rp99
ag10
(g14
S'\xfeU\x0e-\xb2*q@'
p100
tp101
Rp102
ag10
(g14
S'$1\x08\xac\x1c\xa0p@'
p103
tp104
Rp105
ag10
(g14
S'\x04\x81\x95C\x8bZs@'
p106
tp107
Rp108
ag10
(g14
S'\xe2\xce\xf7S\xe3\xddp@'
p109
tp110
Rp111
ag10
(g14
S'{\x14\xaeG\xe1\x1fr@'
p112
tp113
Rp114
ag10
(g14
S'\x87\xebQ\xb8\x1eUq@'
p115
tp116
Rp117
ag10
(g14
S'Ud;\xdfO\x93p@'
p118
tp119
Rp120
ag10
(g14
S')\xb2\x9d\xef\xa7\xbbp@'
p121
tp122
Rp123
ag10
(g14
S'5\x89A`\xe5\xaep@'
p124
tp125
Rp126
ag10
(g14
S'\\\x10X9\xb4\x9en@'
p127
tp128
Rp129
ag10
(g14
S'\xf8~j\xbct\x00q@'
p130
tp131
Rp132
ag10
(g14
S'X9\xb4\xc8v\x8cr@'
p133
tp134
Rp135
ag10
(g14
S'\xec\xa7\xc6K7js@'
p136
tp137
Rp138
asssss.