(dp0
S'../Data/sqlite_79.csv'
p1
(dp2
S'../Data/sqlite_86.csv'
p3
(dp4
F0.35
(dp5
S'mmre'
p6
(dp7
S'bellwether'
p8
(lp9
cnumpy.core.multiarray
scalar
p10
(cnumpy
dtype
p11
(S'f8'
p12
I0
I1
tp13
Rp14
(I3
S'<'
p15
NNNI-1
I-1
I0
tp16
bS'\xf4\xffL\x98\xad\xb7B@'
p17
tp18
Rp19
ag10
(g14
S'!i\xd9O5<B@'
p20
tp21
Rp22
ag10
(g14
S'y\t%\xbdB`B@'
p23
tp24
Rp25
ag10
(g14
S' \x18\xf99?\x90B@'
p26
tp27
Rp28
ag10
(g14
S'}^\x1dI*\x16B@'
p29
tp30
Rp31
ag10
(g14
S'Z\x0b\x8c8\x0e?B@'
p32
tp33
Rp34
ag10
(g14
S'\x99\xa7@\xd6\xf5\xe7A@'
p35
tp36
Rp37
ag10
(g14
S'\xcck\xff\xfb".B@'
p38
tp39
Rp40
ag10
(g14
S'@aQ\xb0\xbanB@'
p41
tp42
Rp43
ag10
(g14
S'B \x03X\x0eTB@'
p44
tp45
Rp46
ag10
(g14
S'\xe6Y\xc4\xc4-\xd4A@'
p47
tp48
Rp49
ag10
(g14
S']\x9c\xb32[\xedA@'
p50
tp51
Rp52
ag10
(g14
S'\x05\x9c\x80Y\xc0\x9fB@'
p53
tp54
Rp55
ag10
(g14
S'A-R\x1c\xa1\x06B@'
p56
tp57
Rp58
ag10
(g14
S'|f\xbf\xde\xf7DB@'
p59
tp60
Rp61
ag10
(g14
S'8V\\\xa2"~B@'
p62
tp63
Rp64
ag10
(g14
S'V\xeb\x98H\x06`B@'
p65
tp66
Rp67
ag10
(g14
S'\xd4\n\xc4{A!B@'
p68
tp69
Rp70
ag10
(g14
S'\x8b0\xd3\xdb7\xdfB@'
p71
tp72
Rp73
ag10
(g14
S'\x05\xfb\xe3s\x81>B@'
p74
tp75
Rp76
asS'target'
p77
(lp78
g10
(g14
S'\x91\x8a\xa5\xbc\x9b K@'
p79
tp80
Rp81
ag10
(g14
S'/\x0c\xa8\x18\xa8\xa6R@'
p82
tp83
Rp84
ag10
(g14
S'\xab#\xfb\xdb$\xd7S@'
p85
tp86
Rp87
ag10
(g14
S'\x8ejq\xd7I\x8fI@'
p88
tp89
Rp90
ag10
(g14
S'm\xfeL\xa7@\xf7Q@'
p91
tp92
Rp93
ag10
(g14
S'N\x01\x84\xfa\x8b\x12O@'
p94
tp95
Rp96
ag10
(g14
S'\xab\x06@\xbcF\x81W@'
p97
tp98
Rp99
ag10
(g14
S'e\xf0\xe1\xa6\x9d\xe2P@'
p100
tp101
Rp102
ag10
(g14
S'\xd6\xa4\xd1R\x9eCR@'
p103
tp104
Rp105
ag10
(g14
S'\xc3\xbe\xabg\xe0\x8eP@'
p106
tp107
Rp108
ag10
(g14
S"'r\tZ\x05\xd8U@"
p109
tp110
Rp111
ag10
(g14
S']b\x1cI\x08$P@'
p112
tp113
Rp114
ag10
(g14
S'J\xa21a\x89\x81K@'
p115
tp116
Rp117
ag10
(g14
S'\xa0\x8a\rsQ\x0eS@'
p118
tp119
Rp120
ag10
(g14
S'\xbc>\xf7<A+M@'
p121
tp122
Rp123
ag10
(g14
S'\x85\xc7\xfenX+R@'
p124
tp125
Rp126
ag10
(g14
S'z\xd6yBT#O@'
p127
tp128
Rp129
ag10
(g14
S'b\x9a6\xccc\xe4U@'
p130
tp131
Rp132
ag10
(g14
S'@\x96\x0c\x1d\xa9\xbaL@'
p133
tp134
Rp135
ag10
(g14
S']Z,\xf8\xf2|S@'
p136
tp137
Rp138
asssss.