(dp0
S'../Data/sqlite_43.csv'
p1
(dp2
S'../Data/sqlite_35.csv'
p3
(dp4
F0.3
(dp5
S'abs_res'
p6
(dp7
S'bellwether'
p8
(lp9
cnumpy.core.multiarray
scalar
p10
(cnumpy
dtype
p11
(S'f8'
p12
I0
I1
tp13
Rp14
(I3
S'<'
p15
NNNI-1
I-1
I0
tp16
bS'\xcc\xbd\xe6\x02\xa6x:A'
p17
tp18
Rp19
ag10
(g14
S'\xfcS\xe3\xc5\x1bz:A'
p20
tp21
Rp22
ag10
(g14
S'G5^\x9a|z:A'
p23
tp24
Rp25
ag10
(g14
S'\xad8\xfb\x10@x:A'
p26
tp27
Rp28
ag10
(g14
S'\x97\xfa7B\x04x:A'
p29
tp30
Rp31
ag10
(g14
S'W7\x89\xa1(y:A'
p32
tp33
Rp34
ag10
(g14
S'\xed\xb4\x81.\xf9y:A'
p35
tp36
Rp37
ag10
(g14
S'+x0ooz:A'
p38
tp39
Rp40
ag10
(g14
S'\xbd\xbb\xbb{?y:A'
p41
tp42
Rp43
ag10
(g14
S'\xca\xbb\xbb\x9b\xf2y:A'
p44
tp45
Rp46
ag10
(g14
S'\xeeQ\xb8\x9e\xe1y:A'
p47
tp48
Rp49
ag10
(g14
S'HDDDcx:A'
p50
tp51
Rp52
ag10
(g14
S'.""\xc2\xcey:A'
p53
tp54
Rp55
ag10
(g14
S'P\x0c\x02\xeb\xebx:A'
p56
tp57
Rp58
ag10
(g14
S'\xa6\x1a/\x1d\xd9y:A'
p59
tp60
Rp61
ag10
(g14
S'\x85A`EEy:A'
p62
tp63
Rp64
ag10
(g14
S'\xd2>|\xc6\xe6x:A'
p65
tp66
Rp67
ag10
(g14
S'\xa4\xb5:&\xf2w:A'
p68
tp69
Rp70
ag10
(g14
S'\xd4\xa1E\x96\xb7y:A'
p71
tp72
Rp73
ag10
(g14
S'=z[\xb6,y:A'
p74
tp75
Rp76
asS'target'
p77
(lp78
g10
(g14
S'\xd8O\x8d\x97n\xe6[@'
p79
tp80
Rp81
ag10
(g14
S'*\\\x8f\xc2\xf5\xa8]@'
p82
tp83
Rp84
ag10
(g14
S')\xdb\xf9~j\\[@'
p85
tp86
Rp87
ag10
(g14
S'f\x12\x83\xc0\xca\xb9\\@'
p88
tp89
Rp90
ag10
(g14
S'\x9e\xc6K7\x89\xdd[@'
p91
tp92
Rp93
ag10
(g14
S'\xe6\xfb\xa9\xf1\xd2M[@'
p94
tp95
Rp96
ag10
(g14
S'95^\xbaI|\\@'
p97
tp98
Rp99
ag10
(g14
S'}\xc0\xca\xa1E\x1e\\@'
p100
tp101
Rp102
ag10
(g14
S'\xf7(\\\x8f\xc2\x85^@'
p103
tp104
Rp105
ag10
(g14
S'/\x89A`\xe5|\\@'
p106
tp107
Rp108
ag10
(g14
S'\xef\xa5\x9b\xc4 \x18[@'
p109
tp110
Rp111
ag10
(g14
S'\x02\x81\x95C\x8b\x08^@'
p112
tp113
Rp114
ag10
(g14
S'\xf9\xd4x\xe9&\xe9\\@'
p115
tp116
Rp117
ag10
(g14
S'R\xb8\x1e\x85\xeb\xb9[@'
p118
tp119
Rp120
ag10
(g14
S'N\x8bl\xe7\xfb\x91[@'
p121
tp122
Rp123
ag10
(g14
S'\x98C\x8bl\xe7\x83Z@'
p124
tp125
Rp126
ag10
(g14
S'\xe2\xd0"\xdb\xf9\xd2Y@'
p127
tp128
Rp129
ag10
(g14
S'\x9dE\xb6\xf3\xfd\xf4Z@'
p130
tp131
Rp132
ag10
(g14
S'\xe8|?5^B[@'
p133
tp134
Rp135
ag10
(g14
S'D\n\xd7\xa3p}\\@'
p136
tp137
Rp138
asssss.