(dp0
S'../Data/sqlite_35.csv'
p1
(dp2
S'../Data/sqlite_94.csv'
p3
(dp4
F0.05
(dp5
S'mmre'
p6
(dp7
S'bellwether'
p8
(lp9
cnumpy.core.multiarray
scalar
p10
(cnumpy
dtype
p11
(S'f8'
p12
I0
I1
tp13
Rp14
(I3
S'<'
p15
NNNI-1
I-1
I0
tp16
bS'\xcbz&1\x0b-X@'
p17
tp18
Rp19
ag10
(g14
S'\x93\xf8}\xcf\x0e-X@'
p20
tp21
Rp22
ag10
(g14
S'\xd6?jA\xb1,X@'
p23
tp24
Rp25
ag10
(g14
S'\x90qfEd-X@'
p26
tp27
Rp28
ag10
(g14
S'/\xd2\x9c0\xee,X@'
p29
tp30
Rp31
ag10
(g14
S'\xc2U\xa1!\xf4+X@'
p32
tp33
Rp34
ag10
(g14
S'\x0b\xa0\x80\xef\xa2-X@'
p35
tp36
Rp37
ag10
(g14
S'YQ\x02\x8c\x1f-X@'
p38
tp39
Rp40
ag10
(g14
S'\xd0P\xaf\xf0\xea,X@'
p41
tp42
Rp43
ag10
(g14
S'.\x96i\r\x93-X@'
p44
tp45
Rp46
ag10
(g14
S'\xad\x87\xab\xd1M,X@'
p47
tp48
Rp49
ag10
(g14
S'\xa2\x9f<&U,X@'
p50
tp51
Rp52
ag10
(g14
S'\xc7\x183Z\xe0,X@'
p53
tp54
Rp55
ag10
(g14
S'/fV\xcc?,X@'
p56
tp57
Rp58
ag10
(g14
S'\x19&m2\x82,X@'
p59
tp60
Rp61
ag10
(g14
S'^\x01\x8a8\xf7,X@'
p62
tp63
Rp64
ag10
(g14
S'\xa2\xd8\xc2\r\xd8,X@'
p65
tp66
Rp67
ag10
(g14
S'\x0f\xcf\xce\xc8\x7f,X@'
p68
tp69
Rp70
ag10
(g14
S"\xa4'A_7-X@"
p71
tp72
Rp73
ag10
(g14
S'\x12=\xea\rN,X@'
p74
tp75
Rp76
asS'target'
p77
(lp78
g10
(g14
S']zOL?\x91M@'
p79
tp80
Rp81
ag10
(g14
S'\x19\x89\x9a\x19\x81~@@'
p82
tp83
Rp84
ag10
(g14
S'>\xd4\x87\xcd^\xc0W@'
p85
tp86
Rp87
ag10
(g14
S'\xce\xb2W\x90\xd8<Q@'
p88
tp89
Rp90
ag10
(g14
S'E\xa9\x8e\x00t\xd5T@'
p91
tp92
Rp93
ag10
(g14
S'{;b3y\xf9X@'
p94
tp95
Rp96
ag10
(g14
S'\x99\xbca,X\xdbB@'
p97
tp98
Rp99
ag10
(g14
S'>\x13\xbc"\xde\x1aS@'
p100
tp101
Rp102
ag10
(g14
S'\xe1\xfa\xbae\x9b\x1eG@'
p103
tp104
Rp105
ag10
(g14
S';tI\x87g\xa0B@'
p106
tp107
Rp108
ag10
(g14
S'B\xe7s\x94A{T@'
p109
tp110
Rp111
ag10
(g14
S'\xb6\xab1\x97\xe8\xdaW@'
p112
tp113
Rp114
ag10
(g14
S'\xdd\xee\xad\xcd\xc5\xb1T@'
p115
tp116
Rp117
ag10
(g14
S'\xcd\xfc\xaf\x05\x80\x92V@'
p118
tp119
Rp120
ag10
(g14
S'\xdd\xf7\xbfx~LX@'
p121
tp122
Rp123
ag10
(g14
S'\xaf \xb9\x82\xf0\xd4E@'
p124
tp125
Rp126
ag10
(g14
S'\xc0_\x07\xc6\xe4\xac^@'
p127
tp128
Rp129
ag10
(g14
S'4\xa8<N\x06\xd9Y@'
p130
tp131
Rp132
ag10
(g14
S'\xc9\x9dG-J\xc8@@'
p133
tp134
Rp135
ag10
(g14
S'\x0e\x88\x0b\xae\x03\x10Y@'
p136
tp137
Rp138
asssss.