(dp0
S'../Data/sqlite_23.csv'
p1
(dp2
S'../Data/sqlite_63.csv'
p3
(dp4
F0.2
(dp5
S'mmre'
p6
(dp7
S'bellwether'
p8
(lp9
cnumpy.core.multiarray
scalar
p10
(cnumpy
dtype
p11
(S'f8'
p12
I0
I1
tp13
Rp14
(I3
S'<'
p15
NNNI-1
I-1
I0
tp16
bS'\x1d\xc86a\xbdoW@'
p17
tp18
Rp19
ag10
(g14
S'\xea;FtipW@'
p20
tp21
Rp22
ag10
(g14
S'\x80\x03\xd66`oW@'
p23
tp24
Rp25
ag10
(g14
S'4\xa0\xb4\x8cToW@'
p26
tp27
Rp28
ag10
(g14
S'y\xa8\xca7xoW@'
p29
tp30
Rp31
ag10
(g14
S'\x05\x8c\\C%pW@'
p32
tp33
Rp34
ag10
(g14
S'O7\x13\xfaWpW@'
p35
tp36
Rp37
ag10
(g14
S'\xfcC\x1dI\xc6oW@'
p38
tp39
Rp40
ag10
(g14
S'\xd6B+\xbawoW@'
p41
tp42
Rp43
ag10
(g14
S'\xc2>\x8dJfoW@'
p44
tp45
Rp46
ag10
(g14
S'a\xf4\xac\x89\xd6oW@'
p47
tp48
Rp49
ag10
(g14
S'\xc0#X\xd3poW@'
p50
tp51
Rp52
ag10
(g14
S'n\xbe\xc0%\x87oW@'
p53
tp54
Rp55
ag10
(g14
S'|\x87\x03\xae\xdbpW@'
p56
tp57
Rp58
ag10
(g14
S'>9\x1e\xe6\x8epW@'
p59
tp60
Rp61
ag10
(g14
S'\x0c\x06i\x1e\xffnW@'
p62
tp63
Rp64
ag10
(g14
S'\xd0\xb8\xf1\xd3\x13oW@'
p65
tp66
Rp67
ag10
(g14
S'\xc6jEu\xc1oW@'
p68
tp69
Rp70
ag10
(g14
S'^m\xb9"\x91oW@'
p71
tp72
Rp73
ag10
(g14
S'\x96\x04\x9b\xa0\xd9oW@'
p74
tp75
Rp76
asS'target'
p77
(lp78
g10
(g14
S'\xb4\xc0,\x9e\xa15#@'
p79
tp80
Rp81
ag10
(g14
S'\x8a[\xa2\x9b\x1cH!@'
p82
tp83
Rp84
ag10
(g14
S'\x8aO\x9a\xfbi\xe9!@'
p85
tp86
Rp87
ag10
(g14
S'5\xd3\xa3\xc8\xdbG"@'
p88
tp89
Rp90
ag10
(g14
S'@\x8e\xff\xf0\xf2\xff!@'
p91
tp92
Rp93
ag10
(g14
S'x\xafQC\x1cm"@'
p94
tp95
Rp96
ag10
(g14
S'\xc7\x06,\x9b\xab^#@'
p97
tp98
Rp99
ag10
(g14
S'=\xea\x87\x00#\x1d#@'
p100
tp101
Rp102
ag10
(g14
S'b\x1f<hq?"@'
p103
tp104
Rp105
ag10
(g14
S'\xf8[;U\xe6\xf8#@'
p106
tp107
Rp108
ag10
(g14
S'\x06\xc9\x8a\x01\x1f\x16"@'
p109
tp110
Rp111
ag10
(g14
S'\x1c\xf5e\xfd\xe2\xf5"@'
p112
tp113
Rp114
ag10
(g14
S'\xfe\xc0\xc6&u\x17#@'
p115
tp116
Rp117
ag10
(g14
S'(\xb8\x94\xb1\x1ao"@'
p118
tp119
Rp120
ag10
(g14
S'X\x04#\x065K#@'
p121
tp122
Rp123
ag10
(g14
S'\xbcF\re{9"@'
p124
tp125
Rp126
ag10
(g14
S'iJ\xcb\xc0 \xf9!@'
p127
tp128
Rp129
ag10
(g14
S'\xe3\xeb\xa7\xab\x19\xfa"@'
p130
tp131
Rp132
ag10
(g14
S'\xdf\x1b\xb3:\x7f\xdd#@'
p133
tp134
Rp135
ag10
(g14
S'\x8a&\xc9\x05=\xc2"@'
p136
tp137
Rp138
asssss.