(dp0
S'../Data/sqlite_9.csv'
p1
(dp2
S'../Data/sqlite_93.csv'
p3
(dp4
F0.35
(dp5
S'mmre'
p6
(dp7
S'bellwether'
p8
(lp9
cnumpy.core.multiarray
scalar
p10
(cnumpy
dtype
p11
(S'f8'
p12
I0
I1
tp13
Rp14
(I3
S'<'
p15
NNNI-1
I-1
I0
tp16
bS'G\x14E\xf1>J6@'
p17
tp18
Rp19
ag10
(g14
S"\xe7.\x15)'\x056@"
p20
tp21
Rp22
ag10
(g14
S'I\xb8\xf0e\xad\xd15@'
p23
tp24
Rp25
ag10
(g14
S'G\x14\x156\xff85@'
p26
tp27
Rp28
ag10
(g14
S'\x92\xd71+\xdb\xaf5@'
p29
tp30
Rp31
ag10
(g14
S'J%\xf3D\x04%7@'
p32
tp33
Rp34
ag10
(g14
S'% \x9ec5\x076@'
p35
tp36
Rp37
ag10
(g14
S'*Z\x99\x8c\x99j5@'
p38
tp39
Rp40
ag10
(g14
S'\xdel+\xa4C\x9b5@'
p41
tp42
Rp43
ag10
(g14
S'\xeb=K=Q\x854@'
p44
tp45
Rp46
ag10
(g14
S'\xcf\x95z\x8e\x83\xf36@'
p47
tp48
Rp49
ag10
(g14
S'\xf0\xd3O\x87\x95@6@'
p50
tp51
Rp52
ag10
(g14
S'\x93\xf5q\x83L|5@'
p53
tp54
Rp55
ag10
(g14
S'\x06J\xa2;\x04Y6@'
p56
tp57
Rp58
ag10
(g14
S'\x81\x1b\x9cC\xe6\xd25@'
p59
tp60
Rp61
ag10
(g14
S'\xafNggPK5@'
p62
tp63
Rp64
ag10
(g14
S'\xb1\x86Q\xf1\x8d\xe84@'
p65
tp66
Rp67
ag10
(g14
S'\x99\x9b\xae~\xf0P5@'
p68
tp69
Rp70
ag10
(g14
S'F\xf8O\x0c\x07k5@'
p71
tp72
Rp73
ag10
(g14
S'_\x0f6\xbbq\xea5@'
p74
tp75
Rp76
asS'target'
p77
(lp78
g10
(g14
S'\x0e5\xfeu\xd7\xc5T@'
p79
tp80
Rp81
ag10
(g14
S'\x07\x9f\xb7\x0b\x99#U@'
p82
tp83
Rp84
ag10
(g14
S'<\xdb\x08\x9fNaQ@'
p85
tp86
Rp87
ag10
(g14
S'\xc6%]\xcb^\x16R@'
p88
tp89
Rp90
ag10
(g14
S'\x82]\xf5\xcd\xd9\xc1K@'
p91
tp92
Rp93
ag10
(g14
S'*x\xaf\x1b6\x06I@'
p94
tp95
Rp96
ag10
(g14
S'U\xfbt6\x8f\xc9J@'
p97
tp98
Rp99
ag10
(g14
S'5\xbc\xf8\xcc\xee}S@'
p100
tp101
Rp102
ag10
(g14
S'\xa7\x7f5J\xab\xbcP@'
p103
tp104
Rp105
ag10
(g14
S'\x16N@\xf3 \xb5R@'
p106
tp107
Rp108
ag10
(g14
S'C)\xc7|\x8b\xcdG@'
p109
tp110
Rp111
ag10
(g14
S'\x97\xfe\xfc=\xcf%V@'
p112
tp113
Rp114
ag10
(g14
S'.d\xfa\xd3$\xf0U@'
p115
tp116
Rp117
ag10
(g14
S'`A;\xc3xl[@'
p118
tp119
Rp120
ag10
(g14
S'U.T\xb46 Q@'
p121
tp122
Rp123
ag10
(g14
S'+$\xd5\x1a`TQ@'
p124
tp125
Rp126
ag10
(g14
S'\x94\r\xe9 \xbbQV@'
p127
tp128
Rp129
ag10
(g14
S'=\xf2\x8bM\x87\xf5W@'
p130
tp131
Rp132
ag10
(g14
S'\x80-\xd6\xcb\x89=T@'
p133
tp134
Rp135
ag10
(g14
S')\xed\xc7\x1b\xa8SY@'
p136
tp137
Rp138
asssss.