(dp0
S'../Data/sqlite_92.csv'
p1
(dp2
S'../Data/sqlite_96.csv'
p3
(dp4
F0.15
(dp5
S'mmre'
p6
(dp7
S'bellwether'
p8
(lp9
cnumpy.core.multiarray
scalar
p10
(cnumpy
dtype
p11
(S'f8'
p12
I0
I1
tp13
Rp14
(I3
S'<'
p15
NNNI-1
I-1
I0
tp16
bS'\x9fBZ\x93z0V@'
p17
tp18
Rp19
ag10
(g14
S'5\x99,(63V@'
p20
tp21
Rp22
ag10
(g14
S'\xcd#\xca?k3V@'
p23
tp24
Rp25
ag10
(g14
S'\xbe3@\xac8/V@'
p26
tp27
Rp28
ag10
(g14
S'Gk\x85\xffL2V@'
p29
tp30
Rp31
ag10
(g14
S'CEl\x1a\xa92V@'
p32
tp33
Rp34
ag10
(g14
S'\xfb\xa0 M\x013V@'
p35
tp36
Rp37
ag10
(g14
S'\x8f\xebh\x8bg3V@'
p38
tp39
Rp40
ag10
(g14
S'\xd7\xf9Uu\xf21V@'
p41
tp42
Rp43
ag10
(g14
S'\xd5i"\xba\t0V@'
p44
tp45
Rp46
ag10
(g14
S'\xdbcn\xdb\xad1V@'
p47
tp48
Rp49
ag10
(g14
S' \xd3\x17\xa8S4V@'
p50
tp51
Rp52
ag10
(g14
S'X\x83u_\xde0V@'
p53
tp54
Rp55
ag10
(g14
S'jC\xf4\xae\x153V@'
p56
tp57
Rp58
ag10
(g14
S'~\xbe\xd2/\xae3V@'
p59
tp60
Rp61
ag10
(g14
S'\xde\xff\xa8\xae.3V@'
p62
tp63
Rp64
ag10
(g14
S'V\x9f\x04n\x972V@'
p65
tp66
Rp67
ag10
(g14
S'\x8a\x05DA02V@'
p68
tp69
Rp70
ag10
(g14
S'\x19\xf1\x10f\x9f4V@'
p71
tp72
Rp73
ag10
(g14
S'\x11\x99\xa0\xc6s4V@'
p74
tp75
Rp76
asS'target'
p77
(lp78
g10
(g14
S'#\x80[\xc3\xaf\xa2Z@'
p79
tp80
Rp81
ag10
(g14
S'(\xcd\xcf\x90\xa8 ^@'
p82
tp83
Rp84
ag10
(g14
S'\x83W!\xc9j\xd5L@'
p85
tp86
Rp87
ag10
(g14
S'\xa9\x8d,\x92\xe2US@'
p88
tp89
Rp90
ag10
(g14
S' \xc2<\x98n\xe7P@'
p91
tp92
Rp93
ag10
(g14
S'\xb3\xc7\x14\x97\x8b\xf1T@'
p94
tp95
Rp96
ag10
(g14
S'7J\xd7\xe7\r\x94A@'
p97
tp98
Rp99
ag10
(g14
S'\x9a9MCj\x10S@'
p100
tp101
Rp102
ag10
(g14
S'\xa9\xc8\xcf\x08K\x1dd@'
p103
tp104
Rp105
ag10
(g14
S'3H\xb1\xd3\xa8\xb3P@'
p106
tp107
Rp108
ag10
(g14
S'\xc33\xba\xe3l\xb4Q@'
p109
tp110
Rp111
ag10
(g14
S'h\\>\x081\xd0G@'
p112
tp113
Rp114
ag10
(g14
S'\x8e\xe0\x89\x08,d\\@'
p115
tp116
Rp117
ag10
(g14
S'(\xa0\xc0M\xffHQ@'
p118
tp119
Rp120
ag10
(g14
S'RO\x9f\xe7\xfb\xcd[@'
p121
tp122
Rp123
ag10
(g14
S'\xd3\x80\xaePhtV@'
p124
tp125
Rp126
ag10
(g14
S'\xe0\xb9e\x97\x97\x7fM@'
p127
tp128
Rp129
ag10
(g14
S'\x9d\x98\x00\n\xf4\xac?@'
p130
tp131
Rp132
ag10
(g14
S'\x12\x01\xa4\xb3\x98\xa5M@'
p133
tp134
Rp135
ag10
(g14
S'\xa2\x11\x85\x92BoP@'
p136
tp137
Rp138
asssss.