(dp0
S'../Data/sqlite_9.csv'
p1
(dp2
S'../Data/sqlite_54.csv'
p3
(dp4
F0.2
(dp5
S'mmre'
p6
(dp7
S'bellwether'
p8
(lp9
cnumpy.core.multiarray
scalar
p10
(cnumpy
dtype
p11
(S'f8'
p12
I0
I1
tp13
Rp14
(I3
S'<'
p15
NNNI-1
I-1
I0
tp16
bS'\xa8\x06\xdc\xf6h\tX@'
p17
tp18
Rp19
ag10
(g14
S'\xab|\xab~\x0c\tX@'
p20
tp21
Rp22
ag10
(g14
S'\xa5&I4s\tX@'
p23
tp24
Rp25
ag10
(g14
S'\xa8\xf3\xf6\x9bS\tX@'
p26
tp27
Rp28
ag10
(g14
S'\xb0\xc2ypG\tX@'
p29
tp30
Rp31
ag10
(g14
S'\x99Lx\xbe/\tX@'
p32
tp33
Rp34
ag10
(g14
S'\xa6\xed\xce\x0bI\tX@'
p35
tp36
Rp37
ag10
(g14
S'\x8bdIF#\tX@'
p38
tp39
Rp40
ag10
(g14
S'iBT{C\tX@'
p41
tp42
Rp43
ag10
(g14
S'\xe6v\x96\xc9?\tX@'
p44
tp45
Rp46
ag10
(g14
S'\xa6\xcb~\xb5l\tX@'
p47
tp48
Rp49
ag10
(g14
S'\xe0E\xf7#4\tX@'
p50
tp51
Rp52
ag10
(g14
S'd\xa2M\x1d`\tX@'
p53
tp54
Rp55
ag10
(g14
S'\xf4\x99\xb68p\tX@'
p56
tp57
Rp58
ag10
(g14
S'b\xbd\xeb\rJ\tX@'
p59
tp60
Rp61
ag10
(g14
S'\x83k\xa7&\xf7\x08X@'
p62
tp63
Rp64
ag10
(g14
S'\r\xa9tKb\tX@'
p65
tp66
Rp67
ag10
(g14
S'\x14\xd5%\xd0W\tX@'
p68
tp69
Rp70
ag10
(g14
S'\xce\xe6\x05\x04\t\tX@'
p71
tp72
Rp73
ag10
(g14
S'+\xad\xaeL@\tX@'
p74
tp75
Rp76
asS'target'
p77
(lp78
g10
(g14
S'om\x07E+\x85\x01@'
p79
tp80
Rp81
ag10
(g14
S'`9\xdb\x04\x0e\x84\x04@'
p82
tp83
Rp84
ag10
(g14
S'\x08\\Ty9\xc8\xfd?'
p85
tp86
Rp87
ag10
(g14
S'B\xbc) \xe3e\x02@'
p88
tp89
Rp90
ag10
(g14
S'\x0cw\x88VFT\x00@'
p91
tp92
Rp93
ag10
(g14
S'T\x95C\x0b,g\x03@'
p94
tp95
Rp96
ag10
(g14
S'Ih\x15\x05\xaa7\x07@'
p97
tp98
Rp99
ag10
(g14
S'\xb2\x936\xde\xe4\x02\x05@'
p100
tp101
Rp102
ag10
(g14
S'<b\np\xa4V\x01@'
p103
tp104
Rp105
ag10
(g14
S':\x9ew^EZ\x05@'
p106
tp107
Rp108
ag10
(g14
S'N\xeeZ6\x05m\x04@'
p109
tp110
Rp111
ag10
(g14
S'\xbc`I\xf8\x1e\xdc\x08@'
p112
tp113
Rp114
ag10
(g14
S'.\x889Q\xe8]\x06@'
p115
tp116
Rp117
ag10
(g14
S'~\xde\x81\xb5f\xe9\xff?'
p118
tp119
Rp120
ag10
(g14
S'\x884`\x9b\x0c0\xff?'
p121
tp122
Rp123
ag10
(g14
S';=\xb7\x8c\xb8\xaa\x0f@'
p124
tp125
Rp126
ag10
(g14
S'\xfaL\x99#\xcb\xa9\x00@'
p127
tp128
Rp129
ag10
(g14
S'pq\x08\x90\x11\x8e\x00@'
p130
tp131
Rp132
ag10
(g14
S'\x9f\xb8"\xb8\xaeo\x06@'
p133
tp134
Rp135
ag10
(g14
S'\xed\xd9Z]\x1a\xf4\x03@'
p136
tp137
Rp138
asssss.