(dp0
S'../Data/sqlite_43.csv'
p1
(dp2
S'../Data/sqlite_28.csv'
p3
(dp4
F0.25
(dp5
S'abs_res'
p6
(dp7
S'bellwether'
p8
(lp9
cnumpy.core.multiarray
scalar
p10
(cnumpy
dtype
p11
(S'f8'
p12
I0
I1
tp13
Rp14
(I3
S'<'
p15
NNNI-1
I-1
I0
tp16
bS'\xf1\x19v\xa56r<A'
p17
tp18
Rp19
ag10
(g14
S'\x18Zd\xbb:r<A'
p20
tp21
Rp22
ag10
(g14
S'yh\x91m\xc4r<A'
p23
tp24
Rp25
ag10
(g14
S's\xbe\x9f\xba\x10r<A'
p26
tp27
Rp28
ag10
(g14
S'\x08\xac\x1c\x1a\xbaq<A'
p29
tp30
Rp31
ag10
(g14
S'\x17v\x05\x08\x7fr<A'
p32
tp33
Rp34
ag10
(g14
S'f\x12\x83@Qs<A'
p35
tp36
Rp37
ag10
(g14
S'\x0b\xf5od\xa0q<A'
p38
tp39
Rp40
ag10
(g14
S':\n\xd7#\x1cq<A'
p41
tp42
Rp43
ag10
(g14
S'\xe3\xdf\x08\xe5(q<A'
p44
tp45
Rp46
ag10
(g14
S'\xb9\xf5(\xfc\tr<A'
p47
tp48
Rp49
ag10
(g14
S'\x99p=*@r<A'
p50
tp51
Rp52
ag10
(g14
S'j\xbct3Tq<A'
p53
tp54
Rp55
ag10
(g14
S'\xf4\xc5\x92?\xeep<A'
p56
tp57
Rp58
ag10
(g14
S'\x8a\t\x1e\x0cbq<A'
p59
tp60
Rp61
ag10
(g14
S'f.$-Aq<A'
p62
tp63
Rp64
ag10
(g14
S'\x17v\x05\x88\x04r<A'
p65
tp66
Rp67
ag10
(g14
S'hY\xab\xa3\xe9q<A'
p68
tp69
Rp70
ag10
(g14
S'H(\xa3\xd7\xd5p<A'
p71
tp72
Rp73
ag10
(g14
S'\x9c\x0bIs\xceq<A'
p74
tp75
Rp76
asS'target'
p77
(lp78
g10
(g14
S'c;\xdfO\x8dW_@'
p79
tp80
Rp81
ag10
(g14
S'x\xbe\x9f\x1a/\xe9a@'
p82
tp83
Rp84
ag10
(g14
S'\xcb\x9f\x1a/\xdd\xa4^@'
p85
tp86
Rp87
ag10
(g14
S'\x86\xebQ\xb8\x1ee_@'
p88
tp89
Rp90
ag10
(g14
S'\xc1\xca\xa1E\xb6\x97]@'
p91
tp92
Rp93
ag10
(g14
S'\xfc\xff\xff\xff\xff\xdf_@'
p94
tp95
Rp96
ag10
(g14
S'g;\xdfO\x8dW_@'
p97
tp98
Rp99
ag10
(g14
S'\xa3\x1a/\xdd$\xf6\\@'
p100
tp101
Rp102
ag10
(g14
S'\x84\xc0\xca\xa1E\x02a@'
p103
tp104
Rp105
ag10
(g14
S'I\xe1z\x14\xaeG`@'
p106
tp107
Rp108
ag10
(g14
S'1\xdd$\x06\x81-`@'
p109
tp110
Rp111
ag10
(g14
S'\xc9K7\x89A\\`@'
p112
tp113
Rp114
ag10
(g14
S'O\x8d\x97n\x12\x9b`@'
p115
tp116
Rp117
ag10
(g14
S'\xff~j\xbct\xcb\\@'
p118
tp119
Rp120
ag10
(g14
S'"\x06\x81\x95C\xdf_@'
p121
tp122
Rp123
ag10
(g14
S'Y\xe5\xd0"\xdbS`@'
p124
tp125
Rp126
ag10
(g14
S'\xd0Mb\x10X;a@'
p127
tp128
Rp129
ag10
(g14
S'Lb\x10X9x`@'
p130
tp131
Rp132
ag10
(g14
S'\x99n\x12\x83\xc0\x10`@'
p133
tp134
Rp135
ag10
(g14
S'\xa5p=\n\xd7I`@'
p136
tp137
Rp138
asssss.