(dp0
S'../Data/sqlite_32.csv'
p1
(dp2
S'../Data/sqlite_56.csv'
p3
(dp4
F0.25
(dp5
S'abs_res'
p6
(dp7
S'bellwether'
p8
(lp9
cnumpy.core.multiarray
scalar
p10
(cnumpy
dtype
p11
(S'f8'
p12
I0
I1
tp13
Rp14
(I3
S'<'
p15
NNNI-1
I-1
I0
tp16
bS'\x81\x95C\x9b\xa7<AA'
p17
tp18
Rp19
ag10
(g14
S'\xc0I\x0c\xd2&@AA'
p20
tp21
Rp22
ag10
(g14
S'*\\\x8f\xe2\xda>AA'
p23
tp24
Rp25
ag10
(g14
S'\xcf\xa1E\xb6 @AA'
p26
tp27
Rp28
ag10
(g14
S'\xc8v\xbeo?=AA'
p29
tp30
Rp31
ag10
(g14
S'\xb4\xc8v\x9e\xeb<AA'
p32
tp33
Rp34
ag10
(g14
S'S9\xb4x\xea<AA'
p35
tp36
Rp37
ag10
(g14
S'\x0f\x02+7\xbd=AA'
p38
tp39
Rp40
ag10
(g14
S'\xa8\xc6K\x87\xe8<AA'
p41
tp42
Rp43
ag10
(g14
S'?\x8blwP?AA'
p44
tp45
Rp46
ag10
(g14
S'\xb9I\x0c\xe2\x8a?AA'
p47
tp48
Rp49
ag10
(g14
S'\x90\xed|\xcfi?AA'
p50
tp51
Rp52
ag10
(g14
S'\x81\x95C{\xa3?AA'
p53
tp54
Rp55
ag10
(g14
S"C\x8bl'\x83=AA"
p56
tp57
Rp58
ag10
(g14
S'\xc4K7\xe9\x15>AA'
p59
tp60
Rp61
ag10
(g14
S'\xe8|?U\x1aAAA'
p62
tp63
Rp64
ag10
(g14
S'2\x08\xac\x1c\x90?AA'
p65
tp66
Rp67
ag10
(g14
S'\x16/\xdddV?AA'
p68
tp69
Rp70
ag10
(g14
S'\x89\xebQ8\xae=AA'
p71
tp72
Rp73
ag10
(g14
S'M\x0c\x02\xbb#<AA'
p74
tp75
Rp76
asS'target'
p77
(lp78
g10
(g14
S'\xd5O\x8d\x97n\x8e^@'
p79
tp80
Rp81
ag10
(g14
S'\xb5\x9d\xef\xa7\xc6\xa3\\@'
p82
tp83
Rp84
ag10
(g14
S'H\xb8\x1e\x85\xebM[@'
p85
tp86
Rp87
ag10
(g14
S'\xb1rh\x91\xedt]@'
p88
tp89
Rp90
ag10
(g14
S'\x18\x06\x81\x95C\xdf]@'
p91
tp92
Rp93
ag10
(g14
S'L\x8d\x97n\x12\xe7[@'
p94
tp95
Rp96
ag10
(g14
S'\xa6rh\x91\xed\xd4\\@'
p97
tp98
Rp99
ag10
(g14
S'\xfb*\x87\x16\xd9\x9e]@'
p100
tp101
Rp102
ag10
(g14
S'\xe7&1\x08\xac\xcc^@'
p103
tp104
Rp105
ag10
(g14
S'\xaa\xf1\xd2Mb\x10\\@'
p106
tp107
Rp108
ag10
(g14
S"X;\xdfO\x8d'\\@"
p109
tp110
Rp111
ag10
(g14
S'\xa5G\xe1z\x14\x96\\@'
p112
tp113
Rp114
ag10
(g14
S's\xbe\x9f\x1a/\xb5[@'
p115
tp116
Rp117
ag10
(g14
S'F`\xe5\xd0"{]@'
p118
tp119
Rp120
ag10
(g14
S'\x12X9\xb4\xc8&^@'
p121
tp122
Rp123
ag10
(g14
S'\x88A`\xe5\xd0\x12]@'
p124
tp125
Rp126
ag10
(g14
S'Z\xbct\x93\x18\xf4^@'
p127
tp128
Rp129
ag10
(g14
S'\xd4"\xdb\xf9~z_@'
p130
tp131
Rp132
ag10
(g14
S'\x1a\xd9\xce\xf7S\x1b\\@'
p133
tp134
Rp135
ag10
(g14
S'Ud;\xdfOu^@'
p136
tp137
Rp138
asssss.