(dp0
S'../Data/sqlite_57.csv'
p1
(dp2
S'../Data/sqlite_2.csv'
p3
(dp4
F0.3
(dp5
S'abs_res'
p6
(dp7
S'bellwether'
p8
(lp9
cnumpy.core.multiarray
scalar
p10
(cnumpy
dtype
p11
(S'f8'
p12
I0
I1
tp13
Rp14
(I3
S'<'
p15
NNNI-1
I-1
I0
tp16
bS'Q\xe3\xa5\x0f&ndA'
p17
tp18
Rp19
ag10
(g14
S'@`\xe5\xe0CgdA'
p20
tp21
Rp22
ag10
(g14
S'\xb8\xf5(\xf8pVdA'
p23
tp24
Rp25
ag10
(g14
S'\xfeS\xe3Y\xfdldA'
p26
tp27
Rp28
ag10
(g14
S'\x03V\x0e=\x9bYdA'
p29
tp30
Rp31
ag10
(g14
S'\x1d\x04V\x86\xffYdA'
p32
tp33
Rp34
ag10
(g14
S'\x93n\x12c\xe7adA'
p35
tp36
Rp37
ag10
(g14
S'f\x91\xed\xd8\xeb\\dA'
p38
tp39
Rp40
ag10
(g14
S'\\\x8f\xc2\x11\x86_dA'
p41
tp42
Rp43
ag10
(g14
S'.\x08\xacT\x84idA'
p44
tp45
Rp46
ag10
(g14
S'}\x14\xae\xeb\xaf^dA'
p47
tp48
Rp49
ag10
(g14
S'\xf8|?\xa9\xe0UdA'
p50
tp51
Rp52
ag10
(g14
S'\xc3K7\xad\xc3cdA'
p53
tp54
Rp55
ag10
(g14
S'\xd5\xf7S?1VdA'
p56
tp57
Rp58
ag10
(g14
S'k=\n\x8b\xd2\\dA'
p59
tp60
Rp61
ag10
(g14
S'\xc1 \xb06*\\dA'
p62
tp63
Rp64
ag10
(g14
S'\xb1G\xe1FgldA'
p65
tp66
Rp67
ag10
(g14
S';\xdfO\xb1eddA'
p68
tp69
Rp70
ag10
(g14
S'\x8eC\x8b\xb8+\\dA'
p71
tp72
Rp73
ag10
(g14
S'\xacG\xe1\n\xb0UdA'
p74
tp75
Rp76
asS'target'
p77
(lp78
g10
(g14
S'_\xe5\xd0"\xdb\xc9K@'
p79
tp80
Rp81
ag10
(g14
S'\x01T\xe3\xa5\x9b\xf4K@'
p82
tp83
Rp84
ag10
(g14
S'\xab\xc6K7\x89\x8dP@'
p85
tp86
Rp87
ag10
(g14
S'8\x89A`\xe5\x10M@'
p88
tp89
Rp90
ag10
(g14
S'W9\xb4\xc8vNJ@'
p91
tp92
Rp93
ag10
(g14
S'{?5^\xbaiP@'
p94
tp95
Rp96
ag10
(g14
S'i\x12\x83\xc0\xcaiN@'
p97
tp98
Rp99
ag10
(g14
S'x\x93\x18\x04V\x9eL@'
p100
tp101
Rp102
ag10
(g14
S'\xdcMb\x10X\xc9P@'
p103
tp104
Rp105
ag10
(g14
S'Xd;\xdfO\xc5M@'
p106
tp107
Rp108
ag10
(g14
S'\xc7\xa1E\xb6\xf3\x9dL@'
p109
tp110
Rp111
ag10
(g14
S'\xcfv\xbe\x9f\x1a\x9fN@'
p112
tp113
Rp114
ag10
(g14
S'\x12\x02+\x87\x16\x91K@'
p115
tp116
Rp117
ag10
(g14
S'\xc4\xca\xa1E\xb6\xcbM@'
p118
tp119
Rp120
ag10
(g14
S'23333\xebL@'
p121
tp122
Rp123
ag10
(g14
S'Z\xbaI\x0c\x02#N@'
p124
tp125
Rp126
ag10
(g14
S"#Zd;\xdf'Q@"
p127
tp128
Rp129
ag10
(g14
S'\x92\x97n\x12\x83(P@'
p130
tp131
Rp132
ag10
(g14
S'@5^\xbaI\x0cJ@'
p133
tp134
Rp135
ag10
(g14
S'\x17/\xdd$\x06iR@'
p136
tp137
Rp138
asssss.