(dp0
S'../Data/sqlite_69.csv'
p1
(dp2
S'../Data/sqlite_95.csv'
p3
(dp4
F0.2
(dp5
S'mmre'
p6
(dp7
S'bellwether'
p8
(lp9
cnumpy.core.multiarray
scalar
p10
(cnumpy
dtype
p11
(S'f8'
p12
I0
I1
tp13
Rp14
(I3
S'<'
p15
NNNI-1
I-1
I0
tp16
bS'\xf2+\x8c\xae\x8b&W@'
p17
tp18
Rp19
ag10
(g14
S'\x19s\xe6\x8ao)W@'
p20
tp21
Rp22
ag10
(g14
S'B\xca\xf2\xb1\x0b(W@'
p23
tp24
Rp25
ag10
(g14
S'\xb8\xe2\xfe.\x92/W@'
p26
tp27
Rp28
ag10
(g14
S'\x8e\xbf\xa7=\xa2,W@'
p29
tp30
Rp31
ag10
(g14
S'\x02\x17\x05\x94\xf22W@'
p32
tp33
Rp34
ag10
(g14
S'gs)\xc4\xa3&W@'
p35
tp36
Rp37
ag10
(g14
S's\xd2\x1b\xfe<*W@'
p38
tp39
Rp40
ag10
(g14
S'\x14\xd4\x1b\x13\x0f(W@'
p41
tp42
Rp43
ag10
(g14
S'\x80w)\x8e\xf0#W@'
p44
tp45
Rp46
ag10
(g14
S'\x91nO\x17g)W@'
p47
tp48
Rp49
ag10
(g14
S'\xc2g\x1b8@&W@'
p50
tp51
Rp52
ag10
(g14
S'\x8du\x00}\xe9)W@'
p53
tp54
Rp55
ag10
(g14
S'\xa4 .C\x16*W@'
p56
tp57
Rp58
ag10
(g14
S"\x9e\x9d&\x1d\x9a'W@"
p59
tp60
Rp61
ag10
(g14
S"\x96\xff{i\x82'W@"
p62
tp63
Rp64
ag10
(g14
S'\t\xdc\x853{-W@'
p65
tp66
Rp67
ag10
(g14
S'=\x19\xb3s>,W@'
p68
tp69
Rp70
ag10
(g14
S'\xbc \x10\xcc\xb5&W@'
p71
tp72
Rp73
ag10
(g14
S"T\xb0|cp'W@"
p74
tp75
Rp76
asS'target'
p77
(lp78
g10
(g14
S'L2\xe03X\x13B@'
p79
tp80
Rp81
ag10
(g14
S'nk\x93 \xf3\xe6C@'
p82
tp83
Rp84
ag10
(g14
S'S\x1c\x1dx\xa1~;@'
p85
tp86
Rp87
ag10
(g14
S'\xbax\xcd;\x85;D@'
p88
tp89
Rp90
ag10
(g14
S'Pd\xab\xa5\x9fvA@'
p91
tp92
Rp93
ag10
(g14
S'-\x9e\xd4d\x18\xca=@'
p94
tp95
Rp96
ag10
(g14
S't\x9d\x91\xc5\xd99C@'
p97
tp98
Rp99
ag10
(g14
S'\x81\xbc\xabPI\x02?@'
p100
tp101
Rp102
ag10
(g14
S'\xd3h\xeba-\x84C@'
p103
tp104
Rp105
ag10
(g14
S'J\xbcY9\xaa\xd6?@'
p106
tp107
Rp108
ag10
(g14
S'\xd2\xc9\xb4G\x0c\xabA@'
p109
tp110
Rp111
ag10
(g14
S'\xa4\x7f=l\xa4/A@'
p112
tp113
Rp114
ag10
(g14
S'\x10\xbb4=\xe9LE@'
p115
tp116
Rp117
ag10
(g14
S'I\x1c\xbcL\x19\x0b?@'
p118
tp119
Rp120
ag10
(g14
S'\x80\x06\xc4`W\x89?@'
p121
tp122
Rp123
ag10
(g14
S':L0m\x0c\xd5A@'
p124
tp125
Rp126
ag10
(g14
S'\x9e\xa0\xf6g^\xfc<@'
p127
tp128
Rp129
ag10
(g14
S'V\x0c\xd7D\xd0\xc9@@'
p130
tp131
Rp132
ag10
(g14
S'0LnN\xe1\x88A@'
p133
tp134
Rp135
ag10
(g14
S'\xd8\xec\xe5L\xd5\xcc@@'
p136
tp137
Rp138
asssss.