(dp0
S'../Data/sqlite_86.csv'
p1
(dp2
S'../Data/sqlite_63.csv'
p3
(dp4
F0.3
(dp5
S'mmre'
p6
(dp7
S'bellwether'
p8
(lp9
cnumpy.core.multiarray
scalar
p10
(cnumpy
dtype
p11
(S'f8'
p12
I0
I1
tp13
Rp14
(I3
S'<'
p15
NNNI-1
I-1
I0
tp16
bS'5\x1a\x95\xa4\xc0jT@'
p17
tp18
Rp19
ag10
(g14
S'\x93\xf7\x92^\xc3_T@'
p20
tp21
Rp22
ag10
(g14
S'\x942\x17%tYT@'
p23
tp24
Rp25
ag10
(g14
S'C\xf4\xda\x0e\xd0kT@'
p26
tp27
Rp28
ag10
(g14
S'b\xc7o\xaa\x9cPT@'
p29
tp30
Rp31
ag10
(g14
S'@\xd2\xb6\xe9\xcefT@'
p32
tp33
Rp34
ag10
(g14
S'\xd7\x92\xa1\x0b\x9cGT@'
p35
tp36
Rp37
ag10
(g14
S'Cf+\x8f\x8e\x80T@'
p38
tp39
Rp40
ag10
(g14
S'\x8eY7\x14KuT@'
p41
tp42
Rp43
ag10
(g14
S'+\xf2\xa47KVT@'
p44
tp45
Rp46
ag10
(g14
S'P\xb4J\xe3\xcfuT@'
p47
tp48
Rp49
ag10
(g14
S'/9\xe7l\xfb\x8cT@'
p50
tp51
Rp52
ag10
(g14
S'"f\xceu\x0cjT@'
p53
tp54
Rp55
ag10
(g14
S'\xb8\x154\xc5\x9c\\T@'
p56
tp57
Rp58
ag10
(g14
S'\xbf\x01\xeej\xdfRT@'
p59
tp60
Rp61
ag10
(g14
S'\x85sd\x8c\xfbVT@'
p62
tp63
Rp64
ag10
(g14
S'\x9cMmeA^T@'
p65
tp66
Rp67
ag10
(g14
S'\xd9k?O\xc7gT@'
p68
tp69
Rp70
ag10
(g14
S'\xe7\xf6\xd4FRhT@'
p71
tp72
Rp73
ag10
(g14
S'Pm\xb0\xba\x13cT@'
p74
tp75
Rp76
asS'target'
p77
(lp78
g10
(g14
S't\xc5\xe2\x86$+#@'
p79
tp80
Rp81
ag10
(g14
S' \x1bm60\xc6"@'
p82
tp83
Rp84
ag10
(g14
S'\xf5(Wx\xc7H#@'
p85
tp86
Rp87
ag10
(g14
S'\x03Ez0~{#@'
p88
tp89
Rp90
ag10
(g14
S'\xd7\xd3\x06\xe5<+"@'
p91
tp92
Rp93
ag10
(g14
S'\x92\x0e\xc7\xd7\xec\x7f"@'
p94
tp95
Rp96
ag10
(g14
S"\x05\x1a['\xfe<#@"
p97
tp98
Rp99
ag10
(g14
S'\xce\xa7\x90\xe8\x10\xc7!@'
p100
tp101
Rp102
ag10
(g14
S'\xbc"eAbr"@'
p103
tp104
Rp105
ag10
(g14
S'\x08M\r\xb9\x87H"@'
p106
tp107
Rp108
ag10
(g14
S'k\x80u\x08\xae~"@'
p109
tp110
Rp111
ag10
(g14
S'*\xf7\xa2A-\x19#@'
p112
tp113
Rp114
ag10
(g14
S'\x16\xa89/\x0f["@'
p115
tp116
Rp117
ag10
(g14
S'\x0e\x0cr\xe0t+"@'
p118
tp119
Rp120
ag10
(g14
S'\x0fW\xd0\x99\xb9\xf9!@'
p121
tp122
Rp123
ag10
(g14
S'\x89\xaf\x124x\xf2#@'
p124
tp125
Rp126
ag10
(g14
S'm@;NE\xed"@'
p127
tp128
Rp129
ag10
(g14
S'\xba\x99\x08\xcaZ\x91"@'
p130
tp131
Rp132
ag10
(g14
S'\x17\x19\xef\xda\xfb\x91"@'
p133
tp134
Rp135
ag10
(g14
S'\x8dKH?\xa3\xff#@'
p136
tp137
Rp138
asssss.