(dp0
S'../Data/sqlite_46.csv'
p1
(dp2
S'../Data/sqlite_48.csv'
p3
(dp4
F0.05
(dp5
S'abs_res'
p6
(dp7
S'bellwether'
p8
(lp9
cnumpy.core.multiarray
scalar
p10
(cnumpy
dtype
p11
(S'f8'
p12
I0
I1
tp13
Rp14
(I3
S'<'
p15
NNNI-1
I-1
I0
tp16
bS'\xcc\xa1E\x16DCBA'
p17
tp18
Rp19
ag10
(g14
S'\xd5\xa3p\x9dCCBA'
p20
tp21
Rp22
ag10
(g14
S'\x19\xd9\xce7WCBA'
p23
tp24
Rp25
ag10
(g14
S'\x9d\x1a/}gCBA'
p26
tp27
Rp28
ag10
(g14
S'\xf7\xfd\xd4\x08<CBA'
p29
tp30
Rp31
ag10
(g14
S'a;\xdf\xcf[CBA'
p32
tp33
Rp34
ag10
(g14
S'w=\n7ECBA'
p35
tp36
Rp37
ag10
(g14
S'/\xdd$\x96\xcbBBA'
p38
tp39
Rp40
ag10
(g14
S'\xda"\xdb9\x8aCBA'
p41
tp42
Rp43
ag10
(g14
S'h\x91\xed|\x07CBA'
p44
tp45
Rp46
ag10
(g14
S'\x11\xaeGQ\xa9CBA'
p47
tp48
Rp49
ag10
(g14
S'\xe0\xf9~\xaa+CBA'
p50
tp51
Rp52
ag10
(g14
S'\x8c\xed|\x0fBCBA'
p53
tp54
Rp55
ag10
(g14
S'\x87\xebQ\xb8QCBA'
p56
tp57
Rp58
ag10
(g14
S'\xd0\xa1E\xd6\x81CBA'
p59
tp60
Rp61
ag10
(g14
S'\x83\x16\xd9\xee*CBA'
p62
tp63
Rp64
ag10
(g14
S'\x83l\xe7\x0bbCBA'
p65
tp66
Rp67
ag10
(g14
S'\xaaE\xb63<CBA'
p68
tp69
Rp70
ag10
(g14
S'\x9c\xef\xa7\xf6\x14CBA'
p71
tp72
Rp73
ag10
(g14
S'\x8dA`\x95)CBA'
p74
tp75
Rp76
asS'target'
p77
(lp78
g10
(g14
S'\x10\xd9\xce\xf7S\tu@'
p79
tp80
Rp81
ag10
(g14
S'\xbeI\x0c\x02+\xc3u@'
p82
tp83
Rp84
ag10
(g14
S'\x83\x95C\x8blEt@'
p85
tp86
Rp87
ag10
(g14
S'23333\x1fv@'
p88
tp89
Rp90
ag10
(g14
S'\xaaG\xe1z\x14\xc0t@'
p91
tp92
Rp93
ag10
(g14
S'\xa2E\xb6\xf3\xfd\x16t@'
p94
tp95
Rp96
ag10
(g14
S'\x18\x04V\x0e-\x08u@'
p97
tp98
Rp99
ag10
(g14
S'\xaa\xc4 \xb0rhw@'
p100
tp101
Rp102
ag10
(g14
S'\xdfO\x8d\x97n\nv@'
p103
tp104
Rp105
ag10
(g14
S'\x9dp=\n\xd7It@'
p106
tp107
Rp108
ag10
(g14
S'3^\xbaI\x0c\x02x@'
p109
tp110
Rp111
ag10
(g14
S'\x9e\x1a/\xdd$\xe6t@'
p112
tp113
Rp114
ag10
(g14
S'\xbe\xca\xa1E\xb6\xc7t@'
p115
tp116
Rp117
ag10
(g14
S'\xc3 \xb0rhu{@'
p118
tp119
Rp120
ag10
(g14
S'\x10-\xb2\x9d\xef/t@'
p121
tp122
Rp123
ag10
(g14
S'\xa5p=\n\xd7\xfau@'
p124
tp125
Rp126
ag10
(g14
S'\xf8\xd4x\xe9&1x@'
p127
tp128
Rp129
ag10
(g14
S'\xc1\xf5(\\\x8f\xb0u@'
p130
tp131
Rp132
ag10
(g14
S'm\x12\x83\xc0\xcaDw@'
p133
tp134
Rp135
ag10
(g14
S']\xbaI\x0c\x02\x85t@'
p136
tp137
Rp138
asssss.