(dp0
S'../Data/sqlite_14.csv'
p1
(dp2
S'../Data/sqlite_97.csv'
p3
(dp4
F0.1
(dp5
S'mmre'
p6
(dp7
S'bellwether'
p8
(lp9
cnumpy.core.multiarray
scalar
p10
(cnumpy
dtype
p11
(S'f8'
p12
I0
I1
tp13
Rp14
(I3
S'<'
p15
NNNI-1
I-1
I0
tp16
bS'\xa3\xd1\xb1\x9a\x81)U@'
p17
tp18
Rp19
ag10
(g14
S'S\xb1\x98\x10t1U@'
p20
tp21
Rp22
ag10
(g14
S'\xab\xcb\xa0V\xcd4U@'
p23
tp24
Rp25
ag10
(g14
S'\x97\xaf@L\xd8/U@'
p26
tp27
Rp28
ag10
(g14
S'\xda\xb0\xe3\xf9#.U@'
p29
tp30
Rp31
ag10
(g14
S'F\x97{\xd4\xf7/U@'
p32
tp33
Rp34
ag10
(g14
S'\xa3\x01#w\x0b3U@'
p35
tp36
Rp37
ag10
(g14
S'^zM\xf0(,U@'
p38
tp39
Rp40
ag10
(g14
S'\x0c\x88\xa3\xb3\xb53U@'
p41
tp42
Rp43
ag10
(g14
S'\x9d1\x83\xf8\xc2*U@'
p44
tp45
Rp46
ag10
(g14
S'\xd6\xc7\xb9\xea,3U@'
p47
tp48
Rp49
ag10
(g14
S'\xf8\xf6.\x8bo3U@'
p50
tp51
Rp52
ag10
(g14
S'|\x9a7v\xd9-U@'
p53
tp54
Rp55
ag10
(g14
S'\xe0\x14\x01t\x815U@'
p56
tp57
Rp58
ag10
(g14
S'\xe3\xc2\xca\x821/U@'
p59
tp60
Rp61
ag10
(g14
S'_%\xee5p4U@'
p62
tp63
Rp64
ag10
(g14
S's\x1bz!j4U@'
p65
tp66
Rp67
ag10
(g14
S'\x1arC\xff\xc32U@'
p68
tp69
Rp70
ag10
(g14
S'\xd6b\x02\xe7\xcc2U@'
p71
tp72
Rp73
ag10
(g14
S'\xd8\x1b-th1U@'
p74
tp75
Rp76
asS'target'
p77
(lp78
g10
(g14
S'R`\x81\xab\xd2\xb2]@'
p79
tp80
Rp81
ag10
(g14
S'\x97\xd4\xd0\xbe\x8d\xbbF@'
p82
tp83
Rp84
ag10
(g14
S'\x15\xa8_\xdc\x95\xa9O@'
p85
tp86
Rp87
ag10
(g14
S'@\xa0\xc6\xb7\xf4\xf9P@'
p88
tp89
Rp90
ag10
(g14
S':kwo\xc8\xa0d@'
p91
tp92
Rp93
ag10
(g14
S'\tY\x8cX\x0e"V@'
p94
tp95
Rp96
ag10
(g14
S'j\x0c\x97$\x81\xcdU@'
p97
tp98
Rp99
ag10
(g14
S'\x07\xcf\xd8\xc8GqE@'
p100
tp101
Rp102
ag10
(g14
S'\xec:\x96\xf0\x7f\xacL@'
p103
tp104
Rp105
ag10
(g14
S'^ph)d\xc8O@'
p106
tp107
Rp108
ag10
(g14
S'\xd6}\xdf\xd3FbY@'
p109
tp110
Rp111
ag10
(g14
S'\xa3rA&S\\U@'
p112
tp113
Rp114
ag10
(g14
S'\x1bG\x97y\xc69c@'
p115
tp116
Rp117
ag10
(g14
S'<\xc8`E,}[@'
p118
tp119
Rp120
ag10
(g14
S'W\xc4\x19}[\xcfV@'
p121
tp122
Rp123
ag10
(g14
S'G\x9d\x85YS\x0fT@'
p124
tp125
Rp126
ag10
(g14
S'A\\V\xc5\xa1NZ@'
p127
tp128
Rp129
ag10
(g14
S'\x98\x03\nRv\x81W@'
p130
tp131
Rp132
ag10
(g14
S'r\x9cE\xc6-\xd3Z@'
p133
tp134
Rp135
ag10
(g14
S'\x13\xe3N\x95\xc1\xddY@'
p136
tp137
Rp138
asssss.