(dp0
S'../Data/sqlite_90.csv'
p1
(dp2
S'../Data/sqlite_88.csv'
p3
(dp4
F0.05
(dp5
S'mmre'
p6
(dp7
S'bellwether'
p8
(lp9
cnumpy.core.multiarray
scalar
p10
(cnumpy
dtype
p11
(S'f8'
p12
I0
I1
tp13
Rp14
(I3
S'<'
p15
NNNI-1
I-1
I0
tp16
bS'<\x9e\xe7\x14\x1duX@'
p17
tp18
Rp19
ag10
(g14
S'\xf3gs\xc0\xdcrX@'
p20
tp21
Rp22
ag10
(g14
S'\xe0% &\x01sX@'
p23
tp24
Rp25
ag10
(g14
S'\xd5P\xa7\xce\xb2rX@'
p26
tp27
Rp28
ag10
(g14
S'3e\xf6\x9c1qX@'
p29
tp30
Rp31
ag10
(g14
S'\xaf\x0cM\xa0\xb1uX@'
p32
tp33
Rp34
ag10
(g14
S'\xfb\x85\x8b\xb7\xc9sX@'
p35
tp36
Rp37
ag10
(g14
S'c*I\xed\xf4rX@'
p38
tp39
Rp40
ag10
(g14
S')\xde\xb0E\x1buX@'
p41
tp42
Rp43
ag10
(g14
S'\xfe\xa9\xc2ZnqX@'
p44
tp45
Rp46
ag10
(g14
S'bf*!PrX@'
p47
tp48
Rp49
ag10
(g14
S'\x00\xd4%]gqX@'
p50
tp51
Rp52
ag10
(g14
S'C\xdb\xf5c9sX@'
p53
tp54
Rp55
ag10
(g14
S'v\xd1\xbca#sX@'
p56
tp57
Rp58
ag10
(g14
S'\xe8\x04\x06\xc49sX@'
p59
tp60
Rp61
ag10
(g14
S'<\x19\xe4_lqX@'
p62
tp63
Rp64
ag10
(g14
S',\x97:\xdfrtX@'
p65
tp66
Rp67
ag10
(g14
S'g/}yjtX@'
p68
tp69
Rp70
ag10
(g14
S'\x07\xc1\xa3\xb2\xeerX@'
p71
tp72
Rp73
ag10
(g14
S'\xdd\x82W\x85msX@'
p74
tp75
Rp76
asS'target'
p77
(lp78
g10
(g14
S'\xde\xb3\x89\xfc\x11\rL@'
p79
tp80
Rp81
ag10
(g14
S'\xf1h\xa2\xad\xcd\xb6L@'
p82
tp83
Rp84
ag10
(g14
S'z\xe3\x93A\x13\x98H@'
p85
tp86
Rp87
ag10
(g14
S'\x0f\x1c\xe8P\x13bL@'
p88
tp89
Rp90
ag10
(g14
S'\xca\xc3T\xff\xf88K@'
p91
tp92
Rp93
ag10
(g14
S'\x19\x0b \xad \xfdH@'
p94
tp95
Rp96
ag10
(g14
S'p\xa2\x83{>dI@'
p97
tp98
Rp99
ag10
(g14
S'\xad\x99\xbd?\xa9\xb8J@'
p100
tp101
Rp102
ag10
(g14
S'\xd0\x88ws\xb2(L@'
p103
tp104
Rp105
ag10
(g14
S'n\xf9,\xabd-K@'
p106
tp107
Rp108
ag10
(g14
S')j\x9e\xc0\xb9\x15K@'
p109
tp110
Rp111
ag10
(g14
S'\x05k\xeb\x96w\x9eO@'
p112
tp113
Rp114
ag10
(g14
S'&F\xf1\xcf^\x07L@'
p115
tp116
Rp117
ag10
(g14
S'B\x95\xb7\x01$\x16P@'
p118
tp119
Rp120
ag10
(g14
S'9w\x17\xd2\xc1GI@'
p121
tp122
Rp123
ag10
(g14
S's\x84N\xebdkK@'
p124
tp125
Rp126
ag10
(g14
S'\x8f3\x8c\x8c\xc6\x8eL@'
p127
tp128
Rp129
ag10
(g14
S'\xb2\xff|\xfe\xa1\xd3J@'
p130
tp131
Rp132
ag10
(g14
S'\xdb\xd5\xdd\xb9\x16yJ@'
p133
tp134
Rp135
ag10
(g14
S'\xe7l\xa6g\x12NQ@'
p136
tp137
Rp138
asssss.