(dp0
S'../Data/sqlite_59.csv'
p1
(dp2
S'../Data/sqlite_91.csv'
p3
(dp4
F0.25
(dp5
S'mmre'
p6
(dp7
S'bellwether'
p8
(lp9
cnumpy.core.multiarray
scalar
p10
(cnumpy
dtype
p11
(S'f8'
p12
I0
I1
tp13
Rp14
(I3
S'<'
p15
NNNI-1
I-1
I0
tp16
bS"\x98'\xea\xcc nW@"
p17
tp18
Rp19
ag10
(g14
S'"\x9c\xb7m\xd1xW@'
p20
tp21
Rp22
ag10
(g14
S'kY\\%\xc4\x8eW@'
p23
tp24
Rp25
ag10
(g14
S'=j5,\x84\x96W@'
p26
tp27
Rp28
ag10
(g14
S'B\xad\xc8\xc0\x13\x84W@'
p29
tp30
Rp31
ag10
(g14
S'\x04F\xfb{\ruW@'
p32
tp33
Rp34
ag10
(g14
S'\x953\r\x00>~W@'
p35
tp36
Rp37
ag10
(g14
S'\x94\xf8c4\x15}W@'
p38
tp39
Rp40
ag10
(g14
S'\x91E\x11\xac6\x8cW@'
p41
tp42
Rp43
ag10
(g14
S'\xc0\x0ec\xb6\xfahW@'
p44
tp45
Rp46
ag10
(g14
S'\xb3\xa1~hy\x81W@'
p47
tp48
Rp49
ag10
(g14
S'a\xe81\xafk\x86W@'
p50
tp51
Rp52
ag10
(g14
S'+\xac\x08k\x9bwW@'
p53
tp54
Rp55
ag10
(g14
S'\xd30\x9c\xa9\x1fjW@'
p56
tp57
Rp58
ag10
(g14
S'\x10\xae}junW@'
p59
tp60
Rp61
ag10
(g14
S'.}\xa1\x06\x19vW@'
p62
tp63
Rp64
ag10
(g14
S'r\x8f\xc4\x9f`}W@'
p65
tp66
Rp67
ag10
(g14
S'\xd4t\xf5\x17\xc4qW@'
p68
tp69
Rp70
ag10
(g14
S'\xc24\x8a\x05\x9d~W@'
p71
tp72
Rp73
ag10
(g14
S'\x8b\x1d_:\x11fW@'
p74
tp75
Rp76
asS'target'
p77
(lp78
g10
(g14
S'1g$\xe4_VQ@'
p79
tp80
Rp81
ag10
(g14
S'<\x909\xb4\xd0\rQ@'
p82
tp83
Rp84
ag10
(g14
S'O\xad\xc4/uyN@'
p85
tp86
Rp87
ag10
(g14
S'b\x88\xff\xf9\x8cfL@'
p88
tp89
Rp90
ag10
(g14
S'\xd9\xa0!\xbc\xa6wQ@'
p91
tp92
Rp93
ag10
(g14
S'\x0c41\xae\\\x9bP@'
p94
tp95
Rp96
ag10
(g14
S'\x8a\xaaL9\x96\x89P@'
p97
tp98
Rp99
ag10
(g14
S'i\xe4\xa1\xce\xfd\xf1P@'
p100
tp101
Rp102
ag10
(g14
S's\xf2\xb1d\xd0\x97J@'
p103
tp104
Rp105
ag10
(g14
S'^!D\xc1\xbe\x18S@'
p106
tp107
Rp108
ag10
(g14
S'\x0c,\xceY0GO@'
p109
tp110
Rp111
ag10
(g14
S'\x11\xc1D\xcetsP@'
p112
tp113
Rp114
ag10
(g14
S'\xf1\xf2\x94i\x14\x8cQ@'
p115
tp116
Rp117
ag10
(g14
S'\x11&v\xca\xc3\x99R@'
p118
tp119
Rp120
ag10
(g14
S'6BA\x87\x8d\x04R@'
p121
tp122
Rp123
ag10
(g14
S'd\xc4\xcf\xec\x91~P@'
p124
tp125
Rp126
ag10
(g14
S'\x08<%:\rbP@'
p127
tp128
Rp129
ag10
(g14
S'g;OP\x02@R@'
p130
tp131
Rp132
ag10
(g14
S'dt\xcfz\xd0\xf3P@'
p133
tp134
Rp135
ag10
(g14
S'&\xcb\xdf\xa4\x1c\x06S@'
p136
tp137
Rp138
asssss.