(dp0
S'../Data/sqlite_78.csv'
p1
(dp2
S'../Data/sqlite_91.csv'
p3
(dp4
F0.1
(dp5
S'mmre'
p6
(dp7
S'bellwether'
p8
(lp9
cnumpy.core.multiarray
scalar
p10
(cnumpy
dtype
p11
(S'f8'
p12
I0
I1
tp13
Rp14
(I3
S'<'
p15
NNNI-1
I-1
I0
tp16
bS"'z\xe3VkoX@"
p17
tp18
Rp19
ag10
(g14
S'\xe8\r\xc2a\xc6rX@'
p20
tp21
Rp22
ag10
(g14
S'g\xdb\xbb0\xe4mX@'
p23
tp24
Rp25
ag10
(g14
S'Z\x07\xc5#/pX@'
p26
tp27
Rp28
ag10
(g14
S'\x1a3\x08\x7f\xf4kX@'
p29
tp30
Rp31
ag10
(g14
S'\x96\x13J\xf9!jX@'
p32
tp33
Rp34
ag10
(g14
S'gV\xf1\x99tnX@'
p35
tp36
Rp37
ag10
(g14
S'!q\xa6<\nlX@'
p38
tp39
Rp40
ag10
(g14
S'\x9e\xb5B\x8b\xe1kX@'
p41
tp42
Rp43
ag10
(g14
S'\xa9R\xfa\x8b\x8csX@'
p44
tp45
Rp46
ag10
(g14
S'\x02\xb6f\xaaRmX@'
p47
tp48
Rp49
ag10
(g14
S'\xca\xd2{uVlX@'
p50
tp51
Rp52
ag10
(g14
S'\xfea\xa5i\xe8nX@'
p53
tp54
Rp55
ag10
(g14
S'75VqzlX@'
p56
tp57
Rp58
ag10
(g14
S'\x14\x7f \xc3/pX@'
p59
tp60
Rp61
ag10
(g14
S'5\x1fb\xa8tuX@'
p62
tp63
Rp64
ag10
(g14
S'\xc02:43mX@'
p65
tp66
Rp67
ag10
(g14
S'?\x00\x1e\xf5;qX@'
p68
tp69
Rp70
ag10
(g14
S'p\x87/\xccmlX@'
p71
tp72
Rp73
ag10
(g14
S'* \x93\x81\xberX@'
p74
tp75
Rp76
asS'target'
p77
(lp78
g10
(g14
S'\x1bj)\xfa67Q@'
p79
tp80
Rp81
ag10
(g14
S',\xe7D\xd7\x8aBN@'
p82
tp83
Rp84
ag10
(g14
S'\xec"\xa8>\x93\xa8P@'
p85
tp86
Rp87
ag10
(g14
S'\x80\xf6R^\x95FP@'
p88
tp89
Rp90
ag10
(g14
S'\xd0\x8f\xbc\xd7VbP@'
p91
tp92
Rp93
ag10
(g14
S'\xe6\xe1K\xcdx\x9aP@'
p94
tp95
Rp96
ag10
(g14
S'=+\xc5\x01\xfa\x98P@'
p97
tp98
Rp99
ag10
(g14
S'B\x1dH\xa5\xd3\xf0N@'
p100
tp101
Rp102
ag10
(g14
S'\x07D]h\xa5rP@'
p103
tp104
Rp105
ag10
(g14
S'\x821\xb7!\xa0\xbdO@'
p106
tp107
Rp108
ag10
(g14
S'\xd7\x10\x14k\xaa\xffP@'
p109
tp110
Rp111
ag10
(g14
S'\x9d\xf2\xa7-\xc5\nP@'
p112
tp113
Rp114
ag10
(g14
S'\xb2\xe1\x08\x01s~P@'
p115
tp116
Rp117
ag10
(g14
S'\x82S\xfb\xe2\x16\xf9P@'
p118
tp119
Rp120
ag10
(g14
S'\x08\xb6\x0b\xc19\x1fO@'
p121
tp122
Rp123
ag10
(g14
S'\xde\x8fs\xa4\xff\x7fK@'
p124
tp125
Rp126
ag10
(g14
S'\x90U\xa4\xd3E\x9aP@'
p127
tp128
Rp129
ag10
(g14
S'<\x1d\x99_C\\O@'
p130
tp131
Rp132
ag10
(g14
S'\x89\x01\xff\x0e\x1c\xa9P@'
p133
tp134
Rp135
ag10
(g14
S']\x0f\xc4\xd6nCL@'
p136
tp137
Rp138
asssss.