(dp0
S'../Data/sqlite_41.csv'
p1
(dp2
S'../Data/sqlite_77.csv'
p3
(dp4
F0.1
(dp5
S'mmre'
p6
(dp7
S'bellwether'
p8
(lp9
cnumpy.core.multiarray
scalar
p10
(cnumpy
dtype
p11
(S'f8'
p12
I0
I1
tp13
Rp14
(I3
S'<'
p15
NNNI-1
I-1
I0
tp16
bS'@Zw%\xe6^A@'
p17
tp18
Rp19
ag10
(g14
S'2\x13*\xa3\x91bA@'
p20
tp21
Rp22
ag10
(g14
S'\xd4\xea\x1fi\xec`A@'
p23
tp24
Rp25
ag10
(g14
S':\xf8\x02\xd1\x9d0A@'
p26
tp27
Rp28
ag10
(g14
S'\xbdTY@.PA@'
p29
tp30
Rp31
ag10
(g14
S'\xe0\n_H\xc5NA@'
p32
tp33
Rp34
ag10
(g14
S'\x8b\x88\xde0\xcfLA@'
p35
tp36
Rp37
ag10
(g14
S'5\x9eJ\xf30RA@'
p38
tp39
Rp40
ag10
(g14
S'It\x1e\x98rYA@'
p41
tp42
Rp43
ag10
(g14
S'4\xd9\xe5"qJA@'
p44
tp45
Rp46
ag10
(g14
S'h\x93\xe5\xd9\xba_A@'
p47
tp48
Rp49
ag10
(g14
S'@=\x17\xbe\xd3QA@'
p50
tp51
Rp52
ag10
(g14
S'(m\xcb\x03zIA@'
p53
tp54
Rp55
ag10
(g14
S'\xaf\x15n\xefwHA@'
p56
tp57
Rp58
ag10
(g14
S'p\xa86N4pA@'
p59
tp60
Rp61
ag10
(g14
S'\x8a\xc2\\\xd2JBA@'
p62
tp63
Rp64
ag10
(g14
S'\x126\xbf\xa1Q^A@'
p65
tp66
Rp67
ag10
(g14
S'\xacW\xdcn\nbA@'
p68
tp69
Rp70
ag10
(g14
S'B\x83\x0b\x9c\x9fWA@'
p71
tp72
Rp73
ag10
(g14
S'Gw#\x04\x93CA@'
p74
tp75
Rp76
asS'target'
p77
(lp78
g10
(g14
S"\x0cF'\xba}\xef5@"
p79
tp80
Rp81
ag10
(g14
S'o=Q\xb4H<6@'
p82
tp83
Rp84
ag10
(g14
S'\xcb\x82O\xf9u\x056@'
p85
tp86
Rp87
ag10
(g14
S'\x14\nh\xcdv;6@'
p88
tp89
Rp90
ag10
(g14
S'\xbd\xf3\xe6\x9d\n$6@'
p91
tp92
Rp93
ag10
(g14
S'2\xc5\xb1\xaa\xa885@'
p94
tp95
Rp96
ag10
(g14
S'\xb7G\x8d"\xa2i9@'
p97
tp98
Rp99
ag10
(g14
S'zY\xa1\x1f^\x1f7@'
p100
tp101
Rp102
ag10
(g14
S'-\xa8@\xe2=c9@'
p103
tp104
Rp105
ag10
(g14
S'\xba\xa17\x91426@'
p106
tp107
Rp108
ag10
(g14
S'B\xb9j\xee\xcd\xa66@'
p109
tp110
Rp111
ag10
(g14
S'\x04\x8a\x90\xda\n\xe47@'
p112
tp113
Rp114
ag10
(g14
S'^\x95\xdc7@\x926@'
p115
tp116
Rp117
ag10
(g14
S'7,.\xf7\n&6@'
p118
tp119
Rp120
ag10
(g14
S'\xc7\x9cWY\xef\xa34@'
p121
tp122
Rp123
ag10
(g14
S'\xffL\x9fZ\x07\xa86@'
p124
tp125
Rp126
ag10
(g14
S'3\xc4\xc10\x9845@'
p127
tp128
Rp129
ag10
(g14
S'\x9a\xd6e\xbd\xber7@'
p130
tp131
Rp132
ag10
(g14
S'\xf4\x90\x85\x8bf\x816@'
p133
tp134
Rp135
ag10
(g14
S'\x12c\xf8\xfd\x9c\xd27@'
p136
tp137
Rp138
asssss.