(dp0
S'../Data/sqlite_38.csv'
p1
(dp2
S'../Data/sqlite_88.csv'
p3
(dp4
F0.25
(dp5
S'mmre'
p6
(dp7
S'bellwether'
p8
(lp9
cnumpy.core.multiarray
scalar
p10
(cnumpy
dtype
p11
(S'f8'
p12
I0
I1
tp13
Rp14
(I3
S'<'
p15
NNNI-1
I-1
I0
tp16
bS'[n@\xdd\x03dX@'
p17
tp18
Rp19
ag10
(g14
S'\\;\xccm\xca_X@'
p20
tp21
Rp22
ag10
(g14
S'\xe6v\xf1\x92OhX@'
p23
tp24
Rp25
ag10
(g14
S'\x95\x02jS\xe1YX@'
p26
tp27
Rp28
ag10
(g14
S'\xd10\xcaw\x9abX@'
p29
tp30
Rp31
ag10
(g14
S'\x9b\xe7\xa8\xec\x14]X@'
p32
tp33
Rp34
ag10
(g14
S'\x7f\xe2\xa2\x9br^X@'
p35
tp36
Rp37
ag10
(g14
S'\xb5\x81!?\x07`X@'
p38
tp39
Rp40
ag10
(g14
S'\xde6\xbe\xd8\xafaX@'
p41
tp42
Rp43
ag10
(g14
S'\xa0\x1c\x1c)2YX@'
p44
tp45
Rp46
ag10
(g14
S'\xe2\x8ax`\x83[X@'
p47
tp48
Rp49
ag10
(g14
S'K\xb1\xb1\xeec^X@'
p50
tp51
Rp52
ag10
(g14
S'ss<\x85\xae[X@'
p53
tp54
Rp55
ag10
(g14
S'\x1bt9\xec+]X@'
p56
tp57
Rp58
ag10
(g14
S'\xc7$\xf9\x9a^[X@'
p59
tp60
Rp61
ag10
(g14
S'\xd7=\xa3\xc8\xb0bX@'
p62
tp63
Rp64
ag10
(g14
S'\x11\x8d\x18F&]X@'
p65
tp66
Rp67
ag10
(g14
S'i.\x80zR\\X@'
p68
tp69
Rp70
ag10
(g14
S'\xc8rA\x92P`X@'
p71
tp72
Rp73
ag10
(g14
S'\xee\x06\x89\xe9\xcd`X@'
p74
tp75
Rp76
asS'target'
p77
(lp78
g10
(g14
S'\x80jn\xa5\xde\x19K@'
p79
tp80
Rp81
ag10
(g14
S'\xb7X\xe5\x0fh\xf4N@'
p82
tp83
Rp84
ag10
(g14
S'\x83\xfdv\x8d*eI@'
p85
tp86
Rp87
ag10
(g14
S'\xa8u$\x0c\x18<N@'
p88
tp89
Rp90
ag10
(g14
S'\xa2@\x7f|%\xe5J@'
p91
tp92
Rp93
ag10
(g14
S'\x92\r\xf6=\xbcMN@'
p94
tp95
Rp96
ag10
(g14
S'LC3\x10\xab\xccM@'
p97
tp98
Rp99
ag10
(g14
S'\xa41\x1f\xe6x/J@'
p100
tp101
Rp102
ag10
(g14
S'K\x8d\xff8\x86\x0bK@'
p103
tp104
Rp105
ag10
(g14
S'<\x17q\n?MM@'
p106
tp107
Rp108
ag10
(g14
S'\xe7\xa3\xddj.wQ@'
p109
tp110
Rp111
ag10
(g14
S'\xdb\xa0L@HqJ@'
p112
tp113
Rp114
ag10
(g14
S's\xee7\xc2\xca\xc6N@'
p115
tp116
Rp117
ag10
(g14
S'\xd2&*\x0fh\x8eK@'
p118
tp119
Rp120
ag10
(g14
S'\xd4;Y^\t]N@'
p121
tp122
Rp123
ag10
(g14
S'x\xfb\x8b\xd2\x1d\xbdI@'
p124
tp125
Rp126
ag10
(g14
S']\x9e%\xa2D\xd9L@'
p127
tp128
Rp129
ag10
(g14
S'2\xd3\tH\xafZN@'
p130
tp131
Rp132
ag10
(g14
S'T\x9a\xbf\xed\xc9\xf5I@'
p133
tp134
Rp135
ag10
(g14
S'M~\xb2\x95\xc3\xf3K@'
p136
tp137
Rp138
asssss.