(dp0
S'../Data/sqlite_35.csv'
p1
(dp2
S'../Data/sqlite_94.csv'
p3
(dp4
F0.3
(dp5
S'mmre'
p6
(dp7
S'bellwether'
p8
(lp9
cnumpy.core.multiarray
scalar
p10
(cnumpy
dtype
p11
(S'f8'
p12
I0
I1
tp13
Rp14
(I3
S'<'
p15
NNNI-1
I-1
I0
tp16
bS"\x9f\xe9Oo',X@"
p17
tp18
Rp19
ag10
(g14
S'\xe7\x1fo\xfc\xbb+X@'
p20
tp21
Rp22
ag10
(g14
S'-\xb4z\xbc\xc3-X@'
p23
tp24
Rp25
ag10
(g14
S'\xfc\xed\x8d\xd5Y-X@'
p26
tp27
Rp28
ag10
(g14
S'\x9e\xf7B\x1a\xae-X@'
p29
tp30
Rp31
ag10
(g14
S'\xde0\xbd.\xac,X@'
p32
tp33
Rp34
ag10
(g14
S'l5,R\x8c*X@'
p35
tp36
Rp37
ag10
(g14
S'Xj\x1e\xaf\x14-X@'
p38
tp39
Rp40
ag10
(g14
S'.\xc6P\xea\xa4,X@'
p41
tp42
Rp43
ag10
(g14
S'\x05\xc5($0/X@'
p44
tp45
Rp46
ag10
(g14
S'\x0f\xc1\x9d_\xe6*X@'
p47
tp48
Rp49
ag10
(g14
S'\x0e!V\x8d\xe5*X@'
p50
tp51
Rp52
ag10
(g14
S'&q#\xc6\xac+X@'
p53
tp54
Rp55
ag10
(g14
S'\xd8\xfc\xc6\xc6\x7f-X@'
p56
tp57
Rp58
ag10
(g14
S"\xe2'T\xed\x10,X@"
p59
tp60
Rp61
ag10
(g14
S'\xb7?#P|,X@'
p62
tp63
Rp64
ag10
(g14
S'~#\xee\xb0h)X@'
p65
tp66
Rp67
ag10
(g14
S'HWpbU.X@'
p68
tp69
Rp70
ag10
(g14
S'`\xc9\rJA-X@'
p71
tp72
Rp73
ag10
(g14
S'\xf4\xf8\x17\xd79+X@'
p74
tp75
Rp76
asS'target'
p77
(lp78
g10
(g14
S'gR\x8c\xb9\xb5!T@'
p79
tp80
Rp81
ag10
(g14
S'\x13B\xbat\xebaZ@'
p82
tp83
Rp84
ag10
(g14
S'\xfd\x90h4X\x02N@'
p85
tp86
Rp87
ag10
(g14
S'+l\xba|>\xedW@'
p88
tp89
Rp90
ag10
(g14
S'\xe7\xb0\x9a\x95kiO@'
p91
tp92
Rp93
ag10
(g14
S"\xe5\x95.'\xdfAR@"
p94
tp95
Rp96
ag10
(g14
S"R\xd8i'\xa6\x81R@"
p97
tp98
Rp99
ag10
(g14
S'Po\xacu\xb2wT@'
p100
tp101
Rp102
ag10
(g14
S'\xe4?\xfa\xb4\xdb\x13Q@'
p103
tp104
Rp105
ag10
(g14
S'\xbb\r`\xb4X\x88M@'
p106
tp107
Rp108
ag10
(g14
S'2\xd8%\xf3XcS@'
p109
tp110
Rp111
ag10
(g14
S'\xb1",\xef\x10\xcfQ@'
p112
tp113
Rp114
ag10
(g14
S'\x13\x80\xb0744X@'
p115
tp116
Rp117
ag10
(g14
S'\x9a^\xd9\x9e,xR@'
p118
tp119
Rp120
ag10
(g14
S'\x93\x98\x8cx\x83\xecS@'
p121
tp122
Rp123
ag10
(g14
S'3\x9b\xbe\x8a\xf8PM@'
p124
tp125
Rp126
ag10
(g14
S'\x9cg\xbe\xe7t\x18V@'
p127
tp128
Rp129
ag10
(g14
S'lg\xb1d\xc83Q@'
p130
tp131
Rp132
ag10
(g14
S'\xe0\xc2V\xc6\xad\xb6M@'
p133
tp134
Rp135
ag10
(g14
S'\xe4b\xf87\xd2GS@'
p136
tp137
Rp138
asssss.