(dp0
S'../Data/sqlite_7.csv'
p1
(dp2
S'../Data/sqlite_91.csv'
p3
(dp4
F0.4
(dp5
S'mmre'
p6
(dp7
S'bellwether'
p8
(lp9
cnumpy.core.multiarray
scalar
p10
(cnumpy
dtype
p11
(S'f8'
p12
I0
I1
tp13
Rp14
(I3
S'<'
p15
NNNI-1
I-1
I0
tp16
bS'o8w\xb8\xbd)X@'
p17
tp18
Rp19
ag10
(g14
S'h\x1bv\x9bG\x0cX@'
p20
tp21
Rp22
ag10
(g14
S"3\x81\x96\xd47'X@"
p23
tp24
Rp25
ag10
(g14
S'\xa7p\xb8\xb9\xc9\x1bX@'
p26
tp27
Rp28
ag10
(g14
S'"w\xa2zn"X@'
p29
tp30
Rp31
ag10
(g14
S'@\x18"\xca}1X@'
p32
tp33
Rp34
ag10
(g14
S'\x90\x03"?m*X@'
p35
tp36
Rp37
ag10
(g14
S']\xb0\xc9rP\x17X@'
p38
tp39
Rp40
ag10
(g14
S'*\xe82n\xbb%X@'
p41
tp42
Rp43
ag10
(g14
S'H\xab\xf6\xc4o*X@'
p44
tp45
Rp46
ag10
(g14
S'\xf7\xf2\xf5\x8bL\x1cX@'
p47
tp48
Rp49
ag10
(g14
S'P\xf4J\xb3Z\x1eX@'
p50
tp51
Rp52
ag10
(g14
S'\xcfId\x8dp5X@'
p53
tp54
Rp55
ag10
(g14
S'\xcc%\xa4\xca\x88\x10X@'
p56
tp57
Rp58
ag10
(g14
S'\x05\xdd\xce\xbb|!X@'
p59
tp60
Rp61
ag10
(g14
S'iu\xe3\xd3\xff\x10X@'
p62
tp63
Rp64
ag10
(g14
S"w~\x0f`\xc3'X@"
p65
tp66
Rp67
ag10
(g14
S'\xa0\x8a\xc7\xefx\x19X@'
p68
tp69
Rp70
ag10
(g14
S'\xd1\x04(\x05&!X@'
p71
tp72
Rp73
ag10
(g14
S'\xc8\xf8\xb8\xe7 *X@'
p74
tp75
Rp76
asS'target'
p77
(lp78
g10
(g14
S'2q\n3\xb6\x16L@'
p79
tp80
Rp81
ag10
(g14
S'\x84E\x88\xd5N\x1fT@'
p82
tp83
Rp84
ag10
(g14
S"\x0c,Xo'\xb2M@"
p85
tp86
Rp87
ag10
(g14
S'\xde\xca\x9aJ\xb3`Q@'
p88
tp89
Rp90
ag10
(g14
S'Q\xfbmfI\xeaP@'
p91
tp92
Rp93
ag10
(g14
S'Fb\xc4\xc5N\xddG@'
p94
tp95
Rp96
ag10
(g14
S'\x0eK\xc7d \x1fM@'
p97
tp98
Rp99
ag10
(g14
S'\xb9\xdb;4W\xb2P@'
p100
tp101
Rp102
ag10
(g14
S'fo\x86%\x86\x8fO@'
p103
tp104
Rp105
ag10
(g14
S' \xbb-\xbaw\xf5I@'
p106
tp107
Rp108
ag10
(g14
S'UFZW[iP@'
p109
tp110
Rp111
ag10
(g14
S'\x05p4\x84\xee;Q@'
p112
tp113
Rp114
ag10
(g14
S'|\xfdD23\x89H@'
p115
tp116
Rp117
ag10
(g14
S'\xc0S\x81\x1fG\x1fR@'
p118
tp119
Rp120
ag10
(g14
S'z\x10\xf4D\xb3\x01Q@'
p121
tp122
Rp123
ag10
(g14
S'\xbe &y\x82\xacR@'
p124
tp125
Rp126
ag10
(g14
S'\xa1\xc5\xcb\x92\xda$M@'
p127
tp128
Rp129
ag10
(g14
S'\x8f\x13+\x11\xd3\xc4P@'
p130
tp131
Rp132
ag10
(g14
S'\xdb1\xb9\xbd\x86\xeeK@'
p133
tp134
Rp135
ag10
(g14
S'\x15I\x8c\xe2raO@'
p136
tp137
Rp138
asssss.