(dp0
S'../Data/sqlite_1.csv'
p1
(dp2
S'../Data/sqlite_75.csv'
p3
(dp4
F0.15
(dp5
S'abs_res'
p6
(dp7
S'bellwether'
p8
(lp9
cnumpy.core.multiarray
scalar
p10
(cnumpy
dtype
p11
(S'f8'
p12
I0
I1
tp13
Rp14
(I3
S'<'
p15
NNNI-1
I-1
I0
tp16
bS'\x13\x02+GI9@A'
p17
tp18
Rp19
ag10
(g14
S'\xa3E\xb6\xc3\xff9@A'
p20
tp21
Rp22
ag10
(g14
S'\xb5G\xe1\xba\x02:@A'
p23
tp24
Rp25
ag10
(g14
S't\xe7\xfbII:@A'
p26
tp27
Rp28
ag10
(g14
S'\xff\xf0\x19\xd6\xe49@A'
p29
tp30
Rp31
ag10
(g14
S'\x1c\x04V\x1e\xfa9@A'
p32
tp33
Rp34
ag10
(g14
S'r\xbct#,:@A'
p35
tp36
Rp37
ag10
(g14
S'?5^z\xe89@A'
p38
tp39
Rp40
ag10
(g14
S'\x1e\x85\xeb\x91\xeb9@A'
p41
tp42
Rp43
ag10
(g14
S'\xc6X\xf2\x1b$:@A'
p44
tp45
Rp46
ag10
(g14
S'\t\xf3D\xbd\xb39@A'
p47
tp48
Rp49
ag10
(g14
S'\xef&1\x88\xe49@A'
p50
tp51
Rp52
ag10
(g14
S'\xfd\xf0\x19V\x859@A'
p53
tp54
Rp55
ag10
(g14
S'\xfc~j\\\xce9@A'
p56
tp57
Rp58
ag10
(g14
S'\xab\x9b\xc4\xf0l9@A'
p59
tp60
Rp61
ag10
(g14
S'\x0b\xe4^#\xd89@A'
p62
tp63
Rp64
ag10
(g14
S'U*\xce.;9@A'
p65
tp66
Rp67
ag10
(g14
S';\x89A\x90\xff9@A'
p68
tp69
Rp70
ag10
(g14
S'O7\x89\x11\x02:@A'
p71
tp72
Rp73
ag10
(g14
S'\xc3\x9f\x1a\x7f]9@A'
p74
tp75
Rp76
asS'target'
p77
(lp78
g10
(g14
S'\xf5(\\\x8f\xc25[@'
p79
tp80
Rp81
ag10
(g14
S'3\xdd$\x06\x81\x1d]@'
p82
tp83
Rp84
ag10
(g14
S'\xdfz\x14\xaeG\xb5Z@'
p85
tp86
Rp87
ag10
(g14
S'n=\n\xd7\xa3\x00\\@'
p88
tp89
Rp90
ag10
(g14
S'\xf1\xd4x\xe9&y[@'
p91
tp92
Rp93
ag10
(g14
S'?\xdfO\x8d\x97^Z@'
p94
tp95
Rp96
ag10
(g14
S'\t\x81\x95C\x8b\x9c[@'
p97
tp98
Rp99
ag10
(g14
S'\xe6&1\x08\xac\xdc[@'
p100
tp101
Rp102
ag10
(g14
S'J\x8bl\xe7\xfb\xe9[@'
p103
tp104
Rp105
ag10
(g14
S'`;\xdfO\x8d\x87\\@'
p106
tp107
Rp108
ag10
(g14
S'\x06+\x87\x16\xd9\xfeZ@'
p109
tp110
Rp111
ag10
(g14
S't\xbe\x9f\x1a/=\\@'
p112
tp113
Rp114
ag10
(g14
S'v\xe9&1\x08\x84[@'
p115
tp116
Rp117
ag10
(g14
S'\xe5|?5^\x12[@'
p118
tp119
Rp120
ag10
(g14
S'3\xdfO\x8d\x97\x06\\@'
p121
tp122
Rp123
ag10
(g14
S'\x8c\xed|?5"\\@'
p124
tp125
Rp126
ag10
(g14
S'T\xe5\xd0"\xdb\xd9Z@'
p127
tp128
Rp129
ag10
(g14
S'\xbe\x1e\x85\xebQ \\@'
p130
tp131
Rp132
ag10
(g14
S'\xe0$\x06\x81\x95\x13]@'
p133
tp134
Rp135
ag10
(g14
S'vh\x91\xed|\xcf[@'
p136
tp137
Rp138
asssss.