(dp0
S'../Data/sqlite_80.csv'
p1
(dp2
S'../Data/sqlite_95.csv'
p3
(dp4
F0.15
(dp5
S'abs_res'
p6
(dp7
S'bellwether'
p8
(lp9
cnumpy.core.multiarray
scalar
p10
(cnumpy
dtype
p11
(S'f8'
p12
I0
I1
tp13
Rp14
(I3
S'<'
p15
NNNI-1
I-1
I0
tp16
bS'-\\\x8f"yz4A'
p17
tp18
Rp19
ag10
(g14
S'\x8a\x88\x88\xe8\xa5$4A'
p20
tp21
Rp22
ag10
(g14
S'\xe6\x17K\x1e\x1db4A'
p23
tp24
Rp25
ag10
(g14
S'\xa5p=jXI4A'
p26
tp27
Rp28
ag10
(g14
S'\x17K~Q\x05>4A'
p29
tp30
Rp31
ag10
(g14
S'\xe6z\x14n\x1bN4A'
p32
tp33
Rp34
ag10
(g14
S'\xc8\xf5(\x9c\xc7\x1e4A'
p35
tp36
Rp37
ag10
(g14
S'\x89\xebQ\xf8/b4A'
p38
tp39
Rp40
ag10
(g14
S'\xc6\x1e\x85\xeb\xcb\x0c4A'
p41
tp42
Rp43
ag10
(g14
S"\xaa\xe4\x17K'^4A"
p44
tp45
Rp46
ag10
(g14
S'\xe3z\x14N,.4A'
p47
tp48
Rp49
ag10
(g14
S'o=\n\xf7\rL4A'
p50
tp51
Rp52
ag10
(g14
S'8\n\xd7\xc3PJ4A'
p53
tp54
Rp55
ag10
(g14
S'\xf6(\\O\x9694A'
p56
tp57
Rp58
ag10
(g14
S'[\xb8\x1e\xc5\x0854A'
p59
tp60
Rp61
ag10
(g14
S'e,\xf9%\x10M4A'
p62
tp63
Rp64
ag10
(g14
S'?\xd0ic;U4A'
p65
tp66
Rp67
ag10
(g14
S"'\x85\xebQ\xab]4A"
p68
tp69
Rp70
ag10
(g14
S'\x8b\x88\x88\xe8\x9854A'
p71
tp72
Rp73
ag10
(g14
S'@\n\xd7c\xd4(4A'
p74
tp75
Rp76
asS'target'
p77
(lp78
g10
(g14
S'\x08\x00\x00\x00(\xb4\x1cA'
p79
tp80
Rp81
ag10
(g14
S'\xf4(\\\x8f\xe5v"A'
p82
tp83
Rp84
ag10
(g14
S'B\xe1z\x94\xa5U A'
p85
tp86
Rp87
ag10
(g14
S'F\xe1z\x14D: A'
p88
tp89
Rp90
ag10
(g14
S'\xb6\x1e\x85kB\x0e!A'
p91
tp92
Rp93
ag10
(g14
S'-\\\x8f\xc2\xdc\x82\x1eA'
p94
tp95
Rp96
ag10
(g14
S'\x14\xaeGa\xe2Y"A'
p97
tp98
Rp99
ag10
(g14
S'O\xb8\x1e\x85\x14\x86\x1dA'
p100
tp101
Rp102
ag10
(g14
S'\xa7p=\nt\x02!A'
p103
tp104
Rp105
ag10
(g14
S'B\n\xd7\xa3h^\x1dA'
p106
tp107
Rp108
ag10
(g14
S'P\xb8\x1e\x85/Z!A'
p109
tp110
Rp111
ag10
(g14
S'\x82\xebQ\xb8`\xc9\x1fA'
p112
tp113
Rp114
ag10
(g14
S'\xa9p=\n5\xc6 A'
p115
tp116
Rp117
ag10
(g14
S'\xb7\x1e\x85\xeb\x91\x80\x1fA'
p118
tp119
Rp120
ag10
(g14
S'=\n\xd7\xa3\x8ec"A'
p121
tp122
Rp123
ag10
(g14
S'm=\n\xd7T7\x1dA'
p124
tp125
Rp126
ag10
(g14
S'\xce\xcc\xccLuD A'
p127
tp128
Rp129
ag10
(g14
S'\xb7\x1e\x85\xeb\x11\x00"A'
p130
tp131
Rp132
ag10
(g14
S'\x9f\x99\x99\x99qt\x1cA'
p133
tp134
Rp135
ag10
(g14
S'\xa8p=\nH\x98\x1eA'
p136
tp137
Rp138
asssss.