(dp0
S'../Data/sqlite_14.csv'
p1
(dp2
S'../Data/sqlite_90.csv'
p3
(dp4
F0.3
(dp5
S'mmre'
p6
(dp7
S'bellwether'
p8
(lp9
cnumpy.core.multiarray
scalar
p10
(cnumpy
dtype
p11
(S'f8'
p12
I0
I1
tp13
Rp14
(I3
S'<'
p15
NNNI-1
I-1
I0
tp16
bS'\x10\xb1J\xba\xc8*W@'
p17
tp18
Rp19
ag10
(g14
S')\xf5\x9b\xe6W/W@'
p20
tp21
Rp22
ag10
(g14
S'\xdf\xa71\x85M\x1fW@'
p23
tp24
Rp25
ag10
(g14
S'Q?EYH,W@'
p26
tp27
Rp28
ag10
(g14
S'SJp\xf3\xc4-W@'
p29
tp30
Rp31
ag10
(g14
S'\t\x03\xe6\xef\xbb+W@'
p32
tp33
Rp34
ag10
(g14
S'j\xe1:\xb6-"W@'
p35
tp36
Rp37
ag10
(g14
S'\xc5\xd2/F\x98\x1cW@'
p38
tp39
Rp40
ag10
(g14
S"l\xd24l\x7f'W@"
p41
tp42
Rp43
ag10
(g14
S'\xde\xd99\xb5\x87#W@'
p44
tp45
Rp46
ag10
(g14
S's>!J\x94+W@'
p47
tp48
Rp49
ag10
(g14
S'G\x9d\xc8\xb7])W@'
p50
tp51
Rp52
ag10
(g14
S'\x8c\xd4\xa1\xf6\x0c.W@'
p53
tp54
Rp55
ag10
(g14
S'\x84iN\x11\x95.W@'
p56
tp57
Rp58
ag10
(g14
S'\x1b\xfc5%b\x1cW@'
p59
tp60
Rp61
ag10
(g14
S'\xc7\xf0\x8c\xaa\xdf/W@'
p62
tp63
Rp64
ag10
(g14
S'\x1a}\xf6\\\xa2,W@'
p65
tp66
Rp67
ag10
(g14
S'\x19g\xc7f~+W@'
p68
tp69
Rp70
ag10
(g14
S'\xcf;\xb6c\x0c2W@'
p71
tp72
Rp73
ag10
(g14
S'\xf43\xfa,\x9e&W@'
p74
tp75
Rp76
asS'target'
p77
(lp78
g10
(g14
S'\xc0\xe4q\xa2\x80\xc3A@'
p79
tp80
Rp81
ag10
(g14
S'e\xf0\xa6O\x19\x8fA@'
p82
tp83
Rp84
ag10
(g14
S'|\xf9\xcf|\x1b\xcf@@'
p85
tp86
Rp87
ag10
(g14
S'\x8c!\x10tC\xda=@'
p88
tp89
Rp90
ag10
(g14
S'\xd1 \x91_\x0b\x88@@'
p91
tp92
Rp93
ag10
(g14
S'bLNt\n\r?@'
p94
tp95
Rp96
ag10
(g14
S'\x13\x0f>&L+B@'
p97
tp98
Rp99
ag10
(g14
S'\xe7\r\x80"\xcaQB@'
p100
tp101
Rp102
ag10
(g14
S'\x03\x04{).vB@'
p103
tp104
Rp105
ag10
(g14
S'\x1c\x1c%\x0e\x8fTA@'
p106
tp107
Rp108
ag10
(g14
S'\x1b\xe0\x85\xed\xa5\xe6A@'
p109
tp110
Rp111
ag10
(g14
S'\x88\x84M\x13\x82\xf0@@'
p112
tp113
Rp114
ag10
(g14
S')Qo/A1A@'
p115
tp116
Rp117
ag10
(g14
S'\x93\n\x807\x8e`?@'
p118
tp119
Rp120
ag10
(g14
S'2\x99\xbc7Y\rB@'
p121
tp122
Rp123
ag10
(g14
S'79bR\xb6GA@'
p124
tp125
Rp126
ag10
(g14
S'\xb7\x8c\xb1\x1c\x02\xd4A@'
p127
tp128
Rp129
ag10
(g14
S'\x88\tnCt\xd7?@'
p130
tp131
Rp132
ag10
(g14
S'^\x88^\x9ay[>@'
p133
tp134
Rp135
ag10
(g14
S'\xaa\x0f\xe2<l\x9aA@'
p136
tp137
Rp138
asssss.