(dp0
S'../Data/sqlite_0.csv'
p1
(dp2
S'../Data/sqlite_91.csv'
p3
(dp4
F0.3
(dp5
S'mmre'
p6
(dp7
S'bellwether'
p8
(lp9
cnumpy.core.multiarray
scalar
p10
(cnumpy
dtype
p11
(S'f8'
p12
I0
I1
tp13
Rp14
(I3
S'<'
p15
NNNI-1
I-1
I0
tp16
bS'@s\xf8\x1b\xa8nX@'
p17
tp18
Rp19
ag10
(g14
S'\xfe)\xd3\xef\xc0qX@'
p20
tp21
Rp22
ag10
(g14
S'Ktx%\x11lX@'
p23
tp24
Rp25
ag10
(g14
S'`c\x88\xf8\xb6wX@'
p26
tp27
Rp28
ag10
(g14
S'r\xb3\xbb\xb7yuX@'
p29
tp30
Rp31
ag10
(g14
S'\xad:U\xee }X@'
p32
tp33
Rp34
ag10
(g14
S'n\xbc\xd57,lX@'
p35
tp36
Rp37
ag10
(g14
S'\x89\x980\xfe\xfftX@'
p38
tp39
Rp40
ag10
(g14
S'`N\xe3g\x83xX@'
p41
tp42
Rp43
ag10
(g14
S'\xbe\xc8R\x12\xc6{X@'
p44
tp45
Rp46
ag10
(g14
S'u\x08\xae\xad\xd4mX@'
p47
tp48
Rp49
ag10
(g14
S',\xf3\xa7-\xd8{X@'
p50
tp51
Rp52
ag10
(g14
S'\x8c\xa3\xfd\xda\x1dyX@'
p53
tp54
Rp55
ag10
(g14
S'{\xe3\xc5r^\x81X@'
p56
tp57
Rp58
ag10
(g14
S'd{j\xb5\x18lX@'
p59
tp60
Rp61
ag10
(g14
S'a\x0f\xba\x05\x08sX@'
p62
tp63
Rp64
ag10
(g14
S'\x8e\x190\x9cNtX@'
p65
tp66
Rp67
ag10
(g14
S'r77\x0e\xe8{X@'
p68
tp69
Rp70
ag10
(g14
S'<,\x9b{MwX@'
p71
tp72
Rp73
ag10
(g14
S'G\xb2r.\x84jX@'
p74
tp75
Rp76
asS'target'
p77
(lp78
g10
(g14
S'\xf9G\\\xbe\x9f\x82Q@'
p79
tp80
Rp81
ag10
(g14
S'\x90\x13\xe2\x84\x9c\x96P@'
p82
tp83
Rp84
ag10
(g14
S'`!^\xf7E\xb8R@'
p85
tp86
Rp87
ag10
(g14
S'R\x16\x1b\xfb+\xa1J@'
p88
tp89
Rp90
ag10
(g14
S'\xbe\xa5\n\xe2\xfd`P@'
p91
tp92
Rp93
ag10
(g14
S'@\x88\x03\xec[ZK@'
p94
tp95
Rp96
ag10
(g14
S">'\xad>\x9a\x9fQ@"
p97
tp98
Rp99
ag10
(g14
S'\x83\xb8{\xb1[\x16O@'
p100
tp101
Rp102
ag10
(g14
S'+\x0c\x9b\x8287O@'
p103
tp104
Rp105
ag10
(g14
S'f\xfe\x83\xcaz\xa3L@'
p106
tp107
Rp108
ag10
(g14
S'e}\xd3\x87B\xfcQ@'
p109
tp110
Rp111
ag10
(g14
S'\xeeE\x99H\x92\x08H@'
p112
tp113
Rp114
ag10
(g14
S'\x16\xcf$h63L@'
p115
tp116
Rp117
ag10
(g14
S'kT\x1e\xfb\xeb\x9fG@'
p118
tp119
Rp120
ag10
(g14
S'4\xf4\xf9`\x0e_R@'
p121
tp122
Rp123
ag10
(g14
S'\x11U\xc5\x9d\x18nP@'
p124
tp125
Rp126
ag10
(g14
S'c\xddw\x94\x9cDQ@'
p127
tp128
Rp129
ag10
(g14
S'\xea\x8c$\xff\xed\x0fM@'
p130
tp131
Rp132
ag10
(g14
S'\xe2\x04pwo!O@'
p133
tp134
Rp135
ag10
(g14
S'\x82X\xc4\xc5\x96\xcfQ@'
p136
tp137
Rp138
asssss.