(dp0
S'../Data/sqlite_36.csv'
p1
(dp2
S'../Data/sqlite_89.csv'
p3
(dp4
F0.25
(dp5
S'mmre'
p6
(dp7
S'bellwether'
p8
(lp9
cnumpy.core.multiarray
scalar
p10
(cnumpy
dtype
p11
(S'f8'
p12
I0
I1
tp13
Rp14
(I3
S'<'
p15
NNNI-1
I-1
I0
tp16
bS'k{8\t\x9ciS@'
p17
tp18
Rp19
ag10
(g14
S'kO\x19\xc3\xfa]S@'
p20
tp21
Rp22
ag10
(g14
S'E\x15W\xf5DfS@'
p23
tp24
Rp25
ag10
(g14
S'\xd9\xf5mL\x9ehS@'
p26
tp27
Rp28
ag10
(g14
S'M\xd7\x11F\x19XS@'
p29
tp30
Rp31
ag10
(g14
S'\xcd\xae@\x1f\xaf[S@'
p32
tp33
Rp34
ag10
(g14
S'\xa5\xb2]\x85\x94kS@'
p35
tp36
Rp37
ag10
(g14
S'1\x18-\x9du\\S@'
p38
tp39
Rp40
ag10
(g14
S'$+l\xf3\xa5gS@'
p41
tp42
Rp43
ag10
(g14
S'\x86{\x176DdS@'
p44
tp45
Rp46
ag10
(g14
S'z\x0e\xc7\x82\xdfZS@'
p47
tp48
Rp49
ag10
(g14
S'\xf7}SH\xe6aS@'
p50
tp51
Rp52
ag10
(g14
S'\x12[y\x9anbS@'
p53
tp54
Rp55
ag10
(g14
S'\xab\x88c\x08\xd8`S@'
p56
tp57
Rp58
ag10
(g14
S'M\x01.\x97\xec]S@'
p59
tp60
Rp61
ag10
(g14
S'\xf7do\xa0`^S@'
p62
tp63
Rp64
ag10
(g14
S'\xa4\xeb!W9qS@'
p65
tp66
Rp67
ag10
(g14
S'[}\x1bz5qS@'
p68
tp69
Rp70
ag10
(g14
S',\x11\xfb\xc8&hS@'
p71
tp72
Rp73
ag10
(g14
S'\x804t\x9eMaS@'
p74
tp75
Rp76
asS'target'
p77
(lp78
g10
(g14
S'\r\x95r1\xfd\xfbM@'
p79
tp80
Rp81
ag10
(g14
S'0\x8b\x88\x7f\x84\xb8P@'
p82
tp83
Rp84
ag10
(g14
S'\x08\xe7\xbc\xe41\x1cT@'
p85
tp86
Rp87
ag10
(g14
S'\xa0*\xa2\xb0\xad\xbcS@'
p88
tp89
Rp90
ag10
(g14
S'}\xdf+k}@Q@'
p91
tp92
Rp93
ag10
(g14
S'\xfa\xcf\x1d\xe6\x9a\xf2T@'
p94
tp95
Rp96
ag10
(g14
S':\xcfW\xda\x8bfP@'
p97
tp98
Rp99
ag10
(g14
S'\xe0\x80\x12&:\x18T@'
p100
tp101
Rp102
ag10
(g14
S'M\xa2\x93\x1a\xfa^N@'
p103
tp104
Rp105
ag10
(g14
S'\xb8\xc98\xd4<ZP@'
p106
tp107
Rp108
ag10
(g14
S'\xbc\xb8\xc1\xa4|\xebQ@'
p109
tp110
Rp111
ag10
(g14
S'\x10\xbc`\x1e\xd1\xa1Z@'
p112
tp113
Rp114
ag10
(g14
S'!\x8a\x15Q\xd6\xd5R@'
p115
tp116
Rp117
ag10
(g14
S'\xc0\xce\x91"\xae\x89R@'
p118
tp119
Rp120
ag10
(g14
S'`\x18\x00\xebk\xe3R@'
p121
tp122
Rp123
ag10
(g14
S'\x11\xa8D\x13?\x9fP@'
p124
tp125
Rp126
ag10
(g14
S'O(\x00r7\xdbQ@'
p127
tp128
Rp129
ag10
(g14
S'\xea8\xa05\xec\xeeR@'
p130
tp131
Rp132
ag10
(g14
S'T\x04c\x97\xa0\xf3O@'
p133
tp134
Rp135
ag10
(g14
S'\xfb\x8e\x89`\xc8(P@'
p136
tp137
Rp138
asssss.