(dp0
S'../Data/sqlite_14.csv'
p1
(dp2
S'../Data/sqlite_79.csv'
p3
(dp4
F0.4
(dp5
S'mmre'
p6
(dp7
S'bellwether'
p8
(lp9
cnumpy.core.multiarray
scalar
p10
(cnumpy
dtype
p11
(S'f8'
p12
I0
I1
tp13
Rp14
(I3
S'<'
p15
NNNI-1
I-1
I0
tp16
bS'FJw \xf9Mk@'
p17
tp18
Rp19
ag10
(g14
S'k"\xceq\x078k@'
p20
tp21
Rp22
ag10
(g14
S'z\xabW}\x01Gk@'
p23
tp24
Rp25
ag10
(g14
S'\xe7p\xf2X\xe8)k@'
p26
tp27
Rp28
ag10
(g14
S'\x16,G\xab\xbegk@'
p29
tp30
Rp31
ag10
(g14
S'\x84n\x82\xa4!ak@'
p32
tp33
Rp34
ag10
(g14
S'\x10t[\xd7\x8b6k@'
p35
tp36
Rp37
ag10
(g14
S'\x85\xbca\x0e\xca\x82k@'
p38
tp39
Rp40
ag10
(g14
S'\x9b$\xa7h\x1a0k@'
p41
tp42
Rp43
ag10
(g14
S'd \x12\xd9V\x0ek@'
p44
tp45
Rp46
ag10
(g14
S'\xbf\r\x150\x97^k@'
p47
tp48
Rp49
ag10
(g14
S'\r,\xcb\xd8\x93Mk@'
p50
tp51
Rp52
ag10
(g14
S'\x97\xf9<\x05\r\x80k@'
p53
tp54
Rp55
ag10
(g14
S'\x92\xcf\xaf\x0557k@'
p56
tp57
Rp58
ag10
(g14
S'\xeaT\xc6\xc1\xb1\x13k@'
p59
tp60
Rp61
ag10
(g14
S'\xb3\x90(\xa2\x04Jk@'
p62
tp63
Rp64
ag10
(g14
S'\xf1\xefXA\xb7Ck@'
p65
tp66
Rp67
ag10
(g14
S'\xa5\xa4\xfbOG0k@'
p68
tp69
Rp70
ag10
(g14
S'\xd8\x8b\x06J[(k@'
p71
tp72
Rp73
ag10
(g14
S'\xb9P1HcWk@'
p74
tp75
Rp76
asS'target'
p77
(lp78
g10
(g14
S'\x8fov+_\xdc$@'
p79
tp80
Rp81
ag10
(g14
S'\x03\x8by\tn+$@'
p82
tp83
Rp84
ag10
(g14
S'\x1b@M\x10<y&@'
p85
tp86
Rp87
ag10
(g14
S'\xa5\xd8\xfe\xe2\xb9Y%@'
p88
tp89
Rp90
ag10
(g14
S'\xe3+\xb6\x11GI$@'
p91
tp92
Rp93
ag10
(g14
S'\xa9@\x06\xca\xa8\xb2#@'
p94
tp95
Rp96
ag10
(g14
S'\xdf{\xef\xb0p\xa3!@'
p97
tp98
Rp99
ag10
(g14
S'\x92G>\xf0\xb4\x86"@'
p100
tp101
Rp102
ag10
(g14
S'\xde\\\xe0:\xefa$@'
p103
tp104
Rp105
ag10
(g14
S'\xb2t\x87[\x02\x17&@'
p106
tp107
Rp108
ag10
(g14
S'3\xa0\xc5\x96iS$@'
p109
tp110
Rp111
ag10
(g14
S't\xd5xf\x8b\x98%@'
p112
tp113
Rp114
ag10
(g14
S'\xcdy!\x19.P%@'
p115
tp116
Rp117
ag10
(g14
S'\xfd\xbb\xfa\xdf\xdf\x97$@'
p118
tp119
Rp120
ag10
(g14
S'\xc6\x85]S\x9ac\x1f@'
p121
tp122
Rp123
ag10
(g14
S'\x98S<\x06\xb3\xf6!@'
p124
tp125
Rp126
ag10
(g14
S'\xac<a\xb6D\xd1!@'
p127
tp128
Rp129
ag10
(g14
S'\n\x11\xfa\xee\x12_!@'
p130
tp131
Rp132
ag10
(g14
S'\xd8*\xfb\xe4\x04M#@'
p133
tp134
Rp135
ag10
(g14
S'\xf3\x83\x99!.2!@'
p136
tp137
Rp138
asssss.