(dp0
S'../Data/sqlite_15.csv'
p1
(dp2
S'../Data/sqlite_75.csv'
p3
(dp4
F0.15
(dp5
S'abs_res'
p6
(dp7
S'bellwether'
p8
(lp9
cnumpy.core.multiarray
scalar
p10
(cnumpy
dtype
p11
(S'f8'
p12
I0
I1
tp13
Rp14
(I3
S'<'
p15
NNNI-1
I-1
I0
tp16
bS'Xd;\x9f\xf8"@A'
p17
tp18
Rp19
ag10
(g14
S'\x0e-\xb2\xfd\x83"@A'
p20
tp21
Rp22
ag10
(g14
S'\xf6\xb6\xac%\xe8"@A'
p23
tp24
Rp25
ag10
(g14
S'\x0c\x90{}\x9d#@A'
p26
tp27
Rp28
ag10
(g14
S'\x83?5\x1es"@A'
p29
tp30
Rp31
ag10
(g14
S'|\x14\xaeW\xc6"@A'
p32
tp33
Rp34
ag10
(g14
S'\xf4\x8b%/(#@A'
p35
tp36
Rp37
ag10
(g14
S'\xc6\xae\x00\xd9H#@A'
p38
tp39
Rp40
ag10
(g14
S'4\xc1\x83\xb9\xee"@A'
p41
tp42
Rp43
ag10
(g14
S'>5^\n\xfd"@A'
p44
tp45
Rp46
ag10
(g14
S'\x9b\xef\xa7\x16\x89"@A'
p47
tp48
Rp49
ag10
(g14
S'\xbc\xd7\\H\xb5"@A'
p50
tp51
Rp52
ag10
(g14
S"\xe9mY+'#@A"
p53
tp54
Rp55
ag10
(g14
S'\xa6\xb7e]`"@A'
p56
tp57
Rp58
ag10
(g14
S'Z\x80\xdc\xcba#@A'
p59
tp60
Rp61
ag10
(g14
S'\xba-k\x95z"@A'
p62
tp63
Rp64
ag10
(g14
S'0\xb2\x9d\x9f6#@A'
p65
tp66
Rp67
ag10
(g14
S'&\x06\x81\xb5.#@A'
p68
tp69
Rp70
ag10
(g14
S'\x91\xa6T<C$@A'
p71
tp72
Rp73
ag10
(g14
S'\x01\xb9\xd7lV#@A'
p74
tp75
Rp76
asS'target'
p77
(lp78
g10
(g14
S'\x98{\xcd\x85\xa4yZ@'
p79
tp80
Rp81
ag10
(g14
S'\xac\x9b\xc4 \xb0\n\\@'
p82
tp83
Rp84
ag10
(g14
S']\x8f\xc2\xf5(\x84[@'
p85
tp86
Rp87
ag10
(g14
S'\xe4\xd0"\xdb\xf9&\\@'
p88
tp89
Rp90
ag10
(g14
S'\xa1n\x12\x83\xc0r]@'
p91
tp92
Rp93
ag10
(g14
S'?\x0c\x02+\x87JZ@'
p94
tp95
Rp96
ag10
(g14
S'B\x0c\x02+\x87\xa6Y@'
p97
tp98
Rp99
ag10
(g14
S'Pb\x10X9\xc4[@'
p100
tp101
Rp102
ag10
(g14
S'^\xbaI\x0c\x02\xc3[@'
p103
tp104
Rp105
ag10
(g14
S'\xb0\xf1\xd2Mb\xc0\\@'
p106
tp107
Rp108
ag10
(g14
S'\xa0\x99\x99\x99\x99\xd1]@'
p109
tp110
Rp111
ag10
(g14
S'\xe0\xf9~j\xbc\x8cZ@'
p112
tp113
Rp114
ag10
(g14
S'\xe7&1\x08\xac\xec[@'
p115
tp116
Rp117
ag10
(g14
S'Nd;\xdfO\x99\\@'
p118
tp119
Rp120
ag10
(g14
S'\xaa\x9b\xc4 \xb0\xe6[@'
p121
tp122
Rp123
ag10
(g14
S' \xb0rh\x91\xedZ@'
p124
tp125
Rp126
ag10
(g14
S'\x13X9\xb4\xc86[@'
p127
tp128
Rp129
ag10
(g14
S'p\x91\xed|?\x9dZ@'
p130
tp131
Rp132
ag10
(g14
S'h\xe7\xfb\xa9\xf12[@'
p133
tp134
Rp135
ag10
(g14
S'j\xbct\x93\x18\xccZ@'
p136
tp137
Rp138
asssss.