(dp0
S'../Data/sqlite_1.csv'
p1
(dp2
S'../Data/sqlite_64.csv'
p3
(dp4
F0.1
(dp5
S'abs_res'
p6
(dp7
S'bellwether'
p8
(lp9
cnumpy.core.multiarray
scalar
p10
(cnumpy
dtype
p11
(S'f8'
p12
I0
I1
tp13
Rp14
(I3
S'<'
p15
NNNI-1
I-1
I0
tp16
bS'\xd4\xcc\xcc\x9cn8AA'
p17
tp18
Rp19
ag10
(g14
S'\xfe\xa9\xf1r\xb58AA'
p20
tp21
Rp22
ag10
(g14
S'\xf9~j\x0c\xff7AA'
p23
tp24
Rp25
ag10
(g14
S'\x88\x88\x88\x18m8AA'
p26
tp27
Rp28
ag10
(g14
S'\x83j\xbc\xf4`8AA'
p29
tp30
Rp31
ag10
(g14
S'y=\nw\x138AA'
p32
tp33
Rp34
ag10
(g14
S'?\xdfOM_8AA'
p35
tp36
Rp37
ag10
(g14
S'7\x08\xac\x0c\x1e8AA'
p38
tp39
Rp40
ag10
(g14
S'\xd9MbP`8AA'
p41
tp42
Rp43
ag10
(g14
S'\xee\x98\xe0a\x148AA'
p44
tp45
Rp46
ag10
(g14
S'\x10-\xb2\xdd\x958AA'
p47
tp48
Rp49
ag10
(g14
S'*\xb0r\x18W8AA'
p50
tp51
Rp52
ag10
(g14
S'\xc0t\x93\x98\xd08AA'
p53
tp54
Rp55
ag10
(g14
S'433\x03\xb08AA'
p56
tp57
Rp58
ag10
(g14
S'!Zd;\x058AA'
p59
tp60
Rp61
ag10
(g14
S'\xdc\xea\x98\x80\xbf7AA'
p62
tp63
Rp64
ag10
(g14
S'\x02\x00\x00p\x1e8AA'
p65
tp66
Rp67
ag10
(g14
S'O\x8d\x97>T8AA'
p68
tp69
Rp70
ag10
(g14
S'\x9d\xe0\xc1\xdcT8AA'
p71
tp72
Rp73
ag10
(g14
S'\xcd\xa1E\x06\xbd7AA'
p74
tp75
Rp76
asS'target'
p77
(lp78
g10
(g14
S'?5^\xbaI\x04z@'
p79
tp80
Rp81
ag10
(g14
S'"\x04V\x0e-,x@'
p82
tp83
Rp84
ag10
(g14
S'\xe5\xa5\x9b\xc4 \x1ey@'
p85
tp86
Rp87
ag10
(g14
S'w\xebQ\xb8\x1e=y@'
p88
tp89
Rp90
ag10
(g14
S'\x00\xac\x1cZds~@'
p91
tp92
Rp93
ag10
(g14
S'9\x08\xac\x1cZ\xfa{@'
p94
tp95
Rp96
ag10
(g14
S'\x83l\xe7\xfb\xa9\x1bz@'
p97
tp98
Rp99
ag10
(g14
S'dffff\x10w@'
p100
tp101
Rp102
ag10
(g14
S'\xd8\xf9~j\xbcLy@'
p103
tp104
Rp105
ag10
(g14
S'\x9bC\x8bl\xe75}@'
p106
tp107
Rp108
ag10
(g14
S'\x1a\xaeG\xe1z${@'
p109
tp110
Rp111
ag10
(g14
S'\xfa~j\xbct\xd7|@'
p112
tp113
Rp114
ag10
(g14
S'i\x12\x83\xc0\xca\x05}@'
p115
tp116
Rp117
ag10
(g14
S's\x95C\x8bl\x1d\x7f@'
p118
tp119
Rp120
ag10
(g14
S'"\x06\x81\x95CM{@'
p121
tp122
Rp123
ag10
(g14
S'\xbe \xb0rh\xc3~@'
p124
tp125
Rp126
ag10
(g14
S'gffff\xe2\x7f@'
p127
tp128
Rp129
ag10
(g14
S'\x04\xac\x1cZdCz@'
p130
tp131
Rp132
ag10
(g14
S'\xe8Q\xb8\x1e\x85={@'
p133
tp134
Rp135
ag10
(g14
S'\xf7|?5^\xdav@'
p136
tp137
Rp138
asssss.