(dp0
S'../Data/sqlite_15.csv'
p1
(dp2
S'../Data/sqlite_85.csv'
p3
(dp4
F0.2
(dp5
S'abs_res'
p6
(dp7
S'bellwether'
p8
(lp9
cnumpy.core.multiarray
scalar
p10
(cnumpy
dtype
p11
(S'f8'
p12
I0
I1
tp13
Rp14
(I3
S'<'
p15
NNNI-1
I-1
I0
tp16
bS'4\x96\xfcbX:NA'
p17
tp18
Rp19
ag10
(g14
S'\xd4@\xa7\xcd\x959NA'
p20
tp21
Rp22
ag10
(g14
S'\xbcX\xf2KjRNA'
p23
tp24
Rp25
ag10
(g14
S'\x88_,\x19\x01`NA'
p26
tp27
Rp28
ag10
(g14
S'\xafG\xe1ZC*NA'
p29
tp30
Rp31
ag10
(g14
S'\x1a\xe8\xb4apmNA'
p32
tp33
Rp34
ag10
(g14
S'\xfeb\xc9okVNA'
p35
tp36
Rp37
ag10
(g14
S'K\x1b\xe8\x94vGNA'
p38
tp39
Rp40
ag10
(g14
S'o\xa0\xd3&$QNA'
p41
tp42
Rp43
ag10
(g14
S'\xfb\x8b%\xbft8NA'
p44
tp45
Rp46
ag10
(g14
S't\x14\xae\x87\xb5KNA'
p47
tp48
Rp49
ag10
(g14
S'\x0bt\xda\xc0V_NA'
p50
tp51
Rp52
ag10
(g14
S'\x0f\x11\x11\xd1\xc0MNA'
p53
tp54
Rp55
ag10
(g14
S'\xa4\xd3\x06ZD#NA'
p56
tp57
Rp58
ag10
(g14
S'!\xbfX\x12r\x1dNA'
p59
tp60
Rp61
ag10
(g14
S'\xef\x8b%_\xcc+NA'
p62
tp63
Rp64
ag10
(g14
S'L\x1b\xe8t\x05VNA'
p65
tp66
Rp67
ag10
(g14
S'\xe4\xb4\x81n\x94$NA'
p68
tp69
Rp70
ag10
(g14
S'\x98\xfcb)<\x90NA'
p71
tp72
Rp73
ag10
(g14
S'&\xbfX\x92\xdd\x80NA'
p74
tp75
Rp76
asS'target'
p77
(lp78
g10
(g14
S'\xb9\x1e\x85\x0b6\xac@A'
p79
tp80
Rp81
ag10
(g14
S'*\\\x8f\xc2^@BA'
p82
tp83
Rp84
ag10
(g14
S'\x14\xaeG\xa1\n\xa1DA'
p85
tp86
Rp87
ag10
(g14
S'!\x85\xeb\xf1\xda^@A'
p88
tp89
Rp90
ag10
(g14
S'\xb3\x1e\x85\xeb(\xf3?A'
p91
tp92
Rp93
ag10
(g14
S'\xddz\x14N\x7f\x9d@A'
p94
tp95
Rp96
ag10
(g14
S'O\xb8\x1e\xe5\x05"@A'
p97
tp98
Rp99
ag10
(g14
S'"\\\x8fB\xf6\x05AA'
p100
tp101
Rp102
ag10
(g14
S'4333\x8a\xc2?A'
p103
tp104
Rp105
ag10
(g14
S'\xb6\x1e\x85KT3AA'
p106
tp107
Rp108
ag10
(g14
S'\xa7p=\x8a\x82\xc7@A'
p109
tp110
Rp111
ag10
(g14
S'\xd3\xa3p}\x8evCA'
p112
tp113
Rp114
ag10
(g14
S'iffF\x82MAA'
p115
tp116
Rp117
ag10
(g14
S'fff\x06`\xee@A'
p118
tp119
Rp120
ag10
(g14
S'\xf5(\\o\xcf\x0fAA'
p121
tp122
Rp123
ag10
(g14
S'\xd4\xa3p\x9d\xd8\x8eBA'
p124
tp125
Rp126
ag10
(g14
S'nff\x06U\rAA'
p127
tp128
Rp129
ag10
(g14
S'\x8a\xc2\xf5(=\x99AA'
p130
tp131
Rp132
ag10
(g14
S'_\x8f\xc2UA#AA'
p133
tp134
Rp135
ag10
(g14
S'\xa6p=j\xc9e@A'
p136
tp137
Rp138
asssss.