(dp0
S'../Data/sqlite_15.csv'
p1
(dp2
S'../Data/sqlite_35.csv'
p3
(dp4
F0.15
(dp5
S'abs_res'
p6
(dp7
S'bellwether'
p8
(lp9
cnumpy.core.multiarray
scalar
p10
(cnumpy
dtype
p11
(S'f8'
p12
I0
I1
tp13
Rp14
(I3
S'<'
p15
NNNI-1
I-1
I0
tp16
bS'\x91\x18\x04F\x1e"@A'
p17
tp18
Rp19
ag10
(g14
S'\xc4 \xb0\xa2%"@A'
p20
tp21
Rp22
ag10
(g14
S'6\x89AP\x92"@A'
p23
tp24
Rp25
ag10
(g14
S'\x97\xfcb\t\xca!@A'
p26
tp27
Rp28
ag10
(g14
S'+\xdd$v\x91!@A'
p29
tp30
Rp31
ag10
(g14
S'\xda\xf9~z3"@A'
p32
tp33
Rp34
ag10
(g14
S'\xd5\x87\xcf`\xed!@A'
p35
tp36
Rp37
ag10
(g14
S'%\xa3\xb7e`"@A'
p38
tp39
Rp40
ag10
(g14
S'\x9c\xc4 \x80\x8e!@A'
p41
tp42
Rp43
ag10
(g14
S'eff\xa6\xa3!@A'
p44
tp45
Rp46
ag10
(g14
S'\x1dZd\xfb\xbf!@A'
p47
tp48
Rp49
ag10
(g14
S'2^\xba)9"@A'
p50
tp51
Rp52
ag10
(g14
S'\x11-\xb2=k"@A'
p53
tp54
Rp55
ag10
(g14
S'\x1c\xe8\xb41x!@A'
p56
tp57
Rp58
ag10
(g14
S'zL\xf0\x90E"@A'
p59
tp60
Rp61
ag10
(g14
S'\xe4&18#"@A'
p62
tp63
Rp64
ag10
(g14
S'\x08:m\xd0\x9b"@A'
p65
tp66
Rp67
ag10
(g14
S'EDD4\xcc!@A'
p68
tp69
Rp70
ag10
(g14
S'\xf8(\\o\xcb!@A'
p71
tp72
Rp73
ag10
(g14
S'\t\x90{\xdd "@A'
p74
tp75
Rp76
asS'target'
p77
(lp78
g10
(g14
S'6\xb4\xc8v\xbe\xc7a@'
p79
tp80
Rp81
ag10
(g14
S'\x07\xac\x1cZd\x83^@'
p82
tp83
Rp84
ag10
(g14
S'\xbaI\x0c\x02+k`@'
p85
tp86
Rp87
ag10
(g14
S'\x8b\x97n\x12\x838_@'
p88
tp89
Rp90
ag10
(g14
S'\x9b\x1a/\xdd$\xe2`@'
p91
tp92
Rp93
ag10
(g14
S'=`\xe5\xd0"\xa3a@'
p94
tp95
Rp96
ag10
(g14
S'offff\x92a@'
p97
tp98
Rp99
ag10
(g14
S'\xb6\x1e\x85\xebQjb@'
p100
tp101
Rp102
ag10
(g14
S'\xccMb\x10X\xb5a@'
p103
tp104
Rp105
ag10
(g14
S'\xdeO\x8d\x97n~`@'
p106
tp107
Rp108
ag10
(g14
S'"/\xdd$\x06\x05`@'
p109
tp110
Rp111
ag10
(g14
S'\x07+\x87\x16\xd9(a@'
p112
tp113
Rp114
ag10
(g14
S'\xb1\xf1\xd2Mb\xb0_@'
p115
tp116
Rp117
ag10
(g14
S'R\xe3\xa5\x9b\xc4\xa8`@'
p118
tp119
Rp120
ag10
(g14
S'\xca\xf7S\xe3\xa5\xe3`@'
p121
tp122
Rp123
ag10
(g14
S'\xdc\xd0"\xdb\xf9"b@'
p124
tp125
Rp126
ag10
(g14
S'\xef\xfd\xd4x\xe9\xe6`@'
p127
tp128
Rp129
ag10
(g14
S'P\x0e-\xb2\x9d\x03c@'
p130
tp131
Rp132
ag10
(g14
S'-\xdd$\x06\x81\xf1`@'
p133
tp134
Rp135
ag10
(g14
S'\xc5K7\x89A\xd4a@'
p136
tp137
Rp138
asssss.