(dp0
S'../Data/sqlite_43.csv'
p1
(dp2
S'../Data/sqlite_48.csv'
p3
(dp4
F0.3
(dp5
S'abs_res'
p6
(dp7
S'bellwether'
p8
(lp9
cnumpy.core.multiarray
scalar
p10
(cnumpy
dtype
p11
(S'f8'
p12
I0
I1
tp13
Rp14
(I3
S'<'
p15
NNNI-1
I-1
I0
tp16
bS'g\xbct\x93Qi:A'
p17
tp18
Rp19
ag10
(g14
S'133\x13%i:A'
p20
tp21
Rp22
ag10
(g14
S'\xbf\xe6B2"j:A'
p23
tp24
Rp25
ag10
(g14
S'\xd8x\xe9\xa6\xdeh:A'
p26
tp27
Rp28
ag10
(g14
S'\xcc\x13\xf5OJh:A'
p29
tp30
Rp31
ag10
(g14
S'_\x01r\xef\xd6i:A'
p32
tp33
Rp34
ag10
(g14
S'\x1dv\x05Hkh:A'
p35
tp36
Rp37
ag10
(g14
S'#x0o\xdah:A'
p38
tp39
Rp40
ag10
(g14
S'\x91{\xcd\xe5`i:A'
p41
tp42
Rp43
ag10
(g14
S'2\x89A\x80Di:A'
p44
tp45
Rp46
ag10
(g14
S'\xbe\xca\xa1e"k:A'
p47
tp48
Rp49
ag10
(g14
S'\x87A`\x05Ri:A'
p50
tp51
Rp52
ag10
(g14
S'kY\xabC\x9dh:A'
p53
tp54
Rp55
ag10
(g14
S'\x00+\x87\xb6\xceg:A'
p56
tp57
Rp58
ag10
(g14
S'\x1b \xf7\x1a\xfdi:A'
p59
tp60
Rp61
ag10
(g14
S'\xc0\xca\xa1\xc5\x0bi:A'
p62
tp63
Rp64
ag10
(g14
S'l\xda@\x87\x98i:A'
p65
tp66
Rp67
ag10
(g14
S'\xb7\xe4\x17\x8bRj:A'
p68
tp69
Rp70
ag10
(g14
S'\x0f\xbb\x02d\x0bi:A'
p71
tp72
Rp73
ag10
(g14
S'\xfe\xa9\xf12\xc5i:A'
p74
tp75
Rp76
asS'target'
p77
(lp78
g10
(g14
S'Y\x8d\x97n\x12/o@'
p79
tp80
Rp81
ag10
(g14
S'#\xdb\xf9~j\xaep@'
p82
tp83
Rp84
ag10
(g14
S'f\x10X9\xb4\xbcn@'
p85
tp86
Rp87
ag10
(g14
S'\xec\xfd\xd4x\xe9\x8am@'
p88
tp89
Rp90
ag10
(g14
S'\x11\xaeG\xe1z`o@'
p91
tp92
Rp93
ag10
(g14
S'Z\xb8\x1e\x85\xeb%o@'
p94
tp95
Rp96
ag10
(g14
S'4\x87\x16\xd9\xce\xe7m@'
p97
tp98
Rp99
ag10
(g14
S'\xf5\xa7\xc6K7\x85o@'
p100
tp101
Rp102
ag10
(g14
S'\xf2(\\\x8f\xc2\x0bo@'
p103
tp104
Rp105
ag10
(g14
S'\x9ep=\n\xd7\x97p@'
p106
tp107
Rp108
ag10
(g14
S'\xaa\x1cZd;wp@'
p109
tp110
Rp111
ag10
(g14
S'\xa1\xef\xa7\xc6K\x99p@'
p112
tp113
Rp114
ag10
(g14
S's\x12\x83\xc0\xcaYo@'
p115
tp116
Rp117
ag10
(g14
S'\xa6\x99\x99\x99\x99io@'
p118
tp119
Rp120
ag10
(g14
S'S9\xb4\xc8v\x98p@'
p121
tp122
Rp123
ag10
(g14
S'Mb\x10X96p@'
p124
tp125
Rp126
ag10
(g14
S'\x83?5^\xbaao@'
p127
tp128
Rp129
ag10
(g14
S'\x00\xd7\xa3p=\x1ao@'
p130
tp131
Rp132
ag10
(g14
S't=\n\xd7\xa3\xc6n@'
p133
tp134
Rp135
ag10
(g14
S'\xe5x\xe9&1Tn@'
p136
tp137
Rp138
asssss.