(dp0
S'../Data/sqlite_7.csv'
p1
(dp2
S'../Data/sqlite_79.csv'
p3
(dp4
F0.4
(dp5
S'mmre'
p6
(dp7
S'bellwether'
p8
(lp9
cnumpy.core.multiarray
scalar
p10
(cnumpy
dtype
p11
(S'f8'
p12
I0
I1
tp13
Rp14
(I3
S'<'
p15
NNNI-1
I-1
I0
tp16
bS'x\xe6v\xb5yOy@'
p17
tp18
Rp19
ag10
(g14
S'-\x9d\xcacB<y@'
p20
tp21
Rp22
ag10
(g14
S'\xa9\x00\xa1[oGy@'
p23
tp24
Rp25
ag10
(g14
S';\xdfBba=y@'
p26
tp27
Rp28
ag10
(g14
S'As\x84_\xb99y@'
p29
tp30
Rp31
ag10
(g14
S'\x84f\xc8\x89g*y@'
p32
tp33
Rp34
ag10
(g14
S'\xa0\xb9\xect\xad6y@'
p35
tp36
Rp37
ag10
(g14
S')Y\x17^\x084y@'
p38
tp39
Rp40
ag10
(g14
S'Q\xe06\xb5p<y@'
p41
tp42
Rp43
ag10
(g14
S'\xd5\xe8j\xcb\x1b:y@'
p44
tp45
Rp46
ag10
(g14
S'6\x1d>E?Ly@'
p47
tp48
Rp49
ag10
(g14
S'\x9aW\xaeM\x7f=y@'
p50
tp51
Rp52
ag10
(g14
S'\x07\x14aQ*Wy@'
p53
tp54
Rp55
ag10
(g14
S'|\n\x7f\xc3\x93>y@'
p56
tp57
Rp58
ag10
(g14
S'<\xbdm2a2y@'
p59
tp60
Rp61
ag10
(g14
S'E\xee\ts]Ty@'
p62
tp63
Rp64
ag10
(g14
S'\xaf\xbb\x0e!lNy@'
p65
tp66
Rp67
ag10
(g14
S'\xcc\x04\xe9\xe5VNy@'
p68
tp69
Rp70
ag10
(g14
S'\xa6\x8f\x8a\x96>@y@'
p71
tp72
Rp73
ag10
(g14
S'{\x1dUOVLy@'
p74
tp75
Rp76
asS'target'
p77
(lp78
g10
(g14
S'\xa5\tXAs\x87%@'
p79
tp80
Rp81
ag10
(g14
S'\xfd\x80{K\xd0` @'
p82
tp83
Rp84
ag10
(g14
S'_\x1a$\x91\x1e\xf0#@'
p85
tp86
Rp87
ag10
(g14
S'\xbbK\xa8*\x94\xc1 @'
p88
tp89
Rp90
ag10
(g14
S'\xabNo[\x12\x9c\x1f@'
p91
tp92
Rp93
ag10
(g14
S'V\x1b\xe1q\xff\x05 @'
p94
tp95
Rp96
ag10
(g14
S'\xca\x9f\x03\x06.\x82 @'
p97
tp98
Rp99
ag10
(g14
S'\xed\xf7\xfd>k\x19!@'
p100
tp101
Rp102
ag10
(g14
S'6\x88\x0c\xdd\xb1\xad"@'
p103
tp104
Rp105
ag10
(g14
S'.\x8c\x89-\xe9\xb8\x1d@'
p106
tp107
Rp108
ag10
(g14
S'Y\xb6JJN\xf3"@'
p109
tp110
Rp111
ag10
(g14
S'\xfc\x0e\x9aJ/\x1a!@'
p112
tp113
Rp114
ag10
(g14
S'\x84X\xa4*#x#@'
p115
tp116
Rp117
ag10
(g14
S'2X\x81\x11\x11\x7f!@'
p118
tp119
Rp120
ag10
(g14
S'P}\xbf\xa5\xd0\x00\x1d@'
p121
tp122
Rp123
ag10
(g14
S'\xef\x89z\x9a\x12}&@'
p124
tp125
Rp126
ag10
(g14
S'Z\xb2\x87\xa4\x1f_ @'
p127
tp128
Rp129
ag10
(g14
S'\xf7w\xe7\x96\x16p&@'
p130
tp131
Rp132
ag10
(g14
S'\x83.\x86\xfa\x19\xe0 @'
p133
tp134
Rp135
ag10
(g14
S'}J\xa4\x01\x16\x8f\x1f@'
p136
tp137
Rp138
asssss.