(dp0
S'../Data/sqlite_30.csv'
p1
(dp2
S'../Data/sqlite_78.csv'
p3
(dp4
F0.4
(dp5
S'mmre'
p6
(dp7
S'bellwether'
p8
(lp9
cnumpy.core.multiarray
scalar
p10
(cnumpy
dtype
p11
(S'f8'
p12
I0
I1
tp13
Rp14
(I3
S'<'
p15
NNNI-1
I-1
I0
tp16
bS'\xa6g\xa2_=_T@'
p17
tp18
Rp19
ag10
(g14
S'\x99\x1d\xffs\xc4ST@'
p20
tp21
Rp22
ag10
(g14
S'\xe5\xd9\x1b\xebFZT@'
p23
tp24
Rp25
ag10
(g14
S'X\xb2\r\x9d\x93^T@'
p26
tp27
Rp28
ag10
(g14
S'=VH\xed@XT@'
p29
tp30
Rp31
ag10
(g14
S's\xff\xd1,n[T@'
p32
tp33
Rp34
ag10
(g14
S'\x90_J\xf4rTT@'
p35
tp36
Rp37
ag10
(g14
S'-Y\xc8\xa9\xa8[T@'
p38
tp39
Rp40
ag10
(g14
S'\xf0\xc1i0"_T@'
p41
tp42
Rp43
ag10
(g14
S'Yl\x0f3\x86[T@'
p44
tp45
Rp46
ag10
(g14
S'!\xcb\xbce\n^T@'
p47
tp48
Rp49
ag10
(g14
S'^g\x0f\x16o`T@'
p50
tp51
Rp52
ag10
(g14
S'o\x16\xfa\x9a\xa0_T@'
p53
tp54
Rp55
ag10
(g14
S'\x91\xff\x05-IZT@'
p56
tp57
Rp58
ag10
(g14
S'3*\xa8\x172VT@'
p59
tp60
Rp61
ag10
(g14
S'\xa2n\x8e\xde\xa1aT@'
p62
tp63
Rp64
ag10
(g14
S'\x15M\xfe\xbb%]T@'
p65
tp66
Rp67
ag10
(g14
S'\xf3,\xd8\xaf\xb9XT@'
p68
tp69
Rp70
ag10
(g14
S'\xccG\xf9\xa9\x8dbT@'
p71
tp72
Rp73
ag10
(g14
S'\xe5;\t\x0c\x7fdT@'
p74
tp75
Rp76
asS'target'
p77
(lp78
g10
(g14
S'\x826\\A\xb3\xd93@'
p79
tp80
Rp81
ag10
(g14
S'}+\xde=\x97B4@'
p82
tp83
Rp84
ag10
(g14
S'o\xf4\xf5i\xa7\x984@'
p85
tp86
Rp87
ag10
(g14
S'\xf0\x91\x82\xf0\x7f\xd02@'
p88
tp89
Rp90
ag10
(g14
S'\xc5\xb5\x1b\xcdv\xb74@'
p91
tp92
Rp93
ag10
(g14
S'\xf8S\xe7"[\x892@'
p94
tp95
Rp96
ag10
(g14
S'\xe8V%N\x8f\x9b3@'
p97
tp98
Rp99
ag10
(g14
S'VgZ\x816e3@'
p100
tp101
Rp102
ag10
(g14
S'\x84&\xe2\xa2C\xbe3@'
p103
tp104
Rp105
ag10
(g14
S'\xa1\xdb$\xe3\xb9b3@'
p106
tp107
Rp108
ag10
(g14
S'L\xdf\xd3\x1e1\x1d4@'
p109
tp110
Rp111
ag10
(g14
S'\xfcxD9\xb6-4@'
p112
tp113
Rp114
ag10
(g14
S'\x10\x14\xa1Nc<4@'
p115
tp116
Rp117
ag10
(g14
S'P\xcbZD\x91\r3@'
p118
tp119
Rp120
ag10
(g14
S'K\x9e\xde|\x1e\xbf3@'
p121
tp122
Rp123
ag10
(g14
S'Zu\xd4\xc0\x13\x9e4@'
p124
tp125
Rp126
ag10
(g14
S'\x0c4\xe6\xdb3\xe44@'
p127
tp128
Rp129
ag10
(g14
S'\xd9\xd6\x81\xbe\xd5\xb83@'
p130
tp131
Rp132
ag10
(g14
S">\x02'\x974p3@"
p133
tp134
Rp135
ag10
(g14
S'\xf7\xd1p\xbc\x99\xaa2@'
p136
tp137
Rp138
asssss.