(dp0
S'../Data/sqlite_73.csv'
p1
(dp2
S'../Data/sqlite_94.csv'
p3
(dp4
F0.15
(dp5
S'mmre'
p6
(dp7
S'bellwether'
p8
(lp9
cnumpy.core.multiarray
scalar
p10
(cnumpy
dtype
p11
(S'f8'
p12
I0
I1
tp13
Rp14
(I3
S'<'
p15
NNNI-1
I-1
I0
tp16
bS'?\xfeoE\xa0jW@'
p17
tp18
Rp19
ag10
(g14
S'q>\xd3\x08+jW@'
p20
tp21
Rp22
ag10
(g14
S'&K/\xd8\x08gW@'
p23
tp24
Rp25
ag10
(g14
S'2(\x9e$\x18iW@'
p26
tp27
Rp28
ag10
(g14
S'\xd0\x08.FNiW@'
p29
tp30
Rp31
ag10
(g14
S'\xc5!=\xe8\x9afW@'
p32
tp33
Rp34
ag10
(g14
S'\xe8\xa0\xc1i\xd7cW@'
p35
tp36
Rp37
ag10
(g14
S'W\x9aa\xab]dW@'
p38
tp39
Rp40
ag10
(g14
S"\t\xa5'X\x17gW@"
p41
tp42
Rp43
ag10
(g14
S'\x18\xf8X\xbcthW@'
p44
tp45
Rp46
ag10
(g14
S'\x0b%Ah\xecgW@'
p47
tp48
Rp49
ag10
(g14
S'\xe8;\xec\xea\x95eW@'
p50
tp51
Rp52
ag10
(g14
S'LF\xd4\x9a\xc5dW@'
p53
tp54
Rp55
ag10
(g14
S'\x88O\xa5\xc9\xdbgW@'
p56
tp57
Rp58
ag10
(g14
S'sr\x94fngW@'
p59
tp60
Rp61
ag10
(g14
S'\xedA\\\xb7\xbcfW@'
p62
tp63
Rp64
ag10
(g14
S'\x8d_\xdd\xd9\xc1eW@'
p65
tp66
Rp67
ag10
(g14
S'|\x91\xce\xad\xadjW@'
p68
tp69
Rp70
ag10
(g14
S'\xef3E\xb71fW@'
p71
tp72
Rp73
ag10
(g14
S'\xfb\x80\x80\xc9\xfcdW@'
p74
tp75
Rp76
asS'target'
p77
(lp78
g10
(g14
S'\x0e.1\xa7\xb6\xfbC@'
p79
tp80
Rp81
ag10
(g14
S'%B\xc4|\xfc6R@'
p82
tp83
Rp84
ag10
(g14
S'Mr\x99\x88\x850I@'
p85
tp86
Rp87
ag10
(g14
S';\x08\xcd\xfb\xb1CM@'
p88
tp89
Rp90
ag10
(g14
S'\xd8\x1a\x9a\x87\xb4\xe1J@'
p91
tp92
Rp93
ag10
(g14
S'\x99\xaeF]N\xfdT@'
p94
tp95
Rp96
ag10
(g14
S'\xaau#9]dX@'
p97
tp98
Rp99
ag10
(g14
S'\xb6e\x85\xcf\x97\x08]@'
p100
tp101
Rp102
ag10
(g14
S'\xd3\xd9\xfa3p\xe9X@'
p103
tp104
Rp105
ag10
(g14
S'\x1e\x7f}Qz\x8dG@'
p106
tp107
Rp108
ag10
(g14
S'\xe7Pz\xec\xf06U@'
p109
tp110
Rp111
ag10
(g14
S',\xbaoE|\x9fR@'
p112
tp113
Rp114
ag10
(g14
S',\xb2\x06%E\rT@'
p115
tp116
Rp117
ag10
(g14
S'5T\xf49\x13\xe5A@'
p118
tp119
Rp120
ag10
(g14
S'\x1e\x0e\x97\xf2\xa5\xc1R@'
p121
tp122
Rp123
ag10
(g14
S'\xa2\x12\x08\xce7\xb5W@'
p124
tp125
Rp126
ag10
(g14
S'B\x93\xc1f7\xadP@'
p127
tp128
Rp129
ag10
(g14
S'J~\x83\xf9\xd3dQ@'
p130
tp131
Rp132
ag10
(g14
S"x\xbd\xfbMz'R@"
p133
tp134
Rp135
ag10
(g14
S'\x13(r\x11\x0b\xceK@'
p136
tp137
Rp138
asssss.