(dp0
S'../Data/sqlite_51.csv'
p1
(dp2
S'../Data/sqlite_89.csv'
p3
(dp4
F0.4
(dp5
S'mmre'
p6
(dp7
S'bellwether'
p8
(lp9
cnumpy.core.multiarray
scalar
p10
(cnumpy
dtype
p11
(S'f8'
p12
I0
I1
tp13
Rp14
(I3
S'<'
p15
NNNI-1
I-1
I0
tp16
bS'\x10Q\xcfNwSV@'
p17
tp18
Rp19
ag10
(g14
S'\xfb\\\x07\xa7\xf2[V@'
p20
tp21
Rp22
ag10
(g14
S'U\xfeBI\x9c[V@'
p23
tp24
Rp25
ag10
(g14
S'\x91kP\xbf\x05YV@'
p26
tp27
Rp28
ag10
(g14
S'\xcb\x05a\x8d\xfc]V@'
p29
tp30
Rp31
ag10
(g14
S'p\xb7\xd1\xd4\xb9QV@'
p32
tp33
Rp34
ag10
(g14
S'\xf8_\xe1\x0f\xc6WV@'
p35
tp36
Rp37
ag10
(g14
S'\x05\xf0\xf5>\x10TV@'
p38
tp39
Rp40
ag10
(g14
S'j\xb5\x81n [V@'
p41
tp42
Rp43
ag10
(g14
S'\xa06\x0eY\x9bUV@'
p44
tp45
Rp46
ag10
(g14
S'\xe7\xf3\xaaucXV@'
p47
tp48
Rp49
ag10
(g14
S'\xec\xd0\xb8\xdatSV@'
p50
tp51
Rp52
ag10
(g14
S'\xbd3\xa3\xb9*SV@'
p53
tp54
Rp55
ag10
(g14
S'm\xc0[.lTV@'
p56
tp57
Rp58
ag10
(g14
S'\x80\xf5`y\x89ZV@'
p59
tp60
Rp61
ag10
(g14
S'/\x92R\x05\xdefV@'
p62
tp63
Rp64
ag10
(g14
S'\x0c\x99\xc0\xa9=[V@'
p65
tp66
Rp67
ag10
(g14
S'P\xcdi"\x82QV@'
p68
tp69
Rp70
ag10
(g14
S'\x9e\x88O\xfc4XV@'
p71
tp72
Rp73
ag10
(g14
S'\xd0\x00\xe2\xbd\x1b_V@'
p74
tp75
Rp76
asS'target'
p77
(lp78
g10
(g14
S'<\xd4\x08*\xba\xc0Q@'
p79
tp80
Rp81
ag10
(g14
S'[v\t\x0c\xef\xd2S@'
p82
tp83
Rp84
ag10
(g14
S'e\xfe^\xc4`\x8cQ@'
p85
tp86
Rp87
ag10
(g14
S'\xb6\xc4\x13\x08\xa2\xffR@'
p88
tp89
Rp90
ag10
(g14
S'\x82\xfd\x8c\x08gQT@'
p91
tp92
Rp93
ag10
(g14
S'p>*\x99#XQ@'
p94
tp95
Rp96
ag10
(g14
S'\xfe\x94#S\x90\xc1N@'
p97
tp98
Rp99
ag10
(g14
S'\x16\xaa6/\xed\xbaT@'
p100
tp101
Rp102
ag10
(g14
S'\x9a>\xa7i\x0e\xdcQ@'
p103
tp104
Rp105
ag10
(g14
S'\x11\xec\x11?3#N@'
p106
tp107
Rp108
ag10
(g14
S'\xe8\\5F1 M@'
p109
tp110
Rp111
ag10
(g14
S'\x82\x8d\xedM\n\xdfP@'
p112
tp113
Rp114
ag10
(g14
S'\xc3.t\xa6\xd5\xdfP@'
p115
tp116
Rp117
ag10
(g14
S'\x90!\r(E\xeaP@'
p118
tp119
Rp120
ag10
(g14
S'\x96\xdc\xc0\xf2\xc8\xe8O@'
p121
tp122
Rp123
ag10
(g14
S'\x0e\xee\xa9x\xd6^L@'
p124
tp125
Rp126
ag10
(g14
S'\xdd}F\xceT\xe4P@'
p127
tp128
Rp129
ag10
(g14
S')\xdaZ\x01.\xe5R@'
p130
tp131
Rp132
ag10
(g14
S'\xecg\xfc+JUQ@'
p133
tp134
Rp135
ag10
(g14
S'\x9e\x9f2"\'{S@'
p136
tp137
Rp138
asssss.