(dp0
S'../Data/sqlite_66.csv'
p1
(dp2
S'../Data/sqlite_50.csv'
p3
(dp4
F0.1
(dp5
S'abs_res'
p6
(dp7
S'bellwether'
p8
(lp9
cnumpy.core.multiarray
scalar
p10
(cnumpy
dtype
p11
(S'f8'
p12
I0
I1
tp13
Rp14
(I3
S'<'
p15
NNNI-1
I-1
I0
tp16
bS'+\xdd$\xc6\x90?#A'
p17
tp18
Rp19
ag10
(g14
S'm\x12\x83\xc0\x18@#A'
p20
tp21
Rp22
ag10
(g14
S'\x8e\x18\x04V\x07@#A'
p23
tp24
Rp25
ag10
(g14
S' \x85\xeb\x11C@#A'
p26
tp27
Rp28
ag10
(g14
S'\xd7\xf9~*\xb7@#A'
p29
tp30
Rp31
ag10
(g14
S'\xba\xf3\xfdT1@#A'
p32
tp33
Rp34
ag10
(g14
S'\xaa\xc6K\xf7F@#A'
p35
tp36
Rp37
ag10
(g14
S'\xc8\x85\xa4in@#A'
p38
tp39
Rp40
ag10
(g14
S'\x86\x16\xd9N\xda@#A'
p41
tp42
Rp43
ag10
(g14
S'}\xe9&\xf1G@#A'
p44
tp45
Rp46
ag10
(g14
S'0\xb2\x9do9@#A'
p47
tp48
Rp49
ag10
(g14
S'\xb9e\xad\x0e\xb7@#A'
p50
tp51
Rp52
ag10
(g14
S'\xcc\xcc\xccL^@#A'
p53
tp54
Rp55
ag10
(g14
S'\xe9\xdf\x08\xa5\xba@#A'
p56
tp57
Rp58
ag10
(g14
S'X\x8f\xc257@#A'
p59
tp60
Rp61
ag10
(g14
S'\xbcg\xd8\x95MA#A'
p62
tp63
Rp64
ag10
(g14
S'&\xb2\x9dooA#A'
p65
tp66
Rp67
ag10
(g14
S'\x8eA`e/@#A'
p68
tp69
Rp70
ag10
(g14
S'G\x0c\x02\xeb}?#A'
p71
tp72
Rp73
ag10
(g14
S' \xb0r\xa8"@#A'
p74
tp75
Rp76
asS'target'
p77
(lp78
g10
(g14
S'e\x8d\x97n\x12\xab[@'
p79
tp80
Rp81
ag10
(g14
S'fffff\xaea@'
p82
tp83
Rp84
ag10
(g14
S'v?5^\xba\x81Z@'
p85
tp86
Rp87
ag10
(g14
S'\x8aA`\xe5\xd0:[@'
p88
tp89
Rp90
ag10
(g14
S'Z\xbaI\x0c\x02\x0f`@'
p91
tp92
Rp93
ag10
(g14
S'\\\xb8\x1e\x85\xeb\x91^@'
p94
tp95
Rp96
ag10
(g14
S'vffff\xaeZ@'
p97
tp98
Rp99
ag10
(g14
S'\xd4\xcc\xcc\xcc\xcc\x84^@'
p100
tp101
Rp102
ag10
(g14
S'\xaaE\xb6\xf3\xfd,]@'
p103
tp104
Rp105
ag10
(g14
S'[\xb8\x1e\x85\xeba]@'
p106
tp107
Rp108
ag10
(g14
S'\xc9v\xbe\x9f\x1aW_@'
p109
tp110
Rp111
ag10
(g14
S'\xa5\x9b\xc4 \xb0\xb6^@'
p112
tp113
Rp114
ag10
(g14
S'\xed\xa7\xc6K7\xf9^@'
p115
tp116
Rp117
ag10
(g14
S'\x8aC\x8bl\xe7\xab^@'
p118
tp119
Rp120
ag10
(g14
S'-\\\x8f\xc2\xf5XZ@'
p121
tp122
Rp123
ag10
(g14
S'\xc4 \xb0rhE`@'
p124
tp125
Rp126
ag10
(g14
S'\xa3\xef\xa7\xc6K\xb7[@'
p127
tp128
Rp129
ag10
(g14
S'\xe7\xfb\xa9\xf1\xd2Y^@'
p130
tp131
Rp132
ag10
(g14
S't\x91\xed|?\x85[@'
p133
tp134
Rp135
ag10
(g14
S'\xc9\xca\xa1E\xb6\xab\\@'
p136
tp137
Rp138
asssss.