(dp0
S'../Data/sqlite_14.csv'
p1
(dp2
S'../Data/sqlite_86.csv'
p3
(dp4
F0.05
(dp5
S'mmre'
p6
(dp7
S'bellwether'
p8
(lp9
cnumpy.core.multiarray
scalar
p10
(cnumpy
dtype
p11
(S'f8'
p12
I0
I1
tp13
Rp14
(I3
S'<'
p15
NNNI-1
I-1
I0
tp16
bS'\xfc\x9fu\xf2;\x15Z@'
p17
tp18
Rp19
ag10
(g14
S'eMe\x14\x99\x1fZ@'
p20
tp21
Rp22
ag10
(g14
S'e\x89%\xf2\xff3Z@'
p23
tp24
Rp25
ag10
(g14
S'\xd1\x18@\xa8^8Z@'
p26
tp27
Rp28
ag10
(g14
S',(\xb0\xabW\x19Z@'
p29
tp30
Rp31
ag10
(g14
S'\x8c5@\x0b6#Z@'
p32
tp33
Rp34
ag10
(g14
S"\r\x94+P\xc9'Z@"
p35
tp36
Rp37
ag10
(g14
S'?Zq\xe1\x15\x17Z@'
p38
tp39
Rp40
ag10
(g14
S'!\xd3\xe8\x93\xb6\\Z@'
p41
tp42
Rp43
ag10
(g14
S'\x16\x9f.\xb1\x02\x1bZ@'
p44
tp45
Rp46
ag10
(g14
S'\xfa\xefy\x12\xe2:Z@'
p47
tp48
Rp49
ag10
(g14
S'Z:,\x94uJZ@'
p50
tp51
Rp52
ag10
(g14
S'\x9a\x8f\x0eh\xce<Z@'
p53
tp54
Rp55
ag10
(g14
S'\x81\x9b"\xd63@Z@'
p56
tp57
Rp58
ag10
(g14
S'X\xdb\x10\xf2 nZ@'
p59
tp60
Rp61
ag10
(g14
S'0>\xde\x05\x87/Z@'
p62
tp63
Rp64
ag10
(g14
S'\x9dJ\xbd\xc1{?Z@'
p65
tp66
Rp67
ag10
(g14
S'n\xa3cM\x8d>Z@'
p68
tp69
Rp70
ag10
(g14
S'\x95\xeeSI\x9frZ@'
p71
tp72
Rp73
ag10
(g14
S'\x9e\x80O\x19Z0Z@'
p74
tp75
Rp76
asS'target'
p77
(lp78
g10
(g14
S'\xb0\xdf{\x8cNVI@'
p79
tp80
Rp81
ag10
(g14
S'e\x8d.\x1ec5`@'
p82
tp83
Rp84
ag10
(g14
S'\x19\x15X\xd1\xb9KS@'
p85
tp86
Rp87
ag10
(g14
S'\x00y\x1aXB\x86R@'
p88
tp89
Rp90
ag10
(g14
S'"\xb8\x18\x912pS@'
p91
tp92
Rp93
ag10
(g14
S'\xb1-\x845\xffIQ@'
p94
tp95
Rp96
ag10
(g14
S'`\xba\x17\xd8_\xd7S@'
p97
tp98
Rp99
ag10
(g14
S'\x14\xc8z\x0e/\xad[@'
p100
tp101
Rp102
ag10
(g14
S'\xab\x8d\x17&\xedJN@'
p103
tp104
Rp105
ag10
(g14
S'\xd2\xac\r\xc6\xce"=@'
p106
tp107
Rp108
ag10
(g14
S'\x08\t(h;\x92X@'
p109
tp110
Rp111
ag10
(g14
S'\xc8(e\xd7c]D@'
p112
tp113
Rp114
ag10
(g14
S'\xd6\xa9\x96\xe5\xa9\x06@@'
p115
tp116
Rp117
ag10
(g14
S'\xb98\x06\x1cy\x14L@'
p118
tp119
Rp120
ag10
(g14
S'\xf3(I\xfbY\x06F@'
p121
tp122
Rp123
ag10
(g14
S'\x83\xc3\xcax]nP@'
p124
tp125
Rp126
ag10
(g14
S'\xef\xb5\xd8\xfdI\xd6M@'
p127
tp128
Rp129
ag10
(g14
S'EI\xfe\xff\x18MV@'
p130
tp131
Rp132
ag10
(g14
S'\x83\xe95\x942\x8bR@'
p133
tp134
Rp135
ag10
(g14
S'\xd7\xeb_\xbcs Y@'
p136
tp137
Rp138
asssss.