(dp0
S'../Data/sqlite_95.csv'
p1
(dp2
S'../Data/sqlite_42.csv'
p3
(dp4
F0.15
(dp5
S'abs_res'
p6
(dp7
S'bellwether'
p8
(lp9
cnumpy.core.multiarray
scalar
p10
(cnumpy
dtype
p11
(S'f8'
p12
I0
I1
tp13
Rp14
(I3
S'<'
p15
NNNI-1
I-1
I0
tp16
bS'N~\xb1$,\x079A'
p17
tp18
Rp19
ag10
(g14
S'\x8cl\xe7[p\xf38A'
p20
tp21
Rp22
ag10
(g14
S'\x98C\x8b\xec\x88B9A'
p23
tp24
Rp25
ag10
(g14
S'\xfcF(\xc3"\x109A'
p26
tp27
Rp28
ag10
(g14
S'\xb4t\x93x7#9A'
p29
tp30
Rp31
ag10
(g14
S'&1\x08\xec\xe0\x039A'
p32
tp33
Rp34
ag10
(g14
S'\xf0\xa7\xc6k1\x089A'
p35
tp36
Rp37
ag10
(g14
S'\xef\xd2M\x02\xd3\xd48A'
p38
tp39
Rp40
ag10
(g14
S'6\xee5\xf7\xf9\xeb8A'
p41
tp42
Rp43
ag10
(g14
S'\x1c\xdb\xf9>u+9A'
p44
tp45
Rp46
ag10
(g14
S'\xe8o\x84\x92\xab 9A'
p47
tp48
Rp49
ag10
(g14
S'\x0bX9\xf40<9A'
p50
tp51
Rp52
ag10
(g14
S'Z\xabc\xa2\x89\xfd8A'
p53
tp54
Rp55
ag10
(g14
S'\xa2E\xb6\xd3\n\x1f9A'
p56
tp57
Rp58
ag10
(g14
S'\xa1\x9b\xc4\xa0\xfa\x029A'
p59
tp60
Rp61
ag10
(g14
S'\x8c_,9\xba\xf98A'
p62
tp63
Rp64
ag10
(g14
S'\xfb\xa9\xf1\x92C\xf98A'
p65
tp66
Rp67
ag10
(g14
S'\x96RqV\x11\xe08A'
p68
tp69
Rp70
ag10
(g14
S'P\xffFh0\xed8A'
p71
tp72
Rp73
ag10
(g14
S'#\\\x8f\xc2\xce(9A'
p74
tp75
Rp76
asS'target'
p77
(lp78
g10
(g14
S'6\n\xd7\xa3p1k@'
p79
tp80
Rp81
ag10
(g14
S'@`\xe5\xd0"\xe3g@'
p82
tp83
Rp84
ag10
(g14
S'w?5^\xba/i@'
p85
tp86
Rp87
ag10
(g14
S'_ffffNh@'
p88
tp89
Rp90
ag10
(g14
S'>5^\xbaIdh@'
p91
tp92
Rp93
ag10
(g14
S'\x98\x97n\x12\x83\x04j@'
p94
tp95
Rp96
ag10
(g14
S'\xe8O\x8d\x97n\xb2g@'
p97
tp98
Rp99
ag10
(g14
S'0\xb2\x9d\xef\xa7\xd8g@'
p100
tp101
Rp102
ag10
(g14
S'oh\x91\xed|cf@'
p103
tp104
Rp105
ag10
(g14
S'\n\x81\x95C\x8b\xccg@'
p106
tp107
Rp108
ag10
(g14
S'D7\x89A`\x15h@'
p109
tp110
Rp111
ag10
(g14
S'X\xb8\x1e\x85\xeb\x15j@'
p112
tp113
Rp114
ag10
(g14
S'\xa9G\xe1z\x14\xf6g@'
p115
tp116
Rp117
ag10
(g14
S'<\n\xd7\xa3pEg@'
p118
tp119
Rp120
ag10
(g14
S'\x17\xaeG\xe1z\xd8i@'
p121
tp122
Rp123
ag10
(g14
S'F\x8bl\xe7\xfbAh@'
p124
tp125
Rp126
ag10
(g14
S'Z\xe3\xa5\x9b\xc4\xd4h@'
p127
tp128
Rp129
ag10
(g14
S'\xd3Mb\x10X\xb7h@'
p130
tp131
Rp132
ag10
(g14
S'\x12\xd9\xce\xf7S\xb3j@'
p133
tp134
Rp135
ag10
(g14
S'\xf4|?5^&k@'
p136
tp137
Rp138
asssss.