(dp0
S'../Data/sqlite_3.csv'
p1
(dp2
S'../Data/sqlite_96.csv'
p3
(dp4
F0.1
(dp5
S'mmre'
p6
(dp7
S'bellwether'
p8
(lp9
cnumpy.core.multiarray
scalar
p10
(cnumpy
dtype
p11
(S'f8'
p12
I0
I1
tp13
Rp14
(I3
S'<'
p15
NNNI-1
I-1
I0
tp16
bS'\xd4\xc0\xd8JnRR@'
p17
tp18
Rp19
ag10
(g14
S'\x86\x9e{\x18~OR@'
p20
tp21
Rp22
ag10
(g14
S'"p\xc6Q\xfaNR@'
p23
tp24
Rp25
ag10
(g14
S'\x874\xd4\xf4\x11MR@'
p26
tp27
Rp28
ag10
(g14
S'kt\xad\xad\x99GR@'
p29
tp30
Rp31
ag10
(g14
S'\xa7\xb4\xd26\x1fIR@'
p32
tp33
Rp34
ag10
(g14
S'\xdf\x96\xe1\x15\xb8FR@'
p35
tp36
Rp37
ag10
(g14
S'\x88\xa9\r\xf2\xc7KR@'
p38
tp39
Rp40
ag10
(g14
S'\xdc_\xae\xce\xffCR@'
p41
tp42
Rp43
ag10
(g14
S'\xc8\xea{\xf8\xc4GR@'
p44
tp45
Rp46
ag10
(g14
S'\xaeR\x1e8"LR@'
p47
tp48
Rp49
ag10
(g14
S'\xa9\x15:V\xb9JR@'
p50
tp51
Rp52
ag10
(g14
S'}po\x01\x99NR@'
p53
tp54
Rp55
ag10
(g14
S'\xad@\xb5FpMR@'
p56
tp57
Rp58
ag10
(g14
S']\xba\x92\xac\xefBR@'
p59
tp60
Rp61
ag10
(g14
S'\xb7\xbb\x87\xab\x97HR@'
p62
tp63
Rp64
ag10
(g14
S',\xbb~\x90\xdaER@'
p65
tp66
Rp67
ag10
(g14
S'\xf8,\xcd\xe7\xe7MR@'
p68
tp69
Rp70
ag10
(g14
S'\xfe"\xfc8\xfdKR@'
p71
tp72
Rp73
ag10
(g14
S'\x95\xf9\x12\xdc\xbaPR@'
p74
tp75
Rp76
asS'target'
p77
(lp78
g10
(g14
S'U0tT\x9b6K@'
p79
tp80
Rp81
ag10
(g14
S'\xceG\x02\xb8\x1d`O@'
p82
tp83
Rp84
ag10
(g14
S'\x17\xa5\x9a\xc6\x1d\xd2J@'
p85
tp86
Rp87
ag10
(g14
S'\x12\x04o+_\x91W@'
p88
tp89
Rp90
ag10
(g14
S'\t\xfc\xd9\xd3\xaboT@'
p91
tp92
Rp93
ag10
(g14
S'[\xedoju.B@'
p94
tp95
Rp96
ag10
(g14
S'dA\xfeBT4S@'
p97
tp98
Rp99
ag10
(g14
S'\x14t\x11\xda\xdc\x88K@'
p100
tp101
Rp102
ag10
(g14
S'U\xd4\xc5]\xa9\xa0T@'
p103
tp104
Rp105
ag10
(g14
S'\x14\xb8Q1e>U@'
p106
tp107
Rp108
ag10
(g14
S'\xe3O+}\xf2\xa7]@'
p109
tp110
Rp111
ag10
(g14
S'\xdb\xc6\xa0\xf8e\x87R@'
p112
tp113
Rp114
ag10
(g14
S'\x02Vh\xcd\xc2aI@'
p115
tp116
Rp117
ag10
(g14
S'\xce\x02\xf0\xdb\x8dnV@'
p118
tp119
Rp120
ag10
(g14
S'@\x13h\xb02UU@'
p121
tp122
Rp123
ag10
(g14
S'\xd8\xda%"\x02\x10G@'
p124
tp125
Rp126
ag10
(g14
S'?v\xde\xfeG4O@'
p127
tp128
Rp129
ag10
(g14
S'OzKhp\x14N@'
p130
tp131
Rp132
ag10
(g14
S'`d1\xee\xa2^M@'
p133
tp134
Rp135
ag10
(g14
S'\xfcY\xed\xf0\x1d\x97P@'
p136
tp137
Rp138
asssss.