(dp0
S'../Data/sqlite_1.csv'
p1
(dp2
S'../Data/sqlite_58.csv'
p3
(dp4
F0.15
(dp5
S'abs_res'
p6
(dp7
S'bellwether'
p8
(lp9
cnumpy.core.multiarray
scalar
p10
(cnumpy
dtype
p11
(S'f8'
p12
I0
I1
tp13
Rp14
(I3
S'<'
p15
NNNI-1
I-1
I0
tp16
bS'\xb1\x1cZ\xe4\xc6G@A'
p17
tp18
Rp19
ag10
(g14
S'b\xe5\xd0\xc2\xd9G@A'
p20
tp21
Rp22
ag10
(g14
S'\xf5\xd2MB\xdbG@A'
p23
tp24
Rp25
ag10
(g14
S'"\xb0r\xc8\xa1G@A'
p26
tp27
Rp28
ag10
(g14
S'Jb\x10H\xdeG@A'
p29
tp30
Rp31
ag10
(g14
S'\xb4\xd7\\\xf8\x87G@A'
p32
tp33
Rp34
ag10
(g14
S'\xb2rh\xa1%H@A'
p35
tp36
Rp37
ag10
(g14
S'Rb\x10\x08lH@A'
p38
tp39
Rp40
ag10
(g14
S'o\xe7\xfb\xc9\x06I@A'
p41
tp42
Rp43
ag10
(g14
S'B|\x86\x8dzH@A'
p44
tp45
Rp46
ag10
(g14
S'U\xd6\xea(\xc1G@A'
p47
tp48
Rp49
ag10
(g14
S'\xa1E\xb6\x93\x15H@A'
p50
tp51
Rp52
ag10
(g14
S'\xaa\x8e\t\xee\xcdG@A'
p53
tp54
Rp55
ag10
(g14
S'\xa1\xb7e\x1d\xb9H@A'
p56
tp57
Rp58
ag10
(g14
S'\n\x02+w\xb3H@A'
p59
tp60
Rp61
ag10
(g14
S'o\x842Z\xe1H@A'
p62
tp63
Rp64
ag10
(g14
S'%\\\x8fBKH@A'
p65
tp66
Rp67
ag10
(g14
S'\xebQ\xb8\xeefH@A'
p68
tp69
Rp70
ag10
(g14
S'\x1d\xa1\x8c\x8eQH@A'
p71
tp72
Rp73
ag10
(g14
S'\xb4e\xadnGH@A'
p74
tp75
Rp76
asS'target'
p77
(lp78
g10
(g14
S'\xb6\x1e\x85\xebQxW@'
p79
tp80
Rp81
ag10
(g14
S'\xd1v\xbe\x9f\x1aGX@'
p82
tp83
Rp84
ag10
(g14
S'wh\x91\xed|\xdfV@'
p85
tp86
Rp87
ag10
(g14
S',3333\xc3W@'
p88
tp89
Rp90
ag10
(g14
S'\xa0p=\n\xd7\x17W@'
p91
tp92
Rp93
ag10
(g14
S')\x08\xac\x1cZ\xbcX@'
p94
tp95
Rp96
ag10
(g14
S'\x9c\xc4 \xb0r\xd0W@'
p97
tp98
Rp99
ag10
(g14
S'E\x8bl\xe7\xfb\x01X@'
p100
tp101
Rp102
ag10
(g14
S'L\xb8\x1e\x85\xebaX@'
p103
tp104
Rp105
ag10
(g14
S'\x0e\xd9\xce\xf7S\xf3X@'
p106
tp107
Rp108
ag10
(g14
S'rh\x91\xed|\xd7V@'
p109
tp110
Rp111
ag10
(g14
S'r\x95C\x8bl\x9fW@'
p112
tp113
Rp114
ag10
(g14
S'\x18\xd7\xa3p=\nX@'
p115
tp116
Rp117
ag10
(g14
S'wh\x91\xed|\x97W@'
p118
tp119
Rp120
ag10
(g14
S'\x8b\x97n\x12\x83\x00W@'
p121
tp122
Rp123
ag10
(g14
S'\xc7 \xb0rhQW@'
p124
tp125
Rp126
ag10
(g14
S'\x12\xaeG\xe1z\x1cX@'
p127
tp128
Rp129
ag10
(g14
S'\xde\xa5\x9b\xc4 \x88Y@'
p130
tp131
Rp132
ag10
(g14
S'<`\xe5\xd0"\xabX@'
p133
tp134
Rp135
ag10
(g14
S'^\xb8\x1e\x85\xebYX@'
p136
tp137
Rp138
asssss.