(dp0
S'../Data/sqlite_88.csv'
p1
(dp2
S'../Data/sqlite_23.csv'
p3
(dp4
F0.05
(dp5
S'abs_res'
p6
(dp7
S'bellwether'
p8
(lp9
cnumpy.core.multiarray
scalar
p10
(cnumpy
dtype
p11
(S'f8'
p12
I0
I1
tp13
Rp14
(I3
S'<'
p15
NNNI-1
I-1
I0
tp16
bS'\xa2p=\xfa\x85\x1aeA'
p17
tp18
Rp19
ag10
(g14
S'\x01\x81\x95#m\x19eA'
p20
tp21
Rp22
ag10
(g14
S'j\x91\xed\x90\x80(eA'
p23
tp24
Rp25
ag10
(g14
S'aff>"\'eA'
p26
tp27
Rp28
ag10
(g14
S'W\xbaI\xdc/\x13eA'
p29
tp30
Rp31
ag10
(g14
S'\xd7x\xe9\xde\xea#eA'
p32
tp33
Rp34
ag10
(g14
S"9`\xe5H'\x1aeA"
p35
tp36
Rp37
ag10
(g14
S'\x1e\x04Vb\r/eA'
p38
tp39
Rp40
ag10
(g14
S'\xfcU\x0e\xad$/eA'
p41
tp42
Rp43
ag10
(g14
S'\x9d\xef\xa7\n\x0f*eA'
p44
tp45
Rp46
ag10
(g14
S'\xb0rhMw\x16eA'
p47
tp48
Rp49
ag10
(g14
S'\xd2\xa3p\xf1d,eA'
p50
tp51
Rp52
ag10
(g14
S'\xf6\xd2MR\r*eA'
p53
tp54
Rp55
ag10
(g14
S'o\xbct\xff\xbf\x13eA'
p56
tp57
Rp58
ag10
(g14
S'E5^\x12-\x16eA'
p59
tp60
Rp61
ag10
(g14
S'E\n\xd7?\x10\x0feA'
p62
tp63
Rp64
ag10
(g14
S'\xadG\xe1~\xc0)eA'
p65
tp66
Rp67
ag10
(g14
S'y\x14\xae\xbf\xd0#eA'
p68
tp69
Rp70
ag10
(g14
S'\xe8\xd0"\x07\xbe\x1feA'
p71
tp72
Rp73
ag10
(g14
S'\xa2E\xb6\xdfT(eA'
p74
tp75
Rp76
asS'target'
p77
(lp78
g10
(g14
S'\xc6\xcc\xcc\xcc\xcc<F@'
p79
tp80
Rp81
ag10
(g14
S'@`\xe5\xd0"+@@'
p82
tp83
Rp84
ag10
(g14
S']9\xb4\xc8v\xeeB@'
p85
tp86
Rp87
ag10
(g14
S'\xe3\xce\xf7S\xe3\x05>@'
p88
tp89
Rp90
ag10
(g14
S'\x98\xed|?5\x1eA@'
p91
tp92
Rp93
ag10
(g14
S'\xc3 \xb0rh\xe1@@'
p94
tp95
Rp96
ag10
(g14
S'\x01\xd5x\xe9&\xc1F@'
p97
tp98
Rp99
ag10
(g14
S'o\xe7\xfb\xa9\xf1\xf2B@'
p100
tp101
Rp102
ag10
(g14
S'u\xbe\x9f\x1a/=A@'
p103
tp104
Rp105
ag10
(g14
S'\xeb|?5^\xeaB@'
p106
tp107
Rp108
ag10
(g14
S'\x0c+\x87\x16\xd9\xceE@'
p109
tp110
Rp111
ag10
(g14
S'\x1f/\xdd$\x06\xa9@@'
p112
tp113
Rp114
ag10
(g14
S'5\x06\x81\x95C\xbbK@'
p115
tp116
Rp117
ag10
(g14
S'\x1d\xaeG\xe1zdC@'
p118
tp119
Rp120
ag10
(g14
S'^\xbaI\x0c\x02\xbbB@'
p121
tp122
Rp123
ag10
(g14
S'W\x8d\x97n\x12\x13C@'
p124
tp125
Rp126
ag10
(g14
S'3\x08\xac\x1cZ\x04D@'
p127
tp128
Rp129
ag10
(g14
S'\xb6\xc8v\xbe\x9f\nC@'
p130
tp131
Rp132
ag10
(g14
S'$\x06\x81\x95C;D@'
p133
tp134
Rp135
ag10
(g14
S'\xd7x\xe9&1HC@'
p136
tp137
Rp138
asssss.