(dp0
S'../Data/sqlite_39.csv'
p1
(dp2
S'../Data/sqlite_88.csv'
p3
(dp4
F0.4
(dp5
S'mmre'
p6
(dp7
S'bellwether'
p8
(lp9
cnumpy.core.multiarray
scalar
p10
(cnumpy
dtype
p11
(S'f8'
p12
I0
I1
tp13
Rp14
(I3
S'<'
p15
NNNI-1
I-1
I0
tp16
bS'Z;\xd6\xf8B\\X@'
p17
tp18
Rp19
ag10
(g14
S'-\x04(\x0b\xbeZX@'
p20
tp21
Rp22
ag10
(g14
S'g\x15i\xc0\xf6fX@'
p23
tp24
Rp25
ag10
(g14
S'\x04\xfb\x18\xa3\x11\\X@'
p26
tp27
Rp28
ag10
(g14
S'\x81\x1e\xb4\x9d`fX@'
p29
tp30
Rp31
ag10
(g14
S'\xf5qc\xfeZUX@'
p32
tp33
Rp34
ag10
(g14
S'C3\x18\x1c4^X@'
p35
tp36
Rp37
ag10
(g14
S'\xc0\xdc\xb6\x0b\x93aX@'
p38
tp39
Rp40
ag10
(g14
S'\x83x\xc0\xc8>cX@'
p41
tp42
Rp43
ag10
(g14
S'\x82\xf8{\xb2[cX@'
p44
tp45
Rp46
ag10
(g14
S'p\xc0P\xbb5dX@'
p47
tp48
Rp49
ag10
(g14
S'd\x00\x8dq\xd4TX@'
p50
tp51
Rp52
ag10
(g14
S'~\xf4\xa0\xc4z_X@'
p53
tp54
Rp55
ag10
(g14
S'\x9b[\xdd#\x10bX@'
p56
tp57
Rp58
ag10
(g14
S'\xe8\xc9~\xd1\xea[X@'
p59
tp60
Rp61
ag10
(g14
S'==\xb9(\xc9XX@'
p62
tp63
Rp64
ag10
(g14
S'%\xa0\xde\xa7\xc2NX@'
p65
tp66
Rp67
ag10
(g14
S'M_\x9a\xc6\x06eX@'
p68
tp69
Rp70
ag10
(g14
S'n\x94B\x90\x1edX@'
p71
tp72
Rp73
ag10
(g14
S'\x01\xb3i\xb0f[X@'
p74
tp75
Rp76
asS'target'
p77
(lp78
g10
(g14
S'R\xedj}\xfdhM@'
p79
tp80
Rp81
ag10
(g14
S'\x80\x1e\x19<x\x9bM@'
p82
tp83
Rp84
ag10
(g14
S'\xfeb\xa6:\xf6\nH@'
p85
tp86
Rp87
ag10
(g14
S'H$\x9a\x9e\xf0\xe8M@'
p88
tp89
Rp90
ag10
(g14
S'Cn7\x98Q\xe7K@'
p91
tp92
Rp93
ag10
(g14
S'\xf4\xdb\x15\x0cO\xc3P@'
p94
tp95
Rp96
ag10
(g14
S'\xdb\xf4`$\xa9GM@'
p97
tp98
Rp99
ag10
(g14
S'c\xf2M\xc7PYL@'
p100
tp101
Rp102
ag10
(g14
S'5\xd8\xb9_\xca\x99J@'
p103
tp104
Rp105
ag10
(g14
S'=\xa9uN\x06\x85J@'
p106
tp107
Rp108
ag10
(g14
S'\x1b\xe0\xe3\x86\x80qJ@'
p109
tp110
Rp111
ag10
(g14
S'$\x1d@\x84<\x83P@'
p112
tp113
Rp114
ag10
(g14
S'\xfb%\xebw\xe57L@'
p115
tp116
Rp117
ag10
(g14
S'\xa6\xe1\xfc\xc0\xdd\rI@'
p118
tp119
Rp120
ag10
(g14
S'\x89\xfb\x19\xbcF\x07M@'
p121
tp122
Rp123
ag10
(g14
S'\xf7\xb5BH\xa4%P@'
p124
tp125
Rp126
ag10
(g14
S'\x926\xf7\xdb\xf6MP@'
p127
tp128
Rp129
ag10
(g14
S'6=S<\x18\xbdI@'
p130
tp131
Rp132
ag10
(g14
S'\xd1^\xb1\x0e\xdf}I@'
p133
tp134
Rp135
ag10
(g14
S'6=2c\x9a\xe1P@'
p136
tp137
Rp138
asssss.