(dp0
S'../Data/sqlite_86.csv'
p1
(dp2
S'../Data/sqlite_89.csv'
p3
(dp4
F0.1
(dp5
S'mmre'
p6
(dp7
S'bellwether'
p8
(lp9
cnumpy.core.multiarray
scalar
p10
(cnumpy
dtype
p11
(S'f8'
p12
I0
I1
tp13
Rp14
(I3
S'<'
p15
NNNI-1
I-1
I0
tp16
bS'V*\xa1\xcbJhR@'
p17
tp18
Rp19
ag10
(g14
S'\xa7\xf7\x17V$nR@'
p20
tp21
Rp22
ag10
(g14
S'0?\xff\x8e\xd4cR@'
p23
tp24
Rp25
ag10
(g14
S'\xf7\x0c\x02\x979mR@'
p26
tp27
Rp28
ag10
(g14
S'\xcc\t\x15v\nlR@'
p29
tp30
Rp31
ag10
(g14
S'#}\xc7\xa0\x97kR@'
p32
tp33
Rp34
ag10
(g14
S'5\x0f\xf7uciR@'
p35
tp36
Rp37
ag10
(g14
S'Om\xcf\x8e0hR@'
p38
tp39
Rp40
ag10
(g14
S'\xccM\\\xe0[jR@'
p41
tp42
Rp43
ag10
(g14
S'\xa7o(!\x19hR@'
p44
tp45
Rp46
ag10
(g14
S'\xd9\xef\xe5\x86PgR@'
p47
tp48
Rp49
ag10
(g14
S'\xda\x1bBK\x8ehR@'
p50
tp51
Rp52
ag10
(g14
S'\xb0Z\x1c\xac_hR@'
p53
tp54
Rp55
ag10
(g14
S'\x0f0K4\xd9lR@'
p56
tp57
Rp58
ag10
(g14
S'\x12\xed\x12w]nR@'
p59
tp60
Rp61
ag10
(g14
S'\xe6!\xd0[1kR@'
p62
tp63
Rp64
ag10
(g14
S'\xf0B\xe0F\x9ejR@'
p65
tp66
Rp67
ag10
(g14
S'UA\xd8\xdf=lR@'
p68
tp69
Rp70
ag10
(g14
S'\xc6<93\xe4lR@'
p71
tp72
Rp73
ag10
(g14
S'\x83z\x11\xc7\x84fR@'
p74
tp75
Rp76
asS'target'
p77
(lp78
g10
(g14
S'\x90.\xc7Y\xc2nT@'
p79
tp80
Rp81
ag10
(g14
S'\xd0\xcb\x91.\x8f\xa0V@'
p82
tp83
Rp84
ag10
(g14
S'\x92\xad\xd4\xecz(P@'
p85
tp86
Rp87
ag10
(g14
S'\xcfpLY\xe2\xabY@'
p88
tp89
Rp90
ag10
(g14
S'C\x959\xee\xb1\xc9Q@'
p91
tp92
Rp93
ag10
(g14
S'\t%\xc2a\x1bKP@'
p94
tp95
Rp96
ag10
(g14
S'au\xfe\xc1\xdd\xfbL@'
p97
tp98
Rp99
ag10
(g14
S'$\x83i\x8b@\xa9N@'
p100
tp101
Rp102
ag10
(g14
S'=Us\x90\x90\xe6J@'
p103
tp104
Rp105
ag10
(g14
S'f\xb6\xd4\xdf\xc4\x99M@'
p106
tp107
Rp108
ag10
(g14
S'n\x8a\xbcH\xc3\x9cN@'
p109
tp110
Rp111
ag10
(g14
S'%\xa3\x8c\x18\xa9\xd2Q@'
p112
tp113
Rp114
ag10
(g14
S'f\x04\xcf\x92\xd8\x1dQ@'
p115
tp116
Rp117
ag10
(g14
S'\x8aW5\x14\xeb\xa0Z@'
p118
tp119
Rp120
ag10
(g14
S'\xe4y\xbc\xce\x95\xf1J@'
p121
tp122
Rp123
ag10
(g14
S'\x0e\tX\x07\x184L@'
p124
tp125
Rp126
ag10
(g14
S'\x83\xea\xb2\xcdl4R@'
p127
tp128
Rp129
ag10
(g14
S'\xb9\x88g\xb5^uU@'
p130
tp131
Rp132
ag10
(g14
S'\xd2\xa0LT\x16\x11S@'
p133
tp134
Rp135
ag10
(g14
S'Rk\xf1\x96)\x8dT@'
p136
tp137
Rp138
asssss.