(dp0
S'../Data/sqlite_29.csv'
p1
(dp2
S'../Data/sqlite_35.csv'
p3
(dp4
F0.3
(dp5
S'abs_res'
p6
(dp7
S'bellwether'
p8
(lp9
cnumpy.core.multiarray
scalar
p10
(cnumpy
dtype
p11
(S'f8'
p12
I0
I1
tp13
Rp14
(I3
S'<'
p15
NNNI-1
I-1
I0
tp16
bS'\xc1\x83y\xa2b??A'
p17
tp18
Rp19
ag10
(g14
S'\xc6\x83y"aB?A'
p20
tp21
Rp22
ag10
(g14
S' \x04V\xce,@?A'
p23
tp24
Rp25
ag10
(g14
S'\x00\xaa\xf1\xf2hA?A'
p26
tp27
Rp28
ag10
(g14
S'\xd8\xea\x98\xc0\x11??A'
p29
tp30
Rp31
ag10
(g14
S'1\x15g\x1f\x1d??A'
p32
tp33
Rp34
ag10
(g14
S'\x0e\x04VN\x12@?A'
p35
tp36
Rp37
ag10
(g14
S'b\x03\x9d\x16OB?A'
p38
tp39
Rp40
ag10
(g14
S']\x8f\xc2\xf5\xd8??A'
p41
tp42
Rp43
ag10
(g14
S'$@\xee5\xbf@?A'
p44
tp45
Rp46
ag10
(g14
S'\nV\x0e\xcd\x08>?A'
p47
tp48
Rp49
ag10
(g14
S'\xa0\xd3\x06\xda\xd4??A'
p50
tp51
Rp52
ag10
(g14
S'\xab\xc6K7b>?A'
p53
tp54
Rp55
ag10
(g14
S'~?5\xfe\xa9<?A'
p56
tp57
Rp58
ag10
(g14
S'\xe5^s\x01\x16>?A'
p59
tp60
Rp61
ag10
(g14
S'\x91\xed|\xff\xa9??A'
p62
tp63
Rp64
ag10
(g14
S'\x04\xd5xi\xdb??A'
p65
tp66
Rp67
ag10
(g14
S'\xfcS\xe3\xa5\xcb??A'
p68
tp69
Rp70
ag10
(g14
S'\xd0"\xdby\x0f??A'
p71
tp72
Rp73
ag10
(g14
S'Q\x0e-\xd2\x86??A'
p74
tp75
Rp76
asS'target'
p77
(lp78
g10
(g14
S'\xc7 \xb0rh\x91[@'
p79
tp80
Rp81
ag10
(g14
S'\xa5\x1cZd;oZ@'
p82
tp83
Rp84
ag10
(g14
S'\x8aA`\xe5\xd0*]@'
p85
tp86
Rp87
ag10
(g14
S'\xc1\xca\xa1E\xb6\xcf\\@'
p88
tp89
Rp90
ag10
(g14
S'\xe9\xd0"\xdb\xf9\xda]@'
p91
tp92
Rp93
ag10
(g14
S'R\xb8\x1e\x85\xeb-]@'
p94
tp95
Rp96
ag10
(g14
S'xj\xbct\x938[@'
p97
tp98
Rp99
ag10
(g14
S'\xc3 \xb0rhQ\\@'
p100
tp101
Rp102
ag10
(g14
S'\xd8O\x8d\x97n\xd2]@'
p103
tp104
Rp105
ag10
(g14
S')\x87\x16\xd9\xce\xf7Z@'
p106
tp107
Rp108
ag10
(g14
S'\xaerh\x91\xedX\\@'
p109
tp110
Rp111
ag10
(g14
S'8\xb4\xc8v\xbe+\\@'
p112
tp113
Rp114
ag10
(g14
S'N\xe3\xa5\x9b\xc4\xb8[@'
p115
tp116
Rp117
ag10
(g14
S'\xc2/\x96\xfcb)]@'
p118
tp119
Rp120
ag10
(g14
S'\x0fX9\xb4\xc8~[@'
p121
tp122
Rp123
ag10
(g14
S'\xa7\xf1\xd2Mb\x90[@'
p124
tp125
Rp126
ag10
(g14
S'\x9a\x1a/\xdd$\xce^@'
p127
tp128
Rp129
ag10
(g14
S'\x10Zd;\xdf\xb7\\@'
p130
tp131
Rp132
ag10
(g14
S'\xef\xa9\xf1\xd2MN]@'
p133
tp134
Rp135
ag10
(g14
S'\xc3\xa3p=\nW^@'
p136
tp137
Rp138
asssss.