(dp0
S'../Data/sqlite_5.csv'
p1
(dp2
S'../Data/sqlite_87.csv'
p3
(dp4
F0.25
(dp5
S'mmre'
p6
(dp7
S'bellwether'
p8
(lp9
cnumpy.core.multiarray
scalar
p10
(cnumpy
dtype
p11
(S'f8'
p12
I0
I1
tp13
Rp14
(I3
S'<'
p15
NNNI-1
I-1
I0
tp16
bS'\xf1\x04n\xad\x1bTI@'
p17
tp18
Rp19
ag10
(g14
S'"p\xc6\xab!*I@'
p20
tp21
Rp22
ag10
(g14
S' \x04\x96\xc33\\I@'
p23
tp24
Rp25
ag10
(g14
S'\xb8\xc6S\xe1\x05UI@'
p26
tp27
Rp28
ag10
(g14
S'[\xec\xca\x00\xddNI@'
p29
tp30
Rp31
ag10
(g14
S'L\xaee\xa5\x16\x06I@'
p32
tp33
Rp34
ag10
(g14
S'9\xdc\xa4\xc9E9I@'
p35
tp36
Rp37
ag10
(g14
S'T\x08\xde\xb2mKI@'
p38
tp39
Rp40
ag10
(g14
S' m\xf7Y)dI@'
p41
tp42
Rp43
ag10
(g14
S'\xed\x8fG\xc4V\x7fI@'
p44
tp45
Rp46
ag10
(g14
S's`\xb0=\x8bVI@'
p47
tp48
Rp49
ag10
(g14
S'\xe7Vb\x0e|\x8dI@'
p50
tp51
Rp52
ag10
(g14
S'\xa8\t\xdc\x1e\xba=I@'
p53
tp54
Rp55
ag10
(g14
S'\x87|\x9a\xf2@)I@'
p56
tp57
Rp58
ag10
(g14
S'\xea-\xcc.\xb4YI@'
p59
tp60
Rp61
ag10
(g14
S'\xe6\xec\x7f0\xf7YI@'
p62
tp63
Rp64
ag10
(g14
S';z&\xd1>\x8eI@'
p65
tp66
Rp67
ag10
(g14
S'\x88lOI\x14LI@'
p68
tp69
Rp70
ag10
(g14
S'vs\x0f\xac\xc1\x9bI@'
p71
tp72
Rp73
ag10
(g14
S'\x1eL\xaa/{mI@'
p74
tp75
Rp76
asS'target'
p77
(lp78
g10
(g14
S'=\xca\xb6h\\.M@'
p79
tp80
Rp81
ag10
(g14
S'\x0f\xdb\xfe\xb8d\x8bO@'
p82
tp83
Rp84
ag10
(g14
S'\x02\xf8\t \xc7\xe0Q@'
p85
tp86
Rp87
ag10
(g14
S'\xfaZ\xb9\xe6[uN@'
p88
tp89
Rp90
ag10
(g14
S'@\xb9d\xa0\xf4\x1fH@'
p91
tp92
Rp93
ag10
(g14
S'\xb2Y,\x06\xb68\\@'
p94
tp95
Rp96
ag10
(g14
S'\xa0n2d\x93\xc3J@'
p97
tp98
Rp99
ag10
(g14
S'\xe7\x14{C>%R@'
p100
tp101
Rp102
ag10
(g14
S'\xf9\x08\xfe\xca\xa3\xf7M@'
p103
tp104
Rp105
ag10
(g14
S'\x92C\xa9\x1d\x03\x16M@'
p106
tp107
Rp108
ag10
(g14
S"\xc8'8\x12~\xf8T@"
p109
tp110
Rp111
ag10
(g14
S'\x88\xfd\xa2\x18\x1bQH@'
p112
tp113
Rp114
ag10
(g14
S'\xffD\xb7\x0f"/X@'
p115
tp116
Rp117
ag10
(g14
S'O\xafL\x82\xf6\xfeT@'
p118
tp119
Rp120
ag10
(g14
S'\xaa\x87pD+mM@'
p121
tp122
Rp123
ag10
(g14
S'\xa0b\xd2}\xb7)J@'
p124
tp125
Rp126
ag10
(g14
S'\x00\r\x95 E\xabM@'
p127
tp128
Rp129
ag10
(g14
S'\xf3X\xc4\xd1\xd4\x11W@'
p130
tp131
Rp132
ag10
(g14
S'&\xb2\x9ay:\x00R@'
p133
tp134
Rp135
ag10
(g14
S'KZ,0\x92\x9aN@'
p136
tp137
Rp138
asssss.