(dp0
S'../Data/sqlite_92.csv'
p1
(dp2
S'../Data/sqlite_96.csv'
p3
(dp4
F0.25
(dp5
S'mmre'
p6
(dp7
S'bellwether'
p8
(lp9
cnumpy.core.multiarray
scalar
p10
(cnumpy
dtype
p11
(S'f8'
p12
I0
I1
tp13
Rp14
(I3
S'<'
p15
NNNI-1
I-1
I0
tp16
bS'\xe5\xd2C$\x1f1V@'
p17
tp18
Rp19
ag10
(g14
S'\xa0\xb4\x1b\xce\xfa2V@'
p20
tp21
Rp22
ag10
(g14
S'\xf2\xc6u}13V@'
p23
tp24
Rp25
ag10
(g14
S'\xb3\x18\xe1\xc2\xbd1V@'
p26
tp27
Rp28
ag10
(g14
S'uF\x19\xd0\xfb7V@'
p29
tp30
Rp31
ag10
(g14
S'\xb1\xfb<\x99\x8d3V@'
p32
tp33
Rp34
ag10
(g14
S'\x01\x8bPu\x1d3V@'
p35
tp36
Rp37
ag10
(g14
S'\x9bm\xc6\xdf\xb20V@'
p38
tp39
Rp40
ag10
(g14
S'\xc6\r\xba\x00\xb1.V@'
p41
tp42
Rp43
ag10
(g14
S'UZ_\xf0s0V@'
p44
tp45
Rp46
ag10
(g14
S';\x17\xb1@C2V@'
p47
tp48
Rp49
ag10
(g14
S'\x8eYb\x08;4V@'
p50
tp51
Rp52
ag10
(g14
S'Q\xa9H\x0c\xec6V@'
p53
tp54
Rp55
ag10
(g14
S'E\xec&\xab,2V@'
p56
tp57
Rp58
ag10
(g14
S'\x839J\xe6\xa62V@'
p59
tp60
Rp61
ag10
(g14
S'\xfc8&\xd5\xe20V@'
p62
tp63
Rp64
ag10
(g14
S'n_v\xfc\r2V@'
p65
tp66
Rp67
ag10
(g14
S'\x8f\x011\xff\xb11V@'
p68
tp69
Rp70
ag10
(g14
S'\xd6\x0ba\x1c\xe40V@'
p71
tp72
Rp73
ag10
(g14
S'\x8e\x91f\xb7\xc20V@'
p74
tp75
Rp76
asS'target'
p77
(lp78
g10
(g14
S'>\x83\xab2&bX@'
p79
tp80
Rp81
ag10
(g14
S'\xae\x81\x9e$c\x1c\\@'
p82
tp83
Rp84
ag10
(g14
S'\xd1\xc3>\x9ez\xe1T@'
p85
tp86
Rp87
ag10
(g14
S'Aq\xfc\xa6\xdf\xaaP@'
p88
tp89
Rp90
ag10
(g14
S'\x1b\xf2\xd2\n\xb2\x8fQ@'
p91
tp92
Rp93
ag10
(g14
S'D\xb1z+\xd4#T@'
p94
tp95
Rp96
ag10
(g14
S'+\xd8\x14c\x99;S@'
p97
tp98
Rp99
ag10
(g14
S'\x9f\x1ce\x81\x9f`X@'
p100
tp101
Rp102
ag10
(g14
S'\xc6nQ\xe3M\xcb\\@'
p103
tp104
Rp105
ag10
(g14
S'$\x8c\xd0#\xa2BX@'
p106
tp107
Rp108
ag10
(g14
S'\xb4\x86\xec\xd1\xa1}P@'
p109
tp110
Rp111
ag10
(g14
S'\xe7g\xceLyJQ@'
p112
tp113
Rp114
ag10
(g14
S'E\x9210\x8d\x05[@'
p115
tp116
Rp117
ag10
(g14
S'\xe4\xeb\xa4\x12=4[@'
p118
tp119
Rp120
ag10
(g14
S'QM4\xba\x8f\x04P@'
p121
tp122
Rp123
ag10
(g14
S'O\x0c>=\xa3\xf8Q@'
p124
tp125
Rp126
ag10
(g14
S'\xea\x8d_\xd7kYM@'
p127
tp128
Rp129
ag10
(g14
S'\x84\xf6\xc0\xc2\xc1\xc0\\@'
p130
tp131
Rp132
ag10
(g14
S'\xa91"\xe02=U@'
p133
tp134
Rp135
ag10
(g14
S'*\x92\x1fK\xa7nV@'
p136
tp137
Rp138
asssss.