(dp0
S'../Data/sqlite_21.csv'
p1
(dp2
S'../Data/sqlite_96.csv'
p3
(dp4
F0.05
(dp5
S'mmre'
p6
(dp7
S'bellwether'
p8
(lp9
cnumpy.core.multiarray
scalar
p10
(cnumpy
dtype
p11
(S'f8'
p12
I0
I1
tp13
Rp14
(I3
S'<'
p15
NNNI-1
I-1
I0
tp16
bS'\x98\xad\x1b\x87\xce3R@'
p17
tp18
Rp19
ag10
(g14
S'~\x0e\x9d\xf4\x194R@'
p20
tp21
Rp22
ag10
(g14
S'\x1bH\x9c\xa1/-R@'
p23
tp24
Rp25
ag10
(g14
S'_\xb5\x87eE2R@'
p26
tp27
Rp28
ag10
(g14
S'1\xcae\x8a)6R@'
p29
tp30
Rp31
ag10
(g14
S'\xef\x13.\xd2\xa92R@'
p32
tp33
Rp34
ag10
(g14
S'CC\x81\x07\x014R@'
p35
tp36
Rp37
ag10
(g14
S'$\n\xde]b4R@'
p38
tp39
Rp40
ag10
(g14
S'\xacp\xf2\x08\t9R@'
p41
tp42
Rp43
ag10
(g14
S'\x8c\xb0\xfcC\xf72R@'
p44
tp45
Rp46
ag10
(g14
S'w\x8c\x83\xff\xae3R@'
p47
tp48
Rp49
ag10
(g14
S'\x18?\xb6\xb8\r0R@'
p50
tp51
Rp52
ag10
(g14
S'm\xe9\xac\t\xbd<R@'
p53
tp54
Rp55
ag10
(g14
S'\t\xf4s\xbdd5R@'
p56
tp57
Rp58
ag10
(g14
S'\x9a\xb4p\xe7D/R@'
p59
tp60
Rp61
ag10
(g14
S'\xb7_v\xe6\x891R@'
p62
tp63
Rp64
ag10
(g14
S'\xdb\x83n\x15\xbd4R@'
p65
tp66
Rp67
ag10
(g14
S'H\xdd\xd9\x9c\xee4R@'
p68
tp69
Rp70
ag10
(g14
S'\xe2\x04\xc0 _2R@'
p71
tp72
Rp73
ag10
(g14
S'\xf2Y%^<6R@'
p74
tp75
Rp76
asS'target'
p77
(lp78
g10
(g14
S'\x11\xe61\x0b1\x1fE@'
p79
tp80
Rp81
ag10
(g14
S'em\\v;iU@'
p82
tp83
Rp84
ag10
(g14
S'\x8bW\x97\r_\x14b@'
p85
tp86
Rp87
ag10
(g14
S'\xca\xdf\xf7^o7Z@'
p88
tp89
Rp90
ag10
(g14
S'\x0f\xec\xd2\xcct[S@'
p91
tp92
Rp93
ag10
(g14
S'wo\xf0?\x985E@'
p94
tp95
Rp96
ag10
(g14
S'\xd1\xd8\x07a0\xb2C@'
p97
tp98
Rp99
ag10
(g14
S'\xd1o\x96.IWB@'
p100
tp101
Rp102
ag10
(g14
S'\x9a\xe0\x1f\xcf\xee9E@'
p103
tp104
Rp105
ag10
(g14
S'c@\xfbf\x8d\x0eW@'
p106
tp107
Rp108
ag10
(g14
S'\x80\x00\xf4\xc0\xd9\x9a\\@'
p109
tp110
Rp111
ag10
(g14
S'o$\xd3\x83\x13+W@'
p112
tp113
Rp114
ag10
(g14
S'[\x03\xa0\xe5\xe4C<@'
p115
tp116
Rp117
ag10
(g14
S'\x12\x0cq\xf6\xdc\xc5A@'
p118
tp119
Rp120
ag10
(g14
S'9\x0c&\xa23,V@'
p121
tp122
Rp123
ag10
(g14
S"\x18\xa2\x8fw'\xdfl@"
p124
tp125
Rp126
ag10
(g14
S'9Kq\x7f\xf8\xe1X@'
p127
tp128
Rp129
ag10
(g14
S'\xde\xa8\x10\x97\xa1\xaaR@'
p130
tp131
Rp132
ag10
(g14
S'm\xec.7f\xc3X@'
p133
tp134
Rp135
ag10
(g14
S'\x9et\xc2y\x1f\xfbX@'
p136
tp137
Rp138
asssss.