(dp0
S'../Data/sqlite_64.csv'
p1
(dp2
S'../Data/sqlite_59.csv'
p3
(dp4
F0.35
(dp5
S'mmre'
p6
(dp7
S'bellwether'
p8
(lp9
cnumpy.core.multiarray
scalar
p10
(cnumpy
dtype
p11
(S'f8'
p12
I0
I1
tp13
Rp14
(I3
S'<'
p15
NNNI-1
I-1
I0
tp16
bS'V\xb6\xd2\x80_yP@'
p17
tp18
Rp19
ag10
(g14
S'n\x8d\x9c\x82\x9f{P@'
p20
tp21
Rp22
ag10
(g14
S'\xe2\xe0\x0b*%\x82P@'
p23
tp24
Rp25
ag10
(g14
S'\x0e\x13<\xcbO}P@'
p26
tp27
Rp28
ag10
(g14
S'b6}:w\x7fP@'
p29
tp30
Rp31
ag10
(g14
S'3$\xca\x0bj\x88P@'
p32
tp33
Rp34
ag10
(g14
S'\xba\x83\xc1?\xceuP@'
p35
tp36
Rp37
ag10
(g14
S'\xd7c%:\xa7\x7fP@'
p38
tp39
Rp40
ag10
(g14
S'%f\x87@S\x89P@'
p41
tp42
Rp43
ag10
(g14
S'\xeb%\x93\xfa\xcfwP@'
p44
tp45
Rp46
ag10
(g14
S'9\xd7\xe84m\x7fP@'
p47
tp48
Rp49
ag10
(g14
S'\x1b\xadK\xc5\xcd{P@'
p50
tp51
Rp52
ag10
(g14
S"\xfb'\xc9\xbc\xf4zP@"
p53
tp54
Rp55
ag10
(g14
S'\xbfd\x0f\xd8f\x81P@'
p56
tp57
Rp58
ag10
(g14
S'\xfb\xaeZ\x02<\x88P@'
p59
tp60
Rp61
ag10
(g14
S'\xc8\xa5\xdc\xde\xc1\x82P@'
p62
tp63
Rp64
ag10
(g14
S'W\x00.\x86\xaf}P@'
p65
tp66
Rp67
ag10
(g14
S'\xf78\x1e\xaf-\x80P@'
p68
tp69
Rp70
ag10
(g14
S'C\xb0\xedN\x8awP@'
p71
tp72
Rp73
ag10
(g14
S'\xbe\xbe\xf7\xe5_|P@'
p74
tp75
Rp76
asS'target'
p77
(lp78
g10
(g14
S"\x83\x016\x9078'@"
p79
tp80
Rp81
ag10
(g14
S'eK}\xf60T%@'
p82
tp83
Rp84
ag10
(g14
S'\x9b\xfeb\xbe\x95\xd3&@'
p85
tp86
Rp87
ag10
(g14
S'\x80X\x90xUX&@'
p88
tp89
Rp90
ag10
(g14
S'V\n5\x18\xc7d$@'
p91
tp92
Rp93
ag10
(g14
S'C*N\xbd\xa6\xc7%@'
p94
tp95
Rp96
ag10
(g14
S'\xe5.\x86$\x97](@'
p97
tp98
Rp99
ag10
(g14
S'\xf3\xc4G\xcacA%@'
p100
tp101
Rp102
ag10
(g14
S'0\xf7\xbcW\xb7\xc6$@'
p103
tp104
Rp105
ag10
(g14
S'Z\x9dY\xaa\xc0\xcc%@'
p106
tp107
Rp108
ag10
(g14
S'\xbb\xc9\xd8\xb3\xf1\x0b&@'
p109
tp110
Rp111
ag10
(g14
S'\xa6\xf8*t\xbd_%@'
p112
tp113
Rp114
ag10
(g14
S'L\x1c)\xc6{\xf6%@'
p115
tp116
Rp117
ag10
(g14
S'@\x87\x0c\x8e\x8fy&@'
p118
tp119
Rp120
ag10
(g14
S'f\xeb\xbf-*h$@'
p121
tp122
Rp123
ag10
(g14
S'\xaaY\xd0HF~%@'
p124
tp125
Rp126
ag10
(g14
S'*\\\xa0\\\xb2\x10&@'
p127
tp128
Rp129
ag10
(g14
S'\x0c\xa9I\x88s\x10&@'
p130
tp131
Rp132
ag10
(g14
S"\xf4S\xc44W>'@"
p133
tp134
Rp135
ag10
(g14
S'?\nrC}Z%@'
p136
tp137
Rp138
asssss.