(dp0
S'../Data/sqlite_43.csv'
p1
(dp2
S'../Data/sqlite_70.csv'
p3
(dp4
F0.3
(dp5
S'abs_res'
p6
(dp7
S'bellwether'
p8
(lp9
cnumpy.core.multiarray
scalar
p10
(cnumpy
dtype
p11
(S'f8'
p12
I0
I1
tp13
Rp14
(I3
S'<'
p15
NNNI-1
I-1
I0
tp16
bS'\xe5mY+Mu:A'
p17
tp18
Rp19
ag10
(g14
S'\x8d%\xbf8\xeds:A'
p20
tp21
Rp22
ag10
(g14
S'J~\xb1$\xe6t:A'
p23
tp24
Rp25
ag10
(g14
S'\xeb\xb4\x81nHt:A'
p26
tp27
Rp28
ag10
(g14
S'\xac8\xfb\xf0\xfct:A'
p29
tp30
Rp31
ag10
(g14
S'\xcb\xa1Ev\xf3s:A'
p32
tp33
Rp34
ag10
(g14
S'h\xd8\x15`\x1et:A'
p35
tp36
Rp37
ag10
(g14
S'<B\x19}\xect:A'
p38
tp39
Rp40
ag10
(g14
S'F\xa98\x9b)s:A'
p41
tp42
Rp43
ag10
(g14
S'\xa1\x0bI\xd3Jt:A'
p44
tp45
Rp46
ag10
(g14
S'\xb5G\xe1\x1a\x10t:A'
p47
tp48
Rp49
ag10
(g14
S'LS*N\xbds:A'
p50
tp51
Rp52
ag10
(g14
S'\xa4\x99\x99y\xddt:A'
p53
tp54
Rp55
ag10
(g14
S'\xf5\xf0\x19V\x86u:A'
p56
tp57
Rp58
ag10
(g14
S'\x82\xc0\xca!\xa3t:A'
p59
tp60
Rp61
ag10
(g14
S'\x93\xde\x96\x15ft:A'
p62
tp63
Rp64
ag10
(g14
S'\xaa\xe2\xec\xc3\xcfs:A'
p65
tp66
Rp67
ag10
(g14
S'\xe2z\x14N;t:A'
p68
tp69
Rp70
ag10
(g14
S'{\x95C\x8bnu:A'
p71
tp72
Rp73
ag10
(g14
S'\x84\x86]\xc1[r:A'
p74
tp75
Rp76
asS'target'
p77
(lp78
g10
(g14
S'\x14/\xdd$\x06\xc1[@'
p79
tp80
Rp81
ag10
(g14
S'\x15\x02+\x87\x16\rZ@'
p82
tp83
Rp84
ag10
(g14
S'\\\xbaI\x0c\x02\xdfZ@'
p85
tp86
Rp87
ag10
(g14
S'=5^\xbaI\xb0[@'
p88
tp89
Rp90
ag10
(g14
S'q\xe9&1\x08PY@'
p91
tp92
Rp93
ag10
(g14
S'\x97\x1a/\xdd$bZ@'
p94
tp95
Rp96
ag10
(g14
S'A\xe3\xa5\x9b\xc4\xd8Z@'
p97
tp98
Rp99
ag10
(g14
S'y\x93\x18\x04VR[@'
p100
tp101
Rp102
ag10
(g14
S'\xe7|?5^\nZ@'
p103
tp104
Rp105
ag10
(g14
S'\xc2\x9f\x1a/\xdd8Z@'
p106
tp107
Rp108
ag10
(g14
S'bffff\xdeZ@'
p109
tp110
Rp111
ag10
(g14
S'\x94\x1a/\xdd$\x96Y@'
p112
tp113
Rp114
ag10
(g14
S'\x8b\x18\x04V\x0e\xa5Y@'
p115
tp116
Rp117
ag10
(g14
S'`\xe7\xfb\xa9\xf1\xeaY@'
p118
tp119
Rp120
ag10
(g14
S'\xe5\xfb\xa9\xf1\xd2Y]@'
p121
tp122
Rp123
ag10
(g14
S'\xed\xfd\xd4x\xe9\xdaZ@'
p124
tp125
Rp126
ag10
(g14
S'\xdez\x14\xaeG9\\@'
p127
tp128
Rp129
ag10
(g14
S'\x0c\x04V\x0e-\x8aZ@'
p130
tp131
Rp132
ag10
(g14
S'\x12\xb0rh\x91\xb5Y@'
p133
tp134
Rp135
ag10
(g14
S'\xcc\xcc\xcc\xcc\xcc\x84[@'
p136
tp137
Rp138
asssss.