(dp0
S'../Data/sqlite_22.csv'
p1
(dp2
S'../Data/sqlite_79.csv'
p3
(dp4
F0.1
(dp5
S'mmre'
p6
(dp7
S'bellwether'
p8
(lp9
cnumpy.core.multiarray
scalar
p10
(cnumpy
dtype
p11
(S'f8'
p12
I0
I1
tp13
Rp14
(I3
S'<'
p15
NNNI-1
I-1
I0
tp16
bS'4u\xfdQ\xea0P@'
p17
tp18
Rp19
ag10
(g14
S'\x9d\xaew\xd141P@'
p20
tp21
Rp22
ag10
(g14
S'\x0b%\xcd\t\xe0+P@'
p23
tp24
Rp25
ag10
(g14
S'\xbfI\x88\xce\x01-P@'
p26
tp27
Rp28
ag10
(g14
S'@\x16\xfa@\xf0\x16P@'
p29
tp30
Rp31
ag10
(g14
S'Y6\xccWr?P@'
p32
tp33
Rp34
ag10
(g14
S'\x94\x1a\xa4\xec\xd96P@'
p35
tp36
Rp37
ag10
(g14
S'\x10PcQq:P@'
p38
tp39
Rp40
ag10
(g14
S'5(\t\xa2\xd9+P@'
p41
tp42
Rp43
ag10
(g14
S'C`~\x04\x8b\x1eP@'
p44
tp45
Rp46
ag10
(g14
S'\x85,\x93\x89\x18 P@'
p47
tp48
Rp49
ag10
(g14
S'Uz\xaeI43P@'
p50
tp51
Rp52
ag10
(g14
S'\x12\x8d\xfb\xfd|.P@'
p53
tp54
Rp55
ag10
(g14
S'7\x1b\xdd\xaar(P@'
p56
tp57
Rp58
ag10
(g14
S'\xc0hSH\n,P@'
p59
tp60
Rp61
ag10
(g14
S'\xb9J\xa2,}2P@'
p62
tp63
Rp64
ag10
(g14
S'4o\xd3LO\x18P@'
p65
tp66
Rp67
ag10
(g14
S'\xb1\xc2x\xf8\\5P@'
p68
tp69
Rp70
ag10
(g14
S'\xb7\x83\x0f\xe5\xb7-P@'
p71
tp72
Rp73
ag10
(g14
S'V8\xb1\xaf\xc8%P@'
p74
tp75
Rp76
asS'target'
p77
(lp78
g10
(g14
S'7\x07\x1f\x93w\xc2(@'
p79
tp80
Rp81
ag10
(g14
S'\xbb\x96#\\\x1e\xe3&@'
p82
tp83
Rp84
ag10
(g14
S'R\xcc\xd8b\x995 @'
p85
tp86
Rp87
ag10
(g14
S'}~p\x92\xf0#$@'
p88
tp89
Rp90
ag10
(g14
S'R\xf4r\x04\xd1\xba\x14@'
p91
tp92
Rp93
ag10
(g14
S'HU\x8f\x8a\x1c\xda"@'
p94
tp95
Rp96
ag10
(g14
S'\xd8={\xd9\x9ew%@'
p97
tp98
Rp99
ag10
(g14
S'\xc4?\xec]\x8ai"@'
p100
tp101
Rp102
ag10
(g14
S'\x89\xcbY\xba\xba\xd6*@'
p103
tp104
Rp105
ag10
(g14
S'\xfb\xef+\x17\x88\x98\x1d@'
p106
tp107
Rp108
ag10
(g14
S'\xe24\xcf\xa4\xe7e\x1f@'
p109
tp110
Rp111
ag10
(g14
S'a:\xdb\xd9W:(@'
p112
tp113
Rp114
ag10
(g14
S'\x9c\xc4\xdb\x88\xd4|$@'
p115
tp116
Rp117
ag10
(g14
S'\x84h,\x10\x9dA\x1e@'
p118
tp119
Rp120
ag10
(g14
S'\xe2\x1e\x85\x0c\xc47$@'
p121
tp122
Rp123
ag10
(g14
S'\x14@T\xb2sa @'
p124
tp125
Rp126
ag10
(g14
S'^|\x88W98"@'
p127
tp128
Rp129
ag10
(g14
S' \xb68\xda\xf6\x00!@'
p130
tp131
Rp132
ag10
(g14
S"<\xa1'\x8d\xa8\xac(@"
p133
tp134
Rp135
ag10
(g14
S'\xa4x\xd0\x85\x0eZ\x1d@'
p136
tp137
Rp138
asssss.