(dp0
S'../Data/sqlite_87.csv'
p1
(dp2
S'../Data/sqlite_90.csv'
p3
(dp4
F0.2
(dp5
S'mmre'
p6
(dp7
S'bellwether'
p8
(lp9
cnumpy.core.multiarray
scalar
p10
(cnumpy
dtype
p11
(S'f8'
p12
I0
I1
tp13
Rp14
(I3
S'<'
p15
NNNI-1
I-1
I0
tp16
bS'\xbc\xa6\x85y\x91\x1fT@'
p17
tp18
Rp19
ag10
(g14
S"t'_#\xeb6T@"
p20
tp21
Rp22
ag10
(g14
S'\x97\x01\x9c`\xfe1T@'
p23
tp24
Rp25
ag10
(g14
S'\x180\xbbC=CT@'
p26
tp27
Rp28
ag10
(g14
S'\xf6\xce\x06\x91Q,T@'
p29
tp30
Rp31
ag10
(g14
S'\x97\xa6\x93e\xcc:T@'
p32
tp33
Rp34
ag10
(g14
S'\xff\xb4oQV9T@'
p35
tp36
Rp37
ag10
(g14
S'\xf4\xa6\xf3.y/T@'
p38
tp39
Rp40
ag10
(g14
S'-)\xe79\x9eFT@'
p41
tp42
Rp43
ag10
(g14
S'\x0cS\xf4\x97\x1b-T@'
p44
tp45
Rp46
ag10
(g14
S'\x04n\xae$\xb1QT@'
p47
tp48
Rp49
ag10
(g14
S'\x18\xbc\x7f+\x91.T@'
p50
tp51
Rp52
ag10
(g14
S'G\x03\xdai\x851T@'
p53
tp54
Rp55
ag10
(g14
S'\xd9\x7f\x0c-/9T@'
p56
tp57
Rp58
ag10
(g14
S'\r\xc2\x98\xd2e2T@'
p59
tp60
Rp61
ag10
(g14
S'*5 \xbaIQT@'
p62
tp63
Rp64
ag10
(g14
S'\xf6.\xec\xce\xb95T@'
p65
tp66
Rp67
ag10
(g14
S'6\xfc\xae\xc0x0T@'
p68
tp69
Rp70
ag10
(g14
S'\x1e\xbd\x0b\xfc\xf3>T@'
p71
tp72
Rp73
ag10
(g14
S'\x99\xe4\x04 3RT@'
p74
tp75
Rp76
asS'target'
p77
(lp78
g10
(g14
S'b^G\xe1\x99UA@'
p79
tp80
Rp81
ag10
(g14
S't~P\xe2\xa6\x7fA@'
p82
tp83
Rp84
ag10
(g14
S"xV!Z'\xe1>@"
p85
tp86
Rp87
ag10
(g14
S'\x82\x1f.e\xa6.A@'
p88
tp89
Rp90
ag10
(g14
S'\xcb@\xf2\x1c\xe3OA@'
p91
tp92
Rp93
ag10
(g14
S'\n\xe0#zU-A@'
p94
tp95
Rp96
ag10
(g14
S'1\xa7\xa6N\xa9\x18?@'
p97
tp98
Rp99
ag10
(g14
S'\x94\xaa\x17`m{B@'
p100
tp101
Rp102
ag10
(g14
S'\xfc\xef\x89\xcbm\x91B@'
p103
tp104
Rp105
ag10
(g14
S'rZ5\x89C$A@'
p106
tp107
Rp108
ag10
(g14
S'y\xc6\x071\xde\x04A@'
p109
tp110
Rp111
ag10
(g14
S'N\x8c\xec\xf4\xf7\xc1A@'
p112
tp113
Rp114
ag10
(g14
S'\xca\xe1\xa2>{x@@'
p115
tp116
Rp117
ag10
(g14
S'\xf0}\xcb=\xdc\xfb@@'
p118
tp119
Rp120
ag10
(g14
S'\t\x1b\x0c\x05\xfc\xd0@@'
p121
tp122
Rp123
ag10
(g14
S'J>7VG\xe1A@'
p124
tp125
Rp126
ag10
(g14
S'\xc8\xbf\x8e\xed\x1d\x0eA@'
p127
tp128
Rp129
ag10
(g14
S't6{h\x82\xee@@'
p130
tp131
Rp132
ag10
(g14
S'\x8c\xc7\xf8\x9a\x16\xbd@@'
p133
tp134
Rp135
ag10
(g14
S'\xe6\xee\xad\xd6\x0e\xe4@@'
p136
tp137
Rp138
asssss.