(dp0
S'../Data/sqlite_92.csv'
p1
(dp2
S'../Data/sqlite_93.csv'
p3
(dp4
F0.3
(dp5
S'mmre'
p6
(dp7
S'bellwether'
p8
(lp9
cnumpy.core.multiarray
scalar
p10
(cnumpy
dtype
p11
(S'f8'
p12
I0
I1
tp13
Rp14
(I3
S'<'
p15
NNNI-1
I-1
I0
tp16
bS'\xf7\x13\xee\xf6\xf8ne@'
p17
tp18
Rp19
ag10
(g14
S'\x93j\x85U\xdble@'
p20
tp21
Rp22
ag10
(g14
S'N\xb7z\x05&>e@'
p23
tp24
Rp25
ag10
(g14
S'^\x16\x1dq\xc1}e@'
p26
tp27
Rp28
ag10
(g14
S'\x07\x0cu^pve@'
p29
tp30
Rp31
ag10
(g14
S'z\xfc\x0e\x17\xd9Xe@'
p32
tp33
Rp34
ag10
(g14
S'\xa9\x8c2%\xa2Je@'
p35
tp36
Rp37
ag10
(g14
S'%\x93\xe8\x86\xe7me@'
p38
tp39
Rp40
ag10
(g14
S'9gLZ\xbepe@'
p41
tp42
Rp43
ag10
(g14
S'\xca\x9d\xeb\x00\x85ke@'
p44
tp45
Rp46
ag10
(g14
S'\xe2+\x9c\xcc>\x80e@'
p47
tp48
Rp49
ag10
(g14
S':A\xc7\x0b\xf2fe@'
p50
tp51
Rp52
ag10
(g14
S'K\xb1\x02K\x8f@e@'
p53
tp54
Rp55
ag10
(g14
S'?\x07\x9c\xae1|e@'
p56
tp57
Rp58
ag10
(g14
S's\xb7#\xc7\xf8%e@'
p59
tp60
Rp61
ag10
(g14
S')\x98\xba\x10ive@'
p62
tp63
Rp64
ag10
(g14
S'7Z\xb3I\xc9\x0be@'
p65
tp66
Rp67
ag10
(g14
S'%\xa0\x83\x07\xe0ae@'
p68
tp69
Rp70
ag10
(g14
S'\xf7P\xc6+Fhe@'
p71
tp72
Rp73
ag10
(g14
S'{\xfc-\xfaX\te@'
p74
tp75
Rp76
asS'target'
p77
(lp78
g10
(g14
S'\xcdJ\xa1&\x880R@'
p79
tp80
Rp81
ag10
(g14
S'\x11o{y\xaf$Y@'
p82
tp83
Rp84
ag10
(g14
S'>o\x90\xc2-\xedS@'
p85
tp86
Rp87
ag10
(g14
S'\xeaRT6wJT@'
p88
tp89
Rp90
ag10
(g14
S'Jo\xd4\x87!{Q@'
p91
tp92
Rp93
ag10
(g14
S'\xa08\x11X\xec\x12P@'
p94
tp95
Rp96
ag10
(g14
S'\x9b\x19\x96\xc0\xa0\x89P@'
p97
tp98
Rp99
ag10
(g14
S'\x94-\xfb\x8f5LN@'
p100
tp101
Rp102
ag10
(g14
S'L\x89\x98\xb3\x18\xe2^@'
p103
tp104
Rp105
ag10
(g14
S'\xef\xd2{\x181\x95W@'
p106
tp107
Rp108
ag10
(g14
S'\xd4\xe1H]\xfa P@'
p109
tp110
Rp111
ag10
(g14
S'\xbcz\xecL\x9c\x7fT@'
p112
tp113
Rp114
ag10
(g14
S'\xa3S\xc7\xe0\xdfrV@'
p115
tp116
Rp117
ag10
(g14
S'm]\xf9Z\x08\x14T@'
p118
tp119
Rp120
ag10
(g14
S'\xfa\xbb@\x0c\xde\xb8W@'
p121
tp122
Rp123
ag10
(g14
S'\x0c#e\xb88\xa6R@'
p124
tp125
Rp126
ag10
(g14
S'5b\\\x13frW@'
p127
tp128
Rp129
ag10
(g14
S'L\xe9F\x19/\xdbT@'
p130
tp131
Rp132
ag10
(g14
S'\x16\x9a|\xc7\xearU@'
p133
tp134
Rp135
ag10
(g14
S'\x89\x90\xbcX:hP@'
p136
tp137
Rp138
asssss.