(dp0
S'../Data/sqlite_54.csv'
p1
(dp2
S'../Data/sqlite_59.csv'
p3
(dp4
F0.4
(dp5
S'mmre'
p6
(dp7
S'bellwether'
p8
(lp9
cnumpy.core.multiarray
scalar
p10
(cnumpy
dtype
p11
(S'f8'
p12
I0
I1
tp13
Rp14
(I3
S'<'
p15
NNNI-1
I-1
I0
tp16
bS'{gUF\xef\xa1V@'
p17
tp18
Rp19
ag10
(g14
S'B7\xcd\xe7\xaeOV@'
p20
tp21
Rp22
ag10
(g14
S'nw\x1f\x1f,GV@'
p23
tp24
Rp25
ag10
(g14
S'\x9d\xad*\xad+\x08V@'
p26
tp27
Rp28
ag10
(g14
S'8\xdfx\xd8\xd92V@'
p29
tp30
Rp31
ag10
(g14
S'\xb0K\x998\xe6vV@'
p32
tp33
Rp34
ag10
(g14
S'\x10\x85\x8cH\xf2@V@'
p35
tp36
Rp37
ag10
(g14
S"\xa8'j\x81\xe9&V@"
p38
tp39
Rp40
ag10
(g14
S'xi\x7f\t\xc8eV@'
p41
tp42
Rp43
ag10
(g14
S'z\xd0d\xba\x1a.V@'
p44
tp45
Rp46
ag10
(g14
S'2\xba\xbd\n-\x1fV@'
p47
tp48
Rp49
ag10
(g14
S'(\x80\xa1e\xc4\xa3V@'
p50
tp51
Rp52
ag10
(g14
S'\xa07?c\x0czV@'
p53
tp54
Rp55
ag10
(g14
S'\x00H7\x15Y.V@'
p56
tp57
Rp58
ag10
(g14
S'\x9e\x83\xf6\x8fw+V@'
p59
tp60
Rp61
ag10
(g14
S')k\xc7x\xc5%V@'
p62
tp63
Rp64
ag10
(g14
S'f\xee\x0f\xa3\xa1dV@'
p65
tp66
Rp67
ag10
(g14
S'\xfd\xff\x1d\x9c\xda_V@'
p68
tp69
Rp70
ag10
(g14
S'\x95\x02f\xc6:!V@'
p71
tp72
Rp73
ag10
(g14
S'Z\xc4\xad\x03\xec]V@'
p74
tp75
Rp76
asS'target'
p77
(lp78
g10
(g14
S'\xb8~\x0c%\xdb\xaf%@'
p79
tp80
Rp81
ag10
(g14
S'Pc\xde\xb8}9$@'
p82
tp83
Rp84
ag10
(g14
S'Z\xe39t\x8a\xeb$@'
p85
tp86
Rp87
ag10
(g14
S"\xe0\xfc\x8eV\x0f\x9c'@"
p88
tp89
Rp90
ag10
(g14
S'\xc0<\xb2m\x89?&@'
p91
tp92
Rp93
ag10
(g14
S'\xeb2\xa2\xa7\xcek%@'
p94
tp95
Rp96
ag10
(g14
S"w\x14\xf26\x10\x06'@"
p97
tp98
Rp99
ag10
(g14
S'\x85\xdbD\xc9\x8d\xce&@'
p100
tp101
Rp102
ag10
(g14
S'\x95e\x0b!\xe8\x8c%@'
p103
tp104
Rp105
ag10
(g14
S'\x8b\x81\xab\xc5"\xac$@'
p106
tp107
Rp108
ag10
(g14
S'\xea\x18n\\\xa0R&@'
p109
tp110
Rp111
ag10
(g14
S'\xc57\x99~/\xcd&@'
p112
tp113
Rp114
ag10
(g14
S'Ct\xaf2h\x8e%@'
p115
tp116
Rp117
ag10
(g14
S'\x07S\xc7\xe2\xba<%@'
p118
tp119
Rp120
ag10
(g14
S'jttp\x00L$@'
p121
tp122
Rp123
ag10
(g14
S'u\xbe.\xf15\xde%@'
p124
tp125
Rp126
ag10
(g14
S'2\x0et\x86\xe24&@'
p127
tp128
Rp129
ag10
(g14
S'\xb7\xe5\xbd-\xa9\xd8%@'
p130
tp131
Rp132
ag10
(g14
S'2+\xc7z\xb1\xdd%@'
p133
tp134
Rp135
ag10
(g14
S'\xa2\xcc\x03>%\xb1%@'
p136
tp137
Rp138
asssss.