(dp0
S'../Data/sqlite_59.csv'
p1
(dp2
S'../Data/sqlite_94.csv'
p3
(dp4
F0.15
(dp5
S'mmre'
p6
(dp7
S'bellwether'
p8
(lp9
cnumpy.core.multiarray
scalar
p10
(cnumpy
dtype
p11
(S'f8'
p12
I0
I1
tp13
Rp14
(I3
S'<'
p15
NNNI-1
I-1
I0
tp16
bS'c5\xe6],pW@'
p17
tp18
Rp19
ag10
(g14
S'hd\x9eM\xa4mW@'
p20
tp21
Rp22
ag10
(g14
S'W\xbb\xd8\x02KoW@'
p23
tp24
Rp25
ag10
(g14
S'\xc5|\x11RgmW@'
p26
tp27
Rp28
ag10
(g14
S'\x15>\x14\xccikW@'
p29
tp30
Rp31
ag10
(g14
S'\xae\xed\x92\x8a\xf0oW@'
p32
tp33
Rp34
ag10
(g14
S'\xb1KJs\xe0lW@'
p35
tp36
Rp37
ag10
(g14
S'\r\xcb^\xce\x16rW@'
p38
tp39
Rp40
ag10
(g14
S'\xdb\r\x07o\x11kW@'
p41
tp42
Rp43
ag10
(g14
S'\x93\xd3nE\xc9lW@'
p44
tp45
Rp46
ag10
(g14
S'\xe0\xc9\xf0\xb6LmW@'
p47
tp48
Rp49
ag10
(g14
S'\x1eRa4tnW@'
p50
tp51
Rp52
ag10
(g14
S'#\x05\x01\xc9\x0fmW@'
p53
tp54
Rp55
ag10
(g14
S'\x87\xe5\xa7b!nW@'
p56
tp57
Rp58
ag10
(g14
S'\xa5$Z\xe0HlW@'
p59
tp60
Rp61
ag10
(g14
S'\x98\x9c\xc7\x80#oW@'
p62
tp63
Rp64
ag10
(g14
S',\x8bx\xac\x83kW@'
p65
tp66
Rp67
ag10
(g14
S'\x8d\x1cT\x95\xa9pW@'
p68
tp69
Rp70
ag10
(g14
S'\xd5<\xe3\t\xe5mW@'
p71
tp72
Rp73
ag10
(g14
S'\x19Mk\xe3\x13pW@'
p74
tp75
Rp76
asS'target'
p77
(lp78
g10
(g14
S'I\x9e;\xf7\xb2xJ@'
p79
tp80
Rp81
ag10
(g14
S'\x12\xe4t`T\x10F@'
p82
tp83
Rp84
ag10
(g14
S'\x02Hgu?\x08S@'
p85
tp86
Rp87
ag10
(g14
S'\xf5}LI\x0b\xc6Q@'
p88
tp89
Rp90
ag10
(g14
S'\xe0\x0fV\x11"PK@'
p91
tp92
Rp93
ag10
(g14
S"\xfcE'\x1f\xb7\xb7I@"
p94
tp95
Rp96
ag10
(g14
S'\xd83\xa9\xbb2\xd5I@'
p97
tp98
Rp99
ag10
(g14
S'I\xccjxEaH@'
p100
tp101
Rp102
ag10
(g14
S'\x8a\x02\xe8\xcf\xd5\x9b]@'
p103
tp104
Rp105
ag10
(g14
S"\x06]h'\xa0AU@"
p106
tp107
Rp108
ag10
(g14
S'$,\x81\xb0\xb4\xfaP@'
p109
tp110
Rp111
ag10
(g14
S'w\x8dJ\xa8s\xafQ@'
p112
tp113
Rp114
ag10
(g14
S'\xe4R\x86\x0bC\xe0U@'
p115
tp116
Rp117
ag10
(g14
S'\xb3\xdc\rkpbV@'
p118
tp119
Rp120
ag10
(g14
S'\xc0MtlW\rQ@'
p121
tp122
Rp123
ag10
(g14
S'\xd4\xb6M\x9f\x02#J@'
p124
tp125
Rp126
ag10
(g14
S'c[\xb7 \x92\x05O@'
p127
tp128
Rp129
ag10
(g14
S'\xf0u\x80\xd2S\xabJ@'
p130
tp131
Rp132
ag10
(g14
S'\xb3Js\xc9&KS@'
p133
tp134
Rp135
ag10
(g14
S'\x8d\x1f\xc7mV\xdfG@'
p136
tp137
Rp138
asssss.