(dp0
S'../Data/sqlite_7.csv'
p1
(dp2
S'../Data/sqlite_96.csv'
p3
(dp4
F0.1
(dp5
S'mmre'
p6
(dp7
S'bellwether'
p8
(lp9
cnumpy.core.multiarray
scalar
p10
(cnumpy
dtype
p11
(S'f8'
p12
I0
I1
tp13
Rp14
(I3
S'<'
p15
NNNI-1
I-1
I0
tp16
bS'm\xd7\x11\\\xd1/R@'
p17
tp18
Rp19
ag10
(g14
S"C\x96l\xc3\xe7'R@"
p20
tp21
Rp22
ag10
(g14
S'\xb5\xe0\xdd\xaa!7R@'
p23
tp24
Rp25
ag10
(g14
S'\x12U\x0e\xe738R@'
p26
tp27
Rp28
ag10
(g14
S'\x90\x97\x12\x7f36R@'
p29
tp30
Rp31
ag10
(g14
S'R\x98\xc6:\xf1/R@'
p32
tp33
Rp34
ag10
(g14
S'\xbc\xd2\xe3\xaez<R@'
p35
tp36
Rp37
ag10
(g14
S'n\x08\xe5\x95~<R@'
p38
tp39
Rp40
ag10
(g14
S'$,L~\xcd.R@'
p41
tp42
Rp43
ag10
(g14
S'9\xee\xb0=\x16/R@'
p44
tp45
Rp46
ag10
(g14
S'\x90,c]\xbd5R@'
p47
tp48
Rp49
ag10
(g14
S'M\x04\xbex\xb0/R@'
p50
tp51
Rp52
ag10
(g14
S'\x06~\xe2p\xf44R@'
p53
tp54
Rp55
ag10
(g14
S'\x9f\n\t\x81b<R@'
p56
tp57
Rp58
ag10
(g14
S'\xbcR92\xcd5R@'
p59
tp60
Rp61
ag10
(g14
S'\x17\xb4t\xb7i.R@'
p62
tp63
Rp64
ag10
(g14
S'\xcb\xf5v\x04\xa24R@'
p65
tp66
Rp67
ag10
(g14
S'X\xb8\x0f\x1b\xce6R@'
p68
tp69
Rp70
ag10
(g14
S'\xce\x13\x8c0\x895R@'
p71
tp72
Rp73
ag10
(g14
S'\x01S\xd7\x1c\xa2.R@'
p74
tp75
Rp76
asS'target'
p77
(lp78
g10
(g14
S'Y\x16=\xe1RRR@'
p79
tp80
Rp81
ag10
(g14
S'w\xcd\x06\x03\xf2\xac`@'
p82
tp83
Rp84
ag10
(g14
S'\x87f\xa1mh\x98]@'
p85
tp86
Rp87
ag10
(g14
S'r\xe1\xc4)\xccmV@'
p88
tp89
Rp90
ag10
(g14
S'\x87\xc3\xbc\x85W2W@'
p91
tp92
Rp93
ag10
(g14
S'\xe91\xa2]i\xbdZ@'
p94
tp95
Rp96
ag10
(g14
S't\n\xf0\xf5\x9d\xc6C@'
p97
tp98
Rp99
ag10
(g14
S'&\xee\xa7\x1e\xed\xb4D@'
p100
tp101
Rp102
ag10
(g14
S'\x00\xe10M\xe9\xdcc@'
p103
tp104
Rp105
ag10
(g14
S'\xb0\x1a\x1fC\xd1\xc4V@'
p106
tp107
Rp108
ag10
(g14
S'9\x1c\xa0\x10.\xdbS@'
p109
tp110
Rp111
ag10
(g14
S'y\x9e(\xbf\x07\xabW@'
p112
tp113
Rp114
ag10
(g14
S'\xc2\xe0Y(\xb4\xc1[@'
p115
tp116
Rp117
ag10
(g14
S'DB\xf8A$`A@'
p118
tp119
Rp120
ag10
(g14
S'&}\xc6\xb4\xb5\x16L@'
p121
tp122
Rp123
ag10
(g14
S'-U\x80"\x85\rT@'
p124
tp125
Rp126
ag10
(g14
S'c\xa2\x0bK\xe3%[@'
p127
tp128
Rp129
ag10
(g14
S'LU\xb8}m-R@'
p130
tp131
Rp132
ag10
(g14
S'xgu\x0b\xa3\x80V@'
p133
tp134
Rp135
ag10
(g14
S"\xd0'\xbb\xb7T\xf1W@"
p136
tp137
Rp138
asssss.