(dp0
S'../Data/sqlite_94.csv'
p1
(dp2
S'../Data/sqlite_51.csv'
p3
(dp4
F0.1
(dp5
S'abs_res'
p6
(dp7
S'bellwether'
p8
(lp9
cnumpy.core.multiarray
scalar
p10
(cnumpy
dtype
p11
(S'f8'
p12
I0
I1
tp13
Rp14
(I3
S'<'
p15
NNNI-1
I-1
I0
tp16
bS'\xaa\xc6Kwd\x93"A'
p17
tp18
Rp19
ag10
(g14
S'8\x89A \xf5\x9e"A'
p20
tp21
Rp22
ag10
(g14
S'\x83j\xbc\xb4\xfdH"A'
p23
tp24
Rp25
ag10
(g14
S'\xbc\xc8v>\xa4<"A'
p26
tp27
Rp28
ag10
(g14
S'\t+\x87\x16\xc1\xa9"A'
p29
tp30
Rp31
ag10
(g14
S'\x86\x16\xd9\xce\x02^"A'
p32
tp33
Rp34
ag10
(g14
S'\x8b\x97n\xd2\xd7\xe2"A'
p35
tp36
Rp37
ag10
(g14
S'mh\x91-\xab\xcc"A'
p38
tp39
Rp40
ag10
(g14
S'\xd7Mb\xd0)w"A'
p41
tp42
Rp43
ag10
(g14
S'M\x8blg-\xb1"A'
p44
tp45
Rp46
ag10
(g14
S'\x8al\xe7\xbb\xa4{"A'
p47
tp48
Rp49
ag10
(g14
S'7^\xba\x89\xfbQ"A'
p50
tp51
Rp52
ag10
(g14
S'\xd6Mb\x90\xf8T"A'
p53
tp54
Rp55
ag10
(g14
S'\r-\xb2\x9d\x8c\xb3"A'
p56
tp57
Rp58
ag10
(g14
S'\xb5\x1e\x85\xeb\xe4\xae"A'
p59
tp60
Rp61
ag10
(g14
S'.\x06\x81\x95\n\xac"A'
p62
tp63
Rp64
ag10
(g14
S'-\\\x8f\x82\x9fw"A'
p65
tp66
Rp67
ag10
(g14
S'8\xdd$\x86p\xd1"A'
p68
tp69
Rp70
ag10
(g14
S'\xccK7I2Y"A'
p71
tp72
Rp73
ag10
(g14
S'\x0e\x02+\x87\xd6\x9f"A'
p74
tp75
Rp76
asS'target'
p77
(lp78
g10
(g14
S'Ub\x10X9\x84D@'
p79
tp80
Rp81
ag10
(g14
S'\xdf\xa3p=\nGC@'
p82
tp83
Rp84
ag10
(g14
S'u\x93\x18\x04Vn@@'
p85
tp86
Rp87
ag10
(g14
S'\x0e-\xb2\x9d\xef\xc7B@'
p88
tp89
Rp90
ag10
(g14
S'\xc4K7\x89A@E@'
p91
tp92
Rp93
ag10
(g14
S'\xb2\x1cZd;\x0fG@'
p94
tp95
Rp96
ag10
(g14
S'\xf0&1\x08\xac|@@'
p97
tp98
Rp99
ag10
(g14
S'\xa9\x1cZd;\x0fA@'
p100
tp101
Rp102
ag10
(g14
S'}?5^\xba\xd9E@'
p103
tp104
Rp105
ag10
(g14
S'F\x8bl\xe7\xfb\xa9B@'
p106
tp107
Rp108
ag10
(g14
S'zh\x91\xed|\xbfK@'
p109
tp110
Rp111
ag10
(g14
S'k\xbct\x93\x18\x84A@'
p112
tp113
Rp114
ag10
(g14
S'z?5^\xbayA@'
p115
tp116
Rp117
ag10
(g14
S'\x9d\xc4 \xb0r\x08D@'
p118
tp119
Rp120
ag10
(g14
S'\x0e\xd5x\xe9&!E@'
p121
tp122
Rp123
ag10
(g14
S'<\xdfO\x8d\x97nE@'
p124
tp125
Rp126
ag10
(g14
S'\x9c\x1a/\xdd$6C@'
p127
tp128
Rp129
ag10
(g14
S'\xdf\xa5\x9b\xc4 \xa0G@'
p130
tp131
Rp132
ag10
(g14
S'8\xdd$\x06\x81uD@'
p133
tp134
Rp135
ag10
(g14
S'M\xb6\xf3\xfd\xd4\x88F@'
p136
tp137
Rp138
asssss.