(dp0
S'../Data/sqlite_60.csv'
p1
(dp2
S'../Data/sqlite_85.csv'
p3
(dp4
F0.3
(dp5
S'mmre'
p6
(dp7
S'bellwether'
p8
(lp9
cnumpy.core.multiarray
scalar
p10
(cnumpy
dtype
p11
(S'f8'
p12
I0
I1
tp13
Rp14
(I3
S'<'
p15
NNNI-1
I-1
I0
tp16
bS'p\xe8)\xfe\x9d\xb2j@'
p17
tp18
Rp19
ag10
(g14
S'\xb3\xc8\xefC^ni@'
p20
tp21
Rp22
ag10
(g14
S'2%\xbb`[\x97i@'
p23
tp24
Rp25
ag10
(g14
S'^kDi=\xach@'
p26
tp27
Rp28
ag10
(g14
S'<\x183Xn\x88j@'
p29
tp30
Rp31
ag10
(g14
S'\\O\xb6yU\xa3i@'
p32
tp33
Rp34
ag10
(g14
S'uX\xb7\xf0\x08Oi@'
p35
tp36
Rp37
ag10
(g14
S'\xfb\xa1\xdc\xd7\xf91i@'
p38
tp39
Rp40
ag10
(g14
S'-\xed?\xfa\x80,j@'
p41
tp42
Rp43
ag10
(g14
S'\xc53s\xde\n\x9fi@'
p44
tp45
Rp46
ag10
(g14
S'\xf2iE\x0ey i@'
p47
tp48
Rp49
ag10
(g14
S'3x%\xedS\xf1h@'
p50
tp51
Rp52
ag10
(g14
S'\xa4\x08\xb6\x81U\xc1g@'
p53
tp54
Rp55
ag10
(g14
S'\x17?\x1f\xad\xc9\xd5i@'
p56
tp57
Rp58
ag10
(g14
S'\xd7O\ts\xd1\x08i@'
p59
tp60
Rp61
ag10
(g14
S'\x07\xe00w\xd7\x87h@'
p62
tp63
Rp64
ag10
(g14
S'u\xe8\xe6\x1c\xd0\tj@'
p65
tp66
Rp67
ag10
(g14
S'w:\xd2\xaeLqh@'
p68
tp69
Rp70
ag10
(g14
S'Q\xe1\xf3\x9c\xd7\xbfi@'
p71
tp72
Rp73
ag10
(g14
S'\xd2@\xfe\xe9\x84Sj@'
p74
tp75
Rp76
asS'target'
p77
(lp78
g10
(g14
S'\xfd(R\xac\xf5\x08T@'
p79
tp80
Rp81
ag10
(g14
S'!l|\x12\x90\xfaR@'
p82
tp83
Rp84
ag10
(g14
S"R+'[~\xf5S@"
p85
tp86
Rp87
ag10
(g14
S'\x8a\xa1\xcd\x0f~\xa8R@'
p88
tp89
Rp90
ag10
(g14
S'\xd3G\x1c\xc39&T@'
p91
tp92
Rp93
ag10
(g14
S'\xb0\xddp\x16\x1b\xb5S@'
p94
tp95
Rp96
ag10
(g14
S'7\xc4\xc3\xd5/bS@'
p97
tp98
Rp99
ag10
(g14
S'J\x9c\xf9<\xfdMS@'
p100
tp101
Rp102
ag10
(g14
S'H\xd15UcCU@'
p103
tp104
Rp105
ag10
(g14
S'|a\xec89\x87R@'
p106
tp107
Rp108
ag10
(g14
S'\xc9\xa0\x8f \xbb+S@'
p109
tp110
Rp111
ag10
(g14
S'\xfa\xe9x\xa8\xc1\xbbT@'
p112
tp113
Rp114
ag10
(g14
S'\x8f\xc4j\x00\x04aR@'
p115
tp116
Rp117
ag10
(g14
S'\x16tSU@]U@'
p118
tp119
Rp120
ag10
(g14
S'-d\xdf~\xfc\xa3S@'
p121
tp122
Rp123
ag10
(g14
S'6_^\xea\x18\x88Q@'
p124
tp125
Rp126
ag10
(g14
S'K\x9e\x1e\x89|\xd7T@'
p127
tp128
Rp129
ag10
(g14
S'!(\x94\xd6\xc6VR@'
p130
tp131
Rp132
ag10
(g14
S'\xa0\x94;\x9e3\xd7Q@'
p133
tp134
Rp135
ag10
(g14
S'\x93\x11f\x03\xf7~W@'
p136
tp137
Rp138
asssss.