(dp0
S'../Data/sqlite_54.csv'
p1
(dp2
S'../Data/sqlite_78.csv'
p3
(dp4
F0.2
(dp5
S'mmre'
p6
(dp7
S'bellwether'
p8
(lp9
cnumpy.core.multiarray
scalar
p10
(cnumpy
dtype
p11
(S'f8'
p12
I0
I1
tp13
Rp14
(I3
S'<'
p15
NNNI-1
I-1
I0
tp16
bS'=\x0f\x94c\x01\ry@'
p17
tp18
Rp19
ag10
(g14
S'\xc7\xc6d\x9b\x9aAy@'
p20
tp21
Rp22
ag10
(g14
S'k\x0b\xf1\xa5n.y@'
p23
tp24
Rp25
ag10
(g14
S'\xeeX\xb4X\x85By@'
p26
tp27
Rp28
ag10
(g14
S'\x80\xeeZL\xe1Ay@'
p29
tp30
Rp31
ag10
(g14
S'\xf6\x9d\x8a+\xadTy@'
p32
tp33
Rp34
ag10
(g14
S'?G\xc3\xf0iAy@'
p35
tp36
Rp37
ag10
(g14
S'\xfd]\xb0\xce\x9c$y@'
p38
tp39
Rp40
ag10
(g14
S'\x1aW<\xff0"y@'
p41
tp42
Rp43
ag10
(g14
S"'Z\xf9\xfe?Fy@"
p44
tp45
Rp46
ag10
(g14
S'\xc5\x16\x01\x1b\x86Fy@'
p47
tp48
Rp49
ag10
(g14
S'\xb8\xe6\xf5\xff\xffLy@'
p50
tp51
Rp52
ag10
(g14
S'\xf4B\x04\x95\xfa.y@'
p53
tp54
Rp55
ag10
(g14
S'\x9c|\xc1\xa9\xd7Xy@'
p56
tp57
Rp58
ag10
(g14
S'b\xb5_\x11~)y@'
p59
tp60
Rp61
ag10
(g14
S'X\xf2\x0e\x05T@y@'
p62
tp63
Rp64
ag10
(g14
S'\xd4[P=HBy@'
p65
tp66
Rp67
ag10
(g14
S'0\x18\x15F\xa5;y@'
p68
tp69
Rp70
ag10
(g14
S'\xa7\x83/\x0e&?y@'
p71
tp72
Rp73
ag10
(g14
S'Gwe\x03\xc6.y@'
p74
tp75
Rp76
asS'target'
p77
(lp78
g10
(g14
S'2/\x86\r\xa1\xb23@'
p79
tp80
Rp81
ag10
(g14
S'\xd2\x1a\xaaJ\x1c\xf62@'
p82
tp83
Rp84
ag10
(g14
S'9\r\x84F\xec\x973@'
p85
tp86
Rp87
ag10
(g14
S'\\U\xdcG\xadz4@'
p88
tp89
Rp90
ag10
(g14
S'$F\x14\xacG\x9d2@'
p91
tp92
Rp93
ag10
(g14
S'\xe4\xe3\xc1\xf8\xbb%4@'
p94
tp95
Rp96
ag10
(g14
S'2\x1aP\xdbH,3@'
p97
tp98
Rp99
ag10
(g14
S'\xccR[}\xd9\xeb3@'
p100
tp101
Rp102
ag10
(g14
S'(J\x8a3\x9f\xfc2@'
p103
tp104
Rp105
ag10
(g14
S'\xd1qY\xc4\x99\xc24@'
p106
tp107
Rp108
ag10
(g14
S'N\x9f\x9dery3@'
p109
tp110
Rp111
ag10
(g14
S"\xd9\x81['\x8f\xb53@"
p112
tp113
Rp114
ag10
(g14
S'\x96\xd1jA\xc2\xbc3@'
p115
tp116
Rp117
ag10
(g14
S'\xac\xb1\xa5\x0f\x82Q5@'
p118
tp119
Rp120
ag10
(g14
S'\x86\xf8\xac>\xc0-4@'
p121
tp122
Rp123
ag10
(g14
S'\xe8\xff\x9fi\x8e\x173@'
p124
tp125
Rp126
ag10
(g14
S'\xae\x859\xdd\xa8O5@'
p127
tp128
Rp129
ag10
(g14
S'::(/+\xbf4@'
p130
tp131
Rp132
ag10
(g14
S'\x1d\x91.sV\x8f4@'
p133
tp134
Rp135
ag10
(g14
S'H\xf4\x01\xc0m\x1e3@'
p136
tp137
Rp138
asssss.