(dp0
S'../Data/sqlite_39.csv'
p1
(dp2
S'../Data/sqlite_88.csv'
p3
(dp4
F0.05
(dp5
S'mmre'
p6
(dp7
S'bellwether'
p8
(lp9
cnumpy.core.multiarray
scalar
p10
(cnumpy
dtype
p11
(S'f8'
p12
I0
I1
tp13
Rp14
(I3
S'<'
p15
NNNI-1
I-1
I0
tp16
bS"\xc5gD\xd0'aX@"
p17
tp18
Rp19
ag10
(g14
S'\xb9\xaf\xae}\x9d_X@'
p20
tp21
Rp22
ag10
(g14
S'\xd9<]\xa7\xf8dX@'
p23
tp24
Rp25
ag10
(g14
S'sw\x90\xad\xecdX@'
p26
tp27
Rp28
ag10
(g14
S'\xa3C\xb0\x85q]X@'
p29
tp30
Rp31
ag10
(g14
S'9\x16C%r^X@'
p32
tp33
Rp34
ag10
(g14
S'\xbf\x85\x05*+\\X@'
p35
tp36
Rp37
ag10
(g14
S'\x1e&\xca\xa7]]X@'
p38
tp39
Rp40
ag10
(g14
S'\x997v\xcd$\\X@'
p41
tp42
Rp43
ag10
(g14
S'8\xb9\tcR^X@'
p44
tp45
Rp46
ag10
(g14
S'mU\r\xff%\\X@'
p47
tp48
Rp49
ag10
(g14
S'\x0f\xe8\xf5\xc3(aX@'
p50
tp51
Rp52
ag10
(g14
S'\x87}?\x1f\x8e_X@'
p53
tp54
Rp55
ag10
(g14
S'x(l-x^X@'
p56
tp57
Rp58
ag10
(g14
S'3"U\xa9=]X@'
p59
tp60
Rp61
ag10
(g14
S'\x00\x90\xd7\x1a\x82]X@'
p62
tp63
Rp64
ag10
(g14
S'\xcf\x11l\x1a\xbd^X@'
p65
tp66
Rp67
ag10
(g14
S'\x10\xe399S]X@'
p68
tp69
Rp70
ag10
(g14
S'\xb0\xad\xf2\xdar^X@'
p71
tp72
Rp73
ag10
(g14
S'\x85\xf3\x0bFH^X@'
p74
tp75
Rp76
asS'target'
p77
(lp78
g10
(g14
S'\xef\xcaf\x9bwRN@'
p79
tp80
Rp81
ag10
(g14
S'\xdecV\xb6\x95\xc4J@'
p82
tp83
Rp84
ag10
(g14
S'x`\x06\xd6\xe4\xabI@'
p85
tp86
Rp87
ag10
(g14
S"'\x15\xaa\x91\xe9tJ@"
p88
tp89
Rp90
ag10
(g14
S'4\xe8\xceQ!nI@'
p91
tp92
Rp93
ag10
(g14
S'p\xb5;{R(L@'
p94
tp95
Rp96
ag10
(g14
S'\xc7\x83~\xf0e2K@'
p97
tp98
Rp99
ag10
(g14
S'\r\xfc\x97I\xd7\xbeL@'
p100
tp101
Rp102
ag10
(g14
S'\xa8\xc6#s\xd5%K@'
p103
tp104
Rp105
ag10
(g14
S'\xc4MM\x9e"\x7fM@'
p106
tp107
Rp108
ag10
(g14
S'\x87\xe6_\xe0\xdbDK@'
p109
tp110
Rp111
ag10
(g14
S'\xbb8\xe8l\xa0\xe9K@'
p112
tp113
Rp114
ag10
(g14
S'\xc5RfI\xe1\xbdH@'
p115
tp116
Rp117
ag10
(g14
S'OQ\xea\n\x91\xbfJ@'
p118
tp119
Rp120
ag10
(g14
S'T,T.X\x8cK@'
p121
tp122
Rp123
ag10
(g14
S'R5\xbf\x7f\xb3\xe5L@'
p124
tp125
Rp126
ag10
(g14
S'\xb6H\x1a1$\x96P@'
p127
tp128
Rp129
ag10
(g14
S'\x8fvgV\x9c\xa3M@'
p130
tp131
Rp132
ag10
(g14
S'\x1c\x90$E\x8e`P@'
p133
tp134
Rp135
ag10
(g14
S'\x9f\xcfn\xa9S-R@'
p136
tp137
Rp138
asssss.