(dp0
S'../Data/sqlite_95.csv'
p1
(dp2
S'../Data/sqlite_94.csv'
p3
(dp4
F0.25
(dp5
S'mmre'
p6
(dp7
S'bellwether'
p8
(lp9
cnumpy.core.multiarray
scalar
p10
(cnumpy
dtype
p11
(S'f8'
p12
I0
I1
tp13
Rp14
(I3
S'<'
p15
NNNI-1
I-1
I0
tp16
bS'1\x98@\x93:Yp@'
p17
tp18
Rp19
ag10
(g14
S'\x8c\x95\x10\xefj9p@'
p20
tp21
Rp22
ag10
(g14
S'\x7f6\xfaTT*p@'
p23
tp24
Rp25
ag10
(g14
S'\xbf7\xe8\xb0_\x1ap@'
p26
tp27
Rp28
ag10
(g14
S'u\xaf-\xf9\xebhp@'
p29
tp30
Rp31
ag10
(g14
S'y\x17z\xb1\xe6Dp@'
p32
tp33
Rp34
ag10
(g14
S'_\xef\xac\xc0@op@'
p35
tp36
Rp37
ag10
(g14
S'\t\xeb\nt\x10\x17p@'
p38
tp39
Rp40
ag10
(g14
S'DZ\xbagOBp@'
p41
tp42
Rp43
ag10
(g14
S'\x9aAZ\xb8>\x81p@'
p44
tp45
Rp46
ag10
(g14
S'y\xeb\xf3\x81\n;p@'
p47
tp48
Rp49
ag10
(g14
S"\xa0'~!\x15\x87p@"
p50
tp51
Rp52
ag10
(g14
S'3>2\x96\xd8bp@'
p53
tp54
Rp55
ag10
(g14
S'\x15\xbax\x06\xb3\x7fp@'
p56
tp57
Rp58
ag10
(g14
S'viD\xc7/\x1fp@'
p59
tp60
Rp61
ag10
(g14
S'\xb3k7\xc7E8p@'
p62
tp63
Rp64
ag10
(g14
S'r\x9d\xc3\xdaV1p@'
p65
tp66
Rp67
ag10
(g14
S'`\xbd\xc13\x0e]p@'
p68
tp69
Rp70
ag10
(g14
S'\xa1\xcde\xf4?\x11p@'
p71
tp72
Rp73
ag10
(g14
S'\x8b\xdb\xa8r\x01#p@'
p74
tp75
Rp76
asS'target'
p77
(lp78
g10
(g14
S'\xe7\x1dQ\xfb\xf1\\U@'
p79
tp80
Rp81
ag10
(g14
S'PR\xdd\xa9\xd2)N@'
p82
tp83
Rp84
ag10
(g14
S'\x16\xb2\xc0\xeb\xfe#P@'
p85
tp86
Rp87
ag10
(g14
S'v\x10\x87\xfe\xb9%M@'
p88
tp89
Rp90
ag10
(g14
S'\tDfHE\xf9U@'
p91
tp92
Rp93
ag10
(g14
S'j\x93/4\xcdfU@'
p94
tp95
Rp96
ag10
(g14
S'\x0e\xef\xeb\x98\x1e\xa9S@'
p97
tp98
Rp99
ag10
(g14
S'\xc3\x8d\xe1a\xfe4K@'
p100
tp101
Rp102
ag10
(g14
S'|F\xa9\xde\xf80S@'
p103
tp104
Rp105
ag10
(g14
S'p<c\x9e\xa9\xebP@'
p106
tp107
Rp108
ag10
(g14
S"\x027\x99\x83'\x8eQ@"
p109
tp110
Rp111
ag10
(g14
S'vF\xa3\x1e\xb4/S@'
p112
tp113
Rp114
ag10
(g14
S'| Er\xc0KS@'
p115
tp116
Rp117
ag10
(g14
S'>%\xacv\x84\xf4O@'
p118
tp119
Rp120
ag10
(g14
S'XD\x9f\x92?\xb4S@'
p121
tp122
Rp123
ag10
(g14
S'\x07\x110;hFQ@'
p124
tp125
Rp126
ag10
(g14
S'~\xa1\x93H\xbf\x81M@'
p127
tp128
Rp129
ag10
(g14
S'\x948\x0c\xbf4\x99P@'
p130
tp131
Rp132
ag10
(g14
S'\x02\x998\xc6\xc0\xc8I@'
p133
tp134
Rp135
ag10
(g14
S'*\xb9%\xa4d\xffM@'
p136
tp137
Rp138
asssss.