(dp0
S'../Data/sqlite_23.csv'
p1
(dp2
S'../Data/sqlite_78.csv'
p3
(dp4
F0.05
(dp5
S'mmre'
p6
(dp7
S'bellwether'
p8
(lp9
cnumpy.core.multiarray
scalar
p10
(cnumpy
dtype
p11
(S'f8'
p12
I0
I1
tp13
Rp14
(I3
S'<'
p15
NNNI-1
I-1
I0
tp16
bS'\x88\x95L~h#T@'
p17
tp18
Rp19
ag10
(g14
S'G\xe2\xd2\xb9+#T@'
p20
tp21
Rp22
ag10
(g14
S'\xee\x1d~"x"T@'
p23
tp24
Rp25
ag10
(g14
S'\xe5>\x96,I$T@'
p26
tp27
Rp28
ag10
(g14
S'N\x8b\xca<\xe4$T@'
p29
tp30
Rp31
ag10
(g14
S'\x05\xa2 3\xcd#T@'
p32
tp33
Rp34
ag10
(g14
S'\xa4\xe9\x90h\xbc#T@'
p35
tp36
Rp37
ag10
(g14
S'ah\xe5\x1d}#T@'
p38
tp39
Rp40
ag10
(g14
S'\xa5\x13\xb2\xf9#$T@'
p41
tp42
Rp43
ag10
(g14
S'\xea\x95c\xdc+%T@'
p44
tp45
Rp46
ag10
(g14
S'9\xbe\x80\xe1\xd7#T@'
p47
tp48
Rp49
ag10
(g14
S';\x18\x97\x82\xe5&T@'
p50
tp51
Rp52
ag10
(g14
S'p\xed\xf1\x05d#T@'
p53
tp54
Rp55
ag10
(g14
S'\x0fCN\xaf\xcd#T@'
p56
tp57
Rp58
ag10
(g14
S'\x17\xefxX\xc2$T@'
p59
tp60
Rp61
ag10
(g14
S"\xe7\x10u\xaf\r'T@"
p62
tp63
Rp64
ag10
(g14
S'\x08t\xcd2\\&T@'
p65
tp66
Rp67
ag10
(g14
S'\x16\x9a\xbbV\xcd"T@'
p68
tp69
Rp70
ag10
(g14
S'\xa9B\x1fn\x9f%T@'
p71
tp72
Rp73
ag10
(g14
S'Q_Noa#T@'
p74
tp75
Rp76
asS'target'
p77
(lp78
g10
(g14
S'\xd6B|A0\x004@'
p79
tp80
Rp81
ag10
(g14
S'n\xe5\xe7\xb2\x94\xa38@'
p82
tp83
Rp84
ag10
(g14
S'\x07.|]\xd8\xac3@'
p85
tp86
Rp87
ag10
(g14
S"\xa5C\x95'\x9f\x0e7@"
p88
tp89
Rp90
ag10
(g14
S'ep\xcb\xd4a\x9e3@'
p91
tp92
Rp93
ag10
(g14
S':\x06$\x8e\x00\x144@'
p94
tp95
Rp96
ag10
(g14
S'\xe7\xb4+\xc2!D4@'
p97
tp98
Rp99
ag10
(g14
S'\xf8\xf0\x8bl\x1c`5@'
p100
tp101
Rp102
ag10
(g14
S'\x98\x896\xb3\xd166@'
p103
tp104
Rp105
ag10
(g14
S'\xb4\xb4@T)f4@'
p106
tp107
Rp108
ag10
(g14
S'\x0e\xa4\xbcCn\x853@'
p109
tp110
Rp111
ag10
(g14
S'|b\xde&\xe1\x890@'
p112
tp113
Rp114
ag10
(g14
S'\xd4\xff(\xf8q\x044@'
p115
tp116
Rp117
ag10
(g14
S'\xdd5\x9a\xac\xb2\xf93@'
p118
tp119
Rp120
ag10
(g14
S'\xbbom\xd0\xa0\xda4@'
p121
tp122
Rp123
ag10
(g14
S'\xcd\xce\x8dDO\x8a3@'
p124
tp125
Rp126
ag10
(g14
S'Bw\xe9VI\x003@'
p127
tp128
Rp129
ag10
(g14
S'\xe0\x94\x14\xe2\xd5\xc13@'
p130
tp131
Rp132
ag10
(g14
S'\x94\xeb1.L\x965@'
p133
tp134
Rp135
ag10
(g14
S' 2\xb4FI\x083@'
p136
tp137
Rp138
asssss.