(dp0
S'../Data/sqlite_76.csv'
p1
(dp2
S'../Data/sqlite_94.csv'
p3
(dp4
F0.15
(dp5
S'mmre'
p6
(dp7
S'bellwether'
p8
(lp9
cnumpy.core.multiarray
scalar
p10
(cnumpy
dtype
p11
(S'f8'
p12
I0
I1
tp13
Rp14
(I3
S'<'
p15
NNNI-1
I-1
I0
tp16
bS'>\x8f[f\xc5=V@'
p17
tp18
Rp19
ag10
(g14
S'&\x95\x9eh~?V@'
p20
tp21
Rp22
ag10
(g14
S'}\xba\xe9\x85y=V@'
p23
tp24
Rp25
ag10
(g14
S'\x99G\xed\xb2\r?V@'
p26
tp27
Rp28
ag10
(g14
S'$\xd1\xd9\xfcJ?V@'
p29
tp30
Rp31
ag10
(g14
S'\xc6\x93\xc0\x80-?V@'
p32
tp33
Rp34
ag10
(g14
S'"\xa2\xbc\xcd\x9a?V@'
p35
tp36
Rp37
ag10
(g14
S'\xed=\xb5\xab\x16@V@'
p38
tp39
Rp40
ag10
(g14
S'\x96\x1f\xfd79<V@'
p41
tp42
Rp43
ag10
(g14
S'\x10\xb1\x91\x03\x10>V@'
p44
tp45
Rp46
ag10
(g14
S'-\xd2\xae7\xaf=V@'
p47
tp48
Rp49
ag10
(g14
S'6G\xd1}K?V@'
p50
tp51
Rp52
ag10
(g14
S'\xf4\xdeFP\x07CV@'
p53
tp54
Rp55
ag10
(g14
S'^\xb4\xc2\xf3P8V@'
p56
tp57
Rp58
ag10
(g14
S'\xacDH\x84[BV@'
p59
tp60
Rp61
ag10
(g14
S'w\xb3\xd1\xfe\xfa<V@'
p62
tp63
Rp64
ag10
(g14
S'X\x81\xdc\xb5\xccAV@'
p65
tp66
Rp67
ag10
(g14
S'xM\xc8L\xa2>V@'
p68
tp69
Rp70
ag10
(g14
S'\xee\xb2VA\x01?V@'
p71
tp72
Rp73
ag10
(g14
S'\x1b\xc1"\x9fz8V@'
p74
tp75
Rp76
asS'target'
p77
(lp78
g10
(g14
S"l;\xbd6\xe6'M@"
p79
tp80
Rp81
ag10
(g14
S'd\x8b\r\xeas\x99G@'
p82
tp83
Rp84
ag10
(g14
S'\x8f\t-A\x84\nU@'
p85
tp86
Rp87
ag10
(g14
S'\\\xd5\x1c\x93\xd3\xa7U@'
p88
tp89
Rp90
ag10
(g14
S'"i,\x99\xefzU@'
p91
tp92
Rp93
ag10
(g14
S'\xe0\xa2\x1d\x0b(fR@'
p94
tp95
Rp96
ag10
(g14
S'\xc6\xc10jO\xb5Q@'
p97
tp98
Rp99
ag10
(g14
S'\xc6|\xde\x97*\xa9P@'
p100
tp101
Rp102
ag10
(g14
S'\x9f\x84XT\xd2\x05M@'
p103
tp104
Rp105
ag10
(g14
S'Q\x9c1\xb3\xa7{U@'
p106
tp107
Rp108
ag10
(g14
S'\x15\x81\xbb\x93s\xdaR@'
p109
tp110
Rp111
ag10
(g14
S'D\xfa\xed\x0e0iS@'
p112
tp113
Rp114
ag10
(g14
S'\x81\xf3%fLwU@'
p115
tp116
Rp117
ag10
(g14
S'\x034N\xe1\x8fuN@'
p118
tp119
Rp120
ag10
(g14
S'\x02t~\xfd\xc2\xa9S@'
p121
tp122
Rp123
ag10
(g14
S'\xe2\xbf*-O\xffX@'
p124
tp125
Rp126
ag10
(g14
S'\xa1U\x8f\xaf\xbboU@'
p127
tp128
Rp129
ag10
(g14
S'\xcb\x02\xd9\xae1+Q@'
p130
tp131
Rp132
ag10
(g14
S'^\x1c\x1e\x05m\xddS@'
p133
tp134
Rp135
ag10
(g14
S'hA\xed\xba\x8b\xa9V@'
p136
tp137
Rp138
asssss.