(dp0
S'../Data/sqlite_9.csv'
p1
(dp2
S'../Data/sqlite_13.csv'
p3
(dp4
F0.3
(dp5
S'mmre'
p6
(dp7
S'bellwether'
p8
(lp9
cnumpy.core.multiarray
scalar
p10
(cnumpy
dtype
p11
(S'f8'
p12
I0
I1
tp13
Rp14
(I3
S'<'
p15
NNNI-1
I-1
I0
tp16
bS'\xdb\x84\xf5\xb5^!X@'
p17
tp18
Rp19
ag10
(g14
S'\xce:_J?!X@'
p20
tp21
Rp22
ag10
(g14
S'q\xe6\x81\x8fL!X@'
p23
tp24
Rp25
ag10
(g14
S'+\\\x7fI7!X@'
p26
tp27
Rp28
ag10
(g14
S'\x99\xb8\xad\xfaD!X@'
p29
tp30
Rp31
ag10
(g14
S'y\xce|[K!X@'
p32
tp33
Rp34
ag10
(g14
S'\x84\xc3\xd4\xcd\x1f!X@'
p35
tp36
Rp37
ag10
(g14
S'\xab\xa3uh@!X@'
p38
tp39
Rp40
ag10
(g14
S'\xba\xc7\x8d(B!X@'
p41
tp42
Rp43
ag10
(g14
S'\xe5\x9b4\xafR!X@'
p44
tp45
Rp46
ag10
(g14
S'i\xd8\x03o)!X@'
p47
tp48
Rp49
ag10
(g14
S'h_\x84[X!X@'
p50
tp51
Rp52
ag10
(g14
S'\x94z\x8e\xe4$!X@'
p53
tp54
Rp55
ag10
(g14
S'z\x1e\x93_l!X@'
p56
tp57
Rp58
ag10
(g14
S'$\x9cu\x1f\x06!X@'
p59
tp60
Rp61
ag10
(g14
S'\x87Sw\xca!!X@'
p62
tp63
Rp64
ag10
(g14
S'{:d\x02j!X@'
p65
tp66
Rp67
ag10
(g14
S'f\xd6\xbb\xa2A!X@'
p68
tp69
Rp70
ag10
(g14
S'\xed\xec\xeaj\r!X@'
p71
tp72
Rp73
ag10
(g14
S'7@a\x8c\n!X@'
p74
tp75
Rp76
asS'target'
p77
(lp78
g10
(g14
S'\x00\xc72\x03\xec\x9f\xfd?'
p79
tp80
Rp81
ag10
(g14
S'\xaa\xc1\xe0p\xf6\xc1\x01@'
p82
tp83
Rp84
ag10
(g14
S'b[m\x1c\xc1_\x00@'
p85
tp86
Rp87
ag10
(g14
S'\n\xdc\x01\x94\r\xf1\xfc?'
p88
tp89
Rp90
ag10
(g14
S'pv\xab-O3\x01@'
p91
tp92
Rp93
ag10
(g14
S'\\,\xdbh\x1e,\xff?'
p94
tp95
Rp96
ag10
(g14
S'@&\x8b\x0cW\x7f\xfd?'
p97
tp98
Rp99
ag10
(g14
S'E\xa4\x01X\x0f\xa4\xfc?'
p100
tp101
Rp102
ag10
(g14
S'v\x14\xa8n \xab\xfd?'
p103
tp104
Rp105
ag10
(g14
S'\xcde\xf2\x83w%\x00@'
p106
tp107
Rp108
ag10
(g14
S'P\xa0L-`\xce\xfe?'
p109
tp110
Rp111
ag10
(g14
S'\x15{\xfa\x84\xfb\xd7\xfc?'
p112
tp113
Rp114
ag10
(g14
S'\x00K\xab\xb3\xf3\xbb\x00@'
p115
tp116
Rp117
ag10
(g14
S':\xf69C{\x81\xfd?'
p118
tp119
Rp120
ag10
(g14
S'%{Tm\xfd\x84\x00@'
p121
tp122
Rp123
ag10
(g14
S'\x82\t\x0baP5\xfd?'
p124
tp125
Rp126
ag10
(g14
S"\xcc'}\xf3\xc2\xeb\xfc?"
p127
tp128
Rp129
ag10
(g14
S'&\xe4\xb9\t\x85I\xff?'
p130
tp131
Rp132
ag10
(g14
S'\xcfz\x08\xe1n\x93\x00@'
p133
tp134
Rp135
ag10
(g14
S'\xb1\xc1*\x95\x1aJ\xfd?'
p136
tp137
Rp138
asssss.