(dp0
S'../Data/sqlite_87.csv'
p1
(dp2
S'../Data/sqlite_91.csv'
p3
(dp4
F0.2
(dp5
S'mmre'
p6
(dp7
S'bellwether'
p8
(lp9
cnumpy.core.multiarray
scalar
p10
(cnumpy
dtype
p11
(S'f8'
p12
I0
I1
tp13
Rp14
(I3
S'<'
p15
NNNI-1
I-1
I0
tp16
bS"\xcfz\x15\x8e'aW@"
p17
tp18
Rp19
ag10
(g14
S'\xd0.(\x1d\x8cZW@'
p20
tp21
Rp22
ag10
(g14
S'b\xa8\xa7E3VW@'
p23
tp24
Rp25
ag10
(g14
S'Q\xd3\x92\xf4txW@'
p26
tp27
Rp28
ag10
(g14
S'u\xa7K\x8d\xf7^W@'
p29
tp30
Rp31
ag10
(g14
S'\xaa9\xea8}GW@'
p32
tp33
Rp34
ag10
(g14
S'\x8a\xc1=D\xd6cW@'
p35
tp36
Rp37
ag10
(g14
S'\x00\x0f=\x0f\xedDW@'
p38
tp39
Rp40
ag10
(g14
S'a\x82\x98b\x82TW@'
p41
tp42
Rp43
ag10
(g14
S'\x1a\xdd\xf1\x91\xeduW@'
p44
tp45
Rp46
ag10
(g14
S'\xc3d\x11\xbebQW@'
p47
tp48
Rp49
ag10
(g14
S'\x03\x19\xb72\x02hW@'
p50
tp51
Rp52
ag10
(g14
S'H#\x81V5`W@'
p53
tp54
Rp55
ag10
(g14
S'\xcd\x91\xc4\xa8\xc9UW@'
p56
tp57
Rp58
ag10
(g14
S'jGDjPhW@'
p59
tp60
Rp61
ag10
(g14
S'\xfc[\x86\x1a\xcd`W@'
p62
tp63
Rp64
ag10
(g14
S'\x9d\xe9\xbb\x1b4sW@'
p65
tp66
Rp67
ag10
(g14
S'\x04\\\xab\xfa\xd2IW@'
p68
tp69
Rp70
ag10
(g14
S'H\xff\xcaL?UW@'
p71
tp72
Rp73
ag10
(g14
S'\x96\x02\xc0\xe9 WW@'
p74
tp75
Rp76
asS'target'
p77
(lp78
g10
(g14
S'\xb98\xc0\x11w\tQ@'
p79
tp80
Rp81
ag10
(g14
S'\xe6\xf7\x02\n\xec\xeaO@'
p82
tp83
Rp84
ag10
(g14
S'|\x9d[W5\xabQ@'
p85
tp86
Rp87
ag10
(g14
S'\xb7C\xe4t\xa1\xafO@'
p88
tp89
Rp90
ag10
(g14
S'i\xe0=\xaf\x83uP@'
p91
tp92
Rp93
ag10
(g14
S'3$S\xe0).P@'
p94
tp95
Rp96
ag10
(g14
S'\xba\x10\xfc|#)O@'
p97
tp98
Rp99
ag10
(g14
S's\x06\x831=\xf0P@'
p100
tp101
Rp102
ag10
(g14
S'p\xc0\xb9\xca\x89\xcaP@'
p103
tp104
Rp105
ag10
(g14
S'\x04C7\x92\x0cTN@'
p106
tp107
Rp108
ag10
(g14
S'\xb0?\xa8\xd8\xbc\xe3P@'
p109
tp110
Rp111
ag10
(g14
S'8\x13\xb2@\x11KM@'
p112
tp113
Rp114
ag10
(g14
S'\xd1\xf9\xd5\xf0u\xbeP@'
p115
tp116
Rp117
ag10
(g14
S'\x18W\x9fM\xacwR@'
p118
tp119
Rp120
ag10
(g14
S'lN\xe4\x81\xd8qN@'
p121
tp122
Rp123
ag10
(g14
S'\xfb\x13\xa3\xffg\x03N@'
p124
tp125
Rp126
ag10
(g14
S'\x0b2v\xe6_\xe8O@'
p127
tp128
Rp129
ag10
(g14
S'2\x93\xc8\xa0"6Q@'
p130
tp131
Rp132
ag10
(g14
S'\xbb\xa3e,\xb3qP@'
p133
tp134
Rp135
ag10
(g14
S'(\xb8>\xde\xb1\xeaQ@'
p136
tp137
Rp138
asssss.