(dp0
S'../Data/sqlite_18.csv'
p1
(dp2
S'../Data/sqlite_23.csv'
p3
(dp4
F0.1
(dp5
S'abs_res'
p6
(dp7
S'bellwether'
p8
(lp9
cnumpy.core.multiarray
scalar
p10
(cnumpy
dtype
p11
(S'f8'
p12
I0
I1
tp13
Rp14
(I3
S'<'
p15
NNNI-1
I-1
I0
tp16
bS'\xba\xc8v\x8eQ}AA'
p17
tp18
Rp19
ag10
(g14
S'o\xbct\xe3B}AA'
p20
tp21
Rp22
ag10
(g14
S'\xb3\x1cZD\xff|AA'
p23
tp24
Rp25
ag10
(g14
S'\xc8K7\xc9\xf7|AA'
p26
tp27
Rp28
ag10
(g14
S'\xf3|?\xb5L}AA'
p29
tp30
Rp31
ag10
(g14
S'e\xc9/\xf6u}AA'
p32
tp33
Rp34
ag10
(g14
S'@\x19\xbd]:}AA'
p35
tp36
Rp37
ag10
(g14
S'\xa7\xc4 \xc0F}AA'
p38
tp39
Rp40
ag10
(g14
S'\xb8\x9d\xefW,}AA'
p41
tp42
Rp43
ag10
(g14
S'\xa1\xd3\x06\xca\xc4|AA'
p44
tp45
Rp46
ag10
(g14
S'(\x06\x81\xe5b}AA'
p47
tp48
Rp49
ag10
(g14
S'\xcb\x9f\x1a\x1f\xf3|AA'
p50
tp51
Rp52
ag10
(g14
S'/kuL2}AA'
p53
tp54
Rp55
ag10
(g14
S'L\x19\xbd-\xac|AA'
p56
tp57
Rp58
ag10
(g14
S'\x1b<\x987$}AA'
p59
tp60
Rp61
ag10
(g14
S'6^\xba\xf9\xd5|AA'
p62
tp63
Rp64
ag10
(g14
S':\x96\xfc\xf2-}AA'
p65
tp66
Rp67
ag10
(g14
S';\xdfO\xdd4}AA'
p68
tp69
Rp70
ag10
(g14
S' \xd9\xce\xf7\xd5|AA'
p71
tp72
Rp73
ag10
(g14
S'\x85y\xa2.\x18}AA'
p74
tp75
Rp76
asS'target'
p77
(lp78
g10
(g14
S':\xb4\xc8v\xbe\xcf@@'
p79
tp80
Rp81
ag10
(g14
S'\x18\xaeG\xe1z\xe4C@'
p82
tp83
Rp84
ag10
(g14
S'\xdc\xd0"\xdb\xf9>=@'
p85
tp86
Rp87
ag10
(g14
S'93333\xa3C@'
p88
tp89
Rp90
ag10
(g14
S'33333\xa3@@'
p91
tp92
Rp93
ag10
(g14
S'A`\xe5\xd0"{@@'
p94
tp95
Rp96
ag10
(g14
S'8\x08\xac\x1cZ\xe4E@'
p97
tp98
Rp99
ag10
(g14
S'\x9ep=\n\xd7c?@'
p100
tp101
Rp102
ag10
(g14
S'\xfc(\\\x8f\xc2\x85B@'
p103
tp104
Rp105
ag10
(g14
S'v\xbe\x9f\x1a/\xadB@'
p106
tp107
Rp108
ag10
(g14
S'\xd2Mb\x10XID@'
p109
tp110
Rp111
ag10
(g14
S"R\xe1z\x14\xae'A@"
p112
tp113
Rp114
ag10
(g14
S'J\xe1z\x14\xae7E@'
p115
tp116
Rp117
ag10
(g14
S'\xeeQ\xb8\x1e\x85\x0bA@'
p118
tp119
Rp120
ag10
(g14
S'\x9d\xef\xa7\xc6K\x7fA@'
p121
tp122
Rp123
ag10
(g14
S'}\x14\xaeG\xe1\xcaC@'
p124
tp125
Rp126
ag10
(g14
S'\xda\xf9~j\xbc4C@'
p127
tp128
Rp129
ag10
(g14
S'O\xe1z\x14\xae\xc7C@'
p130
tp131
Rp132
ag10
(g14
S'\xa9\xc6K7\x89iC@'
p133
tp134
Rp135
ag10
(g14
S'r=\n\xd7\xa3`B@'
p136
tp137
Rp138
asssss.