(dp0
S'../Data/sqlite_2.csv'
p1
(dp2
S'../Data/sqlite_73.csv'
p3
(dp4
F0.05
(dp5
S'mmre'
p6
(dp7
S'bellwether'
p8
(lp9
cnumpy.core.multiarray
scalar
p10
(cnumpy
dtype
p11
(S'f8'
p12
I0
I1
tp13
Rp14
(I3
S'<'
p15
NNNI-1
I-1
I0
tp16
bS'\xe6\xda\xa1\n\xaf^U@'
p17
tp18
Rp19
ag10
(g14
S'AE\xc1\xc25_U@'
p20
tp21
Rp22
ag10
(g14
S'\xc3SM\xad\xc2^U@'
p23
tp24
Rp25
ag10
(g14
S'\x11\x15=\xe7\x8d]U@'
p26
tp27
Rp28
ag10
(g14
S'Z^\xfa\x93\xad^U@'
p29
tp30
Rp31
ag10
(g14
S'\xb1[\x85g\xa2_U@'
p32
tp33
Rp34
ag10
(g14
S'\xa0|(_<]U@'
p35
tp36
Rp37
ag10
(g14
S'\xa8\x1f\xd6\x04m^U@'
p38
tp39
Rp40
ag10
(g14
S'\xe5mf\x84\xd3^U@'
p41
tp42
Rp43
ag10
(g14
S'\xb6\x97\xcc\xba\xc7^U@'
p44
tp45
Rp46
ag10
(g14
S'*s\x00\xd5\x99^U@'
p47
tp48
Rp49
ag10
(g14
S'MB\xaa\x98\xae^U@'
p50
tp51
Rp52
ag10
(g14
S'\x13\xdc\x18\x8e\xa6]U@'
p53
tp54
Rp55
ag10
(g14
S'\xd0\xba&L\xe0]U@'
p56
tp57
Rp58
ag10
(g14
S'O\xad\xc0WB]U@'
p59
tp60
Rp61
ag10
(g14
S'O8\xf9\xe3\r_U@'
p62
tp63
Rp64
ag10
(g14
S'\x10\x1a>QC]U@'
p65
tp66
Rp67
ag10
(g14
S'\x86J\x9eW\xa2^U@'
p68
tp69
Rp70
ag10
(g14
S'\xb9\xedo\xe6N^U@'
p71
tp72
Rp73
ag10
(g14
S'\xce\xc8\xe5\xd6\x8f_U@'
p74
tp75
Rp76
asS'target'
p77
(lp78
g10
(g14
S'\xfd(\x0f\xa7\x19\xad*@'
p79
tp80
Rp81
ag10
(g14
S'\xf81y[\xfd\xe0)@'
p82
tp83
Rp84
ag10
(g14
S'\xec\xd4G\x02\xeb\xf9)@'
p85
tp86
Rp87
ag10
(g14
S'\x91\xb1\xdf\x82\x8a\x080@'
p88
tp89
Rp90
ag10
(g14
S'\xa7\xbb\xa6\xcdn;/@'
p91
tp92
Rp93
ag10
(g14
S"86\xcb\xee\xa0\xe2'@"
p94
tp95
Rp96
ag10
(g14
S'Kk\x02\xd2Y\\0@'
p97
tp98
Rp99
ag10
(g14
S'X\xb5/\x90\xf3{,@'
p100
tp101
Rp102
ag10
(g14
S'\x11-^\xd2<u+@'
p103
tp104
Rp105
ag10
(g14
S'\xf0\xb8%\x06~.)@'
p106
tp107
Rp108
ag10
(g14
S',\xdfk5H\xe3(@'
p109
tp110
Rp111
ag10
(g14
S'yv\xf8\xa4\x88\xa11@'
p112
tp113
Rp114
ag10
(g14
S'\xd8\xdf@\xb9\xc9,/@'
p115
tp116
Rp117
ag10
(g14
S'=\x8a\x90i\xfe\x140@'
p118
tp119
Rp120
ag10
(g14
S'\x12\xa4\x08\xe4h\x0c0@'
p121
tp122
Rp123
ag10
(g14
S'v\xee\xf3L\x987+@'
p124
tp125
Rp126
ag10
(g14
S'8\xfa\x1c\xa0\xe9\r1@'
p127
tp128
Rp129
ag10
(g14
S'k\x88\xa0i;S,@'
p130
tp131
Rp132
ag10
(g14
S'D;J\xb0\x8fD0@'
p133
tp134
Rp135
ag10
(g14
S"\xc7\xecfO\xb6~'@"
p136
tp137
Rp138
asssss.