(dp0
S'../Data/sqlite_8.csv'
p1
(dp2
S'../Data/sqlite_87.csv'
p3
(dp4
F0.05
(dp5
S'mmre'
p6
(dp7
S'bellwether'
p8
(lp9
cnumpy.core.multiarray
scalar
p10
(cnumpy
dtype
p11
(S'f8'
p12
I0
I1
tp13
Rp14
(I3
S'<'
p15
NNNI-1
I-1
I0
tp16
bS'v\xcea\xd8\xefkS@'
p17
tp18
Rp19
ag10
(g14
S'\xc4PP\xf3\x82gS@'
p20
tp21
Rp22
ag10
(g14
S'\xb7\x87\x1c\xbc\x0fgS@'
p23
tp24
Rp25
ag10
(g14
S'9aR\xfd6iS@'
p26
tp27
Rp28
ag10
(g14
S'/\xbf\x01\xa8_lS@'
p29
tp30
Rp31
ag10
(g14
S'\xd2|\xb8C\xb5gS@'
p32
tp33
Rp34
ag10
(g14
S'\x86\xbd\xe1u\xeeiS@'
p35
tp36
Rp37
ag10
(g14
S'\x0c\x13 \xf8DdS@'
p38
tp39
Rp40
ag10
(g14
S'\xdf\x16\xa8\x18\xdfkS@'
p41
tp42
Rp43
ag10
(g14
S'^\x9c\xd0\xf0\x85gS@'
p44
tp45
Rp46
ag10
(g14
S'z75\xb5\xd4lS@'
p47
tp48
Rp49
ag10
(g14
S'S\xc5\xb3\rogS@'
p50
tp51
Rp52
ag10
(g14
S'\x8e%rPrkS@'
p53
tp54
Rp55
ag10
(g14
S'\x1d\xa5@7\xc0iS@'
p56
tp57
Rp58
ag10
(g14
S'85\xe4\x0c\xb6gS@'
p59
tp60
Rp61
ag10
(g14
S'\xdb\xd1\xb2\xf8\x92gS@'
p62
tp63
Rp64
ag10
(g14
S'\xa3zs\x13=kS@'
p65
tp66
Rp67
ag10
(g14
S'x\xee\x15\x15wmS@'
p68
tp69
Rp70
ag10
(g14
S"\x9b\xd0\xaa;'iS@"
p71
tp72
Rp73
ag10
(g14
S'\xce)\x07\x04>gS@'
p74
tp75
Rp76
asS'target'
p77
(lp78
g10
(g14
S'J{\xa0\xcc\r!G@'
p79
tp80
Rp81
ag10
(g14
S'\x88\x88S\xfeQ\xd8Q@'
p82
tp83
Rp84
ag10
(g14
S'U\xfa7<\x9bw`@'
p85
tp86
Rp87
ag10
(g14
S'\x1d\xae\x9b\xd5+ U@'
p88
tp89
Rp90
ag10
(g14
S'T\x9b\x10\xe1<\xc6G@'
p91
tp92
Rp93
ag10
(g14
S'8-\xa0\x92\x93\xcdQ@'
p94
tp95
Rp96
ag10
(g14
S'b6\x84\x8dbbR@'
p97
tp98
Rp99
ag10
(g14
S'\xed\x11\xc1\xeaR\xd4T@'
p100
tp101
Rp102
ag10
(g14
S'\xbd\x06\x9c\xd3\x0cfB@'
p103
tp104
Rp105
ag10
(g14
S'Q\xa6W\xef\x06\x18X@'
p106
tp107
Rp108
ag10
(g14
S'\x99\x0e\xc1F]DB@'
p109
tp110
Rp111
ag10
(g14
S';\xa5\xdafz<V@'
p112
tp113
Rp114
ag10
(g14
S'f\xa6\x1c0_TD@'
p115
tp116
Rp117
ag10
(g14
S'\x80D\x92\xb0\xd5\xc4S@'
p118
tp119
Rp120
ag10
(g14
S'\x18H\xd8\xc7\xa9w]@'
p121
tp122
Rp123
ag10
(g14
S'\x01a\xbbD\x93\xdcC@'
p124
tp125
Rp126
ag10
(g14
S'\xf5}+\xba0\xafL@'
p127
tp128
Rp129
ag10
(g14
S'a\xcbC\xdfRPS@'
p130
tp131
Rp132
ag10
(g14
S'\x1bZ9\xc8Q\xbda@'
p133
tp134
Rp135
ag10
(g14
S'$\xcb\xaa)\xe6\x81Q@'
p136
tp137
Rp138
asssss.