(dp0
S'../Data/sqlite_28.csv'
p1
(dp2
S'../Data/sqlite_96.csv'
p3
(dp4
F0.1
(dp5
S'mmre'
p6
(dp7
S'bellwether'
p8
(lp9
cnumpy.core.multiarray
scalar
p10
(cnumpy
dtype
p11
(S'f8'
p12
I0
I1
tp13
Rp14
(I3
S'<'
p15
NNNI-1
I-1
I0
tp16
bS'`\x9c\x12`WNU@'
p17
tp18
Rp19
ag10
(g14
S'\x0b\x83\x13C\xb7RU@'
p20
tp21
Rp22
ag10
(g14
S';\xf7\xf0liPU@'
p23
tp24
Rp25
ag10
(g14
S'\xf1\xc6\xce9\x8dKU@'
p26
tp27
Rp28
ag10
(g14
S'\xe3x\xdf\xef\xb8NU@'
p29
tp30
Rp31
ag10
(g14
S'\xea(\x93r4LU@'
p32
tp33
Rp34
ag10
(g14
S'\xcfh\x11\xce\xc4PU@'
p35
tp36
Rp37
ag10
(g14
S'\x8c3\xcf\t[MU@'
p38
tp39
Rp40
ag10
(g14
S'\xd4\x03\x90n\x99JU@'
p41
tp42
Rp43
ag10
(g14
S'\xbf\xf1\xa6=\xeeGU@'
p44
tp45
Rp46
ag10
(g14
S'\xf696\xfb\xb7JU@'
p47
tp48
Rp49
ag10
(g14
S'],\x0e\xe1{JU@'
p50
tp51
Rp52
ag10
(g14
S'$.h|xPU@'
p53
tp54
Rp55
ag10
(g14
S'\x0c\xfe\xbaT\xafLU@'
p56
tp57
Rp58
ag10
(g14
S'\xf9@l\xe7QKU@'
p59
tp60
Rp61
ag10
(g14
S'cx\x1f\n\xf4QU@'
p62
tp63
Rp64
ag10
(g14
S'\xda\x12\xf5\xac#KU@'
p65
tp66
Rp67
ag10
(g14
S'\x80\x1f\x0b\x14_NU@'
p68
tp69
Rp70
ag10
(g14
S'\x17\x9e~<\xfdJU@'
p71
tp72
Rp73
ag10
(g14
S'gD\xa2Q\x9dLU@'
p74
tp75
Rp76
asS'target'
p77
(lp78
g10
(g14
S'%Z1hq"Q@'
p79
tp80
Rp81
ag10
(g14
S"\xe4j<GF'E@"
p82
tp83
Rp84
ag10
(g14
S'D\x1b\xe9TI@D@'
p85
tp86
Rp87
ag10
(g14
S'\xae\xe1\xdd\x9ee\x9bO@'
p88
tp89
Rp90
ag10
(g14
S'\x00\xe8P\xde\x8f?U@'
p91
tp92
Rp93
ag10
(g14
S'\xf9\x11$\xd6\xfb]U@'
p94
tp95
Rp96
ag10
(g14
S'DH\x99\xb6@\x98T@'
p97
tp98
Rp99
ag10
(g14
S'\xd8\xa1\xab\x06\x81QS@'
p100
tp101
Rp102
ag10
(g14
S'%>\xbe\xddU\xe5X@'
p103
tp104
Rp105
ag10
(g14
S'\x1d\x8a\xc6\xb6\x99cb@'
p106
tp107
Rp108
ag10
(g14
S'ivd\xc7\x99RZ@'
p109
tp110
Rp111
ag10
(g14
S'T\xc2q\xc5\xe3E[@'
p112
tp113
Rp114
ag10
(g14
S'yG4\xf4.\xa9_@'
p115
tp116
Rp117
ag10
(g14
S'}\xbc\xcf-R`Q@'
p118
tp119
Rp120
ag10
(g14
S'\xc7B\x94\x88)\xe5Z@'
p121
tp122
Rp123
ag10
(g14
S'\xea\xf0\xbd\xf5\xed\xe1V@'
p124
tp125
Rp126
ag10
(g14
S'\xe0\xef\xf2\xff\xbb,A@'
p127
tp128
Rp129
ag10
(g14
S'\x12\x96\xee\x13\xeb\x1cQ@'
p130
tp131
Rp132
ag10
(g14
S'\x1ce\xe2\xbf\xc6^c@'
p133
tp134
Rp135
ag10
(g14
S',\x85\xd00e\x01`@'
p136
tp137
Rp138
asssss.