(dp0
S'../Data/sqlite_4.csv'
p1
(dp2
S'../Data/sqlite_35.csv'
p3
(dp4
F0.3
(dp5
S'abs_res'
p6
(dp7
S'bellwether'
p8
(lp9
cnumpy.core.multiarray
scalar
p10
(cnumpy
dtype
p11
(S'f8'
p12
I0
I1
tp13
Rp14
(I3
S'<'
p15
NNNI-1
I-1
I0
tp16
bS'\x05\x9d6pA0;A'
p17
tp18
Rp19
ag10
(g14
S'm=\n7\xdc0;A'
p20
tp21
Rp22
ag10
(g14
S'\xc0<Q\x1fj1;A'
p23
tp24
Rp25
ag10
(g14
S'o\x12\x83\x80\xd6/;A'
p26
tp27
Rp28
ag10
(g14
S'W\xc9/\x96R2;A'
p29
tp30
Rp31
ag10
(g14
S'\xaa\x9b\xc4\xe0t2;A'
p32
tp33
Rp34
ag10
(g14
S'\x14\xaeGa\x1b/;A'
p35
tp36
Rp37
ag10
(g14
S'*\x87\x16\xf9\n2;A'
p38
tp39
Rp40
ag10
(g14
S'\xef\xee\xeeN\xb01;A'
p41
tp42
Rp43
ag10
(g14
S'`\xe5\xd0\x82\xc84;A'
p44
tp45
Rp46
ag10
(g14
S'\x03\xf3D=\x011;A'
p47
tp48
Rp49
ag10
(g14
S'\xe2mYk\x8b0;A'
p50
tp51
Rp52
ag10
(g14
S';\x89A\xa0[0;A'
p53
tp54
Rp55
ag10
(g14
S'>|\x86\x1d70;A'
p56
tp57
Rp58
ag10
(g14
S'\xd1Z\x1d3\xe3.;A'
p59
tp60
Rp61
ag10
(g14
S'\xcev\xbe\x1f\xf61;A'
p62
tp63
Rp64
ag10
(g14
S"'@\xee\x15\xa80;A"
p65
tp66
Rp67
ag10
(g14
S'~\xb1\xe47$2;A'
p68
tp69
Rp70
ag10
(g14
S'\x95\xb5:\x86\x140;A'
p71
tp72
Rp73
ag10
(g14
S'[\xd6\xea\xd8\xd7/;A'
p74
tp75
Rp76
asS'target'
p77
(lp78
g10
(g14
S'\xe6&1\x08\xacD\\@'
p79
tp80
Rp81
ag10
(g14
S'\xf6(\\\x8f\xc2e[@'
p82
tp83
Rp84
ag10
(g14
S'\x06\x00\x00\x00\x00\x18\\@'
p85
tp86
Rp87
ag10
(g14
S'\xa9E\xb6\xf3\xfdL\\@'
p88
tp89
Rp90
ag10
(g14
S'\r\x81\x95C\x8b\xf0[@'
p91
tp92
Rp93
ag10
(g14
S'\xef\xfd\xd4x\xe9\xa6Z@'
p94
tp95
Rp96
ag10
(g14
S'\x83j\xbct\x93\x9c[@'
p97
tp98
Rp99
ag10
(g14
S'cffff\xee]@'
p100
tp101
Rp102
ag10
(g14
S'53333\x1b^@'
p103
tp104
Rp105
ag10
(g14
S'Y\x0e-\xb2\x9d\x17^@'
p106
tp107
Rp108
ag10
(g14
S'\xaeG\xe1z\x14\xee[@'
p109
tp110
Rp111
ag10
(g14
S' \xdd$\x06\x81\xd1\\@'
p112
tp113
Rp114
ag10
(g14
S'N7\x89A`\xb9Z@'
p115
tp116
Rp117
ag10
(g14
S'\x1c\x04V\x0e-\xea]@'
p118
tp119
Rp120
ag10
(g14
S'\xcfK7\x89A\xfc]@'
p121
tp122
Rp123
ag10
(g14
S'\xfd\xab\x1cZds[@'
p124
tp125
Rp126
ag10
(g14
S'Z\x0e-\xb2\x9d\xc7\\@'
p127
tp128
Rp129
ag10
(g14
S'7\n\xd7\xa3pm]@'
p130
tp131
Rp132
ag10
(g14
S'\x0c\x02+\x87\x16)\\@'
p133
tp134
Rp135
ag10
(g14
S'\x16\x04V\x0e-\x0e_@'
p136
tp137
Rp138
asssss.