(dp0
S'../Data/sqlite_30.csv'
p1
(dp2
S'../Data/sqlite_93.csv'
p3
(dp4
F0.1
(dp5
S'mmre'
p6
(dp7
S'bellwether'
p8
(lp9
cnumpy.core.multiarray
scalar
p10
(cnumpy
dtype
p11
(S'f8'
p12
I0
I1
tp13
Rp14
(I3
S'<'
p15
NNNI-1
I-1
I0
tp16
bS'w\x8em\x83X:9@'
p17
tp18
Rp19
ag10
(g14
S'\xc4T\x1b\x98\x00\x879@'
p20
tp21
Rp22
ag10
(g14
S'*Z\x99g\xfd\x1d:@'
p23
tp24
Rp25
ag10
(g14
S'p\x184\x0f\x1fS9@'
p26
tp27
Rp28
ag10
(g14
S'\x0f\xa3\xef,\xfe\xc39@'
p29
tp30
Rp31
ag10
(g14
S';\xd3"hDv9@'
p32
tp33
Rp34
ag10
(g14
S'3\r\xed[\x1b[9@'
p35
tp36
Rp37
ag10
(g14
S'\x0f\xe1\x187\xc6f9@'
p38
tp39
Rp40
ag10
(g14
S'\x90\xcf\x900(f9@'
p41
tp42
Rp43
ag10
(g14
S'~N\x97N/\x939@'
p44
tp45
Rp46
ag10
(g14
S'\x94G\xfb$|\x989@'
p47
tp48
Rp49
ag10
(g14
S'\xd7u\xec\x8f\xd8X9@'
p50
tp51
Rp52
ag10
(g14
S'D\xb2\xbe\xe7Qc9@'
p53
tp54
Rp55
ag10
(g14
S'\x92\xb8*G\xdb\\9@'
p56
tp57
Rp58
ag10
(g14
S'H\xcfut\xa6|9@'
p59
tp60
Rp61
ag10
(g14
S't\xb9\xf3\x14\xf7z9@'
p62
tp63
Rp64
ag10
(g14
S'\xa6\xae-\x1cc\xb19@'
p65
tp66
Rp67
ag10
(g14
S'\xfa\x87\x86-<_9@'
p68
tp69
Rp70
ag10
(g14
S'qU\xc3\xc6o\xae9@'
p71
tp72
Rp73
ag10
(g14
S'P\x8c[\xd4\x10\x9c9@'
p74
tp75
Rp76
asS'target'
p77
(lp78
g10
(g14
S'\xb11\xad\xf1m.R@'
p79
tp80
Rp81
ag10
(g14
S'\x98?a:\x94\x11Q@'
p82
tp83
Rp84
ag10
(g14
S'U\xd4\x1c\x83\x94\x0cA@'
p85
tp86
Rp87
ag10
(g14
S'\xe7Jd\xe6\xeb\xceS@'
p88
tp89
Rp90
ag10
(g14
S'\x04\xf8\x05\xbbo\xfe@@'
p91
tp92
Rp93
ag10
(g14
S'Y\\\x9b\x1c\x96\xf4U@'
p94
tp95
Rp96
ag10
(g14
S"?'\x8eS-xW@"
p97
tp98
Rp99
ag10
(g14
S'0\xe0f\xb3Y\x8fP@'
p100
tp101
Rp102
ag10
(g14
S'\xa6\xb6\xf2\t\x01\x14V@'
p103
tp104
Rp105
ag10
(g14
S'wY`pMnU@'
p106
tp107
Rp108
ag10
(g14
S'\x06\xf7}\xc8e\x8dK@'
p109
tp110
Rp111
ag10
(g14
S'9\xfe\xe3\x1b@ D@'
p112
tp113
Rp114
ag10
(g14
S'g\xdc\x89cA\x04U@'
p115
tp116
Rp117
ag10
(g14
S'\xe3\xe9\x9cN\xef}R@'
p118
tp119
Rp120
ag10
(g14
S'\xeeK\xfaO\xd6rQ@'
p121
tp122
Rp123
ag10
(g14
S'\xe4\x81\x18\x8e\x84\xb0K@'
p124
tp125
Rp126
ag10
(g14
S'\xcc\xa7\xba\xb6\nkP@'
p127
tp128
Rp129
ag10
(g14
S'\xb5\xea\xf7j\xc9sS@'
p130
tp131
Rp132
ag10
(g14
S':\x88mV\xde N@'
p133
tp134
Rp135
ag10
(g14
S'@^\x15\xfem\xfbP@'
p136
tp137
Rp138
asssss.