(dp0
S'../Data/sqlite_5.csv'
p1
(dp2
S'../Data/sqlite_73.csv'
p3
(dp4
F0.1
(dp5
S'mmre'
p6
(dp7
S'bellwether'
p8
(lp9
cnumpy.core.multiarray
scalar
p10
(cnumpy
dtype
p11
(S'f8'
p12
I0
I1
tp13
Rp14
(I3
S'<'
p15
NNNI-1
I-1
I0
tp16
bS'?\xeb)\x1b\x8dDM@'
p17
tp18
Rp19
ag10
(g14
S'jEC\x10\x088M@'
p20
tp21
Rp22
ag10
(g14
S'\xeb\xe6c\xc9\t:M@'
p23
tp24
Rp25
ag10
(g14
S'\x17\xad\xd3\xe9\xcb5M@'
p26
tp27
Rp28
ag10
(g14
S'\x0f\xfa\xf4\x16]7M@'
p29
tp30
Rp31
ag10
(g14
S'\xb0[yFO?M@'
p32
tp33
Rp34
ag10
(g14
S'\xce*\xf7\x16)BM@'
p35
tp36
Rp37
ag10
(g14
S'\xd5\x8c;\roJM@'
p38
tp39
Rp40
ag10
(g14
S'\xaeu\xcb\xd0\xa49M@'
p41
tp42
Rp43
ag10
(g14
S'\xa4\xd2})\xdf?M@'
p44
tp45
Rp46
ag10
(g14
S'M!\x01O&=M@'
p47
tp48
Rp49
ag10
(g14
S'}d\xa3\x12\x88:M@'
p50
tp51
Rp52
ag10
(g14
S'}v\x13\xb2\xc7DM@'
p53
tp54
Rp55
ag10
(g14
S'.\xc4\xe2\x17G;M@'
p56
tp57
Rp58
ag10
(g14
S'D]CO\x919M@'
p59
tp60
Rp61
ag10
(g14
S'\x96G\x9a\x14\x86EM@'
p62
tp63
Rp64
ag10
(g14
S'\xc0N\xe3-\xda:M@'
p65
tp66
Rp67
ag10
(g14
S'\x82\xd3P\x9a\xaa9M@'
p68
tp69
Rp70
ag10
(g14
S'\x95b\x02q\xe3AM@'
p71
tp72
Rp73
ag10
(g14
S'\x19om\xf4E8M@'
p74
tp75
Rp76
asS'target'
p77
(lp78
g10
(g14
S'\x1e\x06\xab\r\xdaJ+@'
p79
tp80
Rp81
ag10
(g14
S'\x053\x8aYP\xd1*@'
p82
tp83
Rp84
ag10
(g14
S'=\x17\x10Y\r}/@'
p85
tp86
Rp87
ag10
(g14
S'\x8db\x1dc\xe4\\0@'
p88
tp89
Rp90
ag10
(g14
S'\x96b\xac\xc7I\xc5/@'
p91
tp92
Rp93
ag10
(g14
S'J\xec!\xec\x9c\xc5*@'
p94
tp95
Rp96
ag10
(g14
S'\xc5\xdf\x08b\x07P,@'
p97
tp98
Rp99
ag10
(g14
S'\xec1j.>\xda*@'
p100
tp101
Rp102
ag10
(g14
S'\xdep.{\xd6*.@'
p103
tp104
Rp105
ag10
(g14
S'\xbe\x12\x9e\xfb`\xa9,@'
p106
tp107
Rp108
ag10
(g14
S'\xaa(\x04\x99\xc1<+@'
p109
tp110
Rp111
ag10
(g14
S'<}{\xb7\x12\x07-@'
p112
tp113
Rp114
ag10
(g14
S'B\xf3\x01+3q,@'
p115
tp116
Rp117
ag10
(g14
S"I\x04To'?+@"
p118
tp119
Rp120
ag10
(g14
S'\xf6\x0byz\xa1\x18+@'
p121
tp122
Rp123
ag10
(g14
S'`\r8z*\xf5)@'
p124
tp125
Rp126
ag10
(g14
S'i\x1b\xba\x97\x8f\xc6+@'
p127
tp128
Rp129
ag10
(g14
S'?\x9f\x7f\xfc0h+@'
p130
tp131
Rp132
ag10
(g14
S'D0\x1b\xc33^+@'
p133
tp134
Rp135
ag10
(g14
S'o\xc8\xad\xb8\xce\x84/@'
p136
tp137
Rp138
asssss.