(dp0
S'../Data/sqlite_23.csv'
p1
(dp2
S'../Data/sqlite_89.csv'
p3
(dp4
F0.3
(dp5
S'mmre'
p6
(dp7
S'bellwether'
p8
(lp9
cnumpy.core.multiarray
scalar
p10
(cnumpy
dtype
p11
(S'f8'
p12
I0
I1
tp13
Rp14
(I3
S'<'
p15
NNNI-1
I-1
I0
tp16
bS'~;\x07\x0f\xb0aV@'
p17
tp18
Rp19
ag10
(g14
S'^G\x8a\xc9nbV@'
p20
tp21
Rp22
ag10
(g14
S'\xdb\xd5\xdf\xe9\xab^V@'
p23
tp24
Rp25
ag10
(g14
S'I\xb6=\xcd\x06gV@'
p26
tp27
Rp28
ag10
(g14
S'\xff\xfd\x1e;r`V@'
p29
tp30
Rp31
ag10
(g14
S'E\xe5+\x81[\\V@'
p32
tp33
Rp34
ag10
(g14
S'\x15\x1fib\x11dV@'
p35
tp36
Rp37
ag10
(g14
S'\xaesc\xfcGhV@'
p38
tp39
Rp40
ag10
(g14
S'R\xaf\xf97\xab`V@'
p41
tp42
Rp43
ag10
(g14
S"\x1e'\xfa\xd3\xc4jV@"
p44
tp45
Rp46
ag10
(g14
S'\xab)\xd2s3gV@'
p47
tp48
Rp49
ag10
(g14
S'1+6%\x19XV@'
p50
tp51
Rp52
ag10
(g14
S'\xed\xf5\x9a\x02NfV@'
p53
tp54
Rp55
ag10
(g14
S'i\x08r<\xc3gV@'
p56
tp57
Rp58
ag10
(g14
S'\x9c\xf02z|gV@'
p59
tp60
Rp61
ag10
(g14
S'\xa4\x02\xae`\x98fV@'
p62
tp63
Rp64
ag10
(g14
S'p\xbc\xf9m\xf7cV@'
p65
tp66
Rp67
ag10
(g14
S'J\xdavK\x9aZV@'
p68
tp69
Rp70
ag10
(g14
S'\xd8\x1fEL\xbbaV@'
p71
tp72
Rp73
ag10
(g14
S'\xc4\xcc3\x94\xcbdV@'
p74
tp75
Rp76
asS'target'
p77
(lp78
g10
(g14
S'\x00=\xda\xfaH\x7fQ@'
p79
tp80
Rp81
ag10
(g14
S'^\xaf\xe6;/^R@'
p82
tp83
Rp84
ag10
(g14
S'\xd7\xce\x16\xbe\x91_X@'
p85
tp86
Rp87
ag10
(g14
S'2Bhc\xc5\xa7N@'
p88
tp89
Rp90
ag10
(g14
S'\x95wr\xaa\xcaEP@'
p91
tp92
Rp93
ag10
(g14
S'"\n\x15\xe6\xe4\x16R@'
p94
tp95
Rp96
ag10
(g14
S'(\xdb\xb5U\xe0hR@'
p97
tp98
Rp99
ag10
(g14
S'O\xcc\xb3X\x93\x80M@'
p100
tp101
Rp102
ag10
(g14
S',\xe5\xdc\xa0\xf1\x8dP@'
p103
tp104
Rp105
ag10
(g14
S'\xd9G\xa3]\xd4\xfeL@'
p106
tp107
Rp108
ag10
(g14
S'l\xe6V}\xe5\x8fR@'
p109
tp110
Rp111
ag10
(g14
S'\x80\x9a\xca\x9a\x98\xb3U@'
p112
tp113
Rp114
ag10
(g14
S'\x8c\xe9\xbc\x86L)P@'
p115
tp116
Rp117
ag10
(g14
S'\xd2{\xf3\xd2\x06\x98T@'
p118
tp119
Rp120
ag10
(g14
S"'\x86\xd1xF\x9fL@"
p121
tp122
Rp123
ag10
(g14
S'\x06#0\xc6\xaf\xf8P@'
p124
tp125
Rp126
ag10
(g14
S'[6\x92\xd7UBN@'
p127
tp128
Rp129
ag10
(g14
S'o\n\x0f\xd1viQ@'
p130
tp131
Rp132
ag10
(g14
S'BnW2\x01\xbaN@'
p133
tp134
Rp135
ag10
(g14
S"u-,'oSP@"
p136
tp137
Rp138
asssss.