(dp0
S'../Data/sqlite_1.csv'
p1
(dp2
S'../Data/sqlite_37.csv'
p3
(dp4
F0.4
(dp5
S'abs_res'
p6
(dp7
S'bellwether'
p8
(lp9
cnumpy.core.multiarray
scalar
p10
(cnumpy
dtype
p11
(S'f8'
p12
I0
I1
tp13
Rp14
(I3
S'<'
p15
NNNI-1
I-1
I0
tp16
bS'5&x\xf0\xec\n7A'
p17
tp18
Rp19
ag10
(g14
S'^s!i\xa8\x0b7A'
p20
tp21
Rp22
ag10
(g14
S'`\x8f\xc2u=\n7A'
p23
tp24
Rp25
ag10
(g14
S'\x99n\x12\x03\x0e\x0b7A'
p26
tp27
Rp28
ag10
(g14
S'p.$M\x98\n7A'
p29
tp30
Rp31
ag10
(g14
S'|[\xd6\x8ab\n7A'
p32
tp33
Rp34
ag10
(g14
S'\xb6\x0f\x9fa\xdd\x0b7A'
p35
tp36
Rp37
ag10
(g14
S'\x97RqV^\n7A'
p38
tp39
Rp40
ag10
(g14
S'\x9dRq\x96I\x0c7A'
p41
tp42
Rp43
ag10
(g14
S'L\x9aRQT\n7A'
p44
tp45
Rp46
ag10
(g14
S'\r\xbb\x02$\xc6\n7A'
p47
tp48
Rp49
ag10
(g14
S'\x8c\xc2\xf5\x08x\n7A'
p50
tp51
Rp52
ag10
(g14
S'\xbct\x93\xd8\x85\r7A'
p53
tp54
Rp55
ag10
(g14
S"<\x98'\xea\xdb\x087A"
p56
tp57
Rp58
ag10
(g14
S'\xad\x7f#4\xaa\n7A'
p59
tp60
Rp61
ag10
(g14
S'-\xce>|\x01\t7A'
p62
tp63
Rp64
ag10
(g14
S'\xc5\xca\xa1%\x02\r7A'
p65
tp66
Rp67
ag10
(g14
S'\r\xbb\x02d\x1a\n7A'
p68
tp69
Rp70
ag10
(g14
S'\x01+\x87\x96\xca\x0b7A'
p71
tp72
Rp73
ag10
(g14
S'^\xabcB\xaa\t7A'
p74
tp75
Rp76
asS'target'
p77
(lp78
g10
(g14
S'\xe0z\x14\xaeGYG@'
p79
tp80
Rp81
ag10
(g14
S'\xc8\xf5(\\\x8fbG@'
p82
tp83
Rp84
ag10
(g14
S'\xc7K7\x89A(H@'
p85
tp86
Rp87
ag10
(g14
S'I\xb8\x1e\x85\xeb\x19H@'
p88
tp89
Rp90
ag10
(g14
S'\xb4\xc8v\xbe\x9fjG@'
p91
tp92
Rp93
ag10
(g14
S']\x8f\xc2\xf5(\xbcG@'
p94
tp95
Rp96
ag10
(g14
S'Hb\x10X9\x04I@'
p97
tp98
Rp99
ag10
(g14
S'\xe1z\x14\xaeG\x11H@'
p100
tp101
Rp102
ag10
(g14
S'z?5^\xba\x19G@'
p103
tp104
Rp105
ag10
(g14
S'\xc5 \xb0rh\xf1G@'
p106
tp107
Rp108
ag10
(g14
S'z\x14\xaeG\xe1ZG@'
p109
tp110
Rp111
ag10
(g14
S'\xe7Q\xb8\x1e\x85\x8bG@'
p112
tp113
Rp114
ag10
(g14
S'\x9dC\x8bl\xe7\xb3F@'
p115
tp116
Rp117
ag10
(g14
S'k\x12\x83\xc0\xca\xd9H@'
p118
tp119
Rp120
ag10
(g14
S'A`\xe5\xd0"\xdbG@'
p121
tp122
Rp123
ag10
(g14
S'$\xb0rh\x91\x8dG@'
p124
tp125
Rp126
ag10
(g14
S'\xed\xfd\xd4x\xe9\xf6G@'
p127
tp128
Rp129
ag10
(g14
S'\xb9\x9f\x1a/\xdd,H@'
p130
tp131
Rp132
ag10
(g14
S':\xb4\xc8v\xbeGG@'
p133
tp134
Rp135
ag10
(g14
S'\xcc\xcc\xcc\xcc\xcc,H@'
p136
tp137
Rp138
asssss.