(dp0
S'../Data/sqlite_96.csv'
p1
(dp2
S'../Data/sqlite_88.csv'
p3
(dp4
F0.35
(dp5
S'mmre'
p6
(dp7
S'bellwether'
p8
(lp9
cnumpy.core.multiarray
scalar
p10
(cnumpy
dtype
p11
(S'f8'
p12
I0
I1
tp13
Rp14
(I3
S'<'
p15
NNNI-1
I-1
I0
tp16
bS';c\xf5\tNFX@'
p17
tp18
Rp19
ag10
(g14
S'{K\xdcZ\xd30X@'
p20
tp21
Rp22
ag10
(g14
S'Bg~o\xc2qX@'
p23
tp24
Rp25
ag10
(g14
S'\xe6\x85<{jrX@'
p26
tp27
Rp28
ag10
(g14
S'\x95\x07N\x89|eX@'
p29
tp30
Rp31
ag10
(g14
S'\x18J\xbdK+AX@'
p32
tp33
Rp34
ag10
(g14
S'B\xfe\xef~\xebjX@'
p35
tp36
Rp37
ag10
(g14
S'\xe6\xf2`)\xcc\\X@'
p38
tp39
Rp40
ag10
(g14
S'1=^\x9a{}X@'
p41
tp42
Rp43
ag10
(g14
S'o\x90l\xdb:VX@'
p44
tp45
Rp46
ag10
(g14
S'\xc7r\x9f\xa1KSX@'
p47
tp48
Rp49
ag10
(g14
S'\xd1\xd6*m\xe3qX@'
p50
tp51
Rp52
ag10
(g14
S'\xee_\xb1\xe1\xe9nX@'
p53
tp54
Rp55
ag10
(g14
S'1\xe0\x8fQ\xf3oX@'
p56
tp57
Rp58
ag10
(g14
S'\xac8\xa0\xf4\x9bCX@'
p59
tp60
Rp61
ag10
(g14
S'D+\xdd\x8e\xa6dX@'
p62
tp63
Rp64
ag10
(g14
S'\xec=\xf1*#\x7fX@'
p65
tp66
Rp67
ag10
(g14
S'`L\xb3\xc61NX@'
p68
tp69
Rp70
ag10
(g14
S'\xf5>\x7f\xaa,IX@'
p71
tp72
Rp73
ag10
(g14
S'\xe5\x9d@\xa4b^X@'
p74
tp75
Rp76
asS'target'
p77
(lp78
g10
(g14
S'2]DS\xe4\\N@'
p79
tp80
Rp81
ag10
(g14
S'p\xbd\xba\xb2L\x15N@'
p82
tp83
Rp84
ag10
(g14
S'\x11\xee\x02\x1b \nH@'
p85
tp86
Rp87
ag10
(g14
S'\x89\x9d\xb0\x81\xa8nI@'
p88
tp89
Rp90
ag10
(g14
S'\x96\xc7\x80\xa2\xac;N@'
p91
tp92
Rp93
ag10
(g14
S'5c37\x8c\x88N@'
p94
tp95
Rp96
ag10
(g14
S'\xf1\x83\xeb\xbf<\x19J@'
p97
tp98
Rp99
ag10
(g14
S'\xe5\x9e9\x11\x86gM@'
p100
tp101
Rp102
ag10
(g14
S'\xa5\xdd\x10\xec\x17\xdfJ@'
p103
tp104
Rp105
ag10
(g14
S'\xbe\xd1\xbc9k\x13K@'
p106
tp107
Rp108
ag10
(g14
S'.\xa4NM\x16:N@'
p109
tp110
Rp111
ag10
(g14
S'\x19e\x8f\xcd\xbe\x90N@'
p112
tp113
Rp114
ag10
(g14
S'"p\x84}\x8d\x04F@'
p115
tp116
Rp117
ag10
(g14
S'F\xa0r\x9eAvI@'
p118
tp119
Rp120
ag10
(g14
S'\xccl\x8d]]\xa0M@'
p121
tp122
Rp123
ag10
(g14
S'\x80\xd1\x9a\xfbl\xc5J@'
p124
tp125
Rp126
ag10
(g14
S'\xee\xe3\xf2\xf7\xf7bG@'
p127
tp128
Rp129
ag10
(g14
S'M\xc00\xb1\x1eRM@'
p130
tp131
Rp132
ag10
(g14
S'T7\xee\x9b\xd8\xfeO@'
p133
tp134
Rp135
ag10
(g14
S'q=#,\xbc\nL@'
p136
tp137
Rp138
asssss.