(dp0
S'../Data/sqlite_57.csv'
p1
(dp2
S'../Data/sqlite_28.csv'
p3
(dp4
F0.1
(dp5
S'abs_res'
p6
(dp7
S'bellwether'
p8
(lp9
cnumpy.core.multiarray
scalar
p10
(cnumpy
dtype
p11
(S'f8'
p12
I0
I1
tp13
Rp14
(I3
S'<'
p15
NNNI-1
I-1
I0
tp16
bS'\x07\xac\x1c\xc6\xf81jA'
p17
tp18
Rp19
ag10
(g14
S'\x8a\xed|\x8b\x7f/jA'
p20
tp21
Rp22
ag10
(g14
S'\x12\x02+\x8711jA'
p23
tp24
Rp25
ag10
(g14
S'O\xb8\x1e\xb5\x824jA'
p26
tp27
Rp28
ag10
(g14
S'+\\\x8f\x8aY,jA'
p29
tp30
Rp31
ag10
(g14
S'\x9dn\x12\xb7\xca(jA'
p32
tp33
Rp34
ag10
(g14
S'\rX9L\n,jA'
p35
tp36
Rp37
ag10
(g14
S'e\xe7\xfb\xd5\x0e5jA'
p38
tp39
Rp40
ag10
(g14
S'533W\xd3,jA'
p41
tp42
Rp43
ag10
(g14
S'\x8dA`\x19\n3jA'
p44
tp45
Rp46
ag10
(g14
S',\xdd$\x1a\x105jA'
p47
tp48
Rp49
ag10
(g14
S"'\xb0r\x08\xdb+jA"
p50
tp51
Rp52
ag10
(g14
S'\x8e\x97n\xe2\xb60jA'
p53
tp54
Rp55
ag10
(g14
S'\xf0Q\xb8vR3jA'
p56
tp57
Rp58
ag10
(g14
S',\xb2\x9d\x8f\xe8/jA'
p59
tp60
Rp61
ag10
(g14
S'\x98C\x8b\x90%*jA'
p62
tp63
Rp64
ag10
(g14
S'zh\x91Y^3jA'
p65
tp66
Rp67
ag10
(g14
S'\xa2\xef\xa7J\xed2jA'
p68
tp69
Rp70
ag10
(g14
S'\xd0\xcc\xcc\xa4K0jA'
p71
tp72
Rp73
ag10
(g14
S'\xfeS\xe3\x151/jA'
p74
tp75
Rp76
asS'target'
p77
(lp78
g10
(g14
S'\xe4O\x8d\x97n\x9e`@'
p79
tp80
Rp81
ag10
(g14
S'\xc2K7\x89A\xaee@'
p82
tp83
Rp84
ag10
(g14
S'r;\xdfO\x8d\x9bb@'
p85
tp86
Rp87
ag10
(g14
S'\xb2\xc8v\xbe\x9fVf@'
p88
tp89
Rp90
ag10
(g14
S'\xfd\xd4x\xe9&\xa5d@'
p91
tp92
Rp93
ag10
(g14
S'1^\xbaI\x0c\xf2c@'
p94
tp95
Rp96
ag10
(g14
S'\xb2\x1cZd;)a@'
p97
tp98
Rp99
ag10
(g14
S':\n\xd7\xa3p\xb9g@'
p100
tp101
Rp102
ag10
(g14
S'\x1e\xb0rh\x91%c@'
p103
tp104
Rp105
ag10
(g14
S'O7\x89A`oa@'
p106
tp107
Rp108
ag10
(g14
S'k\xe7\xfb\xa9\xf1\x9ef@'
p109
tp110
Rp111
ag10
(g14
S'\x98\x97n\x12\x83Xc@'
p112
tp113
Rp114
ag10
(g14
S'#\\\x8f\xc2\xf5|c@'
p115
tp116
Rp117
ag10
(g14
S'\x9a\xef\xa7\xc6K\xa3c@'
p118
tp119
Rp120
ag10
(g14
S'\xf6(\\\x8f\xc2\xa9c@'
p121
tp122
Rp123
ag10
(g14
S'P\x8d\x97n\x12\x13e@'
p124
tp125
Rp126
ag10
(g14
S'\x88l\xe7\xfb\xa9\x15d@'
p127
tp128
Rp129
ag10
(g14
S'\x8eA`\xe5\xd0fb@'
p130
tp131
Rp132
ag10
(g14
S':\x89A`\xe5\xf8c@'
p133
tp134
Rp135
ag10
(g14
S'l\xe7\xfb\xa9\xf1\xf6b@'
p136
tp137
Rp138
asssss.