(dp0
S'../Data/sqlite_44.csv'
p1
(dp2
S'../Data/sqlite_73.csv'
p3
(dp4
F0.3
(dp5
S'mmre'
p6
(dp7
S'bellwether'
p8
(lp9
cnumpy.core.multiarray
scalar
p10
(cnumpy
dtype
p11
(S'f8'
p12
I0
I1
tp13
Rp14
(I3
S'<'
p15
NNNI-1
I-1
I0
tp16
bS'z\xeb\x9a\xce5\\U@'
p17
tp18
Rp19
ag10
(g14
S'^\xfc\x0co\x84`U@'
p20
tp21
Rp22
ag10
(g14
S'\x04\x9d\xbe\x9f\x9f]U@'
p23
tp24
Rp25
ag10
(g14
S'\x1e\x9b\n\n\xe6aU@'
p26
tp27
Rp28
ag10
(g14
S'\xa0\xeej\xc4\xfd^U@'
p29
tp30
Rp31
ag10
(g14
S'\x9c\xb4\xa0\xe0r_U@'
p32
tp33
Rp34
ag10
(g14
S'z\x01\xf52}^U@'
p35
tp36
Rp37
ag10
(g14
S'\x1e\x08P{\x81`U@'
p38
tp39
Rp40
ag10
(g14
S'\x11\xdd\xbc\x05A^U@'
p41
tp42
Rp43
ag10
(g14
S'[l W2aU@'
p44
tp45
Rp46
ag10
(g14
S'\x0c\xabM&\n^U@'
p47
tp48
Rp49
ag10
(g14
S'\x9f8\xa6*\xd4]U@'
p50
tp51
Rp52
ag10
(g14
S'\x83\xb5\x0e\x8c._U@'
p53
tp54
Rp55
ag10
(g14
S'E\xff\xf3\xc9\x04\\U@'
p56
tp57
Rp58
ag10
(g14
S'\xa7\xeb\xe1\xaf\x14[U@'
p59
tp60
Rp61
ag10
(g14
S'\x12gm}&]U@'
p62
tp63
Rp64
ag10
(g14
S'n\x94d\xf7!^U@'
p65
tp66
Rp67
ag10
(g14
S'\xe3T\x0c\x88\xa0bU@'
p68
tp69
Rp70
ag10
(g14
S'\x92\x98*\xad\x0c`U@'
p71
tp72
Rp73
ag10
(g14
S'\x19\x91p\x80\x99\\U@'
p74
tp75
Rp76
asS'target'
p77
(lp78
g10
(g14
S'm\r\xbb\x00!?)@'
p79
tp80
Rp81
ag10
(g14
S'\xcb\x93\xb3\x89\xcd\xf8*@'
p82
tp83
Rp84
ag10
(g14
S'\x95\xdcV\xb5\xb4\xe3+@'
p85
tp86
Rp87
ag10
(g14
S'%Old>M-@'
p88
tp89
Rp90
ag10
(g14
S'\xcb\xf6v7`\x8c*@'
p91
tp92
Rp93
ag10
(g14
S'\x0c\xef\xb0`\xfd\x94,@'
p94
tp95
Rp96
ag10
(g14
S'+G\x1d\x8d\xba\xd8)@'
p97
tp98
Rp99
ag10
(g14
S'bUHPg\x1d)@'
p100
tp101
Rp102
ag10
(g14
S'\x99\x95A\x8d\xd7\xba*@'
p103
tp104
Rp105
ag10
(g14
S'\x96\x9a\xe9n]y+@'
p106
tp107
Rp108
ag10
(g14
S'\xd06~\xca:\xc3*@'
p109
tp110
Rp111
ag10
(g14
S'8\xcf\x82\xecy\xff)@'
p112
tp113
Rp114
ag10
(g14
S'Q\x19\x1aj\xaf;+@'
p115
tp116
Rp117
ag10
(g14
S'\x99\xdfcQ)\x96,@'
p118
tp119
Rp120
ag10
(g14
S'<\xfb"\x13&/-@'
p121
tp122
Rp123
ag10
(g14
S'RZ\xf4y\x08,,@'
p124
tp125
Rp126
ag10
(g14
S'2\x14\xe4\x10sP(@'
p127
tp128
Rp129
ag10
(g14
S'RM\xae\x18`\x9b*@'
p130
tp131
Rp132
ag10
(g14
S'B\x07\x06\xe1\xb9*-@'
p133
tp134
Rp135
ag10
(g14
S'\xdc\x12\xc9\xdf,\xe1.@'
p136
tp137
Rp138
asssss.