(dp0
S'../Data/sqlite_17.csv'
p1
(dp2
S'../Data/sqlite_87.csv'
p3
(dp4
F0.35
(dp5
S'mmre'
p6
(dp7
S'bellwether'
p8
(lp9
cnumpy.core.multiarray
scalar
p10
(cnumpy
dtype
p11
(S'f8'
p12
I0
I1
tp13
Rp14
(I3
S'<'
p15
NNNI-1
I-1
I0
tp16
bS'm\xcf\xb2\xf8z\x98?@'
p17
tp18
Rp19
ag10
(g14
S'\xbb\x18`*\xb7,@@'
p20
tp21
Rp22
ag10
(g14
S'\xea\xcb\x0cD^\x01@@'
p23
tp24
Rp25
ag10
(g14
S'2s+f\xd8S@@'
p26
tp27
Rp28
ag10
(g14
S'^\xc0qRH\xdd?@'
p29
tp30
Rp31
ag10
(g14
S'/\xee\xbf{\xcb\xfe?@'
p32
tp33
Rp34
ag10
(g14
S'\x1f5\x849]W@@'
p35
tp36
Rp37
ag10
(g14
S'*\x0et\xe1\xf5p?@'
p38
tp39
Rp40
ag10
(g14
S'\xc8\xb9!\x00~&@@'
p41
tp42
Rp43
ag10
(g14
S'\x81\xdfMi!\x02@@'
p44
tp45
Rp46
ag10
(g14
S':b\x00\xf0qC?@'
p47
tp48
Rp49
ag10
(g14
S'^\xf0\x8c\xadJ&@@'
p50
tp51
Rp52
ag10
(g14
S'\r\xf4\xee\xf0\xf0\xd4?@'
p53
tp54
Rp55
ag10
(g14
S'p^\x00\x89kW@@'
p56
tp57
Rp58
ag10
(g14
S'IFeq(R@@'
p59
tp60
Rp61
ag10
(g14
S'\xb4N6W\x83e?@'
p62
tp63
Rp64
ag10
(g14
S'\xbaI\x98!\x0f\xc6?@'
p65
tp66
Rp67
ag10
(g14
S'\x89L\x1b\x1f\x861@@'
p68
tp69
Rp70
ag10
(g14
S'\xf3%f\xa9[\x93@@'
p71
tp72
Rp73
ag10
(g14
S'\x14\xf4\xf3\xec\xb4g@@'
p74
tp75
Rp76
asS'target'
p77
(lp78
g10
(g14
S'\xbf\xb2\x9d\xb6\x1a\x9cP@'
p79
tp80
Rp81
ag10
(g14
S'\xa0\x9c*\x9c\xc3\x88K@'
p82
tp83
Rp84
ag10
(g14
S'\xf6\xecU\x7ff\xe4Q@'
p85
tp86
Rp87
ag10
(g14
S'_\xc5N\xbb|\xa8Q@'
p88
tp89
Rp90
ag10
(g14
S']L_\xe7\xa2\xb0T@'
p91
tp92
Rp93
ag10
(g14
S'5\xccp@\x99\x8aP@'
p94
tp95
Rp96
ag10
(g14
S'\xd6\xe2\xa9\x12c~R@'
p97
tp98
Rp99
ag10
(g14
S'\x01G\x9d;\x96tR@'
p100
tp101
Rp102
ag10
(g14
S'\x1ev\xb3{\xee\xf8Q@'
p103
tp104
Rp105
ag10
(g14
S'\xce\xe3\xcb\x96\x98UQ@'
p106
tp107
Rp108
ag10
(g14
S'+\xba\rI#\x8bS@'
p109
tp110
Rp111
ag10
(g14
S'\xa4\x90F\xb3\xe8%M@'
p112
tp113
Rp114
ag10
(g14
S'\xf6\xcei\xa0\xf01R@'
p115
tp116
Rp117
ag10
(g14
S'[\xecVfofP@'
p118
tp119
Rp120
ag10
(g14
S'\x00Lpmd8K@'
p121
tp122
Rp123
ag10
(g14
S'\xac\x80;Q\x98\x9fS@'
p124
tp125
Rp126
ag10
(g14
S'\x9f\xeb\xd4\xc94EP@'
p127
tp128
Rp129
ag10
(g14
S'\xc0#\xc9I\xaaUV@'
p130
tp131
Rp132
ag10
(g14
S"\xc1\xc3D\xd0e'P@"
p133
tp134
Rp135
ag10
(g14
S'\x1e\xbf\xef\xa3\xf5\xc1P@'
p136
tp137
Rp138
asssss.