(dp0
S'../Data/sqlite_65.csv'
p1
(dp2
S'../Data/sqlite_90.csv'
p3
(dp4
F0.25
(dp5
S'mmre'
p6
(dp7
S'bellwether'
p8
(lp9
cnumpy.core.multiarray
scalar
p10
(cnumpy
dtype
p11
(S'f8'
p12
I0
I1
tp13
Rp14
(I3
S'<'
p15
NNNI-1
I-1
I0
tp16
bS'\xe2\xe8\n\xd7\xf5wX@'
p17
tp18
Rp19
ag10
(g14
S't#Q\xae\xfduX@'
p20
tp21
Rp22
ag10
(g14
S'\xc9\x9e\x9e\x19\xbbwX@'
p23
tp24
Rp25
ag10
(g14
S'\x81\x1dz\x12\xf4xX@'
p26
tp27
Rp28
ag10
(g14
S'~x\x1f\x99CyX@'
p29
tp30
Rp31
ag10
(g14
S'`;\xb8\xaa#vX@'
p32
tp33
Rp34
ag10
(g14
S'\xe0\xd5\xb8\xf4\ryX@'
p35
tp36
Rp37
ag10
(g14
S'`GE\x94~vX@'
p38
tp39
Rp40
ag10
(g14
S'\xf7p^\x8dWwX@'
p41
tp42
Rp43
ag10
(g14
S'B\xb7Mw\xb4wX@'
p44
tp45
Rp46
ag10
(g14
S'\xe6\xc7H|KvX@'
p47
tp48
Rp49
ag10
(g14
S'\xd6t\xeb\x9eqxX@'
p50
tp51
Rp52
ag10
(g14
S'\xd1\x99K\x0e\xf0sX@'
p53
tp54
Rp55
ag10
(g14
S'\xd1Ti\xd9\xf4vX@'
p56
tp57
Rp58
ag10
(g14
S'E\xc0\x98\xde@wX@'
p59
tp60
Rp61
ag10
(g14
S'\xe2|3\x1c\x90zX@'
p62
tp63
Rp64
ag10
(g14
S'\xd7\x1b\xf1\xf4>vX@'
p65
tp66
Rp67
ag10
(g14
S'A>u\xdf\x1byX@'
p68
tp69
Rp70
ag10
(g14
S'Q\x1b\x8a\xb0\xe4uX@'
p71
tp72
Rp73
ag10
(g14
S'!ow\xd3\x0fyX@'
p74
tp75
Rp76
asS'target'
p77
(lp78
g10
(g14
S'\xeb\xb8KH\x0c\xedA@'
p79
tp80
Rp81
ag10
(g14
S'\n\x0e\xf8\x9f\xb0>C@'
p82
tp83
Rp84
ag10
(g14
S'\xb8\x12\xf1\x16\xff\xff@@'
p85
tp86
Rp87
ag10
(g14
S'\xf2\x90{0\xdb\x88@@'
p88
tp89
Rp90
ag10
(g14
S'vA\rM\xc9\xb8@@'
p91
tp92
Rp93
ag10
(g14
S'o\xfd\xeez\xa8\xe8A@'
p94
tp95
Rp96
ag10
(g14
S'^}\x04\xf6\xc1\xe8@@'
p97
tp98
Rp99
ag10
(g14
S'\xfe\x1e-\x80\x81y@@'
p100
tp101
Rp102
ag10
(g14
S';U\x12\xde\xf9\xbe@@'
p103
tp104
Rp105
ag10
(g14
S'+O\x9b\x19\xb8\x02@@'
p106
tp107
Rp108
ag10
(g14
S'CC (\xbb<B@'
p109
tp110
Rp111
ag10
(g14
S'\x05K\xdf{3q@@'
p112
tp113
Rp114
ag10
(g14
S'\xbe\x87:\r\xa5\x9f@@'
p115
tp116
Rp117
ag10
(g14
S'\\\xe5\x9b$9\xa9B@'
p118
tp119
Rp120
ag10
(g14
S'\x81\xdb\xa2\x13b\x11A@'
p121
tp122
Rp123
ag10
(g14
S'b\xe8\xda\xbbH\xaa@@'
p124
tp125
Rp126
ag10
(g14
S'W\xe8\xc7\xaa\xd0\xa3B@'
p127
tp128
Rp129
ag10
(g14
S'\x9e\xa9\x11r$v@@'
p130
tp131
Rp132
ag10
(g14
S'\x1c\xd3$.\x9ewC@'
p133
tp134
Rp135
ag10
(g14
S'"H*\xce\xee2?@'
p136
tp137
Rp138
asssss.