(dp0
S'../Data/sqlite_42.csv'
p1
(dp2
S'../Data/sqlite_91.csv'
p3
(dp4
F0.4
(dp5
S'mmre'
p6
(dp7
S'bellwether'
p8
(lp9
cnumpy.core.multiarray
scalar
p10
(cnumpy
dtype
p11
(S'f8'
p12
I0
I1
tp13
Rp14
(I3
S'<'
p15
NNNI-1
I-1
I0
tp16
bS'\xda`\xb1\x8b\xfd{X@'
p17
tp18
Rp19
ag10
(g14
S'\xc1\xddYa\x15vX@'
p20
tp21
Rp22
ag10
(g14
S'UI\xeb\xae\xa9lX@'
p23
tp24
Rp25
ag10
(g14
S'\t,w\xa4\x8dqX@'
p26
tp27
Rp28
ag10
(g14
S"\xdf\r'\x10\xa6qX@"
p29
tp30
Rp31
ag10
(g14
S'N\x87\xaf\xdb\xbcyX@'
p32
tp33
Rp34
ag10
(g14
S'\x82\x9a\x9f\xff\\oX@'
p35
tp36
Rp37
ag10
(g14
S'N\xd3I\x03\xfaqX@'
p38
tp39
Rp40
ag10
(g14
S'3v\x05\xde_rX@'
p41
tp42
Rp43
ag10
(g14
S'-\xda\xc3\xfc\x0fxX@'
p44
tp45
Rp46
ag10
(g14
S'W\xfan\x98\x0fuX@'
p47
tp48
Rp49
ag10
(g14
S'q\xfcLa\x14}X@'
p50
tp51
Rp52
ag10
(g14
S'm\x85y\x0ca|X@'
p53
tp54
Rp55
ag10
(g14
S'\x08s\xa2}\xb3}X@'
p56
tp57
Rp58
ag10
(g14
S'\x9c\xbd\x1f.4xX@'
p59
tp60
Rp61
ag10
(g14
S'\x1dc\xd9\xa1\x14gX@'
p62
tp63
Rp64
ag10
(g14
S'$\x9e\xe8\xa5zoX@'
p65
tp66
Rp67
ag10
(g14
S'\x95(5J\xbanX@'
p68
tp69
Rp70
ag10
(g14
S'\xe3b\xbf\xbc\x07zX@'
p71
tp72
Rp73
ag10
(g14
S'S\x1e\xe2F\x9euX@'
p74
tp75
Rp76
asS'target'
p77
(lp78
g10
(g14
S'\x95O,\xf5{\x89K@'
p79
tp80
Rp81
ag10
(g14
S'\xc5\x0e*\x9d>\x05L@'
p82
tp83
Rp84
ag10
(g14
S'YgmU\x83\x8aQ@'
p85
tp86
Rp87
ag10
(g14
S'\xf8\x8f\x02\xd3\x14eO@'
p88
tp89
Rp90
ag10
(g14
S'\xce\xbf\xdb\x9aKCN@'
p91
tp92
Rp93
ag10
(g14
S'&5\xd1!\x8a\xa8M@'
p94
tp95
Rp96
ag10
(g14
S'_\xbf\xab\xf2\x1c\x0eQ@'
p97
tp98
Rp99
ag10
(g14
S'\xb9h\xb1z`(N@'
p100
tp101
Rp102
ag10
(g14
S'\xdc\\\xe4\x13U0P@'
p103
tp104
Rp105
ag10
(g14
S'\xba\xef:\xbdO\xa1K@'
p106
tp107
Rp108
ag10
(g14
S'?&k\x043XP@'
p109
tp110
Rp111
ag10
(g14
S'\xb7\xdf\xbc)\xa6\xcbI@'
p112
tp113
Rp114
ag10
(g14
S'\x10\x9b:d0\x95K@'
p115
tp116
Rp117
ag10
(g14
S'|3\xee\x8d\xb7\xb8J@'
p118
tp119
Rp120
ag10
(g14
S'@\xf7\xff\x11z6N@'
p121
tp122
Rp123
ag10
(g14
S'\xddW5P\xa1RS@'
p124
tp125
Rp126
ag10
(g14
S'\xf8\xf8!\x17\xf8tO@'
p127
tp128
Rp129
ag10
(g14
S'\x06\xa8R\xde3\xf6Q@'
p130
tp131
Rp132
ag10
(g14
S'\xa8\x84\x89\xe1y\x1aN@'
p133
tp134
Rp135
ag10
(g14
S'\xf3\xea\x0e\xdf{[M@'
p136
tp137
Rp138
asssss.