(dp0
S'../Data/sqlite_7.csv'
p1
(dp2
S'../Data/sqlite_85.csv'
p3
(dp4
F0.15
(dp5
S'abs_res'
p6
(dp7
S'bellwether'
p8
(lp9
cnumpy.core.multiarray
scalar
p10
(cnumpy
dtype
p11
(S'f8'
p12
I0
I1
tp13
Rp14
(I3
S'<'
p15
NNNI-1
I-1
I0
tp16
bS'\xc7\x9f\x1a\xf7\x80iWA'
p17
tp18
Rp19
ag10
(g14
S'\xfdS\xe3\x05\xe5IWA'
p20
tp21
Rp22
ag10
(g14
S'\x8a\x95C\xabbkWA'
p23
tp24
Rp25
ag10
(g14
S'\x93%\xbf0N\x89WA'
p26
tp27
Rp28
ag10
(g14
S'\x95PF\xb7\xe5=WA'
p29
tp30
Rp31
ag10
(g14
S'\xf2\xd2M\x06\xfakWA'
p32
tp33
Rp34
ag10
(g14
S'6^\xba\xa1\x94oWA'
p35
tp36
Rp37
ag10
(g14
S'_\x9c}\xb83\x94WA'
p38
tp39
Rp40
ag10
(g14
S'\t\x83\xc0\x8a*tWA'
p41
tp42
Rp43
ag10
(g14
S'r\x1f>\xd3\x01pWA'
p44
tp45
Rp46
ag10
(g14
S'\xdd\x06:\xe9\xd1FWA'
p47
tp48
Rp49
ag10
(g14
S'\x86A`e\x93\x87WA'
p50
tp51
Rp52
ag10
(g14
S'\x80\xf6\xe1/MpWA'
p53
tp54
Rp55
ag10
(g14
S'\xdez\x14\xce\x1boWA'
p56
tp57
Rp58
ag10
(g14
S'\xe8^s\xed\xd4VWA'
p59
tp60
Rp61
ag10
(g14
S'\xfb\xd4xI*3WA'
p62
tp63
Rp64
ag10
(g14
S'\x8c\xfa7~\\EWA'
p65
tp66
Rp67
ag10
(g14
S'\x97}\xf8\x9c\x84RWA'
p68
tp69
Rp70
ag10
(g14
S'\xc7 \xb0\x8aqXWA'
p71
tp72
Rp73
ag10
(g14
S'\xeeQ\xb8\xca\x12`WA'
p74
tp75
Rp76
asS'target'
p77
(lp78
g10
(g14
S']\x8f\xc2\xf5-\tAA'
p79
tp80
Rp81
ag10
(g14
S'K\xe1z\xf4>.DA'
p82
tp83
Rp84
ag10
(g14
S'\x96\x99\x99Y\xafdAA'
p85
tp86
Rp87
ag10
(g14
S'"\\\x8f\xe2sDBA'
p88
tp89
Rp90
ag10
(g14
S'\xa3p=J"&@A'
p91
tp92
Rp93
ag10
(g14
S'\xd9\xa3p]D/AA'
p94
tp95
Rp96
ag10
(g14
S'\xa7p=\n@UBA'
p97
tp98
Rp99
ag10
(g14
S'\x05\x00\x00@\x91\x05DA'
p100
tp101
Rp102
ag10
(g14
S'\xb3G\xe1\xda;\x1bAA'
p103
tp104
Rp105
ag10
(g14
S'\x9b\x99\x99\xd9\xc3`AA'
p106
tp107
Rp108
ag10
(g14
S'p=\n\xd7z&DA'
p109
tp110
Rp111
ag10
(g14
S'533\x130&AA'
p112
tp113
Rp114
ag10
(g14
S'\xb6G\xe1\x1a\xec\xb0AA'
p115
tp116
Rp117
ag10
(g14
S'\xf8\xff\xff\xbfn~@A'
p118
tp119
Rp120
ag10
(g14
S'<33\x13\x1b\x9fDA'
p121
tp122
Rp123
ag10
(g14
S'\xe8Q\xb8>\xeb\x1c@A'
p124
tp125
Rp126
ag10
(g14
S'P\xb8\x1eE\xd1\x80AA'
p127
tp128
Rp129
ag10
(g14
S"'\\\x8fB]\xb2>A"
p130
tp131
Rp132
ag10
(g14
S'^\x8f\xc2\xd5\x1bbBA'
p133
tp134
Rp135
ag10
(g14
S'733S\x01ABA'
p136
tp137
Rp138
asssss.