(dp0
S'../Data/sqlite_69.csv'
p1
(dp2
S'../Data/sqlite_63.csv'
p3
(dp4
F0.1
(dp5
S'mmre'
p6
(dp7
S'bellwether'
p8
(lp9
cnumpy.core.multiarray
scalar
p10
(cnumpy
dtype
p11
(S'f8'
p12
I0
I1
tp13
Rp14
(I3
S'<'
p15
NNNI-1
I-1
I0
tp16
bS'M\xba\x90@D|m@'
p17
tp18
Rp19
ag10
(g14
S'\x1aW\x9d\xd1\x0f~m@'
p20
tp21
Rp22
ag10
(g14
S'/Lpebdm@'
p23
tp24
Rp25
ag10
(g14
S'\xbcQ%Q-mm@'
p26
tp27
Rp28
ag10
(g14
S'\xc00\x11\xe5\x10pm@'
p29
tp30
Rp31
ag10
(g14
S'\x8e \x80\x9b?mm@'
p32
tp33
Rp34
ag10
(g14
S'\xce\xf6\x00\x89\x0bsm@'
p35
tp36
Rp37
ag10
(g14
S'\xbc9d-\xc9um@'
p38
tp39
Rp40
ag10
(g14
S'\x9dY=\xedUgm@'
p41
tp42
Rp43
ag10
(g14
S'\xef\xc5\x91XIim@'
p44
tp45
Rp46
ag10
(g14
S'M\xf3\x83X\xa8lm@'
p47
tp48
Rp49
ag10
(g14
S'\xe7t]\xda\x83\x83m@'
p50
tp51
Rp52
ag10
(g14
S'\xf2\xb0\x06\x1b\xe8tm@'
p53
tp54
Rp55
ag10
(g14
S'\xa5\x089\x8c\xda[m@'
p56
tp57
Rp58
ag10
(g14
S'\xa6\xf7d\x89\x94\x82m@'
p59
tp60
Rp61
ag10
(g14
S'z\x17\xfc6\xfenm@'
p62
tp63
Rp64
ag10
(g14
S'Bj2\x88\t`m@'
p65
tp66
Rp67
ag10
(g14
S'Y\xb5\xe1\x11~lm@'
p68
tp69
Rp70
ag10
(g14
S'\x98\xf0$\xe4\xc7rm@'
p71
tp72
Rp73
ag10
(g14
S'\x05\x8e\xb7\x90\xbbim@'
p74
tp75
Rp76
asS'target'
p77
(lp78
g10
(g14
S'\xb1\xf1SgH\xc9"@'
p79
tp80
Rp81
ag10
(g14
S'[\x98\xd6F\xb8!%@'
p82
tp83
Rp84
ag10
(g14
S'\xe8Xb\xcd$-"@'
p85
tp86
Rp87
ag10
(g14
S'\xf7rJ\x97\xf5\x9f"@'
p88
tp89
Rp90
ag10
(g14
S'.\x872;\x02\xa2"@'
p91
tp92
Rp93
ag10
(g14
S'\xd6Zk\x10\x17\xd8!@'
p94
tp95
Rp96
ag10
(g14
S"a'\x15\xdb\xfae#@"
p97
tp98
Rp99
ag10
(g14
S'n\xbb\x06\xe2T\x11#@'
p100
tp101
Rp102
ag10
(g14
S'\xf7\x9a\xfe<\x06\xd2"@'
p103
tp104
Rp105
ag10
(g14
S'\x0b\xf1M\xc6Q\xe0"@'
p106
tp107
Rp108
ag10
(g14
S'VC)\x11\xa2z!@'
p109
tp110
Rp111
ag10
(g14
S'Sy\x1ax\x8a\x94"@'
p112
tp113
Rp114
ag10
(g14
S'Nh\xd3\t*\xba"@'
p115
tp116
Rp117
ag10
(g14
S'\x0c\xeain(>"@'
p118
tp119
Rp120
ag10
(g14
S'\xd9o\x0b)\xdb;"@'
p121
tp122
Rp123
ag10
(g14
S'.\x1a\xceBXb"@'
p124
tp125
Rp126
ag10
(g14
S'U\xa2i\xe4\x03G"@'
p127
tp128
Rp129
ag10
(g14
S'"au?.\xcb"@'
p130
tp131
Rp132
ag10
(g14
S'$(hL\x00o#@'
p133
tp134
Rp135
ag10
(g14
S'\xdd\x99\xbc\xe9\xdcQ"@'
p136
tp137
Rp138
asssss.