(dp0
S'../Data/sqlite_0.csv'
p1
(dp2
S'../Data/sqlite_97.csv'
p3
(dp4
F0.1
(dp5
S'mmre'
p6
(dp7
S'bellwether'
p8
(lp9
cnumpy.core.multiarray
scalar
p10
(cnumpy
dtype
p11
(S'f8'
p12
I0
I1
tp13
Rp14
(I3
S'<'
p15
NNNI-1
I-1
I0
tp16
bS'\xfc\x1b\xfd<\xf55U@'
p17
tp18
Rp19
ag10
(g14
S'~\x06\x8d#\xe5/U@'
p20
tp21
Rp22
ag10
(g14
S'tm\xaa\xf1M0U@'
p23
tp24
Rp25
ag10
(g14
S'\xf5\x1bh\xb4"/U@'
p26
tp27
Rp28
ag10
(g14
S'\xbe\xebt%\xfb0U@'
p29
tp30
Rp31
ag10
(g14
S's,C#3/U@'
p32
tp33
Rp34
ag10
(g14
S'\x19\xa5"\xa1o2U@'
p35
tp36
Rp37
ag10
(g14
S'\xeb@(N\xdc/U@'
p38
tp39
Rp40
ag10
(g14
S';\\z0\xac.U@'
p41
tp42
Rp43
ag10
(g14
S'^!\xac\x99\xf1.U@'
p44
tp45
Rp46
ag10
(g14
S'U,m\xdbo2U@'
p47
tp48
Rp49
ag10
(g14
S'\xc0\xdaG\x82\x1f,U@'
p50
tp51
Rp52
ag10
(g14
S'\xd9\x8b\xc0\xb8\xcb1U@'
p53
tp54
Rp55
ag10
(g14
S'\xd0\xebj\xe2\x1f-U@'
p56
tp57
Rp58
ag10
(g14
S'0K\xcd\x894*U@'
p59
tp60
Rp61
ag10
(g14
S'w\xe9\xcd^\x103U@'
p62
tp63
Rp64
ag10
(g14
S'1`\x9d\xc0\x131U@'
p65
tp66
Rp67
ag10
(g14
S'\xb6\xed\xba\xda\xfa-U@'
p68
tp69
Rp70
ag10
(g14
S'Gf9 \x142U@'
p71
tp72
Rp73
ag10
(g14
S'D.w\xb9\x810U@'
p74
tp75
Rp76
asS'target'
p77
(lp78
g10
(g14
S'\x95Bp\xf0-\tD@'
p79
tp80
Rp81
ag10
(g14
S':\x0e\xae\xa1H\x9cZ@'
p82
tp83
Rp84
ag10
(g14
S'\x0f\xd1\xb3-;\xadV@'
p85
tp86
Rp87
ag10
(g14
S'E\x9a:\x1a\xf9mV@'
p88
tp89
Rp90
ag10
(g14
S'y\xab\x81f\xac\nO@'
p91
tp92
Rp93
ag10
(g14
S'\x10\xf1G\x8e\xfc\x80W@'
p94
tp95
Rp96
ag10
(g14
S'\xbba\x1c\x90\x8avV@'
p97
tp98
Rp99
ag10
(g14
S'\x1b\xb2\xfe\x19\xccGR@'
p100
tp101
Rp102
ag10
(g14
S'\x1f\x7f0\x9c\xd3\x04V@'
p103
tp104
Rp105
ag10
(g14
S'\xcet\nm\xc4~^@'
p106
tp107
Rp108
ag10
(g14
S'\xe5W\x1f\xa5\x11\xb6T@'
p109
tp110
Rp111
ag10
(g14
S'N \xb5|\xda7T@'
p112
tp113
Rp114
ag10
(g14
S'{\x88\xffx\xceZ[@'
p115
tp116
Rp117
ag10
(g14
S'e\xe5\x9ajG>[@'
p118
tp119
Rp120
ag10
(g14
S'\x83\xcf;+]\xc3e@'
p121
tp122
Rp123
ag10
(g14
S'\xb4E3\xae\xf7\xaaU@'
p124
tp125
Rp126
ag10
(g14
S'\x05dy\xccp\xfcS@'
p127
tp128
Rp129
ag10
(g14
S'\xf1\xdf\x92\x8c\xa7rT@'
p130
tp131
Rp132
ag10
(g14
S'G\x89\x81\xe0d\x99P@'
p133
tp134
Rp135
ag10
(g14
S'\xe0J7\x85\xe9\xceN@'
p136
tp137
Rp138
asssss.