(dp0
S'../Data/sqlite_0.csv'
p1
(dp2
S'../Data/sqlite_87.csv'
p3
(dp4
F0.3
(dp5
S'mmre'
p6
(dp7
S'bellwether'
p8
(lp9
cnumpy.core.multiarray
scalar
p10
(cnumpy
dtype
p11
(S'f8'
p12
I0
I1
tp13
Rp14
(I3
S'<'
p15
NNNI-1
I-1
I0
tp16
bS'+b\xd9\xbc\xc4sL@'
p17
tp18
Rp19
ag10
(g14
S'\x88%*`\x86dL@'
p20
tp21
Rp22
ag10
(g14
S'\x11\xbc\xfa?\\[L@'
p23
tp24
Rp25
ag10
(g14
S'\xc6\xbe\xf2\xa9IdL@'
p26
tp27
Rp28
ag10
(g14
S'\x08i!\x17~bL@'
p29
tp30
Rp31
ag10
(g14
S'\xddq\x1fEYiL@'
p32
tp33
Rp34
ag10
(g14
S'\xfe\xaaQ\x95\x8blL@'
p35
tp36
Rp37
ag10
(g14
S'\x941\x84\x92u\x84L@'
p38
tp39
Rp40
ag10
(g14
S"\xb0'\x90\xf9\xd35L@"
p41
tp42
Rp43
ag10
(g14
S'\x04=7n\x04fL@'
p44
tp45
Rp46
ag10
(g14
S'\x99\xbf\xf9\xccD\x8fL@'
p47
tp48
Rp49
ag10
(g14
S'\x80\xceg\xaf8CL@'
p50
tp51
Rp52
ag10
(g14
S'\xf4!"`\x03^L@'
p53
tp54
Rp55
ag10
(g14
S'\x87+\xa8{GkL@'
p56
tp57
Rp58
ag10
(g14
S'\xd5\xec?\xaaB6L@'
p59
tp60
Rp61
ag10
(g14
S'q\x8fo\xd3+PL@'
p62
tp63
Rp64
ag10
(g14
S'\xdb\xcb\xd5D\xb3nL@'
p65
tp66
Rp67
ag10
(g14
S'\x82\xf5\xdb\xd8\x976L@'
p68
tp69
Rp70
ag10
(g14
S'\x144\xfc\xfd\xecPL@'
p71
tp72
Rp73
ag10
(g14
S'"9\x1ep\xe9RL@'
p74
tp75
Rp76
asS'target'
p77
(lp78
g10
(g14
S'\xc0Aw\xae\t7S@'
p79
tp80
Rp81
ag10
(g14
S'\x145\xa7,\x879Q@'
p82
tp83
Rp84
ag10
(g14
S'\x8e[\xbe\x05}MQ@'
p85
tp86
Rp87
ag10
(g14
S'\x9b\x8dxn\x85\x0cR@'
p88
tp89
Rp90
ag10
(g14
S'p\x9e\x8c\xefA\x0bU@'
p91
tp92
Rp93
ag10
(g14
S'g\x06.\xbd\xd5\xf6H@'
p94
tp95
Rp96
ag10
(g14
S'\xe2z\xa9\xa9G\xebJ@'
p97
tp98
Rp99
ag10
(g14
S'\x05\xaa\x11\xea\xceJS@'
p100
tp101
Rp102
ag10
(g14
S'\xf2L\xaf&ThP@'
p103
tp104
Rp105
ag10
(g14
S'%\xa6A\xbc\xb6|T@'
p106
tp107
Rp108
ag10
(g14
S'i>\x0e6\x0e\xdbK@'
p109
tp110
Rp111
ag10
(g14
S'HP\xf9\xe6\xf57P@'
p112
tp113
Rp114
ag10
(g14
S'\x9aX\xd8+\x1b9M@'
p115
tp116
Rp117
ag10
(g14
S'<\xdc*\xd7(PO@'
p118
tp119
Rp120
ag10
(g14
S'\xf9\x87}_\xa91Q@'
p121
tp122
Rp123
ag10
(g14
S'\t\xd7\xfd\xe4\x93\x8bM@'
p124
tp125
Rp126
ag10
(g14
S'!\x18x\xc0\x7fxP@'
p127
tp128
Rp129
ag10
(g14
S'\xbe\x9eW\xd5KhR@'
p130
tp131
Rp132
ag10
(g14
S'\xe5^\xb2\xf4p\x07Q@'
p133
tp134
Rp135
ag10
(g14
S'O\xbb" H\x1dR@'
p136
tp137
Rp138
asssss.