(dp0
S'../Data/sqlite_47.csv'
p1
(dp2
S'../Data/sqlite_5.csv'
p3
(dp4
F0.2
(dp5
S'abs_res'
p6
(dp7
S'bellwether'
p8
(lp9
cnumpy.core.multiarray
scalar
p10
(cnumpy
dtype
p11
(S'f8'
p12
I0
I1
tp13
Rp14
(I3
S'<'
p15
NNNI-1
I-1
I0
tp16
bS'|?5^\xba\x05V@'
p17
tp18
Rp19
ag10
(g14
S'Kb\x10X9\xa8V@'
p20
tp21
Rp22
ag10
(g14
S'23333OU@'
p23
tp24
Rp25
ag10
(g14
S'\x08\x00\x00\x00\x00\x10V@'
p26
tp27
Rp28
ag10
(g14
S'\x16\xaeG\xe1z\x98V@'
p29
tp30
Rp31
ag10
(g14
S's=\n\xd7\xa3TV@'
p32
tp33
Rp34
ag10
(g14
S'k\x91\xed|?\tV@'
p35
tp36
Rp37
ag10
(g14
S'x\xe9&1\x08DV@'
p38
tp39
Rp40
ag10
(g14
S'^d;\xdfO\x01V@'
p41
tp42
Rp43
ag10
(g14
S'\xff*\x87\x16\xd9^U@'
p44
tp45
Rp46
ag10
(g14
S'\xe3\xa5\x9b\xc4 tU@'
p47
tp48
Rp49
ag10
(g14
S'\xb1G\xe1z\x14*U@'
p50
tp51
Rp52
ag10
(g14
S'>^\xbaI\x0czU@'
p53
tp54
Rp55
ag10
(g14
S'g\x10X9\xb4tV@'
p56
tp57
Rp58
ag10
(g14
S'\xf9(\\\x8f\xc2\xb9U@'
p59
tp60
Rp61
ag10
(g14
S'\x07X9\xb4\xc8\xdaU@'
p62
tp63
Rp64
ag10
(g14
S'v\x14\xaeG\xe1VV@'
p65
tp66
Rp67
ag10
(g14
S'e\x91\xed|?QV@'
p68
tp69
Rp70
ag10
(g14
S'b\x0e-\xb2\x9d\xebU@'
p71
tp72
Rp73
ag10
(g14
S'\x88l\xe7\xfb\xa9\xd1U@'
p74
tp75
Rp76
asS'target'
p77
(lp78
g10
(g14
S'K\x0c\x02+\x87^\\@'
p79
tp80
Rp81
ag10
(g14
S'\x0c\xac\x1cZd\xdbW@'
p82
tp83
Rp84
ag10
(g14
S'i\x91\xed|?9_@'
p85
tp86
Rp87
ag10
(g14
S'\xcd\xf7S\xe3\xa5c\\@'
p88
tp89
Rp90
ag10
(g14
S':\n\xd7\xa3pAY@'
p91
tp92
Rp93
ag10
(g14
S'I\xb8\x1e\x85\xeb\x89\\@'
p94
tp95
Rp96
ag10
(g14
S'2\xdfO\x8d\x97\xeeY@'
p97
tp98
Rp99
ag10
(g14
S'\x97\xc4 \xb0r\xe8\\@'
p100
tp101
Rp102
ag10
(g14
S'\x80j\xbct\x93\x10Y@'
p103
tp104
Rp105
ag10
(g14
S'\x9ep=\n\xd7\xb3\\@'
p106
tp107
Rp108
ag10
(g14
S'\xa2E\xb6\xf3\xfd\xaa`@'
p109
tp110
Rp111
ag10
(g14
S'\xbfrh\x91\xed\xb4Y@'
p112
tp113
Rp114
ag10
(g14
S'p\x12\x83\xc0\xca\x19Z@'
p115
tp116
Rp117
ag10
(g14
S';\x89A`\xe5(Y@'
p118
tp119
Rp120
ag10
(g14
S'b;\xdfO\x8d\xdd`@'
p121
tp122
Rp123
ag10
(g14
S'\x8e\x16\xd9\xce\xf7C]@'
p124
tp125
Rp126
ag10
(g14
S'\xfa\x80\x95C\x8b\xcc[@'
p127
tp128
Rp129
ag10
(g14
S'\xe7|?5^\xea_@'
p130
tp131
Rp132
ag10
(g14
S'*\xdd$\x06\x81)]@'
p133
tp134
Rp135
ag10
(g14
S'\xfe\xa9\xf1\xd2MJ]@'
p136
tp137
Rp138
asssss.