(dp0
S'../Data/sqlite_91.csv'
p1
(dp2
S'../Data/sqlite_30.csv'
p3
(dp4
F0.35
(dp5
S'abs_res'
p6
(dp7
S'bellwether'
p8
(lp9
cnumpy.core.multiarray
scalar
p10
(cnumpy
dtype
p11
(S'f8'
p12
I0
I1
tp13
Rp14
(I3
S'<'
p15
NNNI-1
I-1
I0
tp16
bS's\xaf\xb9\xd0F~ A'
p17
tp18
Rp19
ag10
(g14
S'\x84N\x1b(\t\x87 A'
p20
tp21
Rp22
ag10
(g14
S'\xf7\x9a\x0bIy\xa5 A'
p23
tp24
Rp25
ag10
(g14
S'@5^\xba\xe8\x91 A'
p26
tp27
Rp28
ag10
(g14
S'@\xd2\x94\xca\xc8y A'
p29
tp30
Rp31
ag10
(g14
S"}#\x94\x11'y A"
p32
tp33
Rp34
ag10
(g14
S"=\x98'j\xe8\x8d A"
p35
tp36
Rp37
ag10
(g14
S'\x96\x99\x99\x99\xae\xa2 A'
p38
tp39
Rp40
ag10
(g14
S'\xeb&1HY\x8b A'
p41
tp42
Rp43
ag10
(g14
S'\x1b\x13<X\xae~ A'
p44
tp45
Rp46
ag10
(g14
S'\x02V\x0e\xad\xc1w A'
p47
tp48
Rp49
ag10
(g14
S'n\xcbZ\x9d\xcaz A'
p50
tp51
Rp52
ag10
(g14
S'\x8f{\xcd\xc5i^ A'
p53
tp54
Rp55
ag10
(g14
S'\xba\x02\xe4^0s A'
p56
tp57
Rp58
ag10
(g14
S':5^:jn A'
p59
tp60
Rp61
ag10
(g14
S'd\xf4\xb6\xecG} A'
p62
tp63
Rp64
ag10
(g14
S'hJ\xc5\x99\xefo A'
p65
tp66
Rp67
ag10
(g14
S'*\xea\xdf\xc8B\x81 A'
p68
tp69
Rp70
ag10
(g14
S'PFo\xcb\x06j A'
p71
tp72
Rp73
ag10
(g14
S'Q\xe3\xa5\xdb6\x85 A'
p74
tp75
Rp76
asS'target'
p77
(lp78
g10
(g14
S'<^\xbaI\x0c\xb2;@'
p79
tp80
Rp81
ag10
(g14
S'H\xb6\xf3\xfd\xd4X<@'
p82
tp83
Rp84
ag10
(g14
S'.\xdd$\x06\x81\xf59@'
p85
tp86
Rp87
ag10
(g14
S'>\xdfO\x8d\x97~@@'
p88
tp89
Rp90
ag10
(g14
S'\x8a\xebQ\xb8\x1e\xd59@'
p91
tp92
Rp93
ag10
(g14
S'x\xe7\xfb\xa9\xf1\x82;@'
p94
tp95
Rp96
ag10
(g14
S'd\x10X9\xb4\x80@@'
p97
tp98
Rp99
ag10
(g14
S'\xd7"\xdb\xf9~\xaa9@'
p100
tp101
Rp102
ag10
(g14
S"~\x95C\x8bl':@"
p103
tp104
Rp105
ag10
(g14
S'\xbbI\x0c\x02+w9@'
p106
tp107
Rp108
ag10
(g14
S'B\x8bl\xe7\xfb\xc9:@'
p109
tp110
Rp111
ag10
(g14
S'Z9\xb4\xc8v^?@'
p112
tp113
Rp114
ag10
(g14
S'\xb3rh\x91\xed<=@'
p115
tp116
Rp117
ag10
(g14
S',\x06\x81\x95C\xeb<@'
p118
tp119
Rp120
ag10
(g14
S'J\x0c\x02+\x87\x96<@'
p121
tp122
Rp123
ag10
(g14
S'\xd1Mb\x10XI;@'
p124
tp125
Rp126
ag10
(g14
S'g\x10X9\xb4\xb8@@'
p127
tp128
Rp129
ag10
(g14
S'B\xe1z\x14\xae\x97;@'
p130
tp131
Rp132
ag10
(g14
S'%\x06\x81\x95C{;@'
p133
tp134
Rp135
ag10
(g14
S'\x11\x81\x95C\x8b,;@'
p136
tp137
Rp138
asssss.