(dp0
S'../Data/sqlite_32.csv'
p1
(dp2
S'../Data/sqlite_85.csv'
p3
(dp4
F0.15
(dp5
S'abs_res'
p6
(dp7
S'bellwether'
p8
(lp9
cnumpy.core.multiarray
scalar
p10
(cnumpy
dtype
p11
(S'f8'
p12
I0
I1
tp13
Rp14
(I3
S'<'
p15
NNNI-1
I-1
I0
tp16
bS'\xdez\x14\xee\x14\xe1LA'
p17
tp18
Rp19
ag10
(g14
S']\x8f\xc2\xb5\xea`MA'
p20
tp21
Rp22
ag10
(g14
S'K\xb8\x1e%\xa6mMA'
p23
tp24
Rp25
ag10
(g14
S'_ff&2~MA'
p26
tp27
Rp28
ag10
(g14
S'\xb5G\xe1\xfa\xc6CMA'
p29
tp30
Rp31
ag10
(g14
S'\x13\xaeG!\xf5+MA'
p32
tp33
Rp34
ag10
(g14
S'\xb6\x1e\x85k\xbc\xb9MA'
p35
tp36
Rp37
ag10
(g14
S'D\xe1z4\xc8PMA'
p38
tp39
Rp40
ag10
(g14
S'bfff\x84\x1aMA'
p41
tp42
Rp43
ag10
(g14
S'\x18\xaeG\xe1\x10@MA'
p44
tp45
Rp46
ag10
(g14
S'o=\n7\x80\xdcLA'
p47
tp48
Rp49
ag10
(g14
S'`\x8f\xc2\x15\xe3+MA'
p50
tp51
Rp52
ag10
(g14
S'@\n\xd7#5QMA'
p53
tp54
Rp55
ag10
(g14
S'O\xb8\x1e%\xbe9MA'
p56
tp57
Rp58
ag10
(g14
S'X\x8f\xc25\x19\xecLA'
p59
tp60
Rp61
ag10
(g14
S'\x12\xaeG\xa1\xc8\x9dMA'
p62
tp63
Rp64
ag10
(g14
S'+\\\x8fbL\xb3MA'
p65
tp66
Rp67
ag10
(g14
S'\x9c\x99\x99Y\xdcFMA'
p68
tp69
Rp70
ag10
(g14
S'O\x8f\xc2\xd5\xb9\x96MA'
p71
tp72
Rp73
ag10
(g14
S'\x91\xc2\xf5H\x00OMA'
p74
tp75
Rp76
asS'target'
p77
(lp78
g10
(g14
S'\xe9Q\xb8\xbe\x89W@A'
p79
tp80
Rp81
ag10
(g14
S'E\xe1zt\xfb\x1cBA'
p82
tp83
Rp84
ag10
(g14
S'?\n\xd7\x83Q\xa4AA'
p85
tp86
Rp87
ag10
(g14
S'\xb2G\xe1\xba\x86\xe3@A'
p88
tp89
Rp90
ag10
(g14
S"\x86\xebQ\xb8'B?A"
p91
tp92
Rp93
ag10
(g14
S'E\xe1z\x94\xda\x8aAA'
p94
tp95
Rp96
ag10
(g14
S'-33\x13\x83\r@A'
p97
tp98
Rp99
ag10
(g14
S'\xba\x1e\x85\xcb\xc2\x14CA'
p100
tp101
Rp102
ag10
(g14
S'\xe8z\x14\xee"\nDA'
p103
tp104
Rp105
ag10
(g14
S'433\xf3\xa9\xd7@A'
p106
tp107
Rp108
ag10
(g14
S'033\xd3\xd4\xd9@A'
p109
tp110
Rp111
ag10
(g14
S'\x89\xebQ\xb8OsBA'
p112
tp113
Rp114
ag10
(g14
S'r=\n\xb70o@A'
p115
tp116
Rp117
ag10
(g14
S'\x11\xaeG!\rA@A'
p118
tp119
Rp120
ag10
(g14
S'\n\xd7\xa30\r`CA'
p121
tp122
Rp123
ag10
(g14
S'\x0b\xd7\xa3`\xa6\xf6CA'
p124
tp125
Rp126
ag10
(g14
S'Y\x8f\xc2U)\x9fDA'
p127
tp128
Rp129
ag10
(g14
S'u=\n7\x993AA'
p130
tp131
Rp132
ag10
(g14
S'\x8b\xebQ\x18\x9a\xd7@A'
p133
tp134
Rp135
ag10
(g14
S'jfff\xf0_AA'
p136
tp137
Rp138
asssss.