(dp0
S'../Data/sqlite_72.csv'
p1
(dp2
S'../Data/sqlite_84.csv'
p3
(dp4
F0.05
(dp5
S'mmre'
p6
(dp7
S'bellwether'
p8
(lp9
cnumpy.core.multiarray
scalar
p10
(cnumpy
dtype
p11
(S'f8'
p12
I0
I1
tp13
Rp14
(I3
S'<'
p15
NNNI-1
I-1
I0
tp16
bS'\xd4PTn\xe1RR@'
p17
tp18
Rp19
ag10
(g14
S'\xb2\xb7$\xe4}UR@'
p20
tp21
Rp22
ag10
(g14
S'\x1ci\xd8L"NR@'
p23
tp24
Rp25
ag10
(g14
S'\x0b\xa4q\xdb\xdeMR@'
p26
tp27
Rp28
ag10
(g14
S'kB\xcb\xe3\xd0SR@'
p29
tp30
Rp31
ag10
(g14
S'\x97\x8e5)\x1fOR@'
p32
tp33
Rp34
ag10
(g14
S'=\x9e)O\x8cOR@'
p35
tp36
Rp37
ag10
(g14
S'\xaeu}\xc92PR@'
p38
tp39
Rp40
ag10
(g14
S'x\x9f\xac\x9eqSR@'
p41
tp42
Rp43
ag10
(g14
S'Irw\xd3@RR@'
p44
tp45
Rp46
ag10
(g14
S'2N\xf9\r\xb9IR@'
p47
tp48
Rp49
ag10
(g14
S'wu3"\xccMR@'
p50
tp51
Rp52
ag10
(g14
S'\xe5\x99\x14/\xa4LR@'
p53
tp54
Rp55
ag10
(g14
S'7\xe7\xf1\xfd8NR@'
p56
tp57
Rp58
ag10
(g14
S'\xfeF[\x02\x97NR@'
p59
tp60
Rp61
ag10
(g14
S'\x7f-\xe5\xf8\xc8SR@'
p62
tp63
Rp64
ag10
(g14
S'\x84\x8dw\n4MR@'
p65
tp66
Rp67
ag10
(g14
S'\xf2\xf0\x0e.\x87LR@'
p68
tp69
Rp70
ag10
(g14
S'\x03\xb7\x00\r\x85PR@'
p71
tp72
Rp73
ag10
(g14
S'w_\xdf=\x87MR@'
p74
tp75
Rp76
asS'target'
p77
(lp78
g10
(g14
S'\xa5\\\x04\xe3quW@'
p79
tp80
Rp81
ag10
(g14
S'\x83\x82\rK\xf2\xb8R@'
p82
tp83
Rp84
ag10
(g14
S'\x04\x8a\xa1\x82\xcc\x19N@'
p85
tp86
Rp87
ag10
(g14
S'\x87~\xc8\xb8\xc6yS@'
p88
tp89
Rp90
ag10
(g14
S'\xf1\xb5uQ!YW@'
p91
tp92
Rp93
ag10
(g14
S'\x95\x12\xe2\xd9v:X@'
p94
tp95
Rp96
ag10
(g14
S'|\xa2#B\xb56T@'
p97
tp98
Rp99
ag10
(g14
S'k\x10\xab>\xf1\xbfW@'
p100
tp101
Rp102
ag10
(g14
S'\xa6\xf4\xbe WkU@'
p103
tp104
Rp105
ag10
(g14
S'r\x99PK.\x8d@@'
p106
tp107
Rp108
ag10
(g14
S'\xf1$\x1e\xe3\xebZF@'
p109
tp110
Rp111
ag10
(g14
S'`\x13\xa3\n\xb4[X@'
p112
tp113
Rp114
ag10
(g14
S'\x04\xb8S\x01ZuQ@'
p115
tp116
Rp117
ag10
(g14
S'y\x0f\xa2\x1a\x9c\x13`@'
p118
tp119
Rp120
ag10
(g14
S'>^\x9dr\xfb\xf2X@'
p121
tp122
Rp123
ag10
(g14
S'\x00\xbf\xd6\x87\xd5\x98Z@'
p124
tp125
Rp126
ag10
(g14
S'\x1b\xa2\xaev\xb3\x08T@'
p127
tp128
Rp129
ag10
(g14
S';\xffs\x90\xa0tQ@'
p130
tp131
Rp132
ag10
(g14
S'{%o\xd3?\xe6F@'
p133
tp134
Rp135
ag10
(g14
S'\xe1\xd1\xd0\xf8\x04BT@'
p136
tp137
Rp138
asssss.