(dp0
S'../Data/sqlite_69.csv'
p1
(dp2
S'../Data/sqlite_85.csv'
p3
(dp4
F0.25
(dp5
S'abs_res'
p6
(dp7
S'bellwether'
p8
(lp9
cnumpy.core.multiarray
scalar
p10
(cnumpy
dtype
p11
(S'f8'
p12
I0
I1
tp13
Rp14
(I3
S'<'
p15
NNNI-1
I-1
I0
tp16
bS'"\xe8\xb4\xa1l\nTA'
p17
tp18
Rp19
ag10
(g14
S'H\xe1z4TPTA'
p20
tp21
Rp22
ag10
(g14
S'\x0ct\xda\xf8\x81\x82TA'
p23
tp24
Rp25
ag10
(g14
S'\xcc\xcc\xcc$E\x03TA'
p26
tp27
Rp28
ag10
(g14
S'\x03c\xc9oS,TA'
p29
tp30
Rp31
ag10
(g14
S'\xc2X\xf2{"`TA'
p32
tp33
Rp34
ag10
(g14
S'\x91\xc2\xf5\xe0\x8fdTA'
p35
tp36
Rp37
ag10
(g14
S'+\\\x8f\x12\xfa^TA'
p38
tp39
Rp40
ag10
(g14
S'\xd0\x06:\r\xe7STA'
p41
tp42
Rp43
ag10
(g14
S'=33\x93\xbc4TA'
p44
tp45
Rp46
ag10
(g14
S'\xd8\xa3pu\xd9[TA'
p47
tp48
Rp49
ag10
(g14
S'8m\xa0\x1b\x7fnTA'
p50
tp51
Rp52
ag10
(g14
S'jff\x16\xe1=TA'
p53
tp54
Rp55
ag10
(g14
S'\xd1\x06:\x05\xeaETA'
p56
tp57
Rp58
ag10
(g14
S'P\xb8\x1e\xddhdTA'
p59
tp60
Rp61
ag10
(g14
S'\xf7\xff\xff\x17\xef_TA'
p62
tp63
Rp64
ag10
(g14
S'\xebQ\xb8\x16\xb9lTA'
p65
tp66
Rp67
ag10
(g14
S'X\xf2\x8b\xbdj?TA'
p68
tp69
Rp70
ag10
(g14
S'/\xf9\xc5\x02\\cTA'
p71
tp72
Rp73
ag10
(g14
S'\x1c\x85\xeb\x91q\x87TA'
p74
tp75
Rp76
asS'target'
p77
(lp78
g10
(g14
S'x=\nW\xfaE=A'
p79
tp80
Rp81
ag10
(g14
S'\xd7\xa3p=\x945?A'
p82
tp83
Rp84
ag10
(g14
S'.\\\x8fBLw?A'
p85
tp86
Rp87
ag10
(g14
S'R\xb8\x1eE\xcbU?A'
p88
tp89
Rp90
ag10
(g14
S'\x92\xc2\xf5\xa8\xf4\x8e<A'
p91
tp92
Rp93
ag10
(g14
S'\x18\xaeG\x01x7AA'
p94
tp95
Rp96
ag10
(g14
S'\xa8p=\x8ax\x0c?A'
p97
tp98
Rp99
ag10
(g14
S'gff&ke>A'
p100
tp101
Rp102
ag10
(g14
S'\x16\xaeG\xe1j"@A'
p103
tp104
Rp105
ag10
(g14
S'\x93\xc2\xf5(+\xf1@A'
p106
tp107
Rp108
ag10
(g14
S'\xd6\xa3p\xbd\\\xbe>A'
p109
tp110
Rp111
ag10
(g14
S'P\xb8\x1e\x05\xc3Y?A'
p112
tp113
Rp114
ag10
(g14
S'\xb9\x1e\x85+\xff*?A'
p115
tp116
Rp117
ag10
(g14
S'\\ff&\xda7?A'
p118
tp119
Rp120
ag10
(g14
S'O\xe1z\xd405?A'
p121
tp122
Rp123
ag10
(g14
S'I\xe1z\x14o\x1c?A'
p124
tp125
Rp126
ag10
(g14
S'@\n\xd7#\xf1V=A'
p127
tp128
Rp129
ag10
(g14
S'\x16\xaeG\xa1\xdf\\?A'
p130
tp131
Rp132
ag10
(g14
S'\xe1z\x14\xee\xc5\x19AA'
p133
tp134
Rp135
ag10
(g14
S'\x07\xd7\xa3p\x83\xbf@A'
p136
tp137
Rp138
asssss.