(dp0
S'../Data/sqlite_82.csv'
p1
(dp2
S'../Data/sqlite_87.csv'
p3
(dp4
F0.15
(dp5
S'mmre'
p6
(dp7
S'bellwether'
p8
(lp9
cnumpy.core.multiarray
scalar
p10
(cnumpy
dtype
p11
(S'f8'
p12
I0
I1
tp13
Rp14
(I3
S'<'
p15
NNNI-1
I-1
I0
tp16
bS'\x03\xe74\xbb\xd5og@'
p17
tp18
Rp19
ag10
(g14
S'\x8b\xbf\x97\x10\x08Fg@'
p20
tp21
Rp22
ag10
(g14
S'J\x10\xe14j"g@'
p23
tp24
Rp25
ag10
(g14
S'\x8d9\x0fx[hg@'
p26
tp27
Rp28
ag10
(g14
S'O\x8beu/Yg@'
p29
tp30
Rp31
ag10
(g14
S'\xff\xf0\t\xa3uKg@'
p32
tp33
Rp34
ag10
(g14
S'R\xc8<\x19\xc2*g@'
p35
tp36
Rp37
ag10
(g14
S':.w\xe6~Tg@'
p38
tp39
Rp40
ag10
(g14
S'\x9dGN`\x1c\x91g@'
p41
tp42
Rp43
ag10
(g14
S'\xec\x84l\x8a:Pg@'
p44
tp45
Rp46
ag10
(g14
S'\xcf\x80\xb3k\xb7_g@'
p47
tp48
Rp49
ag10
(g14
S'O|l])Zg@'
p50
tp51
Rp52
ag10
(g14
S'\xea\x89\x8e\xa3%Rg@'
p53
tp54
Rp55
ag10
(g14
S'\x10$\xff\xc9Ywg@'
p56
tp57
Rp58
ag10
(g14
S'\xa8\xfd\x7fb\x85\x9cg@'
p59
tp60
Rp61
ag10
(g14
S'\xb62ZOF\xa1g@'
p62
tp63
Rp64
ag10
(g14
S'\xc2<$\x19kRg@'
p65
tp66
Rp67
ag10
(g14
S'I!\x7f\x046<g@'
p68
tp69
Rp70
ag10
(g14
S'\x91\xd5\x8d\x80ihg@'
p71
tp72
Rp73
ag10
(g14
S'\x1c\xa9^\x8f\xea6g@'
p74
tp75
Rp76
asS'target'
p77
(lp78
g10
(g14
S'|0\xe6Q\xa7\x8aO@'
p79
tp80
Rp81
ag10
(g14
S'@\xb6j(q\x1cL@'
p82
tp83
Rp84
ag10
(g14
S'\xaa;Z/\x07\x06H@'
p85
tp86
Rp87
ag10
(g14
S'|\x99\r\x8d\xd8\x1fU@'
p88
tp89
Rp90
ag10
(g14
S'\xff\x93\xd7\x171<O@'
p91
tp92
Rp93
ag10
(g14
S'8(l\x1a\xe9+K@'
p94
tp95
Rp96
ag10
(g14
S'/\x89\x96\xd7\xfd\x05R@'
p97
tp98
Rp99
ag10
(g14
S"<\xfc\xce\x89N'L@"
p100
tp101
Rp102
ag10
(g14
S'u\xbfQ\xc6\xcc\xe2T@'
p103
tp104
Rp105
ag10
(g14
S'\x17\x9b\x8c{\x1b{N@'
p106
tp107
Rp108
ag10
(g14
S'!!H@_{N@'
p109
tp110
Rp111
ag10
(g14
S'\x7f\xf3RM\xb3\xf6M@'
p112
tp113
Rp114
ag10
(g14
S'T\xb3\x1a\xae{\n\\@'
p115
tp116
Rp117
ag10
(g14
S'\x9e\x82\xae\xaf\x80\xe5Y@'
p118
tp119
Rp120
ag10
(g14
S'\xa6`\x1erT\x02W@'
p121
tp122
Rp123
ag10
(g14
S'\x07\x03\x9a\x90\x83\x02U@'
p124
tp125
Rp126
ag10
(g14
S'\x19\xfb`\xd2\xd09I@'
p127
tp128
Rp129
ag10
(g14
S'\x8dN\xc5R\xbc\xf5P@'
p130
tp131
Rp132
ag10
(g14
S'\xfb\x87}\xe9]\x9eN@'
p133
tp134
Rp135
ag10
(g14
S'\xca\xb5\xe5Y\xd5\xd1S@'
p136
tp137
Rp138
asssss.