(dp0
S'../Data/sqlite_79.csv'
p1
(dp2
S'../Data/sqlite_59.csv'
p3
(dp4
F0.05
(dp5
S'mmre'
p6
(dp7
S'bellwether'
p8
(lp9
cnumpy.core.multiarray
scalar
p10
(cnumpy
dtype
p11
(S'f8'
p12
I0
I1
tp13
Rp14
(I3
S'<'
p15
NNNI-1
I-1
I0
tp16
bS'\x80\xbf|\x1d\xe5\x0eV@'
p17
tp18
Rp19
ag10
(g14
S'r\x8d\x0b\xee0\rV@'
p20
tp21
Rp22
ag10
(g14
S'\xc3\xe1\xc8D\xaf\x0fV@'
p23
tp24
Rp25
ag10
(g14
S'\xd8\xcc$\x883\x0fV@'
p26
tp27
Rp28
ag10
(g14
S'<$#/3\x0eV@'
p29
tp30
Rp31
ag10
(g14
S'\x9a?\xbc\xc6K\x12V@'
p32
tp33
Rp34
ag10
(g14
S'Z\x85\x12\x95\x18\x0fV@'
p35
tp36
Rp37
ag10
(g14
S'\t\x04\x0c\xaa\xc4\x0fV@'
p38
tp39
Rp40
ag10
(g14
S'xQSHU\rV@'
p41
tp42
Rp43
ag10
(g14
S'tV\x1f7/\x0fV@'
p44
tp45
Rp46
ag10
(g14
S'@!\xf2`2\x0eV@'
p47
tp48
Rp49
ag10
(g14
S'-\xaf\x9d\x05z\rV@'
p50
tp51
Rp52
ag10
(g14
S'/\x0c\xb9\x12Q\x0eV@'
p53
tp54
Rp55
ag10
(g14
S'4\x08i\x8e\x8b\rV@'
p56
tp57
Rp58
ag10
(g14
S'q\xab\xe3*\x82\x0fV@'
p59
tp60
Rp61
ag10
(g14
S'\xdb\xa6U\xb1A\x0eV@'
p62
tp63
Rp64
ag10
(g14
S'\x80\x84\xf0xQ\x0fV@'
p65
tp66
Rp67
ag10
(g14
S']H\x84\r\xcb\x0eV@'
p68
tp69
Rp70
ag10
(g14
S'\xa3/\x9f\xc7\xb6\x0eV@'
p71
tp72
Rp73
ag10
(g14
S'(\xc8\x99e\xc5\x10V@'
p74
tp75
Rp76
asS'target'
p77
(lp78
g10
(g14
S'2&w\xa7\x18\xf7&@'
p79
tp80
Rp81
ag10
(g14
S'^\xeb\xc39\xb9j(@'
p82
tp83
Rp84
ag10
(g14
S'M\xc0\x0c\xc6\x86\xa3$@'
p85
tp86
Rp87
ag10
(g14
S'|;:a~$$@'
p88
tp89
Rp90
ag10
(g14
S'yk<!\x11\xc3"@'
p91
tp92
Rp93
ag10
(g14
S'\x10)\xf1O]D#@'
p94
tp95
Rp96
ag10
(g14
S'6\x1a\x8aR\x00\xde%@'
p97
tp98
Rp99
ag10
(g14
S'\xe7"N\xcd|o$@'
p100
tp101
Rp102
ag10
(g14
S'`Rr;_?(@'
p103
tp104
Rp105
ag10
(g14
S'\x83\x9cY\xb2\xdc\xa2(@'
p106
tp107
Rp108
ag10
(g14
S'\x07\x183\xdd\x9e\xec(@'
p109
tp110
Rp111
ag10
(g14
S"\x07\xe8\xd8g\xc9\xb6'@"
p112
tp113
Rp114
ag10
(g14
S'\xe2\x92\xcbU9E$@'
p115
tp116
Rp117
ag10
(g14
S'V\xbc\xd7\xf7\rJ%@'
p118
tp119
Rp120
ag10
(g14
S'[u\xebU\x8dz(@'
p121
tp122
Rp123
ag10
(g14
S'px\xd6{n7&@'
p124
tp125
Rp126
ag10
(g14
S'\t\xb9;\xe5\xa0:)@'
p127
tp128
Rp129
ag10
(g14
S'~\xf9C\x08.\x96"@'
p130
tp131
Rp132
ag10
(g14
S"32\xd6pf'$@"
p133
tp134
Rp135
ag10
(g14
S"b\x16#\xcb\x16`'@"
p136
tp137
Rp138
asssss.