(dp0
S'../Data/sqlite_16.csv'
p1
(dp2
S'../Data/sqlite_96.csv'
p3
(dp4
F0.35
(dp5
S'mmre'
p6
(dp7
S'bellwether'
p8
(lp9
cnumpy.core.multiarray
scalar
p10
(cnumpy
dtype
p11
(S'f8'
p12
I0
I1
tp13
Rp14
(I3
S'<'
p15
NNNI-1
I-1
I0
tp16
bS'/wa\xaa\x8cLW@'
p17
tp18
Rp19
ag10
(g14
S'U&K3%GW@'
p20
tp21
Rp22
ag10
(g14
S'\x8c\\\x0e\xef6FW@'
p23
tp24
Rp25
ag10
(g14
S'\x0f-\xbb\xf5\x8fOW@'
p26
tp27
Rp28
ag10
(g14
S'qn\x13m\x7fKW@'
p29
tp30
Rp31
ag10
(g14
S'\x97\xdf\xbc\xbdoMW@'
p32
tp33
Rp34
ag10
(g14
S'\xb8\xa5\xad\x1e\x15PW@'
p35
tp36
Rp37
ag10
(g14
S'\xbd\xe2\xa8\x88\xf0IW@'
p38
tp39
Rp40
ag10
(g14
S'\xf6\x98\xcb>\x1bKW@'
p41
tp42
Rp43
ag10
(g14
S'Ki.$?IW@'
p44
tp45
Rp46
ag10
(g14
S'\xfbT\xf8Y\xc0KW@'
p47
tp48
Rp49
ag10
(g14
S'\x15\x12\r|{KW@'
p50
tp51
Rp52
ag10
(g14
S'=\xf1\xe2N0HW@'
p53
tp54
Rp55
ag10
(g14
S'\x98\xccCO^PW@'
p56
tp57
Rp58
ag10
(g14
S'L\xf1\xcd\xbe2MW@'
p59
tp60
Rp61
ag10
(g14
S'L\xca-\x12\xb8MW@'
p62
tp63
Rp64
ag10
(g14
S'\x11\xab\xb1\xc2\x9eJW@'
p65
tp66
Rp67
ag10
(g14
S'o\x9e{\xafRKW@'
p68
tp69
Rp70
ag10
(g14
S'\xd5>Nu\x82MW@'
p71
tp72
Rp73
ag10
(g14
S'4\xce\xb7\x90$NW@'
p74
tp75
Rp76
asS'target'
p77
(lp78
g10
(g14
S'v\x16\xeb\xdc\xdc8V@'
p79
tp80
Rp81
ag10
(g14
S'`\x10\n\xaeaK]@'
p82
tp83
Rp84
ag10
(g14
S'\x91V,\x15W-Y@'
p85
tp86
Rp87
ag10
(g14
S'`\xa3}\xd8\\\xa5P@'
p88
tp89
Rp90
ag10
(g14
S'\xea\x16\xf2`f\xbbV@'
p91
tp92
Rp93
ag10
(g14
S'X2\xe39\x95FL@'
p94
tp95
Rp96
ag10
(g14
S'\xdd\xf0\x0e\xd6\xe5\xdfT@'
p97
tp98
Rp99
ag10
(g14
S'\x8ag5\r\xaf\xa7T@'
p100
tp101
Rp102
ag10
(g14
S'9S\xe7\xc3\x0b\x1eJ@'
p103
tp104
Rp105
ag10
(g14
S'\x193\x9eR\xdf\xdcS@'
p106
tp107
Rp108
ag10
(g14
S'e>\xc2\x8a/\xc1W@'
p109
tp110
Rp111
ag10
(g14
S'\x9617\xec\x88\xf8R@'
p112
tp113
Rp114
ag10
(g14
S'\x02AFM$\xec[@'
p115
tp116
Rp117
ag10
(g14
S'\xcf|\xefJJ\xb8P@'
p118
tp119
Rp120
ag10
(g14
S'\xac:\xb0\n\xb4\xc7M@'
p121
tp122
Rp123
ag10
(g14
S'\x80u\xe6P\x8fBT@'
p124
tp125
Rp126
ag10
(g14
S'\xaa\x85\xee\x02d\xbcT@'
p127
tp128
Rp129
ag10
(g14
S'\xb1\xa6\xd7\x8dZ\xd8S@'
p130
tp131
Rp132
ag10
(g14
S'\xd1~mh:BR@'
p133
tp134
Rp135
ag10
(g14
S'dqw0$\x8aT@'
p136
tp137
Rp138
asssss.