(dp0
S'../Data/sqlite_68.csv'
p1
(dp2
S'../Data/sqlite_85.csv'
p3
(dp4
F0.25
(dp5
S'abs_res'
p6
(dp7
S'bellwether'
p8
(lp9
cnumpy.core.multiarray
scalar
p10
(cnumpy
dtype
p11
(S'f8'
p12
I0
I1
tp13
Rp14
(I3
S'<'
p15
NNNI-1
I-1
I0
tp16
bS'\r\xaeG\xe1\x8bcTA'
p17
tp18
Rp19
ag10
(g14
S'o=\n\xefPbTA'
p20
tp21
Rp22
ag10
(g14
S'C\xa7\r\x04RjTA'
p23
tp24
Rp25
ag10
(g14
S'\x06:m` STA'
p26
tp27
Rp28
ag10
(g14
S'\xb1\xe4\x17c\x06\x02TA'
p29
tp30
Rp31
ag10
(g14
S'g\xc9/\xceN\x1bTA'
p32
tp33
Rp34
ag10
(g14
S'\x90_,\xb1y#TA'
p35
tp36
Rp37
ag10
(g14
S'\x8c%\xbf\xf8?YTA'
p38
tp39
Rp40
ag10
(g14
S'z\xebQ\x98CKTA'
p41
tp42
Rp43
ag10
(g14
S'\xc2\x92_\\& TA'
p44
tp45
Rp46
ag10
(g14
S'S\x8f\xc2\x05$\xa5TA'
p47
tp48
Rp49
ag10
(g14
S'\xe7z\x14\x0e^|TA'
p50
tp51
Rp52
ag10
(g14
S'`,\xf9\xf5\xa8jTA'
p53
tp54
Rp55
ag10
(g14
S'y\xda@?\xd73TA'
p56
tp57
Rp58
ag10
(g14
S'p=\n?\xb5\xffSA'
p59
tp60
Rp61
ag10
(g14
S'\xf4Q\xb8V1oTA'
p62
tp63
Rp64
ag10
(g14
S'i\x03\x9dN\xd3\x85TA'
p65
tp66
Rp67
ag10
(g14
S'\x87\xebQ\xf0b-TA'
p68
tp69
Rp70
ag10
(g14
S'\x88\x88\x88X\xfcpTA'
p71
tp72
Rp73
ag10
(g14
S'\xcc\xa3p\x95\xdcOTA'
p74
tp75
Rp76
asS'target'
p77
(lp78
g10
(g14
S'\xa7p=\xca\x13\x18;A'
p79
tp80
Rp81
ag10
(g14
S'\x8a\xebQx\xc7\xfc?A'
p82
tp83
Rp84
ag10
(g14
S'7\n\xd7\x03GnBA'
p85
tp86
Rp87
ag10
(g14
S'jff&\xaf$=A'
p88
tp89
Rp90
ag10
(g14
S'333\xb3\x9a[AA'
p91
tp92
Rp93
ag10
(g14
S'0\\\x8f\x02\x03\xda=A'
p94
tp95
Rp96
ag10
(g14
S'\x94\xc2\xf5\xe8\x9d;@A'
p97
tp98
Rp99
ag10
(g14
S'E\n\xd7\xe3\xcaX>A'
p100
tp101
Rp102
ag10
(g14
S'gfff-\xad@A'
p103
tp104
Rp105
ag10
(g14
S'\xc9\xf5(\\\xbd\xcd@A'
p106
tp107
Rp108
ag10
(g14
S'\xf4(\\\x8f\x05\x18>A'
p109
tp110
Rp111
ag10
(g14
S'z\x14\xae\xc7\xfb\x8d@A'
p112
tp113
Rp114
ag10
(g14
S'\x89\xebQ\x98\x16\xc2AA'
p115
tp116
Rp117
ag10
(g14
S'\x95\xc2\xf5(\xfdv@A'
p118
tp119
Rp120
ag10
(g14
S'\n\xd7\xa3\xb05\xe5>A'
p121
tp122
Rp123
ag10
(g14
S'G\xe1z\x14\x80V?A'
p124
tp125
Rp126
ag10
(g14
S'\xa0\x99\x99\xd9j\xda=A'
p127
tp128
Rp129
ag10
(g14
S'\xf0(\\\x8fW\xf9>A'
p130
tp131
Rp132
ag10
(g14
S'X\x8f\xc2\x95h\x94@A'
p133
tp134
Rp135
ag10
(g14
S'iffF\xb9\xe4@A'
p136
tp137
Rp138
asssss.