(dp0
S'../Data/sqlite_50.csv'
p1
(dp2
S'../Data/sqlite_59.csv'
p3
(dp4
F0.1
(dp5
S'mmre'
p6
(dp7
S'bellwether'
p8
(lp9
cnumpy.core.multiarray
scalar
p10
(cnumpy
dtype
p11
(S'f8'
p12
I0
I1
tp13
Rp14
(I3
S'<'
p15
NNNI-1
I-1
I0
tp16
bS'h"d\x06\xf9#T@'
p17
tp18
Rp19
ag10
(g14
S'l\xccS\xa8\xcf(T@'
p20
tp21
Rp22
ag10
(g14
S'+\x9a\xcc;v)T@'
p23
tp24
Rp25
ag10
(g14
S'\xccg.\xcb\xf0%T@'
p26
tp27
Rp28
ag10
(g14
S'\xc6\x08\x98}\xc1$T@'
p29
tp30
Rp31
ag10
(g14
S"\xaan\x0c\xb6$'T@"
p32
tp33
Rp34
ag10
(g14
S'r\x96\xf5\xab\xd7#T@'
p35
tp36
Rp37
ag10
(g14
S"\xe0`\xd7\xd6N'T@"
p38
tp39
Rp40
ag10
(g14
S"\xa0\xbbYb\x00'T@"
p41
tp42
Rp43
ag10
(g14
S'\xf0D\xdcy\xa7&T@'
p44
tp45
Rp46
ag10
(g14
S'\x085m\xe9^$T@'
p47
tp48
Rp49
ag10
(g14
S'`\x9c\xf6t\xc3(T@'
p50
tp51
Rp52
ag10
(g14
S'".\xd0\x15\x18\'T@'
p53
tp54
Rp55
ag10
(g14
S'f\xf6\xc5\xce*&T@'
p56
tp57
Rp58
ag10
(g14
S'\xbb\x8ee\xc21&T@'
p59
tp60
Rp61
ag10
(g14
S'X\xe3l\xd0\xd1&T@'
p62
tp63
Rp64
ag10
(g14
S'|\t,\xdd\xb5(T@'
p65
tp66
Rp67
ag10
(g14
S'\r\xe8\n9d%T@'
p68
tp69
Rp70
ag10
(g14
S"J\x13\xb5\xac\xa6'T@"
p71
tp72
Rp73
ag10
(g14
S'\x01x\xe7Z\x92*T@'
p74
tp75
Rp76
asS'target'
p77
(lp78
g10
(g14
S"\xf3A\x1f\x17~w'@"
p79
tp80
Rp81
ag10
(g14
S'\x8eL\x19\x08\x08\xbe%@'
p82
tp83
Rp84
ag10
(g14
S"'\xde\xbcuP\xc5$@"
p85
tp86
Rp87
ag10
(g14
S'\xdf\x08\x90I\x910(@'
p88
tp89
Rp90
ag10
(g14
S'\\.\xef\xeaN\xa8$@'
p91
tp92
Rp93
ag10
(g14
S'\x1fr\xb4=r\\$@'
p94
tp95
Rp96
ag10
(g14
S'MTb\xfdGJ%@'
p97
tp98
Rp99
ag10
(g14
S'5\x87\xa4\xed\xe2-$@'
p100
tp101
Rp102
ag10
(g14
S'\x03\xd3,\x0cC\xe0%@'
p103
tp104
Rp105
ag10
(g14
S'\x80\xcf\\\x011\xc6)@'
p106
tp107
Rp108
ag10
(g14
S'\xdb\xc4\x8a\xb0\xebX&@'
p109
tp110
Rp111
ag10
(g14
S'\xc7\x90+\xb5\x9e\x1f$@'
p112
tp113
Rp114
ag10
(g14
S"9Aa\xefDi'@"
p115
tp116
Rp117
ag10
(g14
S'\x8bmj\xfc\xa5\xa6$@'
p118
tp119
Rp120
ag10
(g14
S'|\xd3\xca\xc3\x97\xc8$@'
p121
tp122
Rp123
ag10
(g14
S'\xbeL\rdj\x0c(@'
p124
tp125
Rp126
ag10
(g14
S'Hh\xbcZ\xccM$@'
p127
tp128
Rp129
ag10
(g14
S'\xa9/\xd3\xe9\x96\xd9(@'
p130
tp131
Rp132
ag10
(g14
S"z\xe8\xc3\x00\xa5\xac'@"
p133
tp134
Rp135
ag10
(g14
S'\rI(\xd6\x11+%@'
p136
tp137
Rp138
asssss.