(dp0
S'../Data/sqlite_38.csv'
p1
(dp2
S'../Data/sqlite_96.csv'
p3
(dp4
F0.15
(dp5
S'mmre'
p6
(dp7
S'bellwether'
p8
(lp9
cnumpy.core.multiarray
scalar
p10
(cnumpy
dtype
p11
(S'f8'
p12
I0
I1
tp13
Rp14
(I3
S'<'
p15
NNNI-1
I-1
I0
tp16
bS'\x1a\x01\x08\x8c>Xg@'
p17
tp18
Rp19
ag10
(g14
S"(w'6\xb0og@"
p20
tp21
Rp22
ag10
(g14
S'p)Zi-yg@'
p23
tp24
Rp25
ag10
(g14
S'\x11v\xee\x1ftRg@'
p26
tp27
Rp28
ag10
(g14
S'\x00\x95\x02\x9a-\x82g@'
p29
tp30
Rp31
ag10
(g14
S'\xe1Z\x0bH\x98Ng@'
p32
tp33
Rp34
ag10
(g14
S'\x8f\x9cb:\x1ang@'
p35
tp36
Rp37
ag10
(g14
S'z\xf6K\x03\x00lg@'
p38
tp39
Rp40
ag10
(g14
S'\xeb|\xa5\xcfrGg@'
p41
tp42
Rp43
ag10
(g14
S'm\xe1j\xe7X}g@'
p44
tp45
Rp46
ag10
(g14
S'\x942\xe0\xce\xaf[g@'
p47
tp48
Rp49
ag10
(g14
S'\xf4w\xd9\xbc7=g@'
p50
tp51
Rp52
ag10
(g14
S'\xa7\x03\xec\x97\x97gg@'
p53
tp54
Rp55
ag10
(g14
S"r\xe3o\x95'Jg@"
p56
tp57
Rp58
ag10
(g14
S'\x80\xaej\x10\x15Mg@'
p59
tp60
Rp61
ag10
(g14
S'/#\xdd\x89\x17\x87g@'
p62
tp63
Rp64
ag10
(g14
S'B\xce\xdcAKeg@'
p65
tp66
Rp67
ag10
(g14
S'vHn\xc1\xd1[g@'
p68
tp69
Rp70
ag10
(g14
S'\xe7B\x88=\xc1\x91g@'
p71
tp72
Rp73
ag10
(g14
S'cT\xa0\xcc\xb2{g@'
p74
tp75
Rp76
asS'target'
p77
(lp78
g10
(g14
S'\xbe\xc2\x8e\xeai\xc5I@'
p79
tp80
Rp81
ag10
(g14
S'4\x96o@ghT@'
p82
tp83
Rp84
ag10
(g14
S'\xa4v[\xbcLxE@'
p85
tp86
Rp87
ag10
(g14
S'\xd1Q\xb4_iGJ@'
p88
tp89
Rp90
ag10
(g14
S'\xf75\xb2D\x16\xebR@'
p91
tp92
Rp93
ag10
(g14
S'\x82\x99^w\xdc5`@'
p94
tp95
Rp96
ag10
(g14
S'\x1ef\xc6Du\xaaT@'
p97
tp98
Rp99
ag10
(g14
S's\xd3.\x93<\xcbK@'
p100
tp101
Rp102
ag10
(g14
S'\xb2nho]\xffO@'
p103
tp104
Rp105
ag10
(g14
S'kfs\xf9X\xaf[@'
p106
tp107
Rp108
ag10
(g14
S')\tP9\x1e\xd3Q@'
p109
tp110
Rp111
ag10
(g14
S'IQYGP\x93N@'
p112
tp113
Rp114
ag10
(g14
S'0\xec\xc5\xb5\x13NN@'
p115
tp116
Rp117
ag10
(g14
S'\x80\xc6\x04\xf8\x99jS@'
p118
tp119
Rp120
ag10
(g14
S'l\x11{}V\xeaM@'
p121
tp122
Rp123
ag10
(g14
S'\x94j\x83G\xb15X@'
p124
tp125
Rp126
ag10
(g14
S'\xcf\xef\x15\x9c\x9f\xb7]@'
p127
tp128
Rp129
ag10
(g14
S'\xfeT\xdd\xc0\x1e\xa1L@'
p130
tp131
Rp132
ag10
(g14
S'P~\xa3[\x90\x14W@'
p133
tp134
Rp135
ag10
(g14
S'o}Fj\x14\xcaT@'
p136
tp137
Rp138
asssss.