(dp0
S'../Data/sqlite_30.csv'
p1
(dp2
S'../Data/sqlite_97.csv'
p3
(dp4
F0.25
(dp5
S'mmre'
p6
(dp7
S'bellwether'
p8
(lp9
cnumpy.core.multiarray
scalar
p10
(cnumpy
dtype
p11
(S'f8'
p12
I0
I1
tp13
Rp14
(I3
S'<'
p15
NNNI-1
I-1
I0
tp16
bS'a\x93\xb1~\xdfFX@'
p17
tp18
Rp19
ag10
(g14
S'\x96w\x9ct\xadGX@'
p20
tp21
Rp22
ag10
(g14
S'\xe67\xfeY\x07FX@'
p23
tp24
Rp25
ag10
(g14
S'\xfc_\\\x9d\x81CX@'
p26
tp27
Rp28
ag10
(g14
S'\x07\xf2\x85\xb4vGX@'
p29
tp30
Rp31
ag10
(g14
S'\x87E\xbab\rHX@'
p32
tp33
Rp34
ag10
(g14
S'\t{\x9b\xebjHX@'
p35
tp36
Rp37
ag10
(g14
S'\xf7\x90+\xcb\xfcFX@'
p38
tp39
Rp40
ag10
(g14
S'\x9e|IX\x96FX@'
p41
tp42
Rp43
ag10
(g14
S'\xa8?\x06d\x1dFX@'
p44
tp45
Rp46
ag10
(g14
S'\xcaf`I\xe2EX@'
p47
tp48
Rp49
ag10
(g14
S'\x83\x86\xb5Z\x90FX@'
p50
tp51
Rp52
ag10
(g14
S'x\xcd8Y\x17GX@'
p53
tp54
Rp55
ag10
(g14
S'\xba\x0e6\x85\xa0FX@'
p56
tp57
Rp58
ag10
(g14
S'\x1c-\xb2\xe3vFX@'
p59
tp60
Rp61
ag10
(g14
S'bM\x96\x90iFX@'
p62
tp63
Rp64
ag10
(g14
S'\xa0\xfe\xd8\x85\x19HX@'
p65
tp66
Rp67
ag10
(g14
S'\xcb;\xb7\x99qHX@'
p68
tp69
Rp70
ag10
(g14
S'B\x07kWyFX@'
p71
tp72
Rp73
ag10
(g14
S'q\xc0.\xcc\xa1HX@'
p74
tp75
Rp76
asS'target'
p77
(lp78
g10
(g14
S'c\xbe\xb4\x1bq\xd4W@'
p79
tp80
Rp81
ag10
(g14
S'{\xb0\x90o\x1c\x0cY@'
p82
tp83
Rp84
ag10
(g14
S'\x06&\x8c\xaa\xbb\x04V@'
p85
tp86
Rp87
ag10
(g14
S'\xcfn\xb7\xf1\x03\xddY@'
p88
tp89
Rp90
ag10
(g14
S'\xc6\x91]\xb5e|V@'
p91
tp92
Rp93
ag10
(g14
S'\xed7\x06\x94\xb7CN@'
p94
tp95
Rp96
ag10
(g14
S"\xe6\xc4'\x01\xbe\x0eO@"
p97
tp98
Rp99
ag10
(g14
S'tliQ\xc0KT@'
p100
tp101
Rp102
ag10
(g14
S'\x8f^%&\x10\x93X@'
p103
tp104
Rp105
ag10
(g14
S'\xde\x81\x83T\xe1wX@'
p106
tp107
Rp108
ag10
(g14
S'\xe2\x1de\xd0\xf6\x80^@'
p109
tp110
Rp111
ag10
(g14
S's\x01\xae\xdb\xba>W@'
p112
tp113
Rp114
ag10
(g14
S'\xb6\x9cU\x91\xed\x88[@'
p115
tp116
Rp117
ag10
(g14
S'\xad3\x11\xdd\x97\xbb\\@'
p118
tp119
Rp120
ag10
(g14
S'\x130\xfb:~f[@'
p121
tp122
Rp123
ag10
(g14
S'\n.C.\xacbR@'
p124
tp125
Rp126
ag10
(g14
S'\\H\r\x81\xe0EP@'
p127
tp128
Rp129
ag10
(g14
S'\xc5\xbf\x0c~\xdb\\Q@'
p130
tp131
Rp132
ag10
(g14
S'-\xda\x13E\n\x11R@'
p133
tp134
Rp135
ag10
(g14
S'G\x9a\x00\x0e\x86\xc0I@'
p136
tp137
Rp138
asssss.