(dp0
S'../Data/sqlite_44.csv'
p1
(dp2
S'../Data/sqlite_62.csv'
p3
(dp4
F0.2
(dp5
S'mmre'
p6
(dp7
S'bellwether'
p8
(lp9
cnumpy.core.multiarray
scalar
p10
(cnumpy
dtype
p11
(S'f8'
p12
I0
I1
tp13
Rp14
(I3
S'<'
p15
NNNI-1
I-1
I0
tp16
bS'\x04\xe2\xe1\x18\xc65V@'
p17
tp18
Rp19
ag10
(g14
S'\xb0VC0\x0c8V@'
p20
tp21
Rp22
ag10
(g14
S'\xdc]r\n\xc35V@'
p23
tp24
Rp25
ag10
(g14
S'8\xcf\xd6\xf1m6V@'
p26
tp27
Rp28
ag10
(g14
S'H\xff\xab\x90\xcc5V@'
p29
tp30
Rp31
ag10
(g14
S'\xee=Oi\x196V@'
p32
tp33
Rp34
ag10
(g14
S'\xbfL\xf8Q\x1f6V@'
p35
tp36
Rp37
ag10
(g14
S'\xa8J\xa1\xe6\xcb5V@'
p38
tp39
Rp40
ag10
(g14
S'\x14\xd2\x93A\xae5V@'
p41
tp42
Rp43
ag10
(g14
S'>\xca\x80\x8b\xea4V@'
p44
tp45
Rp46
ag10
(g14
S'zY\xae\xb0\xb35V@'
p47
tp48
Rp49
ag10
(g14
S'\x1f\xa1\xb8v#7V@'
p50
tp51
Rp52
ag10
(g14
S'L\xf1\xdb\xd1\xee6V@'
p53
tp54
Rp55
ag10
(g14
S'\x0b\x87^i%5V@'
p56
tp57
Rp58
ag10
(g14
S'\x1ani\xf8\xbf6V@'
p59
tp60
Rp61
ag10
(g14
S'\x12\xac\x13\x1f\xb76V@'
p62
tp63
Rp64
ag10
(g14
S'\xd8\xfb\x8c5e7V@'
p65
tp66
Rp67
ag10
(g14
S'\xe5\xef\x16\x94~5V@'
p68
tp69
Rp70
ag10
(g14
S':\xb5I\x8106V@'
p71
tp72
Rp73
ag10
(g14
S'\x0cN\x8e\xe2\xd76V@'
p74
tp75
Rp76
asS'target'
p77
(lp78
g10
(g14
S'\x0f$\xf1Y\x03 !@'
p79
tp80
Rp81
ag10
(g14
S'\x91\x1b\xd6w\x97`"@'
p82
tp83
Rp84
ag10
(g14
S'\xbatzl\xb6\x07!@'
p85
tp86
Rp87
ag10
(g14
S'f\x06\x82P8#!@'
p88
tp89
Rp90
ag10
(g14
S'(n\xc1\x7fJ\xe0 @'
p91
tp92
Rp93
ag10
(g14
S'x\x06^V\x1f\x13 @'
p94
tp95
Rp96
ag10
(g14
S'5\xde\x08\x1dqV @'
p97
tp98
Rp99
ag10
(g14
S'PU)\n\xfa\x15"@'
p100
tp101
Rp102
ag10
(g14
S'\x1d\xae\x84x\xe9s @'
p103
tp104
Rp105
ag10
(g14
S'+\x92.\x97\xccH$@'
p106
tp107
Rp108
ag10
(g14
S'f\xa7\xbd$\xd9 !@'
p109
tp110
Rp111
ag10
(g14
S'E\x03\x94\x81I\x00"@'
p112
tp113
Rp114
ag10
(g14
S'\x02m\xb6\x9d\xa9m!@'
p115
tp116
Rp117
ag10
(g14
S'\xaa6\xff\xabx,"@'
p118
tp119
Rp120
ag10
(g14
S'\xb9<\x92\x06\x15E"@'
p121
tp122
Rp123
ag10
(g14
S'\xe7\xaf<\xb9a\xbe @'
p124
tp125
Rp126
ag10
(g14
S'\xf4\\K\xcc/G"@'
p127
tp128
Rp129
ag10
(g14
S'\xa6\x8a\xdfe1\xd4 @'
p130
tp131
Rp132
ag10
(g14
S'@\xfb-\xfe\x87\xb0#@'
p133
tp134
Rp135
ag10
(g14
S'\xfc,\xc986\xb2 @'
p136
tp137
Rp138
asssss.