(dp0
S'../Data/sqlite_15.csv'
p1
(dp2
S'../Data/sqlite_3.csv'
p3
(dp4
F0.2
(dp5
S'abs_res'
p6
(dp7
S'bellwether'
p8
(lp9
cnumpy.core.multiarray
scalar
p10
(cnumpy
dtype
p11
(S'f8'
p12
I0
I1
tp13
Rp14
(I3
S'<'
p15
NNNI-1
I-1
I0
tp16
bS'Vs!\t\xa2X>A'
p17
tp18
Rp19
ag10
(g14
S'p\xda@\x87\x07Y>A'
p20
tp21
Rp22
ag10
(g14
S'$\xce>\xbc\x03X>A'
p23
tp24
Rp25
ag10
(g14
S'\xfcU\x0e-\x01Y>A'
p26
tp27
Rp28
ag10
(g14
S'\xca>|\xe6tZ>A'
p29
tp30
Rp31
ag10
(g14
S']\x10X9\xfeY>A'
p32
tp33
Rp34
ag10
(g14
S'M\xffF(+Y>A'
p35
tp36
Rp37
ag10
(g14
S'\xbdv\xbe_;Y>A'
p38
tp39
Rp40
ag10
(g14
S'!\x04V\x0e\xf2Y>A'
p41
tp42
Rp43
ag10
(g14
S'\x04\x02+GoY>A'
p44
tp45
Rp46
ag10
(g14
S'\xd3\x15 \x17\xb6Y>A'
p47
tp48
Rp49
ag10
(g14
S'\xc5x\xe9&`X>A'
p50
tp51
Rp52
ag10
(g14
S'u\xf8\x0c;\x0cZ>A'
p53
tp54
Rp55
ag10
(g14
S'Pd;\x9f\xdaY>A'
p56
tp57
Rp58
ag10
(g14
S'\x92n\x12\x83\xf8Y>A'
p59
tp60
Rp61
ag10
(g14
S'\xd4\xa3p}\x10[>A'
p62
tp63
Rp64
ag10
(g14
S'\x13\xca\xe8m\xe9Y>A'
p65
tp66
Rp67
ag10
(g14
S'\x9dE\xb6s\xd1X>A'
p68
tp69
Rp70
ag10
(g14
S'k\xe9&\x91\xacY>A'
p71
tp72
Rp73
ag10
(g14
S'\t\xaeG\xa1>X>A'
p74
tp75
Rp76
asS'target'
p77
(lp78
g10
(g14
S'\r/\xdd$\x06gl@'
p79
tp80
Rp81
ag10
(g14
S'\xe8\xd2Mb\x10\x80j@'
p82
tp83
Rp84
ag10
(g14
S'\xff\xff\xff\xff\xff\xb7o@'
p85
tp86
Rp87
ag10
(g14
S'\xba\xf5(\\\x8fNm@'
p88
tp89
Rp90
ag10
(g14
S'\xf8&1\x08\xac\xccl@'
p91
tp92
Rp93
ag10
(g14
S'n\x93\x18\x04V~n@'
p94
tp95
Rp96
ag10
(g14
S'\x94\xc4 \xb0r\x94n@'
p97
tp98
Rp99
ag10
(g14
S'(\xdd$\x06\x81!n@'
p100
tp101
Rp102
ag10
(g14
S'\xb3\x9f\x1a/\xdd\xe8l@'
p103
tp104
Rp105
ag10
(g14
S'\\\x8f\xc2\xf5(\x88l@'
p106
tp107
Rp108
ag10
(g14
S'\xf1\xd2Mb\x10\xcck@'
p109
tp110
Rp111
ag10
(g14
S'4\x89A`\xe5\x84k@'
p112
tp113
Rp114
ag10
(g14
S'N\x0c\x02+\x87\xb6m@'
p115
tp116
Rp117
ag10
(g14
S'\xcf\xa3p=\nGo@'
p118
tp119
Rp120
ag10
(g14
S'1\xb4\xc8v\xbe\xc7k@'
p121
tp122
Rp123
ag10
(g14
S'L\xe3\xa5\x9b\xc4\xf4k@'
p124
tp125
Rp126
ag10
(g14
S'\xf2\xd4x\xe9&\xb9n@'
p127
tp128
Rp129
ag10
(g14
S'\x9c\x9b\xc4 \xb0\xcak@'
p130
tp131
Rp132
ag10
(g14
S'\x19\xdb\xf9~j\x8cm@'
p133
tp134
Rp135
ag10
(g14
S'\xcc\xce\xf7S\xe3\x81k@'
p136
tp137
Rp138
asssss.