(dp0
S'../Data/sqlite_95.csv'
p1
(dp2
S'../Data/sqlite_35.csv'
p3
(dp4
F0.1
(dp5
S'abs_res'
p6
(dp7
S'bellwether'
p8
(lp9
cnumpy.core.multiarray
scalar
p10
(cnumpy
dtype
p11
(S'f8'
p12
I0
I1
tp13
Rp14
(I3
S'<'
p15
NNNI-1
I-1
I0
tp16
bS'h;\xdfOH\x97:A'
p17
tp18
Rp19
ag10
(g14
S'zj\xbc\xf4\xd5r:A'
p20
tp21
Rp22
ag10
(g14
S'th\x91\xed|m:A'
p23
tp24
Rp25
ag10
(g14
S'ifffJk:A'
p26
tp27
Rp28
ag10
(g14
S'\xeeD\xfd\xfbk{:A'
p29
tp30
Rp31
ag10
(g14
S'\x07V\x0e-\xb7g:A'
p32
tp33
Rp34
ag10
(g14
S'%\x06\x815\x9dT:A'
p35
tp36
Rp37
ag10
(g14
S'\x86?5^\xafT:A'
p38
tp39
Rp40
ag10
(g14
S')1\x08\xecH\x97:A'
p41
tp42
Rp43
ag10
(g14
S'\xf6S\xe3E9W:A'
p44
tp45
Rp46
ag10
(g14
S'\xce\xa1E6\x81R:A'
p47
tp48
Rp49
ag10
(g14
S'\x93\x97n\x92\x96d:A'
p50
tp51
Rp52
ag10
(g14
S']\x10X9\xc7\x9e:A'
p53
tp54
Rp55
ag10
(g14
S'\xf4D\xfd[l\x81:A'
p56
tp57
Rp58
ag10
(g14
S'\x02+\x876xd:A'
p59
tp60
Rp61
ag10
(g14
S'\x12\x83\xc0j\xcb\x88:A'
p62
tp63
Rp64
ag10
(g14
S'r\x93\x18\xc4\x00\xad:A'
p65
tp66
Rp67
ag10
(g14
S'\xbdt\x93\xf8\xe5}:A'
p68
tp69
Rp70
ag10
(g14
S'\x99n\x12C\xd7w:A'
p71
tp72
Rp73
ag10
(g14
S'\xfd\xd4x\xe9\x15m:A'
p74
tp75
Rp76
asS'target'
p77
(lp78
g10
(g14
S'\xb8\x9d\xef\xa7\xc6\x13b@'
p79
tp80
Rp81
ag10
(g14
S'o=\n\xd7\xa3\x18c@'
p82
tp83
Rp84
ag10
(g14
S'O\xb8\x1e\x85\xeb\xadb@'
p85
tp86
Rp87
ag10
(g14
S'\x9d\xef\xa7\xc6K\xe3`@'
p88
tp89
Rp90
ag10
(g14
S'$1\x08\xac\x1c\xe6a@'
p91
tp92
Rp93
ag10
(g14
S'r\xbe\x9f\x1a/9c@'
p94
tp95
Rp96
ag10
(g14
S'}?5^\xbaya@'
p97
tp98
Rp99
ag10
(g14
S'\x08\xac\x1cZdKa@'
p100
tp101
Rp102
ag10
(g14
S'3^\xbaI\x0cRb@'
p103
tp104
Rp105
ag10
(g14
S'\x87\x16\xd9\xce\xf7\xcbb@'
p106
tp107
Rp108
ag10
(g14
S'lffff\xc2`@'
p109
tp110
Rp111
ag10
(g14
S'\xd9\xa3p=\n\xdba@'
p112
tp113
Rp114
ag10
(g14
S'\xcd"\xdb\xf9~fb@'
p115
tp116
Rp117
ag10
(g14
S'u\xbe\x9f\x1a/\xbdb@'
p118
tp119
Rp120
ag10
(g14
S' \x06\x81\x95C\xd3b@'
p121
tp122
Rp123
ag10
(g14
S'\xe4O\x8d\x97njb@'
p124
tp125
Rp126
ag10
(g14
S'\x13X9\xb4\xc8fb@'
p127
tp128
Rp129
ag10
(g14
S'/\x08\xac\x1cZXc@'
p130
tp131
Rp132
ag10
(g14
S'\x90\xed|?5na@'
p133
tp134
Rp135
ag10
(g14
S'i\xbct\x93\x18\xc4b@'
p136
tp137
Rp138
asssss.