(dp0
S'../Data/sqlite_93.csv'
p1
(dp2
S'../Data/sqlite_76.csv'
p3
(dp4
F0.25
(dp5
S'mmre'
p6
(dp7
S'bellwether'
p8
(lp9
cnumpy.core.multiarray
scalar
p10
(cnumpy
dtype
p11
(S'f8'
p12
I0
I1
tp13
Rp14
(I3
S'<'
p15
NNNI-1
I-1
I0
tp16
bS'\x19(c\xaf\xd4ZW@'
p17
tp18
Rp19
ag10
(g14
S'\xa2\x08\xc6D}]W@'
p20
tp21
Rp22
ag10
(g14
S'l\xae\x83J\x0bTW@'
p23
tp24
Rp25
ag10
(g14
S'oQ\xe0]\xf9NW@'
p26
tp27
Rp28
ag10
(g14
S'\xf1\xad\xaa\x1e\x94GW@'
p29
tp30
Rp31
ag10
(g14
S'4\xe5u\xe6\xe3HW@'
p32
tp33
Rp34
ag10
(g14
S'`y\xa5M9HW@'
p35
tp36
Rp37
ag10
(g14
S'(\x1f\x9dl\x92NW@'
p38
tp39
Rp40
ag10
(g14
S'N\x1f\x18\x1b\xe4TW@'
p41
tp42
Rp43
ag10
(g14
S'1Q\xa8\x13\xc9GW@'
p44
tp45
Rp46
ag10
(g14
S'\x9cvT4CVW@'
p47
tp48
Rp49
ag10
(g14
S'w\xb9\x7f\xb0\xc2FW@'
p50
tp51
Rp52
ag10
(g14
S'\\\xc6\xc5\xc8UXW@'
p53
tp54
Rp55
ag10
(g14
S'cZ\xfe\xb7\xe7GW@'
p56
tp57
Rp58
ag10
(g14
S'J\x1e\x0b>\xf8FW@'
p59
tp60
Rp61
ag10
(g14
S'\xfbPu(-VW@'
p62
tp63
Rp64
ag10
(g14
S'\xd9\xa8\xd4\xc84HW@'
p65
tp66
Rp67
ag10
(g14
S'\n\x06`% TW@'
p68
tp69
Rp70
ag10
(g14
S'D\xc9\xb5\xaf\xa8SW@'
p71
tp72
Rp73
ag10
(g14
S'\x04K\x90X\x95hW@'
p74
tp75
Rp76
asS'target'
p77
(lp78
g10
(g14
S'{S\xc1k\t\x8d0@'
p79
tp80
Rp81
ag10
(g14
S'et\xd5\x9bsg0@'
p82
tp83
Rp84
ag10
(g14
S'\x0e\xffR\xccf#2@'
p85
tp86
Rp87
ag10
(g14
S'q\x9a)V\xa8\xd61@'
p88
tp89
Rp90
ag10
(g14
S'`\xcf\x0e=\xe0\x912@'
p91
tp92
Rp93
ag10
(g14
S'\xd7\xdd\xa9M\xd2\x1d1@'
p94
tp95
Rp96
ag10
(g14
S'\xd9\xf5\xcc\xb1\xcfV1@'
p97
tp98
Rp99
ag10
(g14
S'<\x14\xa68\xd8\xc30@'
p100
tp101
Rp102
ag10
(g14
S'\nV\xe6N\xb0\xa10@'
p103
tp104
Rp105
ag10
(g14
S'n\xf2\x07N1F1@'
p106
tp107
Rp108
ag10
(g14
S'\x04~\n>\x04\x950@'
p109
tp110
Rp111
ag10
(g14
S'\xeb:~\x1a\x92a1@'
p112
tp113
Rp114
ag10
(g14
S'\xeaF\xc8\xfb\xa0\xe91@'
p115
tp116
Rp117
ag10
(g14
S'\x98`\n\x83\xa9\xcd0@'
p118
tp119
Rp120
ag10
(g14
S'\x13&C\xdfp\x971@'
p121
tp122
Rp123
ag10
(g14
S'\xf37\x18):}1@'
p124
tp125
Rp126
ag10
(g14
S'\x84\xa6\xd7\x99)\x1c1@'
p127
tp128
Rp129
ag10
(g14
S'{\xf1g\xe5\x06\xf01@'
p130
tp131
Rp132
ag10
(g14
S'\xd8\xe1e\xd2E21@'
p133
tp134
Rp135
ag10
(g14
S'\xe8\x1f\x11\xd1\x9f\x182@'
p136
tp137
Rp138
asssss.