(dp0
S'../Data/sqlite_43.csv'
p1
(dp2
S'../Data/sqlite_94.csv'
p3
(dp4
F0.3
(dp5
S'mmre'
p6
(dp7
S'bellwether'
p8
(lp9
cnumpy.core.multiarray
scalar
p10
(cnumpy
dtype
p11
(S'f8'
p12
I0
I1
tp13
Rp14
(I3
S'<'
p15
NNNI-1
I-1
I0
tp16
bS'\x1a\x1b\xdf\x86UPw@'
p17
tp18
Rp19
ag10
(g14
S'F\x1fc 1Jw@'
p20
tp21
Rp22
ag10
(g14
S'\xa5\xc8~\x9bi\xf1v@'
p23
tp24
Rp25
ag10
(g14
S'\xa0\x10\\U\x9brw@'
p26
tp27
Rp28
ag10
(g14
S'\x17\xb9\xde\xf26=w@'
p29
tp30
Rp31
ag10
(g14
S'\xfc~\xca/\xa1+w@'
p32
tp33
Rp34
ag10
(g14
S'\xe5"*s\x1f7w@'
p35
tp36
Rp37
ag10
(g14
S'\x9c+E\x15\x8a\xedv@'
p38
tp39
Rp40
ag10
(g14
S"\xdd\xbc\xc7FM'w@"
p41
tp42
Rp43
ag10
(g14
S'\\\xebb*<1w@'
p44
tp45
Rp46
ag10
(g14
S'\xb7\xc9bc\xda\x06w@'
p47
tp48
Rp49
ag10
(g14
S'\xb0\x00\xeb\xbc\x07\xfdv@'
p50
tp51
Rp52
ag10
(g14
S'\xf7?\x9e[G\x0ew@'
p53
tp54
Rp55
ag10
(g14
S'"\xac\xcar\x1c0w@'
p56
tp57
Rp58
ag10
(g14
S'>\xc6\xa1\xf9\xff+w@'
p59
tp60
Rp61
ag10
(g14
S'\x91\xb6_\xc5\xfdWw@'
p62
tp63
Rp64
ag10
(g14
S'TH-\n\xf1\x1dw@'
p65
tp66
Rp67
ag10
(g14
S'\x12\x97\xefq\xd1Yw@'
p68
tp69
Rp70
ag10
(g14
S'\xf6&\xe1\x1cV\x00w@'
p71
tp72
Rp73
ag10
(g14
S'\x17\xf4\xce%\xb85w@'
p74
tp75
Rp76
asS'target'
p77
(lp78
g10
(g14
S'\x9b\x02&\xd8\xa7oL@'
p79
tp80
Rp81
ag10
(g14
S'\xa3]v\xe2\x94\xccO@'
p82
tp83
Rp84
ag10
(g14
S'dz\xd9\x930\xf2K@'
p85
tp86
Rp87
ag10
(g14
S'\xf0\xfd\xaa\xd8\xf3\xb4P@'
p88
tp89
Rp90
ag10
(g14
S'\xad*,(+oL@'
p91
tp92
Rp93
ag10
(g14
S'\xef\xff\xd6.:yS@'
p94
tp95
Rp96
ag10
(g14
S'r\xccKN;ZR@'
p97
tp98
Rp99
ag10
(g14
S'W\xa4:\x19\xa7\xb9P@'
p100
tp101
Rp102
ag10
(g14
S'X".\xc9\x19\x8dR@'
p103
tp104
Rp105
ag10
(g14
S'I\x12\x10\xcc<\x1dQ@'
p106
tp107
Rp108
ag10
(g14
S'\xe9{*\xfc\xadxQ@'
p109
tp110
Rp111
ag10
(g14
S'\xc0\\N\xbb\xc7\x05S@'
p112
tp113
Rp114
ag10
(g14
S'\x1c\xbc:\x14\xc4OV@'
p115
tp116
Rp117
ag10
(g14
S't$av[\xd1T@'
p118
tp119
Rp120
ag10
(g14
S'g\x15NOU\xc9Q@'
p121
tp122
Rp123
ag10
(g14
S'3\xf2\xd5g\xdd\xceY@'
p124
tp125
Rp126
ag10
(g14
S'w\x03\x99b\x91PL@'
p127
tp128
Rp129
ag10
(g14
S'\xe8\\\xfd(B\xd1P@'
p130
tp131
Rp132
ag10
(g14
S'\x8eQ,\xb5\xe4;Q@'
p133
tp134
Rp135
ag10
(g14
S'f\x98\xe0K:zQ@'
p136
tp137
Rp138
asssss.