(dp0
S'../Data/sqlite_79.csv'
p1
(dp2
S'../Data/sqlite_84.csv'
p3
(dp4
F0.4
(dp5
S'mmre'
p6
(dp7
S'bellwether'
p8
(lp9
cnumpy.core.multiarray
scalar
p10
(cnumpy
dtype
p11
(S'f8'
p12
I0
I1
tp13
Rp14
(I3
S'<'
p15
NNNI-1
I-1
I0
tp16
bS'\xa8.7\\G R@'
p17
tp18
Rp19
ag10
(g14
S'\xc5\x06Go\x96XR@'
p20
tp21
Rp22
ag10
(g14
S'R\xda\xba\x8f\xba.R@'
p23
tp24
Rp25
ag10
(g14
S'.\xc0\xf1\xe4\xff+R@'
p26
tp27
Rp28
ag10
(g14
S'\x11\xa0c\xd9\xf3.R@'
p29
tp30
Rp31
ag10
(g14
S'\x82+\xd7OI/R@'
p32
tp33
Rp34
ag10
(g14
S'\x9cZ=*\x8d"R@'
p35
tp36
Rp37
ag10
(g14
S'\xefd\x93\x19\x1c"R@'
p38
tp39
Rp40
ag10
(g14
S'nl%Q\x86>R@'
p41
tp42
Rp43
ag10
(g14
S'\x0c\xc0C\x86s2R@'
p44
tp45
Rp46
ag10
(g14
S'\xce\xffks\tHR@'
p47
tp48
Rp49
ag10
(g14
S'\xb1\xc9\x9d\xfdt5R@'
p50
tp51
Rp52
ag10
(g14
S'\xc5n\xf6\xd1\x12+R@'
p53
tp54
Rp55
ag10
(g14
S'A~\xdb2E-R@'
p56
tp57
Rp58
ag10
(g14
S'm\xfd\x1a\xcb#1R@'
p59
tp60
Rp61
ag10
(g14
S'X\xd2\x17\xa4\x9d3R@'
p62
tp63
Rp64
ag10
(g14
S'\xad\x86\xac\xff0KR@'
p65
tp66
Rp67
ag10
(g14
S'\x83\xc2\xb3*\xe11R@'
p68
tp69
Rp70
ag10
(g14
S'\xd3\xf7_2g4R@'
p71
tp72
Rp73
ag10
(g14
S'\xf5G\xc2\xae\xf7@R@'
p74
tp75
Rp76
asS'target'
p77
(lp78
g10
(g14
S'R#\xc8\xb4\xaa>T@'
p79
tp80
Rp81
ag10
(g14
S'j\xcd\x8df\xc9\x91P@'
p82
tp83
Rp84
ag10
(g14
S'\xab\xc4Y~A\xc8H@'
p85
tp86
Rp87
ag10
(g14
S'\xeaB\xcd\x05[TT@'
p88
tp89
Rp90
ag10
(g14
S'\x16?\x8f\x96I\xabK@'
p91
tp92
Rp93
ag10
(g14
S'/"\x8c9@\x88R@'
p94
tp95
Rp96
ag10
(g14
S'\x83\xc9\xeb\x12-DP@'
p97
tp98
Rp99
ag10
(g14
S'\xe2\xb5V\xdb\xb8\xe1M@'
p100
tp101
Rp102
ag10
(g14
S'u\x90Hh(\xf8N@'
p103
tp104
Rp105
ag10
(g14
S'>\x92`o\x17\x00O@'
p106
tp107
Rp108
ag10
(g14
S'<\x91%\x1c\x11\xbdR@'
p109
tp110
Rp111
ag10
(g14
S'\x8e\r\x84DE\x1dP@'
p112
tp113
Rp114
ag10
(g14
S'H\x86\xf1\xe9\x14\xbcS@'
p115
tp116
Rp117
ag10
(g14
S'\xb8O\x01^0\xe4U@'
p118
tp119
Rp120
ag10
(g14
S'\xe9\x89BI\x1ciM@'
p121
tp122
Rp123
ag10
(g14
S'E\xcb\xfc\xd0\x0b0H@'
p124
tp125
Rp126
ag10
(g14
S'\xc6<\xe0!T%L@'
p127
tp128
Rp129
ag10
(g14
S'\x88\xd4\xfc\x9dY\x17N@'
p130
tp131
Rp132
ag10
(g14
S',\x8a).[ZR@'
p133
tp134
Rp135
ag10
(g14
S'I\x83\x9f\x84\x9f\xcdN@'
p136
tp137
Rp138
asssss.