(dp0
S'../Data/sqlite_62.csv'
p1
(dp2
S'../Data/sqlite_59.csv'
p3
(dp4
F0.2
(dp5
S'mmre'
p6
(dp7
S'bellwether'
p8
(lp9
cnumpy.core.multiarray
scalar
p10
(cnumpy
dtype
p11
(S'f8'
p12
I0
I1
tp13
Rp14
(I3
S'<'
p15
NNNI-1
I-1
I0
tp16
bS'Za^;82@@'
p17
tp18
Rp19
ag10
(g14
S'Gm\x99\x84\x0b%@@'
p20
tp21
Rp22
ag10
(g14
S'\xe4\xaa\xe1\x7f\xde"@@'
p23
tp24
Rp25
ag10
(g14
S'\xccC\xf8\x98/\x1b@@'
p26
tp27
Rp28
ag10
(g14
S'\x9280GpH@@'
p29
tp30
Rp31
ag10
(g14
S' |\xd5\x90>S@@'
p32
tp33
Rp34
ag10
(g14
S'\x05m\x95Ql#@@'
p35
tp36
Rp37
ag10
(g14
S'z\xce\xc1\x9a\xa9;@@'
p38
tp39
Rp40
ag10
(g14
S'\xcc\x88Wb\x11%@@'
p41
tp42
Rp43
ag10
(g14
S'bVMB;\x84@@'
p44
tp45
Rp46
ag10
(g14
S'Z\xee\xd0$s[@@'
p47
tp48
Rp49
ag10
(g14
S"\xfb'\x83h\x9eV@@"
p50
tp51
Rp52
ag10
(g14
S'`\x9fy\x8f%\x1c@@'
p53
tp54
Rp55
ag10
(g14
S'F \x93\xd6[g@@'
p56
tp57
Rp58
ag10
(g14
S'\x0c8\xab\xc0dl@@'
p59
tp60
Rp61
ag10
(g14
S'\xda\xf6\xf2\x9d!8@@'
p62
tp63
Rp64
ag10
(g14
S'\x92B\xfe\xf3\xdbP@@'
p65
tp66
Rp67
ag10
(g14
S'\xd3\x93\xe6?\xe1N@@'
p68
tp69
Rp70
ag10
(g14
S'\xd4.g@?@@@'
p71
tp72
Rp73
ag10
(g14
S'\xd0I\x05\xc1\x13\x04@@'
p74
tp75
Rp76
asS'target'
p77
(lp78
g10
(g14
S'\x0e\x96\x0e\xd5A6%@'
p79
tp80
Rp81
ag10
(g14
S'\x98\xe7\x9b\t\xb5\xa6%@'
p82
tp83
Rp84
ag10
(g14
S"\xc6\xbdjZ\xc3u'@"
p85
tp86
Rp87
ag10
(g14
S"\xf4x\xba\x92\n'&@"
p88
tp89
Rp90
ag10
(g14
S'\xf4\x11?{\x8cl&@'
p91
tp92
Rp93
ag10
(g14
S'\x96/\xa0\x90\xc0K&@'
p94
tp95
Rp96
ag10
(g14
S'`\xb9\xe6\xfd:\x0b%@'
p97
tp98
Rp99
ag10
(g14
S'\x14\x02[\x1d\x8ff%@'
p100
tp101
Rp102
ag10
(g14
S'/\xd1\x93\x94}\x9e&@'
p103
tp104
Rp105
ag10
(g14
S'dv\xef\xcb\xe7\x9b)@'
p106
tp107
Rp108
ag10
(g14
S'\xaa\xdd\x1aZ\x0e\x15)@'
p109
tp110
Rp111
ag10
(g14
S"\xbe\x12O'\x17\xef)@"
p112
tp113
Rp114
ag10
(g14
S'0\x868&\xe5M%@'
p115
tp116
Rp117
ag10
(g14
S'J\x85\xd7\xa6\xaa\x83)@'
p118
tp119
Rp120
ag10
(g14
S"?\xdbY\x14*\xfd'@"
p121
tp122
Rp123
ag10
(g14
S'\xf6\xde\x9dYk\xc8%@'
p124
tp125
Rp126
ag10
(g14
S"\xa5j\xc9\xcb\x85K'@"
p127
tp128
Rp129
ag10
(g14
S"\x0c\x00\xd0\xcf+\t'@"
p130
tp131
Rp132
ag10
(g14
S'd\xc8\x03\rtL&@'
p133
tp134
Rp135
ag10
(g14
S'n\x0eE\x02\xf4\xf5$@'
p136
tp137
Rp138
asssss.