(dp0
S'../Data/sqlite_90.csv'
p1
(dp2
S'../Data/sqlite_95.csv'
p3
(dp4
F0.15
(dp5
S'mmre'
p6
(dp7
S'bellwether'
p8
(lp9
cnumpy.core.multiarray
scalar
p10
(cnumpy
dtype
p11
(S'f8'
p12
I0
I1
tp13
Rp14
(I3
S'<'
p15
NNNI-1
I-1
I0
tp16
bS'\xeeP\x9eF\xd2vV@'
p17
tp18
Rp19
ag10
(g14
S'\xd0\x04\x9b\x93zuV@'
p20
tp21
Rp22
ag10
(g14
S'09\xc3\x1c\x17vV@'
p23
tp24
Rp25
ag10
(g14
S'.\xde\xa5T\xcbxV@'
p26
tp27
Rp28
ag10
(g14
S'\x97N\x9d\xbf%vV@'
p29
tp30
Rp31
ag10
(g14
S'W\xc5\xf9@\xcfpV@'
p32
tp33
Rp34
ag10
(g14
S'\xa03\xbe\xc7\xcczV@'
p35
tp36
Rp37
ag10
(g14
S"\x04\xf3'R\xc3{V@"
p38
tp39
Rp40
ag10
(g14
S'\xa1n\xe6\x8d\xfevV@'
p41
tp42
Rp43
ag10
(g14
S'K/_\xa9}uV@'
p44
tp45
Rp46
ag10
(g14
S'\xa0\x1d\xbc\xf7wzV@'
p47
tp48
Rp49
ag10
(g14
S'\xdc\xf2\xe3\xe3\xf1sV@'
p50
tp51
Rp52
ag10
(g14
S'\x85\x8d\xa9\x96AuV@'
p53
tp54
Rp55
ag10
(g14
S'\xd3p2\x04btV@'
p56
tp57
Rp58
ag10
(g14
S'8}\xeb\xa1\nwV@'
p59
tp60
Rp61
ag10
(g14
S'\x84_\x9fK\xa6uV@'
p62
tp63
Rp64
ag10
(g14
S'\n\xaf\x7f\xe4\xa9xV@'
p65
tp66
Rp67
ag10
(g14
S'\x89i3d\xe4sV@'
p68
tp69
Rp70
ag10
(g14
S'\x84W\xc1\x0f\xcfwV@'
p71
tp72
Rp73
ag10
(g14
S'? \x07\xe4\x9atV@'
p74
tp75
Rp76
asS'target'
p77
(lp78
g10
(g14
S'3\x9eJI\xfa\xb8C@'
p79
tp80
Rp81
ag10
(g14
S'\x9fMk\x8f\xe0\xf6?@'
p82
tp83
Rp84
ag10
(g14
S'\xcd\x9a^n\x96\xf5@@'
p85
tp86
Rp87
ag10
(g14
S'#6\xbf\xa0\xcdq@@'
p88
tp89
Rp90
ag10
(g14
S'\xe4$W\x7f+\x88I@'
p91
tp92
Rp93
ag10
(g14
S'\xa6\xd2d>\xf2\xd2G@'
p94
tp95
Rp96
ag10
(g14
S'"\x067\x9d\xf8\x8f=@'
p97
tp98
Rp99
ag10
(g14
S'Q\x13f?a>=@'
p100
tp101
Rp102
ag10
(g14
S'?w\x93[A\xd3=@'
p103
tp104
Rp105
ag10
(g14
S'y\xdcqD\xf7\xbfA@'
p106
tp107
Rp108
ag10
(g14
S'@\x07q7r\x1bC@'
p109
tp110
Rp111
ag10
(g14
S'\xfe7\xa6|\xc9\xa1C@'
p112
tp113
Rp114
ag10
(g14
S'\x88\x08z$4<<@'
p115
tp116
Rp117
ag10
(g14
S"WU\x88'\xc6VD@"
p118
tp119
Rp120
ag10
(g14
S'\xdf\x9d\x81\x0c\xe8zB@'
p121
tp122
Rp123
ag10
(g14
S'9$\xdf{\xc0\x08C@'
p124
tp125
Rp126
ag10
(g14
S'\x12\xfd$c+\xb5>@'
p127
tp128
Rp129
ag10
(g14
S'^\xa0\x97\x1c\xed\xbc>@'
p130
tp131
Rp132
ag10
(g14
S'\x12\xc0R\x15\xf0OD@'
p133
tp134
Rp135
ag10
(g14
S'\xda\x10\x01\xab\xc3;D@'
p136
tp137
Rp138
asssss.