(dp0
S'../Data/sqlite_9.csv'
p1
(dp2
S'../Data/sqlite_13.csv'
p3
(dp4
F0.4
(dp5
S'mmre'
p6
(dp7
S'bellwether'
p8
(lp9
cnumpy.core.multiarray
scalar
p10
(cnumpy
dtype
p11
(S'f8'
p12
I0
I1
tp13
Rp14
(I3
S'<'
p15
NNNI-1
I-1
I0
tp16
bS'\x1d\xd0\x96\xd51!X@'
p17
tp18
Rp19
ag10
(g14
S'h\x14\xd0\xb8E!X@'
p20
tp21
Rp22
ag10
(g14
S'\xb0\xf4\x8cw\r!X@'
p23
tp24
Rp25
ag10
(g14
S'\xccp\xcf] !X@'
p26
tp27
Rp28
ag10
(g14
S"GR'\x80(!X@"
p29
tp30
Rp31
ag10
(g14
S'v\x8a\xb5"\x06!X@'
p32
tp33
Rp34
ag10
(g14
S'=\xe0\x04\xee6!X@'
p35
tp36
Rp37
ag10
(g14
S'x\xe4\xd8lU!X@'
p38
tp39
Rp40
ag10
(g14
S'\xa2IEW6!X@'
p41
tp42
Rp43
ag10
(g14
S'\xdc\xd7\tZO!X@'
p44
tp45
Rp46
ag10
(g14
S'j\x90\x98\xd9\xee X@'
p47
tp48
Rp49
ag10
(g14
S'f\xc4\xbdg\r!X@'
p50
tp51
Rp52
ag10
(g14
S'\xd0]l\xc4\xdc X@'
p53
tp54
Rp55
ag10
(g14
S'\xe5<W\xa6X!X@'
p56
tp57
Rp58
ag10
(g14
S'L\x13mp4!X@'
p59
tp60
Rp61
ag10
(g14
S'}\x15\xd3\xb5A!X@'
p62
tp63
Rp64
ag10
(g14
S'{\xc7=%s!X@'
p65
tp66
Rp67
ag10
(g14
S'\x18?Q#\x17!X@'
p68
tp69
Rp70
ag10
(g14
S'\xd2\x19\x92dx!X@'
p71
tp72
Rp73
ag10
(g14
S'4\x97\xac\xb7K!X@'
p74
tp75
Rp76
asS'target'
p77
(lp78
g10
(g14
S';\xb4W\xcc\xfa\x13\xfc?'
p79
tp80
Rp81
ag10
(g14
S'\x1a\xbds2?\x98\xff?'
p82
tp83
Rp84
ag10
(g14
S'\x95H\xa6 \xaf{\xfe?'
p85
tp86
Rp87
ag10
(g14
S'\x88la\xbd\x9e\xa5\x00@'
p88
tp89
Rp90
ag10
(g14
S'\xffE\xc1\n\xd6m\x00@'
p91
tp92
Rp93
ag10
(g14
S'\x19\x1e\xca\xbdBa\xfc?'
p94
tp95
Rp96
ag10
(g14
S'i\xe6\x92p\xb5\xc7\xff?'
p97
tp98
Rp99
ag10
(g14
S'\x17\xc9YZ\xed^\xfb?'
p100
tp101
Rp102
ag10
(g14
S'-*m\xa4\xf8\xda\xfc?'
p103
tp104
Rp105
ag10
(g14
S'r\x07\xf3\xf7\x0c\xc7\xfe?'
p106
tp107
Rp108
ag10
(g14
S'\\\xa3u\x17\xe3\x1d\x00@'
p109
tp110
Rp111
ag10
(g14
S'~C\xd0d\xe0\xa1\xfe?'
p112
tp113
Rp114
ag10
(g14
S'%\x0b\x10\xe7\x1c7\x00@'
p115
tp116
Rp117
ag10
(g14
S'\xa05\xc2\x83"4\x00@'
p118
tp119
Rp120
ag10
(g14
S"\rd\x8a\xd2'L\x00@"
p121
tp122
Rp123
ag10
(g14
S'\x01`P\x96X\xd5\xfe?'
p124
tp125
Rp126
ag10
(g14
S'83!;>t\xfe?'
p127
tp128
Rp129
ag10
(g14
S'\xbdO<\xbe\x1fL\xfd?'
p130
tp131
Rp132
ag10
(g14
S'\x05\xf7\x9b\xb4u\xea\xfa?'
p133
tp134
Rp135
ag10
(g14
S'3\x93-ZC\x93\x00@'
p136
tp137
Rp138
asssss.