(dp0
S'../Data/sqlite_95.csv'
p1
(dp2
S'../Data/sqlite_64.csv'
p3
(dp4
F0.35
(dp5
S'abs_res'
p6
(dp7
S'bellwether'
p8
(lp9
cnumpy.core.multiarray
scalar
p10
(cnumpy
dtype
p11
(S'f8'
p12
I0
I1
tp13
Rp14
(I3
S'<'
p15
NNNI-1
I-1
I0
tp16
bS'\x08\x1e\xcc\xb3\xfd\x1e3A'
p17
tp18
Rp19
ag10
(g14
S'\xc1\xe6BR\x9c73A'
p20
tp21
Rp22
ag10
(g14
S"$x0/'M3A"
p23
tp24
Rp25
ag10
(g14
S'\x9a\xb5:\xc6\xda53A'
p26
tp27
Rp28
ag10
(g14
S')$M\xe9\xb8N3A'
p29
tp30
Rp31
ag10
(g14
S'\xf5\xc5\x92\xbf\xcbo3A'
p32
tp33
Rp34
ag10
(g14
S'2ku\xccsB3A'
p35
tp36
Rp37
ag10
(g14
S'\xe7mY\xcb\xac%3A'
p38
tp39
Rp40
ag10
(g14
S'\xadrhq\xbc\x1c3A'
p41
tp42
Rp43
ag10
(g14
S'\x0c\x90{\x8d\xa2\xf52A'
p44
tp45
Rp46
ag10
(g14
S's\xcbZ=%A3A'
p47
tp48
Rp49
ag10
(g14
S'\xb7e\xad\xae\xa8*3A'
p50
tp51
Rp52
ag10
(g14
S'p\xa0\xd3\xc6\xa9\x0b3A'
p53
tp54
Rp55
ag10
(g14
S'\xecD\xfd[l13A'
p56
tp57
Rp58
ag10
(g14
S'k.$\x8d\x9a\x033A'
p59
tp60
Rp61
ag10
(g14
S'\xcb\xcc\xcc,b\x103A'
p62
tp63
Rp64
ag10
(g14
S'\xed\xdf\x08%@T3A'
p65
tp66
Rp67
ag10
(g14
S'6\xb4\xc8\xf6\x1e"3A'
p68
tp69
Rp70
ag10
(g14
S'e\xc9/6\n(3A'
p71
tp72
Rp73
ag10
(g14
S'\x8a\xb3\x0f_!#3A'
p74
tp75
Rp76
asS'target'
p77
(lp78
g10
(g14
S'zh\x91\xed|Pq@'
p79
tp80
Rp81
ag10
(g14
S'Nb\x10X9\xfds@'
p82
tp83
Rp84
ag10
(g14
S'+\x87\x16\xd9\xce|r@'
p85
tp86
Rp87
ag10
(g14
S'\xbdt\x93\x18\x04\x9as@'
p88
tp89
Rp90
ag10
(g14
S'\x8a\x16\xd9\xce\xf7pu@'
p91
tp92
Rp93
ag10
(g14
S'\x15\xd9\xce\xf7S\xcdr@'
p94
tp95
Rp96
ag10
(g14
S'm=\n\xd7\xa3\xfer@'
p97
tp98
Rp99
ag10
(g14
S':\xdfO\x8d\x97ur@'
p100
tp101
Rp102
ag10
(g14
S'0\x87\x16\xd9\xce:r@'
p103
tp104
Rp105
ag10
(g14
S'~j\xbct\x938s@'
p106
tp107
Rp108
ag10
(g14
S'\xfb~j\xbct7q@'
p109
tp110
Rp111
ag10
(g14
S'Ib\x10X9\x18t@'
p112
tp113
Rp114
ag10
(g14
S'\x85\x95C\x8bl\xc7t@'
p115
tp116
Rp117
ag10
(g14
S'\x93\xc2\xf5(\\\xa3q@'
p118
tp119
Rp120
ag10
(g14
S'\x18\x04V\x0e-Br@'
p121
tp122
Rp123
ag10
(g14
S'\xc9 \xb0rh\x11r@'
p124
tp125
Rp126
ag10
(g14
S'\x8al\xe7\xfb\xa9\xf3r@'
p127
tp128
Rp129
ag10
(g14
S'\xe7\xd0"\xdb\xf9\x91r@'
p130
tp131
Rp132
ag10
(g14
S'\x12X9\xb4\xc8zr@'
p133
tp134
Rp135
ag10
(g14
S'`\x8f\xc2\xf5(\x86s@'
p136
tp137
Rp138
asssss.