(dp0
S'../Data/sqlite_18.csv'
p1
(dp2
S'../Data/sqlite_31.csv'
p3
(dp4
F0.15
(dp5
S'abs_res'
p6
(dp7
S'bellwether'
p8
(lp9
cnumpy.core.multiarray
scalar
p10
(cnumpy
dtype
p11
(S'f8'
p12
I0
I1
tp13
Rp14
(I3
S'<'
p15
NNNI-1
I-1
I0
tp16
bS'j\xbctC\x8bk@A'
p17
tp18
Rp19
ag10
(g14
S'\xb8\x1e\x85[ck@A'
p20
tp21
Rp22
ag10
(g14
S'GDD\xe4\xack@A'
p23
tp24
Rp25
ag10
(g14
S";\x98':\xbck@A"
p26
tp27
Rp28
ag10
(g14
S'\xab\x7f#\x94Ok@A'
p29
tp30
Rp31
ag10
(g14
S';\n\xd7\x13\x06l@A'
p32
tp33
Rp34
ag10
(g14
S'\x88A`E\xack@A'
p35
tp36
Rp37
ag10
(g14
S'\xa5p=\xaa"l@A'
p38
tp39
Rp40
ag10
(g14
S'\x84\x16\xd9>\x1el@A'
p41
tp42
Rp43
ag10
(g14
S'\xf0\x8b%\xefml@A'
p44
tp45
Rp46
ag10
(g14
S'\xc6\xa1E\x06\xffk@A'
p47
tp48
Rp49
ag10
(g14
S'433\xb3\xb6k@A'
p50
tp51
Rp52
ag10
(g14
S'G\x8bl\x97\xacj@A'
p53
tp54
Rp55
ag10
(g14
S'G\xc5\xd9\x17Gk@A'
p56
tp57
Rp58
ag10
(g14
S'X9\xb4x;l@A'
p59
tp60
Rp61
ag10
(g14
S'=5^\xaa\xd7k@A'
p62
tp63
Rp64
ag10
(g14
S'\xb3\xf3\xfdT\xdcj@A'
p65
tp66
Rp67
ag10
(g14
S'\x93{\xcd\x95_k@A'
p68
tp69
Rp70
ag10
(g14
S'\x12\xd9\xce\x97\xd1k@A'
p71
tp72
Rp73
ag10
(g14
S'\x9f\xd3\x06\xaa\xb1k@A'
p74
tp75
Rp76
asS'target'
p77
(lp78
g10
(g14
S'\x14\xd9\xce\xf7S\xd3f@'
p79
tp80
Rp81
ag10
(g14
S'^d;\xdfO\xc5e@'
p82
tp83
Rp84
ag10
(g14
S'#\x08\xac\x1cZdg@'
p85
tp86
Rp87
ag10
(g14
S' \xdb\xf9~jbi@'
p88
tp89
Rp90
ag10
(g14
S'\xec|?5^Zf@'
p91
tp92
Rp93
ag10
(g14
S'\xe0\xd0"\xdb\xf9\xbce@'
p94
tp95
Rp96
ag10
(g14
S'\x04\x81\x95C\x8b\\d@'
p97
tp98
Rp99
ag10
(g14
S'\x9d\x99\x99\x99\x99\xa5e@'
p100
tp101
Rp102
ag10
(g14
S'\xcaK7\x89A\x10h@'
p103
tp104
Rp105
ag10
(g14
S'\x97C\x8bl\xe7Wf@'
p106
tp107
Rp108
ag10
(g14
S'\xcc"\xdb\xf9~\xc2f@'
p109
tp110
Rp111
ag10
(g14
S'\r\xac\x1cZdWd@'
p112
tp113
Rp114
ag10
(g14
S"'\x87\x16\xd9\xcegg@"
p115
tp116
Rp117
ag10
(g14
S'.\x87\x16\xd9\xceuf@'
p118
tp119
Rp120
ag10
(g14
S'\xcb\xf5(\\\x8f2e@'
p121
tp122
Rp123
ag10
(g14
S'|\x14\xaeG\xe1\x0ef@'
p124
tp125
Rp126
ag10
(g14
S'C\xe1z\x14\xae\xe1c@'
p127
tp128
Rp129
ag10
(g14
S'.\xb0rh\x91\xa9e@'
p130
tp131
Rp132
ag10
(g14
S'\xb3\x9d\xef\xa7\xc6\xebb@'
p133
tp134
Rp135
ag10
(g14
S'\xad\xc6K7\x89)d@'
p136
tp137
Rp138
asssss.