(dp0
S'../Data/sqlite_60.csv'
p1
(dp2
S'../Data/sqlite_44.csv'
p3
(dp4
F0.25
(dp5
S'abs_res'
p6
(dp7
S'bellwether'
p8
(lp9
cnumpy.core.multiarray
scalar
p10
(cnumpy
dtype
p11
(S'f8'
p12
I0
I1
tp13
Rp14
(I3
S'<'
p15
NNNI-1
I-1
I0
tp16
bS'h\x03\x9d\x06~YeA'
p17
tp18
Rp19
ag10
(g14
S'\x93\xd1\xdb\xb6jUeA'
p20
tp21
Rp22
ag10
(g14
S'\xf4\xd2M\x96Z`eA'
p23
tp24
Rp25
ag10
(g14
S'\x9b}\xf8<\xce]eA'
p26
tp27
Rp28
ag10
(g14
S'\xb6\xc8v~\x8fbeA'
p29
tp30
Rp31
ag10
(g14
S'\n\xbb\x02\xb8\xfdTeA'
p32
tp33
Rp34
ag10
(g14
S'0\xc1\x83i\xf5YeA'
p35
tp36
Rp37
ag10
(g14
S'\x9c\x99\x99\xe9\xd6\\eA'
p38
tp39
Rp40
ag10
(g14
S'C\n\xd7S(ReA'
p41
tp42
Rp43
ag10
(g14
S'\xb3+@\xa6\xffYeA'
p44
tp45
Rp46
ag10
(g14
S'\x9a6\xd0\xcd\xdeXeA'
p47
tp48
Rp49
ag10
(g14
S'<z[f\x93\\eA'
p50
tp51
Rp52
ag10
(g14
S'\xc0\x904\xa1\xf7VeA'
p53
tp54
Rp55
ag10
(g14
S'\x94n\x12\xe3cpeA'
p56
tp57
Rp58
ag10
(g14
S'\xb8e\xad\xdaFXeA'
p59
tp60
Rp61
ag10
(g14
S'\x91{\xcd\x15\x87YeA'
p62
tp63
Rp64
ag10
(g14
S',\x08\xac\xa0\xeaTeA'
p65
tp66
Rp67
ag10
(g14
S'\x8f\xed|g`[eA'
p68
tp69
Rp70
ag10
(g14
S'&\xbfX\x06\x15beA'
p71
tp72
Rp73
ag10
(g14
S'\x07V\x0e\xbd\xfb\\eA'
p74
tp75
Rp76
asS'target'
p77
(lp78
g10
(g14
S'\x82\xebQ\xb8\x1e\xfdN@'
p79
tp80
Rp81
ag10
(g14
S'\xf8(\\\x8f\xc2\x8dL@'
p82
tp83
Rp84
ag10
(g14
S'J\xe1z\x14\xae\x07K@'
p85
tp86
Rp87
ag10
(g14
S'x\x14\xaeG\xe1\xd2M@'
p88
tp89
Rp90
ag10
(g14
S'C\x0c\x02+\x87VL@'
p91
tp92
Rp93
ag10
(g14
S'\x07\xd5x\xe9&\xe1K@'
p94
tp95
Rp96
ag10
(g14
S'=\xb4\xc8v\xbeGL@'
p97
tp98
Rp99
ag10
(g14
S'P\x0e-\xb2\x9d\xffM@'
p100
tp101
Rp102
ag10
(g14
S'\xca \xb0rh\x11O@'
p103
tp104
Rp105
ag10
(g14
S'\xa8\xf1\xd2Mb<Q@'
p106
tp107
Rp108
ag10
(g14
S'\xba \xb0rhAJ@'
p109
tp110
Rp111
ag10
(g14
S'\xcc"\xdb\xf9~"M@'
p112
tp113
Rp114
ag10
(g14
S'\x8d\xc2\xf5(\\\x1fM@'
p115
tp116
Rp117
ag10
(g14
S'\x1fZd;\xdf\x9fL@'
p118
tp119
Rp120
ag10
(g14
S'\xc8\xa1E\xb6\xf3)P@'
p121
tp122
Rp123
ag10
(g14
S'd\x91\xed|?\x1dN@'
p124
tp125
Rp126
ag10
(g14
S'\xc4Mb\x10X\x19M@'
p127
tp128
Rp129
ag10
(g14
S'm\xbe\x9f\x1a/UI@'
p130
tp131
Rp132
ag10
(g14
S'\t\x02+\x87\x16II@'
p133
tp134
Rp135
ag10
(g14
S'\xde\xa5\x9b\xc4 0J@'
p136
tp137
Rp138
asssss.