(dp0
S'../Data/sqlite_18.csv'
p1
(dp2
S'../Data/sqlite_70.csv'
p3
(dp4
F0.1
(dp5
S'abs_res'
p6
(dp7
S'bellwether'
p8
(lp9
cnumpy.core.multiarray
scalar
p10
(cnumpy
dtype
p11
(S'f8'
p12
I0
I1
tp13
Rp14
(I3
S'<'
p15
NNNI-1
I-1
I0
tp16
bS'CDD\xb4\xcc^AA'
p17
tp18
Rp19
ag10
(g14
S'l=\n\x17 _AA'
p20
tp21
Rp22
ag10
(g14
S'\xa4\xf1\xd2M\xfb_AA'
p23
tp24
Rp25
ag10
(g14
S'\xf5~j\x1c#_AA'
p26
tp27
Rp28
ag10
(g14
S'5\xdfO]3_AA'
p29
tp30
Rp31
ag10
(g14
S'\x03\xac\x1c\xaa\xff^AA'
p32
tp33
Rp34
ag10
(g14
S'\x1f\x06\x81\x15W_AA'
p35
tp36
Rp37
ag10
(g14
S'qh\x91\x8d\x0b_AA'
p38
tp39
Rp40
ag10
(g14
S'G\xb6\xf3\xfdC`AA'
p41
tp42
Rp43
ag10
(g14
S'\xd2Mb\xa0\x93_AA'
p44
tp45
Rp46
ag10
(g14
S'\r\xbb\x02\x04T_AA'
p47
tp48
Rp49
ag10
(g14
S'\x17Zd\xdb\xc0^AA'
p50
tp51
Rp52
ag10
(g14
S',\x87\x16\xe9\x14_AA'
p53
tp54
Rp55
ag10
(g14
S'\x05ISz]_AA'
p56
tp57
Rp58
ag10
(g14
S'S\xe3\xa5\x0b\\_AA'
p59
tp60
Rp61
ag10
(g14
S'\x1b>\xc3\xfex_AA'
p62
tp63
Rp64
ag10
(g14
S'"1\x08l0_AA'
p65
tp66
Rp67
ag10
(g14
S'aff\x06\x13_AA'
p68
tp69
Rp70
ag10
(g14
S'\xe5\xa5\x9b\x84\xb4_AA'
p71
tp72
Rp73
ag10
(g14
S'\xbe\x9f\x1a\x0f\x18_AA'
p74
tp75
Rp76
asS'target'
p77
(lp78
g10
(g14
S'\xd4x\xe9&1\xb4a@'
p79
tp80
Rp81
ag10
(g14
S'\xc3\xa1E\xb6\xf35b@'
p82
tp83
Rp84
ag10
(g14
S'\xcd\xf7S\xe3\xa5cc@'
p85
tp86
Rp87
ag10
(g14
S'\x06V\x0e-\xb2\xd5`@'
p88
tp89
Rp90
ag10
(g14
S'n\xe7\xfb\xa9\xf1\x82b@'
p91
tp92
Rp93
ag10
(g14
S'-\x87\x16\xd9\xce\xbba@'
p94
tp95
Rp96
ag10
(g14
S'\xeaQ\xb8\x1e\x85\xbba@'
p97
tp98
Rp99
ag10
(g14
S'#1\x08\xac\x1c\x16`@'
p100
tp101
Rp102
ag10
(g14
S'?\xdfO\x8d\x97\xbca@'
p103
tp104
Rp105
ag10
(g14
S'\xfc\xd4x\xe9&\xc5`@'
p106
tp107
Rp108
ag10
(g14
S'F\xb8\x1e\x85\xeb\xb1a@'
p109
tp110
Rp111
ag10
(g14
S'\n\x02+\x87\x16\x01b@'
p112
tp113
Rp114
ag10
(g14
S'\xf7S\xe3\xa5\x9b<b@'
p115
tp116
Rp117
ag10
(g14
S'\xc8Mb\x10Xc`@'
p118
tp119
Rp120
ag10
(g14
S'\xcfMb\x10X)a@'
p121
tp122
Rp123
ag10
(g14
S'\x1f\xdb\xf9~j\x18c@'
p124
tp125
Rp126
ag10
(g14
S'\xb7rh\x91\xed\xb8`@'
p127
tp128
Rp129
ag10
(g14
S'\xedQ\xb8\x1e\x85_c@'
p130
tp131
Rp132
ag10
(g14
S'53333\xafa@'
p133
tp134
Rp135
ag10
(g14
S'^;\xdfO\x8d\xefb@'
p136
tp137
Rp138
asssss.