(dp0
S'../Data/sqlite_79.csv'
p1
(dp2
S'../Data/sqlite_76.csv'
p3
(dp4
F0.05
(dp5
S'mmre'
p6
(dp7
S'bellwether'
p8
(lp9
cnumpy.core.multiarray
scalar
p10
(cnumpy
dtype
p11
(S'f8'
p12
I0
I1
tp13
Rp14
(I3
S'<'
p15
NNNI-1
I-1
I0
tp16
bS'j\xb2\x002\xf5OW@'
p17
tp18
Rp19
ag10
(g14
S'\xf0\xe3+[oPW@'
p20
tp21
Rp22
ag10
(g14
S'\x8e\xad\xc1A\xb4PW@'
p23
tp24
Rp25
ag10
(g14
S'\x9c\x0b\xcdVTPW@'
p26
tp27
Rp28
ag10
(g14
S'\xcc\xd4!\xc5\xfcOW@'
p29
tp30
Rp31
ag10
(g14
S'\xabt\xa0\xd6JPW@'
p32
tp33
Rp34
ag10
(g14
S't8tQ\xbeOW@'
p35
tp36
Rp37
ag10
(g14
S'_i\x96\x8b\rOW@'
p38
tp39
Rp40
ag10
(g14
S'y,U};PW@'
p41
tp42
Rp43
ag10
(g14
S'\xe2i\x08arOW@'
p44
tp45
Rp46
ag10
(g14
S'\x10\xa1>\x9aRPW@'
p47
tp48
Rp49
ag10
(g14
S'\x00m[\xd1@OW@'
p50
tp51
Rp52
ag10
(g14
S'\xfd\xdc\xb6\xae\xc9OW@'
p53
tp54
Rp55
ag10
(g14
S'\x10-\xf5x\xc6PW@'
p56
tp57
Rp58
ag10
(g14
S'H\x8d\xefybQW@'
p59
tp60
Rp61
ag10
(g14
S'\xe0\x8eDS\tPW@'
p62
tp63
Rp64
ag10
(g14
S'\xef\xcf\xccN!PW@'
p65
tp66
Rp67
ag10
(g14
S'O~\x8e@\xa9PW@'
p68
tp69
Rp70
ag10
(g14
S'`A]\xc5\x03PW@'
p71
tp72
Rp73
ag10
(g14
S'Q\xd00l\xc8PW@'
p74
tp75
Rp76
asS'target'
p77
(lp78
g10
(g14
S"'f\x14\xb3\xcb\x1e1@"
p79
tp80
Rp81
ag10
(g14
S'\x9f\x9c\xbb\xa4\x9a\x15.@'
p82
tp83
Rp84
ag10
(g14
S'\xac\xfa\x1aA6\x8e0@'
p85
tp86
Rp87
ag10
(g14
S'40\xf1\x0e3\xab1@'
p88
tp89
Rp90
ag10
(g14
S'QX\xc2\x8e\xea\xe31@'
p91
tp92
Rp93
ag10
(g14
S'\xb7r\xec\x1f\xeb81@'
p94
tp95
Rp96
ag10
(g14
S'\x8f\xccq\xdcbc1@'
p97
tp98
Rp99
ag10
(g14
S"\xf8\xbd\x89\x13E'4@"
p100
tp101
Rp102
ag10
(g14
S'\x96\x13\xc9H\xe0\x080@'
p103
tp104
Rp105
ag10
(g14
S';\xf9|\xb0\x9c<0@'
p106
tp107
Rp108
ag10
(g14
S',IdO\x19e2@'
p109
tp110
Rp111
ag10
(g14
S'\x864\x1d\xe6\xab\x820@'
p112
tp113
Rp114
ag10
(g14
S')G\x87\xc4\x9c\xa22@'
p115
tp116
Rp117
ag10
(g14
S'z\xe2\xa4\xb8\xa8&1@'
p118
tp119
Rp120
ag10
(g14
S'\xcb\xea\x128\xa9p.@'
p121
tp122
Rp123
ag10
(g14
S'.\x12b\x14\x0fd4@'
p124
tp125
Rp126
ag10
(g14
S'x\x04-[S\xfa2@'
p127
tp128
Rp129
ag10
(g14
S'\xeb\xc4g\xd2<92@'
p130
tp131
Rp132
ag10
(g14
S'(\xa8\xd2\xb4#\x100@'
p133
tp134
Rp135
ag10
(g14
S'\xcd\xbe\xca\x06H\x9c0@'
p136
tp137
Rp138
asssss.