(dp0
S'../Data/sqlite_76.csv'
p1
(dp2
S'../Data/sqlite_78.csv'
p3
(dp4
F0.05
(dp5
S'mmre'
p6
(dp7
S'bellwether'
p8
(lp9
cnumpy.core.multiarray
scalar
p10
(cnumpy
dtype
p11
(S'f8'
p12
I0
I1
tp13
Rp14
(I3
S'<'
p15
NNNI-1
I-1
I0
tp16
bS'\x98Q=OI>w@'
p17
tp18
Rp19
ag10
(g14
S'|K,r#Gw@'
p20
tp21
Rp22
ag10
(g14
S'\x84\x8c\x95!tBw@'
p23
tp24
Rp25
ag10
(g14
S'WH\x0f\xa2\x92:w@'
p26
tp27
Rp28
ag10
(g14
S'\xae\xd0\x97\xfd\xf28w@'
p29
tp30
Rp31
ag10
(g14
S'!\xea\xb0\xbd1-w@'
p32
tp33
Rp34
ag10
(g14
S'f\xa6\xde\xd6E-w@'
p35
tp36
Rp37
ag10
(g14
S'yh3\xc5\xa64w@'
p38
tp39
Rp40
ag10
(g14
S'\xd6\x9c\x05{\xb62w@'
p41
tp42
Rp43
ag10
(g14
S'\x11\xb7\xddD\x96Lw@'
p44
tp45
Rp46
ag10
(g14
S']\xfdp\xf14.w@'
p47
tp48
Rp49
ag10
(g14
S'\xd5\xf0\x99\xf4\x9a=w@'
p50
tp51
Rp52
ag10
(g14
S'*~gw\xbb;w@'
p53
tp54
Rp55
ag10
(g14
S'\x8cj\xf4\xfd\x8aEw@'
p56
tp57
Rp58
ag10
(g14
S'\x86\x81\x0780@w@'
p59
tp60
Rp61
ag10
(g14
S'\x19\x90\x03n\xf4Ew@'
p62
tp63
Rp64
ag10
(g14
S'\x99b\xeeq62w@'
p65
tp66
Rp67
ag10
(g14
S'\x9f\x04\xa9\xd7\x95Nw@'
p68
tp69
Rp70
ag10
(g14
S'E\x11E\xf4\x90?w@'
p71
tp72
Rp73
ag10
(g14
S'\xa5JsS\xe3(w@'
p74
tp75
Rp76
asS'target'
p77
(lp78
g10
(g14
S'\xcehI\xcf\xf1\x902@'
p79
tp80
Rp81
ag10
(g14
S"N\xbb0\xb8\xde'2@"
p82
tp83
Rp84
ag10
(g14
S'Bx\x8dpt85@'
p85
tp86
Rp87
ag10
(g14
S'=\xb0[\xa3\x99\xb05@'
p88
tp89
Rp90
ag10
(g14
S'\x04\xf7\xbd\xc8_^2@'
p91
tp92
Rp93
ag10
(g14
S'T\x8a\xb2zZ\xdc4@'
p94
tp95
Rp96
ag10
(g14
S'N\x04O\xf1*\xcb4@'
p97
tp98
Rp99
ag10
(g14
S'\xf0\x87\x8a\xb5\x01\t1@'
p100
tp101
Rp102
ag10
(g14
S'\xe2\xa5-\xac6\x9e4@'
p103
tp104
Rp105
ag10
(g14
S'\xb2\x82\xe3o\xd3U2@'
p106
tp107
Rp108
ag10
(g14
S'QQ\xf0Z\xe5\xf05@'
p109
tp110
Rp111
ag10
(g14
S'\x93\xa6\x1e\xc1\xb1k4@'
p112
tp113
Rp114
ag10
(g14
S'\x9c\xb0\xcb\xb4&F2@'
p115
tp116
Rp117
ag10
(g14
S'X\xb9TC\xa896@'
p118
tp119
Rp120
ag10
(g14
S'\xb8Gx\xf3\xe3\x055@'
p121
tp122
Rp123
ag10
(g14
S'i\xd1k h]4@'
p124
tp125
Rp126
ag10
(g14
S'\x8b\xff1\xf7\x95\x841@'
p127
tp128
Rp129
ag10
(g14
S'/\x08\x93^\x92\xc36@'
p130
tp131
Rp132
ag10
(g14
S'\xc4J)\xa8\x05\xb62@'
p133
tp134
Rp135
ag10
(g14
S'\xafd\xa4a\x82\x912@'
p136
tp137
Rp138
asssss.