(dp0
S'../Data/sqlite_56.csv'
p1
(dp2
S'../Data/sqlite_59.csv'
p3
(dp4
F0.15
(dp5
S'mmre'
p6
(dp7
S'bellwether'
p8
(lp9
cnumpy.core.multiarray
scalar
p10
(cnumpy
dtype
p11
(S'f8'
p12
I0
I1
tp13
Rp14
(I3
S'<'
p15
NNNI-1
I-1
I0
tp16
bS'q\xea\x12abSC@'
p17
tp18
Rp19
ag10
(g14
S'\xc2\x8c\xbc\x1c\xa3eC@'
p20
tp21
Rp22
ag10
(g14
S'\xfb\x0e@WKUC@'
p23
tp24
Rp25
ag10
(g14
S'oaU%\x0fVC@'
p26
tp27
Rp28
ag10
(g14
S'\xd1\x04\x91><SC@'
p29
tp30
Rp31
ag10
(g14
S'\x82/\\\x9cCXC@'
p32
tp33
Rp34
ag10
(g14
S'\xb6VPC\xceTC@'
p35
tp36
Rp37
ag10
(g14
S'\x82\xd3\xfc\x87\x1fOC@'
p38
tp39
Rp40
ag10
(g14
S'\xaa\xa0?\xe1VtC@'
p41
tp42
Rp43
ag10
(g14
S'\xc0\x81I\xb0v`C@'
p44
tp45
Rp46
ag10
(g14
S'\xfcO6-BZC@'
p47
tp48
Rp49
ag10
(g14
S'\xe4\xb1J\x0cywC@'
p50
tp51
Rp52
ag10
(g14
S'G\xa8\xfb\x02XKC@'
p53
tp54
Rp55
ag10
(g14
S'\x00\x8bN@\x84\\C@'
p56
tp57
Rp58
ag10
(g14
S'\x93\xf8\xf6\x04\x11kC@'
p59
tp60
Rp61
ag10
(g14
S'\xf7L\xcedcRC@'
p62
tp63
Rp64
ag10
(g14
S'\x0b\x15\xea\xfdHdC@'
p65
tp66
Rp67
ag10
(g14
S'<c\x05\xb0\xcbNC@'
p68
tp69
Rp70
ag10
(g14
S'wI\xba\xf1;<C@'
p71
tp72
Rp73
ag10
(g14
S'\xa5\x1e/\xdf\x95RC@'
p74
tp75
Rp76
asS'target'
p77
(lp78
g10
(g14
S'\x1ax\xf9\xccS\x08%@'
p79
tp80
Rp81
ag10
(g14
S"EC\xa1\x16\x95\x97'@"
p82
tp83
Rp84
ag10
(g14
S'N\xd3\x00\r\x00F%@'
p85
tp86
Rp87
ag10
(g14
S'\xa8\xdc\x83\x07\x15z$@'
p88
tp89
Rp90
ag10
(g14
S"o\xf2\xb9\x15o\xa6'@"
p91
tp92
Rp93
ag10
(g14
S'\xbcgg\xd8>\xcc%@'
p94
tp95
Rp96
ag10
(g14
S'}\xcb1\xc8\xc3\xf9&@'
p97
tp98
Rp99
ag10
(g14
S'M-\x02\xbb,\xcd&@'
p100
tp101
Rp102
ag10
(g14
S'G*f\x1e\x83\x85%@'
p103
tp104
Rp105
ag10
(g14
S"\x99\x80\x14D+J'@"
p106
tp107
Rp108
ag10
(g14
S':i\xae\x11Y=%@'
p109
tp110
Rp111
ag10
(g14
S'I\x86\x82;\xdb\xc8#@'
p112
tp113
Rp114
ag10
(g14
S'H{\x80\xa1\xb1\x0c)@'
p115
tp116
Rp117
ag10
(g14
S'HsC\x1c\xa8\xe3$@'
p118
tp119
Rp120
ag10
(g14
S'\x82*i\xdeXC$@'
p121
tp122
Rp123
ag10
(g14
S'$\xff-\x8d\xfc0%@'
p124
tp125
Rp126
ag10
(g14
S'N\xd6\x8f\xa5v(%@'
p127
tp128
Rp129
ag10
(g14
S'\xa0\x81\x1c\x00\xc6T$@'
p130
tp131
Rp132
ag10
(g14
S'UN\xa4\x04\xd5\x8a%@'
p133
tp134
Rp135
ag10
(g14
S'\xd5\x8e\x85\x05Y+&@'
p136
tp137
Rp138
asssss.