(dp0
S'../Data/sqlite_30.csv'
p1
(dp2
S'../Data/sqlite_78.csv'
p3
(dp4
F0.35
(dp5
S'mmre'
p6
(dp7
S'bellwether'
p8
(lp9
cnumpy.core.multiarray
scalar
p10
(cnumpy
dtype
p11
(S'f8'
p12
I0
I1
tp13
Rp14
(I3
S'<'
p15
NNNI-1
I-1
I0
tp16
bS'\xc1\xc7of\x05\\T@'
p17
tp18
Rp19
ag10
(g14
S'1:;#\x94^T@'
p20
tp21
Rp22
ag10
(g14
S'J\xbbSZ\xe3ZT@'
p23
tp24
Rp25
ag10
(g14
S'\xaa4\xdd\x9d\xf1aT@'
p26
tp27
Rp28
ag10
(g14
S'C\xf10\x0fkaT@'
p29
tp30
Rp31
ag10
(g14
S'\xc2\xf8\xa1\x01\xc6^T@'
p32
tp33
Rp34
ag10
(g14
S'\xfd\x84\x17\x88\x13bT@'
p35
tp36
Rp37
ag10
(g14
S'\x86\x8d\x8a9\\cT@'
p38
tp39
Rp40
ag10
(g14
S'\x8a\x13XR#]T@'
p41
tp42
Rp43
ag10
(g14
S'\xb6[\xb6\xed\rYT@'
p44
tp45
Rp46
ag10
(g14
S'#\xbe\xffZ\xd5XT@'
p47
tp48
Rp49
ag10
(g14
S'\xc1X\xae\xd4\xdfbT@'
p50
tp51
Rp52
ag10
(g14
S'Er\x9a8>bT@'
p53
tp54
Rp55
ag10
(g14
S'\xb8\x9c\xb4G\xe3YT@'
p56
tp57
Rp58
ag10
(g14
S';\xbco\xe7\xe9^T@'
p59
tp60
Rp61
ag10
(g14
S'\xf6\t\xdaO)_T@'
p62
tp63
Rp64
ag10
(g14
S'\xc0\x87\xd5\x03\xc4YT@'
p65
tp66
Rp67
ag10
(g14
S'\xaa\xb3\xc1\xe3/^T@'
p68
tp69
Rp70
ag10
(g14
S'\xe7\xff\xc7[\x87_T@'
p71
tp72
Rp73
ag10
(g14
S'!\x86\x07\xa1{XT@'
p74
tp75
Rp76
asS'target'
p77
(lp78
g10
(g14
S'\x8a\x0f\xe32\xd8\x7f4@'
p79
tp80
Rp81
ag10
(g14
S'o\xf6|X\xd9\xba3@'
p82
tp83
Rp84
ag10
(g14
S'Q\r \xfah;4@'
p85
tp86
Rp87
ag10
(g14
S' \xb3\x1f7\xe053@'
p88
tp89
Rp90
ag10
(g14
S'B?![\xb8O3@'
p91
tp92
Rp93
ag10
(g14
S'\x0fD\xf3x>\xfb3@'
p94
tp95
Rp96
ag10
(g14
S' \xe4"\'\xd3\x945@'
p97
tp98
Rp99
ag10
(g14
S'\x1a\xb8\t\xaaqO3@'
p100
tp101
Rp102
ag10
(g14
S'\xc3\x93r\xcb\xaf\xc63@'
p103
tp104
Rp105
ag10
(g14
S'\xba\x06\xef\xb8.F3@'
p106
tp107
Rp108
ag10
(g14
S'\xeb\x03z\x9c\n\x8a5@'
p109
tp110
Rp111
ag10
(g14
S'+\xacHj\x17\xfb2@'
p112
tp113
Rp114
ag10
(g14
S"\xa7\xed'G.\xbe4@"
p115
tp116
Rp117
ag10
(g14
S'\x88\xf4\xe5\x9f\xbd\xb13@'
p118
tp119
Rp120
ag10
(g14
S'\xaa\xd1_b\xf2W4@'
p121
tp122
Rp123
ag10
(g14
S'\xb6\x02\xe0k\x15\x013@'
p124
tp125
Rp126
ag10
(g14
S'\xeef\x01&\xacf2@'
p127
tp128
Rp129
ag10
(g14
S'\xd2\nA\xc0\xea\xde2@'
p130
tp131
Rp132
ag10
(g14
S'z\xe6\xe4\xc0>\xe83@'
p133
tp134
Rp135
ag10
(g14
S'\xed\x9a\xeaYu)4@'
p136
tp137
Rp138
asssss.