(dp0
S'../Data/sqlite_68.csv'
p1
(dp2
S'../Data/sqlite_63.csv'
p3
(dp4
F0.2
(dp5
S'mmre'
p6
(dp7
S'bellwether'
p8
(lp9
cnumpy.core.multiarray
scalar
p10
(cnumpy
dtype
p11
(S'f8'
p12
I0
I1
tp13
Rp14
(I3
S'<'
p15
NNNI-1
I-1
I0
tp16
bS'\xf9\x02\xce&\xc7Ml@'
p17
tp18
Rp19
ag10
(g14
S'pml\xa2sMl@'
p20
tp21
Rp22
ag10
(g14
S'W\xe0P\xc0\x949l@'
p23
tp24
Rp25
ag10
(g14
S'\x98\x15\xaa\xf1c4l@'
p26
tp27
Rp28
ag10
(g14
S'n\xc525tIl@'
p29
tp30
Rp31
ag10
(g14
S'\xde\t\xf1\x1f3Ml@'
p32
tp33
Rp34
ag10
(g14
S'o\x17\xc29">l@'
p35
tp36
Rp37
ag10
(g14
S'>5\xcb\x8a\xe57l@'
p38
tp39
Rp40
ag10
(g14
S'\x85\xcc\xa7\xe0\x077l@'
p41
tp42
Rp43
ag10
(g14
S'\xd2k\x81C\xc4Rl@'
p44
tp45
Rp46
ag10
(g14
S'\xb1\x0f\x96\x93\xc7;l@'
p47
tp48
Rp49
ag10
(g14
S'\x16\x97=R\xe2Tl@'
p50
tp51
Rp52
ag10
(g14
S'\x8e\xd8\x1fF\xcbHl@'
p53
tp54
Rp55
ag10
(g14
S'8\xc6\xb8\xf6g?l@'
p56
tp57
Rp58
ag10
(g14
S'/}P\x8eLFl@'
p59
tp60
Rp61
ag10
(g14
S'\xa8Wz\xce\x89Jl@'
p62
tp63
Rp64
ag10
(g14
S'\xce\x82\xb4D61l@'
p65
tp66
Rp67
ag10
(g14
S'\xeaZ\x02\xbe2Bl@'
p68
tp69
Rp70
ag10
(g14
S'<\xec3*\xf2Dl@'
p71
tp72
Rp73
ag10
(g14
S'Hx\xe3W\xebNl@'
p74
tp75
Rp76
asS'target'
p77
(lp78
g10
(g14
S',\'\xe9\xb9\xcdJ"@'
p79
tp80
Rp81
ag10
(g14
S':>\x8f\x03\x14!"@'
p82
tp83
Rp84
ag10
(g14
S's\x85\x17\xd4\xe6\xe1!@'
p85
tp86
Rp87
ag10
(g14
S'\x86$2\xde\x11\x1e#@'
p88
tp89
Rp90
ag10
(g14
S'\xf2\n\x18\x8e\n\x10#@'
p91
tp92
Rp93
ag10
(g14
S'\xe6E\xb0Os{"@'
p94
tp95
Rp96
ag10
(g14
S'n\xadV\x88B\x1a#@'
p97
tp98
Rp99
ag10
(g14
S'Hv\xe1\xd8\xd1\r"@'
p100
tp101
Rp102
ag10
(g14
S'\xcb\x7fS\xc2\xb1""@'
p103
tp104
Rp105
ag10
(g14
S'\xf1\xf5\xda\xf4\xec\x94$@'
p106
tp107
Rp108
ag10
(g14
S'\x0co\x086\x94\xcb!@'
p109
tp110
Rp111
ag10
(g14
S'\x08D\x8c?DZ"@'
p112
tp113
Rp114
ag10
(g14
S'\xb6\x01N<\xd6\xf0"@'
p115
tp116
Rp117
ag10
(g14
S'8e\x99\xdf\xe6=#@'
p118
tp119
Rp120
ag10
(g14
S'.\x12;<\xd4L!@'
p121
tp122
Rp123
ag10
(g14
S',\x16\x8c1\xb2\xec!@'
p124
tp125
Rp126
ag10
(g14
S'\xb6\xce\xdb\xd1\xb7\xfc"@'
p127
tp128
Rp129
ag10
(g14
S'\xe4\x9d\x1e\xe8k\xf6!@'
p130
tp131
Rp132
ag10
(g14
S'\x8a\xb9\x7f\xb7\xd1F$@'
p133
tp134
Rp135
ag10
(g14
S'k`mf\xcc\xc5"@'
p136
tp137
Rp138
asssss.