(dp0
S'../Data/sqlite_89.csv'
p1
(dp2
S'../Data/sqlite_85.csv'
p3
(dp4
F0.3
(dp5
S'abs_res'
p6
(dp7
S'bellwether'
p8
(lp9
cnumpy.core.multiarray
scalar
p10
(cnumpy
dtype
p11
(S'f8'
p12
I0
I1
tp13
Rp14
(I3
S'<'
p15
NNNI-1
I-1
I0
tp16
bS'5\xdd$\xc6u\x15SA'
p17
tp18
Rp19
ag10
(g14
S'\x9d\xef\xa7&a,SA'
p20
tp21
Rp22
ag10
(g14
S'+\x87\x16\xd1\x9aNSA'
p23
tp24
Rp25
ag10
(g14
S'\xf9(\\\x0f\xb2ISA'
p26
tp27
Rp28
ag10
(g14
S'\x15X9\xc0\x10<SA'
p29
tp30
Rp31
ag10
(g14
S'\x99C\x8b\xc48_SA'
p32
tp33
Rp34
ag10
(g14
S'\xe8&1\x9c?SSA'
p35
tp36
Rp37
ag10
(g14
S'\x85\x16\xd9b\xfc)SA'
p38
tp39
Rp40
ag10
(g14
S'f;\xdfW\xa52SA'
p41
tp42
Rp43
ag10
(g14
S'Y\xe3\xa5g--SA'
p44
tp45
Rp46
ag10
(g14
S'\xe2&1\x80\xdbASA'
p47
tp48
Rp49
ag10
(g14
S'\x13X9\x88\x9a4SA'
p50
tp51
Rp52
ag10
(g14
S'\xbb\x1e\x85\x8b\xc8lSA'
p53
tp54
Rp55
ag10
(g14
S'\x03+\x87.i\x86SA'
p56
tp57
Rp58
ag10
(g14
S'\xc3K7\xf1\xf4\x08SA'
p59
tp60
Rp61
ag10
(g14
S'f;\xdf_IFSA'
p62
tp63
Rp64
ag10
(g14
S'bffB\x83ASA'
p65
tp66
Rp67
ag10
(g14
S'\xa8\x9b\xc4|ksSA'
p68
tp69
Rp70
ag10
(g14
S'\xd2\xa1E\xce\xc2\x13SA'
p71
tp72
Rp73
ag10
(g14
S'\xa2\x9b\xc4\xbc\xf0#SA'
p74
tp75
Rp76
asS'target'
p77
(lp78
g10
(g14
S'\xf3(\\\x0fBb@A'
p79
tp80
Rp81
ag10
(g14
S'\xd6\xa3p=9\xdb>A'
p82
tp83
Rp84
ag10
(g14
S'\x89\xebQ\xf8\t|=A'
p85
tp86
Rp87
ag10
(g14
S'\xa8p=\xcaBq>A'
p88
tp89
Rp90
ag10
(g14
S'~=\n\x17\xd4v<A'
p91
tp92
Rp93
ag10
(g14
S'\xe1z\x14\x8e`@=A'
p94
tp95
Rp96
ag10
(g14
S'\xb0G\xe1\xba\x88\xc9:A'
p97
tp98
Rp99
ag10
(g14
S'u=\n\x17\x84\x9b>A'
p100
tp101
Rp102
ag10
(g14
S'\x92\x99\x99\x19&\xfa;A'
p103
tp104
Rp105
ag10
(g14
S"G\xe1z\x94\x8c'=A"
p106
tp107
Rp108
ag10
(g14
S'7\n\xd7\xa3l\xab<A'
p109
tp110
Rp111
ag10
(g14
S'#\x85\xeb\x11\xa5\xe5<A'
p112
tp113
Rp114
ag10
(g14
S'\xbd\x1e\x85\xab\xb7)=A'
p115
tp116
Rp117
ag10
(g14
S'\xd8z\x14\xce/\xca<A'
p118
tp119
Rp120
ag10
(g14
S'\xde\xa3p\xfdfX<A'
p121
tp122
Rp123
ag10
(g14
S'#\\\x8f\xc2R\x13?A'
p124
tp125
Rp126
ag10
(g14
S'$\\\x8f\x82\xe6F>A'
p127
tp128
Rp129
ag10
(g14
S"~\x14\xae'\x85\x1c=A"
p130
tp131
Rp132
ag10
(g14
S';\n\xd7\xe3\x86\xc8>A'
p133
tp134
Rp135
ag10
(g14
S'n=\nW\xe8H;A'
p136
tp137
Rp138
asssss.