(dp0
S'../Data/sqlite_95.csv'
p1
(dp2
S'../Data/sqlite_0.csv'
p3
(dp4
F0.35
(dp5
S'abs_res'
p6
(dp7
S'bellwether'
p8
(lp9
cnumpy.core.multiarray
scalar
p10
(cnumpy
dtype
p11
(S'f8'
p12
I0
I1
tp13
Rp14
(I3
S'<'
p15
NNNI-1
I-1
I0
tp16
bS'G\xb6\xf3\x1dRD3A'
p17
tp18
Rp19
ag10
(g14
S'\xad\xc8v\xfe\xbe\x103A'
p20
tp21
Rp22
ag10
(g14
S'c;\xdfo\xf5I3A'
p23
tp24
Rp25
ag10
(g14
S'z0Ot\x9a53A'
p26
tp27
Rp28
ag10
(g14
S'Q\xe3\xa5\xdb\x8e\x173A'
p29
tp30
Rp31
ag10
(g14
S'\r-\xb2}\x8b\x1e3A'
p32
tp33
Rp34
ag10
(g14
S'\x96\xb5:fs\x193A'
p35
tp36
Rp37
ag10
(g14
S'\xf1\xfd\xd4\xd8\x00M3A'
p38
tp39
Rp40
ag10
(g14
S'\x92C\x8bLXC3A'
p41
tp42
Rp43
ag10
(g14
S'\x81\xb1\xe4\xd7\xc6>3A'
p44
tp45
Rp46
ag10
(g14
S'y\x14\xaeG\xb573A'
p47
tp48
Rp49
ag10
(g14
S';m\xa03M!3A'
p50
tp51
Rp52
ag10
(g14
S"\xa1\xd3\x06\x9a\xb4'3A"
p53
tp54
Rp55
ag10
(g14
S'\x98aW\x80\xceW3A'
p56
tp57
Rp58
ag10
(g14
S'\xfaS\xe3e\xf5\xe52A'
p59
tp60
Rp61
ag10
(g14
S'Sq\xf6Av\xfb2A'
p62
tp63
Rp64
ag10
(g14
S'\x1aK~1U@3A'
p65
tp66
Rp67
ag10
(g14
S'\xd5\x13\xf5oI\xf72A'
p68
tp69
Rp70
ag10
(g14
S'\r\x0f\xe6\t\xaf/3A'
p71
tp72
Rp73
ag10
(g14
S'w\xf6\xe13S\x0c3A'
p74
tp75
Rp76
asS'target'
p77
(lp78
g10
(g14
S'z?5^\xba\x81a@'
p79
tp80
Rp81
ag10
(g14
S'{\xbe\x9f\x1a/m`@'
p82
tp83
Rp84
ag10
(g14
S'T\x0c\x02+\x87\xe2a@'
p85
tp86
Rp87
ag10
(g14
S'\xbe\x9f\x1a/\xdd|a@'
p88
tp89
Rp90
ag10
(g14
S'33333\xd1a@'
p91
tp92
Rp93
ag10
(g14
S'\xeeQ\xb8\x1e\x85\xfb_@'
p94
tp95
Rp96
ag10
(g14
S'\xaf\x9d\xef\xa7\xc6Gb@'
p97
tp98
Rp99
ag10
(g14
S'\xe9z\x14\xaeG=`@'
p100
tp101
Rp102
ag10
(g14
S'\xfb~j\xbct7a@'
p103
tp104
Rp105
ag10
(g14
S'\xd6x\xe9&1\x86a@'
p106
tp107
Rp108
ag10
(g14
S':\xb4\xc8v\xbe\xada@'
p109
tp110
Rp111
ag10
(g14
S'\x8e\x97n\x12\x83\xdab@'
p112
tp113
Rp114
ag10
(g14
S'\x82\xc0\xca\xa1E\x98`@'
p115
tp116
Rp117
ag10
(g14
S'\xe3O\x8d\x97n\xcea@'
p118
tp119
Rp120
ag10
(g14
S'\xf4\xd2Mb\x10\x04a@'
p121
tp122
Rp123
ag10
(g14
S'<\xb4\xc8v\xbeYa@'
p124
tp125
Rp126
ag10
(g14
S'\xc1 \xb0rh\x99b@'
p127
tp128
Rp129
ag10
(g14
S'\xde$\x06\x81\x95\xa5`@'
p130
tp131
Rp132
ag10
(g14
S'\x8a\x97n\x12\x83\xa8`@'
p133
tp134
Rp135
ag10
(g14
S'jffffRb@'
p136
tp137
Rp138
asssss.