(dp0
S'../Data/sqlite_84.csv'
p1
(dp2
S'../Data/sqlite_97.csv'
p3
(dp4
F0.05
(dp5
S'mmre'
p6
(dp7
S'bellwether'
p8
(lp9
cnumpy.core.multiarray
scalar
p10
(cnumpy
dtype
p11
(S'f8'
p12
I0
I1
tp13
Rp14
(I3
S'<'
p15
NNNI-1
I-1
I0
tp16
bS'e\xa1\xb2\xe1\x19yT@'
p17
tp18
Rp19
ag10
(g14
S'}\xf7(L\xbc|T@'
p20
tp21
Rp22
ag10
(g14
S'\xe3\xe3\x03\xa3(~T@'
p23
tp24
Rp25
ag10
(g14
S'e\xca\xdf\x08V{T@'
p26
tp27
Rp28
ag10
(g14
S'r\x98\xb5y\xc5uT@'
p29
tp30
Rp31
ag10
(g14
S'\x02\xe1_\xa7;{T@'
p32
tp33
Rp34
ag10
(g14
S'\\\xb7\xacGn|T@'
p35
tp36
Rp37
ag10
(g14
S'\xc69-w\x10yT@'
p38
tp39
Rp40
ag10
(g14
S'{(\xc7\x08PxT@'
p41
tp42
Rp43
ag10
(g14
S'$\xbd\x06\xf9\x8ewT@'
p44
tp45
Rp46
ag10
(g14
S'7_\xff\x18\xf2yT@'
p47
tp48
Rp49
ag10
(g14
S'\xce*VxNxT@'
p50
tp51
Rp52
ag10
(g14
S'\x96\x01\x18]\xb1zT@'
p53
tp54
Rp55
ag10
(g14
S'\x8cq{\xcdDyT@'
p56
tp57
Rp58
ag10
(g14
S'Q\x7f\xa2A\xe1uT@'
p59
tp60
Rp61
ag10
(g14
S'F8\xd9\x93\xe2wT@'
p62
tp63
Rp64
ag10
(g14
S'b~\x85\x8e\x1cxT@'
p65
tp66
Rp67
ag10
(g14
S'\xfd\xc3\x1aC\xe4xT@'
p68
tp69
Rp70
ag10
(g14
S'\x0c\x02\xdew&xT@'
p71
tp72
Rp73
ag10
(g14
S'\xe3 \xe3\xac}zT@'
p74
tp75
Rp76
asS'target'
p77
(lp78
g10
(g14
S'x\x10\xf7\xf1\xdf4Z@'
p79
tp80
Rp81
ag10
(g14
S'\xbf\x8b\x04Ro\x9fF@'
p82
tp83
Rp84
ag10
(g14
S'\x10:\xa7\x8d\x8d\xdb^@'
p85
tp86
Rp87
ag10
(g14
S'|~\x8f\x880_G@'
p88
tp89
Rp90
ag10
(g14
S'4\xa4\x88\xb7\x84Gb@'
p91
tp92
Rp93
ag10
(g14
S'Y\x10&}\xaa\x90W@'
p94
tp95
Rp96
ag10
(g14
S'\xc3T\xa7\x90laZ@'
p97
tp98
Rp99
ag10
(g14
S'\xd2\xf7\xdeV\xe1\xb5O@'
p100
tp101
Rp102
ag10
(g14
S'(\xb4\x92#\xfe:S@'
p103
tp104
Rp105
ag10
(g14
S'>b\xa7\x83y\xe0V@'
p106
tp107
Rp108
ag10
(g14
S'4\x86\xd4\x87\x9c\x1b_@'
p109
tp110
Rp111
ag10
(g14
S'\x15-\xfcI\xcaCH@'
p112
tp113
Rp114
ag10
(g14
S'\xe3yXxu\x8dT@'
p115
tp116
Rp117
ag10
(g14
S'\xee\xca\xadG\x16\x05Z@'
p118
tp119
Rp120
ag10
(g14
S'\xa9)0\x07\xf5\x08i@'
p121
tp122
Rp123
ag10
(g14
S'\xaa\x95\xb7\x19\xf7aN@'
p124
tp125
Rp126
ag10
(g14
S'\xac\x8e]wT\xa2_@'
p127
tp128
Rp129
ag10
(g14
S'6\xcb}\x05\xa6^U@'
p130
tp131
Rp132
ag10
(g14
S'\xa8|j\xc9\x1f.\\@'
p133
tp134
Rp135
ag10
(g14
S'?\xec\xc2m\xb8\x1aP@'
p136
tp137
Rp138
asssss.