(dp0
S'../Data/sqlite_81.csv'
p1
(dp2
S'../Data/sqlite_95.csv'
p3
(dp4
F0.4
(dp5
S'mmre'
p6
(dp7
S'bellwether'
p8
(lp9
cnumpy.core.multiarray
scalar
p10
(cnumpy
dtype
p11
(S'f8'
p12
I0
I1
tp13
Rp14
(I3
S'<'
p15
NNNI-1
I-1
I0
tp16
bS'[\xbe)\xd0\xfbiS@'
p17
tp18
Rp19
ag10
(g14
S' \xacH\x7f!hS@'
p20
tp21
Rp22
ag10
(g14
S'\x84\xc1X\r\xfawS@'
p23
tp24
Rp25
ag10
(g14
S'\xc6CCAybS@'
p26
tp27
Rp28
ag10
(g14
S'\x9c\xca>\xd9\xdd\x84S@'
p29
tp30
Rp31
ag10
(g14
S'*\x18\x02\xc1LcS@'
p32
tp33
Rp34
ag10
(g14
S'Kc\xdc\xd8WVS@'
p35
tp36
Rp37
ag10
(g14
S'\xc2"\x1f&(SS@'
p38
tp39
Rp40
ag10
(g14
S'\xfc\xb0<\x1c8sS@'
p41
tp42
Rp43
ag10
(g14
S'Uy\xa3cs`S@'
p44
tp45
Rp46
ag10
(g14
S'\xb6\xdc\x98D\x9cdS@'
p47
tp48
Rp49
ag10
(g14
S'\xc6Nb\x94\xdeeS@'
p50
tp51
Rp52
ag10
(g14
S'm\xee\x90\xf0\xaaiS@'
p53
tp54
Rp55
ag10
(g14
S'\x9f-\x10y\xe2sS@'
p56
tp57
Rp58
ag10
(g14
S'|\xdb\xc5O\x8ceS@'
p59
tp60
Rp61
ag10
(g14
S'\x07\xdd\x95\x14qYS@'
p62
tp63
Rp64
ag10
(g14
S'\x03W\x9es\x00bS@'
p65
tp66
Rp67
ag10
(g14
S'\xb8\x87\xba-\x08dS@'
p68
tp69
Rp70
ag10
(g14
S'\xf2\xda\x95w\x9cNS@'
p71
tp72
Rp73
ag10
(g14
S'\xf4\x06\xbem\x13lS@'
p74
tp75
Rp76
asS'target'
p77
(lp78
g10
(g14
S'\xd0\xca\xed\xb5\xe3\x93@@'
p79
tp80
Rp81
ag10
(g14
S'\x97\xcb\xe9\xd9])?@'
p82
tp83
Rp84
ag10
(g14
S'\xfb\'"\xbc\xcd\x8dA@'
p85
tp86
Rp87
ag10
(g14
S'\x12\xa2F\xb5\xd1\nB@'
p88
tp89
Rp90
ag10
(g14
S'sS\x19\xe11\xc9A@'
p91
tp92
Rp93
ag10
(g14
S'\xa8b\xe1\xc6\xdb\x9aB@'
p94
tp95
Rp96
ag10
(g14
S'\xae\xd4\xd7z\x94\xa5B@'
p97
tp98
Rp99
ag10
(g14
S'\xf4\x16\xdf4\xc8\xcfC@'
p100
tp101
Rp102
ag10
(g14
S'X\xa8)\xd4aB>@'
p103
tp104
Rp105
ag10
(g14
S'\x14\xd3\xb6\xfey\x04A@'
p106
tp107
Rp108
ag10
(g14
S'\xd4Q\x94\xef\xf5,>@'
p109
tp110
Rp111
ag10
(g14
S'N\xba\x7f\xf7x:A@'
p112
tp113
Rp114
ag10
(g14
S'\xa8\xf9qL\x93PA@'
p115
tp116
Rp117
ag10
(g14
S'\x8c/[\x01\x88TA@'
p118
tp119
Rp120
ag10
(g14
S'8\xcdP\xdc\x98j>@'
p121
tp122
Rp123
ag10
(g14
S'^\xe7D-^RB@'
p124
tp125
Rp126
ag10
(g14
S'\x9ch\xd3e\x80\xfe@@'
p127
tp128
Rp129
ag10
(g14
S'\xfa\xa0_Y\x9e\xd7?@'
p130
tp131
Rp132
ag10
(g14
S'\xbe$\xb3n_vB@'
p133
tp134
Rp135
ag10
(g14
S'\xa8)F\xb9*$B@'
p136
tp137
Rp138
asssss.