(dp0
S'../Data/sqlite_94.csv'
p1
(dp2
S'../Data/sqlite_5.csv'
p3
(dp4
F0.05
(dp5
S'abs_res'
p6
(dp7
S'bellwether'
p8
(lp9
cnumpy.core.multiarray
scalar
p10
(cnumpy
dtype
p11
(S'f8'
p12
I0
I1
tp13
Rp14
(I3
S'<'
p15
NNNI-1
I-1
I0
tp16
bS'-\xb2\x9d\xef"A#A'
p17
tp18
Rp19
ag10
(g14
S'\xe1\xfb\xa91e\\#A'
p20
tp21
Rp22
ag10
(g14
S'-33s\x8e]#A'
p23
tp24
Rp25
ag10
(g14
S'\x12\x02+\x87\xaa;#A'
p26
tp27
Rp28
ag10
(g14
S'\xc1v\xbe\x9f\xf89#A'
p29
tp30
Rp31
ag10
(g14
S')\xdb\xf9>\xc2=#A'
p32
tp33
Rp34
ag10
(g14
S'1333\xef##A'
p35
tp36
Rp37
ag10
(g14
S"d;\xdf\x0f\n'#A"
p38
tp39
Rp40
ag10
(g14
S'i=\n\x17bF#A'
p41
tp42
Rp43
ag10
(g14
S'\xe9\xfb\xa9\xb1\xf4\x18#A'
p44
tp45
Rp46
ag10
(g14
S'I\xe1z\x14?d#A'
p47
tp48
Rp49
ag10
(g14
S'7\xb4\xc8\xf66^#A'
p50
tp51
Rp52
ag10
(g14
S'\xa6\x9b\xc4`\x9dH#A'
p53
tp54
Rp55
ag10
(g14
S'c\x10X\xf9\xc7\x11#A'
p56
tp57
Rp58
ag10
(g14
S'V\xe3\xa5[\x97\xfd"A'
p59
tp60
Rp61
ag10
(g14
S'y?5\xde\x8b8#A'
p62
tp63
Rp64
ag10
(g14
S'\xccK7IX\x12#A'
p65
tp66
Rp67
ag10
(g14
S'\x18/\xdd\xa4(A#A'
p68
tp69
Rp70
ag10
(g14
S'\x9f\x1a/\x9d\x15[#A'
p71
tp72
Rp73
ag10
(g14
S'\xff\xa9\xf1\x12^.#A'
p74
tp75
Rp76
asS'target'
p77
(lp78
g10
(g14
S'\xd9\xce\xf7S\xe3-^@'
p79
tp80
Rp81
ag10
(g14
S'p\xe9&1\x08,]@'
p82
tp83
Rp84
ag10
(g14
S'\xf5\x80\x95C\x8b\x0ch@'
p85
tp86
Rp87
ag10
(g14
S'\xd1x\xe9&1\x1cg@'
p88
tp89
Rp90
ag10
(g14
S'\xf4(\\\x8f\xc2\xad[@'
p91
tp92
Rp93
ag10
(g14
S'\xac\x9b\xc4 \xb02_@'
p94
tp95
Rp96
ag10
(g14
S'\xd5"\xdb\xf9~\x02b@'
p97
tp98
Rp99
ag10
(g14
S'\x9e\xc6K7\x89\x19\\@'
p100
tp101
Rp102
ag10
(g14
S'\xca \xb0rh\x19^@'
p103
tp104
Rp105
ag10
(g14
S'vh\x91\xed|G]@'
p106
tp107
Rp108
ag10
(g14
S'iffff\xd2`@'
p109
tp110
Rp111
ag10
(g14
S'S\x8d\x97n\x12\x17`@'
p112
tp113
Rp114
ag10
(g14
S'\xce\xf7S\xe3\xa5G`@'
p115
tp116
Rp117
ag10
(g14
S'\x83?5^\xba\x81[@'
p118
tp119
Rp120
ag10
(g14
S'6^\xbaI\x0c\x82f@'
p121
tp122
Rp123
ag10
(g14
S'\x83\x16\xd9\xce\xf7{_@'
p124
tp125
Rp126
ag10
(g14
S'\xe8&1\x08\xac\x84^@'
p127
tp128
Rp129
ag10
(g14
S'\xeaQ\xb8\x1e\x85\x8fb@'
p130
tp131
Rp132
ag10
(g14
S'=33337e@'
p133
tp134
Rp135
ag10
(g14
S'\xd4\xf7S\xe3\xa5\x1b^@'
p136
tp137
Rp138
asssss.