(dp0
S'../Data/sqlite_9.csv'
p1
(dp2
S'../Data/sqlite_97.csv'
p3
(dp4
F0.05
(dp5
S'mmre'
p6
(dp7
S'bellwether'
p8
(lp9
cnumpy.core.multiarray
scalar
p10
(cnumpy
dtype
p11
(S'f8'
p12
I0
I1
tp13
Rp14
(I3
S'<'
p15
NNNI-1
I-1
I0
tp16
bS'\xa8E\xd7\xea!@X@'
p17
tp18
Rp19
ag10
(g14
S'\xf2\x08\xe1(\xa4?X@'
p20
tp21
Rp22
ag10
(g14
S'/\xd3\x14\x84N?X@'
p23
tp24
Rp25
ag10
(g14
S'\xaeUbP\x91?X@'
p26
tp27
Rp28
ag10
(g14
S'r\xf8\xccB ?X@'
p29
tp30
Rp31
ag10
(g14
S'\xb9\x8brR\xd7?X@'
p32
tp33
Rp34
ag10
(g14
S'\xf8\xac\x00\xe4x?X@'
p35
tp36
Rp37
ag10
(g14
S'\xca\xa4M\xa3(?X@'
p38
tp39
Rp40
ag10
(g14
S'\x1b<P/p?X@'
p41
tp42
Rp43
ag10
(g14
S'q*\xb5\x93I?X@'
p44
tp45
Rp46
ag10
(g14
S'I}\x00\xcaP?X@'
p47
tp48
Rp49
ag10
(g14
S'vZ\x162\x9d?X@'
p50
tp51
Rp52
ag10
(g14
S'\xfb\xc3\xc2\xb1]?X@'
p53
tp54
Rp55
ag10
(g14
S'\xee\xa5\x10\xfc\xa2?X@'
p56
tp57
Rp58
ag10
(g14
S'\xbe\x0cw\xcd\xb4>X@'
p59
tp60
Rp61
ag10
(g14
S'\x01\xa5\xe1\xf45@X@'
p62
tp63
Rp64
ag10
(g14
S'b.\x9b\xa7\xc6?X@'
p65
tp66
Rp67
ag10
(g14
S'\x18,\xa8\xdei@X@'
p68
tp69
Rp70
ag10
(g14
S'J\xba\xfc=\xb7?X@'
p71
tp72
Rp73
ag10
(g14
S'\x8c\xf6e\xd6u?X@'
p74
tp75
Rp76
asS'target'
p77
(lp78
g10
(g14
S'`\xd6\xc9\x17`SQ@'
p79
tp80
Rp81
ag10
(g14
S'dD-\x11O\xafH@'
p82
tp83
Rp84
ag10
(g14
S'\xd6\xa1\xa4M\xd8`e@'
p85
tp86
Rp87
ag10
(g14
S'J\xd7\xf7X\xaf\xf9I@'
p88
tp89
Rp90
ag10
(g14
S'\x10g\x1f\xfe\x9d\x97_@'
p91
tp92
Rp93
ag10
(g14
S')\x80\x1e\xe3?R\\@'
p94
tp95
Rp96
ag10
(g14
S'\xf2~\xe4\x0f\xfb\x08Y@'
p97
tp98
Rp99
ag10
(g14
S'%\x17\x94f\x1e\xea[@'
p100
tp101
Rp102
ag10
(g14
S'\xde\xf0\xe5\xf8w\x9b]@'
p103
tp104
Rp105
ag10
(g14
S"\xc7\x13'\xae\xa2 Q@"
p106
tp107
Rp108
ag10
(g14
S'\xf6+$S\t\xc4V@'
p109
tp110
Rp111
ag10
(g14
S"'eh\n\xb4@D@"
p112
tp113
Rp114
ag10
(g14
S'\x85@|\xad\x1b-k@'
p115
tp116
Rp117
ag10
(g14
S'\x8ecZ\x95r\xff]@'
p118
tp119
Rp120
ag10
(g14
S'\xd2\xd1\xe0\xd8\xa4\xcfW@'
p121
tp122
Rp123
ag10
(g14
S'\xec\xb0"\xa8C3>@'
p124
tp125
Rp126
ag10
(g14
S'Ha\xb62\xcf\x90A@'
p127
tp128
Rp129
ag10
(g14
S'\x1e\xe06\t:;d@'
p130
tp131
Rp132
ag10
(g14
S'\xee\x8a\xc9EH;W@'
p133
tp134
Rp135
ag10
(g14
S'\xf2\xa5\xc2G6xi@'
p136
tp137
Rp138
asssss.