(dp0
S'../Data/sqlite_43.csv'
p1
(dp2
S'../Data/sqlite_47.csv'
p3
(dp4
F0.2
(dp5
S'abs_res'
p6
(dp7
S'bellwether'
p8
(lp9
cnumpy.core.multiarray
scalar
p10
(cnumpy
dtype
p11
(S'f8'
p12
I0
I1
tp13
Rp14
(I3
S'<'
p15
NNNI-1
I-1
I0
tp16
bS'\xf6S\xe3\x05>M>A'
p17
tp18
Rp19
ag10
(g14
S'\x8c\xebQX\xf8M>A'
p20
tp21
Rp22
ag10
(g14
S'qL\xf0@^L>A'
p23
tp24
Rp25
ag10
(g14
S'\xde\xec\xc3G\xf0M>A'
p26
tp27
Rp28
ag10
(g14
S'k=\n\xb7\\L>A'
p29
tp30
Rp31
ag10
(g14
S'\xf9\xfd\xd4xoM>A'
p32
tp33
Rp34
ag10
(g14
S'\xc8\x92_\x0c\xfeK>A'
p35
tp36
Rp37
ag10
(g14
S'J\xd2\x94*\xa7L>A'
p38
tp39
Rp40
ag10
(g14
S'\x11\xd9\xcew#L>A'
p41
tp42
Rp43
ag10
(g14
S'hff\xe6\xffK>A'
p44
tp45
Rp46
ag10
(g14
S'XH\x9a\x92\xdfL>A'
p47
tp48
Rp49
ag10
(g14
S'\xbet\x938cL>A'
p50
tp51
Rp52
ag10
(g14
S'\x12\xf5oD\x97M>A'
p53
tp54
Rp55
ag10
(g14
S'@\xd2\x94j\x18M>A'
p56
tp57
Rp58
ag10
(g14
S'\xc3K7\xa9\xf2L>A'
p59
tp60
Rp61
ag10
(g14
S"?\x98'\xaa\xb5L>A"
p62
tp63
Rp64
ag10
(g14
S'\x94\xc2\xf5\xc8\x17L>A'
p65
tp66
Rp67
ag10
(g14
S'`;\xdf\x0f\x87L>A'
p68
tp69
Rp70
ag10
(g14
S'\xee\x98\xe0A\xe6L>A'
p71
tp72
Rp73
ag10
(g14
S'\xc2\xca\xa1%gL>A'
p74
tp75
Rp76
asS'target'
p77
(lp78
g10
(g14
S's\x12\x83\xc0\xca\xe9W@'
p79
tp80
Rp81
ag10
(g14
S'\x81\xc0\xca\xa1E\xf6X@'
p82
tp83
Rp84
ag10
(g14
S'\xb2t\x93\x18\x04\x96Y@'
p85
tp86
Rp87
ag10
(g14
S'J\xb6\xf3\xfd\xd4\x80V@'
p88
tp89
Rp90
ag10
(g14
S'H\x8d\x97n\x12WY@'
p91
tp92
Rp93
ag10
(g14
S'"\xdb\xf9~j\xd4X@'
p94
tp95
Rp96
ag10
(g14
S'\xeaQ\xb8\x1e\x85sZ@'
p97
tp98
Rp99
ag10
(g14
S'n=\n\xd7\xa3<Z@'
p100
tp101
Rp102
ag10
(g14
S'\x18\x04V\x0e-r\\@'
p103
tp104
Rp105
ag10
(g14
S'\x1d\xb0rh\x919Y@'
p106
tp107
Rp108
ag10
(g14
S'*\xdd$\x06\x81]Y@'
p109
tp110
Rp111
ag10
(g14
S'\x10X9\xb4\xc8~V@'
p112
tp113
Rp114
ag10
(g14
S'\xc2\x1e\x85\xebQX]@'
p115
tp116
Rp117
ag10
(g14
S'\x8bA`\xe5\xd0\xdaY@'
p118
tp119
Rp120
ag10
(g14
S'\x81\xc0\xca\xa1E&Y@'
p121
tp122
Rp123
ag10
(g14
S'x=\n\xd7\xa3@Y@'
p124
tp125
Rp126
ag10
(g14
S'\n\xd5x\xe9&1Y@'
p127
tp128
Rp129
ag10
(g14
S'\xe6|?5^\xeaW@'
p130
tp131
Rp132
ag10
(g14
S'\xad\xef\xa7\xc6K\xd7Y@'
p133
tp134
Rp135
ag10
(g14
S'\xe3\xfb\xa9\xf1\xd2\x05[@'
p136
tp137
Rp138
asssss.