(dp0
S'../Data/sqlite_4.csv'
p1
(dp2
S'../Data/sqlite_45.csv'
p3
(dp4
F0.35
(dp5
S'abs_res'
p6
(dp7
S'bellwether'
p8
(lp9
cnumpy.core.multiarray
scalar
p10
(cnumpy
dtype
p11
(S'f8'
p12
I0
I1
tp13
Rp14
(I3
S'<'
p15
NNNI-1
I-1
I0
tp16
bS'\x99\xd1\xdb\xb2\x9f<9A'
p17
tp18
Rp19
ag10
(g14
S'\xd2\xf7S\xc3\x1e;9A'
p20
tp21
Rp22
ag10
(g14
S'9^\xba\xe9\xc9<9A'
p23
tp24
Rp25
ag10
(g14
S'\xbet\x93\x98\x08=9A'
p26
tp27
Rp28
ag10
(g14
S'?|\x86\xfd\x81;9A'
p29
tp30
Rp31
ag10
(g14
S'@\xa5\xe2L\xb2=9A'
p32
tp33
Rp34
ag10
(g14
S'ruLP\x83<9A'
p35
tp36
Rp37
ag10
(g14
S'\x06V\x0eM\xef=9A'
p38
tp39
Rp40
ag10
(g14
S'\xb4\x9d\xef\xe7\xa7;9A'
p41
tp42
Rp43
ag10
(g14
S'F\xdfO-C<9A'
p44
tp45
Rp46
ag10
(g14
S'c;\xdfO;:9A'
p47
tp48
Rp49
ag10
(g14
S'\x89\t\x1e\xec\xa1:9A'
p50
tp51
Rp52
ag10
(g14
S'r\xf6\xe1\x13\xc799A'
p53
tp54
Rp55
ag10
(g14
S'k.$\xed\x9699A'
p56
tp57
Rp58
ag10
(g14
S'P\xffF\xe8\x85=9A'
p59
tp60
Rp61
ag10
(g14
S'\x97\xfcb\x89w<9A'
p62
tp63
Rp64
ag10
(g14
S'O\x0c\x02\x0b\xc9;9A'
p65
tp66
Rp67
ag10
(g14
S'b\xe5\xd0\xc2\xf3;9A'
p68
tp69
Rp70
ag10
(g14
S't\xda@G\x1c<9A'
p71
tp72
Rp73
ag10
(g14
S'\xb9\xb9\x90\x141=9A'
p74
tp75
Rp76
asS'target'
p77
(lp78
g10
(g14
S'L7\x89A`;h@'
p79
tp80
Rp81
ag10
(g14
S'\x06:m\xa0\xd3\xc6g@'
p82
tp83
Rp84
ag10
(g14
S'\xa8\x1cZd;5h@'
p85
tp86
Rp87
ag10
(g14
S'\x9c\xc4 \xb0r\xceh@'
p88
tp89
Rp90
ag10
(g14
S'\x8a\x97n\x12\x83\xe0h@'
p91
tp92
Rp93
ag10
(g14
S'+\x87\x16\xd9\xceOi@'
p94
tp95
Rp96
ag10
(g14
S'\xb6\xf5(\\\x8fxh@'
p97
tp98
Rp99
ag10
(g14
S'A\n\xd7\xa3p\x95g@'
p100
tp101
Rp102
ag10
(g14
S'"\xdb\xf9~j\xa2g@'
p103
tp104
Rp105
ag10
(g14
S'I\x8bl\xe7\xfb\x99h@'
p106
tp107
Rp108
ag10
(g14
S'{?5^\xba1h@'
p109
tp110
Rp111
ag10
(g14
S'\xe4O\x8d\x97nvi@'
p112
tp113
Rp114
ag10
(g14
S'\xf5\xfd\xd4x\xe9\x86f@'
p115
tp116
Rp117
ag10
(g14
S'\xa8\xc6K7\x89#g@'
p118
tp119
Rp120
ag10
(g14
S'\xaerh\x91\xed*g@'
p121
tp122
Rp123
ag10
(g14
S'2\xb2\x9d\xef\xa78g@'
p124
tp125
Rp126
ag10
(g14
S'o;\xdfO\x8d\x0fh@'
p127
tp128
Rp129
ag10
(g14
S'\xc6t\x93\x18\x04@f@'
p130
tp131
Rp132
ag10
(g14
S'\xabG\xe1z\x14*g@'
p133
tp134
Rp135
ag10
(g14
S'\xc7\xf5(\\\x8ffh@'
p136
tp137
Rp138
asssss.