(dp0
S'../Data/sqlite_55.csv'
p1
(dp2
S'../Data/sqlite_97.csv'
p3
(dp4
F0.05
(dp5
S'mmre'
p6
(dp7
S'bellwether'
p8
(lp9
cnumpy.core.multiarray
scalar
p10
(cnumpy
dtype
p11
(S'f8'
p12
I0
I1
tp13
Rp14
(I3
S'<'
p15
NNNI-1
I-1
I0
tp16
bS'\xab=\x07L\xabA5@'
p17
tp18
Rp19
ag10
(g14
S'IV\n\xfe\xc7p5@'
p20
tp21
Rp22
ag10
(g14
S'\xa4\xdf"\xb9r\x1c5@'
p23
tp24
Rp25
ag10
(g14
S'\t\xc0N\x08&55@'
p26
tp27
Rp28
ag10
(g14
S'\x0bi\x04u\xe7p5@'
p29
tp30
Rp31
ag10
(g14
S'3\xed]\xee\xdc35@'
p32
tp33
Rp34
ag10
(g14
S'8\x8d\x97\xc0\xca(5@'
p35
tp36
Rp37
ag10
(g14
S'\xa4\x897\x9d\x9a\xfd4@'
p38
tp39
Rp40
ag10
(g14
S'\x9d%\xd6{q\x015@'
p41
tp42
Rp43
ag10
(g14
S' \x8e\t\xf5\xc4U5@'
p44
tp45
Rp46
ag10
(g14
S'H\xc5\xb4V]15@'
p47
tp48
Rp49
ag10
(g14
S"\xe54\xc7Gq'5@"
p50
tp51
Rp52
ag10
(g14
S'\xe9I\xd5\x01\x85|5@'
p53
tp54
Rp55
ag10
(g14
S'y\xdb\x88K\xae`5@'
p56
tp57
Rp58
ag10
(g14
S'\xa7\xa8\x1dC\xab\xf34@'
p59
tp60
Rp61
ag10
(g14
S'\xc2B#\xbc\x8b%5@'
p62
tp63
Rp64
ag10
(g14
S'\xcf\xc2jjeK5@'
p65
tp66
Rp67
ag10
(g14
S'r\x96\x15 &,5@'
p68
tp69
Rp70
ag10
(g14
S'}C4\x1aa15@'
p71
tp72
Rp73
ag10
(g14
S'm\xf0\xb5\xb3\xcfD5@'
p74
tp75
Rp76
asS'target'
p77
(lp78
g10
(g14
S'8\x89\xd2_\xf31E@'
p79
tp80
Rp81
ag10
(g14
S'=Mw\xab\xfc\xd6@@'
p82
tp83
Rp84
ag10
(g14
S'~7u\xa6y\xbcT@'
p85
tp86
Rp87
ag10
(g14
S'\xfc\x9a\r\x15O\xcf]@'
p88
tp89
Rp90
ag10
(g14
S'\x00h\x9ee\nb?@'
p91
tp92
Rp93
ag10
(g14
S'\xad~\xb6\xd8p\xcb@@'
p94
tp95
Rp96
ag10
(g14
S'\xa4\\\xf1i\x8ddY@'
p97
tp98
Rp99
ag10
(g14
S'\xca\x9a\xbb`\xf1\xf6S@'
p100
tp101
Rp102
ag10
(g14
S'\x12P:C\xfd@D@'
p103
tp104
Rp105
ag10
(g14
S'\xde6\x0e\x04t\xe1Y@'
p106
tp107
Rp108
ag10
(g14
S'[<Y\xb9\x1d\xbb[@'
p109
tp110
Rp111
ag10
(g14
S'o\xa6$\x1b\xfa\x92]@'
p112
tp113
Rp114
ag10
(g14
S'\xcbFZ\xc4E\xda@@'
p115
tp116
Rp117
ag10
(g14
S'sY\x80\xb5\x1bD\\@'
p118
tp119
Rp120
ag10
(g14
S'\r\x86D\xecq\xbbb@'
p121
tp122
Rp123
ag10
(g14
S'e\xb2\x8d\xc0\x9dx]@'
p124
tp125
Rp126
ag10
(g14
S'5CYP\xc8pB@'
p127
tp128
Rp129
ag10
(g14
S'\x83\xa8}\xcffz\\@'
p130
tp131
Rp132
ag10
(g14
S'\xfe\xa2AzGiD@'
p133
tp134
Rp135
ag10
(g14
S'g\xb7\x04@h\xedB@'
p136
tp137
Rp138
asssss.