(dp0
S'../Data/sqlite_81.csv'
p1
(dp2
S'../Data/sqlite_95.csv'
p3
(dp4
F0.15
(dp5
S'mmre'
p6
(dp7
S'bellwether'
p8
(lp9
cnumpy.core.multiarray
scalar
p10
(cnumpy
dtype
p11
(S'f8'
p12
I0
I1
tp13
Rp14
(I3
S'<'
p15
NNNI-1
I-1
I0
tp16
bS';~\x931r\\S@'
p17
tp18
Rp19
ag10
(g14
S'\x07b\xc9\x83\xe2aS@'
p20
tp21
Rp22
ag10
(g14
S'\x96\xb5\xdb&\xf4aS@'
p23
tp24
Rp25
ag10
(g14
S'\x82\xa0-,\xde^S@'
p26
tp27
Rp28
ag10
(g14
S';\tN)\x12_S@'
p29
tp30
Rp31
ag10
(g14
S'\xaf\xb1.\xa5,gS@'
p32
tp33
Rp34
ag10
(g14
S'2\x04hQ\xfcbS@'
p35
tp36
Rp37
ag10
(g14
S'\xaf\x00\x99\x9daUS@'
p38
tp39
Rp40
ag10
(g14
S'\xc7\xe0n\xa9X`S@'
p41
tp42
Rp43
ag10
(g14
S'\xa8\xa6!\x83\x1bWS@'
p44
tp45
Rp46
ag10
(g14
S'B\xef\x0e\xe8\\]S@'
p47
tp48
Rp49
ag10
(g14
S'\xb6\x03=\xdcc]S@'
p50
tp51
Rp52
ag10
(g14
S'op\x83\xc2.\\S@'
p53
tp54
Rp55
ag10
(g14
S'^\x9b\xfcJ\xad`S@'
p56
tp57
Rp58
ag10
(g14
S'\x07\xc4\xc8!iiS@'
p59
tp60
Rp61
ag10
(g14
S'\x11\x8b?\xd9FhS@'
p62
tp63
Rp64
ag10
(g14
S'\x82\x1c\xeb#\xdd[S@'
p65
tp66
Rp67
ag10
(g14
S'\xb1\x99\x82\x83\x1fiS@'
p68
tp69
Rp70
ag10
(g14
S'&2\x98\xdf\xedeS@'
p71
tp72
Rp73
ag10
(g14
S'J\xdd0\xfc&qS@'
p74
tp75
Rp76
asS'target'
p77
(lp78
g10
(g14
S'\xa3\x04\x8f\x92k\x87A@'
p79
tp80
Rp81
ag10
(g14
S'\xb6\xc8\xce1\x8c\x13<@'
p82
tp83
Rp84
ag10
(g14
S'LJg\xf5\x9e\x92A@'
p85
tp86
Rp87
ag10
(g14
S'\xb3\x99o\xefOSB@'
p88
tp89
Rp90
ag10
(g14
S'\n_\xb2A\x11\xcaE@'
p91
tp92
Rp93
ag10
(g14
S'\xfb/n\xd2\xa5\x99A@'
p94
tp95
Rp96
ag10
(g14
S'\xc4Nr\x9d\xa3\xdf@@'
p97
tp98
Rp99
ag10
(g14
S'T\n\xeeK\xf48A@'
p100
tp101
Rp102
ag10
(g14
S'\xd5/EBP\x92>@'
p103
tp104
Rp105
ag10
(g14
S'\xa9\x88\x13|K">@'
p106
tp107
Rp108
ag10
(g14
S'\x8au\xb4!\xa6\xbaB@'
p109
tp110
Rp111
ag10
(g14
S'\xc2uk\xfaR8D@'
p112
tp113
Rp114
ag10
(g14
S'\x1d\xf9\x91\xd16!F@'
p115
tp116
Rp117
ag10
(g14
S'\xc6<\xea\x08AtA@'
p118
tp119
Rp120
ag10
(g14
S'5f9\xf5\x839@@'
p121
tp122
Rp123
ag10
(g14
S'\xf2\x9b\xd2=PB>@'
p124
tp125
Rp126
ag10
(g14
S'\xe1g\x84\x06v\x97C@'
p127
tp128
Rp129
ag10
(g14
S'?\xd6_\x0c\xba\xb9@@'
p130
tp131
Rp132
ag10
(g14
S'\x9a\x8b\\\xe9\x9b\xe6@@'
p133
tp134
Rp135
ag10
(g14
S'\x8d\xe8\xca\xadPPA@'
p136
tp137
Rp138
asssss.