(dp0
S'../Data/sqlite_6.csv'
p1
(dp2
S'../Data/sqlite_76.csv'
p3
(dp4
F0.15
(dp5
S'mmre'
p6
(dp7
S'bellwether'
p8
(lp9
cnumpy.core.multiarray
scalar
p10
(cnumpy
dtype
p11
(S'f8'
p12
I0
I1
tp13
Rp14
(I3
S'<'
p15
NNNI-1
I-1
I0
tp16
bS'pCf\xed\\\xebM@'
p17
tp18
Rp19
ag10
(g14
S'\x9c4\x0e\xa49\xf4M@'
p20
tp21
Rp22
ag10
(g14
S'\x88\x07\xd4I\xed\xe9M@'
p23
tp24
Rp25
ag10
(g14
S'\xf0i\xf7o1\xf2M@'
p26
tp27
Rp28
ag10
(g14
S'\xfc6\n\xd8\xda\xf4M@'
p29
tp30
Rp31
ag10
(g14
S'\xe0\xd0~\xfb\x0b\xfbM@'
p32
tp33
Rp34
ag10
(g14
S'v~\r-;\xf2M@'
p35
tp36
Rp37
ag10
(g14
S'_0J3\x8e\xf0M@'
p38
tp39
Rp40
ag10
(g14
S'\xf5\xf1\xad\x92\xbd\xeeM@'
p41
tp42
Rp43
ag10
(g14
S'\x11\xba\xeeG\xba\xe4M@'
p44
tp45
Rp46
ag10
(g14
S'#x\x8ah\xff\xfeM@'
p47
tp48
Rp49
ag10
(g14
S'`\xf6(0\x0e\xdeM@'
p50
tp51
Rp52
ag10
(g14
S'Nb\x90:~\xf6M@'
p53
tp54
Rp55
ag10
(g14
S'\x841\xd2Q,\xe1M@'
p56
tp57
Rp58
ag10
(g14
S'}\xc6T\xee&\xf9M@'
p59
tp60
Rp61
ag10
(g14
S')\xa4\xd1t\xa1\xf8M@'
p62
tp63
Rp64
ag10
(g14
S'rL\xc7I\xde\xe1M@'
p65
tp66
Rp67
ag10
(g14
S'\x9b\x96\x8a\x04\xc6\xf5M@'
p68
tp69
Rp70
ag10
(g14
S'\xe2\nD8\x02\xf6M@'
p71
tp72
Rp73
ag10
(g14
S'7\x9e\x87\x0e]\xe7M@'
p74
tp75
Rp76
asS'target'
p77
(lp78
g10
(g14
S'"\x94\xe0\x9e\x17E1@'
p79
tp80
Rp81
ag10
(g14
S"\x14'\xdc\\6\xcd1@"
p82
tp83
Rp84
ag10
(g14
S'3wY\xd9\xaa\xc50@'
p85
tp86
Rp87
ag10
(g14
S'\xf0\xe0g\xc8|J0@'
p88
tp89
Rp90
ag10
(g14
S'\xf1\nh\xe9\x12\x1e1@'
p91
tp92
Rp93
ag10
(g14
S'-qPI\xf3\x021@'
p94
tp95
Rp96
ag10
(g14
S'\xf9k\xf5\n\xdc>1@'
p97
tp98
Rp99
ag10
(g14
S'\x9b3F\x10\xa1\xeb/@'
p100
tp101
Rp102
ag10
(g14
S'r+\x1e\x88\xda=1@'
p103
tp104
Rp105
ag10
(g14
S'\x12\xd4j+\x89\x9d1@'
p106
tp107
Rp108
ag10
(g14
S"\xf4[QV\xf0'1@"
p109
tp110
Rp111
ag10
(g14
S'da>\x82y^2@'
p112
tp113
Rp114
ag10
(g14
S'~ws\\IP1@'
p115
tp116
Rp117
ag10
(g14
S'Y\t\xdc7\xc0D1@'
p118
tp119
Rp120
ag10
(g14
S'\xf9\xe5\xe0\x13{42@'
p121
tp122
Rp123
ag10
(g14
S'\xfc\x1b\x1e\xb1`B3@'
p124
tp125
Rp126
ag10
(g14
S'\xd9\xa0\x10{\xb0]1@'
p127
tp128
Rp129
ag10
(g14
S'\xa1\tc\x9d(\xf50@'
p130
tp131
Rp132
ag10
(g14
S'\xd8\x01\xa1\x85|]2@'
p133
tp134
Rp135
ag10
(g14
S'\xef6\xd8\xf5\xfe|0@'
p136
tp137
Rp138
asssss.