(dp0
S'../Data/sqlite_42.csv'
p1
(dp2
S'../Data/sqlite_94.csv'
p3
(dp4
F0.4
(dp5
S'mmre'
p6
(dp7
S'bellwether'
p8
(lp9
cnumpy.core.multiarray
scalar
p10
(cnumpy
dtype
p11
(S'f8'
p12
I0
I1
tp13
Rp14
(I3
S'<'
p15
NNNI-1
I-1
I0
tp16
bS'\x911(\x07\xffjX@'
p17
tp18
Rp19
ag10
(g14
S'\xbb\xd4\x08~\\pX@'
p20
tp21
Rp22
ag10
(g14
S't]\x12@dlX@'
p23
tp24
Rp25
ag10
(g14
S'2>\xb1\rljX@'
p26
tp27
Rp28
ag10
(g14
S'\x88\x1e\x15\xd5LnX@'
p29
tp30
Rp31
ag10
(g14
S'R\x88\xa2\xaf\x9cmX@'
p32
tp33
Rp34
ag10
(g14
S'}l\xea\xdbQnX@'
p35
tp36
Rp37
ag10
(g14
S'\x1a0\xe0\xe2\xddmX@'
p38
tp39
Rp40
ag10
(g14
S'\xaf\x89K\x9b\xe9lX@'
p41
tp42
Rp43
ag10
(g14
S'5_\xa97]lX@'
p44
tp45
Rp46
ag10
(g14
S'x\xac\xd1\xb8\toX@'
p47
tp48
Rp49
ag10
(g14
S'U\xf1e\x95TmX@'
p50
tp51
Rp52
ag10
(g14
S'\x97&n\x90@mX@'
p53
tp54
Rp55
ag10
(g14
S'\xc0$Bo3mX@'
p56
tp57
Rp58
ag10
(g14
S'\xb09\xcfLRmX@'
p59
tp60
Rp61
ag10
(g14
S'(Y\x8a\xdcQkX@'
p62
tp63
Rp64
ag10
(g14
S'\xce\xc2\xd1\xfe\xf5lX@'
p65
tp66
Rp67
ag10
(g14
S"\x0b'F>]oX@"
p68
tp69
Rp70
ag10
(g14
S'\xb3\x9d\t=\xdblX@'
p71
tp72
Rp73
ag10
(g14
S'\xa8\xed\xbf\xf6\x8clX@'
p74
tp75
Rp76
asS'target'
p77
(lp78
g10
(g14
S'\x83\\X<\x02vR@'
p79
tp80
Rp81
ag10
(g14
S'+G\xd7\xa3\xf2AN@'
p82
tp83
Rp84
ag10
(g14
S'%\xa7X\x8dz\xfdM@'
p85
tp86
Rp87
ag10
(g14
S'\xf8Z\xd2\xb2\xd5WS@'
p88
tp89
Rp90
ag10
(g14
S'\xf9\nK;\x82\x10P@'
p91
tp92
Rp93
ag10
(g14
S'G\xe7\x9e\xbd\x93\xf0M@'
p94
tp95
Rp96
ag10
(g14
S't\x02rb\xe7"P@'
p97
tp98
Rp99
ag10
(g14
S';\xf84\xf8\\\xc6R@'
p100
tp101
Rp102
ag10
(g14
S'\xc7\xc4\xea\xb6\x0e\x9bS@'
p103
tp104
Rp105
ag10
(g14
S'q\xb4}\xc6\x8a\x0fR@'
p106
tp107
Rp108
ag10
(g14
S'\x11\x17U\xa4\x80\x8bI@'
p109
tp110
Rp111
ag10
(g14
S'\xc2D\xac\xae`\xd5M@'
p112
tp113
Rp114
ag10
(g14
S'\xa5\x99\x88\x11\x0f\x88I@'
p115
tp116
Rp117
ag10
(g14
S'\x929\xfa\x0b\xf6zV@'
p118
tp119
Rp120
ag10
(g14
S'`\x1ao\x07U\x87K@'
p121
tp122
Rp123
ag10
(g14
S'\x08\xda\x8d\xa3X~T@'
p124
tp125
Rp126
ag10
(g14
S'T\xbb*\x1c\x1a7U@'
p127
tp128
Rp129
ag10
(g14
S'\x8bR\x14\xbdxXV@'
p130
tp131
Rp132
ag10
(g14
S'W\x041\xbb\xc5\x1bP@'
p133
tp134
Rp135
ag10
(g14
S'\x8f(_q4\xa8U@'
p136
tp137
Rp138
asssss.