(dp0
S'../Data/sqlite_65.csv'
p1
(dp2
S'../Data/sqlite_59.csv'
p3
(dp4
F0.2
(dp5
S'mmre'
p6
(dp7
S'bellwether'
p8
(lp9
cnumpy.core.multiarray
scalar
p10
(cnumpy
dtype
p11
(S'f8'
p12
I0
I1
tp13
Rp14
(I3
S'<'
p15
NNNI-1
I-1
I0
tp16
bS'\xbc \x01\xc6sVV@'
p17
tp18
Rp19
ag10
(g14
S'~*\xe3)<SV@'
p20
tp21
Rp22
ag10
(g14
S'h\xf3\xa6\xcb\x9eTV@'
p23
tp24
Rp25
ag10
(g14
S'\xd0\x05\x16z\xa7XV@'
p26
tp27
Rp28
ag10
(g14
S'\xbc" c\xefXV@'
p29
tp30
Rp31
ag10
(g14
S'0C\xe9L\xb8VV@'
p32
tp33
Rp34
ag10
(g14
S'\x90\x06\xd2BaWV@'
p35
tp36
Rp37
ag10
(g14
S'\x85\xbf\xf8#\x89TV@'
p38
tp39
Rp40
ag10
(g14
S'n\xaf\xc4\xbaAUV@'
p41
tp42
Rp43
ag10
(g14
S'\x80\xc2\x80A\xa9WV@'
p44
tp45
Rp46
ag10
(g14
S'\xe6P\xeeV\x0fXV@'
p47
tp48
Rp49
ag10
(g14
S'8\x83\x01\xd3\xcfWV@'
p50
tp51
Rp52
ag10
(g14
S'\xca\xc3\x92\x8eXVV@'
p53
tp54
Rp55
ag10
(g14
S'P\xa3\x82(UVV@'
p56
tp57
Rp58
ag10
(g14
S'x\xe3\xa6\xb1pWV@'
p59
tp60
Rp61
ag10
(g14
S'\xc7\xc3\x97\x808WV@'
p62
tp63
Rp64
ag10
(g14
S't\n\x94\xee\x08UV@'
p65
tp66
Rp67
ag10
(g14
S'\xfb\xac\xf7Q\xe7WV@'
p68
tp69
Rp70
ag10
(g14
S'\xb5\xee\xaa\xaf\xabWV@'
p71
tp72
Rp73
ag10
(g14
S',Mm\x0f\xa5UV@'
p74
tp75
Rp76
asS'target'
p77
(lp78
g10
(g14
S" +{7\x163'@"
p79
tp80
Rp81
ag10
(g14
S"\xee\xd3\xfe\xbc\xfa\xed'@"
p82
tp83
Rp84
ag10
(g14
S'1T\xed<\xf2\x95(@'
p85
tp86
Rp87
ag10
(g14
S'\xb6\r\xaa@[/%@'
p88
tp89
Rp90
ag10
(g14
S'5\xc6f\xbaxd&@'
p91
tp92
Rp93
ag10
(g14
S'<\xbdl\x13\xdd\xf6%@'
p94
tp95
Rp96
ag10
(g14
S'<\xc6\x12Ru\x86%@'
p97
tp98
Rp99
ag10
(g14
S'B\xc4N$Hs&@'
p100
tp101
Rp102
ag10
(g14
S'\n)\x9d$F\x89&@'
p103
tp104
Rp105
ag10
(g14
S'<\xe2H\xc9\xf8`&@'
p106
tp107
Rp108
ag10
(g14
S'L"\xc5kby&@'
p109
tp110
Rp111
ag10
(g14
S'Xs\xca\xc8/\xb0&@'
p112
tp113
Rp114
ag10
(g14
S'\xa8\x99_\xde\x02 %@'
p115
tp116
Rp117
ag10
(g14
S'\xec\xadK\xd9\x8f9%@'
p118
tp119
Rp120
ag10
(g14
S"\xe6sP?y\n'@"
p121
tp122
Rp123
ag10
(g14
S'\xb8\xd2hB\xb6\xde&@'
p124
tp125
Rp126
ag10
(g14
S'\x1e\xbc\xe0b0\xaf$@'
p127
tp128
Rp129
ag10
(g14
S'\xd6\xe5\x7f\xfe\x90\x19&@'
p130
tp131
Rp132
ag10
(g14
S'k\x97w\n\xc9I%@'
p133
tp134
Rp135
ag10
(g14
S'\xc6>\x05\x11\xf2\xbd%@'
p136
tp137
Rp138
asssss.