(dp0
S'../Data/sqlite_29.csv'
p1
(dp2
S'../Data/sqlite_31.csv'
p3
(dp4
F0.3
(dp5
S'abs_res'
p6
(dp7
S'bellwether'
p8
(lp9
cnumpy.core.multiarray
scalar
p10
(cnumpy
dtype
p11
(S'f8'
p12
I0
I1
tp13
Rp14
(I3
S'<'
p15
NNNI-1
I-1
I0
tp16
bS'\x0f\x83\xc0\xea\x8f??A'
p17
tp18
Rp19
ag10
(g14
S'+\xb2\x9d/KA?A'
p20
tp21
Rp22
ag10
(g14
S'\xcev\xbe\x1f\x1dA?A'
p23
tp24
Rp25
ag10
(g14
S'\x05\x0f\xe6\t\r>?A'
p26
tp27
Rp28
ag10
(g14
S'\x97\xfcb\t\xfa??A'
p29
tp30
Rp31
ag10
(g14
S'\xf3\xd2M\xe2HA?A'
p32
tp33
Rp34
ag10
(g14
S'\x82\xe9&Q\xaf??A'
p35
tp36
Rp37
ag10
(g14
S'\'""b\x87@?A'
p38
tp39
Rp40
ag10
(g14
S'\xaf\xb9\x90\x14QA?A'
p41
tp42
Rp43
ag10
(g14
S'}]\x01\xd2\xdb??A'
p44
tp45
Rp46
ag10
(g14
S'\xdc@\xa7\xcd\xe2>?A'
p47
tp48
Rp49
ag10
(g14
S'\x93}\xf8\xcc\tC?A'
p50
tp51
Rp52
ag10
(g14
S's\xe7\xfbI,??A'
p53
tp54
Rp55
ag10
(g14
S'\xa6\x7f#\xd4^B?A'
p56
tp57
Rp58
ag10
(g14
S"\x1c<\x98'+A?A"
p59
tp60
Rp61
ag10
(g14
S'V*\xce\x1e\x93??A'
p62
tp63
Rp64
ag10
(g14
S'\xbaV\xc7\x84\xdc@?A'
p65
tp66
Rp67
ag10
(g14
S'\xb4\xe6B\xd2\x12>?A'
p68
tp69
Rp70
ag10
(g14
S'\xea\n\x90\xfbyA?A'
p71
tp72
Rp73
ag10
(g14
S'O7\x89A9B?A'
p74
tp75
Rp76
asS'target'
p77
(lp78
g10
(g14
S'\x0cX9\xb4\xc8\xfea@'
p79
tp80
Rp81
ag10
(g14
S'h\x91\xed|?\xb3b@'
p82
tp83
Rp84
ag10
(g14
S'\xc8v\xbe\x9f\x1agb@'
p85
tp86
Rp87
ag10
(g14
S'^\xe5\xd0"\xdb{a@'
p88
tp89
Rp90
ag10
(g14
S'\x89\xc2\xf5(\\}a@'
p91
tp92
Rp93
ag10
(g14
S'dffff\x02a@'
p94
tp95
Rp96
ag10
(g14
S'\xb0G\xe1z\x14\xaaa@'
p97
tp98
Rp99
ag10
(g14
S'\x1f\x06\x81\x95C\xb9`@'
p100
tp101
Rp102
ag10
(g14
S'\x13\x83\xc0\xca\xa1\x13b@'
p103
tp104
Rp105
ag10
(g14
S'\xf1~j\xbct\x05a@'
p106
tp107
Rp108
ag10
(g14
S'\x0e\x02+\x87\x16[a@'
p109
tp110
Rp111
ag10
(g14
S'\xd6x\xe9&1\x14b@'
p112
tp113
Rp114
ag10
(g14
S'=\xe1z\x14\xae\xcba@'
p115
tp116
Rp117
ag10
(g14
S'\x06V\x0e-\xb2\xdda@'
p118
tp119
Rp120
ag10
(g14
S'\xfa~j\xbct\xc3`@'
p121
tp122
Rp123
ag10
(g14
S'\xa2\x1a/\xdd$\xa6a@'
p124
tp125
Rp126
ag10
(g14
S'\x0e\xd7\xa3p=la@'
p127
tp128
Rp129
ag10
(g14
S'\x86\xebQ\xb8\x1e\xc3`@'
p130
tp131
Rp132
ag10
(g14
S'\xe3z\x14\xaeG\xbba@'
p133
tp134
Rp135
ag10
(g14
S'\xd8\xf9~j\xbc\x86a@'
p136
tp137
Rp138
asssss.