(dp0
S'../Data/sqlite_23.csv'
p1
(dp2
S'../Data/sqlite_97.csv'
p3
(dp4
F0.05
(dp5
S'mmre'
p6
(dp7
S'bellwether'
p8
(lp9
cnumpy.core.multiarray
scalar
p10
(cnumpy
dtype
p11
(S'f8'
p12
I0
I1
tp13
Rp14
(I3
S'<'
p15
NNNI-1
I-1
I0
tp16
bS'0\xac\x86\x93\xc8>X@'
p17
tp18
Rp19
ag10
(g14
S'\x8b\xda4\xe2\x9a?X@'
p20
tp21
Rp22
ag10
(g14
S'q8J>(?X@'
p23
tp24
Rp25
ag10
(g14
S'\xbb4\x86E6?X@'
p26
tp27
Rp28
ag10
(g14
S'\xa6C\r\xb7\x16?X@'
p29
tp30
Rp31
ag10
(g14
S'\xb1t\xd4`J?X@'
p32
tp33
Rp34
ag10
(g14
S'\nW\xf1\x16-?X@'
p35
tp36
Rp37
ag10
(g14
S'b*\xc9|\xe2?X@'
p38
tp39
Rp40
ag10
(g14
S'2\xca\xad\\e@X@'
p41
tp42
Rp43
ag10
(g14
S'\\\xc6\x07@m?X@'
p44
tp45
Rp46
ag10
(g14
S')\x19\x8dca?X@'
p47
tp48
Rp49
ag10
(g14
S'\xba\xdc\xad\xe7j?X@'
p50
tp51
Rp52
ag10
(g14
S'\x8a9V\xbf[?X@'
p53
tp54
Rp55
ag10
(g14
S'\xfb\xeb\n\xf3\xfb?X@'
p56
tp57
Rp58
ag10
(g14
S'\x08z\xfb\tP?X@'
p59
tp60
Rp61
ag10
(g14
S'\x1fw\x85\x07*?X@'
p62
tp63
Rp64
ag10
(g14
S'w\xf6yYN?X@'
p65
tp66
Rp67
ag10
(g14
S'\xee\xd2\xf3\x9a\xa2?X@'
p68
tp69
Rp70
ag10
(g14
S'\x85\x83\x93u\xde?X@'
p71
tp72
Rp73
ag10
(g14
S'\x10\x93\xeb\x984?X@'
p74
tp75
Rp76
asS'target'
p77
(lp78
g10
(g14
S'\xe4\xf5\xd8w=+`@'
p79
tp80
Rp81
ag10
(g14
S'JX`\xa5y\x07B@'
p82
tp83
Rp84
ag10
(g14
S'(\tuo\xfd\xabS@'
p85
tp86
Rp87
ag10
(g14
S'\xd1\x87\x93\xd5U\xe1W@'
p88
tp89
Rp90
ag10
(g14
S'pJ\x1a~\x7f\x93Y@'
p91
tp92
Rp93
ag10
(g14
S'\xc1$\x7fg\xcb\x0bh@'
p94
tp95
Rp96
ag10
(g14
S'\xa0\x12g\xf5j\xb7U@'
p97
tp98
Rp99
ag10
(g14
S'G\xfbD\x92,\x14c@'
p100
tp101
Rp102
ag10
(g14
S'\xe5\x98\x9b\x86\x8c\x8d@@'
p103
tp104
Rp105
ag10
(g14
S'\n\xa5\x80\xd1\xee|D@'
p106
tp107
Rp108
ag10
(g14
S'C\x00\xca\x1c\x9c/d@'
p109
tp110
Rp111
ag10
(g14
S'\x19u\xd6\xe1\xfa E@'
p112
tp113
Rp114
ag10
(g14
S'\xe0$\xde\xc4\xbdBT@'
p115
tp116
Rp117
ag10
(g14
S'\x93\xcd\xb0\x97\xc2(@@'
p118
tp119
Rp120
ag10
(g14
S'\x06\xda,\x95\xc8eO@'
p121
tp122
Rp123
ag10
(g14
S"\xda\xd5\xd2O\xba'\\@"
p124
tp125
Rp126
ag10
(g14
S'\xb1d\xce\x16J\xed^@'
p127
tp128
Rp129
ag10
(g14
S'"\xeb&\xa1\xdaA]@'
p130
tp131
Rp132
ag10
(g14
S'\xf9\xa3u\xc3B\xf5B@'
p133
tp134
Rp135
ag10
(g14
S' \x05\xb1+\x10PR@'
p136
tp137
Rp138
asssss.