(dp0
S'../Data/sqlite_74.csv'
p1
(dp2
S'../Data/sqlite_11.csv'
p3
(dp4
F0.35
(dp5
S'abs_res'
p6
(dp7
S'bellwether'
p8
(lp9
cnumpy.core.multiarray
scalar
p10
(cnumpy
dtype
p11
(S'f8'
p12
I0
I1
tp13
Rp14
(I3
S'<'
p15
NNNI-1
I-1
I0
tp16
bS'K~\xb1\x94\x17zeA'
p17
tp18
Rp19
ag10
(g14
S'\x94_,y\xd2|eA'
p20
tp21
Rp22
ag10
(g14
S'\x0fK~y\x90geA'
p23
tp24
Rp25
ag10
(g14
S'&\xf9\xc5:A{eA'
p26
tp27
Rp28
ag10
(g14
S's=\n\xe7\x12ieA'
p29
tp30
Rp31
ag10
(g14
S'~\xebQ\xc0nreA'
p32
tp33
Rp34
ag10
(g14
S'\xb1\xe4\x17+tqeA'
p35
tp36
Rp37
ag10
(g14
S'\xff\x9c6X\xa8yeA'
p38
tp39
Rp40
ag10
(g14
S'\x976\xd0\x91lneA'
p41
tp42
Rp43
ag10
(g14
S'\x04\x9d6hhkeA'
p44
tp45
Rp46
ag10
(g14
S'\xdb@\xa7E9~eA'
p47
tp48
Rp49
ag10
(g14
S'\xcai\x03\xadmweA'
p50
tp51
Rp52
ag10
(g14
S'IDD\xcc3teA'
p53
tp54
Rp55
ag10
(g14
S')\\\x8f\xd2\xd8qeA'
p56
tp57
Rp58
ag10
(g14
S'&\xbfX\xea\x8bweA'
p59
tp60
Rp61
ag10
(g14
S'}\xb1\xe4\xbf\tkeA'
p62
tp63
Rp64
ag10
(g14
S'f\xc9/\x0e\xedueA'
p65
tp66
Rp67
ag10
(g14
S'+\\\x8f\xb2\x98{eA'
p68
tp69
Rp70
ag10
(g14
S'hffF\x11~eA'
p71
tp72
Rp73
ag10
(g14
S'233[\x93yeA'
p74
tp75
Rp76
asS'target'
p77
(lp78
g10
(g14
S'\xd8\xa3p=\n\xda\xa9@'
p79
tp80
Rp81
ag10
(g14
S'ifff\xe6\t\xaa@'
p82
tp83
Rp84
ag10
(g14
S' \xaeG\xe1\xfa\xa7\xab@'
p85
tp86
Rp87
ag10
(g14
S'#\x85\xebQ\xf8\x99\xa9@'
p88
tp89
Rp90
ag10
(g14
S'\x9f\xc2\xf5(\\s\xa8@'
p91
tp92
Rp93
ag10
(g14
S'+3333\x0e\xab@'
p94
tp95
Rp96
ag10
(g14
S's=\n\xd7#\xd4\xa7@'
p97
tp98
Rp99
ag10
(g14
S'N\xe1z\x14.r\xa7@'
p100
tp101
Rp102
ag10
(g14
S'{\x14\xaeG\xa1\xb4\xab@'
p103
tp104
Rp105
ag10
(g14
S'\xf9\xff\xff\xff\xff\x97\xae@'
p106
tp107
Rp108
ag10
(g14
S'@\n\xd7\xa30E\xb1@'
p109
tp110
Rp111
ag10
(g14
S'\xa3p=\n\xd7\xe0\xaa@'
p112
tp113
Rp114
ag10
(g14
S'\x0e\xaeG\xe1z\x9a\xaa@'
p115
tp116
Rp117
ag10
(g14
S'\xcc\xcc\xcc\xcc\x0c\x91\xa7@'
p118
tp119
Rp120
ag10
(g14
S'\xc6\xf5(\\Oi\xa8@'
p121
tp122
Rp123
ag10
(g14
S'P\xb8\x1e\x85+\x03\xaa@'
p124
tp125
Rp126
ag10
(g14
S'2333\xf3\x98\xb0@'
p127
tp128
Rp129
ag10
(g14
S'S\xb8\x1e\x85k*\xa8@'
p130
tp131
Rp132
ag10
(g14
S'\xd4\xcc\xcc\xccLo\xad@'
p133
tp134
Rp135
ag10
(g14
S'\xc3\xf5(\\\x8f\xa7\xab@'
p136
tp137
Rp138
asssss.