(dp0
S'../Data/sqlite_80.csv'
p1
(dp2
S'../Data/sqlite_88.csv'
p3
(dp4
F0.1
(dp5
S'abs_res'
p6
(dp7
S'bellwether'
p8
(lp9
cnumpy.core.multiarray
scalar
p10
(cnumpy
dtype
p11
(S'f8'
p12
I0
I1
tp13
Rp14
(I3
S'<'
p15
NNNI-1
I-1
I0
tp16
bS'\xaeG\xe1R\x8e`cA'
p17
tp18
Rp19
ag10
(g14
S'u=\n\xff\x8aZcA'
p20
tp21
Rp22
ag10
(g14
S'.\x96\xfc\x06\x10VcA'
p23
tp24
Rp25
ag10
(g14
S'\t:m\xe8\xd1kcA'
p26
tp27
Rp28
ag10
(g14
S'\xd0\x06:\xc5bYcA'
p29
tp30
Rp31
ag10
(g14
S'\xb9\x1e\x85\xdbzfcA'
p32
tp33
Rp34
ag10
(g14
S'\xadG\xe1\xdakWcA'
p35
tp36
Rp37
ag10
(g14
S'\xa4p=2\x86kcA'
p38
tp39
Rp40
ag10
(g14
S'\xe7Q\xb8\xee\x93VcA'
p41
tp42
Rp43
ag10
(g14
S'\x0b\x11\x11\x11(XcA'
p44
tp45
Rp46
ag10
(g14
S'v\x14\xae\x17\xa0_cA'
p47
tp48
Rp49
ag10
(g14
S'\xdd\xdd\xdd\x85\xe3kcA'
p50
tp51
Rp52
ag10
(g14
S'\xb4\x1e\x85\xb7\xb5VcA'
p53
tp54
Rp55
ag10
(g14
S'=\xd0i\xb7~pcA'
p56
tp57
Rp58
ag10
(g14
S'\xca/\x96\xbc\xd5dcA'
p59
tp60
Rp61
ag10
(g14
S'\xc4\xcc\xcc\xf4\xfaTcA'
p62
tp63
Rp64
ag10
(g14
S'\xaaG\xe1n\x17UcA'
p65
tp66
Rp67
ag10
(g14
S'\xcd\xcc\xcc$]GcA'
p68
tp69
Rp70
ag10
(g14
S'\x96\x99\x9998[cA'
p71
tp72
Rp73
ag10
(g14
S'!\x85\xeb]nFcA'
p74
tp75
Rp76
asS'target'
p77
(lp78
g10
(g14
S' \x85\xebQm~5A'
p79
tp80
Rp81
ag10
(g14
S';\n\xd7\xe3\xe1s5A'
p82
tp83
Rp84
ag10
(g14
S'\xdcz\x14n\xf0$7A'
p85
tp86
Rp87
ag10
(g14
S'A\n\xd7c\x19e5A'
p88
tp89
Rp90
ag10
(g14
S'\xa2p=\xcaJ\x1f2A'
p91
tp92
Rp93
ag10
(g14
S')\\\x8fBP\xd1<A'
p94
tp95
Rp96
ag10
(g14
S'\xf8(\\\xcf]E5A'
p97
tp98
Rp99
ag10
(g14
S'T\xb8\x1e\xc5_[3A'
p100
tp101
Rp102
ag10
(g14
S'\x8f\xc2\xf5(\x8e$)A'
p103
tp104
Rp105
ag10
(g14
S'\xc0\xf5(\x9c[\xb7;A'
p106
tp107
Rp108
ag10
(g14
S'\xc8\xf5(\x1c\x88\x938A'
p109
tp110
Rp111
ag10
(g14
S'\x83\xebQx<R4A'
p112
tp113
Rp114
ag10
(g14
S'\x0b\xd7\xa3\xb0\x84|8A'
p115
tp116
Rp117
ag10
(g14
S'\xfa\xff\xff\xff\xe9X8A'
p118
tp119
Rp120
ag10
(g14
S'\x00\x00\x00\x80X\xe65A'
p121
tp122
Rp123
ag10
(g14
S'\xadG\xe1\xfa\xbc5*A'
p124
tp125
Rp126
ag10
(g14
S'^\x8f\xc2uJ\x0e+A'
p127
tp128
Rp129
ag10
(g14
S'\x12\xaeGa\xca&*A'
p130
tp131
Rp132
ag10
(g14
S'\xf1(\\\x8fK\x924A'
p133
tp134
Rp135
ag10
(g14
S' \x85\xeb\x91h22A'
p136
tp137
Rp138
asssss.