(dp0
S'../Data/sqlite_74.csv'
p1
(dp2
S'../Data/sqlite_37.csv'
p3
(dp4
F0.1
(dp5
S'abs_res'
p6
(dp7
S'bellwether'
p8
(lp9
cnumpy.core.multiarray
scalar
p10
(cnumpy
dtype
p11
(S'f8'
p12
I0
I1
tp13
Rp14
(I3
S'<'
p15
NNNI-1
I-1
I0
tp16
bS'\x07ISR-qnA'
p17
tp18
Rp19
ag10
(g14
S'\x88l\xe7k {nA'
p20
tp21
Rp22
ag10
(g14
S'\x8d\xc2\xf5|;vnA'
p23
tp24
Rp25
ag10
(g14
S'\xf3S\xe3\xb5AsnA'
p26
tp27
Rp28
ag10
(g14
S'\x10t\xda\x08\x11ynA'
p29
tp30
Rp31
ag10
(g14
S'z\xc0\xcay\xcennA'
p32
tp33
Rp34
ag10
(g14
S'133g~tnA'
p35
tp36
Rp37
ag10
(g14
S'\xb8\xf5(\x88uxnA'
p38
tp39
Rp40
ag10
(g14
S'\x90\xed|\x07\xffynA'
p41
tp42
Rp43
ag10
(g14
S'\xb2\x8e\t&\x05pnA'
p44
tp45
Rp46
ag10
(g14
S'j\x10X\x99\xebvnA'
p47
tp48
Rp49
ag10
(g14
S'/\xdd$\xeewynA'
p50
tp51
Rp52
ag10
(g14
S'.\\\x8f\x8eDonA'
p53
tp54
Rp55
ag10
(g14
S' Zd\xa3\x8fynA'
p56
tp57
Rp58
ag10
(g14
S'[\x8f\xc2a\x8e\x84nA'
p59
tp60
Rp61
ag10
(g14
S'\x1c\xf5o\x80?tnA'
p62
tp63
Rp64
ag10
(g14
S'\r\x00\x00\x80\x96unA'
p65
tp66
Rp67
ag10
(g14
S'\xd0>|\xa2+tnA'
p68
tp69
Rp70
ag10
(g14
S'/\xf9\xc5"\x03tnA'
p71
tp72
Rp73
ag10
(g14
S'\x03\xac\x1c\xa6\xe7vnA'
p74
tp75
Rp76
asS'target'
p77
(lp78
g10
(g14
S'\xe6\xd0"\xdb\xf9\xc6P@'
p79
tp80
Rp81
ag10
(g14
S'\xf1\xd2Mb\x100Q@'
p82
tp83
Rp84
ag10
(g14
S'l\xe7\xfb\xa9\xf1\xa2Q@'
p85
tp86
Rp87
ag10
(g14
S'=\xdfO\x8d\x97\x16Q@'
p88
tp89
Rp90
ag10
(g14
S'\x01\x00\x00\x00\x00\xc8Q@'
p91
tp92
Rp93
ag10
(g14
S':\x89A`\xe5\xc0P@'
p94
tp95
Rp96
ag10
(g14
S'03333{P@'
p97
tp98
Rp99
ag10
(g14
S'\x92A`\xe5\xd0\xcaR@'
p100
tp101
Rp102
ag10
(g14
S'I\x0c\x02+\x87\xceQ@'
p103
tp104
Rp105
ag10
(g14
S'm\xbct\x93\x184R@'
p106
tp107
Rp108
ag10
(g14
S'\x8e\x97n\x12\x83\x98Q@'
p109
tp110
Rp111
ag10
(g14
S'\xae\xf1\xd2Mb@Q@'
p112
tp113
Rp114
ag10
(g14
S'\xd5\xa3p=\nOP@'
p115
tp116
Rp117
ag10
(g14
S'\xebQ\xb8\x1e\x85\x1bP@'
p118
tp119
Rp120
ag10
(g14
S'\x0c\x81\x95C\x8b\xb4P@'
p121
tp122
Rp123
ag10
(g14
S'\xcd\xa1E\xb6\xf3EQ@'
p124
tp125
Rp126
ag10
(g14
S'\xca\xf5(\\\x8fnQ@'
p127
tp128
Rp129
ag10
(g14
S'\x83\xebQ\xb8\x1euR@'
p130
tp131
Rp132
ag10
(g14
S'\xa7E\xb6\xf3\xfdlQ@'
p133
tp134
Rp135
ag10
(g14
S'21\x08\xac\x1c\x02R@'
p136
tp137
Rp138
asssss.