(dp0
S'../Data/sqlite_66.csv'
p1
(dp2
S'../Data/sqlite_85.csv'
p3
(dp4
F0.05
(dp5
S'mmre'
p6
(dp7
S'bellwether'
p8
(lp9
cnumpy.core.multiarray
scalar
p10
(cnumpy
dtype
p11
(S'f8'
p12
I0
I1
tp13
Rp14
(I3
S'<'
p15
NNNI-1
I-1
I0
tp16
bS'\xe24\xc3O\xd9YU@'
p17
tp18
Rp19
ag10
(g14
S'\xb4H\xf5W\x05iU@'
p20
tp21
Rp22
ag10
(g14
S'x\xf7{\x1b6wU@'
p23
tp24
Rp25
ag10
(g14
S'Hi`A^cU@'
p26
tp27
Rp28
ag10
(g14
S'D\x1c1Q\x91`U@'
p29
tp30
Rp31
ag10
(g14
S'H\xffh\xa5\x1bvU@'
p32
tp33
Rp34
ag10
(g14
S'\xa9\xd7\x94\xa7e_U@'
p35
tp36
Rp37
ag10
(g14
S'\xbe\xae"B\x8elU@'
p38
tp39
Rp40
ag10
(g14
S'Mt\n\x90qcU@'
p41
tp42
Rp43
ag10
(g14
S'\xc8}\xaf5\xb3jU@'
p44
tp45
Rp46
ag10
(g14
S'J\x8f\x89\xbf\x9emU@'
p47
tp48
Rp49
ag10
(g14
S'\x18ndJMbU@'
p50
tp51
Rp52
ag10
(g14
S'\xbd0\x8cZ\xdeuU@'
p53
tp54
Rp55
ag10
(g14
S'\x14\xcb\x8a\x9fxoU@'
p56
tp57
Rp58
ag10
(g14
S'(J\x1f\x7fSbU@'
p59
tp60
Rp61
ag10
(g14
S'\\M\x84\x08\xaaaU@'
p62
tp63
Rp64
ag10
(g14
S'\x1e\xf9\x91\xc8\xf0_U@'
p65
tp66
Rp67
ag10
(g14
S'\x97\x16c(\xd9`U@'
p68
tp69
Rp70
ag10
(g14
S'\x00\x8dl\xd6{uU@'
p71
tp72
Rp73
ag10
(g14
S'\x80\xa0G\xea5sU@'
p74
tp75
Rp76
asS'target'
p77
(lp78
g10
(g14
S'\xfc\xb2\x9bd\x0b%T@'
p79
tp80
Rp81
ag10
(g14
S'\x85\xad\xfd\xb5\xac\xd1U@'
p82
tp83
Rp84
ag10
(g14
S'\xb6c\x18h@>S@'
p85
tp86
Rp87
ag10
(g14
S"=\xd2\x87'\t*T@"
p88
tp89
Rp90
ag10
(g14
S'k\xce\xc2\x80\xfeER@'
p91
tp92
Rp93
ag10
(g14
S'\xa2Y&K\xb5\x92[@'
p94
tp95
Rp96
ag10
(g14
S'_\x01|\x00\x17\xb4R@'
p97
tp98
Rp99
ag10
(g14
S'n\x12=\xa7\xdf\xb5R@'
p100
tp101
Rp102
ag10
(g14
S'X\xdd\x99\xcb\xa0gR@'
p103
tp104
Rp105
ag10
(g14
S'\xc5z5\xa4\x054S@'
p106
tp107
Rp108
ag10
(g14
S'\xa4\xa9\xac\x1d-\xe0Q@'
p109
tp110
Rp111
ag10
(g14
S'\xb6\xec\x88\xd2\xa2\xfdS@'
p112
tp113
Rp114
ag10
(g14
S'c3H<e\xeaQ@'
p115
tp116
Rp117
ag10
(g14
S'\xf8\x03{\x02-qV@'
p118
tp119
Rp120
ag10
(g14
S'\x13g3_`\xb1R@'
p121
tp122
Rp123
ag10
(g14
S'\x94\x85\xdds\\hR@'
p124
tp125
Rp126
ag10
(g14
S'&\xad\xd2\xcd\xc5\xa9T@'
p127
tp128
Rp129
ag10
(g14
S'\x8b\xcd\x9aj/\x91S@'
p130
tp131
Rp132
ag10
(g14
S'^X\xb2\xde\xfebS@'
p133
tp134
Rp135
ag10
(g14
S'6\x03\x8e~\xb3CW@'
p136
tp137
Rp138
asssss.