(dp0
S'../Data/sqlite_28.csv'
p1
(dp2
S'../Data/sqlite_76.csv'
p3
(dp4
F0.35
(dp5
S'mmre'
p6
(dp7
S'bellwether'
p8
(lp9
cnumpy.core.multiarray
scalar
p10
(cnumpy
dtype
p11
(S'f8'
p12
I0
I1
tp13
Rp14
(I3
S'<'
p15
NNNI-1
I-1
I0
tp16
bS'Q[\xd3\x03MkT@'
p17
tp18
Rp19
ag10
(g14
S'\xdd\x9f\x97\x0f\x8djT@'
p20
tp21
Rp22
ag10
(g14
S'\xf0e\x984)lT@'
p23
tp24
Rp25
ag10
(g14
S'*4:\xf5\x1fkT@'
p26
tp27
Rp28
ag10
(g14
S'\n4\xd3\x85(fT@'
p29
tp30
Rp31
ag10
(g14
S'/v\xd2.\x1apT@'
p32
tp33
Rp34
ag10
(g14
S'\xaa\xb1\x97^\x15mT@'
p35
tp36
Rp37
ag10
(g14
S'\xf8\xf8\x81\x9eBmT@'
p38
tp39
Rp40
ag10
(g14
S'%\r\x950\xccpT@'
p41
tp42
Rp43
ag10
(g14
S's[\xc9\xad\xe1jT@'
p44
tp45
Rp46
ag10
(g14
S'\xc6\x95\x99\xb9\x8bmT@'
p47
tp48
Rp49
ag10
(g14
S'\xb1\xcc\xb6\x89\xc6kT@'
p50
tp51
Rp52
ag10
(g14
S'\xcc\x10g\x9aQmT@'
p53
tp54
Rp55
ag10
(g14
S' \x87\xd0/YnT@'
p56
tp57
Rp58
ag10
(g14
S'u\xceFV\x97fT@'
p59
tp60
Rp61
ag10
(g14
S'\xb1r6\x84(qT@'
p62
tp63
Rp64
ag10
(g14
S'\xe4\xf6 \xa2tpT@'
p65
tp66
Rp67
ag10
(g14
S'\x94\x01\xc4M\x84vT@'
p68
tp69
Rp70
ag10
(g14
S'\x95\x06\xce3NnT@'
p71
tp72
Rp73
ag10
(g14
S'\xf2\xb3\xe7,]pT@'
p74
tp75
Rp76
asS'target'
p77
(lp78
g10
(g14
S'\xb1u.q\x86\x8b1@'
p79
tp80
Rp81
ag10
(g14
S'\xba\xab\xd4\xbb_;1@'
p82
tp83
Rp84
ag10
(g14
S'\xc5\x8fi\xd1\xd4}1@'
p85
tp86
Rp87
ag10
(g14
S'w\xf4\xc9\xd7\r\x0e1@'
p88
tp89
Rp90
ag10
(g14
S'\x87"\xb5\x1aX\x991@'
p91
tp92
Rp93
ag10
(g14
S'\x01\x08=\xc3\x1581@'
p94
tp95
Rp96
ag10
(g14
S'\x1a_\xcd\xee\xeb\x8b1@'
p97
tp98
Rp99
ag10
(g14
S'e\xbfq\xfd9\xd11@'
p100
tp101
Rp102
ag10
(g14
S'e\xe6\xf0H\xcb\xc00@'
p103
tp104
Rp105
ag10
(g14
S'e\x16<8\x9e\xd71@'
p106
tp107
Rp108
ag10
(g14
S'\x89\xb6W\xb5\xd2\xe80@'
p109
tp110
Rp111
ag10
(g14
S'\xe8#\xb5\x03$\xab2@'
p112
tp113
Rp114
ag10
(g14
S'Y\x13\xa1\xe1nr1@'
p115
tp116
Rp117
ag10
(g14
S'\tT\xa2\x12~_0@'
p118
tp119
Rp120
ag10
(g14
S"'>\xa5v\x82*1@"
p121
tp122
Rp123
ag10
(g14
S'I\xe5|\x03\xea\xc61@'
p124
tp125
Rp126
ag10
(g14
S'@\x9b\x7f\xc4\x08Y0@'
p127
tp128
Rp129
ag10
(g14
S'[\x00A\x9b\x04\xbd0@'
p130
tp131
Rp132
ag10
(g14
S'\x93\xe3W\xf7\\F1@'
p133
tp134
Rp135
ag10
(g14
S'r\x0c@/\x1e`1@'
p136
tp137
Rp138
asssss.