(dp0
S'../Data/sqlite_5.csv'
p1
(dp2
S'../Data/sqlite_47.csv'
p3
(dp4
F0.35
(dp5
S'abs_res'
p6
(dp7
S'bellwether'
p8
(lp9
cnumpy.core.multiarray
scalar
p10
(cnumpy
dtype
p11
(S'f8'
p12
I0
I1
tp13
Rp14
(I3
S'<'
p15
NNNI-1
I-1
I0
tp16
bS'\x15\xbd-ku\xc0Q@'
p17
tp18
Rp19
ag10
(g14
S'puL\xf0`VR@'
p20
tp21
Rp22
ag10
(g14
S'Y\xf2\x8b%\xbf\xa4Q@'
p23
tp24
Rp25
ag10
(g14
S'C\x8bl\xe7\xfb9R@'
p26
tp27
Rp28
ag10
(g14
S"#\x13<\x98'ZR@"
p29
tp30
Rp31
ag10
(g14
S'(\\\x8f\xc2\xf5$R@'
p32
tp33
Rp34
ag10
(g14
S'\xaf\xc8v\xbe\x9f6Q@'
p35
tp36
Rp37
ag10
(g14
S'\x0f\x11\x11\x11\x11\xc1Q@'
p38
tp39
Rp40
ag10
(g14
S'\xdf\xf9~j\xbc(R@'
p41
tp42
Rp43
ag10
(g14
S'4\xb4\xc8v\xbe\x0fR@'
p44
tp45
Rp46
ag10
(g14
S'\x98%\xbfX\xf2\x9fR@'
p47
tp48
Rp49
ag10
(g14
S'E\xd2\x94\x8a\xb3\xa7Q@'
p50
tp51
Rp52
ag10
(g14
S'6\xec\n\x90{)Q@'
p53
tp54
Rp55
ag10
(g14
S'\xfe\xb8\xd7\\HNR@'
p56
tp57
Rp58
ag10
(g14
S'\xa4aW\x80\xdc\xafQ@'
p59
tp60
Rp61
ag10
(g14
S'\xf4\xe13\xec\n\xf4P@'
p62
tp63
Rp64
ag10
(g14
S'{\x14\xaeG\xe1\x96R@'
p65
tp66
Rp67
ag10
(g14
S'\xf6~j\xbctwQ@'
p68
tp69
Rp70
ag10
(g14
S'\x8c%\xbfX\xf2\xabQ@'
p71
tp72
Rp73
ag10
(g14
S'ODDDD<R@'
p74
tp75
Rp76
asS'target'
p77
(lp78
g10
(g14
S'\xb2I\x0c\x02+WS@'
p79
tp80
Rp81
ag10
(g14
S'D\x8bl\xe7\xfb\xadS@'
p82
tp83
Rp84
ag10
(g14
S'\x04\x00\x00\x00\x00$T@'
p85
tp86
Rp87
ag10
(g14
S'2^\xbaI\x0c\x9aT@'
p88
tp89
Rp90
ag10
(g14
S'\x9a\x1a/\xdd$\xb6S@'
p91
tp92
Rp93
ag10
(g14
S'43333\xffR@'
p94
tp95
Rp96
ag10
(g14
S'\xd0"\xdb\xf9~VU@'
p97
tp98
Rp99
ag10
(g14
S'\x92l\xe7\xfb\xa9\xedR@'
p100
tp101
Rp102
ag10
(g14
S'\xcdv\xbe\x9f\x1a+S@'
p103
tp104
Rp105
ag10
(g14
S'\xf9~j\xbct\xcbR@'
p106
tp107
Rp108
ag10
(g14
S'\x14/\xdd$\x06\xe1R@'
p109
tp110
Rp111
ag10
(g14
S';\n\xd7\xa3pyT@'
p112
tp113
Rp114
ag10
(g14
S'Z\xe5\xd0"\xdb\xc5S@'
p115
tp116
Rp117
ag10
(g14
S'x?5^\xba\rT@'
p118
tp119
Rp120
ag10
(g14
S'43333;T@'
p121
tp122
Rp123
ag10
(g14
S'\x96\xed|?5\xceU@'
p124
tp125
Rp126
ag10
(g14
S'"\x06\x81\x95C\x03U@'
p127
tp128
Rp129
ag10
(g14
S'\xa0\x1a/\xdd$VT@'
p130
tp131
Rp132
ag10
(g14
S'\xe0z\x14\xaeG5U@'
p133
tp134
Rp135
ag10
(g14
S'\xe8Q\xb8\x1e\x85\xabS@'
p136
tp137
Rp138
asssss.