(dp0
S'../Data/sqlite_60.csv'
p1
(dp2
S'../Data/sqlite_70.csv'
p3
(dp4
F0.25
(dp5
S'abs_res'
p6
(dp7
S'bellwether'
p8
(lp9
cnumpy.core.multiarray
scalar
p10
(cnumpy
dtype
p11
(S'f8'
p12
I0
I1
tp13
Rp14
(I3
S'<'
p15
NNNI-1
I-1
I0
tp16
bS'\x14\xaeG\xfdYTeA'
p17
tp18
Rp19
ag10
(g14
S'f\x1f>\xcb\x1dMeA'
p20
tp21
Rp22
ag10
(g14
S'433\xff^]eA'
p23
tp24
Rp25
ag10
(g14
S'\x92%\xbf\xac\xebVeA'
p26
tp27
Rp28
ag10
(g14
S',\x06\x81\x1dn[eA'
p29
tp30
Rp31
ag10
(g14
S'\x8a\xcf\xb0?\xbcSeA'
p32
tp33
Rp34
ag10
(g14
S'(\xdb\xf9v\x14ZeA'
p35
tp36
Rp37
ag10
(g14
S'\xae-kQibeA'
p38
tp39
Rp40
ag10
(g14
S'\xc3\x92_X\xf3VeA'
p41
tp42
Rp43
ag10
(g14
S'\xbaI\x0c\xb2\x14[eA'
p44
tp45
Rp46
ag10
(g14
S'\xfb\x9c6\xd4\x0eSeA'
p47
tp48
Rp49
ag10
(g14
S'\xc9\xa1E&>VeA'
p50
tp51
Rp52
ag10
(g14
S'\x10\xf5o8\xf6ceA'
p53
tp54
Rp55
ag10
(g14
S'\x7f\x95C?\xe0`eA'
p56
tp57
Rp58
ag10
(g14
S'\x9a\xb7e\x1d\xea\\eA'
p59
tp60
Rp61
ag10
(g14
S'J\xc5\xd9\xdb9XeA'
p62
tp63
Rp64
ag10
(g14
S'\xdc^s\xe5?WeA'
p65
tp66
Rp67
ag10
(g14
S'.z[\xbe\xcb\\eA'
p68
tp69
Rp70
ag10
(g14
S'3\x15g#\xefZeA'
p71
tp72
Rp73
ag10
(g14
S'\xaa\xaa\xaaf\xadUeA'
p74
tp75
Rp76
asS'target'
p77
(lp78
g10
(g14
S'*1\x08\xac\x1cZ^@'
p79
tp80
Rp81
ag10
(g14
S'\xb4rh\x91\xed\x14_@'
p82
tp83
Rp84
ag10
(g14
S';5^\xbaI<\\@'
p85
tp86
Rp87
ag10
(g14
S'\x98n\x12\x83\xc0r^@'
p88
tp89
Rp90
ag10
(g14
S';\xe1z\x14\xae\x0f\\@'
p91
tp92
Rp93
ag10
(g14
S'H\xe1z\x14\xae\xef\\@'
p94
tp95
Rp96
ag10
(g14
S';\n\xd7\xa3p\x1d]@'
p97
tp98
Rp99
ag10
(g14
S'Q9\xb4\xc8v>^@'
p100
tp101
Rp102
ag10
(g14
S'Z\x0e-\xb2\x9dC\\@'
p103
tp104
Rp105
ag10
(g14
S'{\xebQ\xb8\x1e\r_@'
p106
tp107
Rp108
ag10
(g14
S'\xbaI\x0c\x02+C_@'
p109
tp110
Rp111
ag10
(g14
S'\xaa\x9d\xef\xa7\xc6\xef\\@'
p112
tp113
Rp114
ag10
(g14
S'Bb\x10X9L\\@'
p115
tp116
Rp117
ag10
(g14
S'!\\\x8f\xc2\xf5\xd8^@'
p118
tp119
Rp120
ag10
(g14
S'`\x91\xed|?U]@'
p121
tp122
Rp123
ag10
(g14
S'\x0e\x83\xc0\xca\xa1\x8d\\@'
p124
tp125
Rp126
ag10
(g14
S'Z\xbaI\x0c\x02\xc3]@'
p127
tp128
Rp129
ag10
(g14
S'\xa2\xc6K7\x89\x15^@'
p130
tp131
Rp132
ag10
(g14
S'g;\xdfO\x8d\x87\\@'
p133
tp134
Rp135
ag10
(g14
S'\xfcU\x0e-\xb2\x85[@'
p136
tp137
Rp138
asssss.