(dp0
S'../Data/sqlite_28.csv'
p1
(dp2
S'../Data/sqlite_90.csv'
p3
(dp4
F0.4
(dp5
S'mmre'
p6
(dp7
S'bellwether'
p8
(lp9
cnumpy.core.multiarray
scalar
p10
(cnumpy
dtype
p11
(S'f8'
p12
I0
I1
tp13
Rp14
(I3
S'<'
p15
NNNI-1
I-1
I0
tp16
bS'\xe5\x18=\x1cIgW@'
p17
tp18
Rp19
ag10
(g14
S'OZ\xf3\xe3DzW@'
p20
tp21
Rp22
ag10
(g14
S'H\x96\xfc{\xb8\\W@'
p23
tp24
Rp25
ag10
(g14
S'\x9a\xc7u\xb1brW@'
p26
tp27
Rp28
ag10
(g14
S'\xed\x83\x82\x01\xabdW@'
p29
tp30
Rp31
ag10
(g14
S'M\x84\x99yZeW@'
p32
tp33
Rp34
ag10
(g14
S'&RP\x97\x83aW@'
p35
tp36
Rp37
ag10
(g14
S'\x84]\xc0\xdcVfW@'
p38
tp39
Rp40
ag10
(g14
S'\xbd\x97g\x1e\xccmW@'
p41
tp42
Rp43
ag10
(g14
S'\rV\xf5\x01\xd6_W@'
p44
tp45
Rp46
ag10
(g14
S'+/\x02\xd9%_W@'
p47
tp48
Rp49
ag10
(g14
S'Z\xbb\xce\x8e\xb2hW@'
p50
tp51
Rp52
ag10
(g14
S'*8\x15\xcf\xee_W@'
p53
tp54
Rp55
ag10
(g14
S'X\x1c\xeb\x02|vW@'
p56
tp57
Rp58
ag10
(g14
S'\xc51\xe8\xe0IdW@'
p59
tp60
Rp61
ag10
(g14
S'\x9ceK\x97YqW@'
p62
tp63
Rp64
ag10
(g14
S'G\x85yYf^W@'
p65
tp66
Rp67
ag10
(g14
S'\xa6\\\xb40M|W@'
p68
tp69
Rp70
ag10
(g14
S'\xdc\xe2\xdb\xa7]jW@'
p71
tp72
Rp73
ag10
(g14
S'~UU\xaf\xa5nW@'
p74
tp75
Rp76
asS'target'
p77
(lp78
g10
(g14
S'04\xdb\x86\x08+@@'
p79
tp80
Rp81
ag10
(g14
S'\xa3\xcb#\xec+r>@'
p82
tp83
Rp84
ag10
(g14
S'\x13\x08\xad\xf8\xa6)B@'
p85
tp86
Rp87
ag10
(g14
S'u\x9dK\xc4\x16\xbe@@'
p88
tp89
Rp90
ag10
(g14
S'\xec\xa7$>\xaa\x0cA@'
p91
tp92
Rp93
ag10
(g14
S'\xdb\x7f\xfe\x8f\xac\xc4B@'
p94
tp95
Rp96
ag10
(g14
S'\x07\xfcuW0\x9eA@'
p97
tp98
Rp99
ag10
(g14
S';\x12\x1c\xb0\xd9^A@'
p100
tp101
Rp102
ag10
(g14
S'[\xa3\x9a\xca|\xf0@@'
p103
tp104
Rp105
ag10
(g14
S'\xd5w\xf2\xc4\xf7\xb8A@'
p106
tp107
Rp108
ag10
(g14
S'\xf4d\x0b$\xe1\x06C@'
p109
tp110
Rp111
ag10
(g14
S'\xe2\xfa\xef{kEA@'
p112
tp113
Rp114
ag10
(g14
S'\xd9\xado\x1e\xbcHA@'
p115
tp116
Rp117
ag10
(g14
S'N\xaaYH\xdc\x8c?@'
p118
tp119
Rp120
ag10
(g14
S'\t\x1e\xf8M\x17CA@'
p121
tp122
Rp123
ag10
(g14
S'D\xc2\xa2%\x1df@@'
p124
tp125
Rp126
ag10
(g14
S'\xf2$\xc3X;\xf7B@'
p127
tp128
Rp129
ag10
(g14
S'\x0e\x1fMXC\xab;@'
p130
tp131
Rp132
ag10
(g14
S'\x88\xb1\x87Q\xb7k@@'
p133
tp134
Rp135
ag10
(g14
S'\x14\x0f\xe2\xe6y\xd4@@'
p136
tp137
Rp138
asssss.