(dp0
S'../Data/sqlite_71.csv'
p1
(dp2
S'../Data/sqlite_65.csv'
p3
(dp4
F0.2
(dp5
S'abs_res'
p6
(dp7
S'bellwether'
p8
(lp9
cnumpy.core.multiarray
scalar
p10
(cnumpy
dtype
p11
(S'f8'
p12
I0
I1
tp13
Rp14
(I3
S'<'
p15
NNNI-1
I-1
I0
tp16
bS'+@\xeeq\xafakA'
p17
tp18
Rp19
ag10
(g14
S'QFo\x97\x92SkA'
p20
tp21
Rp22
ag10
(g14
S'\x82\xdck\x12lVkA'
p23
tp24
Rp25
ag10
(g14
S'\xf1|?\xd5\xd8bkA'
p26
tp27
Rp28
ag10
(g14
S'\nIS\xeaQdkA'
p29
tp30
Rp31
ag10
(g14
S"\x8e'\xeag\x11_kA"
p32
tp33
Rp34
ag10
(g14
S'\x7f?5\x0e\xf8mkA'
p35
tp36
Rp37
ag10
(g14
S'\x97n\x12\x83\x10ckA'
p38
tp39
Rp40
ag10
(g14
S'\xeb\xfb\xa9am[kA'
p41
tp42
Rp43
ag10
(g14
S'\x88l\xe7\x0f\xe7_kA'
p44
tp45
Rp46
ag10
(g14
S'\xeb\xdf\x08m\x80bkA'
p47
tp48
Rp49
ag10
(g14
S't\x93\x18x\xd2akA'
p50
tp51
Rp52
ag10
(g14
S'\x8bA`\x9d\xcajkA'
p53
tp54
Rp55
ag10
(g14
S'\x05\x0f\xe6\x99\xf5[kA'
p56
tp57
Rp58
ag10
(g14
S'\xec\xb4\x812\x98dkA'
p59
tp60
Rp61
ag10
(g14
S',\x87\x16\x89knkA'
p62
tp63
Rp64
ag10
(g14
S'eff\xda\x81pkA'
p65
tp66
Rp67
ag10
(g14
S'W\xbaI\xe4\xf5_kA'
p68
tp69
Rp70
ag10
(g14
S'\xcf\x85\xa41\xbeWkA'
p71
tp72
Rp73
ag10
(g14
S'\x19Zd\xf7ckkA'
p74
tp75
Rp76
asS'target'
p77
(lp78
g10
(g14
S'\x12\xaeG\xe1zTZ@'
p79
tp80
Rp81
ag10
(g14
S'A`\xe5\xd0"\xa3X@'
p82
tp83
Rp84
ag10
(g14
S';\xb4\xc8v\xbe\xc7X@'
p85
tp86
Rp87
ag10
(g14
S'}?5^\xba1[@'
p88
tp89
Rp90
ag10
(g14
S'e\x8f\xc2\xf5(\x14Z@'
p91
tp92
Rp93
ag10
(g14
S'E\xe1z\x14\xae\xdb[@'
p94
tp95
Rp96
ag10
(g14
S')\xdb\xf9~j$X@'
p97
tp98
Rp99
ag10
(g14
S'\x10\xaeG\xe1z\x14Z@'
p100
tp101
Rp102
ag10
(g14
S'Vd;\xdfO\x1dY@'
p103
tp104
Rp105
ag10
(g14
S'\xa6E\xb6\xf3\xfd\x04Z@'
p106
tp107
Rp108
ag10
(g14
S'\x92\xc2\xf5(\\\x0fY@'
p109
tp110
Rp111
ag10
(g14
S'\x95\x18\x04V\x0e\xa5Y@'
p112
tp113
Rp114
ag10
(g14
S'\xabrh\x91\xedtZ@'
p115
tp116
Rp117
ag10
(g14
S'?\xb6\xf3\xfd\xd4L\\@'
p118
tp119
Rp120
ag10
(g14
S'\xadp=\n\xd7SZ@'
p121
tp122
Rp123
ag10
(g14
S'8^\xbaI\x0c\xc6X@'
p124
tp125
Rp126
ag10
(g14
S'J`\xe5\xd0"\xabZ@'
p127
tp128
Rp129
ag10
(g14
S'j\x91\xed|?M[@'
p130
tp131
Rp132
ag10
(g14
S'\xb4\x9d\xef\xa7\xc6\x8bW@'
p133
tp134
Rp135
ag10
(g14
S'\xb7\x1e\x85\xebQhY@'
p136
tp137
Rp138
asssss.