(dp0
S'../Data/sqlite_4.csv'
p1
(dp2
S'../Data/sqlite_56.csv'
p3
(dp4
F0.35
(dp5
S'abs_res'
p6
(dp7
S'bellwether'
p8
(lp9
cnumpy.core.multiarray
scalar
p10
(cnumpy
dtype
p11
(S'f8'
p12
I0
I1
tp13
Rp14
(I3
S'<'
p15
NNNI-1
I-1
I0
tp16
bS'|[\xd6\xea\xda89A'
p17
tp18
Rp19
ag10
(g14
S'\xe7mY\xcb\xe799A'
p20
tp21
Rp22
ag10
(g14
S'z\xa2\xfe\r};9A'
p23
tp24
Rp25
ag10
(g14
S'\xc2v\xbe\xbfW99A'
p26
tp27
Rp28
ag10
(g14
S'\xd3i\x03\xdd/99A'
p29
tp30
Rp31
ag10
(g14
S'\xec\xee\xee.=;9A'
p32
tp33
Rp34
ag10
(g14
S'B\x19\xbdm\xf179A'
p35
tp36
Rp37
ag10
(g14
S'J\xa98\x1b\xd089A'
p38
tp39
Rp40
ag10
(g14
S'\xa6E\xb6S\xd289A'
p41
tp42
Rp43
ag10
(g14
S'\xe0k.\x04\xb999A'
p44
tp45
Rp46
ag10
(g14
S'\xc5<Q_\x0e69A'
p47
tp48
Rp49
ag10
(g14
S'\x91\xa6T\x1c\x0389A'
p50
tp51
Rp52
ag10
(g14
S'\t+\x87\xf6y89A'
p53
tp54
Rp55
ag10
(g14
S'~\x86]\xc1\x8299A'
p56
tp57
Rp58
ag10
(g14
S'h\xc9/\xd6\xfd69A'
p59
tp60
Rp61
ag10
(g14
S'(\xa3\xb7ea89A'
p62
tp63
Rp64
ag10
(g14
S'\xd6@\xa7\xedn99A'
p65
tp66
Rp67
ag10
(g14
S'\xba:&\x98\x8b89A'
p68
tp69
Rp70
ag10
(g14
S'\xc1I\x0c"r99A'
p71
tp72
Rp73
ag10
(g14
S'M\xffF\xe8\x1789A'
p74
tp75
Rp76
asS'target'
p77
(lp78
g10
(g14
S'2\xb2\x9d\xef\xa7\x8aX@'
p79
tp80
Rp81
ag10
(g14
S'\xda\xf7S\xe3\xa5wY@'
p82
tp83
Rp84
ag10
(g14
S'\x97\x18\x04V\x0e\x9dX@'
p85
tp86
Rp87
ag10
(g14
S'(\x06\x81\x95C\xa7W@'
p88
tp89
Rp90
ag10
(g14
S'j\x10X9\xb4\x98Y@'
p91
tp92
Rp93
ag10
(g14
S'\xffU\x0e-\xb2\xa5Y@'
p94
tp95
Rp96
ag10
(g14
S'$Zd;\xdf\x9bX@'
p97
tp98
Rp99
ag10
(g14
S'\xa3\xc6K7\x89\x91Y@'
p100
tp101
Rp102
ag10
(g14
S'\x8c\xc2\xf5(\\wZ@'
p103
tp104
Rp105
ag10
(g14
S')\x06\x81\x95C\x7fZ@'
p106
tp107
Rp108
ag10
(g14
S'\xfbS\xe3\xa5\x9bDX@'
p109
tp110
Rp111
ag10
(g14
S'k\x10X9\xb4tZ@'
p112
tp113
Rp114
ag10
(g14
S'\x95\xc4 \xb0r\xd8X@'
p115
tp116
Rp117
ag10
(g14
S'\xab\xc8v\xbe\x9f\x9eW@'
p118
tp119
Rp120
ag10
(g14
S'\xa2\xf1\xd2MbTY@'
p121
tp122
Rp123
ag10
(g14
S'yj\xbct\x93\xf8Y@'
p124
tp125
Rp126
ag10
(g14
S'=7\x89A`uY@'
p127
tp128
Rp129
ag10
(g14
S'k\xe7\xfb\xa9\xf1\xaaY@'
p130
tp131
Rp132
ag10
(g14
S'\x88\x16\xd9\xce\xf73Y@'
p133
tp134
Rp135
ag10
(g14
S'F\xb6\xf3\xfd\xd4\xb8Y@'
p136
tp137
Rp138
asssss.