(dp0
S'../Data/sqlite_54.csv'
p1
(dp2
S'../Data/sqlite_59.csv'
p3
(dp4
F0.2
(dp5
S'mmre'
p6
(dp7
S'bellwether'
p8
(lp9
cnumpy.core.multiarray
scalar
p10
(cnumpy
dtype
p11
(S'f8'
p12
I0
I1
tp13
Rp14
(I3
S'<'
p15
NNNI-1
I-1
I0
tp16
bS'=\x13OLSGV@'
p17
tp18
Rp19
ag10
(g14
S'\\s6\x06ChV@'
p20
tp21
Rp22
ag10
(g14
S'm\\\xa4\x82C\x85V@'
p23
tp24
Rp25
ag10
(g14
S'\x8c\xb0\x0e5*IV@'
p26
tp27
Rp28
ag10
(g14
S'\xd0\x02\xe2\x91\x8c<V@'
p29
tp30
Rp31
ag10
(g14
S'\xf6\xf7\xed\xecVvV@'
p32
tp33
Rp34
ag10
(g14
S'A:\x95W\x9eKV@'
p35
tp36
Rp37
ag10
(g14
S'\xa8\xfc\xf2\x038cV@'
p38
tp39
Rp40
ag10
(g14
S'\xbd\xcb\xc7w\xaeDV@'
p41
tp42
Rp43
ag10
(g14
S'\x1f"\xe3f\xabNV@'
p44
tp45
Rp46
ag10
(g14
S'(6\xeaY\x05xV@'
p47
tp48
Rp49
ag10
(g14
S'\x92\xcc\x9a7HZV@'
p50
tp51
Rp52
ag10
(g14
S'\xa3\xd6\x15\xba\x05FV@'
p53
tp54
Rp55
ag10
(g14
S'\x8c\xd65\xa5oqV@'
p56
tp57
Rp58
ag10
(g14
S'\x08\xeb\xca\x80\xeb$V@'
p59
tp60
Rp61
ag10
(g14
S'\xd4\x91\xf6\xba\x89YV@'
p62
tp63
Rp64
ag10
(g14
S'\\m4\x88IXV@'
p65
tp66
Rp67
ag10
(g14
S'\xe0\x93Z\xaf\xd6dV@'
p68
tp69
Rp70
ag10
(g14
S'LnQ\xe5\xba,V@'
p71
tp72
Rp73
ag10
(g14
S'\xd4S\xd1\x81,3V@'
p74
tp75
Rp76
asS'target'
p77
(lp78
g10
(g14
S'\xaa\xaezX\x9e\x94&@'
p79
tp80
Rp81
ag10
(g14
S'\x10x#\x1fX\x00&@'
p82
tp83
Rp84
ag10
(g14
S'\xcc\xce\xad%G=&@'
p85
tp86
Rp87
ag10
(g14
S'\x8fp\xb3\x06pI&@'
p88
tp89
Rp90
ag10
(g14
S'n@<\xcb\x8de%@'
p91
tp92
Rp93
ag10
(g14
S'\x81\x95\xf1\xc3=^&@'
p94
tp95
Rp96
ag10
(g14
S"iw\xc4\xff{\x15'@"
p97
tp98
Rp99
ag10
(g14
S'F\x14H8\x19*&@'
p100
tp101
Rp102
ag10
(g14
S'\xb5,\xf3mwS%@'
p103
tp104
Rp105
ag10
(g14
S'\xbe4tj\xbb\x0b&@'
p106
tp107
Rp108
ag10
(g14
S'\x08\xe5fe\xe1\xe5%@'
p109
tp110
Rp111
ag10
(g14
S'\xe2NQ\xa9\xbf/%@'
p112
tp113
Rp114
ag10
(g14
S'0\xa3\xa5\xde\x0b`&@'
p115
tp116
Rp117
ag10
(g14
S'U\x89R\t\x8e~&@'
p118
tp119
Rp120
ag10
(g14
S'\xb6w\xaf\xf6g.$@'
p121
tp122
Rp123
ag10
(g14
S"\x8e'\xea\xdd\xb0\xfd#@"
p124
tp125
Rp126
ag10
(g14
S"e\xed\xa6\x8b\xad\xef'@"
p127
tp128
Rp129
ag10
(g14
S'\x90\xb7\x94\xbdsm&@'
p130
tp131
Rp132
ag10
(g14
S'\xc0q\xbc\xc3,\x87&@'
p133
tp134
Rp135
ag10
(g14
S'T6Mc\xf6O%@'
p136
tp137
Rp138
asssss.