(dp0
S'../Data/sqlite_29.csv'
p1
(dp2
S'../Data/sqlite_72.csv'
p3
(dp4
F0.1
(dp5
S'abs_res'
p6
(dp7
S'bellwether'
p8
(lp9
cnumpy.core.multiarray
scalar
p10
(cnumpy
dtype
p11
(S'f8'
p12
I0
I1
tp13
Rp14
(I3
S'<'
p15
NNNI-1
I-1
I0
tp16
bS'{j\xbc\xd4\xb3.DA'
p17
tp18
Rp19
ag10
(g14
S'\xd6Mb0\xb1.DA'
p20
tp21
Rp22
ag10
(g14
S'\x04\xd5xyk/DA'
p23
tp24
Rp25
ag10
(g14
S'\x99n\x12\xd3*.DA'
p26
tp27
Rp28
ag10
(g14
S'e\x91\xed,\x9b/DA'
p29
tp30
Rp31
ag10
(g14
S'\xae\xc6K\x07\xa9.DA'
p32
tp33
Rp34
ag10
(g14
S'\x99\x18\x04\xc6u.DA'
p35
tp36
Rp37
ag10
(g14
S'\xeaB\xd2T\x14/DA'
p38
tp39
Rp40
ag10
(g14
S'n\xe7\xfb9\xf9.DA'
p41
tp42
Rp43
ag10
(g14
S'I`\xe5P_.DA'
p44
tp45
Rp46
ag10
(g14
S'F\x0c\x02\x8b]/DA'
p47
tp48
Rp49
ag10
(g14
S'1z[\x16S.DA'
p50
tp51
Rp52
ag10
(g14
S'`d;op.DA'
p53
tp54
Rp55
ag10
(g14
S'g\x10X\x19S.DA'
p56
tp57
Rp58
ag10
(g14
S'x\xbe\x9fZ\xf0.DA'
p59
tp60
Rp61
ag10
(g14
S'\x84\xdck^L.DA'
p62
tp63
Rp64
ag10
(g14
S'i\xbctS_/DA'
p65
tp66
Rp67
ag10
(g14
S'\x01\x00\x00\x00J.DA'
p68
tp69
Rp70
ag10
(g14
S'\x92\x8a\xb3o!/DA'
p71
tp72
Rp73
ag10
(g14
S'\n\x90{\xbd~/DA'
p74
tp75
Rp76
asS'target'
p77
(lp78
g10
(g14
S'N\x8d\x97n\x12CV@'
p79
tp80
Rp81
ag10
(g14
S'\x13\xaeG\xe1ztV@'
p82
tp83
Rp84
ag10
(g14
S'\xd9\xce\xf7S\xe3\xe5V@'
p85
tp86
Rp87
ag10
(g14
S'\xf2\xd2Mb\x10XV@'
p88
tp89
Rp90
ag10
(g14
S'\xb8\x1e\x85\xebQ\xc0T@'
p91
tp92
Rp93
ag10
(g14
S'u\xe7\xfb\xa9\xf1\xbaT@'
p94
tp95
Rp96
ag10
(g14
S'\xc6\xa1E\xb6\xf3\xbdT@'
p97
tp98
Rp99
ag10
(g14
S'\xf2|?5^\xf2T@'
p100
tp101
Rp102
ag10
(g14
S'\x95\x97n\x12\x83PV@'
p103
tp104
Rp105
ag10
(g14
S'\x91A`\xe5\xd0zW@'
p106
tp107
Rp108
ag10
(g14
S'\x08\xd7\xa3p=\xf2U@'
p109
tp110
Rp111
ag10
(g14
S'\x82\x93\x18\x04V\x96W@'
p112
tp113
Rp114
ag10
(g14
S'2\x87\x16\xd9\xceOU@'
p115
tp116
Rp117
ag10
(g14
S'\x80\x95C\x8bl\xcfV@'
p118
tp119
Rp120
ag10
(g14
S'\x19X9\xb4\xc8\xe6T@'
p121
tp122
Rp123
ag10
(g14
S'\x1d/\xdd$\x06\x99S@'
p124
tp125
Rp126
ag10
(g14
S'\xe8|?5^\xb2U@'
p127
tp128
Rp129
ag10
(g14
S'A\x89A`\xe5\xe8T@'
p130
tp131
Rp132
ag10
(g14
S'\x9d\xed|?5\xd6V@'
p133
tp134
Rp135
ag10
(g14
S'\x93A`\xe5\xd0\x8aU@'
p136
tp137
Rp138
asssss.