(dp0
S'../Data/sqlite_45.csv'
p1
(dp2
S'../Data/sqlite_3.csv'
p3
(dp4
F0.05
(dp5
S'abs_res'
p6
(dp7
S'bellwether'
p8
(lp9
cnumpy.core.multiarray
scalar
p10
(cnumpy
dtype
p11
(S'f8'
p12
I0
I1
tp13
Rp14
(I3
S'<'
p15
NNNI-1
I-1
I0
tp16
bS'a\x1f>\xc3\xaeCp@'
p17
tp18
Rp19
ag10
(g14
S'\xc4\x83y\xa2\xfe\x03p@'
p20
tp21
Rp22
ag10
(g14
S'\xc6\x04\x0f\xe6\x89\x1ap@'
p23
tp24
Rp25
ag10
(g14
S'\x8f\xa6T\x9c}3p@'
p26
tp27
Rp28
ag10
(g14
S'\x06\xe4^s!?p@'
p29
tp30
Rp31
ag10
(g14
S'\x10e\xf4\xb6\xacEp@'
p32
tp33
Rp34
ag10
(g14
S'\xfd7B\x19\xbd.p@'
p35
tp36
Rp37
ag10
(g14
S'\x802z[\xd6>p@'
p38
tp39
Rp40
ag10
(g14
S'6B\x19\xbd->p@'
p41
tp42
Rp43
ag10
(g14
S'\xf5\xe13\xec\n@p@'
p44
tp45
Rp46
ag10
(g14
S'muL\xf0`\x05p@'
p47
tp48
Rp49
ag10
(g14
S'\xf8\xb6\xac\xd51+p@'
p50
tp51
Rp52
ag10
(g14
S'Zd;\xdfObp@'
p53
tp54
Rp55
ag10
(g14
S'\xa9\xd51\xc1\x83/p@'
p56
tp57
Rp58
ag10
(g14
S'\xf6\xe13\xec\n;p@'
p59
tp60
Rp61
ag10
(g14
S'%\xbfX\xf2\x8b1p@'
p62
tp63
Rp64
ag10
(g14
S'\x86#\x94\xd1\xdb;p@'
p65
tp66
Rp67
ag10
(g14
S'P\xb8\x1e\x85\xeb3p@'
p68
tp69
Rp70
ag10
(g14
S'\x18\xf5o\x842Bp@'
p71
tp72
Rp73
ag10
(g14
S'7\x17\x92\xa6T8p@'
p74
tp75
Rp76
asS'target'
p77
(lp78
g10
(g14
S'\xa9rh\x91\xed\xf2p@'
p79
tp80
Rp81
ag10
(g14
S'2\xdd$\x06\x81\xedp@'
p82
tp83
Rp84
ag10
(g14
S'M\xe3\xa5\x9b\xc4\xbep@'
p85
tp86
Rp87
ag10
(g14
S'\x18\xd9\xce\xf7S9s@'
p88
tp89
Rp90
ag10
(g14
S'Pd;\xdfO#w@'
p91
tp92
Rp93
ag10
(g14
S'\xe3z\x14\xaeG\x01m@'
p94
tp95
Rp96
ag10
(g14
S'\xa7p=\n\xd7Gk@'
p97
tp98
Rp99
ag10
(g14
S"I\x8d\x97n\x12'o@"
p100
tp101
Rp102
ag10
(g14
S'\xf0|?5^xq@'
p103
tp104
Rp105
ag10
(g14
S'\t+\x87\x16\xd9\x8ar@'
p106
tp107
Rp108
ag10
(g14
S'\xdaO\x8d\x97n\x0cs@'
p109
tp110
Rp111
ag10
(g14
S'\n\xac\x1cZd\xedr@'
p112
tp113
Rp114
ag10
(g14
S'\xcb\xa1E\xb6\xf3#q@'
p115
tp116
Rp117
ag10
(g14
S'sh\x91\xed|\xabr@'
p118
tp119
Rp120
ag10
(g14
S'm\x91\xed|?\x7fs@'
p121
tp122
Rp123
ag10
(g14
S'\x12-\xb2\x9d\xef5q@'
p124
tp125
Rp126
ag10
(g14
S'&1\x08\xac\x1c\x02q@'
p127
tp128
Rp129
ag10
(g14
S'\xceMb\x10X\xf5o@'
p130
tp131
Rp132
ag10
(g14
S'S9\xb4\xc8vdp@'
p133
tp134
Rp135
ag10
(g14
S'\xe3\xd0"\xdb\xf9\xf8p@'
p136
tp137
Rp138
asssss.