(dp0
S'../Data/sqlite_4.csv'
p1
(dp2
S'../Data/sqlite_37.csv'
p3
(dp4
F0.3
(dp5
S'abs_res'
p6
(dp7
S'bellwether'
p8
(lp9
cnumpy.core.multiarray
scalar
p10
(cnumpy
dtype
p11
(S'f8'
p12
I0
I1
tp13
Rp14
(I3
S'<'
p15
NNNI-1
I-1
I0
tp16
bS'\x9a\x99\x99\xb9X\\;A'
p17
tp18
Rp19
ag10
(g14
S',\\\x8fb\xf0Z;A'
p20
tp21
Rp22
ag10
(g14
S'%\x15g?\x10[;A'
p23
tp24
Rp25
ag10
(g14
S'l\x86]\x01\xeb\\;A'
p26
tp27
Rp28
ag10
(g14
S'\x1f\\\x8f\xe2\x1b\\;A'
p29
tp30
Rp31
ag10
(g14
S'\x07\x02+g]\\;A'
p32
tp33
Rp34
ag10
(g14
S'_W\x80\\\x1fZ;A'
p35
tp36
Rp37
ag10
(g14
S'W\xbaI\xac\xdd[;A'
p38
tp39
Rp40
ag10
(g14
S'#\\\x8f\xe2\x81Z;A'
p41
tp42
Rp43
ag10
(g14
S'\x8e4\xa5\xe2\xedY;A'
p44
tp45
Rp46
ag10
(g14
S'S\xffF\xc8QY;A'
p47
tp48
Rp49
ag10
(g14
S'Y\x8f\xc2\x95\x86\\;A'
p50
tp51
Rp52
ag10
(g14
S'\x15\xa1\x8c~\x07Z;A'
p53
tp54
Rp55
ag10
(g14
S'\x91\x1a/]*[;A'
p56
tp57
Rp58
ag10
(g14
S'*\x08\xac\xbc$Z;A'
p59
tp60
Rp61
ag10
(g14
S'b\xd8\x15\x80A[;A'
p62
tp63
Rp64
ag10
(g14
S'\x8b\xed|\xdf-[;A'
p65
tp66
Rp67
ag10
(g14
S'K\x80\xdc\x0b\xcd\\;A'
p68
tp69
Rp70
ag10
(g14
S'k\x05\xc8}3Z;A'
p71
tp72
Rp73
ag10
(g14
S'\x9a6\xd0I<[;A'
p74
tp75
Rp76
asS'target'
p77
(lp78
g10
(g14
S'^\x10X9\xb4\x88J@'
p79
tp80
Rp81
ag10
(g14
S'\xc9\xca\xa1E\xb6\x8bL@'
p82
tp83
Rp84
ag10
(g14
S'\xda"\xdb\xf9~\xf2L@'
p85
tp86
Rp87
ag10
(g14
S'<\xb4\xc8v\xbe\xcfJ@'
p88
tp89
Rp90
ag10
(g14
S'f\x91\xed|?\x85K@'
p91
tp92
Rp93
ag10
(g14
S'z\x14\xaeG\xe1\x9aK@'
p94
tp95
Rp96
ag10
(g14
S'\xba\xc8v\xbe\x9f\x1aK@'
p97
tp98
Rp99
ag10
(g14
S'N\x8d\x97n\x12cL@'
p100
tp101
Rp102
ag10
(g14
S'Xd;\xdfO\xddK@'
p103
tp104
Rp105
ag10
(g14
S'q\xbct\x93\x18\x0cM@'
p106
tp107
Rp108
ag10
(g14
S'7\x89A`\xe5 J@'
p109
tp110
Rp111
ag10
(g14
S'2\xb2\x9d\xef\xa7>L@'
p112
tp113
Rp114
ag10
(g14
S'\xe8\xd0"\xdb\xf9\xceK@'
p115
tp116
Rp117
ag10
(g14
S'\xa3C\x8bl\xe7\x9bK@'
p118
tp119
Rp120
ag10
(g14
S'Lb\x10X9$L@'
p121
tp122
Rp123
ag10
(g14
S'\xff*\x87\x16\xd9\x1eN@'
p124
tp125
Rp126
ag10
(g14
S'A\xb6\xf3\xfd\xd4\x18J@'
p127
tp128
Rp129
ag10
(g14
S'\x11-\xb2\x9d\xef\x8fL@'
p130
tp131
Rp132
ag10
(g14
S'S\xe3\xa5\x9b\xc4PK@'
p133
tp134
Rp135
ag10
(g14
S'g\x91\xed|?eK@'
p136
tp137
Rp138
asssss.