(dp0
S'../Data/sqlite_43.csv'
p1
(dp2
S'../Data/sqlite_37.csv'
p3
(dp4
F0.2
(dp5
S'abs_res'
p6
(dp7
S'bellwether'
p8
(lp9
cnumpy.core.multiarray
scalar
p10
(cnumpy
dtype
p11
(S'f8'
p12
I0
I1
tp13
Rp14
(I3
S'<'
p15
NNNI-1
I-1
I0
tp16
bS'\x15\xf5o$\xfaq>A'
p17
tp18
Rp19
ag10
(g14
S'(\xa3\xb7%\xe2p>A'
p20
tp21
Rp22
ag10
(g14
S'\x1biJE\x8bq>A'
p23
tp24
Rp25
ag10
(g14
S')ku\x0cIq>A'
p26
tp27
Rp28
ag10
(g14
S'{\x86]\x81\x1dq>A'
p29
tp30
Rp31
ag10
(g14
S'w0OTNq>A'
p32
tp33
Rp34
ag10
(g14
S'\xc8\x92_\x0c\xf6p>A'
p35
tp36
Rp37
ag10
(g14
S'\xe6\xc1<\xd1\xa1p>A'
p38
tp39
Rp40
ag10
(g14
S'\x8aA`%aq>A'
p41
tp42
Rp43
ag10
(g14
S'+\x06\x81U\x93q>A'
p44
tp45
Rp46
ag10
(g14
S'2\xec\nPWr>A'
p47
tp48
Rp49
ag10
(g14
S'`\xe5\xd0\xa2\x81q>A'
p50
tp51
Rp52
ag10
(g14
S'\x80\x07\xf3\xc4\xbfp>A'
p53
tp54
Rp55
ag10
(g14
S'\xf0\x19v%~r>A'
p56
tp57
Rp58
ag10
(g14
S'\xbd\x81N;Ur>A'
p59
tp60
Rp61
ag10
(g14
S'\xb2\x9d\xefG\xc9r>A'
p62
tp63
Rp64
ag10
(g14
S'\xd3\x92_l\xd0q>A'
p65
tp66
Rp67
ag10
(g14
S'E\x8blg\xc1q>A'
p68
tp69
Rp70
ag10
(g14
S'\xbf\xc8v\xfe{r>A'
p71
tp72
Rp73
ag10
(g14
S'\xf0\x17K\x9eIq>A'
p74
tp75
Rp76
asS'target'
p77
(lp78
g10
(g14
S'\xfd~j\xbctKP@'
p79
tp80
Rp81
ag10
(g14
S'\xf2~j\xbct\x93N@'
p82
tp83
Rp84
ag10
(g14
S'"Zd;\xdf\x0bQ@'
p85
tp86
Rp87
ag10
(g14
S'u\x12\x83\xc0\xca\xf1O@'
p88
tp89
Rp90
ag10
(g14
S'E\xb6\xf3\xfd\xd4\x80Q@'
p91
tp92
Rp93
ag10
(g14
S'6\xdd$\x06\x81]P@'
p94
tp95
Rp96
ag10
(g14
S'\xd3Mb\x10X\x99O@'
p97
tp98
Rp99
ag10
(g14
S'd\x10X9\xb4\xa0O@'
p100
tp101
Rp102
ag10
(g14
S'0\xdd$\x06\x81-P@'
p103
tp104
Rp105
ag10
(g14
S'\xadG\xe1z\x14\xfeO@'
p106
tp107
Rp108
ag10
(g14
S'b\xe5\xd0"\xdbyO@'
p109
tp110
Rp111
ag10
(g14
S'}?5^\xba\x19O@'
p112
tp113
Rp114
ag10
(g14
S'\x98E\xb6\xf3\xfd\xf4N@'
p115
tp116
Rp117
ag10
(g14
S'\x18\x04V\x0e-zP@'
p118
tp119
Rp120
ag10
(g14
S'v=\n\xd7\xa30N@'
p121
tp122
Rp123
ag10
(g14
S'\xb3t\x93\x18\x04\xd6O@'
p124
tp125
Rp126
ag10
(g14
S'$\xdb\xf9~j\x8cN@'
p127
tp128
Rp129
ag10
(g14
S'g\xe5\xd0"\xdb\xd9O@'
p130
tp131
Rp132
ag10
(g14
S'\xaaG\xe1z\x14\xbeO@'
p133
tp134
Rp135
ag10
(g14
S'#\xaeG\xe1z\x84N@'
p136
tp137
Rp138
asssss.