(dp0
S'../Data/sqlite_81.csv'
p1
(dp2
S'../Data/sqlite_88.csv'
p3
(dp4
F0.1
(dp5
S'abs_res'
p6
(dp7
S'bellwether'
p8
(lp9
cnumpy.core.multiarray
scalar
p10
(cnumpy
dtype
p11
(S'f8'
p12
I0
I1
tp13
Rp14
(I3
S'<'
p15
NNNI-1
I-1
I0
tp16
bS'\xabp=:\x1bJcA'
p17
tp18
Rp19
ag10
(g14
S'\xd2\xcc\xcc\xf8#TcA'
p20
tp21
Rp22
ag10
(g14
S'\xeeQ\xb8\x8e\x8aGcA'
p23
tp24
Rp25
ag10
(g14
S'\x13\xaeGE\xc9RcA'
p26
tp27
Rp28
ag10
(g14
S'\x1e\x85\xeb\xa5TacA'
p29
tp30
Rp31
ag10
(g14
S'\x90%\xbfD]_cA'
p32
tp33
Rp34
ag10
(g14
S'\xf2(\\\x97nRcA'
p35
tp36
Rp37
ag10
(g14
S'\x06\xd7\xa3\x94#TcA'
p38
tp39
Rp40
ag10
(g14
S'~\x14\xae\x13|YcA'
p41
tp42
Rp43
ag10
(g14
S'\xb5\x1e\x85\xb3\xc3TcA'
p44
tp45
Rp46
ag10
(g14
S'\x1b\x85\xebY\x80IcA'
p47
tp48
Rp49
ag10
(g14
S'\xd7\xa3p\xc9\n_cA'
p50
tp51
Rp52
ag10
(g14
S'jffZ\x16JcA'
p53
tp54
Rp55
ag10
(g14
S'r\x14\xae\xb7\xd9OcA'
p56
tp57
Rp58
ag10
(g14
S'P\xb8\x1eq\xf5QcA'
p59
tp60
Rp61
ag10
(g14
S'\xc2\xf5(\xa0\\^cA'
p62
tp63
Rp64
ag10
(g14
S'^\x8f\xc2\xe9\x81_cA'
p65
tp66
Rp67
ag10
(g14
S'I\xe1zp\x1dscA'
p68
tp69
Rp70
ag10
(g14
S'`\x8f\xc2\xf1@XcA'
p71
tp72
Rp73
ag10
(g14
S'\xd1\xcc\xcc\xec\xce`cA'
p74
tp75
Rp76
asS'target'
p77
(lp78
g10
(g14
S'\n\xd7\xa3\xb0\xc6\xee2A'
p79
tp80
Rp81
ag10
(g14
S'\x1d\x85\xeb\x11j\xc40A'
p82
tp83
Rp84
ag10
(g14
S']\x8f\xc2u\xf8;)A'
p85
tp86
Rp87
ag10
(g14
S'\xc0\xf5(\x1c\x89\xf45A'
p88
tp89
Rp90
ag10
(g14
S'\xe0z\x14\xee\xf964A'
p91
tp92
Rp93
ag10
(g14
S'\xf0Q\xb8\xde\xe0#:A'
p94
tp95
Rp96
ag10
(g14
S'\xf8(\\\xcf\x0664A'
p97
tp98
Rp99
ag10
(g14
S'S\xb8\x1eEP\xb80A'
p100
tp101
Rp102
ag10
(g14
S'\x9a\x99\x99yl@HA'
p103
tp104
Rp105
ag10
(g14
S'\x83\xebQ\xb8E\x111A'
p106
tp107
Rp108
ag10
(g14
S'X\xb8\x1e\x055,=A'
p109
tp110
Rp111
ag10
(g14
S'"\\\x8f\x02G\x138A'
p112
tp113
Rp114
ag10
(g14
S'H\xe1zT\x9cg3A'
p115
tp116
Rp117
ag10
(g14
S'\xff\xff\xff?U\xe82A'
p118
tp119
Rp120
ag10
(g14
S'\xf5(\\O6}5A'
p121
tp122
Rp123
ag10
(g14
S'\xafG\xe1\xfaC{/A'
p124
tp125
Rp126
ag10
(g14
S'K\xe1zT\x89g<A'
p127
tp128
Rp129
ag10
(g14
S'\xa4G\xe1:L&<A'
p130
tp131
Rp132
ag10
(g14
S'\xd1\xcc\xcc\x0cT\x117A'
p133
tp134
Rp135
ag10
(g14
S'\xfa(\\\x8f\xd5l-A'
p136
tp137
Rp138
asssss.