(dp0
S'../Data/sqlite_23.csv'
p1
(dp2
S'../Data/sqlite_97.csv'
p3
(dp4
F0.3
(dp5
S'mmre'
p6
(dp7
S'bellwether'
p8
(lp9
cnumpy.core.multiarray
scalar
p10
(cnumpy
dtype
p11
(S'f8'
p12
I0
I1
tp13
Rp14
(I3
S'<'
p15
NNNI-1
I-1
I0
tp16
bS'ry8\xd0J?X@'
p17
tp18
Rp19
ag10
(g14
S'\xd9\x1cW\xb8L@X@'
p20
tp21
Rp22
ag10
(g14
S'8?\x0c\xf0\xeeBX@'
p23
tp24
Rp25
ag10
(g14
S'n\xff\x96&&@X@'
p26
tp27
Rp28
ag10
(g14
S'\xd8 \xff\x99\xaf>X@'
p29
tp30
Rp31
ag10
(g14
S'`\x9a]\x0f\x96?X@'
p32
tp33
Rp34
ag10
(g14
S'\xdd\x12\xa4\x08]@X@'
p35
tp36
Rp37
ag10
(g14
S'\xa0}\x86\x8dg=X@'
p38
tp39
Rp40
ag10
(g14
S'oU\xb7\xb6\xe5?X@'
p41
tp42
Rp43
ag10
(g14
S'd\xdc\xa3\xfa|>X@'
p44
tp45
Rp46
ag10
(g14
S'\x0e\xbb.\xbak@X@'
p47
tp48
Rp49
ag10
(g14
S'\x02\xab\xd0y\xed?X@'
p50
tp51
Rp52
ag10
(g14
S'r*\x12\xb0\x85?X@'
p53
tp54
Rp55
ag10
(g14
S'\x87Q_r\xe9?X@'
p56
tp57
Rp58
ag10
(g14
S'\xd8\xd7\xd6\xbd\xfe>X@'
p59
tp60
Rp61
ag10
(g14
S'\x07\xf3\\\x07A>X@'
p62
tp63
Rp64
ag10
(g14
S'\x0f<\x0e\xf3\xbb<X@'
p65
tp66
Rp67
ag10
(g14
S"\xf7'QI=@X@"
p68
tp69
Rp70
ag10
(g14
S'\xa0\x9f\xb9\xd7)@X@'
p71
tp72
Rp73
ag10
(g14
S'\x05\x15;\x8b.?X@'
p74
tp75
Rp76
asS'target'
p77
(lp78
g10
(g14
S'>p\xdbB\xbd,W@'
p79
tp80
Rp81
ag10
(g14
S'\xfa3\xd7"\xd4\xebS@'
p82
tp83
Rp84
ag10
(g14
S'+\x02\xd2e\x9d\x18V@'
p85
tp86
Rp87
ag10
(g14
S'\x8f\xfc\xee\xfaHHM@'
p88
tp89
Rp90
ag10
(g14
S'i\xb5NT\x1a\tT@'
p91
tp92
Rp93
ag10
(g14
S'\x8b\x97\x14\xe4\x9bmV@'
p94
tp95
Rp96
ag10
(g14
S"l\xa4'\x8e\x81\xe5S@"
p97
tp98
Rp99
ag10
(g14
S'm\x1fMY\xb9\xa3W@'
p100
tp101
Rp102
ag10
(g14
S'\xd9\xc0\x9d\xa4\xd7CQ@'
p103
tp104
Rp105
ag10
(g14
S'\xba\xedxC\xa6\xe1Q@'
p106
tp107
Rp108
ag10
(g14
S'pE\x89\xafg\x8eU@'
p109
tp110
Rp111
ag10
(g14
S'U\t\x8fj\xa4xR@'
p112
tp113
Rp114
ag10
(g14
S'\x14\x0c8x&\xccU@'
p115
tp116
Rp117
ag10
(g14
S'`\xa1)\x8bV\xbcZ@'
p118
tp119
Rp120
ag10
(g14
S'\x06\x83\xa2\x97\x1d\x85W@'
p121
tp122
Rp123
ag10
(g14
S'\xfbR\x92E\xd2CY@'
p124
tp125
Rp126
ag10
(g14
S'\xc5\x05O/\xb2\x96U@'
p127
tp128
Rp129
ag10
(g14
S'\xa5os\xd9(\x9dS@'
p130
tp131
Rp132
ag10
(g14
S'=s\x7f*\xef\xe1I@'
p133
tp134
Rp135
ag10
(g14
S'\xf5\xe8r\xc0z\xa3T@'
p136
tp137
Rp138
asssss.