(dp0
S'../Data/sqlite_8.csv'
p1
(dp2
S'../Data/sqlite_87.csv'
p3
(dp4
F0.1
(dp5
S'mmre'
p6
(dp7
S'bellwether'
p8
(lp9
cnumpy.core.multiarray
scalar
p10
(cnumpy
dtype
p11
(S'f8'
p12
I0
I1
tp13
Rp14
(I3
S'<'
p15
NNNI-1
I-1
I0
tp16
bS'\xcd\xde\xaf\\\xc6gS@'
p17
tp18
Rp19
ag10
(g14
S'8\x88:\x02\x9cfS@'
p20
tp21
Rp22
ag10
(g14
S'j3\x15W\xb2hS@'
p23
tp24
Rp25
ag10
(g14
S'&\x82\x89D\xa0cS@'
p26
tp27
Rp28
ag10
(g14
S'\x0c6F\x02\xcevS@'
p29
tp30
Rp31
ag10
(g14
S"\xa3\x1f='\xd4gS@"
p32
tp33
Rp34
ag10
(g14
S'\xa0s\xbe\xdePiS@'
p35
tp36
Rp37
ag10
(g14
S':\xd4B\x15\xb2lS@'
p38
tp39
Rp40
ag10
(g14
S'\xf9\xadB\x19\xefmS@'
p41
tp42
Rp43
ag10
(g14
S'$\x87^\xf4\x82cS@'
p44
tp45
Rp46
ag10
(g14
S'zb\xdd\xd5\x06jS@'
p47
tp48
Rp49
ag10
(g14
S'|\xffXI!hS@'
p50
tp51
Rp52
ag10
(g14
S'\x84b;\xe6\xffaS@'
p53
tp54
Rp55
ag10
(g14
S'\xd5\x0c\xd7\x9f\x02iS@'
p56
tp57
Rp58
ag10
(g14
S'\xd2s2\x12{gS@'
p59
tp60
Rp61
ag10
(g14
S'\x0c\r\t2zlS@'
p62
tp63
Rp64
ag10
(g14
S'\xe8\xc3\xe6#\rgS@'
p65
tp66
Rp67
ag10
(g14
S' \xa2c\xe3]jS@'
p68
tp69
Rp70
ag10
(g14
S'\xbe1>\xd1\x9ffS@'
p71
tp72
Rp73
ag10
(g14
S'7f\xc5\xea\x81jS@'
p74
tp75
Rp76
asS'target'
p77
(lp78
g10
(g14
S'\x1aJw>\x83QQ@'
p79
tp80
Rp81
ag10
(g14
S'\xf9:\xad\xc8\x80\xa7P@'
p82
tp83
Rp84
ag10
(g14
S'\xc4/\xee\x039ZO@'
p85
tp86
Rp87
ag10
(g14
S'\xef\x1f5\x92\xa4\\J@'
p88
tp89
Rp90
ag10
(g14
S'q\xcf\x9c\x98\x83:H@'
p91
tp92
Rp93
ag10
(g14
S'j\xba)(\xb1aS@'
p94
tp95
Rp96
ag10
(g14
S'\xe0d\xe5,\r\xf0J@'
p97
tp98
Rp99
ag10
(g14
S'\xc4BY\xfd\\qM@'
p100
tp101
Rp102
ag10
(g14
S'PW\xd6m}\x12P@'
p103
tp104
Rp105
ag10
(g14
S'\xf0\xfd\x00\x8b\xd2\xf4R@'
p106
tp107
Rp108
ag10
(g14
S'\x11#i\xa5\xf3wJ@'
p109
tp110
Rp111
ag10
(g14
S'CK\x84%\x8fhL@'
p112
tp113
Rp114
ag10
(g14
S'f\xe4\xec\x18p\x1fE@'
p115
tp116
Rp117
ag10
(g14
S'\xca\xac&\x19\xa7\xffQ@'
p118
tp119
Rp120
ag10
(g14
S'\xea\xa7\x8d\xd1xvK@'
p121
tp122
Rp123
ag10
(g14
S'ga``r~G@'
p124
tp125
Rp126
ag10
(g14
S'\xc1\x08_P\xb68O@'
p127
tp128
Rp129
ag10
(g14
S'\x95D?P9\xecC@'
p130
tp131
Rp132
ag10
(g14
S'!+\t\xe0\xb8tK@'
p133
tp134
Rp135
ag10
(g14
S'\xae\xa3\xf4z\x8f\xa3S@'
p136
tp137
Rp138
asssss.