(dp0
S'../Data/sqlite_93.csv'
p1
(dp2
S'../Data/sqlite_15.csv'
p3
(dp4
F0.1
(dp5
S'abs_res'
p6
(dp7
S'bellwether'
p8
(lp9
cnumpy.core.multiarray
scalar
p10
(cnumpy
dtype
p11
(S'f8'
p12
I0
I1
tp13
Rp14
(I3
S'<'
p15
NNNI-1
I-1
I0
tp16
bS'\xc4v\xbe\xeft-AA'
p17
tp18
Rp19
ag10
(g14
S'\x11\xaeG\tx-AA'
p20
tp21
Rp22
ag10
(g14
S'Z\xe5\xd0*e-AA'
p23
tp24
Rp25
ag10
(g14
S'H\xc5\xd9\x07n-AA'
p26
tp27
Rp28
ag10
(g14
S'\xbct\x93\x18\xd2-AA'
p29
tp30
Rp31
ag10
(g14
S'c;\xdf\xa7\xda-AA'
p32
tp33
Rp34
ag10
(g14
S'J7\x89)\x04-AA'
p35
tp36
Rp37
ag10
(g14
S'x\xe9&\x91\x18.AA'
p38
tp39
Rp40
ag10
(g14
S'f;\xdf\xaf\xa3-AA'
p41
tp42
Rp43
ag10
(g14
S'\xd2x\xe9FZ-AA'
p44
tp45
Rp46
ag10
(g14
S'u\x93\x18\xa4\x06-AA'
p47
tp48
Rp49
ag10
(g14
S'_\xc9/\xc6\xe3,AA'
p50
tp51
Rp52
ag10
(g14
S'\x83A`\xcdL-AA'
p53
tp54
Rp55
ag10
(g14
S'[s!)b-AA'
p56
tp57
Rp58
ag10
(g14
S'o=\n\x97B,AA'
p59
tp60
Rp61
ag10
(g14
S'u\xe9&\xa1\xbb,AA'
p62
tp63
Rp64
ag10
(g14
S'[\xe5\xd0"\xaf-AA'
p65
tp66
Rp67
ag10
(g14
S'\x9f\xd3\x06BT-AA'
p68
tp69
Rp70
ag10
(g14
S',\x87\x16!o-AA'
p71
tp72
Rp73
ag10
(g14
S'\xe2\xd0"\xab\x92-AA'
p74
tp75
Rp76
asS'target'
p77
(lp78
g10
(g14
S'\x91\x99\x99\x999\x86\xd3@'
p79
tp80
Rp81
ag10
(g14
S'lfff&\n\xd3@'
p82
tp83
Rp84
ag10
(g14
S'6333\x93\x96\xd1@'
p85
tp86
Rp87
ag10
(g14
S'\x03\x00\x00\x00@d\xd3@'
p88
tp89
Rp90
ag10
(g14
S'\x00\x00\x00\x00\xa0I\xd1@'
p91
tp92
Rp93
ag10
(g14
S'\x95\x99\x99\x99y\x83\xd1@'
p94
tp95
Rp96
ag10
(g14
S'\xfb\xff\xff\xff\xbf\xc6\xd2@'
p97
tp98
Rp99
ag10
(g14
S'*333S\x0f\xd2@'
p100
tp101
Rp102
ag10
(g14
S'\xcd\xcc\xcc\xcc\x8c\x14\xd4@'
p103
tp104
Rp105
ag10
(g14
S'6333\x13}\xd1@'
p106
tp107
Rp108
ag10
(g14
S'\x00\x00\x00\x00@O\xd3@'
p109
tp110
Rp111
ag10
(g14
S'hfffF\xfe\xd1@'
p112
tp113
Rp114
ag10
(g14
S'\x97\x99\x99\x99\x19\xb7\xd2@'
p115
tp116
Rp117
ag10
(g14
S'0333\xb3\x13\xd1@'
p118
tp119
Rp120
ag10
(g14
S'\x99\x99\x99\x999h\xd4@'
p121
tp122
Rp123
ag10
(g14
S'efffV\n\xd4@'
p124
tp125
Rp126
ag10
(g14
S'\xf9\xff\xff\xff_\x13\xd2@'
p127
tp128
Rp129
ag10
(g14
S'3333\x13n\xd1@'
p130
tp131
Rp132
ag10
(g14
S'cfff\x06D\xd3@'
p133
tp134
Rp135
ag10
(g14
S',333\xa3\xf3\xd3@'
p136
tp137
Rp138
asssss.