(dp0
S'../Data/sqlite_65.csv'
p1
(dp2
S'../Data/sqlite_59.csv'
p3
(dp4
F0.25
(dp5
S'mmre'
p6
(dp7
S'bellwether'
p8
(lp9
cnumpy.core.multiarray
scalar
p10
(cnumpy
dtype
p11
(S'f8'
p12
I0
I1
tp13
Rp14
(I3
S'<'
p15
NNNI-1
I-1
I0
tp16
bS'\xe7\xc4\x1e!\xd0WV@'
p17
tp18
Rp19
ag10
(g14
S'\xa5\xba\xf8#\xc1WV@'
p20
tp21
Rp22
ag10
(g14
S'\xe2$S\x86\x9eWV@'
p23
tp24
Rp25
ag10
(g14
S'\xf7\xe7\xa2VlVV@'
p26
tp27
Rp28
ag10
(g14
S'\x0fWe\x9aqXV@'
p29
tp30
Rp31
ag10
(g14
S'\xe0\xd4\xe7\x1fnWV@'
p32
tp33
Rp34
ag10
(g14
S'\x98D8\xe8\x9aXV@'
p35
tp36
Rp37
ag10
(g14
S'\xa6,\xb7\xbcSTV@'
p38
tp39
Rp40
ag10
(g14
S'6aT\xf9WXV@'
p41
tp42
Rp43
ag10
(g14
S'I|N\xf9ITV@'
p44
tp45
Rp46
ag10
(g14
S'O\x13\x07K\xd5VV@'
p47
tp48
Rp49
ag10
(g14
S'\xa2\xd0\x81\x9a\xa9VV@'
p50
tp51
Rp52
ag10
(g14
S'\t\x91k\xa6\x1dWV@'
p53
tp54
Rp55
ag10
(g14
S'\xa0\xf0\xffk_XV@'
p56
tp57
Rp58
ag10
(g14
S'E\xd3j\xd0\xc2XV@'
p59
tp60
Rp61
ag10
(g14
S'\x0f<\xd9\xdb.VV@'
p62
tp63
Rp64
ag10
(g14
S'T\xf5\xd7\\\xdeUV@'
p65
tp66
Rp67
ag10
(g14
S'\x9a =G\xeeVV@'
p68
tp69
Rp70
ag10
(g14
S'\xdef\x93)%WV@'
p71
tp72
Rp73
ag10
(g14
S'v\xa27\xbbtTV@'
p74
tp75
Rp76
asS'target'
p77
(lp78
g10
(g14
S'\xce\x9d\x9e\xaf-\x86$@'
p79
tp80
Rp81
ag10
(g14
S'\xed\xaa\x8d/z\x97&@'
p82
tp83
Rp84
ag10
(g14
S"\xf5D\x9b,\xdf\xad'@"
p85
tp86
Rp87
ag10
(g14
S'\x16f\xb1 \x87\xae%@'
p88
tp89
Rp90
ag10
(g14
S'f\x1e.\x890\xfa&@'
p91
tp92
Rp93
ag10
(g14
S"'3\x03\xden\xc7#@"
p94
tp95
Rp96
ag10
(g14
S'\xda9\x9cU\xe8 %@'
p97
tp98
Rp99
ag10
(g14
S'U\xad\xb7\xb8\xea|&@'
p100
tp101
Rp102
ag10
(g14
S'-\xec\xd1\x13\xb5`(@'
p103
tp104
Rp105
ag10
(g14
S'Q\x94\xe8)\x81[&@'
p106
tp107
Rp108
ag10
(g14
S"\x01\xd7\xb0\xe5\xc2V'@"
p109
tp110
Rp111
ag10
(g14
S"v\xa4\xdeA\xf1z'@"
p112
tp113
Rp114
ag10
(g14
S"\x14\x8a\x8d\x17\xad\xdb'@"
p115
tp116
Rp117
ag10
(g14
S'\x84S\x82[\xb1Q$@'
p118
tp119
Rp120
ag10
(g14
S'\x8a.\xf3\xb4t\xa6%@'
p121
tp122
Rp123
ag10
(g14
S'l\xb2\x10\xdar\x91%@'
p124
tp125
Rp126
ag10
(g14
S'F\xf4\x94[[\x1a(@'
p127
tp128
Rp129
ag10
(g14
S'A\xc5\x12{\xc8j&@'
p130
tp131
Rp132
ag10
(g14
S'\x0b0zmZ\xb5$@'
p133
tp134
Rp135
ag10
(g14
S'"\xde+\x14\xeb~\'@'
p136
tp137
Rp138
asssss.