(dp0
S'../Data/sqlite_4.csv'
p1
(dp2
S'../Data/sqlite_72.csv'
p3
(dp4
F0.25
(dp5
S'abs_res'
p6
(dp7
S'bellwether'
p8
(lp9
cnumpy.core.multiarray
scalar
p10
(cnumpy
dtype
p11
(S'f8'
p12
I0
I1
tp13
Rp14
(I3
S'<'
p15
NNNI-1
I-1
I0
tp16
bS'\xe2\x89\xfaw\xdaI=A'
p17
tp18
Rp19
ag10
(g14
S'huL0\xceJ=A'
p20
tp21
Rp22
ag10
(g14
S"|]\x01R'K=A"
p23
tp24
Rp25
ag10
(g14
S"v\x14\xae'[J=A"
p26
tp27
Rp28
ag10
(g14
S'4O\xd4\xdf\xaaJ=A'
p29
tp30
Rp31
ag10
(g14
S'\xebmY\x0b\x9bJ=A'
p32
tp33
Rp34
ag10
(g14
S'\xedS\xe3%\xaaK=A'
p35
tp36
Rp37
ag10
(g14
S'\xc6\xa1Ev\x9eJ=A'
p38
tp39
Rp40
ag10
(g14
S'\xfb\xff\xff\xdf\xddJ=A'
p41
tp42
Rp43
ag10
(g14
S'\x05\x02+\xa7\xa5H=A'
p44
tp45
Rp46
ag10
(g14
S'&\x87\x16\xd9\xcbK=A'
p47
tp48
Rp49
ag10
(g14
S'CS*N\xbdJ=A'
p50
tp51
Rp52
ag10
(g14
S'\x0f\xd9\xcew\xd1J=A'
p53
tp54
Rp55
ag10
(g14
S'[q\xf6\xc1\x98K=A'
p56
tp57
Rp58
ag10
(g14
S'\x07X9\xb4\xf0L=A'
p59
tp60
Rp61
ag10
(g14
S'\x15X9TcK=A'
p62
tp63
Rp64
ag10
(g14
S'X\xabc\xe2\xeeL=A'
p65
tp66
Rp67
ag10
(g14
S'\x97\xe0\xc1<\x08K=A'
p68
tp69
Rp70
ag10
(g14
S'\x1e/\xdd\xc4UL=A'
p71
tp72
Rp73
ag10
(g14
S'\x9c\x99\x99\xb91K=A'
p74
tp75
Rp76
asS'target'
p77
(lp78
g10
(g14
S'[\x8f\xc2\xf5(\x8cQ@'
p79
tp80
Rp81
ag10
(g14
S'\xf0\xd2Mb\x10`O@'
p82
tp83
Rp84
ag10
(g14
S'\xea&1\x08\xac\xdcQ@'
p85
tp86
Rp87
ag10
(g14
S'\x13X9\xb4\xc8\xd6P@'
p88
tp89
Rp90
ag10
(g14
S'\xb4\xc8v\xbe\x9f\xbaQ@'
p91
tp92
Rp93
ag10
(g14
S'\x85\xc0\xca\xa1EFP@'
p94
tp95
Rp96
ag10
(g14
S'\xdc$\x06\x81\x95kP@'
p97
tp98
Rp99
ag10
(g14
S'\xc0I\x0c\x02+;Q@'
p100
tp101
Rp102
ag10
(g14
S'\xf8\xfd\xd4x\xe9vP@'
p103
tp104
Rp105
ag10
(g14
S'Xd;\xdfOMQ@'
p106
tp107
Rp108
ag10
(g14
S'\x85\xebQ\xb8\x1e\x99Q@'
p109
tp110
Rp111
ag10
(g14
S'~?5^\xba\x01Q@'
p112
tp113
Rp114
ag10
(g14
S'\x1c/\xdd$\x06IQ@'
p115
tp116
Rp117
ag10
(g14
S'\xc2\xf5(\\\x8f\xe2P@'
p118
tp119
Rp120
ag10
(g14
S'\x92C\x8bl\xe7{Q@'
p121
tp122
Rp123
ag10
(g14
S'F\xb6\xf3\xfd\xd4dQ@'
p124
tp125
Rp126
ag10
(g14
S'\x04V\x0e-\xb2=Q@'
p127
tp128
Rp129
ag10
(g14
S'/\xdd$\x06\x81\xa5O@'
p130
tp131
Rp132
ag10
(g14
S'y=\n\xd7\xa3\xc8P@'
p133
tp134
Rp135
ag10
(g14
S'\xdc\xce\xf7S\xe3yP@'
p136
tp137
Rp138
asssss.