(dp0
S'../Data/sqlite_78.csv'
p1
(dp2
S'../Data/sqlite_94.csv'
p3
(dp4
F0.35
(dp5
S'mmre'
p6
(dp7
S'bellwether'
p8
(lp9
cnumpy.core.multiarray
scalar
p10
(cnumpy
dtype
p11
(S'f8'
p12
I0
I1
tp13
Rp14
(I3
S'<'
p15
NNNI-1
I-1
I0
tp16
bS'\xda\xb9x?\xc0iX@'
p17
tp18
Rp19
ag10
(g14
S'\x05\xa1j\xad\xfdeX@'
p20
tp21
Rp22
ag10
(g14
S'xit\xca\x00hX@'
p23
tp24
Rp25
ag10
(g14
S'EB\xda\x9c\xd2eX@'
p26
tp27
Rp28
ag10
(g14
S'^\xa2\xda\xe3\x9deX@'
p29
tp30
Rp31
ag10
(g14
S'H\xa8I7UgX@'
p32
tp33
Rp34
ag10
(g14
S'\x13S]n\xc6gX@'
p35
tp36
Rp37
ag10
(g14
S'\xca\xb9\xb2\xab!gX@'
p38
tp39
Rp40
ag10
(g14
S'HLi\x89(hX@'
p41
tp42
Rp43
ag10
(g14
S'\xc7.o \x06gX@'
p44
tp45
Rp46
ag10
(g14
S'\x11%\xed;AgX@'
p47
tp48
Rp49
ag10
(g14
S'\x8a\xff\xa6\xd2\x85gX@'
p50
tp51
Rp52
ag10
(g14
S'\xff\x97(ZFhX@'
p53
tp54
Rp55
ag10
(g14
S'\xb4*\xa2\xd2~iX@'
p56
tp57
Rp58
ag10
(g14
S'\x0f\xb1\xd7\x93RfX@'
p59
tp60
Rp61
ag10
(g14
S'\xb1w\xc6j\x8deX@'
p62
tp63
Rp64
ag10
(g14
S't\xb9=4\xceeX@'
p65
tp66
Rp67
ag10
(g14
S'H\xe4\xf9$\x8edX@'
p68
tp69
Rp70
ag10
(g14
S'\xea4J)\xa3eX@'
p71
tp72
Rp73
ag10
(g14
S'H\x18\xe1^efX@'
p74
tp75
Rp76
asS'target'
p77
(lp78
g10
(g14
S'\xd6+7\xd6\x01\x9eO@'
p79
tp80
Rp81
ag10
(g14
S'\xab\xf9\xe2\xff\xea\xffP@'
p82
tp83
Rp84
ag10
(g14
S'\xc6\xd8\xabW\x8dDT@'
p85
tp86
Rp87
ag10
(g14
S" WU\x9f'_R@"
p88
tp89
Rp90
ag10
(g14
S'\xaar$\x9d\x9f\x06N@'
p91
tp92
Rp93
ag10
(g14
S'\xc1\x81^!\x7f\xc5P@'
p94
tp95
Rp96
ag10
(g14
S'\x9f\x930\x1d\xd6<M@'
p97
tp98
Rp99
ag10
(g14
S'\xe27\xa2\x8a\xfa\x0bQ@'
p100
tp101
Rp102
ag10
(g14
S'\x96\xb1\x9b\xc6^\x18O@'
p103
tp104
Rp105
ag10
(g14
S'C!\xe0!2\xc1T@'
p106
tp107
Rp108
ag10
(g14
S'\xf3\x85H&\xa8\xcaQ@'
p109
tp110
Rp111
ag10
(g14
S'\xe5\xe7l\x99\xc1\xf6U@'
p112
tp113
Rp114
ag10
(g14
S'\xbb\xf2b\xeb\x9aqW@'
p115
tp116
Rp117
ag10
(g14
S'0\x86\x11\x03\xb9\xa5P@'
p118
tp119
Rp120
ag10
(g14
S'\xe1\xc9\x0e\xf2\\\xbfO@'
p121
tp122
Rp123
ag10
(g14
S'3\xd1=J\xca-U@'
p124
tp125
Rp126
ag10
(g14
S'\xdf\xc3j\x8eH,R@'
p127
tp128
Rp129
ag10
(g14
S'\x1e\xac\x86c\x0b\x8cV@'
p130
tp131
Rp132
ag10
(g14
S'\xe5\xb9Y\xcf9jW@'
p133
tp134
Rp135
ag10
(g14
S'e\xa1:\n\xfegX@'
p136
tp137
Rp138
asssss.