(dp0
S'../Data/sqlite_63.csv'
p1
(dp2
S'../Data/sqlite_94.csv'
p3
(dp4
F0.35
(dp5
S'mmre'
p6
(dp7
S'bellwether'
p8
(lp9
cnumpy.core.multiarray
scalar
p10
(cnumpy
dtype
p11
(S'f8'
p12
I0
I1
tp13
Rp14
(I3
S'<'
p15
NNNI-1
I-1
I0
tp16
bS'\x07e\xd2\xad\xc64W@'
p17
tp18
Rp19
ag10
(g14
S'\x16\x02\n\xe9K,W@'
p20
tp21
Rp22
ag10
(g14
S'@\x1a\xb3;\xbe/W@'
p23
tp24
Rp25
ag10
(g14
S'\x93y$\xe1\x02.W@'
p26
tp27
Rp28
ag10
(g14
S'\xd7\xe8I\xc6\r*W@'
p29
tp30
Rp31
ag10
(g14
S'4\x8bpI\xfc1W@'
p32
tp33
Rp34
ag10
(g14
S'\xe6\xc3\x80W/4W@'
p35
tp36
Rp37
ag10
(g14
S'\xa1:\xce\xc1\xfb-W@'
p38
tp39
Rp40
ag10
(g14
S'\xe7\xa6\xf3\xbd\xa41W@'
p41
tp42
Rp43
ag10
(g14
S'O\xdbs\x9c\xc12W@'
p44
tp45
Rp46
ag10
(g14
S'\xedn\x0e\xb5A)W@'
p47
tp48
Rp49
ag10
(g14
S'\xcc\x9a\xaa\x1b91W@'
p50
tp51
Rp52
ag10
(g14
S'\x97\xb0\xf3\x154.W@'
p53
tp54
Rp55
ag10
(g14
S'*\\:N\xd41W@'
p56
tp57
Rp58
ag10
(g14
S'/y\xb8\xbb,/W@'
p59
tp60
Rp61
ag10
(g14
S'q\xd7h\xfe40W@'
p62
tp63
Rp64
ag10
(g14
S'S\xf6\x05\r\x1e,W@'
p65
tp66
Rp67
ag10
(g14
S"\xf1\xae\xca\xb1\xe1'W@"
p68
tp69
Rp70
ag10
(g14
S'^,*\x1fh*W@'
p71
tp72
Rp73
ag10
(g14
S'\xaf#`$\n.W@'
p74
tp75
Rp76
asS'target'
p77
(lp78
g10
(g14
S'77O;\xe7\x14T@'
p79
tp80
Rp81
ag10
(g14
S'2\x0c\xc4\xf07NT@'
p82
tp83
Rp84
ag10
(g14
S'\xe0:\x8ay\r\xf3R@'
p85
tp86
Rp87
ag10
(g14
S'Ot\xa8\x0f\x81UQ@'
p88
tp89
Rp90
ag10
(g14
S'\x8d\xd4\x1c\xd2\xc8\x0cW@'
p91
tp92
Rp93
ag10
(g14
S'\x16u\x0e\xeb\x91\xdfN@'
p94
tp95
Rp96
ag10
(g14
S'\xef\x05u\xe1\xb6>M@'
p97
tp98
Rp99
ag10
(g14
S'f\xda\x8e\xd2\x8czP@'
p100
tp101
Rp102
ag10
(g14
S'\xf5\xef\xd6\xb3\xc4*S@'
p103
tp104
Rp105
ag10
(g14
S'\xd8f\xc1q\x07qO@'
p106
tp107
Rp108
ag10
(g14
S'H\x00M\xec8\xcaN@'
p109
tp110
Rp111
ag10
(g14
S'\xbe\n\xacc\x0c\x8dP@'
p112
tp113
Rp114
ag10
(g14
S'\xa3}\x0f\xe38jQ@'
p115
tp116
Rp117
ag10
(g14
S'\xf1\x83&:\x1d\x05T@'
p118
tp119
Rp120
ag10
(g14
S'kE\xe3t\xce\x10T@'
p121
tp122
Rp123
ag10
(g14
S'X\xe2\x88\x9cY\xfcL@'
p124
tp125
Rp126
ag10
(g14
S'\xca-\xea_,uW@'
p127
tp128
Rp129
ag10
(g14
S'\xcf\xb4\x1e\x08K\x05U@'
p130
tp131
Rp132
ag10
(g14
S'\xc4\xe1\x12?>\rP@'
p133
tp134
Rp135
ag10
(g14
S'%\xe2cA\x81bQ@'
p136
tp137
Rp138
asssss.