(dp0
S'../Data/sqlite_8.csv'
p1
(dp2
S'../Data/sqlite_87.csv'
p3
(dp4
F0.25
(dp5
S'mmre'
p6
(dp7
S'bellwether'
p8
(lp9
cnumpy.core.multiarray
scalar
p10
(cnumpy
dtype
p11
(S'f8'
p12
I0
I1
tp13
Rp14
(I3
S'<'
p15
NNNI-1
I-1
I0
tp16
bS'\xcd\x17\xd6\\>vS@'
p17
tp18
Rp19
ag10
(g14
S'\xd9\xdd\xf6\x82\x18hS@'
p20
tp21
Rp22
ag10
(g14
S'sc\xa1\xc6]fS@'
p23
tp24
Rp25
ag10
(g14
S'\xbcmSa\xa4lS@'
p26
tp27
Rp28
ag10
(g14
S'\x8f\x0cw\x8bJaS@'
p29
tp30
Rp31
ag10
(g14
S'&\x16\xfc:\xcc[S@'
p32
tp33
Rp34
ag10
(g14
S'\xa2\x05ik\toS@'
p35
tp36
Rp37
ag10
(g14
S'\x0b5d\x0e\xb5bS@'
p38
tp39
Rp40
ag10
(g14
S'\x9d\xba\x0f\x9enfS@'
p41
tp42
Rp43
ag10
(g14
S'\x80\x98\xc6|*mS@'
p44
tp45
Rp46
ag10
(g14
S'af>s\x06lS@'
p47
tp48
Rp49
ag10
(g14
S"\x1b';\xf8\xf9fS@"
p50
tp51
Rp52
ag10
(g14
S'\x8b\xf3\\f*lS@'
p53
tp54
Rp55
ag10
(g14
S'D\xdak\xc1\x0e`S@'
p56
tp57
Rp58
ag10
(g14
S'\xbddN\x1cJjS@'
p59
tp60
Rp61
ag10
(g14
S'\x82"c\xf3\xb9iS@'
p62
tp63
Rp64
ag10
(g14
S'\xcb\x9e\xc1I\x18bS@'
p65
tp66
Rp67
ag10
(g14
S'\xe4\x88\xeb\x99!yS@'
p68
tp69
Rp70
ag10
(g14
S'Wi\x16Y?dS@'
p71
tp72
Rp73
ag10
(g14
S'z{"\xe0\x14kS@'
p74
tp75
Rp76
asS'target'
p77
(lp78
g10
(g14
S'`\xa29ry\x8eI@'
p79
tp80
Rp81
ag10
(g14
S'W\x1f\r\x08\xcd<P@'
p82
tp83
Rp84
ag10
(g14
S'\xc0\xeaf\x84n\xb2G@'
p85
tp86
Rp87
ag10
(g14
S'\x14,\xbdc\x11\xccN@'
p88
tp89
Rp90
ag10
(g14
S'\\\x84\xcc\xc5;\xeeU@'
p91
tp92
Rp93
ag10
(g14
S'\xce\xa4^\xc1@\xd6S@'
p94
tp95
Rp96
ag10
(g14
S'\xf5\xc2E\xe8\xc9\xa4R@'
p97
tp98
Rp99
ag10
(g14
S'>\x07\xc5\x1dd\x17S@'
p100
tp101
Rp102
ag10
(g14
S'H#\xe9\xe6\x11\x0cR@'
p103
tp104
Rp105
ag10
(g14
S'#@@\xdao\xc9P@'
p106
tp107
Rp108
ag10
(g14
S'\xe9\xf5\x98(4"O@'
p109
tp110
Rp111
ag10
(g14
S')*\xa5\xdc\x81\xb7S@'
p112
tp113
Rp114
ag10
(g14
S'.O\xf0\x9fP\x19L@'
p115
tp116
Rp117
ag10
(g14
S'\xad\xf8\x02\x95Y\x92Q@'
p118
tp119
Rp120
ag10
(g14
S'\\\xc7>\xc9\x91\xe2L@'
p121
tp122
Rp123
ag10
(g14
S'\xb1p\xb0\x89~7P@'
p124
tp125
Rp126
ag10
(g14
S'\xcaE\xebr(wO@'
p127
tp128
Rp129
ag10
(g14
S'\xde\xdb\xdb\x07\xa2\x1fE@'
p130
tp131
Rp132
ag10
(g14
S'\xd9}\xf5+\xbd\xe4N@'
p133
tp134
Rp135
ag10
(g14
S'\xdc\xf4\x0f\xc6\xe2\x13J@'
p136
tp137
Rp138
asssss.