(dp0
S'../Data/sqlite_1.csv'
p1
(dp2
S'../Data/sqlite_36.csv'
p3
(dp4
F0.15
(dp5
S'abs_res'
p6
(dp7
S'bellwether'
p8
(lp9
cnumpy.core.multiarray
scalar
p10
(cnumpy
dtype
p11
(S'f8'
p12
I0
I1
tp13
Rp14
(I3
S'<'
p15
NNNI-1
I-1
I0
tp16
bS'v\x14\xae\xd7\x1dM@A'
p17
tp18
Rp19
ag10
(g14
S'\xf8\xc5\x92o\x1cM@A'
p20
tp21
Rp22
ag10
(g14
S'\x99aW\xd0=M@A'
p23
tp24
Rp25
ag10
(g14
S'O*\xceN2M@A'
p26
tp27
Rp28
ag10
(g14
S'\xb8\x1e\x85\xcb\xcbM@A'
p29
tp30
Rp31
ag10
(g14
S'\xaa\xe2\xec\xd3FM@A'
p32
tp33
Rp34
ag10
(g14
S'\x8f\x18\x04\x06\xa9M@A'
p35
tp36
Rp37
ag10
(g14
S'$x0/\xb2M@A'
p38
tp39
Rp40
ag10
(g14
S'\x91\xc2\xf5\xb8\x19M@A'
p41
tp42
Rp43
ag10
(g14
S'X\xbaI|2M@A'
p44
tp45
Rp46
ag10
(g14
S'\xaaG\xe1:\x9aM@A'
p47
tp48
Rp49
ag10
(g14
S'\x88]\x01R%M@A'
p50
tp51
Rp52
ag10
(g14
S'N\xb8\x1e\xe5\x97M@A'
p53
tp54
Rp55
ag10
(g14
S'n\xda@\x87MM@A'
p56
tp57
Rp58
ag10
(g14
S'\xe8\x19v\x85\xc4M@A'
p59
tp60
Rp61
ag10
(g14
S'Z\xe5\xd0\x12QM@A'
p62
tp63
Rp64
ag10
(g14
S'\xd7$\x06\xe1\xb1M@A'
p65
tp66
Rp67
ag10
(g14
S'\x13/\xddT1M@A'
p68
tp69
Rp70
ag10
(g14
S'<Q\xff\xa6\xa6M@A'
p71
tp72
Rp73
ag10
(g14
S'ES*\x9e\xfcM@A'
p74
tp75
Rp76
asS'target'
p77
(lp78
g10
(g14
S'\x8c\xed|?5>[@'
p79
tp80
Rp81
ag10
(g14
S"'\xb0rh\x91}X@"
p82
tp83
Rp84
ag10
(g14
S'v\x12\x83\xc0\xca\xa1Z@'
p85
tp86
Rp87
ag10
(g14
S'D\xb6\xf3\xfd\xd4\xd4X@'
p88
tp89
Rp90
ag10
(g14
S'\xc3\x1e\x85\xebQ\xe0W@'
p91
tp92
Rp93
ag10
(g14
S'\xa4E\xb6\xf3\xfd X@'
p94
tp95
Rp96
ag10
(g14
S'\xaaE\xb6\xf3\xfd4[@'
p97
tp98
Rp99
ag10
(g14
S'\xa8\xc6K7\x899Z@'
p100
tp101
Rp102
ag10
(g14
S'\r\x81\x95C\x8b\x8cX@'
p103
tp104
Rp105
ag10
(g14
S',3333\xbbW@'
p106
tp107
Rp108
ag10
(g14
S'\xcbK7\x89AXX@'
p109
tp110
Rp111
ag10
(g14
S'V7\x89A`\x1dZ@'
p112
tp113
Rp114
ag10
(g14
S'\xc9\xcc\xcc\xcc\xcclZ@'
p115
tp116
Rp117
ag10
(g14
S'+\xb0rh\x91\xadW@'
p118
tp119
Rp120
ag10
(g14
S'\xe9\xa7\xc6K7}Y@'
p121
tp122
Rp123
ag10
(g14
S'w\x93\x18\x04VvZ@'
p124
tp125
Rp126
ag10
(g14
S'Q7\x89A`EZ@'
p127
tp128
Rp129
ag10
(g14
S'A\xb4\xc8v\xbe\x87Y@'
p130
tp131
Rp132
ag10
(g14
S'q\x93\x18\x04V^Y@'
p133
tp134
Rp135
ag10
(g14
S'\x82\x95C\x8bl\xff[@'
p136
tp137
Rp138
asssss.