(dp0
S'../Data/sqlite_42.csv'
p1
(dp2
S'../Data/sqlite_86.csv'
p3
(dp4
F0.05
(dp5
S'mmre'
p6
(dp7
S'bellwether'
p8
(lp9
cnumpy.core.multiarray
scalar
p10
(cnumpy
dtype
p11
(S'f8'
p12
I0
I1
tp13
Rp14
(I3
S'<'
p15
NNNI-1
I-1
I0
tp16
bS"'\x930\xb8VbZ@"
p17
tp18
Rp19
ag10
(g14
S'\x015\x1b\xec\x87gZ@'
p20
tp21
Rp22
ag10
(g14
S'v\x8e2Y\xd2\x86Z@'
p23
tp24
Rp25
ag10
(g14
S'\xb7\x0b\xdb\x80\xb7WZ@'
p26
tp27
Rp28
ag10
(g14
S'\xac\xfdA\xbfK`Z@'
p29
tp30
Rp31
ag10
(g14
S'\xc3\xa2\xd2\x90CuZ@'
p32
tp33
Rp34
ag10
(g14
S'\xe2u\x1c\xd7\xe7wZ@'
p35
tp36
Rp37
ag10
(g14
S'c\x12\xac&5UZ@'
p38
tp39
Rp40
ag10
(g14
S'\x96\xa36\xc3\thZ@'
p41
tp42
Rp43
ag10
(g14
S'\xf0p>\x01\xf3>Z@'
p44
tp45
Rp46
ag10
(g14
S'\xf2\xab\xe60\x9c=Z@'
p47
tp48
Rp49
ag10
(g14
S'X\xd7\x0e\xda\x0fdZ@'
p50
tp51
Rp52
ag10
(g14
S'^\xaa\x9dGcEZ@'
p53
tp54
Rp55
ag10
(g14
S'l\xeb?\n\x14aZ@'
p56
tp57
Rp58
ag10
(g14
S'\x9e%\x9c\x0c\x18[Z@'
p59
tp60
Rp61
ag10
(g14
S'\xaf\x9e\xf1\x9e\xc6\x84Z@'
p62
tp63
Rp64
ag10
(g14
S'\x84\x87\x1f\x84RcZ@'
p65
tp66
Rp67
ag10
(g14
S'_Z\xcbn}`Z@'
p68
tp69
Rp70
ag10
(g14
S'\x8d@\x1e\xb5\xd7_Z@'
p71
tp72
Rp73
ag10
(g14
S'\xc8\x94-\xa1\x8d9Z@'
p74
tp75
Rp76
asS'target'
p77
(lp78
g10
(g14
S'b\xa2\n\xe3d\x87^@'
p79
tp80
Rp81
ag10
(g14
S'?\x8d\x04u\x07(R@'
p82
tp83
Rp84
ag10
(g14
S'\x98\x80%XNzD@'
p85
tp86
Rp87
ag10
(g14
S'\x1e\xb57\xab\x91\xb4T@'
p88
tp89
Rp90
ag10
(g14
S'T\xb6z\xf8\xd0\xd4W@'
p91
tp92
Rp93
ag10
(g14
S'iu3\x01\xc4\x92B@'
p94
tp95
Rp96
ag10
(g14
S'\nZ\xa1\xb1O\x92E@'
p97
tp98
Rp99
ag10
(g14
S'\xaeNnd\x8a\x1d@@'
p100
tp101
Rp102
ag10
(g14
S'\x86\xff\xab03\xa4G@'
p103
tp104
Rp105
ag10
(g14
S'X(=\xef\xb2*H@'
p106
tp107
Rp108
ag10
(g14
S'\xdf\xaeu\xd5\xaa\xaeU@'
p109
tp110
Rp111
ag10
(g14
S'\x1b"<,6CZ@'
p112
tp113
Rp114
ag10
(g14
S'\xd5\xa5\xa0\xc8ndV@'
p115
tp116
Rp117
ag10
(g14
S'X-gm\xf5\xb4R@'
p118
tp119
Rp120
ag10
(g14
S'\xe1\x9c{\xc7\xd0W=@'
p121
tp122
Rp123
ag10
(g14
S'\xd6\x82\xb2\xc5Y\xc6H@'
p124
tp125
Rp126
ag10
(g14
S'\x0c\x9d\xa8\x01CAE@'
p127
tp128
Rp129
ag10
(g14
S'\xcd\xb1\x91\xd5aQB@'
p130
tp131
Rp132
ag10
(g14
S'.\\Ak\xc68_@'
p133
tp134
Rp135
ag10
(g14
S'<e\xddL\xe3\xe9P@'
p136
tp137
Rp138
asssss.