(dp0
S'../Data/sqlite_28.csv'
p1
(dp2
S'../Data/sqlite_76.csv'
p3
(dp4
F0.4
(dp5
S'mmre'
p6
(dp7
S'bellwether'
p8
(lp9
cnumpy.core.multiarray
scalar
p10
(cnumpy
dtype
p11
(S'f8'
p12
I0
I1
tp13
Rp14
(I3
S'<'
p15
NNNI-1
I-1
I0
tp16
bS'6\x80\xfdg=lT@'
p17
tp18
Rp19
ag10
(g14
S'xH\x9a\xe6DhT@'
p20
tp21
Rp22
ag10
(g14
S'\xe2\xde_.\xa9sT@'
p23
tp24
Rp25
ag10
(g14
S'=E\xde\x7f oT@'
p26
tp27
Rp28
ag10
(g14
S'C\xf7c\xc7\xa3lT@'
p29
tp30
Rp31
ag10
(g14
S'\xc7\xf0cHSiT@'
p32
tp33
Rp34
ag10
(g14
S'\xbf\xaa\xa4C3sT@'
p35
tp36
Rp37
ag10
(g14
S'K\x1c!\xbd\xffjT@'
p38
tp39
Rp40
ag10
(g14
S'(I\xc7|\x07uT@'
p41
tp42
Rp43
ag10
(g14
S'\xc4\xd7\x9dj\xb3dT@'
p44
tp45
Rp46
ag10
(g14
S'{\xa5\xa7c/kT@'
p47
tp48
Rp49
ag10
(g14
S'\xac\xd9[\x8c/lT@'
p50
tp51
Rp52
ag10
(g14
S'en\xf5\x18\xb7sT@'
p53
tp54
Rp55
ag10
(g14
S'\xf4\xfb\x933\x96jT@'
p56
tp57
Rp58
ag10
(g14
S'\x1dP!m|eT@'
p59
tp60
Rp61
ag10
(g14
S'\xf9\xf8\x9cV\xc3nT@'
p62
tp63
Rp64
ag10
(g14
S'A<#n\xd1nT@'
p65
tp66
Rp67
ag10
(g14
S'\xbb\xc1\x8a\xeeUdT@'
p68
tp69
Rp70
ag10
(g14
S'j\xb2\x8b\xc4cqT@'
p71
tp72
Rp73
ag10
(g14
S'\xe8\xf4\xe5\rIwT@'
p74
tp75
Rp76
asS'target'
p77
(lp78
g10
(g14
S'M\xd0,\xc1\x9f%1@'
p79
tp80
Rp81
ag10
(g14
S'6\x9f\xc1?e\xf51@'
p82
tp83
Rp84
ag10
(g14
S'\x16\x85\xbeD\xbaN0@'
p85
tp86
Rp87
ag10
(g14
S'\\\xd0G\xa3\x99\x841@'
p88
tp89
Rp90
ag10
(g14
S'\x9a\x85k\x86\xd5a1@'
p91
tp92
Rp93
ag10
(g14
S'R\xee0h\x1d\xd10@'
p94
tp95
Rp96
ag10
(g14
S'TU\x01\tQN1@'
p97
tp98
Rp99
ag10
(g14
S'\x84\rj\xa1\xeb\xed0@'
p100
tp101
Rp102
ag10
(g14
S' \x00|\xca.\xa80@'
p103
tp104
Rp105
ag10
(g14
S'O\x19K\x91*b2@'
p106
tp107
Rp108
ag10
(g14
S'\x0c\x8f*\xf4u?2@'
p109
tp110
Rp111
ag10
(g14
S'\x98\xd9\xdb\x0c\xf8\x1f1@'
p112
tp113
Rp114
ag10
(g14
S'\xa0Y\xfc\x8b\xf4\x811@'
p115
tp116
Rp117
ag10
(g14
S'\xdc9\x13\x1eW\xe80@'
p118
tp119
Rp120
ag10
(g14
S'\x84\xb8\xcf\xeaH\x832@'
p121
tp122
Rp123
ag10
(g14
S'M\x0fT-X\x151@'
p124
tp125
Rp126
ag10
(g14
S'o\x16\x08\xe3\x12\t2@'
p127
tp128
Rp129
ag10
(g14
S"\x18\xf1\xf6\xd8'/1@"
p130
tp131
Rp132
ag10
(g14
S'\xa3\x11\x93\x8f\x12\x9d1@'
p133
tp134
Rp135
ag10
(g14
S't\x9a\x10\x14\xd1m/@'
p136
tp137
Rp138
asssss.