(dp0
S'../Data/sqlite_23.csv'
p1
(dp2
S'../Data/sqlite_78.csv'
p3
(dp4
F0.35
(dp5
S'mmre'
p6
(dp7
S'bellwether'
p8
(lp9
cnumpy.core.multiarray
scalar
p10
(cnumpy
dtype
p11
(S'f8'
p12
I0
I1
tp13
Rp14
(I3
S'<'
p15
NNNI-1
I-1
I0
tp16
bS')\xf4u\x9f2*T@'
p17
tp18
Rp19
ag10
(g14
S'\xbb!M\x1d\x8f T@'
p20
tp21
Rp22
ag10
(g14
S'fkl\xaf[(T@'
p23
tp24
Rp25
ag10
(g14
S'_\xff\x8f\xb7\xb7\x1fT@'
p26
tp27
Rp28
ag10
(g14
S'\xc0\xb7\xc7\x86y&T@'
p29
tp30
Rp31
ag10
(g14
S'9\xe6\x83@ $T@'
p32
tp33
Rp34
ag10
(g14
S'PWZ\xb3\xfb%T@'
p35
tp36
Rp37
ag10
(g14
S'\xdb\xbe\xfer:#T@'
p38
tp39
Rp40
ag10
(g14
S'\x93\x02\xc25\x94 T@'
p41
tp42
Rp43
ag10
(g14
S'3\xa1\xcf\x08\xaa(T@'
p44
tp45
Rp46
ag10
(g14
S'jQbo{#T@'
p47
tp48
Rp49
ag10
(g14
S"\x81\xc54 -'T@"
p50
tp51
Rp52
ag10
(g14
S'E\xe9\x16\xa0\xea\x1dT@'
p53
tp54
Rp55
ag10
(g14
S'EN&\x9e\xd9&T@'
p56
tp57
Rp58
ag10
(g14
S'2\x9d\xc4\xff\x7f(T@'
p59
tp60
Rp61
ag10
(g14
S"t\xcd#\xb1\xd0'T@"
p62
tp63
Rp64
ag10
(g14
S'\xbb\x00\xce@\x84!T@'
p65
tp66
Rp67
ag10
(g14
S'@\x8fDf\x08.T@'
p68
tp69
Rp70
ag10
(g14
S'v\xc7g)\x15\x1fT@'
p71
tp72
Rp73
ag10
(g14
S'|\xe0\xac>q\x1eT@'
p74
tp75
Rp76
asS'target'
p77
(lp78
g10
(g14
S'\x8e\xa1\xcf\xd3\x80\xeb2@'
p79
tp80
Rp81
ag10
(g14
S'\xad\x12R\xfd#\xd44@'
p82
tp83
Rp84
ag10
(g14
S'\xd40\x0b\xcb\xe0\x8e2@'
p85
tp86
Rp87
ag10
(g14
S'\x1fKHC\xe1\xaf3@'
p88
tp89
Rp90
ag10
(g14
S'$\xdb\x87Yu43@'
p91
tp92
Rp93
ag10
(g14
S'\x85\x03\xc5\xd2\\\xff3@'
p94
tp95
Rp96
ag10
(g14
S'\x02d\xcfU\x88;4@'
p97
tp98
Rp99
ag10
(g14
S'\xaaU\xb9]Lq5@'
p100
tp101
Rp102
ag10
(g14
S'\xb1F>xvT4@'
p103
tp104
Rp105
ag10
(g14
S'\x0c\x07\x1f\xb8\xf7\x1b4@'
p106
tp107
Rp108
ag10
(g14
S'X\xdf;\x98R\xea2@'
p109
tp110
Rp111
ag10
(g14
S"\x85E?!\xd2'3@"
p112
tp113
Rp114
ag10
(g14
S'\xc2\xe3\x08\xf6\x85\xd32@'
p115
tp116
Rp117
ag10
(g14
S'\x81\x02R\x8f\xe0P5@'
p118
tp119
Rp120
ag10
(g14
S'Ur\xf6\xe9\x16d4@'
p121
tp122
Rp123
ag10
(g14
S'd\x8eX\xf3\xb1\xff2@'
p124
tp125
Rp126
ag10
(g14
S'\x90v\x08Juu4@'
p127
tp128
Rp129
ag10
(g14
S'\xb1,\x16j\x8c\x993@'
p130
tp131
Rp132
ag10
(g14
S'\x91\xae.\x8e?@4@'
p133
tp134
Rp135
ag10
(g14
S'\xc26C>\xf6\x0c4@'
p136
tp137
Rp138
asssss.