(dp0
S'../Data/sqlite_29.csv'
p1
(dp2
S'../Data/sqlite_44.csv'
p3
(dp4
F0.15
(dp5
S'abs_res'
p6
(dp7
S'bellwether'
p8
(lp9
cnumpy.core.multiarray
scalar
p10
(cnumpy
dtype
p11
(S'f8'
p12
I0
I1
tp13
Rp14
(I3
S'<'
p15
NNNI-1
I-1
I0
tp16
bS'{\x14\xaeG\xcc\rCA'
p17
tp18
Rp19
ag10
(g14
S'\xb2c\x82G\x1b\rCA'
p20
tp21
Rp22
ag10
(g14
S'\x1f>\xc3.B\rCA'
p23
tp24
Rp25
ag10
(g14
S'V9\xb4\xb8^\rCA'
p26
tp27
Rp28
ag10
(g14
S'\xe6|?5\x99\rCA'
p29
tp30
Rp31
ag10
(g14
S'\xf4o\x84\xd2\x9b\x0fCA'
p32
tp33
Rp34
ag10
(g14
S'V\x9c}\x98V\x0eCA'
p35
tp36
Rp37
ag10
(g14
S'J\x0c\x02;\x9d\x0eCA'
p38
tp39
Rp40
ag10
(g14
S'\x01\xf1\x19\x86\x90\x0eCA'
p41
tp42
Rp43
ag10
(g14
S'Q\x8d\x97\x9e\xc1\rCA'
p44
tp45
Rp46
ag10
(g14
S'\xa3p=\xfa\xa0\x0eCA'
p47
tp48
Rp49
ag10
(g14
S'\xcf\xa1Ef\x83\x0eCA'
p50
tp51
Rp52
ag10
(g14
S'~j\xbc\xc4\xc4\x0eCA'
p53
tp54
Rp55
ag10
(g14
S'+\xa3\xb7\xe5\xb9\rCA'
p56
tp57
Rp58
ag10
(g14
S's\x842\xaaU\x0eCA'
p59
tp60
Rp61
ag10
(g14
S'\x8d\xc2\xf5X\xd5\rCA'
p62
tp63
Rp64
ag10
(g14
S'\xfa~j\\*\x0eCA'
p65
tp66
Rp67
ag10
(g14
S'\x0b\x02+\x97k\rCA'
p68
tp69
Rp70
ag10
(g14
S'\xae\x8e\t\xce\x85\x0eCA'
p71
tp72
Rp73
ag10
(g14
S'J~\xb1t\xb2\rCA'
p74
tp75
Rp76
asS'target'
p77
(lp78
g10
(g14
S'_d;\xdfO\xfdO@'
p79
tp80
Rp81
ag10
(g14
S'\x91\xc2\xf5(\\WP@'
p82
tp83
Rp84
ag10
(g14
S'\x15\x02+\x87\x16\tS@'
p85
tp86
Rp87
ag10
(g14
S')\x87\x16\xd9\xce\xa3R@'
p88
tp89
Rp90
ag10
(g14
S'J\xe3\xa5\x9b\xc40N@'
p91
tp92
Rp93
ag10
(g14
S'\xfa\xff\xff\xff\xffsP@'
p94
tp95
Rp96
ag10
(g14
S'\x9c\xc4 \xb0r\xe8L@'
p97
tp98
Rp99
ag10
(g14
S'e\x10X9\xb4hN@'
p100
tp101
Rp102
ag10
(g14
S'\xe9|?5^\xdaM@'
p103
tp104
Rp105
ag10
(g14
S'\xc3\x9f\x1a/\xdd\xb4L@'
p106
tp107
Rp108
ag10
(g14
S'@5^\xbaI\x9cM@'
p109
tp110
Rp111
ag10
(g14
S'\x94\xed|?5\xceM@'
p112
tp113
Rp114
ag10
(g14
S'>\x8bl\xe7\xfb\x99L@'
p115
tp116
Rp117
ag10
(g14
S'\xa0p=\n\xd7\x13O@'
p118
tp119
Rp120
ag10
(g14
S'\xc5K7\x89A(P@'
p121
tp122
Rp123
ag10
(g14
S'C\n\xd7\xa3p]S@'
p124
tp125
Rp126
ag10
(g14
S'\xed\xd0"\xdb\xf9\x8eM@'
p127
tp128
Rp129
ag10
(g14
S'h\x91\xed|?uN@'
p130
tp131
Rp132
ag10
(g14
S'\x95\xc4 \xb0r8O@'
p133
tp134
Rp135
ag10
(g14
S'\xd1Mb\x10X\x05Q@'
p136
tp137
Rp138
asssss.