(dp0
S'../Data/sqlite_29.csv'
p1
(dp2
S'../Data/sqlite_85.csv'
p3
(dp4
F0.05
(dp5
S'mmre'
p6
(dp7
S'bellwether'
p8
(lp9
cnumpy.core.multiarray
scalar
p10
(cnumpy
dtype
p11
(S'f8'
p12
I0
I1
tp13
Rp14
(I3
S'<'
p15
NNNI-1
I-1
I0
tp16
bS'\xd4\xf4\xe6\x19[<Q@'
p17
tp18
Rp19
ag10
(g14
S'"F\xf0MI\'Q@'
p20
tp21
Rp22
ag10
(g14
S')\x15\xe4\x8a]*Q@'
p23
tp24
Rp25
ag10
(g14
S'\x80\x0c\x101\x95\x14Q@'
p26
tp27
Rp28
ag10
(g14
S'f\xdf@F\x9e\x1fQ@'
p29
tp30
Rp31
ag10
(g14
S'\x0f\xf01\xc9\xa7\x13Q@'
p32
tp33
Rp34
ag10
(g14
S"\xecB\xf9%{'Q@"
p35
tp36
Rp37
ag10
(g14
S'/\xf7\xfb\x1d\xf41Q@'
p38
tp39
Rp40
ag10
(g14
S'\x18\x9bZs\xba&Q@'
p41
tp42
Rp43
ag10
(g14
S'\x0c\xdf\x8c\xb2\xf77Q@'
p44
tp45
Rp46
ag10
(g14
S'\xff1\x14\xc2n1Q@'
p47
tp48
Rp49
ag10
(g14
S'\xad\xf3\x1b\xeb\xbd)Q@'
p50
tp51
Rp52
ag10
(g14
S"\xdf\x9c\xba\x9d\xc9'Q@"
p53
tp54
Rp55
ag10
(g14
S'9y\xe4.\x073Q@'
p56
tp57
Rp58
ag10
(g14
S'\xe2\xf0\xbd4\x0c1Q@'
p59
tp60
Rp61
ag10
(g14
S'Qo\xca\x14:5Q@'
p62
tp63
Rp64
ag10
(g14
S'\xbf\xe0\xc0b\xbd8Q@'
p65
tp66
Rp67
ag10
(g14
S"V\xc5\xa3\xc7p'Q@"
p68
tp69
Rp70
ag10
(g14
S'\xb1\x8f\x82\x8641Q@'
p71
tp72
Rp73
ag10
(g14
S'Jo\x15c\x99%Q@'
p74
tp75
Rp76
asS'target'
p77
(lp78
g10
(g14
S'\x7fHr\xcb\xcclR@'
p79
tp80
Rp81
ag10
(g14
S'\xfa\x17\xb4\xbf\xcaHS@'
p82
tp83
Rp84
ag10
(g14
S'5B_\x91\x8a\xe9R@'
p85
tp86
Rp87
ag10
(g14
S'\xf4\x07\xb8!U#S@'
p88
tp89
Rp90
ag10
(g14
S']b\x05u\x87\x81T@'
p91
tp92
Rp93
ag10
(g14
S'\x1d\xb9\xb5Xc\x8dQ@'
p94
tp95
Rp96
ag10
(g14
S'Yq\t\x8d\nXS@'
p97
tp98
Rp99
ag10
(g14
S'n;JV\xc9\xfbR@'
p100
tp101
Rp102
ag10
(g14
S'\xd8\xbe3yS:S@'
p103
tp104
Rp105
ag10
(g14
S'e@\x88?$\xabS@'
p106
tp107
Rp108
ag10
(g14
S'\x96\x1cu\xbc\xaaKU@'
p109
tp110
Rp111
ag10
(g14
S'\t\xf7\xb0+\x90\xfaS@'
p112
tp113
Rp114
ag10
(g14
S'\xb1g3\x86\\\xd4R@'
p115
tp116
Rp117
ag10
(g14
S'`wl\xa4T\x1bU@'
p118
tp119
Rp120
ag10
(g14
S'\xd8B\xbe\x03\x8c`T@'
p121
tp122
Rp123
ag10
(g14
S'\x82\xafH\xb2\x99\xebR@'
p124
tp125
Rp126
ag10
(g14
S'\x1eS\x0b4\xa8rS@'
p127
tp128
Rp129
ag10
(g14
S'\x9a\xbcl=\xac\x8bR@'
p130
tp131
Rp132
ag10
(g14
S'\xe1\xbb\x90\x12\x15\xdaT@'
p133
tp134
Rp135
ag10
(g14
S'\x17UW_.RT@'
p136
tp137
Rp138
asssss.