(dp0
S'../Data/sqlite_23.csv'
p1
(dp2
S'../Data/sqlite_96.csv'
p3
(dp4
F0.3
(dp5
S'mmre'
p6
(dp7
S'bellwether'
p8
(lp9
cnumpy.core.multiarray
scalar
p10
(cnumpy
dtype
p11
(S'f8'
p12
I0
I1
tp13
Rp14
(I3
S'<'
p15
NNNI-1
I-1
I0
tp16
bS'}~X\xea\xdc&X@'
p17
tp18
Rp19
ag10
(g14
S'~\xa2T\x1d\x9c)X@'
p20
tp21
Rp22
ag10
(g14
S'\xbb\x7f\xedy\x8f&X@'
p23
tp24
Rp25
ag10
(g14
S'\xc7\x82\t\x9a6)X@'
p26
tp27
Rp28
ag10
(g14
S'c\xd6F\xc0V&X@'
p29
tp30
Rp31
ag10
(g14
S"\x97\x03K\x84#'X@"
p32
tp33
Rp34
ag10
(g14
S"$\xc4\xb3S\xe1'X@"
p35
tp36
Rp37
ag10
(g14
S"\x19\x14\x05\x06\xaf'X@"
p38
tp39
Rp40
ag10
(g14
S'C\xc2P\xde\x07*X@'
p41
tp42
Rp43
ag10
(g14
S'\xaei#R?)X@'
p44
tp45
Rp46
ag10
(g14
S'\xf3\xf8?\xa2f(X@'
p47
tp48
Rp49
ag10
(g14
S'j\x83\xe5\xd2\x89(X@'
p50
tp51
Rp52
ag10
(g14
S'\xa5\x00=\xd2\xbc&X@'
p53
tp54
Rp55
ag10
(g14
S'\xe7#\xbea\x94&X@'
p56
tp57
Rp58
ag10
(g14
S'\x0c62<M&X@'
p59
tp60
Rp61
ag10
(g14
S'\x0e\x16V\x109)X@'
p62
tp63
Rp64
ag10
(g14
S'\xc8\x1d\x1c\xa8<%X@'
p65
tp66
Rp67
ag10
(g14
S'i\xe1<\x0bX(X@'
p68
tp69
Rp70
ag10
(g14
S"\x06\xa3E1F'X@"
p71
tp72
Rp73
ag10
(g14
S'\x97\xf0io\xfb(X@'
p74
tp75
Rp76
asS'target'
p77
(lp78
g10
(g14
S'\xdax\xfc\xd6w\x02Z@'
p79
tp80
Rp81
ag10
(g14
S'\xbb\x8d\x1cD\xfe\xb1N@'
p82
tp83
Rp84
ag10
(g14
S'\xbc\xdaR\xdd\xbb\rS@'
p85
tp86
Rp87
ag10
(g14
S'|P>\xf9\\\xabV@'
p88
tp89
Rp90
ag10
(g14
S'\xb9\x83h\x93\xaf+Z@'
p91
tp92
Rp93
ag10
(g14
S'\xae\xbe\x82\xe8v\x97Q@'
p94
tp95
Rp96
ag10
(g14
S'\xaa\xf4j8C\xfcT@'
p97
tp98
Rp99
ag10
(g14
S'1\xacQ\x8fP\xfdK@'
p100
tp101
Rp102
ag10
(g14
S'\x800\xc65\xe9}M@'
p103
tp104
Rp105
ag10
(g14
S'\xc4=\x1d\x9b\x8a\x94Q@'
p106
tp107
Rp108
ag10
(g14
S'~\xb0\xc8A\xdb?V@'
p109
tp110
Rp111
ag10
(g14
S'ezKU/\x0fM@'
p112
tp113
Rp114
ag10
(g14
S'\x97he\xe7@AP@'
p115
tp116
Rp117
ag10
(g14
S'\xb1\xd2\xc4\x86\xe5:S@'
p118
tp119
Rp120
ag10
(g14
S'~J\x9e\xf6#TW@'
p121
tp122
Rp123
ag10
(g14
S'h\x83\xe3\x9e-\x12R@'
p124
tp125
Rp126
ag10
(g14
S'\xb3OR*\x83<Z@'
p127
tp128
Rp129
ag10
(g14
S'\xbe\xe3\x1fM\x89\xaaY@'
p130
tp131
Rp132
ag10
(g14
S'\n\x89\x96u\xce:V@'
p133
tp134
Rp135
ag10
(g14
S'\x90g\xdf\xc6\x9c8W@'
p136
tp137
Rp138
asssss.