(dp0
S'../Data/sqlite_29.csv'
p1
(dp2
S'../Data/sqlite_9.csv'
p3
(dp4
F0.05
(dp5
S'abs_res'
p6
(dp7
S'bellwether'
p8
(lp9
cnumpy.core.multiarray
scalar
p10
(cnumpy
dtype
p11
(S'f8'
p12
I0
I1
tp13
Rp14
(I3
S'<'
p15
NNNI-1
I-1
I0
tp16
bS'\xd0K7\xc9wPEA'
p17
tp18
Rp19
ag10
(g14
S'U\x8d\x97>\xc1PEA'
p20
tp21
Rp22
ag10
(g14
S'\xc1\xf5(\xdc\xa9PEA'
p23
tp24
Rp25
ag10
(g14
S'\x01\xaa\xf1\xb2\x14PEA'
p26
tp27
Rp28
ag10
(g14
S'\xa8\x9b\xc4p\x80PEA'
p29
tp30
Rp31
ag10
(g14
S'9`\xe5\xc0pPEA'
p32
tp33
Rp34
ag10
(g14
S'\xecQ\xb8\xae\xb0PEA'
p35
tp36
Rp37
ag10
(g14
S'\xbc\x9f\x1a\x9f\x1fPEA'
p38
tp39
Rp40
ag10
(g14
S"'\\\x8f\xa2oPEA"
p41
tp42
Rp43
ag10
(g14
S'\xea\xee\xee\xde\x11QEA'
p44
tp45
Rp46
ag10
(g14
S'%\\\x8f\xa2\x90PEA'
p47
tp48
Rp49
ag10
(g14
S'\x08\x02+W^PEA'
p50
tp51
Rp52
ag10
(g14
S'\xd3Mb@\xe8PEA'
p53
tp54
Rp55
ag10
(g14
S'\xfa\xd2M2\xf9PEA'
p56
tp57
Rp58
ag10
(g14
S'\x01\xc6\x92\xaf\x7fPEA'
p59
tp60
Rp61
ag10
(g14
S'8\x89A@\xf3PEA'
p62
tp63
Rp64
ag10
(g14
S'\xe6Q\xb8\x1eoPEA'
p65
tp66
Rp67
ag10
(g14
S'Z\xe3\xa5\xdbTQEA'
p68
tp69
Rp70
ag10
(g14
S"'1\x08\xec\tQEA"
p71
tp72
Rp73
ag10
(g14
S'r.$\xfd\xb8PEA'
p74
tp75
Rp76
asS'target'
p77
(lp78
g10
(g14
S'b\xe5\xd0"\xdb\x99K@'
p79
tp80
Rp81
ag10
(g14
S'J\xe1z\x14\xae\xe7G@'
p82
tp83
Rp84
ag10
(g14
S';\x89A`\xe5\x80@@'
p85
tp86
Rp87
ag10
(g14
S'Mb\x10X94C@'
p88
tp89
Rp90
ag10
(g14
S'[\x8f\xc2\xf5(\xdcC@'
p91
tp92
Rp93
ag10
(g14
S'\xaa\xef\xa7\xc6K\xf7C@'
p94
tp95
Rp96
ag10
(g14
S'\xecO\x8d\x97n\xb2@@'
p97
tp98
Rp99
ag10
(g14
S'n\xe5\xd0"\xdb)I@'
p100
tp101
Rp102
ag10
(g14
S'$\xb0rh\x91\xadB@'
p103
tp104
Rp105
ag10
(g14
S'\xfb(\\\x8f\xc2e@@'
p106
tp107
Rp108
ag10
(g14
S'd\xe5\xd0"\xdb\xe1C@'
p109
tp110
Rp111
ag10
(g14
S'\xfc\xa7\xc6K7YH@'
p112
tp113
Rp114
ag10
(g14
S'o\x12\x83\xc0\xca\xf1H@'
p115
tp116
Rp117
ag10
(g14
S' \x04V\x0e-RA@'
p118
tp119
Rp120
ag10
(g14
S'\tV\x0e-\xb2\x8dG@'
p121
tp122
Rp123
ag10
(g14
S'F`\xe5\xd0"[B@'
p124
tp125
Rp126
ag10
(g14
S'4\xb2\x9d\xef\xa76E@'
p127
tp128
Rp129
ag10
(g14
S'\xd1v\xbe\x9f\x1aOJ@'
p130
tp131
Rp132
ag10
(g14
S'\x86?5^\xba\x89F@'
p133
tp134
Rp135
ag10
(g14
S'6\xdd$\x06\x81eH@'
p136
tp137
Rp138
asssss.