(dp0
S'../Data/sqlite_85.csv'
p1
(dp2
S'../Data/sqlite_61.csv'
p3
(dp4
F0.15
(dp5
S'abs_res'
p6
(dp7
S'bellwether'
p8
(lp9
cnumpy.core.multiarray
scalar
p10
(cnumpy
dtype
p11
(S'f8'
p12
I0
I1
tp13
Rp14
(I3
S'<'
p15
NNNI-1
I-1
I0
tp16
bS'\xf5\xd2M\xc2A]WA'
p17
tp18
Rp19
ag10
(g14
S'\x11\xd7\xa3`_SWA'
p20
tp21
Rp22
ag10
(g14
S'\xf2\x8b%\x7f\x8bVWA'
p23
tp24
Rp25
ag10
(g14
S'&ku\xd4\xa7"WA'
p26
tp27
Rp28
ag10
(g14
S'=\xb6\xf3\xfd MWA'
p29
tp30
Rp31
ag10
(g14
S'\xc1X\xf2\xbb+=WA'
p32
tp33
Rp34
ag10
(g14
S'C\xe1zD\xfeIWA'
p35
tp36
Rp37
ag10
(g14
S'\x1b\xb0rx\xc5HWA'
p38
tp39
Rp40
ag10
(g14
S'\xb6rh\xf9\xd0MWA'
p41
tp42
Rp43
ag10
(g14
S'\xca/\x96\xf4AcWA'
p44
tp45
Rp46
ag10
(g14
S'\x9e\x99\x99\xc1\x02nWA'
p47
tp48
Rp49
ag10
(g14
S'\xdc$\x06Y\x13NWA'
p50
tp51
Rp52
ag10
(g14
S'\x8dN\x1bH\xf6lWA'
p53
tp54
Rp55
ag10
(g14
S'\xcd\\H*_dWA'
p56
tp57
Rp58
ag10
(g14
S'o\xa0\xd36HoWA'
p59
tp60
Rp61
ag10
(g14
S'\x0b\xac\x1c\x82\x81~WA'
p62
tp63
Rp64
ag10
(g14
S'\xa4\xef\xa7f\r}WA'
p65
tp66
Rp67
ag10
(g14
S'\xf9q\xafA\x97AWA'
p68
tp69
Rp70
ag10
(g14
S'\x8e\x97n\xb2\xe3mWA'
p71
tp72
Rp73
ag10
(g14
S'\x15g\x1f\x96\xc5\xa9WA'
p74
tp75
Rp76
asS'target'
p77
(lp78
g10
(g14
S'r\x14\xaeG\xe1\xd8x@'
p79
tp80
Rp81
ag10
(g14
S'\xaeG\xe1z\x14\x88z@'
p82
tp83
Rp84
ag10
(g14
S'\xc0\x9f\x1a/\xddbt@'
p85
tp86
Rp87
ag10
(g14
S'\x1a\x04V\x0e-\xa8z@'
p88
tp89
Rp90
ag10
(g14
S'\xb4t\x93\x18\x04$u@'
p91
tp92
Rp93
ag10
(g14
S'\xe7\xfb\xa9\xf1\xd2\xd0{@'
p94
tp95
Rp96
ag10
(g14
S'q=\n\xd7\xa3\x06v@'
p97
tp98
Rp99
ag10
(g14
S'\xe8O\x8d\x97n\xc1x@'
p100
tp101
Rp102
ag10
(g14
S'\xbf\xf5(\\\x8f~~@'
p103
tp104
Rp105
ag10
(g14
S'\x0e\x02+\x87\x16X{@'
p106
tp107
Rp108
ag10
(g14
S'm=\n\xd7\xa3[{@'
p109
tp110
Rp111
ag10
(g14
S'\x85\xc0\xca\xa1E\xce|@'
p112
tp113
Rp114
ag10
(g14
S'p\x91\xed|?\xa7w@'
p115
tp116
Rp117
ag10
(g14
S'\x92\x97n\x12\x83\x9bv@'
p118
tp119
Rp120
ag10
(g14
S'\xe9&1\x08\xac\nq@'
p121
tp122
Rp123
ag10
(g14
S'k\x91\xed|?Cs@'
p124
tp125
Rp126
ag10
(g14
S'23333Ew@'
p127
tp128
Rp129
ag10
(g14
S'gffff\x01s@'
p130
tp131
Rp132
ag10
(g14
S'\x96\xc4 \xb0r\xe9y@'
p133
tp134
Rp135
ag10
(g14
S'\xae\x1cZd;6s@'
p136
tp137
Rp138
asssss.