(dp0
S'../Data/sqlite_28.csv'
p1
(dp2
S'../Data/sqlite_63.csv'
p3
(dp4
F0.25
(dp5
S'mmre'
p6
(dp7
S'bellwether'
p8
(lp9
cnumpy.core.multiarray
scalar
p10
(cnumpy
dtype
p11
(S'f8'
p12
I0
I1
tp13
Rp14
(I3
S'<'
p15
NNNI-1
I-1
I0
tp16
bS'\xb3\\\xcb|\x8e%R@'
p17
tp18
Rp19
ag10
(g14
S'\x8f\xa7\x0b\xe7\x98,R@'
p20
tp21
Rp22
ag10
(g14
S'\xd2{\xb1\x0c\x8c&R@'
p23
tp24
Rp25
ag10
(g14
S'\x15R\xa3\xce\r,R@'
p26
tp27
Rp28
ag10
(g14
S'\xa0^\x95]\r(R@'
p29
tp30
Rp31
ag10
(g14
S'\x8c\xea)2\x8c%R@'
p32
tp33
Rp34
ag10
(g14
S'\x8bn\x81h\x05&R@'
p35
tp36
Rp37
ag10
(g14
S'\xf6<\xb6gq0R@'
p38
tp39
Rp40
ag10
(g14
S'\x83"v\xf3\xf1&R@'
p41
tp42
Rp43
ag10
(g14
S'\xc8\xd6\xaf\x00\r+R@'
p44
tp45
Rp46
ag10
(g14
S'\xf3 \x16\x87\x14*R@'
p47
tp48
Rp49
ag10
(g14
S'}\x93\xad\x91x.R@'
p50
tp51
Rp52
ag10
(g14
S'9\x1bY\x05|/R@'
p53
tp54
Rp55
ag10
(g14
S'\xd3I\x9d\xd6k)R@'
p56
tp57
Rp58
ag10
(g14
S'3A\xee\xfe{ R@'
p59
tp60
Rp61
ag10
(g14
S'\x1dZ+ZK.R@'
p62
tp63
Rp64
ag10
(g14
S'\x0e\x95VLI#R@'
p65
tp66
Rp67
ag10
(g14
S'S\xa65 \xeb(R@'
p68
tp69
Rp70
ag10
(g14
S'<y=V\x94*R@'
p71
tp72
Rp73
ag10
(g14
S'M\xca\xfd\x8f\xd9$R@'
p74
tp75
Rp76
asS'target'
p77
(lp78
g10
(g14
S'\x19l\x11\r1\x94#@'
p79
tp80
Rp81
ag10
(g14
S'y\xafU\x0e\x8bF"@'
p82
tp83
Rp84
ag10
(g14
S'y\xd92=\xc9\xd5"@'
p85
tp86
Rp87
ag10
(g14
S'\xcb\x00\xbd\xe7,\xd4"@'
p88
tp89
Rp90
ag10
(g14
S'\x84\xf2\x912\xd9a"@'
p91
tp92
Rp93
ag10
(g14
S'\xce\xc9\xcdW_\x95"@'
p94
tp95
Rp96
ag10
(g14
S'\x8f\xf2\x19\xa2\xfc\xd6!@'
p97
tp98
Rp99
ag10
(g14
S'=\xb0s\x89\xdc\xcf"@'
p100
tp101
Rp102
ag10
(g14
S'm\xa56\xf5\x97\xc8"@'
p103
tp104
Rp105
ag10
(g14
S'dAd>\xf5\xaf"@'
p106
tp107
Rp108
ag10
(g14
S'\xef\xcd\xbd\xe9N\xe6"@'
p109
tp110
Rp111
ag10
(g14
S'^$A;\xc8?"@'
p112
tp113
Rp114
ag10
(g14
S'\xb51@z\xdaU!@'
p115
tp116
Rp117
ag10
(g14
S'\xd2\\\xd3>\x0c\xe7"@'
p118
tp119
Rp120
ag10
(g14
S'\xc29\x1a\xad\xae\xe4"@'
p121
tp122
Rp123
ag10
(g14
S'\x8f\xeb\xe1l m"@'
p124
tp125
Rp126
ag10
(g14
S'4E~N\xff\'"@'
p127
tp128
Rp129
ag10
(g14
S'@\x10\x03\xd7\xae\xba!@'
p130
tp131
Rp132
ag10
(g14
S'\xe9\x9e\\4\x9cN"@'
p133
tp134
Rp135
ag10
(g14
S'\x838\xac\xb6.\xa9"@'
p136
tp137
Rp138
asssss.