(dp0
S'../Data/sqlite_33.csv'
p1
(dp2
S'../Data/sqlite_92.csv'
p3
(dp4
F0.05
(dp5
S'mmre'
p6
(dp7
S'bellwether'
p8
(lp9
cnumpy.core.multiarray
scalar
p10
(cnumpy
dtype
p11
(S'f8'
p12
I0
I1
tp13
Rp14
(I3
S'<'
p15
NNNI-1
I-1
I0
tp16
bS'0\xaf\xa1\xe8p^H@'
p17
tp18
Rp19
ag10
(g14
S'\xb4:?\xed\xfa\x99H@'
p20
tp21
Rp22
ag10
(g14
S'/\x1e\xc2`TXH@'
p23
tp24
Rp25
ag10
(g14
S'\xca\x98\xd7\xc1\xb0mH@'
p26
tp27
Rp28
ag10
(g14
S'\x9eu9z\x0c\x8eH@'
p29
tp30
Rp31
ag10
(g14
S't\xfb4WUNH@'
p32
tp33
Rp34
ag10
(g14
S'mF\xa11\xdf\x86H@'
p35
tp36
Rp37
ag10
(g14
S'\xf4\x8f\xbc\xc2\xfczH@'
p38
tp39
Rp40
ag10
(g14
S'!\xb7\x90H\xb1\xa1H@'
p41
tp42
Rp43
ag10
(g14
S'o\xe3ko\xb9bH@'
p44
tp45
Rp46
ag10
(g14
S'\x82$.,\xfcHH@'
p47
tp48
Rp49
ag10
(g14
S'8\xc3_1\xe2YH@'
p50
tp51
Rp52
ag10
(g14
S't\xac\xd6\xbc\xeeCH@'
p53
tp54
Rp55
ag10
(g14
S'\xbe\x1d\n\x02B\x84H@'
p56
tp57
Rp58
ag10
(g14
S'6\xc1\xf5\x15\x04@H@'
p59
tp60
Rp61
ag10
(g14
S'\x8a\x1e\x12b\x1a{H@'
p62
tp63
Rp64
ag10
(g14
S'X\x02\xe80\xdeNH@'
p65
tp66
Rp67
ag10
(g14
S'\xb2~\xc7\xe2\x03mH@'
p68
tp69
Rp70
ag10
(g14
S'H>\xa8Wo\x84H@'
p71
tp72
Rp73
ag10
(g14
S'\xe6\x85\xdc\x84$\x8aH@'
p74
tp75
Rp76
asS'target'
p77
(lp78
g10
(g14
S'\x0f?u\x86\xdb\xd8W@'
p79
tp80
Rp81
ag10
(g14
S'\x8a\xe8\x93\xef\x0c\x94D@'
p82
tp83
Rp84
ag10
(g14
S'\r_\x93~\xf0G[@'
p85
tp86
Rp87
ag10
(g14
S'\xe2\xb0#?\x1d,f@'
p88
tp89
Rp90
ag10
(g14
S'\\\x91\x844l5H@'
p91
tp92
Rp93
ag10
(g14
S'\xf9&]1>\xaaP@'
p94
tp95
Rp96
ag10
(g14
S'>g<z\x86\x90W@'
p97
tp98
Rp99
ag10
(g14
S'Rvq\xf1T\xc3H@'
p100
tp101
Rp102
ag10
(g14
S"\xa0\xf8c|a'J@"
p103
tp104
Rp105
ag10
(g14
S'\xf0F\x03\xcb\xfa\xdaU@'
p106
tp107
Rp108
ag10
(g14
S'0\x84`\xd8>qU@'
p109
tp110
Rp111
ag10
(g14
S'9\xdfL\x10\x81\xf0K@'
p112
tp113
Rp114
ag10
(g14
S'[\x0b\xdb\xda\x1ecb@'
p115
tp116
Rp117
ag10
(g14
S'\xe6X\x19\xa8/oP@'
p118
tp119
Rp120
ag10
(g14
S'g\t_\x9a\\;V@'
p121
tp122
Rp123
ag10
(g14
S'i\xc7d\xa3\xca\x17Z@'
p124
tp125
Rp126
ag10
(g14
S'\xd4\xca\xe4\xae\xec\xdcZ@'
p127
tp128
Rp129
ag10
(g14
S',\x9a\x9f`\xc5\xc7a@'
p130
tp131
Rp132
ag10
(g14
S'o \xe0\xac\x81\xc9T@'
p133
tp134
Rp135
ag10
(g14
S"\x1e(\xc4;\xe9'@@"
p136
tp137
Rp138
asssss.