(dp0
S'../Data/sqlite_35.csv'
p1
(dp2
S'../Data/sqlite_76.csv'
p3
(dp4
F0.15
(dp5
S'mmre'
p6
(dp7
S'bellwether'
p8
(lp9
cnumpy.core.multiarray
scalar
p10
(cnumpy
dtype
p11
(S'f8'
p12
I0
I1
tp13
Rp14
(I3
S'<'
p15
NNNI-1
I-1
I0
tp16
bS'/\xf9\xeb\x14WUQ@'
p17
tp18
Rp19
ag10
(g14
S'.\x9f\xdeHWZQ@'
p20
tp21
Rp22
ag10
(g14
S'\x9c\x9a\xd0k\xb8\\Q@'
p23
tp24
Rp25
ag10
(g14
S'f\xa5\x00\x11\xd0YQ@'
p26
tp27
Rp28
ag10
(g14
S'{\xe5d\\VZQ@'
p29
tp30
Rp31
ag10
(g14
S'\x06\xbf\x91\xb0\xfeXQ@'
p32
tp33
Rp34
ag10
(g14
S'\xca`a\xae0WQ@'
p35
tp36
Rp37
ag10
(g14
S'kH\xca\x8ezYQ@'
p38
tp39
Rp40
ag10
(g14
S'P\xc7\xce[9`Q@'
p41
tp42
Rp43
ag10
(g14
S'\x8f<\xfdpiYQ@'
p44
tp45
Rp46
ag10
(g14
S'\r\xfe\x8f\xc49VQ@'
p47
tp48
Rp49
ag10
(g14
S't\x01\x96\x8f\xd3WQ@'
p50
tp51
Rp52
ag10
(g14
S'`\xa4\xc5Li_Q@'
p53
tp54
Rp55
ag10
(g14
S'\xe7uh\xbe\x98VQ@'
p56
tp57
Rp58
ag10
(g14
S'\xcb\xb8);\xc2SQ@'
p59
tp60
Rp61
ag10
(g14
S'\xe5X\xebeWZQ@'
p62
tp63
Rp64
ag10
(g14
S'\xc4\x8c\x1d\xaaSXQ@'
p65
tp66
Rp67
ag10
(g14
S'\\q\x02\xea]YQ@'
p68
tp69
Rp70
ag10
(g14
S'w\x81W\x07\xb4ZQ@'
p71
tp72
Rp73
ag10
(g14
S'\x16\x83\xe0\xd0\xd1ZQ@'
p74
tp75
Rp76
asS'target'
p77
(lp78
g10
(g14
S'\x9b\x91\x1d\x89&\x1c2@'
p79
tp80
Rp81
ag10
(g14
S'\x06\xdd\x0eG\x12q1@'
p82
tp83
Rp84
ag10
(g14
S'Q\xf9\xc9DC\xed1@'
p85
tp86
Rp87
ag10
(g14
S'T\x82\x8f\xc2\xba\x8d0@'
p88
tp89
Rp90
ag10
(g14
S'dI\xa5g<q1@'
p91
tp92
Rp93
ag10
(g14
S'\x17\xc7~\xba\x1b\x1f1@'
p94
tp95
Rp96
ag10
(g14
S'\x17\x8e\xeb\xb61V3@'
p97
tp98
Rp99
ag10
(g14
S'\xfd\x9b\x9eq\x93H0@'
p100
tp101
Rp102
ag10
(g14
S'\x1e\x16M\x01k\x8d1@'
p103
tp104
Rp105
ag10
(g14
S'\xb6\xccSKo\x822@'
p106
tp107
Rp108
ag10
(g14
S'E\xbc\xe7\x14jt0@'
p109
tp110
Rp111
ag10
(g14
S'\xc3\x1ey\x14\rT1@'
p112
tp113
Rp114
ag10
(g14
S'\xa2~!\x16#\xad0@'
p115
tp116
Rp117
ag10
(g14
S'b\xcd \xceS\x1d3@'
p118
tp119
Rp120
ag10
(g14
S'\xf7\x7f\xf4j\xb0\x991@'
p121
tp122
Rp123
ag10
(g14
S'Ki\xc2V\tA2@'
p124
tp125
Rp126
ag10
(g14
S'\xfcM\x87a\xb3<1@'
p127
tp128
Rp129
ag10
(g14
S'\x84\x9aXy\xba\xeb1@'
p130
tp131
Rp132
ag10
(g14
S'\xa4\x97Y\xabcx0@'
p133
tp134
Rp135
ag10
(g14
S'\x11\xcck\x83\x98}0@'
p136
tp137
Rp138
asssss.