(dp0
S'../Data/sqlite_32.csv'
p1
(dp2
S'../Data/sqlite_94.csv'
p3
(dp4
F0.05
(dp5
S'mmre'
p6
(dp7
S'bellwether'
p8
(lp9
cnumpy.core.multiarray
scalar
p10
(cnumpy
dtype
p11
(S'f8'
p12
I0
I1
tp13
Rp14
(I3
S'<'
p15
NNNI-1
I-1
I0
tp16
bS'&\xc1\xc1\x96\xbeC}@'
p17
tp18
Rp19
ag10
(g14
S'\xc7\x89\x906\x82H}@'
p20
tp21
Rp22
ag10
(g14
S'&u\xa8N.Z}@'
p23
tp24
Rp25
ag10
(g14
S'ff\xdf*\xbe?}@'
p26
tp27
Rp28
ag10
(g14
S'I\xff>@\xb9B}@'
p29
tp30
Rp31
ag10
(g14
S'\x94[LD\xefP}@'
p32
tp33
Rp34
ag10
(g14
S'\xda\x9d\x1d\xac\x99P}@'
p35
tp36
Rp37
ag10
(g14
S'\xa5\xdb)47e}@'
p38
tp39
Rp40
ag10
(g14
S'\xb3h\x85M\xe9:}@'
p41
tp42
Rp43
ag10
(g14
S's4\x88\x84\xc9-}@'
p44
tp45
Rp46
ag10
(g14
S'\x1ar\x96I\x86@}@'
p47
tp48
Rp49
ag10
(g14
S'E;u4\x83c}@'
p50
tp51
Rp52
ag10
(g14
S':v6\xf9\x8a8}@'
p53
tp54
Rp55
ag10
(g14
S'\x1f\xd6\xcfu\t6}@'
p56
tp57
Rp58
ag10
(g14
S'G\xfaI\xcf\x90[}@'
p59
tp60
Rp61
ag10
(g14
S'\xd1\xc7\xdd\xf4O0}@'
p62
tp63
Rp64
ag10
(g14
S'%sX_\xa8Q}@'
p65
tp66
Rp67
ag10
(g14
S'\xd0)\x1c\xaa0J}@'
p68
tp69
Rp70
ag10
(g14
S'\x1a\x81\xd7\'"A}@'
p71
tp72
Rp73
ag10
(g14
S'\xd5\xb0\xf94_.}@'
p74
tp75
Rp76
asS'target'
p77
(lp78
g10
(g14
S'am#F\x9b\xd1@@'
p79
tp80
Rp81
ag10
(g14
S'\\\x11Ef\x9d\xb3^@'
p82
tp83
Rp84
ag10
(g14
S'\x04)\xbb\xcc\xc0\xd6Z@'
p85
tp86
Rp87
ag10
(g14
S':\x0c{/\x17\x92^@'
p88
tp89
Rp90
ag10
(g14
S'\xa0\x9c\x1b!\xdfgB@'
p91
tp92
Rp93
ag10
(g14
S'}\xea\xd7\xaa\xe1$T@'
p94
tp95
Rp96
ag10
(g14
S'\xfb:\x87\x84\xceZa@'
p97
tp98
Rp99
ag10
(g14
S'j\x04\x94P\x1e\xd3`@'
p100
tp101
Rp102
ag10
(g14
S'35\xf1.3\x0bA@'
p103
tp104
Rp105
ag10
(g14
S'\xefP4\xfe\xf2\xf7B@'
p106
tp107
Rp108
ag10
(g14
S'e\x94,Op\xd2]@'
p109
tp110
Rp111
ag10
(g14
S'\x8a\x0f\xbd\xeb;\xf8a@'
p112
tp113
Rp114
ag10
(g14
S'\x1cUT\x06\xab\xafT@'
p115
tp116
Rp117
ag10
(g14
S'NN#\xe9\x19\x12`@'
p118
tp119
Rp120
ag10
(g14
S'\xfe\xca\x04\xfc"\xadX@'
p121
tp122
Rp123
ag10
(g14
S'>|\xc6\xbfB\xe5C@'
p124
tp125
Rp126
ag10
(g14
S'\x85m|\xd0\x04\xc5b@'
p127
tp128
Rp129
ag10
(g14
S'9(`\xca\xb9\xfeV@'
p130
tp131
Rp132
ag10
(g14
S'}\n\xc3\x11;RA@'
p133
tp134
Rp135
ag10
(g14
S'cpM\x865\x04A@'
p136
tp137
Rp138
asssss.