(dp0
S'../Data/sqlite_8.csv'
p1
(dp2
S'../Data/sqlite_85.csv'
p3
(dp4
F0.15
(dp5
S'abs_res'
p6
(dp7
S'bellwether'
p8
(lp9
cnumpy.core.multiarray
scalar
p10
(cnumpy
dtype
p11
(S'f8'
p12
I0
I1
tp13
Rp14
(I3
S'<'
p15
NNNI-1
I-1
I0
tp16
bS'\x07\x90{\x01V\x95WA'
p17
tp18
Rp19
ag10
(g14
S'\xd1\xb0+x\x8eyWA'
p20
tp21
Rp22
ag10
(g14
S'\x1biJQ\xe79WA'
p23
tp24
Rp25
ag10
(g14
S'>o\xcb\x92\xbb\x8aWA'
p26
tp27
Rp28
ag10
(g14
S'\xec\xd2M\xe63_WA'
p29
tp30
Rp31
ag10
(g14
S'\xe9&1T\x88\x8aWA'
p32
tp33
Rp34
ag10
(g14
S'\x16g\x1f>!ZWA'
p35
tp36
Rp37
ag10
(g14
S'}j\xbc\xf4\x8a\xcfWA'
p38
tp39
Rp40
ag10
(g14
S'!>\xc3\xe2\xa7mWA'
p41
tp42
Rp43
ag10
(g14
S'\xc9K7\xb1\xbalWA'
p44
tp45
Rp46
ag10
(g14
S'\x93\x97nZ\xc7\x95WA'
p47
tp48
Rp49
ag10
(g14
S'\xad\xf1\xd2\xa1\xd7VWA'
p50
tp51
Rp52
ag10
(g14
S'\x9f\xd3\x06"\xc3=WA'
p53
tp54
Rp55
ag10
(g14
S'^\xc9/z\xffgWA'
p56
tp57
Rp58
ag10
(g14
S'9^\xba\xe9\t\x80WA'
p59
tp60
Rp61
ag10
(g14
S'\xf4(\\\xdb\xa8\x9cWA'
p62
tp63
Rp64
ag10
(g14
S'\\\x8f\xc2E\x9aMWA'
p65
tp66
Rp67
ag10
(g14
S'}\xa2\xfe9\x11\\WA'
p68
tp69
Rp70
ag10
(g14
S'\x8bPF\xcb\x87HWA'
p71
tp72
Rp73
ag10
(g14
S'\tX9\xd0|VWA'
p74
tp75
Rp76
asS'target'
p77
(lp78
g10
(g14
S't\x14\xae\xa7\xc7\xcbBA'
p79
tp80
Rp81
ag10
(g14
S'233\x13\x87gAA'
p82
tp83
Rp84
ag10
(g14
S'\x89\xebQ\x18\x84\xa1@A'
p85
tp86
Rp87
ag10
(g14
S'iff\x06i\xecBA'
p88
tp89
Rp90
ag10
(g14
S'\xcd\xcc\xcc\xec\xb6\x8aBA'
p91
tp92
Rp93
ag10
(g14
S'\x86\xc2\xf5\x08W\xc9CA'
p94
tp95
Rp96
ag10
(g14
S't=\n\x97\r\xc5BA'
p97
tp98
Rp99
ag10
(g14
S'\xa3p=\xca\xcdiAA'
p100
tp101
Rp102
ag10
(g14
S'!\x85\xeb\xd1pP@A'
p103
tp104
Rp105
ag10
(g14
S'\xf2Q\xb8\x1e-]CA'
p106
tp107
Rp108
ag10
(g14
S'\xc2\xf5(<W\xa8BA'
p109
tp110
Rp111
ag10
(g14
S'\xcc\xa3p=z\x19AA'
p112
tp113
Rp114
ag10
(g14
S'\xb5G\xe1\xba\x0c\xcb@A'
p115
tp116
Rp117
ag10
(g14
S'o=\n7?lAA'
p118
tp119
Rp120
ag10
(g14
S'\x86\xebQ\x18\xc3\x13AA'
p121
tp122
Rp123
ag10
(g14
S'gff&\x0e1AA'
p124
tp125
Rp126
ag10
(g14
S'\x12\xaeGA`\x1fAA'
p127
tp128
Rp129
ag10
(g14
S'\x85\xebQ\x18\x03\xf6@A'
p130
tp131
Rp132
ag10
(g14
S'033\x13\xb3\rAA'
p133
tp134
Rp135
ag10
(g14
S'x=\n7`\xa0BA'
p136
tp137
Rp138
asssss.