(dp0
S'../Data/sqlite_72.csv'
p1
(dp2
S'../Data/sqlite_78.csv'
p3
(dp4
F0.1
(dp5
S'mmre'
p6
(dp7
S'bellwether'
p8
(lp9
cnumpy.core.multiarray
scalar
p10
(cnumpy
dtype
p11
(S'f8'
p12
I0
I1
tp13
Rp14
(I3
S'<'
p15
NNNI-1
I-1
I0
tp16
bS'N=\xe3\xde\x99MQ@'
p17
tp18
Rp19
ag10
(g14
S'\xc3\xed\xb3k\xb4VQ@'
p20
tp21
Rp22
ag10
(g14
S'Q=\xf8\xe1\x9eSQ@'
p23
tp24
Rp25
ag10
(g14
S'&\xa7\xa8\xed\xecIQ@'
p26
tp27
Rp28
ag10
(g14
S'[\x93\xb3\xaa,UQ@'
p29
tp30
Rp31
ag10
(g14
S'\xf6\xd9\xc1\x1bFVQ@'
p32
tp33
Rp34
ag10
(g14
S'"\x16\xb9=)SQ@'
p35
tp36
Rp37
ag10
(g14
S'\nM\x88\xc5EPQ@'
p38
tp39
Rp40
ag10
(g14
S'A\x0c\xb0\xe00QQ@'
p41
tp42
Rp43
ag10
(g14
S'\xdc\xa1T\xa2\xf2JQ@'
p44
tp45
Rp46
ag10
(g14
S'\x00\xef\x18w\x8fLQ@'
p47
tp48
Rp49
ag10
(g14
S'88\xe9\xf7\xebNQ@'
p50
tp51
Rp52
ag10
(g14
S'VU\xa6OKNQ@'
p53
tp54
Rp55
ag10
(g14
S'\xc5\x0f\xdf\x08qTQ@'
p56
tp57
Rp58
ag10
(g14
S'\xae=+\xea\x02NQ@'
p59
tp60
Rp61
ag10
(g14
S'\xe70\xcf\xdc@PQ@'
p62
tp63
Rp64
ag10
(g14
S'\\\x13\rd\xc9TQ@'
p65
tp66
Rp67
ag10
(g14
S'\x85\xe5\xf6hVNQ@'
p68
tp69
Rp70
ag10
(g14
S'\\R\x7f\x8a\xefOQ@'
p71
tp72
Rp73
ag10
(g14
S'\xa5\xd1mdiXQ@'
p74
tp75
Rp76
asS'target'
p77
(lp78
g10
(g14
S'\x19BA\x97Pz4@'
p79
tp80
Rp81
ag10
(g14
S'\x8c\xaaY\\\x90\x0f2@'
p82
tp83
Rp84
ag10
(g14
S' \xd8V%\xb8\xb63@'
p85
tp86
Rp87
ag10
(g14
S'\x1d\xa9zs;\xc83@'
p88
tp89
Rp90
ag10
(g14
S'=\x99\xa3\x9e\xc6Y2@'
p91
tp92
Rp93
ag10
(g14
S'\xa3q\x8d\x93\x9c{4@'
p94
tp95
Rp96
ag10
(g14
S'\xaf\xb9\xfa\x15\xa9\xff2@'
p97
tp98
Rp99
ag10
(g14
S'\x1b1?\x90\x87l3@'
p100
tp101
Rp102
ag10
(g14
S'\x11\xc2\x1a\xa4\r~3@'
p103
tp104
Rp105
ag10
(g14
S'\x9f\xe4\xb6\x90\n\xe82@'
p106
tp107
Rp108
ag10
(g14
S'\xf9\xf89G8\xd04@'
p109
tp110
Rp111
ag10
(g14
S'uW1\x10;\xc83@'
p112
tp113
Rp114
ag10
(g14
S'\x10}\xbf\xbd\xd5l4@'
p115
tp116
Rp117
ag10
(g14
S'&p\xec\xe2\xe9+2@'
p118
tp119
Rp120
ag10
(g14
S'\xd6\xf4\x92\x07X04@'
p121
tp122
Rp123
ag10
(g14
S'\x80\\\xbf$\xe7\xac4@'
p124
tp125
Rp126
ag10
(g14
S'\xbd\xad\xd1^\xa394@'
p127
tp128
Rp129
ag10
(g14
S'D\x890\xea;\xed4@'
p130
tp131
Rp132
ag10
(g14
S'F\xb5&\xb5\xb8\x922@'
p133
tp134
Rp135
ag10
(g14
S'\x10zf\x1d\x19\xf32@'
p136
tp137
Rp138
asssss.