(dp0
S'../Data/sqlite_59.csv'
p1
(dp2
S'../Data/sqlite_85.csv'
p3
(dp4
F0.3
(dp5
S'abs_res'
p6
(dp7
S'bellwether'
p8
(lp9
cnumpy.core.multiarray
scalar
p10
(cnumpy
dtype
p11
(S'f8'
p12
I0
I1
tp13
Rp14
(I3
S'<'
p15
NNNI-1
I-1
I0
tp16
bS'\x1b\xe8\xb4\x11wFSA'
p17
tp18
Rp19
ag10
(g14
S'\x1a\x92\xa6<\xd8cSA'
p20
tp21
Rp22
ag10
(g14
S'7\xfb\xf0\xcd\x01-SA'
p23
tp24
Rp25
ag10
(g14
S'\\9\xb4\x98\x119SA'
p26
tp27
Rp28
ag10
(g14
S"\xdd@\xa7\xa9']SA"
p29
tp30
Rp31
ag10
(g14
S'\xa4\xe2\xec\x9f\xdeZSA'
p32
tp33
Rp34
ag10
(g14
S'\xeb\n\x90\x0f\xbf(SA'
p35
tp36
Rp37
ag10
(g14
S'v\xe7\xfb\xbd\xb9]SA'
p38
tp39
Rp40
ag10
(g14
S'\x9aC\x8bL\xcaVSA'
p41
tp42
Rp43
ag10
(g14
S'Eo\xcb\x8e\tXSA'
p44
tp45
Rp46
ag10
(g14
S'\xac\xc6KOneSA'
p47
tp48
Rp49
ag10
(g14
S'r\xa0\xd3\x02\xaf\x13SA'
p50
tp51
Rp52
ag10
(g14
S'\xceZ\x1dcJ%SA'
p53
tp54
Rp55
ag10
(g14
S'\xbc\x9f\x1a\xb3\x0e\\SA'
p56
tp57
Rp58
ag10
(g14
S'\x85y\xa2\x82TZSA'
p59
tp60
Rp61
ag10
(g14
S'N\xc5\xd9S|HSA'
p62
tp63
Rp64
ag10
(g14
S'\xef&1\xc0n\x11SA'
p65
tp66
Rp67
ag10
(g14
S'kff\xd6}!SA'
p68
tp69
Rp70
ag10
(g14
S'\x0e<\x98\xfb\x18=SA'
p71
tp72
Rp73
ag10
(g14
S'6\x08\xac\x000_SA'
p74
tp75
Rp76
asS'target'
p77
(lp78
g10
(g14
S'\xeaQ\xb8\x1e\xa97<A'
p79
tp80
Rp81
ag10
(g14
S'bff\xa6Q\x99<A'
p82
tp83
Rp84
ag10
(g14
S'\x04\x00\x00\x00zz<A'
p85
tp86
Rp87
ag10
(g14
S'\xb9\x1e\x85\xebv(<A'
p88
tp89
Rp90
ag10
(g14
S'\x8a\xebQxg\xdc?A'
p91
tp92
Rp93
ag10
(g14
S'\x9c\x99\x99\xd9\xd6^=A'
p94
tp95
Rp96
ag10
(g14
S'?\n\xd7#\x8a\x8f<A'
p97
tp98
Rp99
ag10
(g14
S'\xf4Q\xb8\x1eb\xd4;A'
p100
tp101
Rp102
ag10
(g14
S'\xe7Q\xb8^\xa1\xe4;A'
p103
tp104
Rp105
ag10
(g14
S'\x83\xebQ\xb8\x1b3?A'
p106
tp107
Rp108
ag10
(g14
S'm=\nw^\x0bAA'
p109
tp110
Rp111
ag10
(g14
S'>\n\xd7c\xaaq<A'
p112
tp113
Rp114
ag10
(g14
S'533s\x1e+:A'
p115
tp116
Rp117
ag10
(g14
S'?\n\xd7#\xbfo<A'
p118
tp119
Rp120
ag10
(g14
S'P\xb8\x1e\x05pI=A'
p121
tp122
Rp123
ag10
(g14
S'\x80\x14\xae\x87I\xca;A'
p124
tp125
Rp126
ag10
(g14
S'\xd8\xa3p=\xc2\xd5>A'
p127
tp128
Rp129
ag10
(g14
S'\xecQ\xb8>Y\xa5=A'
p130
tp131
Rp132
ag10
(g14
S'ffffG\x97<A'
p133
tp134
Rp135
ag10
(g14
S'\x99p=J\xf1:=A'
p136
tp137
Rp138
asssss.