(dp0
S'../Data/sqlite_44.csv'
p1
(dp2
S'../Data/sqlite_93.csv'
p3
(dp4
F0.4
(dp5
S'mmre'
p6
(dp7
S'bellwether'
p8
(lp9
cnumpy.core.multiarray
scalar
p10
(cnumpy
dtype
p11
(S'f8'
p12
I0
I1
tp13
Rp14
(I3
S'<'
p15
NNNI-1
I-1
I0
tp16
bS'\xe6\xd6N\x0c\x08\xa0R@'
p17
tp18
Rp19
ag10
(g14
S'\xf2\xc2\x13PK\x97R@'
p20
tp21
Rp22
ag10
(g14
S'\x05\xfa\xad.x|R@'
p23
tp24
Rp25
ag10
(g14
S'i0Lh\xaa@R@'
p26
tp27
Rp28
ag10
(g14
S'\x98\xfdAAK\xffR@'
p29
tp30
Rp31
ag10
(g14
S'k\xe5\xa7\xa5h\xdeR@'
p32
tp33
Rp34
ag10
(g14
S' *\x95\xd2\xfb\xd3R@'
p35
tp36
Rp37
ag10
(g14
S'5C\x85\x02\xb4\xbdR@'
p38
tp39
Rp40
ag10
(g14
S'48\x85-IOR@'
p41
tp42
Rp43
ag10
(g14
S'?\x9a\xe2h|\xc1R@'
p44
tp45
Rp46
ag10
(g14
S'\xd8q\xde\xb7\xaf\xb7R@'
p47
tp48
Rp49
ag10
(g14
S'A\x1c\xd1\xf6@\xb0R@'
p50
tp51
Rp52
ag10
(g14
S'h\xe4\xe4R\xa1<R@'
p53
tp54
Rp55
ag10
(g14
S'\x80 \xeaX\xde\xf4R@'
p56
tp57
Rp58
ag10
(g14
S"~\x82\xc6\x9a')R@"
p59
tp60
Rp61
ag10
(g14
S'S\xd3\xda?+iR@'
p62
tp63
Rp64
ag10
(g14
S'\x0e\xb7\x81\xee\x9d\x9aR@'
p65
tp66
Rp67
ag10
(g14
S'\tP4i\xc9sR@'
p68
tp69
Rp70
ag10
(g14
S'\x95\xcc\xb5\xd99\xc5R@'
p71
tp72
Rp73
ag10
(g14
S'\x9f\xec=+\x91]R@'
p74
tp75
Rp76
asS'target'
p77
(lp78
g10
(g14
S')B\x16^\xcf\x00Y@'
p79
tp80
Rp81
ag10
(g14
S'\x93\xa2<\x81!+V@'
p82
tp83
Rp84
ag10
(g14
S'\x05<U\x99\x7f\x1fS@'
p85
tp86
Rp87
ag10
(g14
S"\xdd\xe3'\xbftBV@"
p88
tp89
Rp90
ag10
(g14
S'\x0b\x82|\xe87\xccP@'
p91
tp92
Rp93
ag10
(g14
S'\xba\xc7<\xa0\xba\xd6P@'
p94
tp95
Rp96
ag10
(g14
S'u\x83D\x89\r\xe6P@'
p97
tp98
Rp99
ag10
(g14
S'%5Y\xd2 \x1eW@'
p100
tp101
Rp102
ag10
(g14
S'va[\xce]/X@'
p103
tp104
Rp105
ag10
(g14
S'\xef\x9aC21\x17U@'
p106
tp107
Rp108
ag10
(g14
S':\xafQ\xbe\xbd\xe0Q@'
p109
tp110
Rp111
ag10
(g14
S'~j\x07iIIG@'
p112
tp113
Rp114
ag10
(g14
S'\xee$\x90_<\xc4M@'
p115
tp116
Rp117
ag10
(g14
S'd\xf6\xaf\xe7R\x98R@'
p118
tp119
Rp120
ag10
(g14
S'{~\xd3\x19\xd1\xf4O@'
p121
tp122
Rp123
ag10
(g14
S'\xa8-k\xb8*\xd2R@'
p124
tp125
Rp126
ag10
(g14
S'\xd5-\xbf6o\xd9M@'
p127
tp128
Rp129
ag10
(g14
S'\xc5\xba\xdc\x92\x0efK@'
p130
tp131
Rp132
ag10
(g14
S'#\x00=\xa9\xffOV@'
p133
tp134
Rp135
ag10
(g14
S'%\xb3=cf\xf6R@'
p136
tp137
Rp138
asssss.