(dp0
S'../Data/sqlite_47.csv'
p1
(dp2
S'../Data/sqlite_73.csv'
p3
(dp4
F0.2
(dp5
S'mmre'
p6
(dp7
S'bellwether'
p8
(lp9
cnumpy.core.multiarray
scalar
p10
(cnumpy
dtype
p11
(S'f8'
p12
I0
I1
tp13
Rp14
(I3
S'<'
p15
NNNI-1
I-1
I0
tp16
bS'M8\xd9\xb3\xbc>M@'
p17
tp18
Rp19
ag10
(g14
S'\xcc&Rp\xc2"M@'
p20
tp21
Rp22
ag10
(g14
S'\xeeK\x8bQ\xcc3M@'
p23
tp24
Rp25
ag10
(g14
S'A\x87("\x80&M@'
p26
tp27
Rp28
ag10
(g14
S'\xe9{\xb7?DHM@'
p29
tp30
Rp31
ag10
(g14
S'\x81\xd3\xf5\xbf\xb82M@'
p32
tp33
Rp34
ag10
(g14
S'\xdc\xf8+y\xf2:M@'
p35
tp36
Rp37
ag10
(g14
S'e\xeb\xf0{(@M@'
p38
tp39
Rp40
ag10
(g14
S'\x87J\x0b\xb4\x1e2M@'
p41
tp42
Rp43
ag10
(g14
S"'D~\x01\x880M@"
p44
tp45
Rp46
ag10
(g14
S'RsV\xcf\xb47M@'
p47
tp48
Rp49
ag10
(g14
S'p\xb8\xfd\xee;,M@'
p50
tp51
Rp52
ag10
(g14
S'\x81\x10\x10\xc3\x99(M@'
p53
tp54
Rp55
ag10
(g14
S'*\xa0q\xd1\xf8-M@'
p56
tp57
Rp58
ag10
(g14
S'\xd2LR\xfb(7M@'
p59
tp60
Rp61
ag10
(g14
S'ZR(x\xe0\x19M@'
p62
tp63
Rp64
ag10
(g14
S'F\x9f*ED*M@'
p65
tp66
Rp67
ag10
(g14
S'\x05J\xbd\xbax+M@'
p68
tp69
Rp70
ag10
(g14
S'\xb7\xf21\xb62&M@'
p71
tp72
Rp73
ag10
(g14
S'\x18\xc3\xd4\x08\xc5\x1eM@'
p74
tp75
Rp76
asS'target'
p77
(lp78
g10
(g14
S'-\xaf\xbc\x96\xc2\xb4*@'
p79
tp80
Rp81
ag10
(g14
S'\xeaq\xb5jW\xf5+@'
p82
tp83
Rp84
ag10
(g14
S'\x7f\xf4\xe5c\x0b\xf7.@'
p85
tp86
Rp87
ag10
(g14
S'j\xc0/K\x9eu-@'
p88
tp89
Rp90
ag10
(g14
S'L}\xec\xf1=\xfe*@'
p91
tp92
Rp93
ag10
(g14
S'\x8d#\xb8\x8e\x0f\xe6-@'
p94
tp95
Rp96
ag10
(g14
S'mGP\xec\x011+@'
p97
tp98
Rp99
ag10
(g14
S'\xbd\x8e,\xbaV\xf3*@'
p100
tp101
Rp102
ag10
(g14
S'\xb0,\xe7\x95\xdf})@'
p103
tp104
Rp105
ag10
(g14
S'\x84GdP\x99\xd5(@'
p106
tp107
Rp108
ag10
(g14
S'E\xad\xd0\xa4C\x95*@'
p109
tp110
Rp111
ag10
(g14
S'\xb8\xc5\xde\xd07\xd1*@'
p112
tp113
Rp114
ag10
(g14
S'\x93\x89>\x92\xfc}+@'
p115
tp116
Rp117
ag10
(g14
S'\xe4\x8e\xfc6L\xbd+@'
p118
tp119
Rp120
ag10
(g14
S'\xca)\xa0H\x0c\x88-@'
p121
tp122
Rp123
ag10
(g14
S'4\xc4p\xe59#.@'
p124
tp125
Rp126
ag10
(g14
S'y\x0b)=E\xf7-@'
p127
tp128
Rp129
ag10
(g14
S'x\xedm8*p*@'
p130
tp131
Rp132
ag10
(g14
S'\xb0A\x07\xbc\xd4\xe7,@'
p133
tp134
Rp135
ag10
(g14
S'\t\xab\x0e)\xfc\x1f+@'
p136
tp137
Rp138
asssss.