(dp0
S'../Data/sqlite_95.csv'
p1
(dp2
S'../Data/sqlite_3.csv'
p3
(dp4
F0.2
(dp5
S'abs_res'
p6
(dp7
S'bellwether'
p8
(lp9
cnumpy.core.multiarray
scalar
p10
(cnumpy
dtype
p11
(S'f8'
p12
I0
I1
tp13
Rp14
(I3
S'<'
p15
NNNI-1
I-1
I0
tp16
bS'\x8d\xebQ\xb8hg7A'
p17
tp18
Rp19
ag10
(g14
S'\xec5\x17\x92\xe9c7A'
p20
tp21
Rp22
ag10
(g14
S'\x8a\xc2\xf5\x08=d7A'
p23
tp24
Rp25
ag10
(g14
S'\xaa8\xfb\x10jv7A'
p26
tp27
Rp28
ag10
(g14
S'\xbd\xbb\xbb{/~7A'
p29
tp30
Rp31
ag10
(g14
S']d;\x9f\x08\x9d7A'
p32
tp33
Rp34
ag10
(g14
S'F\x8blG\x82^7A'
p35
tp36
Rp37
ag10
(g14
S'\xa0\x0bI3\xb5`7A'
p38
tp39
Rp40
ag10
(g14
S'`9\xb4\x88{w7A'
p41
tp42
Rp43
ag10
(g14
S'X\x0e-\xd2{\xa47A'
p44
tp45
Rp46
ag10
(g14
S'xww\xb7\x0cK7A'
p47
tp48
Rp49
ag10
(g14
S'\xff~j\xfc\x06\xc17A'
p50
tp51
Rp52
ag10
(g14
S'\x92\x97n\xb2H{7A'
p53
tp54
Rp55
ag10
(g14
S'\xbdt\x93\x98k\x817A'
p56
tp57
Rp58
ag10
(g14
S'\xa5aW\x00\x02\xa57A'
p59
tp60
Rp61
ag10
(g14
S'\xb3I\x0c\x02||7A'
p62
tp63
Rp64
ag10
(g14
S'\xc4\x92_\x8c\xd4|7A'
p65
tp66
Rp67
ag10
(g14
S's\x07\xf3d\xa7\x8e7A'
p68
tp69
Rp70
ag10
(g14
S'\xf1\xc3g\xb8\x89\x917A'
p71
tp72
Rp73
ag10
(g14
S'\xeb\xd0"\xdbx\x887A'
p74
tp75
Rp76
asS'target'
p77
(lp78
g10
(g14
S'I\x8d\x97n\x12\x13l@'
p79
tp80
Rp81
ag10
(g14
S'uj\xbct\x93\xbcm@'
p82
tp83
Rp84
ag10
(g14
S'\xdcO\x8d\x97n\x82m@'
p85
tp86
Rp87
ag10
(g14
S'3\xdfO\x8d\x97\xeal@'
p88
tp89
Rp90
ag10
(g14
S'\xd8\xa5\x9b\xc4 \x18o@'
p91
tp92
Rp93
ag10
(g14
S'\x97\xef\xa7\xc6K\x83n@'
p94
tp95
Rp96
ag10
(g14
S')\xdb\xf9~j\xb4k@'
p97
tp98
Rp99
ag10
(g14
S'p\xe9&1\x08\xb0l@'
p100
tp101
Rp102
ag10
(g14
S'\xe7&1\x08\xac`o@'
p103
tp104
Rp105
ag10
(g14
S'kffff\x0em@'
p106
tp107
Rp108
ag10
(g14
S'\xe8Q\xb8\x1e\x85\x85j@'
p109
tp110
Rp111
ag10
(g14
S'7\x89A`\xe5tm@'
p112
tp113
Rp114
ag10
(g14
S'\xd5"\xdb\xf9~\x9el@'
p115
tp116
Rp117
ag10
(g14
S'J7\x89A`\x99l@'
p118
tp119
Rp120
ag10
(g14
S'\xd3\xa3p=\nIm@'
p121
tp122
Rp123
ag10
(g14
S'c\x10X9\xb4Xl@'
p124
tp125
Rp126
ag10
(g14
S'zh\x91\xed|\xefn@'
p127
tp128
Rp129
ag10
(g14
S'\x9eE\xb6\xf3\xfd\xe4j@'
p130
tp131
Rp132
ag10
(g14
S'iffff\xb6q@'
p133
tp134
Rp135
ag10
(g14
S'\xbe \xb0rh\xadm@'
p136
tp137
Rp138
asssss.