(dp0
S'../Data/sqlite_69.csv'
p1
(dp2
S'../Data/sqlite_77.csv'
p3
(dp4
F0.4
(dp5
S'mmre'
p6
(dp7
S'bellwether'
p8
(lp9
cnumpy.core.multiarray
scalar
p10
(cnumpy
dtype
p11
(S'f8'
p12
I0
I1
tp13
Rp14
(I3
S'<'
p15
NNNI-1
I-1
I0
tp16
bS'6\xc6\x9f\xd0\xf6kd@'
p17
tp18
Rp19
ag10
(g14
S'\xbam\xebU\x99wd@'
p20
tp21
Rp22
ag10
(g14
S'\x8bo\xf1\xaf\x01Gd@'
p23
tp24
Rp25
ag10
(g14
S'T\xa5.\xe9l\x9ad@'
p26
tp27
Rp28
ag10
(g14
S'.\xfbx#P0d@'
p29
tp30
Rp31
ag10
(g14
S'(G\xa2\xaa0-d@'
p32
tp33
Rp34
ag10
(g14
S'\x17\xfe\xb7~;cd@'
p35
tp36
Rp37
ag10
(g14
S'\x80"\x8e\xe9\x86Cd@'
p38
tp39
Rp40
ag10
(g14
S'\x141\xd2\xb1\xa6od@'
p41
tp42
Rp43
ag10
(g14
S'$\x17\x8f\xf6!Jd@'
p44
tp45
Rp46
ag10
(g14
S'\xf37<%C\xafd@'
p47
tp48
Rp49
ag10
(g14
S'\xc5\xbfC!\xebjd@'
p50
tp51
Rp52
ag10
(g14
S'ph\x86:\xda<d@'
p53
tp54
Rp55
ag10
(g14
S'@j\xcd3pnd@'
p56
tp57
Rp58
ag10
(g14
S'-b\xa7\x01#`d@'
p59
tp60
Rp61
ag10
(g14
S'\xff\x1b\x1c\xbe\xfbgd@'
p62
tp63
Rp64
ag10
(g14
S'\xbehO\x00\xafud@'
p65
tp66
Rp67
ag10
(g14
S'N\x10\x90.0\x90d@'
p68
tp69
Rp70
ag10
(g14
S'QlR\x9dh\xe3d@'
p71
tp72
Rp73
ag10
(g14
S'\x08Ikg%0d@'
p74
tp75
Rp76
asS'target'
p77
(lp78
g10
(g14
S'\x02\x0eM\xca\xc3i5@'
p79
tp80
Rp81
ag10
(g14
S'Y\xbd\xf5_\xf645@'
p82
tp83
Rp84
ag10
(g14
S'y\xb3\xb0O\xf7\xbe5@'
p85
tp86
Rp87
ag10
(g14
S'FC\x04WZY5@'
p88
tp89
Rp90
ag10
(g14
S'\x93\xa8]%V\x9f4@'
p91
tp92
Rp93
ag10
(g14
S'\x00ad\x87\xa5\xe35@'
p94
tp95
Rp96
ag10
(g14
S'\xfc\x10\xfcD\x87\xa35@'
p97
tp98
Rp99
ag10
(g14
S'\x0c\xb5?W|\xd14@'
p100
tp101
Rp102
ag10
(g14
S'(w)\xf4yW5@'
p103
tp104
Rp105
ag10
(g14
S'\xb8\xd3<}\x7f\xc15@'
p106
tp107
Rp108
ag10
(g14
S'\xa3\x95\x998\xf1\x106@'
p109
tp110
Rp111
ag10
(g14
S'8\xbbN\xbc\x9a\x7f5@'
p112
tp113
Rp114
ag10
(g14
S'n2\x08\xc7\x8b\xa05@'
p115
tp116
Rp117
ag10
(g14
S'#\x07\xeb<Vc6@'
p118
tp119
Rp120
ag10
(g14
S'}\x17\xdbl\x8f\x8c4@'
p121
tp122
Rp123
ag10
(g14
S'\x90\x0em\xb8\x91\xb56@'
p124
tp125
Rp126
ag10
(g14
S'\xc8\xe4\xf2\x9b\xe8]4@'
p127
tp128
Rp129
ag10
(g14
S'\xd3\x04\xd0\xb1$P6@'
p130
tp131
Rp132
ag10
(g14
S'\xfd2\xf5+(\n5@'
p133
tp134
Rp135
ag10
(g14
S'\x02\x9d#\xf6VB5@'
p136
tp137
Rp138
asssss.