(dp0
S'../Data/sqlite_91.csv'
p1
(dp2
S'../Data/sqlite_48.csv'
p3
(dp4
F0.1
(dp5
S'abs_res'
p6
(dp7
S'bellwether'
p8
(lp9
cnumpy.core.multiarray
scalar
p10
(cnumpy
dtype
p11
(S'f8'
p12
I0
I1
tp13
Rp14
(I3
S'<'
p15
NNNI-1
I-1
I0
tp16
bS'\x93\xa6T\x1c\x86C&A'
p17
tp18
Rp19
ag10
(g14
S'\xd9O\x8d\xd7\x04A&A'
p20
tp21
Rp22
ag10
(g14
S'$Zd;qY&A'
p23
tp24
Rp25
ag10
(g14
S"\xd4\x87\xcf0'G&A"
p26
tp27
Rp28
ag10
(g14
S'\xff\xd4x)\xee;&A'
p29
tp30
Rp31
ag10
(g14
S'\xd9\xa3p=\xdaG&A'
p32
tp33
Rp34
ag10
(g14
S'\x8e%\xbf\x18@H&A'
p35
tp36
Rp37
ag10
(g14
S'www\xb7\xa6@&A'
p38
tp39
Rp40
ag10
(g14
S'\xf6~j<y<&A'
p41
tp42
Rp43
ag10
(g14
S'\x00T\xe3e\x07/&A'
p44
tp45
Rp46
ag10
(g14
S'cfff+5&A'
p47
tp48
Rp49
ag10
(g14
S'\x9a\xd3\x06z\xd8S&A'
p50
tp51
Rp52
ag10
(g14
S'=5^\xfa\x8fA&A'
p53
tp54
Rp55
ag10
(g14
S';\x17\x92\xe6\x862&A'
p56
tp57
Rp58
ag10
(g14
S'm=\n\xd7\x1eB&A'
p59
tp60
Rp61
ag10
(g14
S'\xafG\xe1:\xf3H&A'
p62
tp63
Rp64
ag10
(g14
S'\xb9\xd9\x87\xcf\xeb8&A'
p65
tp66
Rp67
ag10
(g14
S'\x7fN\x1b\xa8\x80E&A'
p68
tp69
Rp70
ag10
(g14
S'\xfe\xd4x)\xcf,&A'
p71
tp72
Rp73
ag10
(g14
S')\\\x8fB\xd51&A'
p74
tp75
Rp76
asS'target'
p77
(lp78
g10
(g14
S'\x9f\xc4 \xb0r*t@'
p79
tp80
Rp81
ag10
(g14
S'\xd8O\x8d\x97n\x16u@'
p82
tp83
Rp84
ag10
(g14
S'\x93\xc4 \xb0r\xact@'
p85
tp86
Rp87
ag10
(g14
S'?\xe1z\x14\xae\x19t@'
p88
tp89
Rp90
ag10
(g14
S'$\xb2\x9d\xef\xa7|v@'
p91
tp92
Rp93
ag10
(g14
S'2\xdd$\x06\x81\xdds@'
p94
tp95
Rp96
ag10
(g14
S',\\\x8f\xc2\xf5as@'
p97
tp98
Rp99
ag10
(g14
S"I\xe1z\x14\xae'w@"
p100
tp101
Rp102
ag10
(g14
S',3333cv@'
p103
tp104
Rp105
ag10
(g14
S'c\x8f\xc2\xf5(\xc4v@'
p106
tp107
Rp108
ag10
(g14
S'\xb7rh\x91\xed\xc0s@'
p109
tp110
Rp111
ag10
(g14
S'\xa2\x99\x99\x99\x99\xbbu@'
p112
tp113
Rp114
ag10
(g14
S'm\x91\xed|?\x1bu@'
p115
tp116
Rp117
ag10
(g14
S'\x84\x18\x04V\x0e\xc3v@'
p118
tp119
Rp120
ag10
(g14
S'\xfd\xd2Mb\x10Xt@'
p121
tp122
Rp123
ag10
(g14
S'Wb\x10X9\x9as@'
p124
tp125
Rp126
ag10
(g14
S'M\xb8\x1e\x85\xeb\xbbs@'
p127
tp128
Rp129
ag10
(g14
S'\x92\xc2\xf5(\\et@'
p130
tp131
Rp132
ag10
(g14
S'\r\x02+\x87\x16\xc3s@'
p133
tp134
Rp135
ag10
(g14
S'03333\x07t@'
p136
tp137
Rp138
asssss.