(dp0
S'../Data/sqlite_23.csv'
p1
(dp2
S'../Data/sqlite_63.csv'
p3
(dp4
F0.4
(dp5
S'mmre'
p6
(dp7
S'bellwether'
p8
(lp9
cnumpy.core.multiarray
scalar
p10
(cnumpy
dtype
p11
(S'f8'
p12
I0
I1
tp13
Rp14
(I3
S'<'
p15
NNNI-1
I-1
I0
tp16
bS'\xc8\x93kC\xb0pW@'
p17
tp18
Rp19
ag10
(g14
S'\xd0\xe7\x1b{\xb6oW@'
p20
tp21
Rp22
ag10
(g14
S'\xdc\xb7\xe0X1pW@'
p23
tp24
Rp25
ag10
(g14
S'Z\xcc\xfe\xd3upW@'
p26
tp27
Rp28
ag10
(g14
S'\x93\xf1-H$oW@'
p29
tp30
Rp31
ag10
(g14
S'|\xbb\xae\xeb\xbboW@'
p32
tp33
Rp34
ag10
(g14
S'\x10\x8a\x14\xfb]nW@'
p35
tp36
Rp37
ag10
(g14
S'\x01\x94\x86HspW@'
p38
tp39
Rp40
ag10
(g14
S'M\xd6A8\xe3oW@'
p41
tp42
Rp43
ag10
(g14
S'I\xb0\x7f\x07ooW@'
p44
tp45
Rp46
ag10
(g14
S'H\xc1\x92*\xd1nW@'
p47
tp48
Rp49
ag10
(g14
S'\xa7\xbf*/\xfboW@'
p50
tp51
Rp52
ag10
(g14
S'rPI4;nW@'
p53
tp54
Rp55
ag10
(g14
S'\x13(\xa90EnW@'
p56
tp57
Rp58
ag10
(g14
S'`\xd0\xa7S\xd0oW@'
p59
tp60
Rp61
ag10
(g14
S'\xcfD\x84,jmW@'
p62
tp63
Rp64
ag10
(g14
S'`*\xd5\xb0=oW@'
p65
tp66
Rp67
ag10
(g14
S'\x88>\xc0\xef\x83pW@'
p68
tp69
Rp70
ag10
(g14
S'\xe5\x00\xfef\x87oW@'
p71
tp72
Rp73
ag10
(g14
S'!;Dl\xc6oW@'
p74
tp75
Rp76
asS'target'
p77
(lp78
g10
(g14
S'\xbb\xbb\xc1\x04\x1f\x9f!@'
p79
tp80
Rp81
ag10
(g14
S'\xaa\xca;\xd0\xdd\xe5"@'
p82
tp83
Rp84
ag10
(g14
S'~\x0b\xec\x03\x0bq"@'
p85
tp86
Rp87
ag10
(g14
S'%\xdb\xb0\xa6\xd5\xfa"@'
p88
tp89
Rp90
ag10
(g14
S'\xb1\xa9\r\x0c_\xb6#@'
p91
tp92
Rp93
ag10
(g14
S'\xcbv-iH\x1c"@'
p94
tp95
Rp96
ag10
(g14
S"J\xec\xa1/'\\#@"
p97
tp98
Rp99
ag10
(g14
S'\xb3I4!&\x1b#@'
p100
tp101
Rp102
ag10
(g14
S')5_kf\x1f!@'
p103
tp104
Rp105
ag10
(g14
S'j{ \xc6T\xed!@'
p106
tp107
Rp108
ag10
(g14
S'*R\xa6\xc0\x0c\xe0"@'
p109
tp110
Rp111
ag10
(g14
S'\xb5r>e\xde,"@'
p112
tp113
Rp114
ag10
(g14
S'\x02\xd0I\x0f8\xd4"@'
p115
tp116
Rp117
ag10
(g14
S'\xb8\xce\xe3\x1b@="@'
p118
tp119
Rp120
ag10
(g14
S'\xd4X\xabY\xeb\x89"@'
p121
tp122
Rp123
ag10
(g14
S'B\x03\x83\x07"\xed#@'
p124
tp125
Rp126
ag10
(g14
S'\xdb7\x8e\xba[\xa9"@'
p127
tp128
Rp129
ag10
(g14
S'Jc\xef\x7f\xc7A!@'
p130
tp131
Rp132
ag10
(g14
S'P\x82\x0f\xf6\x9c\xe9!@'
p133
tp134
Rp135
ag10
(g14
S'%\xe0\x9e\xd10\xab"@'
p136
tp137
Rp138
asssss.