(dp0
S'../Data/sqlite_36.csv'
p1
(dp2
S'../Data/sqlite_97.csv'
p3
(dp4
F0.25
(dp5
S'mmre'
p6
(dp7
S'bellwether'
p8
(lp9
cnumpy.core.multiarray
scalar
p10
(cnumpy
dtype
p11
(S'f8'
p12
I0
I1
tp13
Rp14
(I3
S'<'
p15
NNNI-1
I-1
I0
tp16
bS'\xab0g-IeW@'
p17
tp18
Rp19
ag10
(g14
S'&\xe4\xb3#\xaa`W@'
p20
tp21
Rp22
ag10
(g14
S'B\xe8\xd9\x94=_W@'
p23
tp24
Rp25
ag10
(g14
S'|\xab\xc9pheW@'
p26
tp27
Rp28
ag10
(g14
S'1\xd9\x1e\xb1\x18`W@'
p29
tp30
Rp31
ag10
(g14
S'\x0b-BK\x04aW@'
p32
tp33
Rp34
ag10
(g14
S'[?\xbf\x99?eW@'
p35
tp36
Rp37
ag10
(g14
S'iXf\xd6\x95bW@'
p38
tp39
Rp40
ag10
(g14
S'\xab;v/\xe6aW@'
p41
tp42
Rp43
ag10
(g14
S'4f\xe8b&aW@'
p44
tp45
Rp46
ag10
(g14
S'\x06\xaa\x80C\xa6bW@'
p47
tp48
Rp49
ag10
(g14
S'^y\xdaa\x06aW@'
p50
tp51
Rp52
ag10
(g14
S'\x07w<\xb7\xbbcW@'
p53
tp54
Rp55
ag10
(g14
S'\x98XvW8cW@'
p56
tp57
Rp58
ag10
(g14
S'\x06\x04,PbaW@'
p59
tp60
Rp61
ag10
(g14
S'\xd1/&\xb2\x96`W@'
p62
tp63
Rp64
ag10
(g14
S'\xc2\xda\xf0\x87xaW@'
p65
tp66
Rp67
ag10
(g14
S'i\xedp\xd4\xd5dW@'
p68
tp69
Rp70
ag10
(g14
S'\xa2\xa5`bD`W@'
p71
tp72
Rp73
ag10
(g14
S'i)\xf6m!aW@'
p74
tp75
Rp76
asS'target'
p77
(lp78
g10
(g14
S'\xabZ\x08\xbeD\x18Q@'
p79
tp80
Rp81
ag10
(g14
S'\xee\xd6\xed\x82\x8dHP@'
p82
tp83
Rp84
ag10
(g14
S'4{\xed.\x98\x9cP@'
p85
tp86
Rp87
ag10
(g14
S'0\xc0\xff\xa5\x1a\x08T@'
p88
tp89
Rp90
ag10
(g14
S'Rr\xbf\x15\xc6IS@'
p91
tp92
Rp93
ag10
(g14
S'\xc8o\xa8;jnS@'
p94
tp95
Rp96
ag10
(g14
S'H\\{Q[\x17T@'
p97
tp98
Rp99
ag10
(g14
S'\x94IN`|\xea[@'
p100
tp101
Rp102
ag10
(g14
S'\tG\x81\xf8\xce\xb4Q@'
p103
tp104
Rp105
ag10
(g14
S'\xdc\xc1=\xf9w\xc2V@'
p106
tp107
Rp108
ag10
(g14
S'\x80\xa1\x03\x8cNuQ@'
p109
tp110
Rp111
ag10
(g14
S'av\xbe\x1c\xd4UI@'
p112
tp113
Rp114
ag10
(g14
S'\xd3\x8dq["\xcbV@'
p115
tp116
Rp117
ag10
(g14
S'\x97}\xca"\x03\xdaX@'
p118
tp119
Rp120
ag10
(g14
S'J\x15\xc8~\xb0\x1fT@'
p121
tp122
Rp123
ag10
(g14
S'\xb3\xe9\x1e-A\xdfK@'
p124
tp125
Rp126
ag10
(g14
S'=\xe6\xc8\xef\xca9R@'
p127
tp128
Rp129
ag10
(g14
S"n\xd9\xf7'\xda\xb6I@"
p130
tp131
Rp132
ag10
(g14
S'\xbe\x07\r>\xe91O@'
p133
tp134
Rp135
ag10
(g14
S'39(\x87 \x02Y@'
p136
tp137
Rp138
asssss.