(dp0
S'../Data/sqlite_46.csv'
p1
(dp2
S'../Data/sqlite_36.csv'
p3
(dp4
F0.35
(dp5
S'abs_res'
p6
(dp7
S'bellwether'
p8
(lp9
cnumpy.core.multiarray
scalar
p10
(cnumpy
dtype
p11
(S'f8'
p12
I0
I1
tp13
Rp14
(I3
S'<'
p15
NNNI-1
I-1
I0
tp16
bS'\n\xd5x\xc9J*9A'
p17
tp18
Rp19
ag10
(g14
S'\xd3x\xe9\xe6(+9A'
p20
tp21
Rp22
ag10
(g14
S'Y\x0e-RE,9A'
p23
tp24
Rp25
ag10
(g14
S'h\x91\xed\xbc\x85,9A'
p26
tp27
Rp28
ag10
(g14
S'.\x08\xac\\\x1c*9A'
p29
tp30
Rp31
ag10
(g14
S'\xa9\xc6KW-,9A'
p32
tp33
Rp34
ag10
(g14
S'd;\xdf/\xfa*9A'
p35
tp36
Rp37
ag10
(g14
S'\x03T\xe3\xc5\xc7)9A'
p38
tp39
Rp40
ag10
(g14
S'\x96\x18\x04\xb6l+9A'
p41
tp42
Rp43
ag10
(g14
S'\x10X94\x9b-9A'
p44
tp45
Rp46
ag10
(g14
S'\x7f\x14\xaeG\x9d+9A'
p47
tp48
Rp49
ag10
(g14
S'\xb2\x9d\xefG\xc6+9A'
p50
tp51
Rp52
ag10
(g14
S'\x8el\xe7\x9b\xdc+9A'
p53
tp54
Rp55
ag10
(g14
S'm\xbctS>,9A'
p56
tp57
Rp58
ag10
(g14
S'\xf7~j\xfcm,9A'
p59
tp60
Rp61
ag10
(g14
S'\xe1\xa5\x9b\x84\xb8*9A'
p62
tp63
Rp64
ag10
(g14
S'%1\x08\xec\xe4+9A'
p65
tp66
Rp67
ag10
(g14
S'\x83\xc0\xca\xa1\xac,9A'
p68
tp69
Rp70
ag10
(g14
S'\xdbx\xe9f\x13+9A'
p71
tp72
Rp73
ag10
(g14
S'~h\x91\xcd\xc6*9A'
p74
tp75
Rp76
asS'target'
p77
(lp78
g10
(g14
S'\x04\x7fj\xbct\x9bS@'
p79
tp80
Rp81
ag10
(g14
S'03333\x83R@'
p82
tp83
Rp84
ag10
(g14
S'\xf1|?5^NS@'
p85
tp86
Rp87
ag10
(g14
S'\x0e\xaeG\xe1zhR@'
p88
tp89
Rp90
ag10
(g14
S'\x9c\xa8\x7f#\x94ES@'
p91
tp92
Rp93
ag10
(g14
S'\x8aA`\xe5\xd0ZS@'
p94
tp95
Rp96
ag10
(g14
S'\xe3\xa5\x9b\xc4 \xdcR@'
p97
tp98
Rp99
ag10
(g14
S'\t\xd7\xa3p=\x86S@'
p100
tp101
Rp102
ag10
(g14
S'\xf7S\xe3\xa5\x9b\x88R@'
p103
tp104
Rp105
ag10
(g14
S'\x19Zd;\xdfGT@'
p106
tp107
Rp108
ag10
(g14
S'D5^\xbaI,S@'
p109
tp110
Rp111
ag10
(g14
S'\xba\xf3\xfd\xd4x\xe1R@'
p112
tp113
Rp114
ag10
(g14
S'\xd0>|\x86]\xe9R@'
p115
tp116
Rp117
ag10
(g14
S'\xfa~j\xbct\xcbR@'
p118
tp119
Rp120
ag10
(g14
S'\xe9\xd0"\xdb\xf9\xeeR@'
p121
tp122
Rp123
ag10
(g14
S'D\xb6\xf3\xfd\xd4\xb0R@'
p124
tp125
Rp126
ag10
(g14
S'G\x8bl\xe7\xfb]R@'
p127
tp128
Rp129
ag10
(g14
S'\xf4\xd4x\xe9&iS@'
p130
tp131
Rp132
ag10
(g14
S'\\9\xb4\xc8v:S@'
p133
tp134
Rp135
ag10
(g14
S'K`\xe5\xd0"\x8bR@'
p136
tp137
Rp138
asssss.