(dp0
S'../Data/sqlite_71.csv'
p1
(dp2
S'../Data/sqlite_3.csv'
p3
(dp4
F0.2
(dp5
S'abs_res'
p6
(dp7
S'bellwether'
p8
(lp9
cnumpy.core.multiarray
scalar
p10
(cnumpy
dtype
p11
(S'f8'
p12
I0
I1
tp13
Rp14
(I3
S'<'
p15
NNNI-1
I-1
I0
tp16
bS'u\xcbZ\xc9\xce[kA'
p17
tp18
Rp19
ag10
(g14
S'LDD0S\\kA'
p20
tp21
Rp22
ag10
(g14
S'5\x17\x92\xe2\x16RkA'
p23
tp24
Rp25
ag10
(g14
S'\xa3p=\xe6rYkA'
p26
tp27
Rp28
ag10
(g14
S'<\x8bl\x9f\xf9XkA'
p29
tp30
Rp31
ag10
(g14
S'\xb0\xd51\x952mkA'
p32
tp33
Rp34
ag10
(g14
S'\xbf\xd7\\\xbc\xc7YkA'
p35
tp36
Rp37
ag10
(g14
S'\xb8I\x0cf\xfcQkA'
p38
tp39
Rp40
ag10
(g14
S'\x9d\x9b\xc4D\xffXkA'
p41
tp42
Rp43
ag10
(g14
S'V\xabcFU]kA'
p44
tp45
Rp46
ag10
(g14
S'\xa5\xd51\xd9\xa6^kA'
p47
tp48
Rp49
ag10
(g14
S'i\x1f>\xd7jVkA'
p50
tp51
Rp52
ag10
(g14
S'\x9d}\xf8\xccFVkA'
p53
tp54
Rp55
ag10
(g14
S'\x02\xe4^k\xc6UkA'
p56
tp57
Rp58
ag10
(g14
S'\xf0\xa7\xc6\x97([kA'
p59
tp60
Rp61
ag10
(g14
S'|?5\x96;UkA'
p62
tp63
Rp64
ag10
(g14
S'Qd;\xdfabkA'
p65
tp66
Rp67
ag10
(g14
S'm\xcbZ\xbd\x03ZkA'
p68
tp69
Rp70
ag10
(g14
S'\x18\x92\xa6P\x04akA'
p71
tp72
Rp73
ag10
(g14
S'\x80\xe9&\x99\xe0YkA'
p74
tp75
Rp76
asS'target'
p77
(lp78
g10
(g14
S'\x1e\x85\xebQ\xb8\xe8k@'
p79
tp80
Rp81
ag10
(g14
S'\x0e\xd7\xa3p=&l@'
p82
tp83
Rp84
ag10
(g14
S'\xdb\xce\xf7S\xe3\x1fm@'
p85
tp86
Rp87
ag10
(g14
S'\xe8\xd0"\xdb\xf9\xfel@'
p88
tp89
Rp90
ag10
(g14
S'V\x8f\xc2\xf5(\xb4l@'
p91
tp92
Rp93
ag10
(g14
S'\xf2\xa7\xc6K7\xa3o@'
p94
tp95
Rp96
ag10
(g14
S'\x85\xc0\xca\xa1E k@'
p97
tp98
Rp99
ag10
(g14
S'<\xb4\xc8v\xbe]l@'
p100
tp101
Rp102
ag10
(g14
S'\xbdt\x93\x18\x04:n@'
p103
tp104
Rp105
ag10
(g14
S'\xc0 \xb0rh\xd1j@'
p106
tp107
Rp108
ag10
(g14
S'25^\xbaI\xeck@'
p109
tp110
Rp111
ag10
(g14
S'\xe0&1\x08\xac(o@'
p112
tp113
Rp114
ag10
(g14
S'\x1aX9\xb4\xc8Rl@'
p115
tp116
Rp117
ag10
(g14
S'\xdb\xf9~j\xbcTm@'
p118
tp119
Rp120
ag10
(g14
S'\xbe\xc8v\xbe\x9fVn@'
p121
tp122
Rp123
ag10
(g14
S'\x03\x83\xc0\xca\xa1Ik@'
p124
tp125
Rp126
ag10
(g14
S'\xaaG\xe1z\x14Fo@'
p127
tp128
Rp129
ag10
(g14
S':3333Sl@'
p130
tp131
Rp132
ag10
(g14
S'X;\xdfO\x8d+l@'
p133
tp134
Rp135
ag10
(g14
S'*\xb2\x9d\xef\xa7\x9ao@'
p136
tp137
Rp138
asssss.