(dp0
S'../Data/sqlite_16.csv'
p1
(dp2
S'../Data/sqlite_62.csv'
p3
(dp4
F0.1
(dp5
S'mmre'
p6
(dp7
S'bellwether'
p8
(lp9
cnumpy.core.multiarray
scalar
p10
(cnumpy
dtype
p11
(S'f8'
p12
I0
I1
tp13
Rp14
(I3
S'<'
p15
NNNI-1
I-1
I0
tp16
bS'\xd2z\xd9A\xc06V@'
p17
tp18
Rp19
ag10
(g14
S'\xe7\xc2\xd8\x8a\x818V@'
p20
tp21
Rp22
ag10
(g14
S'\x9e\x82\xf2\xf3e8V@'
p23
tp24
Rp25
ag10
(g14
S'"\xd2\x9e\xaf\x0e7V@'
p26
tp27
Rp28
ag10
(g14
S'[\xd0P\x07\x038V@'
p29
tp30
Rp31
ag10
(g14
S'\xd0\x8bB\x94(7V@'
p32
tp33
Rp34
ag10
(g14
S'D\xcba\x88\xbc8V@'
p35
tp36
Rp37
ag10
(g14
S'pBFW\x067V@'
p38
tp39
Rp40
ag10
(g14
S'\xf3\xdf\xbf:\x178V@'
p41
tp42
Rp43
ag10
(g14
S'B\x8bb\x10\xad8V@'
p44
tp45
Rp46
ag10
(g14
S'F?7u:8V@'
p47
tp48
Rp49
ag10
(g14
S'\xe2]\xc5E\x037V@'
p50
tp51
Rp52
ag10
(g14
S'\xb6\xab\xb4\x94\xe36V@'
p53
tp54
Rp55
ag10
(g14
S'O\xecRU78V@'
p56
tp57
Rp58
ag10
(g14
S'+C\xf8\x19o7V@'
p59
tp60
Rp61
ag10
(g14
S'\x17\xb7\xe1\xa1\x9f7V@'
p62
tp63
Rp64
ag10
(g14
S'@9r\xfa;8V@'
p65
tp66
Rp67
ag10
(g14
S'\n\xfdR\xad\x1a8V@'
p68
tp69
Rp70
ag10
(g14
S'v\xed\xf1c\xd67V@'
p71
tp72
Rp73
ag10
(g14
S'\xf1(\x8c\xec\x907V@'
p74
tp75
Rp76
asS'target'
p77
(lp78
g10
(g14
S"\x1dS\xcfG\xd3'$@"
p79
tp80
Rp81
ag10
(g14
S"\x0e'\xe4Zn%!@"
p82
tp83
Rp84
ag10
(g14
S'\xfaDH\x1b\xc8\xcb!@'
p85
tp86
Rp87
ag10
(g14
S'\xb0\xb8|D5l @'
p88
tp89
Rp90
ag10
(g14
S'O\xfa\xf3~2m!@'
p91
tp92
Rp93
ag10
(g14
S'I\xccp:\x1e\x96"@'
p94
tp95
Rp96
ag10
(g14
S'\xe4loI#q!@'
p97
tp98
Rp99
ag10
(g14
S'{\x83\x1b\x04R}"@'
p100
tp101
Rp102
ag10
(g14
S'\xa0\xbd\x9b\xb8\xf61!@'
p103
tp104
Rp105
ag10
(g14
S'I\x1c#\xf67\x85 @'
p106
tp107
Rp108
ag10
(g14
S'\xb7\xe0\xd1\xae.\x98!@'
p109
tp110
Rp111
ag10
(g14
S';\xf7>\xceZ\xf7#@'
p112
tp113
Rp114
ag10
(g14
S'\x11\x89B\r9l!@'
p115
tp116
Rp117
ag10
(g14
S'_^\xb0\xf4_\xb7"@'
p118
tp119
Rp120
ag10
(g14
S'\x10\xed\x87\xe9l\xb3 @'
p121
tp122
Rp123
ag10
(g14
S'\xbd6\xa7\xc7V\xf9 @'
p124
tp125
Rp126
ag10
(g14
S'l\\\xf5MW""@'
p127
tp128
Rp129
ag10
(g14
S'B\xb7Sr\x07{#@'
p130
tp131
Rp132
ag10
(g14
S'\xed\t\xed\xb2A\x12 @'
p133
tp134
Rp135
ag10
(g14
S'\xa7o\xdc\xef\xc8Z!@'
p136
tp137
Rp138
asssss.