(dp0
S'../Data/sqlite_7.csv'
p1
(dp2
S'../Data/sqlite_96.csv'
p3
(dp4
F0.35
(dp5
S'mmre'
p6
(dp7
S'bellwether'
p8
(lp9
cnumpy.core.multiarray
scalar
p10
(cnumpy
dtype
p11
(S'f8'
p12
I0
I1
tp13
Rp14
(I3
S'<'
p15
NNNI-1
I-1
I0
tp16
bS'\xb6*l`\xc86R@'
p17
tp18
Rp19
ag10
(g14
S'\x1e\x95S\xdf\xeb6R@'
p20
tp21
Rp22
ag10
(g14
S'\xda\x01n\x8fM5R@'
p23
tp24
Rp25
ag10
(g14
S'E\t\xbc\xd2\x8b1R@'
p26
tp27
Rp28
ag10
(g14
S'\x9eEg\xac\x1c;R@'
p29
tp30
Rp31
ag10
(g14
S't\x90\xb0\xed\xac3R@'
p32
tp33
Rp34
ag10
(g14
S'd\xca_\\\xa5-R@'
p35
tp36
Rp37
ag10
(g14
S'\xf7\xe8&\xa6\x9a7R@'
p38
tp39
Rp40
ag10
(g14
S'\xd7#\xa8D\x971R@'
p41
tp42
Rp43
ag10
(g14
S'\xcb\xfe\xb6\x1c\x9f,R@'
p44
tp45
Rp46
ag10
(g14
S'Q\xbc;\xba\n<R@'
p47
tp48
Rp49
ag10
(g14
S'\xbe\xb2-!r?R@'
p50
tp51
Rp52
ag10
(g14
S'\xddc\xc5\x06N:R@'
p53
tp54
Rp55
ag10
(g14
S'\xf8\x89s\xc3\xf3AR@'
p56
tp57
Rp58
ag10
(g14
S'|\xf8\xae\x1bO8R@'
p59
tp60
Rp61
ag10
(g14
S'\xe7\x8d\x01\xb2eCR@'
p62
tp63
Rp64
ag10
(g14
S'\x895\xde\x04HNR@'
p65
tp66
Rp67
ag10
(g14
S'\x9d [0/=R@'
p68
tp69
Rp70
ag10
(g14
S'\x90\x15\xd6\xb3)IR@'
p71
tp72
Rp73
ag10
(g14
S'\xc3\x08N\x8c\x87@R@'
p74
tp75
Rp76
asS'target'
p77
(lp78
g10
(g14
S'\xb4\xca\x1b\xf2\xf5\x9bV@'
p79
tp80
Rp81
ag10
(g14
S'D\xe9rh\xa7\xb9O@'
p82
tp83
Rp84
ag10
(g14
S'\x04DJ\x97Q+[@'
p85
tp86
Rp87
ag10
(g14
S'\xb9\xfc\xec\xae\xa8%R@'
p88
tp89
Rp90
ag10
(g14
S'/\x8a\x1a\x93`mZ@'
p91
tp92
Rp93
ag10
(g14
S')\xf62:\t\xd5V@'
p94
tp95
Rp96
ag10
(g14
S'{>\x19&Z\x99U@'
p97
tp98
Rp99
ag10
(g14
S'1\xe2\x945,\x91W@'
p100
tp101
Rp102
ag10
(g14
S'\xa5_ESp\xc7I@'
p103
tp104
Rp105
ag10
(g14
S'\xf8\xe5be.\x89J@'
p106
tp107
Rp108
ag10
(g14
S'o\xba\r`\xf8\xcfU@'
p109
tp110
Rp111
ag10
(g14
S'D\xd5\x17\xd6tRP@'
p112
tp113
Rp114
ag10
(g14
S'\x01\xde\xf7T\xf93R@'
p115
tp116
Rp117
ag10
(g14
S'\x93\xac\x92\xe2;FW@'
p118
tp119
Rp120
ag10
(g14
S'\xfb\xd9\x87n\xa1\xfdR@'
p121
tp122
Rp123
ag10
(g14
S'\x89N\x91\x083\xd2L@'
p124
tp125
Rp126
ag10
(g14
S'\n\x16\x05\xc7\xd5\x7fM@'
p127
tp128
Rp129
ag10
(g14
S'\xf2\x1a(\x1ey\xe4U@'
p130
tp131
Rp132
ag10
(g14
S'\xbe \x8c\x98D\xa8Z@'
p133
tp134
Rp135
ag10
(g14
S'&?o\x8d\xa1\xa3S@'
p136
tp137
Rp138
asssss.