(dp0
S'../Data/sqlite_87.csv'
p1
(dp2
S'../Data/sqlite_73.csv'
p3
(dp4
F0.2
(dp5
S'mmre'
p6
(dp7
S'bellwether'
p8
(lp9
cnumpy.core.multiarray
scalar
p10
(cnumpy
dtype
p11
(S'f8'
p12
I0
I1
tp13
Rp14
(I3
S'<'
p15
NNNI-1
I-1
I0
tp16
bS'\x9dk7\x1c\x0e\x9eD@'
p17
tp18
Rp19
ag10
(g14
S'\xfe%J\xec\x9e\xa2C@'
p20
tp21
Rp22
ag10
(g14
S'Z\xdd]\x9b\xe1\x8aE@'
p23
tp24
Rp25
ag10
(g14
S'k/4\xc7\xa5\xedD@'
p26
tp27
Rp28
ag10
(g14
S'O\x9a\xde`\xea0D@'
p29
tp30
Rp31
ag10
(g14
S'\xf80;\xa3\xe2\xc3C@'
p32
tp33
Rp34
ag10
(g14
S'd-\xcaQ\xbf\xd8D@'
p35
tp36
Rp37
ag10
(g14
S'\xd5\r\x05#g\x0cE@'
p38
tp39
Rp40
ag10
(g14
S'\x1d\x12/\xf9\xa3&E@'
p41
tp42
Rp43
ag10
(g14
S'\xc577\r\xb6~D@'
p44
tp45
Rp46
ag10
(g14
S'\xef\x0f\x03 SuD@'
p47
tp48
Rp49
ag10
(g14
S'\xda\x0f\xa3\xe4E\xbbD@'
p50
tp51
Rp52
ag10
(g14
S':~}\x12\x91wE@'
p53
tp54
Rp55
ag10
(g14
S'\x86a\x98\x89^FE@'
p56
tp57
Rp58
ag10
(g14
S'$UP"\xd9ZD@'
p59
tp60
Rp61
ag10
(g14
S'=H\xb5\xb9*bE@'
p62
tp63
Rp64
ag10
(g14
S'\xf4\xa3*Z\xc1\x1eE@'
p65
tp66
Rp67
ag10
(g14
S'\x90\x12\x88c,9D@'
p68
tp69
Rp70
ag10
(g14
S'\xc6\x12\xdd\x9f}XD@'
p71
tp72
Rp73
ag10
(g14
S'\xd1n\n\x81\t9D@'
p74
tp75
Rp76
asS'target'
p77
(lp78
g10
(g14
S'\xfc\x17Cv\xa5\xd0*@'
p79
tp80
Rp81
ag10
(g14
S'\x81+YA\\\x13+@'
p82
tp83
Rp84
ag10
(g14
S'0\xc7J\xe6r\xde+@'
p85
tp86
Rp87
ag10
(g14
S'r\xa7\x19\xf7T\t,@'
p88
tp89
Rp90
ag10
(g14
S'\xd2\xa2^_\xe0\x01,@'
p91
tp92
Rp93
ag10
(g14
S'\xbe\r\x87E\xecS,@'
p94
tp95
Rp96
ag10
(g14
S'@M/\\\xc3=,@'
p97
tp98
Rp99
ag10
(g14
S'8s\xff{P\x1a*@'
p100
tp101
Rp102
ag10
(g14
S'\xbdF!\xd5M]+@'
p103
tp104
Rp105
ag10
(g14
S':\xb9\xf1\x06\xf6\x8e.@'
p106
tp107
Rp108
ag10
(g14
S'\xa5\xa7\xd3q\xf1\x0b-@'
p109
tp110
Rp111
ag10
(g14
S'k^bf\x99&-@'
p112
tp113
Rp114
ag10
(g14
S'H\xe1\xbf$\xa4\xdf)@'
p115
tp116
Rp117
ag10
(g14
S'Y\x9e\x9dqB\xc6)@'
p118
tp119
Rp120
ag10
(g14
S';<\x91\xdbm\x0c+@'
p121
tp122
Rp123
ag10
(g14
S'\x8d\xdd\xef\xd48x,@'
p124
tp125
Rp126
ag10
(g14
S'\xd7\xfa\xfeZ\x84b+@'
p127
tp128
Rp129
ag10
(g14
S'Ny\x15\xd3\xfb\x1b0@'
p130
tp131
Rp132
ag10
(g14
S'\x96\xef\xa5\xdc\xcaR-@'
p133
tp134
Rp135
ag10
(g14
S'\xb6\xf5PcN\\-@'
p136
tp137
Rp138
asssss.