(dp0
S'../Data/sqlite_71.csv'
p1
(dp2
S'../Data/sqlite_23.csv'
p3
(dp4
F0.05
(dp5
S'abs_res'
p6
(dp7
S'bellwether'
p8
(lp9
cnumpy.core.multiarray
scalar
p10
(cnumpy
dtype
p11
(S'f8'
p12
I0
I1
tp13
Rp14
(I3
S'<'
p15
NNNI-1
I-1
I0
tp16
bS'Pb\x10\xd0\xa0BpA'
p17
tp18
Rp19
ag10
(g14
S'\xd6x\xe9\n\xe4BpA'
p20
tp21
Rp22
ag10
(g14
S'\xceMb\x12JDpA'
p23
tp24
Rp25
ag10
(g14
S'\x1a\x85\xeb\xf5\x81EpA'
p26
tp27
Rp28
ag10
(g14
S'\x08\xd7\xa3\xa2Y@pA'
p29
tp30
Rp31
ag10
(g14
S'\x8f\x97n\xa6\xb0ApA'
p32
tp33
Rp34
ag10
(g14
S'"\xb0r\x12}@pA'
p35
tp36
Rp37
ag10
(g14
S'\xaa\xf1\xd2\xb5i@pA'
p38
tp39
Rp40
ag10
(g14
S'\x04\x81\x95\x15\xadBpA'
p41
tp42
Rp43
ag10
(g14
S'\xc3 \xb0jYBpA'
p44
tp45
Rp46
ag10
(g14
S'\x9a\x1a/\x03\xcaApA'
p47
tp48
Rp49
ag10
(g14
S'hY\xab\x9d\xd3CpA'
p50
tp51
Rp52
ag10
(g14
S'\xc3K7u\x8a@pA'
p53
tp54
Rp55
ag10
(g14
S'\x8d\x97n\xc4\xd9@pA'
p56
tp57
Rp58
ag10
(g14
S'\x89\x97n\x86oFpA'
p59
tp60
Rp61
ag10
(g14
S'\xf9~jT\x07BpA'
p62
tp63
Rp64
ag10
(g14
S'\x13\xaeG\x030EpA'
p65
tp66
Rp67
ag10
(g14
S',\xdd$jmBpA'
p68
tp69
Rp70
ag10
(g14
S'Jb\x10\x0c\xd8@pA'
p71
tp72
Rp73
ag10
(g14
S'\xf8~j\x90|ApA'
p74
tp75
Rp76
asS'target'
p77
(lp78
g10
(g14
S"6\x87\x16\xd9\xce'B@"
p79
tp80
Rp81
ag10
(g14
S'\x1d/\xdd$\x06QB@'
p82
tp83
Rp84
ag10
(g14
S'\xfd(\\\x8f\xc2\xa5C@'
p85
tp86
Rp87
ag10
(g14
S'?^\xbaI\x0c\x82D@'
p88
tp89
Rp90
ag10
(g14
S'D`\xe5\xd0"k@@'
p91
tp92
Rp93
ag10
(g14
S'\x0c\xd7\xa3p=\x1aA@'
p94
tp95
Rp96
ag10
(g14
S'\x02\xaa\xf1\xd2MR@@'
p97
tp98
Rp99
ag10
(g14
S'U\x0e-\xb2\x9do@@'
p100
tp101
Rp102
ag10
(g14
S':^\xbaI\x0cbA@'
p103
tp104
Rp105
ag10
(g14
S'~\xbe\x9f\x1a/MC@'
p106
tp107
Rp108
ag10
(g14
S'l\x12\x83\xc0\xcaa@@'
p109
tp110
Rp111
ag10
(g14
S'I\x0c\x02+\x87\xb6@@'
p112
tp113
Rp114
ag10
(g14
S'\xd6Mb\x10X\tM@'
p115
tp116
Rp117
ag10
(g14
S'\xc2t\x93\x18\x04\xc6B@'
p118
tp119
Rp120
ag10
(g14
S'L7\x89A`\x85A@'
p121
tp122
Rp123
ag10
(g14
S'\xc9\xa1E\xb6\xf3\x8dD@'
p124
tp125
Rp126
ag10
(g14
S'\xed\xa5\x9b\xc4 \x80A@'
p127
tp128
Rp129
ag10
(g14
S'p?5^\xba\xd9D@'
p130
tp131
Rp132
ag10
(g14
S'D`\xe5\xd0"\x0b@@'
p133
tp134
Rp135
ag10
(g14
S'\x1aX9\xb4\xc8v?@'
p136
tp137
Rp138
asssss.