(dp0
S'../Data/sqlite_3.csv'
p1
(dp2
S'../Data/sqlite_84.csv'
p3
(dp4
F0.05
(dp5
S'mmre'
p6
(dp7
S'bellwether'
p8
(lp9
cnumpy.core.multiarray
scalar
p10
(cnumpy
dtype
p11
(S'f8'
p12
I0
I1
tp13
Rp14
(I3
S'<'
p15
NNNI-1
I-1
I0
tp16
bS'\xf4\xf6r\xfb!@F@'
p17
tp18
Rp19
ag10
(g14
S'\x88\xa8:\xc2Y2F@'
p20
tp21
Rp22
ag10
(g14
S"\xccP\x8d\x0bA'F@"
p23
tp24
Rp25
ag10
(g14
S'R\x11(a\rCF@'
p26
tp27
Rp28
ag10
(g14
S'q\xe0m\x06\xabyF@'
p29
tp30
Rp31
ag10
(g14
S"'f\xc3;\x17NF@"
p32
tp33
Rp34
ag10
(g14
S'IH\xc0\xb4\x01MF@'
p35
tp36
Rp37
ag10
(g14
S'\xea(\x15\xbb\x9d4F@'
p38
tp39
Rp40
ag10
(g14
S'\xd98\x18\xed^3F@'
p41
tp42
Rp43
ag10
(g14
S'\x96\xaf\x15SWTF@'
p44
tp45
Rp46
ag10
(g14
S'~q\x8d\xd8\x9ffF@'
p47
tp48
Rp49
ag10
(g14
S'\xde\xf8\xea\xef\xd4ZF@'
p50
tp51
Rp52
ag10
(g14
S'0\x13\x89v\x18hF@'
p53
tp54
Rp55
ag10
(g14
S'S\xf0\xf8\x97\xbahF@'
p56
tp57
Rp58
ag10
(g14
S'\xafz\xb0\x9e\xcb\\F@'
p59
tp60
Rp61
ag10
(g14
S'\x8b\xe3sbweF@'
p62
tp63
Rp64
ag10
(g14
S'a\xbar\xee\xa49F@'
p65
tp66
Rp67
ag10
(g14
S'\xf5[\x0b\x8d\xcd;F@'
p68
tp69
Rp70
ag10
(g14
S'\xdb\x14\x99R@QF@'
p71
tp72
Rp73
ag10
(g14
S'3\xafeDa[F@'
p74
tp75
Rp76
asS'target'
p77
(lp78
g10
(g14
S'\xc6\x8b\xd4o\xcexK@'
p79
tp80
Rp81
ag10
(g14
S'\xbc\x0e\xf2\x8c\xe6s\\@'
p82
tp83
Rp84
ag10
(g14
S'\x95|7U4=^@'
p85
tp86
Rp87
ag10
(g14
S'\xe3(4b\x13[T@'
p88
tp89
Rp90
ag10
(g14
S'\x11/n\xb8(\xf0V@'
p91
tp92
Rp93
ag10
(g14
S'\xac-u@\x85\xc6\\@'
p94
tp95
Rp96
ag10
(g14
S'\x7f\xee\x86.\xa8nZ@'
p97
tp98
Rp99
ag10
(g14
S'2ZD\x96N\x16?@'
p100
tp101
Rp102
ag10
(g14
S'S\xe1\xe9\x08\x8c\xb5S@'
p103
tp104
Rp105
ag10
(g14
S'M]wKt\xe2`@'
p106
tp107
Rp108
ag10
(g14
S'\x1b\xe5\xd8\xf9\\\x82^@'
p109
tp110
Rp111
ag10
(g14
S'C^\xf7\xbb\xce5?@'
p112
tp113
Rp114
ag10
(g14
S'\x8c\xcd\x8e\xbd\x01\x9eA@'
p115
tp116
Rp117
ag10
(g14
S'lgf\xba\x1bMS@'
p118
tp119
Rp120
ag10
(g14
S'\xaco\xb0-\xc4[[@'
p121
tp122
Rp123
ag10
(g14
S'+\xb2C\xaf\x82*G@'
p124
tp125
Rp126
ag10
(g14
S'4\xfc\x00\xff\x8fHT@'
p127
tp128
Rp129
ag10
(g14
S'\xe5\xd9\x1e\x8c\x82\xe2\\@'
p130
tp131
Rp132
ag10
(g14
S'v\xa9\xcc\x81\x8bAS@'
p133
tp134
Rp135
ag10
(g14
S'\xbe\xedV]\xe8ZR@'
p136
tp137
Rp138
asssss.