(dp0
S'../Data/sqlite_35.csv'
p1
(dp2
S'../Data/sqlite_63.csv'
p3
(dp4
F0.15
(dp5
S'mmre'
p6
(dp7
S'bellwether'
p8
(lp9
cnumpy.core.multiarray
scalar
p10
(cnumpy
dtype
p11
(S'f8'
p12
I0
I1
tp13
Rp14
(I3
S'<'
p15
NNNI-1
I-1
I0
tp16
bS'\\\xc0\xfb.\'"K@'
p17
tp18
Rp19
ag10
(g14
S'O\xccFVc%K@'
p20
tp21
Rp22
ag10
(g14
S'\xd6\x85-\x86\t K@'
p23
tp24
Rp25
ag10
(g14
S'\x129\xa8\x93[/K@'
p26
tp27
Rp28
ag10
(g14
S'\x89\x1f\xd6\xc5A*K@'
p29
tp30
Rp31
ag10
(g14
S'\xf144ze#K@'
p32
tp33
Rp34
ag10
(g14
S'\x82\xfd\x92M\x10$K@'
p35
tp36
Rp37
ag10
(g14
S'E\x16\x1fs\xe7)K@'
p38
tp39
Rp40
ag10
(g14
S'\t\xbe\xed>.\x1eK@'
p41
tp42
Rp43
ag10
(g14
S".\xd0\x07\xe7F'K@"
p44
tp45
Rp46
ag10
(g14
S'\xcbK\x8fm^)K@'
p47
tp48
Rp49
ag10
(g14
S'\xb2^p\xa4\x15$K@'
p50
tp51
Rp52
ag10
(g14
S'\xbf\xb3\x8e\xa5/(K@'
p53
tp54
Rp55
ag10
(g14
S'Bf\xab\r\r(K@'
p56
tp57
Rp58
ag10
(g14
S'\x0c\xd9I\n\xe0+K@'
p59
tp60
Rp61
ag10
(g14
S'\xa8><\xe7=*K@'
p62
tp63
Rp64
ag10
(g14
S'\xf8\t*\x10\xb0\x1bK@'
p65
tp66
Rp67
ag10
(g14
S'SL\x17\xbd\xe7)K@'
p68
tp69
Rp70
ag10
(g14
S'\xaa\x05~4+$K@'
p71
tp72
Rp73
ag10
(g14
S'&4\xff\xa3u&K@'
p74
tp75
Rp76
asS'target'
p77
(lp78
g10
(g14
S'w\xb4p\x9d\x16\n#@'
p79
tp80
Rp81
ag10
(g14
S's\x93\xd3S)R#@'
p82
tp83
Rp84
ag10
(g14
S'j\xa2\x12A\xba\xca#@'
p85
tp86
Rp87
ag10
(g14
S'K\xf5\xa8>m;!@'
p88
tp89
Rp90
ag10
(g14
S'\xadn\x81\xc1\xd6b#@'
p91
tp92
Rp93
ag10
(g14
S'U\xc5yx\x17\x9d"@'
p94
tp95
Rp96
ag10
(g14
S'o\x131\xed\x06\xa5$@'
p97
tp98
Rp99
ag10
(g14
S'w\xe7&g\xe0\x99"@'
p100
tp101
Rp102
ag10
(g14
S'\xa4`\x8e\xf1\xea>#@'
p103
tp104
Rp105
ag10
(g14
S'~\xa65Z\xa1\x00$@'
p106
tp107
Rp108
ag10
(g14
S'/\xe5\xbbo\xa0-$@'
p109
tp110
Rp111
ag10
(g14
S'\x85H\x0b:\xbc\xc9"@'
p112
tp113
Rp114
ag10
(g14
S'1sS\x00\xfaA"@'
p115
tp116
Rp117
ag10
(g14
S'\xefY\x08\x9a\x80\x16"@'
p118
tp119
Rp120
ag10
(g14
S'\xf3D\x93\xbfV\xdc!@'
p121
tp122
Rp123
ag10
(g14
S'\xde\x83\x9b\xae1n#@'
p124
tp125
Rp126
ag10
(g14
S'\x88\xbcA\xa1\x8d\xfc!@'
p127
tp128
Rp129
ag10
(g14
S'(\x05""\x84["@'
p130
tp131
Rp132
ag10
(g14
S'\xa5t\x98\x11\xfb\xd6"@'
p133
tp134
Rp135
ag10
(g14
S'\xf6\x1fh}\x01e"@'
p136
tp137
Rp138
asssss.