(dp0
S'../Data/sqlite_71.csv'
p1
(dp2
S'../Data/sqlite_49.csv'
p3
(dp4
F0.2
(dp5
S'abs_res'
p6
(dp7
S'bellwether'
p8
(lp9
cnumpy.core.multiarray
scalar
p10
(cnumpy
dtype
p11
(S'f8'
p12
I0
I1
tp13
Rp14
(I3
S'<'
p15
NNNI-1
I-1
I0
tp16
bS'\xf4\x8b%\xf7ASkA'
p17
tp18
Rp19
ag10
(g14
S'\x95Rq\x92Y]kA'
p20
tp21
Rp22
ag10
(g14
S'\xdb$\x06\xf5hYkA'
p23
tp24
Rp25
ag10
(g14
S'(@\xee\xbd\x04XkA'
p26
tp27
Rp28
ag10
(g14
S'|ww\xe7\x1cTkA'
p29
tp30
Rp31
ag10
(g14
S'\xb6\x9d\xef\xcf\x9aZkA'
p32
tp33
Rp34
ag10
(g14
S'\x16g\x1fZ\xb7[kA'
p35
tp36
Rp37
ag10
(g14
S'3B\x19\xf9\x98ZkA'
p38
tp39
Rp40
ag10
(g14
S'\x12/\xdd\xd8\x08\\kA'
p41
tp42
Rp43
ag10
(g14
S'!\x13<8\x9dakA'
p44
tp45
Rp46
ag10
(g14
S'\xc1\xf5(\xac*WkA'
p47
tp48
Rp49
ag10
(g14
S'V\x1b\xe88\x86XkA'
p50
tp51
Rp52
ag10
(g14
S'\xb8t\x93\x84\xd2ZkA'
p53
tp54
Rp55
ag10
(g14
S'&\xbfX\xda\xac^kA'
p56
tp57
Rp58
ag10
(g14
S'~\x14\xae{EVkA'
p59
tp60
Rp61
ag10
(g14
S'\x83l\xe7\xbb\x93[kA'
p62
tp63
Rp64
ag10
(g14
S'\x0b\xbb\x02\x04\xd6`kA'
p65
tp66
Rp67
ag10
(g14
S'\xf2\xd2M\x82B^kA'
p68
tp69
Rp70
ag10
(g14
S'\xcb\xa1E\x96 ZkA'
p71
tp72
Rp73
ag10
(g14
S'\x1c\xdb\xf9\x8e\xf1`kA'
p74
tp75
Rp76
asS'target'
p77
(lp78
g10
(g14
S'k\x91\xed|?\xfdf@'
p79
tp80
Rp81
ag10
(g14
S'\xf9\xa9\xf1\xd2M\x86e@'
p82
tp83
Rp84
ag10
(g14
S'X\xe3\xa5\x9b\xc4\x94f@'
p85
tp86
Rp87
ag10
(g14
S'\x16/\xdd$\x06\xe1d@'
p88
tp89
Rp90
ag10
(g14
S'L\x8bl\xe7\xfb\xc7f@'
p91
tp92
Rp93
ag10
(g14
S'\xe9\xa5\x9b\xc4 \x8ce@'
p94
tp95
Rp96
ag10
(g14
S'z?5^\xbaaf@'
p97
tp98
Rp99
ag10
(g14
S'\xde\xa5\x9b\xc4 \xdcf@'
p100
tp101
Rp102
ag10
(g14
S'\x14X9\xb4\xc8\x96f@'
p103
tp104
Rp105
ag10
(g14
S'@^\xbaI\x0c\xcaf@'
p106
tp107
Rp108
ag10
(g14
S'S\x0c\x02+\x87*h@'
p109
tp110
Rp111
ag10
(g14
S'[d;\xdfO\xf3e@'
p112
tp113
Rp114
ag10
(g14
S'Y9\xb4\xc8v\xd6d@'
p115
tp116
Rp117
ag10
(g14
S'\xb3\x1cZd;_e@'
p118
tp119
Rp120
ag10
(g14
S'f\x0e-\xb2\x9d\x1be@'
p121
tp122
Rp123
ag10
(g14
S'>\x89A`\xe5\xdef@'
p124
tp125
Rp126
ag10
(g14
S'\xd3O\x8d\x97nbf@'
p127
tp128
Rp129
ag10
(g14
S'\x10\x02+\x87\x16\xcff@'
p130
tp131
Rp132
ag10
(g14
S'23333\xdbh@'
p133
tp134
Rp135
ag10
(g14
S'\xe9\xd2Mb\x10Hh@'
p136
tp137
Rp138
asssss.