(dp0
S'../Data/sqlite_18.csv'
p1
(dp2
S'../Data/sqlite_5.csv'
p3
(dp4
F0.05
(dp5
S'abs_res'
p6
(dp7
S'bellwether'
p8
(lp9
cnumpy.core.multiarray
scalar
p10
(cnumpy
dtype
p11
(S'f8'
p12
I0
I1
tp13
Rp14
(I3
S'<'
p15
NNNI-1
I-1
I0
tp16
bS'\xc3\xf5(\x0cI`BA'
p17
tp18
Rp19
ag10
(g14
S'\xea|?\xa5\xef_BA'
p20
tp21
Rp22
ag10
(g14
S'\xb4\xc8vnT`BA'
p23
tp24
Rp25
ag10
(g14
S'\xd2\xf7S\x83x`BA'
p26
tp27
Rp28
ag10
(g14
S"\x9a'\xea/|`BA"
p29
tp30
Rp31
ag10
(g14
S'\xcdMb\xc0"`BA'
p32
tp33
Rp34
ag10
(g14
S'\xdc3\xec\xfa\xc9`BA'
p35
tp36
Rp37
ag10
(g14
S'\xaf\xf1\xd2\xbd\x8e`BA'
p38
tp39
Rp40
ag10
(g14
S',\xdd$6s`BA'
p41
tp42
Rp43
ag10
(g14
S'\xf1Q\xb8."`BA'
p44
tp45
Rp46
ag10
(g14
S'\x11\x02+W\xbf`BA'
p47
tp48
Rp49
ag10
(g14
S'\xdb\xf9~\x1a\xc6`BA'
p50
tp51
Rp52
ag10
(g14
S'\xeaQ\xb8np`BA'
p53
tp54
Rp55
ag10
(g14
S'\xab\xf1\xd2}\xca`BA'
p56
tp57
Rp58
ag10
(g14
S'95^\xba\x94`BA'
p59
tp60
Rp61
ag10
(g14
S'n=\n\x17\x87`BA'
p62
tp63
Rp64
ag10
(g14
S'\x06V\x0e\xdd_`BA'
p65
tp66
Rp67
ag10
(g14
S'\xad\xc8v\xce#`BA'
p68
tp69
Rp70
ag10
(g14
S'\x8aA`\xe5T`BA'
p71
tp72
Rp73
ag10
(g14
S'\xcb\xcc\xcclg`BA'
p74
tp75
Rp76
asS'target'
p77
(lp78
g10
(g14
S'9\x8bl\xe7\xfb\xc9^@'
p79
tp80
Rp81
ag10
(g14
S'H\xb8\x1e\x85\xeb\x19^@'
p82
tp83
Rp84
ag10
(g14
S'n\xe7\xfb\xa9\xf1\xeab@'
p85
tp86
Rp87
ag10
(g14
S'\xed\xd0"\xdb\xf9\x06^@'
p88
tp89
Rp90
ag10
(g14
S'\x15\xaeG\xe1z\xe8b@'
p91
tp92
Rp93
ag10
(g14
S'm\xbct\x93\x184g@'
p94
tp95
Rp96
ag10
(g14
S'[\xbaI\x0c\x02wk@'
p97
tp98
Rp99
ag10
(g14
S'~\xbe\x9f\x1a/\xbd`@'
p100
tp101
Rp102
ag10
(g14
S';\xb4\xc8v\xbeC`@'
p103
tp104
Rp105
ag10
(g14
S'\x96\xc2\xf5(\\__@'
p106
tp107
Rp108
ag10
(g14
S'\x95\xc4 \xb0r4e@'
p109
tp110
Rp111
ag10
(g14
S'\xd2"\xdb\xf9~"`@'
p112
tp113
Rp114
ag10
(g14
S'33333wa@'
p115
tp116
Rp117
ag10
(g14
S'\x17Zd;\xdf7^@'
p118
tp119
Rp120
ag10
(g14
S'*1\x08\xac\x1cRb@'
p121
tp122
Rp123
ag10
(g14
S'4\xb2\x9d\xef\xa7\x82b@'
p124
tp125
Rp126
ag10
(g14
S'Ib\x10X9\x88i@'
p127
tp128
Rp129
ag10
(g14
S'\x91C\x8bl\xe7\x87`@'
p130
tp131
Rp132
ag10
(g14
S'@\x8bl\xe7\xfb\x01^@'
p133
tp134
Rp135
ag10
(g14
S'\xcfMb\x10X\x99j@'
p136
tp137
Rp138
asssss.