(dp0
S'../Data/sqlite_37.csv'
p1
(dp2
S'../Data/sqlite_59.csv'
p3
(dp4
F0.4
(dp5
S'mmre'
p6
(dp7
S'bellwether'
p8
(lp9
cnumpy.core.multiarray
scalar
p10
(cnumpy
dtype
p11
(S'f8'
p12
I0
I1
tp13
Rp14
(I3
S'<'
p15
NNNI-1
I-1
I0
tp16
bS'M\xef\xa5\x06=YW@'
p17
tp18
Rp19
ag10
(g14
S'\xe7\x13\xc1\x8b\xb2WW@'
p20
tp21
Rp22
ag10
(g14
S'\xb1/5\x8f\xc7UW@'
p23
tp24
Rp25
ag10
(g14
S'\x8d\rR\x86\x91VW@'
p26
tp27
Rp28
ag10
(g14
S'\x82\xf5\x18\xc3\x15UW@'
p29
tp30
Rp31
ag10
(g14
S'\xde[\x9cv\x01UW@'
p32
tp33
Rp34
ag10
(g14
S'\x80U\x1d2\x99VW@'
p35
tp36
Rp37
ag10
(g14
S'3\xb7\xa1!\xa1TW@'
p38
tp39
Rp40
ag10
(g14
S'[l\x10[<UW@'
p41
tp42
Rp43
ag10
(g14
S'\x18J)\xc1\xadVW@'
p44
tp45
Rp46
ag10
(g14
S'\xd8i;\xd4\x1fVW@'
p47
tp48
Rp49
ag10
(g14
S"\xcb\x9e=\xc4'VW@"
p50
tp51
Rp52
ag10
(g14
S'$\xc4\xe0\xa5$UW@'
p53
tp54
Rp55
ag10
(g14
S'\xee\xb9\x1c\xb5CSW@'
p56
tp57
Rp58
ag10
(g14
S'\xb8Q\x9d\xef\xf5TW@'
p59
tp60
Rp61
ag10
(g14
S'?\xb9\xca\xcf_UW@'
p62
tp63
Rp64
ag10
(g14
S'\xbe^S\x141SW@'
p65
tp66
Rp67
ag10
(g14
S'0U:\x86\x85TW@'
p68
tp69
Rp70
ag10
(g14
S'l\xaf\x13V\xfcVW@'
p71
tp72
Rp73
ag10
(g14
S'\xd0`]\x9f\x8bSW@'
p74
tp75
Rp76
asS'target'
p77
(lp78
g10
(g14
S'J\xf8.7\x05\xde$@'
p79
tp80
Rp81
ag10
(g14
S'\xd0\x9d\x88\xb5(\xac%@'
p82
tp83
Rp84
ag10
(g14
S'>k4\x89z3&@'
p85
tp86
Rp87
ag10
(g14
S'\xb428\x8d9\x8c$@'
p88
tp89
Rp90
ag10
(g14
S'\x95@\x90\x9a}^&@'
p91
tp92
Rp93
ag10
(g14
S'4\x18\xaf]\xa9n&@'
p94
tp95
Rp96
ag10
(g14
S'6bj\xa5.\x9c&@'
p97
tp98
Rp99
ag10
(g14
S'\xdf\xeda\x8ePw&@'
p100
tp101
Rp102
ag10
(g14
S'\xf8Ab\xa6\xceD&@'
p103
tp104
Rp105
ag10
(g14
S'\xa1\xef\xc3`\xc2-&@'
p106
tp107
Rp108
ag10
(g14
S"'\xf2\x10\xb2\xcc:'@"
p109
tp110
Rp111
ag10
(g14
S'\xfd\x07\xa6D!\xc0%@'
p112
tp113
Rp114
ag10
(g14
S'\xa3\xc1\x857/"\'@'
p115
tp116
Rp117
ag10
(g14
S'SJ\xc5*\x1bR%@'
p118
tp119
Rp120
ag10
(g14
S'\xc7c\x91x\xf2\xf4$@'
p121
tp122
Rp123
ag10
(g14
S'J\xdb\xae\x1f\x98\xc9&@'
p124
tp125
Rp126
ag10
(g14
S"+\xcd=\x89u1'@"
p127
tp128
Rp129
ag10
(g14
S',\xe2\xd3\x17\x89B%@'
p130
tp131
Rp132
ag10
(g14
S'\x90\xf5 \x86f\xf0%@'
p133
tp134
Rp135
ag10
(g14
S's\xda\x99\xc8\x97\x08(@'
p136
tp137
Rp138
asssss.