(dp0
S'../Data/sqlite_62.csv'
p1
(dp2
S'../Data/sqlite_91.csv'
p3
(dp4
F0.3
(dp5
S'mmre'
p6
(dp7
S'bellwether'
p8
(lp9
cnumpy.core.multiarray
scalar
p10
(cnumpy
dtype
p11
(S'f8'
p12
I0
I1
tp13
Rp14
(I3
S'<'
p15
NNNI-1
I-1
I0
tp16
bS'\xd7r\xd0\xe1\x0fJW@'
p17
tp18
Rp19
ag10
(g14
S'\x16\xfaK\xf6\x94>W@'
p20
tp21
Rp22
ag10
(g14
S"'\xb7u\x18\x02?W@"
p23
tp24
Rp25
ag10
(g14
S'\xc2sw\xf4,@W@'
p26
tp27
Rp28
ag10
(g14
S'%c\xb84t,W@'
p29
tp30
Rp31
ag10
(g14
S'r\xf2 ?\x85.W@'
p32
tp33
Rp34
ag10
(g14
S'\x86\x0e;i+KW@'
p35
tp36
Rp37
ag10
(g14
S'\xc4\xe6*\xe3\xecJW@'
p38
tp39
Rp40
ag10
(g14
S'\x89\xb3\x90j\xc5,W@'
p41
tp42
Rp43
ag10
(g14
S'\xf2\x02[\xde\xb0IW@'
p44
tp45
Rp46
ag10
(g14
S'\x86\xc7\x95A\xd9<W@'
p47
tp48
Rp49
ag10
(g14
S'\xb9@{\x10U8W@'
p50
tp51
Rp52
ag10
(g14
S'W\x1a{\xbb\xe6?W@'
p53
tp54
Rp55
ag10
(g14
S'E\xd3T\xfb:8W@'
p56
tp57
Rp58
ag10
(g14
S'\x82<\xb1~ 3W@'
p59
tp60
Rp61
ag10
(g14
S'Y\x060)"CW@'
p62
tp63
Rp64
ag10
(g14
S'\x12\xac\x080\x15KW@'
p65
tp66
Rp67
ag10
(g14
S'/~Jns.W@'
p68
tp69
Rp70
ag10
(g14
S'-\xe5\xab\xfc\x1eHW@'
p71
tp72
Rp73
ag10
(g14
S'\xff\xd4\x8d\x8e\x8dFW@'
p74
tp75
Rp76
asS'target'
p77
(lp78
g10
(g14
S'\xef\xc5^\x8f\xc14N@'
p79
tp80
Rp81
ag10
(g14
S'~\x1d\xaf\xe0\xbe\xb8N@'
p82
tp83
Rp84
ag10
(g14
S'\x01\xb5f6\x86\x13Q@'
p85
tp86
Rp87
ag10
(g14
S'\xe7\x7f\xd7\xe5\x85\x93O@'
p88
tp89
Rp90
ag10
(g14
S'\xd1\xb0\xe3\x91G\x93P@'
p91
tp92
Rp93
ag10
(g14
S'i\xd07\x96_`Q@'
p94
tp95
Rp96
ag10
(g14
S'\xf4\xf0\n\xa0\xc5 N@'
p97
tp98
Rp99
ag10
(g14
S'\x16db\n6\x9aL@'
p100
tp101
Rp102
ag10
(g14
S'rG\x8f\xaa\x96\x03R@'
p103
tp104
Rp105
ag10
(g14
S'+\x94\xee\xe2\xda"L@'
p106
tp107
Rp108
ag10
(g14
S'\x84-\xae\xb5;RN@'
p109
tp110
Rp111
ag10
(g14
S'^\xb5\xeeh\xa0\xd6K@'
p112
tp113
Rp114
ag10
(g14
S'\xdc! M\x1b7P@'
p115
tp116
Rp117
ag10
(g14
S'\x12[\xe7\xefzSP@'
p118
tp119
Rp120
ag10
(g14
S'\xef1\x95\xa2\x07\x0bR@'
p121
tp122
Rp123
ag10
(g14
S'\xc5a\x13\xd0\xa1\xd4N@'
p124
tp125
Rp126
ag10
(g14
S'\x92\xd8\xb08\x152M@'
p127
tp128
Rp129
ag10
(g14
S';\xc58=b\xc5P@'
p130
tp131
Rp132
ag10
(g14
S'\x8b\x18NN\xeePP@'
p133
tp134
Rp135
ag10
(g14
S' \xad\xbd;\xb8\x9cM@'
p136
tp137
Rp138
asssss.