(dp0
S'../Data/sqlite_52.csv'
p1
(dp2
S'../Data/sqlite_88.csv'
p3
(dp4
F0.15
(dp5
S'abs_res'
p6
(dp7
S'bellwether'
p8
(lp9
cnumpy.core.multiarray
scalar
p10
(cnumpy
dtype
p11
(S'f8'
p12
I0
I1
tp13
Rp14
(I3
S'<'
p15
NNNI-1
I-1
I0
tp16
bS'\x11\xd7\xa3DX.bA'
p17
tp18
Rp19
ag10
(g14
S'\xc8\xf5(h\xc0\x16bA'
p20
tp21
Rp22
ag10
(g14
S'\xbf\x1e\x85\xa7p5bA'
p23
tp24
Rp25
ag10
(g14
S'+\\\x8f\x02N4bA'
p26
tp27
Rp28
ag10
(g14
S'gff\xb2\x9e0bA'
p29
tp30
Rp31
ag10
(g14
S'\xedQ\xb8\xa2\xce$bA'
p32
tp33
Rp34
ag10
(g14
S'\x91\xfcbIi7bA'
p35
tp36
Rp37
ag10
(g14
S'\xa1\x99\x99=\xed\x1fbA'
p38
tp39
Rp40
ag10
(g14
S'>DDd\xf91bA'
p41
tp42
Rp43
ag10
(g14
S'\xa0\xd3\x06\xae5&bA'
p44
tp45
Rp46
ag10
(g14
S'\xfd(\\\xb7$)bA'
p47
tp48
Rp49
ag10
(g14
S'\xab\xaa\xaa.\x9f6bA'
p50
tp51
Rp52
ag10
(g14
S'\xc9/\x96\xac\x97\x1fbA'
p53
tp54
Rp55
ag10
(g14
S'\xb6\x1e\x85c\x0eMbA'
p56
tp57
Rp58
ag10
(g14
S'\xbc\x1e\x85\xef&\x15bA'
p59
tp60
Rp61
ag10
(g14
S'\xa2p=\xf2\xc8&bA'
p62
tp63
Rp64
ag10
(g14
S'mff\x06\xf1=bA'
p65
tp66
Rp67
ag10
(g14
S'MDD\xf4\xe3)bA'
p68
tp69
Rp70
ag10
(g14
S'\xecQ\xb8\xa6\x18#bA'
p71
tp72
Rp73
ag10
(g14
S'$\x85\xeb!Q&bA'
p74
tp75
Rp76
asS'target'
p77
(lp78
g10
(g14
S'gff\xa6\xc0\xdf5A'
p79
tp80
Rp81
ag10
(g14
S'\x8f\xc2\xf5\xa8|\x8c,A'
p82
tp83
Rp84
ag10
(g14
S'q=\n\x97\x94\xe21A'
p85
tp86
Rp87
ag10
(g14
S'}\x14\xaeG\x85\xe62A'
p88
tp89
Rp90
ag10
(g14
S'033\xb3bz2A'
p91
tp92
Rp93
ag10
(g14
S'\xa6p=\x8a`\xd42A'
p94
tp95
Rp96
ag10
(g14
S'\xa7p=\x8a)k5A'
p97
tp98
Rp99
ag10
(g14
S'|\x14\xae\x07\xd5\xfb3A'
p100
tp101
Rp102
ag10
(g14
S'+\\\x8f\x02\xe9\xe04A'
p103
tp104
Rp105
ag10
(g14
S'\xafG\xe1\xfa}21A'
p106
tp107
Rp108
ag10
(g14
S'\xc5\xf5(\\\x1dN.A'
p109
tp110
Rp111
ag10
(g14
S'\xb8\x1e\x85+_\xf02A'
p112
tp113
Rp114
ag10
(g14
S'\xafG\xe1\xba\xc9,0A'
p115
tp116
Rp117
ag10
(g14
S'Y\x8f\xc2\xb5\xa5\t7A'
p118
tp119
Rp120
ag10
(g14
S'\xcd\xcc\xcc\x8c "5A'
p121
tp122
Rp123
ag10
(g14
S'p=\n\x97\x94\r4A'
p124
tp125
Rp126
ag10
(g14
S'\xf8(\\\xcfi\xed4A'
p127
tp128
Rp129
ag10
(g14
S'I\xe1z\x14\xab\x05-A'
p130
tp131
Rp132
ag10
(g14
S'+\\\x8fBk\x930A'
p133
tp134
Rp135
ag10
(g14
S'hff\xa6\t\xb22A'
p136
tp137
Rp138
asssss.