(dp0
S'../Data/sqlite_15.csv'
p1
(dp2
S'../Data/sqlite_42.csv'
p3
(dp4
F0.15
(dp5
S'abs_res'
p6
(dp7
S'bellwether'
p8
(lp9
cnumpy.core.multiarray
scalar
p10
(cnumpy
dtype
p11
(S'f8'
p12
I0
I1
tp13
Rp14
(I3
S'<'
p15
NNNI-1
I-1
I0
tp16
bS'x\x12\x83p&+@A'
p17
tp18
Rp19
ag10
(g14
S'\xf7\xa7\xc6k\x8f*@A'
p20
tp21
Rp22
ag10
(g14
S'\x96\x18\x04\xa6\x80+@A'
p23
tp24
Rp25
ag10
(g14
S'\xe1$\x061\x0c+@A'
p26
tp27
Rp28
ag10
(g14
S'\x7f?5~V*@A'
p29
tp30
Rp31
ag10
(g14
S'\xd7\xf9~\nv+@A'
p32
tp33
Rp34
ag10
(g14
S'\xbaI\x0c\xc2\xfa*@A'
p35
tp36
Rp37
ag10
(g14
S'\xc8\xa1E\xe6(+@A'
p38
tp39
Rp40
ag10
(g14
S'_\xc9/\xb6\x14*@A'
p41
tp42
Rp43
ag10
(g14
S'\xd9\xea\x98\xc0\x98*@A'
p44
tp45
Rp46
ag10
(g14
S'\xd5x\xe96r*@A'
p47
tp48
Rp49
ag10
(g14
S'O\x8d\x97\x1e++@A'
p50
tp51
Rp52
ag10
(g14
S'B5^\xda\xde*@A'
p53
tp54
Rp55
ag10
(g14
S'\xdd\xdd\xdd\xbd\xb7*@A'
p56
tp57
Rp58
ag10
(g14
S']\x8f\xc2eV*@A'
p59
tp60
Rp61
ag10
(g14
S'\x9c\x99\x99i-+@A'
p62
tp63
Rp64
ag10
(g14
S'dff\xd6\xa7*@A'
p65
tp66
Rp67
ag10
(g14
S'yh\x91\xfd\xe8*@A'
p68
tp69
Rp70
ag10
(g14
S'S\xe3\xa5K\xa6+@A'
p71
tp72
Rp73
ag10
(g14
S'\xc6\x92_l\x9e*@A'
p74
tp75
Rp76
asS'target'
p77
(lp78
g10
(g14
S'%1\x08\xac\x1c\xb4h@'
p79
tp80
Rp81
ag10
(g14
S'\xd6Mb\x10X\xddg@'
p82
tp83
Rp84
ag10
(g14
S'\r-\xb2\x9d\xef{l@'
p85
tp86
Rp87
ag10
(g14
S'~\xe9&1\x08Zi@'
p88
tp89
Rp90
ag10
(g14
S'\x82\x95C\x8blsj@'
p91
tp92
Rp93
ag10
(g14
S'\xe6z\x14\xaeG\xfdf@'
p94
tp95
Rp96
ag10
(g14
S'\xd3x\xe9&1\xf8g@'
p97
tp98
Rp99
ag10
(g14
S'\xb7G\xe1z\x14\x00i@'
p100
tp101
Rp102
ag10
(g14
S'\xec\xa7\xc6K7!h@'
p103
tp104
Rp105
ag10
(g14
S'*\xb0rh\x91\xa9k@'
p106
tp107
Rp108
ag10
(g14
S'\xa8\x9b\xc4 \xb0\x92k@'
p109
tp110
Rp111
ag10
(g14
S'\xc3v\xbe\x9f\x1aGh@'
p112
tp113
Rp114
ag10
(g14
S'\x16-\xb2\x9d\xef\x9fh@'
p115
tp116
Rp117
ag10
(g14
S'uh\x91\xed|[h@'
p118
tp119
Rp120
ag10
(g14
S'\x17\xd9\xce\xf7SKk@'
p121
tp122
Rp123
ag10
(g14
S'n\x10X9\xb4\xf8j@'
p124
tp125
Rp126
ag10
(g14
S'\x00\x81\x95C\x8bTj@'
p127
tp128
Rp129
ag10
(g14
S'\x87l\xe7\xfb\xa9\x8dg@'
p130
tp131
Rp132
ag10
(g14
S'\x8b\x16\xd9\xce\xf7\x8dh@'
p133
tp134
Rp135
ag10
(g14
S'H7\x89A`=j@'
p136
tp137
Rp138
asssss.