(dp0
S'../Data/sqlite_37.csv'
p1
(dp2
S'../Data/sqlite_79.csv'
p3
(dp4
F0.3
(dp5
S'mmre'
p6
(dp7
S'bellwether'
p8
(lp9
cnumpy.core.multiarray
scalar
p10
(cnumpy
dtype
p11
(S'f8'
p12
I0
I1
tp13
Rp14
(I3
S'<'
p15
NNNI-1
I-1
I0
tp16
bS'Q{\xd6\xc2A]E@'
p17
tp18
Rp19
ag10
(g14
S'e\x8c\xa8u]PE@'
p20
tp21
Rp22
ag10
(g14
S'+\xd1\xd0\x00tXE@'
p23
tp24
Rp25
ag10
(g14
S'\xd7\xe6t7zWE@'
p26
tp27
Rp28
ag10
(g14
S'\x88\xb9\xd59#bE@'
p29
tp30
Rp31
ag10
(g14
S'\xab\xcf\xfd\x06#VE@'
p32
tp33
Rp34
ag10
(g14
S'\x99\x91E\xe8_bE@'
p35
tp36
Rp37
ag10
(g14
S'\x9c(l\xa1[WE@'
p38
tp39
Rp40
ag10
(g14
S'9e\x8a[caE@'
p41
tp42
Rp43
ag10
(g14
S'CS\r&\x07ME@'
p44
tp45
Rp46
ag10
(g14
S'\xd2\x8f\x1d)::E@'
p47
tp48
Rp49
ag10
(g14
S'\xa7\xd3\xf9\xd9\xb8pE@'
p50
tp51
Rp52
ag10
(g14
S'\xe9_\xa7f#EE@'
p53
tp54
Rp55
ag10
(g14
S'c\xd1\xb6\xddOPE@'
p56
tp57
Rp58
ag10
(g14
S'Wc0\xc0\x03_E@'
p59
tp60
Rp61
ag10
(g14
S"'V\xe1n\x8eaE@"
p62
tp63
Rp64
ag10
(g14
S'P\xf0\x9b\x13\xb5XE@'
p65
tp66
Rp67
ag10
(g14
S'\x14\x08%"_bE@'
p68
tp69
Rp70
ag10
(g14
S'\xba6\x14\x1aQWE@'
p71
tp72
Rp73
ag10
(g14
S'\xc9\x83\xf3\xb0\xec?E@'
p74
tp75
Rp76
asS'target'
p77
(lp78
g10
(g14
S'NG\xf9\xe8\x12\xcc$@'
p79
tp80
Rp81
ag10
(g14
S'\xd5\x92\x191\xb3\xd4 @'
p82
tp83
Rp84
ag10
(g14
S'\x93\x9cD\xe7\xa6\x1b!@'
p85
tp86
Rp87
ag10
(g14
S']\xe3\x0b0(\x07&@'
p88
tp89
Rp90
ag10
(g14
S'\x91\x0fo\xee)\xb5\x1d@'
p91
tp92
Rp93
ag10
(g14
S'p;\xdf`\xcd\x80 @'
p94
tp95
Rp96
ag10
(g14
S'\xed\xa7+4\x10\xce\x1a@'
p97
tp98
Rp99
ag10
(g14
S'P\x80`;\x1fd\x1c@'
p100
tp101
Rp102
ag10
(g14
S'\xffO\x94a\xb3\xba!@'
p103
tp104
Rp105
ag10
(g14
S'\xeb>J\x1e^\xa3"@'
p106
tp107
Rp108
ag10
(g14
S'U\xc1\xbad\xaa\xa1)@'
p109
tp110
Rp111
ag10
(g14
S'\xfe\xee\xb0o3:!@'
p112
tp113
Rp114
ag10
(g14
S'\xbcXE1PF"@'
p115
tp116
Rp117
ag10
(g14
S'l\xd5T\xcbn\xaf$@'
p118
tp119
Rp120
ag10
(g14
S'\x7f#\xb4\xc0\xbb+"@'
p121
tp122
Rp123
ag10
(g14
S'\xeb\xa9A\xf4\xb8J&@'
p124
tp125
Rp126
ag10
(g14
S'\x00\xc6\x0eNE\xcc\x1e@'
p127
tp128
Rp129
ag10
(g14
S'\xa0\xafu\x07n\x86\x1d@'
p130
tp131
Rp132
ag10
(g14
S'5\x91\x84\xd4CW\x1f@'
p133
tp134
Rp135
ag10
(g14
S'\xf0\x96\x15\xcf\x1c[&@'
p136
tp137
Rp138
asssss.