(dp0
S'../Data/sqlite_58.csv'
p1
(dp2
S'../Data/sqlite_86.csv'
p3
(dp4
F0.05
(dp5
S'mmre'
p6
(dp7
S'bellwether'
p8
(lp9
cnumpy.core.multiarray
scalar
p10
(cnumpy
dtype
p11
(S'f8'
p12
I0
I1
tp13
Rp14
(I3
S'<'
p15
NNNI-1
I-1
I0
tp16
bS'\x9b\xb9gS\xfchG@'
p17
tp18
Rp19
ag10
(g14
S'\ra\xc6\xb59>G@'
p20
tp21
Rp22
ag10
(g14
S'cK\xee68(G@'
p23
tp24
Rp25
ag10
(g14
S'S`D\xddA:G@'
p26
tp27
Rp28
ag10
(g14
S'\x8f\x9e\xa9\x00\xf1YG@'
p29
tp30
Rp31
ag10
(g14
S'[\x8b\xf7\xd5J:G@'
p32
tp33
Rp34
ag10
(g14
S'\xc5\xfc\x19o^\x90G@'
p35
tp36
Rp37
ag10
(g14
S'\xf2\x84D\x9d\x16WG@'
p38
tp39
Rp40
ag10
(g14
S'\xec\xac\xdf\\%<G@'
p41
tp42
Rp43
ag10
(g14
S'?\xf8+\xfd\xde3G@'
p44
tp45
Rp46
ag10
(g14
S'{\xb2\xc6\x11\x9cPG@'
p47
tp48
Rp49
ag10
(g14
S'\x03(\xae\r\xebAG@'
p50
tp51
Rp52
ag10
(g14
S'HU\xec]\xfbIG@'
p53
tp54
Rp55
ag10
(g14
S'\x90R\x8a(\xad#G@'
p56
tp57
Rp58
ag10
(g14
S'\xfd`\xe5\xcduYG@'
p59
tp60
Rp61
ag10
(g14
S'\x8c\x8f\xb6\xdbrOG@'
p62
tp63
Rp64
ag10
(g14
S'\x1e\x1d\xca\xb88MG@'
p65
tp66
Rp67
ag10
(g14
S'\xca\x87\xd7~\x80(G@'
p68
tp69
Rp70
ag10
(g14
S'\xcd\\jVF.G@'
p71
tp72
Rp73
ag10
(g14
S'!A\x0e\xbd\xec9G@'
p74
tp75
Rp76
asS'target'
p77
(lp78
g10
(g14
S'\xe0\r\xe8d\xba\xe2U@'
p79
tp80
Rp81
ag10
(g14
S'\xd6\xbe\xe30\xff\x1dT@'
p82
tp83
Rp84
ag10
(g14
S'\xb31eD.\xd4T@'
p85
tp86
Rp87
ag10
(g14
S'\nA\xda\x81\xa58B@'
p88
tp89
Rp90
ag10
(g14
S'\x81PW\xbd\xcboO@'
p91
tp92
Rp93
ag10
(g14
S'C\xd5\x1b\xe1\x88zO@'
p94
tp95
Rp96
ag10
(g14
S'\xbe\x1f8\xd6\xa4va@'
p97
tp98
Rp99
ag10
(g14
S']\xefXJ\xe8\xdcT@'
p100
tp101
Rp102
ag10
(g14
S'b\x07\x93\x04\xad\xd1F@'
p103
tp104
Rp105
ag10
(g14
S'(\xf3I\x0e\xbd\x1fI@'
p106
tp107
Rp108
ag10
(g14
S'\xb6t\xf1\xa1\xf1[U@'
p109
tp110
Rp111
ag10
(g14
S'\xf3\xa2g\x03\xd6pV@'
p112
tp113
Rp114
ag10
(g14
S'T\xa4\xea.iqS@'
p115
tp116
Rp117
ag10
(g14
S'\xbd\xae\xc5K0zK@'
p118
tp119
Rp120
ag10
(g14
S'|\x0b6\xab\x92\x1b@@'
p121
tp122
Rp123
ag10
(g14
S'O\x7fS\x12\xf1\x1eB@'
p124
tp125
Rp126
ag10
(g14
S'B{\xd9\x14\x9d\xfdO@'
p127
tp128
Rp129
ag10
(g14
S'~M\xa0s\xf3(A@'
p130
tp131
Rp132
ag10
(g14
S'hj\xf1\xccU\xe8D@'
p133
tp134
Rp135
ag10
(g14
S'8f\x98v\x98\xe2U@'
p136
tp137
Rp138
asssss.