(dp0
S'../Data/sqlite_82.csv'
p1
(dp2
S'../Data/sqlite_94.csv'
p3
(dp4
F0.2
(dp5
S'mmre'
p6
(dp7
S'bellwether'
p8
(lp9
cnumpy.core.multiarray
scalar
p10
(cnumpy
dtype
p11
(S'f8'
p12
I0
I1
tp13
Rp14
(I3
S'<'
p15
NNNI-1
I-1
I0
tp16
bS'\x1e\xf53\xebHCU@'
p17
tp18
Rp19
ag10
(g14
S'"\xf6\xf6r.=U@'
p20
tp21
Rp22
ag10
(g14
S'2\xb0*q\xa8>U@'
p23
tp24
Rp25
ag10
(g14
S'r\xc1\x9c\xf7K>U@'
p26
tp27
Rp28
ag10
(g14
S'~\x18\r\xe9\x9b@U@'
p29
tp30
Rp31
ag10
(g14
S'\x10\xb47<\x18EU@'
p32
tp33
Rp34
ag10
(g14
S'#\xd7\xa2\x94\xfb9U@'
p35
tp36
Rp37
ag10
(g14
S'\xe6\x18\xa5\xad,AU@'
p38
tp39
Rp40
ag10
(g14
S'Z\x98\xaam\x80@U@'
p41
tp42
Rp43
ag10
(g14
S'\x04\xec\xde\x86KBU@'
p44
tp45
Rp46
ag10
(g14
S'2\x9f\x858\xc3;U@'
p47
tp48
Rp49
ag10
(g14
S'*\x05ZM@=U@'
p50
tp51
Rp52
ag10
(g14
S'\x80\xc1\x81<%@U@'
p53
tp54
Rp55
ag10
(g14
S'\x10\xbb6\xbe\xab;U@'
p56
tp57
Rp58
ag10
(g14
S'\xd8\x0c9\xa6\xc9;U@'
p59
tp60
Rp61
ag10
(g14
S'\xcc\xdf%\x90TDU@'
p62
tp63
Rp64
ag10
(g14
S'\xe2pB9b>U@'
p65
tp66
Rp67
ag10
(g14
S'\xac\x11A\\\x1d<U@'
p68
tp69
Rp70
ag10
(g14
S'\x1e\xb63 \xec@U@'
p71
tp72
Rp73
ag10
(g14
S'\xc6\x02B\xe0\x94FU@'
p74
tp75
Rp76
asS'target'
p77
(lp78
g10
(g14
S'_k\xc6\x0c\xea\x0bR@'
p79
tp80
Rp81
ag10
(g14
S'!7\xe2\x91X\x1eT@'
p82
tp83
Rp84
ag10
(g14
S'\x04\xabq\x04hpR@'
p85
tp86
Rp87
ag10
(g14
S'\xfb\xf7\x84[\xbf\xf5K@'
p88
tp89
Rp90
ag10
(g14
S"\xfe\xb6 6\xdc'P@"
p91
tp92
Rp93
ag10
(g14
S'\x8f\xc0\x8fKwtU@'
p94
tp95
Rp96
ag10
(g14
S'\xbe\x9293\xfdQU@'
p97
tp98
Rp99
ag10
(g14
S'\xaa\xdc\x1e\x80\xff\xa2H@'
p100
tp101
Rp102
ag10
(g14
S'#&\xe1\x06\x97\xddL@'
p103
tp104
Rp105
ag10
(g14
S'm<]\x92\xa9CT@'
p106
tp107
Rp108
ag10
(g14
S"\x07wJ\x06'\xe3W@"
p109
tp110
Rp111
ag10
(g14
S'\n\x80\xa2\xd4\x9a\xe1P@'
p112
tp113
Rp114
ag10
(g14
S'\xe2\xb8q\xaa\xfb\xbdQ@'
p115
tp116
Rp117
ag10
(g14
S'b=J\x9cG\x81V@'
p118
tp119
Rp120
ag10
(g14
S'\xb6\x96\x07\xca\xb2\x99R@'
p121
tp122
Rp123
ag10
(g14
S'|6\x1c\x8f\xb6\xe7U@'
p124
tp125
Rp126
ag10
(g14
S'FhY\xc7\x12\xaeO@'
p127
tp128
Rp129
ag10
(g14
S'[n\xe3%]$W@'
p130
tp131
Rp132
ag10
(g14
S'\x8ef\xd5 V\xc7P@'
p133
tp134
Rp135
ag10
(g14
S'\xb9\x8bh\x1a\x8f\x8fP@'
p136
tp137
Rp138
asssss.