(dp0
S'../Data/sqlite_59.csv'
p1
(dp2
S'../Data/sqlite_94.csv'
p3
(dp4
F0.2
(dp5
S'mmre'
p6
(dp7
S'bellwether'
p8
(lp9
cnumpy.core.multiarray
scalar
p10
(cnumpy
dtype
p11
(S'f8'
p12
I0
I1
tp13
Rp14
(I3
S'<'
p15
NNNI-1
I-1
I0
tp16
bS'\xb7\xc1\xc6]\x87mW@'
p17
tp18
Rp19
ag10
(g14
S'\x02\xc9\x1b4\xcboW@'
p20
tp21
Rp22
ag10
(g14
S'\xf2g#l\xe0jW@'
p23
tp24
Rp25
ag10
(g14
S'\t\x88\xb4\x14_oW@'
p26
tp27
Rp28
ag10
(g14
S'M\x8e\x1b3ckW@'
p29
tp30
Rp31
ag10
(g14
S'Ip\xcc\x1c\xe4jW@'
p32
tp33
Rp34
ag10
(g14
S'\xf8\xf7\x1bD0lW@'
p35
tp36
Rp37
ag10
(g14
S'\x9b\x9a\x14:BrW@'
p38
tp39
Rp40
ag10
(g14
S'\x02\xc3\xdb\xa9*lW@'
p41
tp42
Rp43
ag10
(g14
S'\x1a\xd4\xde\xc8\x05oW@'
p44
tp45
Rp46
ag10
(g14
S't\xe0\xdd)4qW@'
p47
tp48
Rp49
ag10
(g14
S'\xca\xba\x07)\x86mW@'
p50
tp51
Rp52
ag10
(g14
S'>\xa50~\xcfkW@'
p53
tp54
Rp55
ag10
(g14
S'\xb2Q,\x1e\x17mW@'
p56
tp57
Rp58
ag10
(g14
S'\xe2\xe4\xab?\x9dnW@'
p59
tp60
Rp61
ag10
(g14
S'8\xc9\xa4~\xbflW@'
p62
tp63
Rp64
ag10
(g14
S'ZM\xd9\xf5\xccjW@'
p65
tp66
Rp67
ag10
(g14
S'Z\xb3\xcc\xaf\xadlW@'
p68
tp69
Rp70
ag10
(g14
S'm\x80\xea\xca\x0elW@'
p71
tp72
Rp73
ag10
(g14
S'3\xf0\xb7\xc6hpW@'
p74
tp75
Rp76
asS'target'
p77
(lp78
g10
(g14
S'(Jc\xa3\xcf\x94L@'
p79
tp80
Rp81
ag10
(g14
S'\xa4\xb1\x1d_\x9a>F@'
p82
tp83
Rp84
ag10
(g14
S'\xa2\x8dP\n:\x03W@'
p85
tp86
Rp87
ag10
(g14
S'\x16O\x8e\x93igT@'
p88
tp89
Rp90
ag10
(g14
S'&\xce\xa5<\x1c\x7fP@'
p91
tp92
Rp93
ag10
(g14
S"\xdb'&\xbd\xefJX@"
p94
tp95
Rp96
ag10
(g14
S'\x08\x81F^E\xb1H@'
p97
tp98
Rp99
ag10
(g14
S'\xb6\xa7+U\xc3\x18H@'
p100
tp101
Rp102
ag10
(g14
S'72\x02\xcddxY@'
p103
tp104
Rp105
ag10
(g14
S'\xda\x9b\xc6U%\xd8K@'
p106
tp107
Rp108
ag10
(g14
S'>A\xd5d\xea.E@'
p109
tp110
Rp111
ag10
(g14
S'~a\xdb\n\xb4\x8eF@'
p112
tp113
Rp114
ag10
(g14
S'\xd6\xfa0V,$T@'
p115
tp116
Rp117
ag10
(g14
S'\xfd\x05\xc50\xff\x1eM@'
p118
tp119
Rp120
ag10
(g14
S'\x92g_\x8e9;Y@'
p121
tp122
Rp123
ag10
(g14
S'\xae\xee\xa3\xf2\xdf\xb4V@'
p124
tp125
Rp126
ag10
(g14
S'\x89QN}\xa0"N@'
p127
tp128
Rp129
ag10
(g14
S'\x18\xddCQ\xef4L@'
p130
tp131
Rp132
ag10
(g14
S'\xc0\xffc\x7fWAS@'
p133
tp134
Rp135
ag10
(g14
S'\x19\x87o\x8akQJ@'
p136
tp137
Rp138
asssss.