(dp0
S'../Data/sqlite_50.csv'
p1
(dp2
S'../Data/sqlite_78.csv'
p3
(dp4
F0.2
(dp5
S'mmre'
p6
(dp7
S'bellwether'
p8
(lp9
cnumpy.core.multiarray
scalar
p10
(cnumpy
dtype
p11
(S'f8'
p12
I0
I1
tp13
Rp14
(I3
S'<'
p15
NNNI-1
I-1
I0
tp16
bS'd\x11[\x04\xa8GH@'
p17
tp18
Rp19
ag10
(g14
S'`"l\x82/2H@'
p20
tp21
Rp22
ag10
(g14
S'\x92\xb8/2\xbf,H@'
p23
tp24
Rp25
ag10
(g14
S'\xb0\x7ff\xe2o/H@'
p26
tp27
Rp28
ag10
(g14
S'F\x17\x9c\xad\xd59H@'
p29
tp30
Rp31
ag10
(g14
S'\xdc\xa7\xd4T\x81AH@'
p32
tp33
Rp34
ag10
(g14
S'\x1c\xa1P{{4H@'
p35
tp36
Rp37
ag10
(g14
S'9\xd48\xc0\xfd&H@'
p38
tp39
Rp40
ag10
(g14
S'\xd0d\xbb\nm9H@'
p41
tp42
Rp43
ag10
(g14
S'w\xbd+\x98\x1f\x1eH@'
p44
tp45
Rp46
ag10
(g14
S'\x12\xc0[x72H@'
p47
tp48
Rp49
ag10
(g14
S'\xc2\xcb\xde\xd9\x9e?H@'
p50
tp51
Rp52
ag10
(g14
S'|\xdcZ\xf0\xae\x1bH@'
p53
tp54
Rp55
ag10
(g14
S'\xa8M\xafO\xad*H@'
p56
tp57
Rp58
ag10
(g14
S')U\xf2\xb1\xe4+H@'
p59
tp60
Rp61
ag10
(g14
S'P\xb7\x9eT\xc4GH@'
p62
tp63
Rp64
ag10
(g14
S'\xa9\x86;\xa6\x93EH@'
p65
tp66
Rp67
ag10
(g14
S'J\xdb\x10\xd1\xd8^H@'
p68
tp69
Rp70
ag10
(g14
S'\xe8\xdf\x0c\x05\x89\x18H@'
p71
tp72
Rp73
ag10
(g14
S'\r\xc6\xb2\x8fS+H@'
p74
tp75
Rp76
asS'target'
p77
(lp78
g10
(g14
S'\xc3g\xb6"\xac\x9c2@'
p79
tp80
Rp81
ag10
(g14
S'K\xfd\x94\x7f\xd8\x973@'
p82
tp83
Rp84
ag10
(g14
S"\xb4']s\xdb~4@"
p85
tp86
Rp87
ag10
(g14
S'\x1e\xdf7\xce265@'
p88
tp89
Rp90
ag10
(g14
S'*kD\xbd\x86\xcf3@'
p91
tp92
Rp93
ag10
(g14
S'\x08\xb7\x07\x10[g3@'
p94
tp95
Rp96
ag10
(g14
S'-F\xa0\x04X\x805@'
p97
tp98
Rp99
ag10
(g14
S'\n\x9a>\xda:\xf33@'
p100
tp101
Rp102
ag10
(g14
S'bT\xe8@\x0ew3@'
p103
tp104
Rp105
ag10
(g14
S'>~?gAU4@'
p106
tp107
Rp108
ag10
(g14
S'\xde\x08\xad\xd0H\x825@'
p109
tp110
Rp111
ag10
(g14
S'\xd3~\xfbC\n\x064@'
p112
tp113
Rp114
ag10
(g14
S'\\\x16\x8b\xc0\x97\xa34@'
p115
tp116
Rp117
ag10
(g14
S'\x0c7\xec\xa3\x19|5@'
p118
tp119
Rp120
ag10
(g14
S'0\x8df\xb4\x1b23@'
p121
tp122
Rp123
ag10
(g14
S'\x83\xcf\x1b\xcb\x8c;3@'
p124
tp125
Rp126
ag10
(g14
S'P\xda\xb5\xbfhL2@'
p127
tp128
Rp129
ag10
(g14
S'\x02\nuQ!\xe01@'
p130
tp131
Rp132
ag10
(g14
S'7\xc7s\xc2\xc7)4@'
p133
tp134
Rp135
ag10
(g14
S'\x7f\xf8\x9eZC\x014@'
p136
tp137
Rp138
asssss.