(dp0
S'../Data/sqlite_26.csv'
p1
(dp2
S'../Data/sqlite_97.csv'
p3
(dp4
F0.15
(dp5
S'mmre'
p6
(dp7
S'bellwether'
p8
(lp9
cnumpy.core.multiarray
scalar
p10
(cnumpy
dtype
p11
(S'f8'
p12
I0
I1
tp13
Rp14
(I3
S'<'
p15
NNNI-1
I-1
I0
tp16
bS'\xab\xc7\xf3\xe4\xbe36@'
p17
tp18
Rp19
ag10
(g14
S'\xef\x06\xb5#f\xaa6@'
p20
tp21
Rp22
ag10
(g14
S'U|;\xb32\x9f6@'
p23
tp24
Rp25
ag10
(g14
S"\xd2\xcc\xa0\xb0'\x956@"
p26
tp27
Rp28
ag10
(g14
S'\r\xb0]u\x8f$6@'
p29
tp30
Rp31
ag10
(g14
S'\xd5\x15\\6\xbcK6@'
p32
tp33
Rp34
ag10
(g14
S'S\xa3\x05\x90\x14W6@'
p35
tp36
Rp37
ag10
(g14
S'\xef03\xc7,\xc46@'
p38
tp39
Rp40
ag10
(g14
S'\x96\xa4x\x0b\rg6@'
p41
tp42
Rp43
ag10
(g14
S'^HhM#x6@'
p44
tp45
Rp46
ag10
(g14
S'\xaa\xce\xccM`\x8b6@'
p47
tp48
Rp49
ag10
(g14
S'"\'\xb53\xd1\x117@'
p50
tp51
Rp52
ag10
(g14
S'\xab\xf2\x89k\xe8\xa46@'
p53
tp54
Rp55
ag10
(g14
S'\xa0\xa4mH\x7f\xb46@'
p56
tp57
Rp58
ag10
(g14
S'Ye\x8ca\xa2\x8a6@'
p59
tp60
Rp61
ag10
(g14
S'\xb1\xda\xeb>Q\xea6@'
p62
tp63
Rp64
ag10
(g14
S'\xb2\xec\xde\x94\x0ba6@'
p65
tp66
Rp67
ag10
(g14
S'<M\xd3A\xc6\x906@'
p68
tp69
Rp70
ag10
(g14
S'6\xd1@\rT#6@'
p71
tp72
Rp73
ag10
(g14
S'\xccX\xa7%\xb6c6@'
p74
tp75
Rp76
asS'target'
p77
(lp78
g10
(g14
S'\x94\xc7\xd7^z\xccP@'
p79
tp80
Rp81
ag10
(g14
S'\xdbh\x9eIT;J@'
p82
tp83
Rp84
ag10
(g14
S'{\xed\xa9^\xb6\x13P@'
p85
tp86
Rp87
ag10
(g14
S'`<\xf0Kw\xc6M@'
p88
tp89
Rp90
ag10
(g14
S'iwr\x15\xd7eS@'
p91
tp92
Rp93
ag10
(g14
S'\x81\xdcB\t-\x1a[@'
p94
tp95
Rp96
ag10
(g14
S'u\x94&\xb4\x8cdX@'
p97
tp98
Rp99
ag10
(g14
S'}t\x1f\xcf\x04\xaeQ@'
p100
tp101
Rp102
ag10
(g14
S'\xa5\xb3s\xd5\xde<Y@'
p103
tp104
Rp105
ag10
(g14
S'Yl\xdd\xdb\xc1\xcfM@'
p106
tp107
Rp108
ag10
(g14
S'\xa2\x0b\xdb*v\x90N@'
p109
tp110
Rp111
ag10
(g14
S'\xa4#tv\x1f\xd1N@'
p112
tp113
Rp114
ag10
(g14
S'\x9c\x83\xd3\x9e9oP@'
p115
tp116
Rp117
ag10
(g14
S'\x82v\xa1\x0f\x12\x03T@'
p118
tp119
Rp120
ag10
(g14
S'\xb5j\x0e[+\xc0S@'
p121
tp122
Rp123
ag10
(g14
S'\xeeZ48\xf36S@'
p124
tp125
Rp126
ag10
(g14
S'-iX\x0c93U@'
p127
tp128
Rp129
ag10
(g14
S'\xde0\x0c\xfa\x96~L@'
p130
tp131
Rp132
ag10
(g14
S"<?8\xd6'\x00T@"
p133
tp134
Rp135
ag10
(g14
S'\xd4\xb6?\xdc\xb6jS@'
p136
tp137
Rp138
asssss.