(dp0
S'../Data/sqlite_60.csv'
p1
(dp2
S'../Data/sqlite_34.csv'
p3
(dp4
F0.15
(dp5
S'abs_res'
p6
(dp7
S'bellwether'
p8
(lp9
cnumpy.core.multiarray
scalar
p10
(cnumpy
dtype
p11
(S'f8'
p12
I0
I1
tp13
Rp14
(I3
S'<'
p15
NNNI-1
I-1
I0
tp16
bS'%\\\x8f\x82\x1c1hA'
p17
tp18
Rp19
ag10
(g14
S'N7\x89Q\xf94hA'
p20
tp21
Rp22
ag10
(g14
S'duL\xac\x022hA'
p23
tp24
Rp25
ag10
(g14
S'\xb5I\x0c\xfa\xdb.hA'
p26
tp27
Rp28
ag10
(g14
S'\x98\x18\x04B6:hA'
p29
tp30
Rp31
ag10
(g14
S'3m\xa0{\xc32hA'
p32
tp33
Rp34
ag10
(g14
S'\xe9|?\x8d\xdb7hA'
p35
tp36
Rp37
ag10
(g14
S'\xad\x1cZl\x8b4hA'
p38
tp39
Rp40
ag10
(g14
S'<5^\xfaZ3hA'
p41
tp42
Rp43
ag10
(g14
S'\xed\xdf\x08Q<7hA'
p44
tp45
Rp46
ag10
(g14
S' \x85\xebQ\r3hA'
p47
tp48
Rp49
ag10
(g14
S'\xdf\xce\xf7+\\-hA'
p50
tp51
Rp52
ag10
(g14
S'Xs!\xc9 *hA'
p53
tp54
Rp55
ag10
(g14
S'\x0b\x90{y3.hA'
p56
tp57
Rp58
ag10
(g14
S'\xc0 \xb0\x12\xd4(hA'
p59
tp60
Rp61
ag10
(g14
S'\xe2\x96\xb5\xbe\xc8)hA'
p62
tp63
Rp64
ag10
(g14
S'\xf1S\xe3i.+hA'
p65
tp66
Rp67
ag10
(g14
S'\xaf\x81N[91hA'
p68
tp69
Rp70
ag10
(g14
S'P\xb8\x1e\xddA2hA'
p71
tp72
Rp73
ag10
(g14
S'@\xb6\xf3U`,hA'
p74
tp75
Rp76
asS'target'
p77
(lp78
g10
(g14
S'n\xbct\x93\x18\xcep@'
p79
tp80
Rp81
ag10
(g14
S'\xe3Q\xb8\x1e\x85in@'
p82
tp83
Rp84
ag10
(g14
S'\x0f\xaeG\xe1z\x08m@'
p85
tp86
Rp87
ag10
(g14
S'V\xb8\x1e\x85\xeb]m@'
p88
tp89
Rp90
ag10
(g14
S'hffff\xa8o@'
p91
tp92
Rp93
ag10
(g14
S'\xcd\xa3p=\n\x9fm@'
p94
tp95
Rp96
ag10
(g14
S'\xe4\xa5\x9b\xc4 \xd0m@'
p97
tp98
Rp99
ag10
(g14
S'\xc4K7\x89A\xccm@'
p100
tp101
Rp102
ag10
(g14
S'X\x0e-\xb2\x9dkl@'
p103
tp104
Rp105
ag10
(g14
S'\xbb\x1e\x85\xebQ\xf0m@'
p106
tp107
Rp108
ag10
(g14
S'g;\xdfO\x8d\xdbm@'
p109
tp110
Rp111
ag10
(g14
S'\xab\x1cZd;\x07q@'
p112
tp113
Rp114
ag10
(g14
S'\xe6\xa5\x9b\xc4 \xa0m@'
p115
tp116
Rp117
ag10
(g14
S'P\xb8\x1e\x85\xeb}l@'
p118
tp119
Rp120
ag10
(g14
S'\xd5\xf7S\xe3\xa5\x87q@'
p121
tp122
Rp123
ag10
(g14
S'\xe4Q\xb8\x1e\x85\xbdl@'
p124
tp125
Rp126
ag10
(g14
S'\xb7\x9f\x1a/\xdd\xe2l@'
p127
tp128
Rp129
ag10
(g14
S'\x8c\x99\x99\x99\x99\xfdm@'
p130
tp131
Rp132
ag10
(g14
S'b\x8f\xc2\xf5(\x0co@'
p133
tp134
Rp135
ag10
(g14
S'\xcf"\xdb\xf9~>k@'
p136
tp137
Rp138
asssss.