(dp0
S'../Data/sqlite_15.csv'
p1
(dp2
S'../Data/sqlite_33.csv'
p3
(dp4
F0.1
(dp5
S'abs_res'
p6
(dp7
S'bellwether'
p8
(lp9
cnumpy.core.multiarray
scalar
p10
(cnumpy
dtype
p11
(S'f8'
p12
I0
I1
tp13
Rp14
(I3
S'<'
p15
NNNI-1
I-1
I0
tp16
bS'\xe7\xa5\x9b\xc4\x05!AA'
p17
tp18
Rp19
ag10
(g14
S'\xa9\x9b\xc4 \x1c!AA'
p20
tp21
Rp22
ag10
(g14
S'/\xb2\x9d\x1fR!AA'
p23
tp24
Rp25
ag10
(g14
S'\xf7\xd2M\xa2\x0e!AA'
p26
tp27
Rp28
ag10
(g14
S'as!9\xc5 AA'
p29
tp30
Rp31
ag10
(g14
S'\x92A`\xd5\x05!AA'
p32
tp33
Rp34
ag10
(g14
S'n\xa0\xd3F1!AA'
p35
tp36
Rp37
ag10
(g14
S'4\xdd$vu!AA'
p38
tp39
Rp40
ag10
(g14
S'a\x10X\x89M!AA'
p41
tp42
Rp43
ag10
(g14
S'\x8bA`%\xc7 AA'
p44
tp45
Rp46
ag10
(g14
S'\x93l\xe7\x8b\xfa AA'
p47
tp48
Rp49
ag10
(g14
S'l\xbctc\xcb AA'
p50
tp51
Rp52
ag10
(g14
S'\xaa\xc6K\xf7/!AA'
p53
tp54
Rp55
ag10
(g14
S'0\\\x8f2e!AA'
p56
tp57
Rp58
ag10
(g14
S'v!i\xea\xaa!AA'
p59
tp60
Rp61
ag10
(g14
S'o\xe7\xfb\xa90!AA'
p62
tp63
Rp64
ag10
(g14
S'e\x1f>\x03\xc9 AA'
p65
tp66
Rp67
ag10
(g14
S"'\xb0r(*!AA"
p68
tp69
Rp70
ag10
(g14
S'\x0ee\xf4F\x18!AA'
p71
tp72
Rp73
ag10
(g14
S'\xc1t\x93\xa8g!AA'
p74
tp75
Rp76
asS'target'
p77
(lp78
g10
(g14
S'\x02+\x87\x16\xd9&R@'
p79
tp80
Rp81
ag10
(g14
S'\x02+\x87\x16\xd9\xceO@'
p82
tp83
Rp84
ag10
(g14
S'\x8c\x97n\x12\x83(R@'
p85
tp86
Rp87
ag10
(g14
S'\x9e\x1a/\xdd$nP@'
p88
tp89
Rp90
ag10
(g14
S'@\xb6\xf3\xfd\xd4\xf0L@'
p91
tp92
Rp93
ag10
(g14
S'\xb8\xc8v\xbe\x9f\x1aP@'
p94
tp95
Rp96
ag10
(g14
S'\x16Zd;\xdf/L@'
p97
tp98
Rp99
ag10
(g14
S':`\xe5\xd0"\xabP@'
p100
tp101
Rp102
ag10
(g14
S'\x8ej\xbct\x938O@'
p103
tp104
Rp105
ag10
(g14
S'U9\xb4\xc8v\xeeL@'
p106
tp107
Rp108
ag10
(g14
S'\xd4"\xdb\xf9~bT@'
p109
tp110
Rp111
ag10
(g14
S'.\x87\x16\xd9\xce\xd7O@'
p112
tp113
Rp114
ag10
(g14
S'\x92\x16\xd9\xce\xf7sO@'
p115
tp116
Rp117
ag10
(g14
S'\xafp=\n\xd7\xfbS@'
p118
tp119
Rp120
ag10
(g14
S'\xfb(\\\x8f\xc2UL@'
p121
tp122
Rp123
ag10
(g14
S'\xb8\xf5(\\\x8fBN@'
p124
tp125
Rp126
ag10
(g14
S'\xb0\xc8v\xbe\x9fzN@'
p127
tp128
Rp129
ag10
(g14
S'dd;\xdfOmT@'
p130
tp131
Rp132
ag10
(g14
S'\xa8\x1cZd;\xf7P@'
p133
tp134
Rp135
ag10
(g14
S'q\xbaI\x0c\x02\xcbN@'
p136
tp137
Rp138
asssss.