(dp0
S'../Data/sqlite_88.csv'
p1
(dp2
S'../Data/sqlite_42.csv'
p3
(dp4
F0.3
(dp5
S'abs_res'
p6
(dp7
S'bellwether'
p8
(lp9
cnumpy.core.multiarray
scalar
p10
(cnumpy
dtype
p11
(S'f8'
p12
I0
I1
tp13
Rp14
(I3
S'<'
p15
NNNI-1
I-1
I0
tp16
bS'\xa6\xc6K\x9f\x0e"_A'
p17
tp18
Rp19
ag10
(g14
S"\xc2t\x93\xb8\x8f'_A"
p20
tp21
Rp22
ag10
(g14
S'H\x8blg>\x1b_A'
p23
tp24
Rp25
ag10
(g14
S'i;\xdf\xa7``_A'
p26
tp27
Rp28
ag10
(g14
S'\x12\x04V\xde_\x06_A'
p29
tp30
Rp31
ag10
(g14
S'J`\xe5h\xe3C_A'
p32
tp33
Rp34
ag10
(g14
S'\xbf\x9f\x1a?\x18%_A'
p35
tp36
Rp37
ag10
(g14
S'\xa4\x1a/\x8d\xa03_A'
p38
tp39
Rp40
ag10
(g14
S'\xbd\xf3\xfd\x8cqB_A'
p41
tp42
Rp43
ag10
(g14
S'J\x8blo\x07\xf1^A'
p44
tp45
Rp46
ag10
(g14
S'\xf3\xd2Mzh&_A'
p47
tp48
Rp49
ag10
(g14
S'\xf2|?\xb5\xce\xf3^A'
p50
tp51
Rp52
ag10
(g14
S'7^\xbaa\xe8G_A'
p53
tp54
Rp55
ag10
(g14
S'/\xdd$\x1e\x07D_A'
p56
tp57
Rp58
ag10
(g14
S'X\xe3\xa5\x1b \x1d_A'
p59
tp60
Rp61
ag10
(g14
S'Q\xe3\xa5S31_A'
p62
tp63
Rp64
ag10
(g14
S'\xd0\xf7S\x9be\xd7^A'
p65
tp66
Rp67
ag10
(g14
S'\xc1\xca\xa1\xb5Z\x00_A'
p68
tp69
Rp70
ag10
(g14
S'533\x13\x8d"_A'
p71
tp72
Rp73
ag10
(g14
S'!/\xddlr"_A'
p74
tp75
Rp76
asS'target'
p77
(lp78
g10
(g14
S'\xfb\x80\x95C\x8b4c@'
p79
tp80
Rp81
ag10
(g14
S'A\xdfO\x8d\x97\x86d@'
p82
tp83
Rp84
ag10
(g14
S'\x92\xc2\xf5(\\)d@'
p85
tp86
Rp87
ag10
(g14
S'\xa3\x1a/\xdd$\x8ad@'
p88
tp89
Rp90
ag10
(g14
S'\xba\xf1\xd2Mb`d@'
p91
tp92
Rp93
ag10
(g14
S'U\xb8\x1e\x85\xebye@'
p94
tp95
Rp96
ag10
(g14
S'v\xbe\x9f\x1a/\xb1d@'
p97
tp98
Rp99
ag10
(g14
S'>`\xe5\xd0"#f@'
p100
tp101
Rp102
ag10
(g14
S'i;\xdfO\x8d\x83e@'
p103
tp104
Rp105
ag10
(g14
S'I\xb8\x1e\x85\xeb\x8fc@'
p106
tp107
Rp108
ag10
(g14
S'\x9e\x1a/\xdd$\xf4c@'
p109
tp110
Rp111
ag10
(g14
S'\xaarh\x91\xed\nf@'
p112
tp113
Rp114
ag10
(g14
S'+1\x08\xac\x1c\xe4c@'
p115
tp116
Rp117
ag10
(g14
S'_\x8f\xc2\xf5(pd@'
p118
tp119
Rp120
ag10
(g14
S'\xf1|?5^nd@'
p121
tp122
Rp123
ag10
(g14
S'!\x85\xebQ\xb8Ne@'
p124
tp125
Rp126
ag10
(g14
S'\xb3\xc8v\xbe\x9f\x82d@'
p127
tp128
Rp129
ag10
(g14
S'\x15\xd9\xce\xf7S\xd3e@'
p130
tp131
Rp132
ag10
(g14
S'1\xdd$\x06\x81\rc@'
p133
tp134
Rp135
ag10
(g14
S'\xa8\x1cZd;\xa7e@'
p136
tp137
Rp138
asssss.