(dp0
S'../Data/sqlite_4.csv'
p1
(dp2
S'../Data/sqlite_42.csv'
p3
(dp4
F0.4
(dp5
S'abs_res'
p6
(dp7
S'bellwether'
p8
(lp9
cnumpy.core.multiarray
scalar
p10
(cnumpy
dtype
p11
(S'f8'
p12
I0
I1
tp13
Rp14
(I3
S'<'
p15
NNNI-1
I-1
I0
tp16
bS'}\x86]\x81.]7A'
p17
tp18
Rp19
ag10
(g14
S'\xedB\xd2\x14(\\7A'
p20
tp21
Rp22
ag10
(g14
S'\xf9\x1b\xa1\xac\x1cY7A'
p23
tp24
Rp25
ag10
(g14
S'>\x8bl\xe78Z7A'
p26
tp27
Rp28
ag10
(g14
S'?`\xe5p\x15]7A'
p29
tp30
Rp31
ag10
(g14
S'\xe8\x89\xfa\xb7-Z7A'
p32
tp33
Rp34
ag10
(g14
S'h=\n\xb7\xc8[7A'
p35
tp36
Rp37
ag10
(g14
S'D\xc3\xae\x80\x89Y7A'
p38
tp39
Rp40
ag10
(g14
S'>Q\xffF\xffZ7A'
p41
tp42
Rp43
ag10
(g14
S'\xc1\xe6B\xf2\x12[7A'
p44
tp45
Rp46
ag10
(g14
S'\x90\x8a\xb3O\x8fZ7A'
p47
tp48
Rp49
ag10
(g14
S'c\x01r\xef\x9d[7A'
p50
tp51
Rp52
ag10
(g14
S'*>\xc3\xae|[7A'
p53
tp54
Rp55
ag10
(g14
S'\xf7\xff\xff\xffPZ7A'
p56
tp57
Rp58
ag10
(g14
S'f,\xf9\xe5\xdd[7A'
p59
tp60
Rp61
ag10
(g14
S'(\x15g_\xd5[7A'
p62
tp63
Rp64
ag10
(g14
S'\x8e\x88\x88(BZ7A'
p65
tp66
Rp67
ag10
(g14
S'(\xa3\xb7%\xaa]7A'
p68
tp69
Rp70
ag10
(g14
S'l\xad\x8eI4[7A'
p71
tp72
Rp73
ag10
(g14
S'H|\x86\xbd\xde[7A'
p74
tp75
Rp76
asS'target'
p77
(lp78
g10
(g14
S'\\\x8f\xc2\xf5(\xeaa@'
p79
tp80
Rp81
ag10
(g14
S'\x05\xd7\xa3p=Vb@'
p82
tp83
Rp84
ag10
(g14
S'\rX9\xb4\xc8\xc6a@'
p85
tp86
Rp87
ag10
(g14
S'\x9d\xef\xa7\xc6K\x13b@'
p88
tp89
Rp90
ag10
(g14
S'Xd;\xdfO\xa1`@'
p91
tp92
Rp93
ag10
(g14
S'\xb1\x9d\xef\xa7\xc6\xf3`@'
p94
tp95
Rp96
ag10
(g14
S'\n\xd7\xa3p=\xc2b@'
p97
tp98
Rp99
ag10
(g14
S'=5^\xbaI\xf4a@'
p100
tp101
Rp102
ag10
(g14
S'\xe3z\x14\xaeG\x15b@'
p103
tp104
Rp105
ag10
(g14
S'O7\x89A`\xed`@'
p106
tp107
Rp108
ag10
(g14
S'\xea&1\x08\xac\xa4`@'
p109
tp110
Rp111
ag10
(g14
S'\xc0t\x93\x18\x04da@'
p112
tp113
Rp114
ag10
(g14
S'\x8cA`\xe5\xd0\xde`@'
p115
tp116
Rp117
ag10
(g14
S'\x93C\x8bl\xe7\ra@'
p118
tp119
Rp120
ag10
(g14
S'N\xb8\x1e\x85\xeb\x17b@'
p121
tp122
Rp123
ag10
(g14
S':\n\xd7\xa3p\xf3`@'
p124
tp125
Rp126
ag10
(g14
S'\xe5\xa7\xc6K7\x0bc@'
p127
tp128
Rp129
ag10
(g14
S'\xdb\xce\xf7S\xe3K`@'
p130
tp131
Rp132
ag10
(g14
S'g;\xdfO\x8d\xe9`@'
p133
tp134
Rp135
ag10
(g14
S'?\x8bl\xe7\xfbma@'
p136
tp137
Rp138
asssss.