(dp0
S'../Data/sqlite_45.csv'
p1
(dp2
S'../Data/sqlite_96.csv'
p3
(dp4
F0.2
(dp5
S'mmre'
p6
(dp7
S'bellwether'
p8
(lp9
cnumpy.core.multiarray
scalar
p10
(cnumpy
dtype
p11
(S'f8'
p12
I0
I1
tp13
Rp14
(I3
S'<'
p15
NNNI-1
I-1
I0
tp16
bS'\xa0\x9c={)CR@'
p17
tp18
Rp19
ag10
(g14
S'\xca\tF\xbd6PR@'
p20
tp21
Rp22
ag10
(g14
S'HL4h\x81;R@'
p23
tp24
Rp25
ag10
(g14
S'\x89\xed7\x01\xb45R@'
p26
tp27
Rp28
ag10
(g14
S'uL\x8c\xe5\x99KR@'
p29
tp30
Rp31
ag10
(g14
S'\xc3G\x92\xf1\x839R@'
p32
tp33
Rp34
ag10
(g14
S'2\xa5\x0f$\xa8LR@'
p35
tp36
Rp37
ag10
(g14
S'$f\x7f\xe2/GR@'
p38
tp39
Rp40
ag10
(g14
S'\xfed1\xfa\xda=R@'
p41
tp42
Rp43
ag10
(g14
S'F\xce\x98s\xc1IR@'
p44
tp45
Rp46
ag10
(g14
S'h\x00\xd5\x01\x87ER@'
p47
tp48
Rp49
ag10
(g14
S'YL\xbaRMQR@'
p50
tp51
Rp52
ag10
(g14
S'XS;\x89\xcd:R@'
p53
tp54
Rp55
ag10
(g14
S'\xac=?\x85N8R@'
p56
tp57
Rp58
ag10
(g14
S'\xe2\xdc]\xed\xf2>R@'
p59
tp60
Rp61
ag10
(g14
S'\x83VO\\\x97GR@'
p62
tp63
Rp64
ag10
(g14
S'\xb4\xa8\xe1\xe2\x1cJR@'
p65
tp66
Rp67
ag10
(g14
S'\x8e\xadi>wAR@'
p68
tp69
Rp70
ag10
(g14
S'Hh\x16\x01\xcbHR@'
p71
tp72
Rp73
ag10
(g14
S'\xaaq7\xbd\x82=R@'
p74
tp75
Rp76
asS'target'
p77
(lp78
g10
(g14
S'2\xfdO-\x8dRU@'
p79
tp80
Rp81
ag10
(g14
S'\xdf\xda\xd8+\x0f\x9eR@'
p82
tp83
Rp84
ag10
(g14
S'0\x18+\x87\xf59Z@'
p85
tp86
Rp87
ag10
(g14
S'p)\xc20\x02\xa5Y@'
p88
tp89
Rp90
ag10
(g14
S'\xe4\xaf\xffI\xa3\xcfY@'
p91
tp92
Rp93
ag10
(g14
S'`\x89t\t\x94\xb5U@'
p94
tp95
Rp96
ag10
(g14
S'\x9a\x9b\x1e^\xf1\xd5S@'
p97
tp98
Rp99
ag10
(g14
S'\xef\xa3\xb1(\n\xedQ@'
p100
tp101
Rp102
ag10
(g14
S'\x92\x86\x8b>\xa69T@'
p103
tp104
Rp105
ag10
(g14
S'\x03\xc6N\x82\xa9\xeeV@'
p106
tp107
Rp108
ag10
(g14
S'>\x10\xa3\x02\x19\xc3Z@'
p109
tp110
Rp111
ag10
(g14
S'S\xc6*\xe7w G@'
p112
tp113
Rp114
ag10
(g14
S'\x9f\x18\xd9(1\xe5V@'
p115
tp116
Rp117
ag10
(g14
S'\xb03\xd3\xf3\xc5\x8dZ@'
p118
tp119
Rp120
ag10
(g14
S'H`\xae\xd9\xc8\x98N@'
p121
tp122
Rp123
ag10
(g14
S')Jw\x84\xcf\xd0[@'
p124
tp125
Rp126
ag10
(g14
S'\xc5\x15\x0f\xb8\x1dnN@'
p127
tp128
Rp129
ag10
(g14
S'vzLh\xf1\xa5S@'
p130
tp131
Rp132
ag10
(g14
S'\xacYh|$\xedG@'
p133
tp134
Rp135
ag10
(g14
S'{\xda\xc35S\xc4X@'
p136
tp137
Rp138
asssss.