(dp0
S'../Data/sqlite_16.csv'
p1
(dp2
S'../Data/sqlite_96.csv'
p3
(dp4
F0.25
(dp5
S'mmre'
p6
(dp7
S'bellwether'
p8
(lp9
cnumpy.core.multiarray
scalar
p10
(cnumpy
dtype
p11
(S'f8'
p12
I0
I1
tp13
Rp14
(I3
S'<'
p15
NNNI-1
I-1
I0
tp16
bS'F\x1fd#2LW@'
p17
tp18
Rp19
ag10
(g14
S'\x04E4\xfc6LW@'
p20
tp21
Rp22
ag10
(g14
S'XT\xc36\x83LW@'
p23
tp24
Rp25
ag10
(g14
S'\x18\x92`/HKW@'
p26
tp27
Rp28
ag10
(g14
S'f\x89EwaIW@'
p29
tp30
Rp31
ag10
(g14
S'v(\xcb\xefqLW@'
p32
tp33
Rp34
ag10
(g14
S'\xfa\xa8x\x84ZOW@'
p35
tp36
Rp37
ag10
(g14
S'\r\xaev\xe7\xdfOW@'
p38
tp39
Rp40
ag10
(g14
S'\x8f\x11\xbc\x80\xb0LW@'
p41
tp42
Rp43
ag10
(g14
S'\xe4S\x1d\xaf\x8fNW@'
p44
tp45
Rp46
ag10
(g14
S'\xfc\x9aT\xa9!JW@'
p47
tp48
Rp49
ag10
(g14
S'\xe4}3D\xfbLW@'
p50
tp51
Rp52
ag10
(g14
S'\x809,\xe0\x89OW@'
p53
tp54
Rp55
ag10
(g14
S'}|Y\x1b\xe8OW@'
p56
tp57
Rp58
ag10
(g14
S'~\x95,x\xbaLW@'
p59
tp60
Rp61
ag10
(g14
S'\xf4\x1c=6\xf3KW@'
p62
tp63
Rp64
ag10
(g14
S'\xcd,*\x80\x9dKW@'
p65
tp66
Rp67
ag10
(g14
S'\xd3\xdc\xfc\x15\xe0KW@'
p68
tp69
Rp70
ag10
(g14
S'x\xb5w\xbe2PW@'
p71
tp72
Rp73
ag10
(g14
S'i\xdb\xaaq\xe9JW@'
p74
tp75
Rp76
asS'target'
p77
(lp78
g10
(g14
S'N^V2\xa4\xfdK@'
p79
tp80
Rp81
ag10
(g14
S'\xe2\xb9R\xea{\nS@'
p82
tp83
Rp84
ag10
(g14
S'\xe1\xc0\x97\xdaB0Q@'
p85
tp86
Rp87
ag10
(g14
S'd)\xc5\xa25\x95W@'
p88
tp89
Rp90
ag10
(g14
S'\xe2\x97\x88\x96\xba\x87[@'
p91
tp92
Rp93
ag10
(g14
S'D\xbdB\x0bcbP@'
p94
tp95
Rp96
ag10
(g14
S'1\xfc\x14o\x95\x0bR@'
p97
tp98
Rp99
ag10
(g14
S'\xdb/\x0e\xc0=yS@'
p100
tp101
Rp102
ag10
(g14
S'\xcd\x1f\xc79\xba\x11V@'
p103
tp104
Rp105
ag10
(g14
S'\x07Af\xa2\n9Q@'
p106
tp107
Rp108
ag10
(g14
S'\x9a\x9fMOF\xa4U@'
p109
tp110
Rp111
ag10
(g14
S'\xf0\xef\xca\x90\x11\x9eP@'
p112
tp113
Rp114
ag10
(g14
S'\xce\x84\xae\xf3K\xb5I@'
p115
tp116
Rp117
ag10
(g14
S'\x16\xbd+\xfd\\qO@'
p118
tp119
Rp120
ag10
(g14
S'\x07\xd6\xaf/F\x06Q@'
p121
tp122
Rp123
ag10
(g14
S'\x02\xfa\xeb\x13"\xa2S@'
p124
tp125
Rp126
ag10
(g14
S'y\x9a\x04\xb67\xaeK@'
p127
tp128
Rp129
ag10
(g14
S'\x12\x04\x0f\xa4\xb9\xa1O@'
p130
tp131
Rp132
ag10
(g14
S'\x11 \x1es\xcb\xa1Q@'
p133
tp134
Rp135
ag10
(g14
S'Lj&\xa8\xb2TR@'
p136
tp137
Rp138
asssss.