(dp0
S'../Data/sqlite_36.csv'
p1
(dp2
S'../Data/sqlite_96.csv'
p3
(dp4
F0.3
(dp5
S'mmre'
p6
(dp7
S'bellwether'
p8
(lp9
cnumpy.core.multiarray
scalar
p10
(cnumpy
dtype
p11
(S'f8'
p12
I0
I1
tp13
Rp14
(I3
S'<'
p15
NNNI-1
I-1
I0
tp16
bS'?\x91\x9e\xb2o0W@'
p17
tp18
Rp19
ag10
(g14
S'\x95*y\xbbr.W@'
p20
tp21
Rp22
ag10
(g14
S'\xee\x906\xa0\x91+W@'
p23
tp24
Rp25
ag10
(g14
S'$\x0e\x9bO\xd1*W@'
p26
tp27
Rp28
ag10
(g14
S'z\xde\x08u\x852W@'
p29
tp30
Rp31
ag10
(g14
S'@\xb0Z\xc4\t3W@'
p32
tp33
Rp34
ag10
(g14
S'\xf5\xa9x,b(W@'
p35
tp36
Rp37
ag10
(g14
S'\xb1W\xc7\xf2\xac/W@'
p38
tp39
Rp40
ag10
(g14
S'\x1czwP--W@'
p41
tp42
Rp43
ag10
(g14
S'\xbd{\x93\x8b\xb4,W@'
p44
tp45
Rp46
ag10
(g14
S'\x00ty\xcf\x18-W@'
p47
tp48
Rp49
ag10
(g14
S'\xbc\x9f\xe6\xfe\x94-W@'
p50
tp51
Rp52
ag10
(g14
S'K\x05\xe9\xac\xda-W@'
p53
tp54
Rp55
ag10
(g14
S'"4\xfbY{)W@'
p56
tp57
Rp58
ag10
(g14
S'\xfe8\xeaF\x14-W@'
p59
tp60
Rp61
ag10
(g14
S'\x03\xd0Q\xe1k+W@'
p62
tp63
Rp64
ag10
(g14
S'#GW\xfb\x04*W@'
p65
tp66
Rp67
ag10
(g14
S'B%H]\xe4/W@'
p68
tp69
Rp70
ag10
(g14
S'.[\xc8$\xa80W@'
p71
tp72
Rp73
ag10
(g14
S"\x9e'\xd3\x0050W@"
p74
tp75
Rp76
asS'target'
p77
(lp78
g10
(g14
S'\xf6*e\x8cQ\\T@'
p79
tp80
Rp81
ag10
(g14
S'\xea\xa1i\x8f>GS@'
p82
tp83
Rp84
ag10
(g14
S'\x14?\x99\t\xe9i`@'
p85
tp86
Rp87
ag10
(g14
S'\x178\x84v\xfe\xc8Y@'
p88
tp89
Rp90
ag10
(g14
S'l\x88\xa0\xd2\x98\x98S@'
p91
tp92
Rp93
ag10
(g14
S'\xf2,\x9c\x02\x0fcG@'
p94
tp95
Rp96
ag10
(g14
S'\xfbM\x899\x1f\x88Y@'
p97
tp98
Rp99
ag10
(g14
S'~Q\xe7W;kQ@'
p100
tp101
Rp102
ag10
(g14
S'8UD\xa9\xdeJV@'
p103
tp104
Rp105
ag10
(g14
S"'\xda\xdeUA\x8eP@"
p106
tp107
Rp108
ag10
(g14
S'\xa6O\x10N\x9d:Q@'
p109
tp110
Rp111
ag10
(g14
S'\xe9\xe2\xb8N\xc0\xd7P@'
p112
tp113
Rp114
ag10
(g14
S'\xa1[AU\x88WU@'
p115
tp116
Rp117
ag10
(g14
S'qy,\xfe\xdf\x97T@'
p118
tp119
Rp120
ag10
(g14
S'm\xb5 \xc1}\xb5S@'
p121
tp122
Rp123
ag10
(g14
S'~&\xf6\x9b\xa0\xffT@'
p124
tp125
Rp126
ag10
(g14
S'`\xe2\x17\xcb\xbe\xddM@'
p127
tp128
Rp129
ag10
(g14
S'\x1e\x9c\xd4\xf0$\xc2T@'
p130
tp131
Rp132
ag10
(g14
S'\x99\xf7\xb5!\x9e\xe6P@'
p133
tp134
Rp135
ag10
(g14
S"'\xa9\x1b`\x1b\xd7V@"
p136
tp137
Rp138
asssss.