(dp0
S'../Data/sqlite_95.csv'
p1
(dp2
S'../Data/sqlite_18.csv'
p3
(dp4
F0.05
(dp5
S'abs_res'
p6
(dp7
S'bellwether'
p8
(lp9
cnumpy.core.multiarray
scalar
p10
(cnumpy
dtype
p11
(S'f8'
p12
I0
I1
tp13
Rp14
(I3
S'<'
p15
NNNI-1
I-1
I0
tp16
bS'A\xe1z\x14Jk&A'
p17
tp18
Rp19
ag10
(g14
S'/\xbfXr\xcbW&A'
p20
tp21
Rp22
ag10
(g14
S'\xf2(\\\x8f\xe6a&A'
p23
tp24
Rp25
ag10
(g14
S'w\x14\xaeG\x0fK&A'
p26
tp27
Rp28
ag10
(g14
S'9\n\xd7#\xb9K&A'
p29
tp30
Rp31
ag10
(g14
S'r\x14\xae\xc7\xfcR&A'
p32
tp33
Rp34
ag10
(g14
S'ffff\xb78&A'
p35
tp36
Rp37
ag10
(g14
S'{\xebQ\xb8@?&A'
p38
tp39
Rp40
ag10
(g14
S'\xa4p=\x8aD@&A'
p41
tp42
Rp43
ag10
(g14
S'i=\nW\xa2a&A'
p44
tp45
Rp46
ag10
(g14
S'\x01\x00\x00\x80R\\&A'
p47
tp48
Rp49
ag10
(g14
S'\x7f\x14\xae\xc7\xb1P&A'
p50
tp51
Rp52
ag10
(g14
S'\xb1\xaa\xaa*\x16N&A'
p53
tp54
Rp55
ag10
(g14
S'\t\xd7\xa3p\xc8_&A'
p56
tp57
Rp58
ag10
(g14
S'G\xe1z\x94\xf2U&A'
p59
tp60
Rp61
ag10
(g14
S'\x86\xebQ\xb8}Z&A'
p62
tp63
Rp64
ag10
(g14
S'I\n\xd7\xa3\xef\x1f&A'
p65
tp66
Rp67
ag10
(g14
S'D\xe1z\x14!\x7f&A'
p68
tp69
Rp70
ag10
(g14
S'\xcc\xcc\xcc\xcc\xd94&A'
p71
tp72
Rp73
ag10
(g14
S'\x99\x99\x99\x19OO&A'
p74
tp75
Rp76
asS'target'
p77
(lp78
g10
(g14
S'\x93\x99\x99\x999\xe2\xd4@'
p79
tp80
Rp81
ag10
(g14
S'gfff\xe6a\xd5@'
p82
tp83
Rp84
ag10
(g14
S'hfff\x86d\xd4@'
p85
tp86
Rp87
ag10
(g14
S'933335\xd6@'
p88
tp89
Rp90
ag10
(g14
S'jfff&#\xd3@'
p91
tp92
Rp93
ag10
(g14
S'bffff\x95\xd7@'
p94
tp95
Rp96
ag10
(g14
S'4333\xf3\x1d\xd6@'
p97
tp98
Rp99
ag10
(g14
S'7333s\xa2\xd4@'
p100
tp101
Rp102
ag10
(g14
S'\xd9\xcc\xcc\xccL\xea\xd4@'
p103
tp104
Rp105
ag10
(g14
S'\x07\x00\x00\x00 \xe5\xd3@'
p106
tp107
Rp108
ag10
(g14
S'\x04\x00\x00\x00\xe0K\xd3@'
p109
tp110
Rp111
ag10
(g14
S'jfff\x06*\xd8@'
p112
tp113
Rp114
ag10
(g14
S'\x9e\x99\x99\x99\xd9t\xd5@'
p115
tp116
Rp117
ag10
(g14
S'/3333`\xd5@'
p118
tp119
Rp120
ag10
(g14
S'-3333;\xd5@'
p121
tp122
Rp123
ag10
(g14
S'/333S\xf6\xd6@'
p124
tp125
Rp126
ag10
(g14
S'\x9a\x99\x99\x99Y\xfd\xd4@'
p127
tp128
Rp129
ag10
(g14
S'efff\xa6\x1d\xd2@'
p130
tp131
Rp132
ag10
(g14
S'\x07\x00\x00\x00\xc0\xa3\xd4@'
p133
tp134
Rp135
ag10
(g14
S'lfff\xc6-\xd5@'
p136
tp137
Rp138
asssss.