(dp0
S'../Data/sqlite_75.csv'
p1
(dp2
S'../Data/sqlite_77.csv'
p3
(dp4
F0.15
(dp5
S'mmre'
p6
(dp7
S'bellwether'
p8
(lp9
cnumpy.core.multiarray
scalar
p10
(cnumpy
dtype
p11
(S'f8'
p12
I0
I1
tp13
Rp14
(I3
S'<'
p15
NNNI-1
I-1
I0
tp16
bS'\xd8\xca2\xfa\x80KP@'
p17
tp18
Rp19
ag10
(g14
S'\xc3\x9a\x93H\x06^P@'
p20
tp21
Rp22
ag10
(g14
S'\xbb\x97\xaf)@[P@'
p23
tp24
Rp25
ag10
(g14
S'\xa0\x11\xdcv\x0cTP@'
p26
tp27
Rp28
ag10
(g14
S'zX\x07\xe7\xbd\\P@'
p29
tp30
Rp31
ag10
(g14
S'AB\x1b\x1d\x14]P@'
p32
tp33
Rp34
ag10
(g14
S'\xc8,?\xe4MaP@'
p35
tp36
Rp37
ag10
(g14
S'$\xf4\xb9%\xd1MP@'
p38
tp39
Rp40
ag10
(g14
S'I\xfd\x11\xe2\x8bRP@'
p41
tp42
Rp43
ag10
(g14
S'\x8d\xc3\x1f\x9d\xf8TP@'
p44
tp45
Rp46
ag10
(g14
S'\xaf7r\x15\xfa[P@'
p47
tp48
Rp49
ag10
(g14
S'\xcf\xa2\xcb\x1c\x18PP@'
p50
tp51
Rp52
ag10
(g14
S'D\x8d]\x97\x9cSP@'
p53
tp54
Rp55
ag10
(g14
S'\x9b\xf1R\x16\xc8TP@'
p56
tp57
Rp58
ag10
(g14
S'\xc3\xd1\x9a\x13\xb8PP@'
p59
tp60
Rp61
ag10
(g14
S'\xac}]\x07\x8eXP@'
p62
tp63
Rp64
ag10
(g14
S"Y'\xdd\xd23UP@"
p65
tp66
Rp67
ag10
(g14
S'd\xa5\x03a\xc4UP@'
p68
tp69
Rp70
ag10
(g14
S'\xf1\xd0\x923.XP@'
p71
tp72
Rp73
ag10
(g14
S'\xc9\x95/\x89iPP@'
p74
tp75
Rp76
asS'target'
p77
(lp78
g10
(g14
S'j\x89j,\xd0\xa96@'
p79
tp80
Rp81
ag10
(g14
S'\xaf6!.\xb3.5@'
p82
tp83
Rp84
ag10
(g14
S'\xe3G{\x8b[\xbb5@'
p85
tp86
Rp87
ag10
(g14
S'K\x93\xe2\xcciz5@'
p88
tp89
Rp90
ag10
(g14
S'\xb7m\x0c=\xe3\xb95@'
p91
tp92
Rp93
ag10
(g14
S'\x10\xc4:\xf3\xa9F4@'
p94
tp95
Rp96
ag10
(g14
S'\nJ\xf3\xe1\xb6\x846@'
p97
tp98
Rp99
ag10
(g14
S'\rV,~8\xfd5@'
p100
tp101
Rp102
ag10
(g14
S'\xbc=S\xe8s\\6@'
p103
tp104
Rp105
ag10
(g14
S'$L\x88\xd5Lp6@'
p106
tp107
Rp108
ag10
(g14
S'\x02QM{\r\x055@'
p109
tp110
Rp111
ag10
(g14
S'H\x93L[M\xb44@'
p112
tp113
Rp114
ag10
(g14
S' \xf5\xd7\\\xea\x925@'
p115
tp116
Rp117
ag10
(g14
S'\xfeI#\xaa\xb8;5@'
p118
tp119
Rp120
ag10
(g14
S'>\xa8\xb7P\x1b\x8c6@'
p121
tp122
Rp123
ag10
(g14
S'd\x1d-v\xc546@'
p124
tp125
Rp126
ag10
(g14
S'\x91\xb4\x07\x97\x7f\x065@'
p127
tp128
Rp129
ag10
(g14
S'\xcd\x13<\x14\x9dX6@'
p130
tp131
Rp132
ag10
(g14
S'dpq\xc1\xfc\x0b6@'
p133
tp134
Rp135
ag10
(g14
S'Q\x17O\xb0\xbb\xbb4@'
p136
tp137
Rp138
asssss.