(dp0
S'../Data/sqlite_6.csv'
p1
(dp2
S'../Data/sqlite_77.csv'
p3
(dp4
F0.05
(dp5
S'mmre'
p6
(dp7
S'bellwether'
p8
(lp9
cnumpy.core.multiarray
scalar
p10
(cnumpy
dtype
p11
(S'f8'
p12
I0
I1
tp13
Rp14
(I3
S'<'
p15
NNNI-1
I-1
I0
tp16
bS'\xa8\x9a\x1e\xe0\xf9pJ@'
p17
tp18
Rp19
ag10
(g14
S'\x95\x02\x1b\x94=gJ@'
p20
tp21
Rp22
ag10
(g14
S'\xde\x8b\xa8\x90\xc0mJ@'
p23
tp24
Rp25
ag10
(g14
S'l\x85\xc3H\x8ffJ@'
p26
tp27
Rp28
ag10
(g14
S'\xa9T\x1a zgJ@'
p29
tp30
Rp31
ag10
(g14
S'>Z*\x9f\xde`J@'
p32
tp33
Rp34
ag10
(g14
S'bC,\x90K^J@'
p35
tp36
Rp37
ag10
(g14
S'\xd0L\x0e\x8dkhJ@'
p38
tp39
Rp40
ag10
(g14
S'|&\xc5~\xcdcJ@'
p41
tp42
Rp43
ag10
(g14
S'\x96@fVtcJ@'
p44
tp45
Rp46
ag10
(g14
S'\xdd\x18\x97v"qJ@'
p47
tp48
Rp49
ag10
(g14
S';\x18\xe3\x1d\x95jJ@'
p50
tp51
Rp52
ag10
(g14
S'e\xb8\xa1\xb7\xe2iJ@'
p53
tp54
Rp55
ag10
(g14
S'N\xa9gF\xdbtJ@'
p56
tp57
Rp58
ag10
(g14
S'\xd7\xb7l\x96ElJ@'
p59
tp60
Rp61
ag10
(g14
S'\x13`\x8b^\xb2lJ@'
p62
tp63
Rp64
ag10
(g14
S'\xdes\xb80\xe5lJ@'
p65
tp66
Rp67
ag10
(g14
S'\x97\x08\x02\xaa+gJ@'
p68
tp69
Rp70
ag10
(g14
S'\x1f\x8e\xb3O\xe0nJ@'
p71
tp72
Rp73
ag10
(g14
S'\xf6\x08\x83\xba\xbceJ@'
p74
tp75
Rp76
asS'target'
p77
(lp78
g10
(g14
S'i\x9c\xba\x17)\x8b7@'
p79
tp80
Rp81
ag10
(g14
S'6\xe6^\xe3\xc8\xe56@'
p82
tp83
Rp84
ag10
(g14
S'Kp\xd8\xad\xee\x065@'
p85
tp86
Rp87
ag10
(g14
S'\xf9\x82\xcd\xf2\x8d<5@'
p88
tp89
Rp90
ag10
(g14
S'\x90\xd1bc\xab\xd48@'
p91
tp92
Rp93
ag10
(g14
S'4#\xe9@,\x855@'
p94
tp95
Rp96
ag10
(g14
S'\x06\x82y\x7fP\x0c9@'
p97
tp98
Rp99
ag10
(g14
S']~hF\x8e\xbe7@'
p100
tp101
Rp102
ag10
(g14
S'\xaehR`C\x158@'
p103
tp104
Rp105
ag10
(g14
S'\x9a}\xf2^\xbb\xbf6@'
p106
tp107
Rp108
ag10
(g14
S'qeK\xc4\xd9}6@'
p109
tp110
Rp111
ag10
(g14
S'\xedL\x0c\x8b\xf3-5@'
p112
tp113
Rp114
ag10
(g14
S'>:\x1fR\x96v5@'
p115
tp116
Rp117
ag10
(g14
S'V\x06\xdb\xee\xe6\x9b5@'
p118
tp119
Rp120
ag10
(g14
S'q\xb20@(\xc36@'
p121
tp122
Rp123
ag10
(g14
S'\x94\xe6\x8c\xfd\xef\xa89@'
p124
tp125
Rp126
ag10
(g14
S'\xd44\xc0Wu07@'
p127
tp128
Rp129
ag10
(g14
S'\x8aT\xd5\xbd\xf2\xd53@'
p130
tp131
Rp132
ag10
(g14
S'JH\xb6{$\xc24@'
p133
tp134
Rp135
ag10
(g14
S'Q\x9a\xfb\xf9\x11\xc33@'
p136
tp137
Rp138
asssss.