(dp0
S'../Data/sqlite_70.csv'
p1
(dp2
S'../Data/sqlite_96.csv'
p3
(dp4
F0.1
(dp5
S'mmre'
p6
(dp7
S'bellwether'
p8
(lp9
cnumpy.core.multiarray
scalar
p10
(cnumpy
dtype
p11
(S'f8'
p12
I0
I1
tp13
Rp14
(I3
S'<'
p15
NNNI-1
I-1
I0
tp16
bS'\xa6\xf3\x14\xd432R@'
p17
tp18
Rp19
ag10
(g14
S'\xb7U\x8653AR@'
p20
tp21
Rp22
ag10
(g14
S'7\x93z\xfbx=R@'
p23
tp24
Rp25
ag10
(g14
S"\xab\x02&l'9R@"
p26
tp27
Rp28
ag10
(g14
S'9Ml\xa5r.R@'
p29
tp30
Rp31
ag10
(g14
S'X\xf1R\x06\xa5<R@'
p32
tp33
Rp34
ag10
(g14
S'U\xe8\xb5U\xa4ER@'
p35
tp36
Rp37
ag10
(g14
S'\xeb\xa7oA\x019R@'
p38
tp39
Rp40
ag10
(g14
S'\x136V\xc7q0R@'
p41
tp42
Rp43
ag10
(g14
S'\x9e\r\xea\xf8EFR@'
p44
tp45
Rp46
ag10
(g14
S'&(\r\x8b\x16<R@'
p47
tp48
Rp49
ag10
(g14
S'\xacK\xc2\xaaeER@'
p50
tp51
Rp52
ag10
(g14
S'\x02t\x9dFS=R@'
p53
tp54
Rp55
ag10
(g14
S'\xb6"v$\x02?R@'
p56
tp57
Rp58
ag10
(g14
S'\xe5jL\x93\x81>R@'
p59
tp60
Rp61
ag10
(g14
S'\xd6\x8b\x8d\x99.FR@'
p62
tp63
Rp64
ag10
(g14
S'z\xf3m\xb8 8R@'
p65
tp66
Rp67
ag10
(g14
S'\xcd%K\xa1\x92AR@'
p68
tp69
Rp70
ag10
(g14
S'\x8d)=}\x90<R@'
p71
tp72
Rp73
ag10
(g14
S'\xdd,\xdb\x9a\xab?R@'
p74
tp75
Rp76
asS'target'
p77
(lp78
g10
(g14
S'o-\xfdw\xe6\xbbV@'
p79
tp80
Rp81
ag10
(g14
S'2^\xb8\xd4A\xc5Q@'
p82
tp83
Rp84
ag10
(g14
S'\x88\xe2~\t\xac\xaf]@'
p85
tp86
Rp87
ag10
(g14
S'\xe7\x94`\x90\xb1IZ@'
p88
tp89
Rp90
ag10
(g14
S'$\xbb\x12\xab\xdc!S@'
p91
tp92
Rp93
ag10
(g14
S'\x15\xd2H\x83m\xf5W@'
p94
tp95
Rp96
ag10
(g14
S'\xdb\x9c\xacJ\xff\xdeK@'
p97
tp98
Rp99
ag10
(g14
S'\xb4I\x12j7\xefa@'
p100
tp101
Rp102
ag10
(g14
S"\x82bq']\xc5d@"
p103
tp104
Rp105
ag10
(g14
S'\xee\xfd\x18#\xddsG@'
p106
tp107
Rp108
ag10
(g14
S'K\x87\xd7\xe1T\x06T@'
p109
tp110
Rp111
ag10
(g14
S'9\xcbr 7\xddB@'
p112
tp113
Rp114
ag10
(g14
S'4\x9d\x1d}\x941T@'
p115
tp116
Rp117
ag10
(g14
S"\xe4~'\xc3\x0f7H@"
p118
tp119
Rp120
ag10
(g14
S'\xf7\x01\xdaz;WN@'
p121
tp122
Rp123
ag10
(g14
S'\xce\x8e\x9a\xfe\x16\x00M@'
p124
tp125
Rp126
ag10
(g14
S'\xf0)\xf0?t\x8dT@'
p127
tp128
Rp129
ag10
(g14
S'\xb2Ee\x81\x0f\x84Q@'
p130
tp131
Rp132
ag10
(g14
S'\xb0\x83\x81\xeb\n\xbcU@'
p133
tp134
Rp135
ag10
(g14
S'\x1b\xd4?\xe7\xa5\xc1Q@'
p136
tp137
Rp138
asssss.