(dp0
S'../Data/sqlite_63.csv'
p1
(dp2
S'../Data/sqlite_95.csv'
p3
(dp4
F0.15
(dp5
S'mmre'
p6
(dp7
S'bellwether'
p8
(lp9
cnumpy.core.multiarray
scalar
p10
(cnumpy
dtype
p11
(S'f8'
p12
I0
I1
tp13
Rp14
(I3
S'<'
p15
NNNI-1
I-1
I0
tp16
bS'\xf6:\xed\xbe\x1dsX@'
p17
tp18
Rp19
ag10
(g14
S'\xdd5\xdc*BtX@'
p20
tp21
Rp22
ag10
(g14
S'\xde`\x89\xefjrX@'
p23
tp24
Rp25
ag10
(g14
S'\x89\x00\xf0\xaa;sX@'
p26
tp27
Rp28
ag10
(g14
S'S\xf1I\x8frrX@'
p29
tp30
Rp31
ag10
(g14
S'\xe4\xd2\x03\x1c!sX@'
p32
tp33
Rp34
ag10
(g14
S'\x86\x935Q\x1esX@'
p35
tp36
Rp37
ag10
(g14
S'\xfc\xad\xae\x05\x1crX@'
p38
tp39
Rp40
ag10
(g14
S'\x03M\xf09\x9brX@'
p41
tp42
Rp43
ag10
(g14
S'{\xe2\xdc\x99\x9fsX@'
p44
tp45
Rp46
ag10
(g14
S'\xa2\xderg\trX@'
p47
tp48
Rp49
ag10
(g14
S'\x0e\xd5\t\x11BtX@'
p50
tp51
Rp52
ag10
(g14
S'\xc8%mW\x8frX@'
p53
tp54
Rp55
ag10
(g14
S'\x0f\r \xd9\xe1tX@'
p56
tp57
Rp58
ag10
(g14
S'\x92OZb\tsX@'
p59
tp60
Rp61
ag10
(g14
S'\xb6Q\xb7\x89\x12rX@'
p62
tp63
Rp64
ag10
(g14
S'\xd3w\xc8i\xa2sX@'
p65
tp66
Rp67
ag10
(g14
S'#Q\xe7h\xf2rX@'
p68
tp69
Rp70
ag10
(g14
S'\xb8\x16\xdd\xdb\xf0qX@'
p71
tp72
Rp73
ag10
(g14
S'\xc4I1Q&rX@'
p74
tp75
Rp76
asS'target'
p77
(lp78
g10
(g14
S'\xc4Uj\x1b\x89\x84<@'
p79
tp80
Rp81
ag10
(g14
S'="\xed\x8d\xf3\xcc@@'
p82
tp83
Rp84
ag10
(g14
S'\xb3O)\x8c\r\x9b@@'
p85
tp86
Rp87
ag10
(g14
S'Xb\x9e\x86\xcc\xca;@'
p88
tp89
Rp90
ag10
(g14
S"Z\xb7G&\xa3'C@"
p91
tp92
Rp93
ag10
(g14
S'\x9e\x86\xd11a\xa1>@'
p94
tp95
Rp96
ag10
(g14
S'J\xe5\xb7k\t-F@'
p97
tp98
Rp99
ag10
(g14
S'zAs\x0e\x80\x0bA@'
p100
tp101
Rp102
ag10
(g14
S'\xef<\xfa\xf4\xf6\xeb@@'
p103
tp104
Rp105
ag10
(g14
S'\x07d^\xa3E\x95B@'
p106
tp107
Rp108
ag10
(g14
S'\x91\xbc|\xbe)\xcdA@'
p109
tp110
Rp111
ag10
(g14
S'\xe3\x00P\xd5\x7f\x95@@'
p112
tp113
Rp114
ag10
(g14
S'\x0b\x91\xe2fH<D@'
p115
tp116
Rp117
ag10
(g14
S'x*Ew\xf0`A@'
p118
tp119
Rp120
ag10
(g14
S'H~\x8a\x06\xbfED@'
p121
tp122
Rp123
ag10
(g14
S'\x8b\xf4\xdd\x950\x07B@'
p124
tp125
Rp126
ag10
(g14
S'\xd6\x9b0&\x14\xcb>@'
p127
tp128
Rp129
ag10
(g14
S'\x0c\xcb\x05\x1fd^@@'
p130
tp131
Rp132
ag10
(g14
S'\xc05\x95\xd6s\xd1?@'
p133
tp134
Rp135
ag10
(g14
S'n\xd8\xde<%\x0fA@'
p136
tp137
Rp138
asssss.