(dp0
S'../Data/sqlite_57.csv'
p1
(dp2
S'../Data/sqlite_50.csv'
p3
(dp4
F0.4
(dp5
S'abs_res'
p6
(dp7
S'bellwether'
p8
(lp9
cnumpy.core.multiarray
scalar
p10
(cnumpy
dtype
p11
(S'f8'
p12
I0
I1
tp13
Rp14
(I3
S'<'
p15
NNNI-1
I-1
I0
tp16
bS'%\xdb\xf9\x867\x82aA'
p17
tp18
Rp19
ag10
(g14
S'w\xbe\x9f\x0eP}aA'
p20
tp21
Rp22
ag10
(g14
S'\x94l\xe7\xe7\xa3\x80aA'
p23
tp24
Rp25
ag10
(g14
S'3\x08\xac4\xc9raA'
p26
tp27
Rp28
ag10
(g14
S'+\xb2\x9dK\xd2raA'
p29
tp30
Rp31
ag10
(g14
S"'1\x08h\xf2zaA"
p32
tp33
Rp34
ag10
(g14
S'\xbe\x9f\x1a_\xe6raA'
p35
tp36
Rp37
ag10
(g14
S'\x0f-\xb2)\x96saA'
p38
tp39
Rp40
ag10
(g14
S'\x9d\xc4 \xcc\xdftaA'
p41
tp42
Rp43
ag10
(g14
S'\xdfO\x8d\xf3DzaA'
p44
tp45
Rp46
ag10
(g14
S'Zd;/~waA'
p47
tp48
Rp49
ag10
(g14
S'\x00+\x87r3~aA'
p50
tp51
Rp52
ag10
(g14
S'Lb\x10\xe4B\x7faA'
p53
tp54
Rp55
ag10
(g14
S'\x84\x95C\xdf\xd6maA'
p56
tp57
Rp58
ag10
(g14
S'\x8f\xed|\x07hjaA'
p59
tp60
Rp61
ag10
(g14
S',\x87\x16i\x10}aA'
p62
tp63
Rp64
ag10
(g14
S'\xcf\xf7S\x830uaA'
p65
tp66
Rp67
ag10
(g14
S'\xfe\xa9\xf1\xf6O\x85aA'
p68
tp69
Rp70
ag10
(g14
S'vh\x91]FvaA'
p71
tp72
Rp73
ag10
(g14
S'\xf3\xd2M2@oaA'
p74
tp75
Rp76
asS'target'
p77
(lp78
g10
(g14
S'\x14\x83\xc0\xca\xa1-S@'
p79
tp80
Rp81
ag10
(g14
S'\xf8\xa9\xf1\xd2M2S@'
p82
tp83
Rp84
ag10
(g14
S'\x07V\x0e-\xb2\rR@'
p85
tp86
Rp87
ag10
(g14
S'\x95\x18\x04V\x0e\x9dR@'
p88
tp89
Rp90
ag10
(g14
S'\x08+\x87\x16\xd9\xeeR@'
p91
tp92
Rp93
ag10
(g14
S'\x8fC\x8bl\xe7\xabT@'
p94
tp95
Rp96
ag10
(g14
S'\x8e\xc2\xf5(\\\x07S@'
p97
tp98
Rp99
ag10
(g14
S'\xd6Mb\x10X}R@'
p100
tp101
Rp102
ag10
(g14
S'J\x0c\x02+\x87\x8eT@'
p103
tp104
Rp105
ag10
(g14
S'R\xb8\x1e\x85\xeb\xd1S@'
p106
tp107
Rp108
ag10
(g14
S'63333\xb3R@'
p109
tp110
Rp111
ag10
(g14
S'\x80\xc0\xca\xa1E\xc6R@'
p112
tp113
Rp114
ag10
(g14
S'\x80?5^\xba=T@'
p115
tp116
Rp117
ag10
(g14
S'\x8dl\xe7\xfb\xa9\xf1S@'
p118
tp119
Rp120
ag10
(g14
S'\x12X9\xb4\xc8\xaaR@'
p121
tp122
Rp123
ag10
(g14
S'63333OS@'
p124
tp125
Rp126
ag10
(g14
S'\x08\x02+\x87\x16\xb9R@'
p127
tp128
Rp129
ag10
(g14
S'\x1d\xb0rh\x91\xb9S@'
p130
tp131
Rp132
ag10
(g14
S'H\xe1z\x14\xae;T@'
p133
tp134
Rp135
ag10
(g14
S'\\d;\xdfO\xc5T@'
p136
tp137
Rp138
asssss.