(dp0
S'../Data/sqlite_73.csv'
p1
(dp2
S'../Data/sqlite_96.csv'
p3
(dp4
F0.25
(dp5
S'mmre'
p6
(dp7
S'bellwether'
p8
(lp9
cnumpy.core.multiarray
scalar
p10
(cnumpy
dtype
p11
(S'f8'
p12
I0
I1
tp13
Rp14
(I3
S'<'
p15
NNNI-1
I-1
I0
tp16
bS'\r\x1b\xab[ !J@'
p17
tp18
Rp19
ag10
(g14
S'&fjP\xa60J@'
p20
tp21
Rp22
ag10
(g14
S'50!\x99:\xfaI@'
p23
tp24
Rp25
ag10
(g14
S'\\A\x8e \xa7\x0bJ@'
p26
tp27
Rp28
ag10
(g14
S'~\xef\x19\x8a\xa4TJ@'
p29
tp30
Rp31
ag10
(g14
S'\xbf\xff~y\xec/J@'
p32
tp33
Rp34
ag10
(g14
S'\xb1\xdf #T\x13J@'
p35
tp36
Rp37
ag10
(g14
S'12S\x9f7\x18J@'
p38
tp39
Rp40
ag10
(g14
S'h\xe0Ij\xf6%J@'
p41
tp42
Rp43
ag10
(g14
S'\xc4\xaa\x7f*<.J@'
p44
tp45
Rp46
ag10
(g14
S'Y\xc3L\x9f\t7J@'
p47
tp48
Rp49
ag10
(g14
S'QJ\xdf\x81\x00DJ@'
p50
tp51
Rp52
ag10
(g14
S'[k\xf6W\xf8$J@'
p53
tp54
Rp55
ag10
(g14
S'(CG\x95(4J@'
p56
tp57
Rp58
ag10
(g14
S"{\xc4\x9c\x03'\x0eJ@"
p59
tp60
Rp61
ag10
(g14
S'K<\xfa%\x17;J@'
p62
tp63
Rp64
ag10
(g14
S'.#D\xebv\x18J@'
p65
tp66
Rp67
ag10
(g14
S'nj\x05o3\rJ@'
p68
tp69
Rp70
ag10
(g14
S'%\xf8+\x02jcJ@'
p71
tp72
Rp73
ag10
(g14
S'f&\xa2\x9e\x85dJ@'
p74
tp75
Rp76
asS'target'
p77
(lp78
g10
(g14
S'\x86mHox\xacS@'
p79
tp80
Rp81
ag10
(g14
S'\xa8\x05L\x93\xe8\xf8O@'
p82
tp83
Rp84
ag10
(g14
S'\xa7v|\xfe\xab\xbbW@'
p85
tp86
Rp87
ag10
(g14
S'\x19\xc3\xb9^\xb5\xd2P@'
p88
tp89
Rp90
ag10
(g14
S'\xd1\x9c\xb0Dd\xf4F@'
p91
tp92
Rp93
ag10
(g14
S'\x06\xe9\xfe9/+X@'
p94
tp95
Rp96
ag10
(g14
S'A\xbdYh\x94\x8fV@'
p97
tp98
Rp99
ag10
(g14
S'C\xcc\xc7J\xd5\xb6R@'
p100
tp101
Rp102
ag10
(g14
S'\x92\x07\x98\xc8\x15\x00P@'
p103
tp104
Rp105
ag10
(g14
S'a\xe32\xa9\xe6\xd3T@'
p106
tp107
Rp108
ag10
(g14
S'h\xcb\xca\x97W\x18U@'
p109
tp110
Rp111
ag10
(g14
S'\xc2\x0e($\xd9\xcfF@'
p112
tp113
Rp114
ag10
(g14
S'B\xb7"\xce\xfe\xfcL@'
p115
tp116
Rp117
ag10
(g14
S'\x06o*\xcc\xc8\xe3V@'
p118
tp119
Rp120
ag10
(g14
S'\x94*|\x85\x88\xf0V@'
p121
tp122
Rp123
ag10
(g14
S'\xcd\xca\xde\xad\x99B`@'
p124
tp125
Rp126
ag10
(g14
S'\x05\x06W\xfb7HO@'
p127
tp128
Rp129
ag10
(g14
S'\x9e\xef\x86\xe32eV@'
p130
tp131
Rp132
ag10
(g14
S'\x85\xf5\x81y\x8baP@'
p133
tp134
Rp135
ag10
(g14
S'\x9e\x8f\xb3zO\xdfE@'
p136
tp137
Rp138
asssss.