(dp0
S'../Data/sqlite_35.csv'
p1
(dp2
S'../Data/sqlite_94.csv'
p3
(dp4
F0.35
(dp5
S'mmre'
p6
(dp7
S'bellwether'
p8
(lp9
cnumpy.core.multiarray
scalar
p10
(cnumpy
dtype
p11
(S'f8'
p12
I0
I1
tp13
Rp14
(I3
S'<'
p15
NNNI-1
I-1
I0
tp16
bS'\xdbX\xd1PZ-X@'
p17
tp18
Rp19
ag10
(g14
S'\xe82\x99\xb8\xed+X@'
p20
tp21
Rp22
ag10
(g14
S'\xa7h\x0f/\xc8+X@'
p23
tp24
Rp25
ag10
(g14
S'{m\x9bw\xa4+X@'
p26
tp27
Rp28
ag10
(g14
S'l\xcdg\xb0\xbc,X@'
p29
tp30
Rp31
ag10
(g14
S'\xeaqk\x03\xe7+X@'
p32
tp33
Rp34
ag10
(g14
S'\xe1\xa0\xed\xe5\xc2)X@'
p35
tp36
Rp37
ag10
(g14
S'\x7f\x9f\x8dr\n-X@'
p38
tp39
Rp40
ag10
(g14
S'\x18%\x10Y\xa6,X@'
p41
tp42
Rp43
ag10
(g14
S'%\x9f\xd6\xf9z*X@'
p44
tp45
Rp46
ag10
(g14
S'{\xb8&fk-X@'
p47
tp48
Rp49
ag10
(g14
S'\xab\x0c\x1f\xe0\xbf+X@'
p50
tp51
Rp52
ag10
(g14
S'\x00\xb5iK@-X@'
p53
tp54
Rp55
ag10
(g14
S'\x8a\x84\x80\xfe#+X@'
p56
tp57
Rp58
ag10
(g14
S'\xdf4\\yu-X@'
p59
tp60
Rp61
ag10
(g14
S'[ ^\x14<,X@'
p62
tp63
Rp64
ag10
(g14
S'\x1d\xd7U\xc4\xd5-X@'
p65
tp66
Rp67
ag10
(g14
S'/=\xae\x14\xf8*X@'
p68
tp69
Rp70
ag10
(g14
S'\xb4N\xd8ya-X@'
p71
tp72
Rp73
ag10
(g14
S'\xca-\x85\xd3^,X@'
p74
tp75
Rp76
asS'target'
p77
(lp78
g10
(g14
S'\x03\xfc\xdcdt\xa6N@'
p79
tp80
Rp81
ag10
(g14
S'\xdb\xa0m\xe4M\x05O@'
p82
tp83
Rp84
ag10
(g14
S'30\xbd@\xa5iL@'
p85
tp86
Rp87
ag10
(g14
S'V>\xcd\xa1\\\xe3X@'
p88
tp89
Rp90
ag10
(g14
S'\xce\xedO~\xce\xeeT@'
p91
tp92
Rp93
ag10
(g14
S'\x87\x92ly\xbc\x05U@'
p94
tp95
Rp96
ag10
(g14
S'\xdd\x8d\x189\x11\xe0P@'
p97
tp98
Rp99
ag10
(g14
S'QT\xabS7hP@'
p100
tp101
Rp102
ag10
(g14
S'\xccM@sRxJ@'
p103
tp104
Rp105
ag10
(g14
S'J\x1f\xef\x9b\xb3\xcaQ@'
p106
tp107
Rp108
ag10
(g14
S'\xdfq\xfc\x93\xb7\x83P@'
p109
tp110
Rp111
ag10
(g14
S'K3\xe8\x81#\x91K@'
p112
tp113
Rp114
ag10
(g14
S'!g\x93\xd7z\x8aO@'
p115
tp116
Rp117
ag10
(g14
S'\x9fH\xa5&5\x02U@'
p118
tp119
Rp120
ag10
(g14
S'+^W\x0f\xf6\xfbQ@'
p121
tp122
Rp123
ag10
(g14
S'\xe7\xbe\xcf\xfdb<T@'
p124
tp125
Rp126
ag10
(g14
S'\x15\xaf\xb5\x8e\xf35F@'
p127
tp128
Rp129
ag10
(g14
S'\x0e\xc6?;\xf6\x16S@'
p130
tp131
Rp132
ag10
(g14
S'x*\xe4\x15\x8e\xb0P@'
p133
tp134
Rp135
ag10
(g14
S'\x8b\xf0>\xf9\xde\xb8P@'
p136
tp137
Rp138
asssss.