(dp0
S'../Data/sqlite_58.csv'
p1
(dp2
S'../Data/sqlite_62.csv'
p3
(dp4
F0.3
(dp5
S'mmre'
p6
(dp7
S'bellwether'
p8
(lp9
cnumpy.core.multiarray
scalar
p10
(cnumpy
dtype
p11
(S'f8'
p12
I0
I1
tp13
Rp14
(I3
S'<'
p15
NNNI-1
I-1
I0
tp16
bS'\xbe\x81\xf5\xcb\xfaGT@'
p17
tp18
Rp19
ag10
(g14
S'S!*\xfbODT@'
p20
tp21
Rp22
ag10
(g14
S'\xd8W@\x90ODT@'
p23
tp24
Rp25
ag10
(g14
S'\xb4\x89\xect=GT@'
p26
tp27
Rp28
ag10
(g14
S'\xd4\xc6RPaJT@'
p29
tp30
Rp31
ag10
(g14
S'\xb2\xb5\xa6D8CT@'
p32
tp33
Rp34
ag10
(g14
S'\xddO\r\x19kHT@'
p35
tp36
Rp37
ag10
(g14
S'\xe7y\xabZDHT@'
p38
tp39
Rp40
ag10
(g14
S'\xa5\x08+[\x19GT@'
p41
tp42
Rp43
ag10
(g14
S'\xc2\xfcrc\xa8HT@'
p44
tp45
Rp46
ag10
(g14
S'F\xbb\rZeFT@'
p47
tp48
Rp49
ag10
(g14
S'N\xa8\x9c\xb0\x9fDT@'
p50
tp51
Rp52
ag10
(g14
S'\xd9\x01z\xf4.ET@'
p53
tp54
Rp55
ag10
(g14
S'\xb7\x0cSX\xe9KT@'
p56
tp57
Rp58
ag10
(g14
S'-:\xb1o\x88JT@'
p59
tp60
Rp61
ag10
(g14
S'\xe1\x9c\xc0WoET@'
p62
tp63
Rp64
ag10
(g14
S'`\x83\rB\xb5HT@'
p65
tp66
Rp67
ag10
(g14
S'7\xd5\xb8\x11\xf5FT@'
p68
tp69
Rp70
ag10
(g14
S'f\x87\x00m\xb3FT@'
p71
tp72
Rp73
ag10
(g14
S'\x11\xfeDV\xcaGT@'
p74
tp75
Rp76
asS'target'
p77
(lp78
g10
(g14
S'\xe9j\xff.\x07\xf5"@'
p79
tp80
Rp81
ag10
(g14
S'-0\xba\xd1\xe7\xe8!@'
p82
tp83
Rp84
ag10
(g14
S'y\xa4\x1b\xb7\xae\xe5"@'
p85
tp86
Rp87
ag10
(g14
S'Y%v\x87[X!@'
p88
tp89
Rp90
ag10
(g14
S'\xd1G\x9a\x193\x8f!@'
p91
tp92
Rp93
ag10
(g14
S'P\xba2Z\xe2[ @'
p94
tp95
Rp96
ag10
(g14
S'\xa7wP\x14]\x8a!@'
p97
tp98
Rp99
ag10
(g14
S'\x18\x9c\x98e\xa3\xf4!@'
p100
tp101
Rp102
ag10
(g14
S']\xcd\xcc\x15\x06\xd1 @'
p103
tp104
Rp105
ag10
(g14
S'I\x16W\xb7\xcbU!@'
p106
tp107
Rp108
ag10
(g14
S'U\xa7I\xfc\xa2+!@'
p109
tp110
Rp111
ag10
(g14
S'\x95\xdb\x84\x7f\xeb\x8a!@'
p112
tp113
Rp114
ag10
(g14
S'>9\x12\x837\xb1 @'
p115
tp116
Rp117
ag10
(g14
S'\x9b\x89\xac\xcd\xe6\xfe!@'
p118
tp119
Rp120
ag10
(g14
S'W\xdf\xc8j\x89\xd8!@'
p121
tp122
Rp123
ag10
(g14
S'\xb7\x06G_\xfd\x12"@'
p124
tp125
Rp126
ag10
(g14
S'\xf0\xd3P\x1d\x05R"@'
p127
tp128
Rp129
ag10
(g14
S'lB\x02~Q\x8f!@'
p130
tp131
Rp132
ag10
(g14
S'\xe1(\xb4\xa3\x82\xec @'
p133
tp134
Rp135
ag10
(g14
S'j\xc3\x99\xdd\x1c\xfb @'
p136
tp137
Rp138
asssss.