(dp0
S'../Data/sqlite_15.csv'
p1
(dp2
S'../Data/sqlite_91.csv'
p3
(dp4
F0.05
(dp5
S'mmre'
p6
(dp7
S'bellwether'
p8
(lp9
cnumpy.core.multiarray
scalar
p10
(cnumpy
dtype
p11
(S'f8'
p12
I0
I1
tp13
Rp14
(I3
S'<'
p15
NNNI-1
I-1
I0
tp16
bS'\xf4=\x8ek6zv@'
p17
tp18
Rp19
ag10
(g14
S'H^*\x86Xev@'
p20
tp21
Rp22
ag10
(g14
S'*\xe5\xe3\xdd;xv@'
p23
tp24
Rp25
ag10
(g14
S'e\xd3&)\xa5|v@'
p26
tp27
Rp28
ag10
(g14
S'\xbb\x86W\xe5\x9e\rv@'
p29
tp30
Rp31
ag10
(g14
S'\xe5!\x0c\x01N\xf8u@'
p32
tp33
Rp34
ag10
(g14
S'\xa05\x95\x99\n\xfdu@'
p35
tp36
Rp37
ag10
(g14
S'\x91\xd5\xe2\r6+u@'
p38
tp39
Rp40
ag10
(g14
S'\t\x91\x1b\x97\x18}v@'
p41
tp42
Rp43
ag10
(g14
S'\xd67\x82\x97\xce\xf8u@'
p44
tp45
Rp46
ag10
(g14
S'\xb7\xcf\xf4\x9d\x93\x0ev@'
p47
tp48
Rp49
ag10
(g14
S'\x83\x83uzF\xfdu@'
p50
tp51
Rp52
ag10
(g14
S'6c\xf6\x9d\xd0{v@'
p53
tp54
Rp55
ag10
(g14
S'Jl\x9c\xef\x1bmv@'
p56
tp57
Rp58
ag10
(g14
S'RX#\xe4\x82mv@'
p59
tp60
Rp61
ag10
(g14
S' \x0c~\xddBmv@'
p62
tp63
Rp64
ag10
(g14
S'\xc7H\x89\xe3\xeb\x14v@'
p65
tp66
Rp67
ag10
(g14
S'6Fx%\xac\xf0u@'
p68
tp69
Rp70
ag10
(g14
S'\xc0\x98\x05)\xb8\x02v@'
p71
tp72
Rp73
ag10
(g14
S' \x1aQk(\x9et@'
p74
tp75
Rp76
asS'target'
p77
(lp78
g10
(g14
S'~\xc7KxO\x0fP@'
p79
tp80
Rp81
ag10
(g14
S'Eq\xa9\xd4\xde!P@'
p82
tp83
Rp84
ag10
(g14
S'i\xa6zN\x84oP@'
p85
tp86
Rp87
ag10
(g14
S'2W\xc3\xeb\x91\xe7O@'
p88
tp89
Rp90
ag10
(g14
S'tex\xb41\xfdN@'
p91
tp92
Rp93
ag10
(g14
S'E\x82b\xfd\x03`P@'
p94
tp95
Rp96
ag10
(g14
S'\xe9cd\x8a&\xdbP@'
p97
tp98
Rp99
ag10
(g14
S'\xdb\xf6r~MyN@'
p100
tp101
Rp102
ag10
(g14
S'g?u\x9ff\xe3P@'
p103
tp104
Rp105
ag10
(g14
S'9\xc0MRhQO@'
p106
tp107
Rp108
ag10
(g14
S'\x1b\xd0\xf8:\xf3\xbbJ@'
p109
tp110
Rp111
ag10
(g14
S'\x8b\xec\xb6\x18\xb7\x8bO@'
p112
tp113
Rp114
ag10
(g14
S'L\xe2\xc1\xdb\xfe\xf3O@'
p115
tp116
Rp117
ag10
(g14
S'\x80\xc5\xfd\xa8\xe0uP@'
p118
tp119
Rp120
ag10
(g14
S'\xa1:\xe5\x8b\xe3\xbdO@'
p121
tp122
Rp123
ag10
(g14
S'n\xa1\\\xd3\xbe\x16N@'
p124
tp125
Rp126
ag10
(g14
S'o\xf3W\xb6i\x80P@'
p127
tp128
Rp129
ag10
(g14
S'\xca\xe68#\x8duP@'
p130
tp131
Rp132
ag10
(g14
S']\xac2\xdd\x89\xf1K@'
p133
tp134
Rp135
ag10
(g14
S'\xbd\xce["\x1e\x0cM@'
p136
tp137
Rp138
asssss.