(dp0
S'../Data/sqlite_54.csv'
p1
(dp2
S'../Data/sqlite_84.csv'
p3
(dp4
F0.05
(dp5
S'mmre'
p6
(dp7
S'bellwether'
p8
(lp9
cnumpy.core.multiarray
scalar
p10
(cnumpy
dtype
p11
(S'f8'
p12
I0
I1
tp13
Rp14
(I3
S'<'
p15
NNNI-1
I-1
I0
tp16
bS'\xda\xc4\xd7c\x0cou@'
p17
tp18
Rp19
ag10
(g14
S'p\x95\xc9\x9b\xcb]u@'
p20
tp21
Rp22
ag10
(g14
S'^\xea\x133"ku@'
p23
tp24
Rp25
ag10
(g14
S'{G\xf1\xa4~[u@'
p26
tp27
Rp28
ag10
(g14
S'\x83\xbdlCi<u@'
p29
tp30
Rp31
ag10
(g14
S'BP\xe9p\x1b=u@'
p32
tp33
Rp34
ag10
(g14
S"\t\xf8\x96'fYu@"
p35
tp36
Rp37
ag10
(g14
S'\r\xd0\x9f\x13\xde^u@'
p38
tp39
Rp40
ag10
(g14
S'<D\x9aY\xddNu@'
p41
tp42
Rp43
ag10
(g14
S'j\x117AmUu@'
p44
tp45
Rp46
ag10
(g14
S'\xbe\xa0,\xa9\x11Eu@'
p47
tp48
Rp49
ag10
(g14
S'\x8bsk\xd3(Ku@'
p50
tp51
Rp52
ag10
(g14
S'4A\x94(\xb9Nu@'
p53
tp54
Rp55
ag10
(g14
S'g\x01\x9e\xb7Ugu@'
p56
tp57
Rp58
ag10
(g14
S'\xe2\xd2\x1f\xb1\x9eIu@'
p59
tp60
Rp61
ag10
(g14
S'\xd0:{<\x82Pu@'
p62
tp63
Rp64
ag10
(g14
S'\x1c\x10\xed\xd2\xd0Mu@'
p65
tp66
Rp67
ag10
(g14
S"\xc5&'4\xb7Xu@"
p68
tp69
Rp70
ag10
(g14
S'\x08\x8b1\xb09cu@'
p71
tp72
Rp73
ag10
(g14
S'\xaf\xe1\x9b<\xd7ru@'
p74
tp75
Rp76
asS'target'
p77
(lp78
g10
(g14
S'Y\xa9\t\xf45\xb3F@'
p79
tp80
Rp81
ag10
(g14
S'.\xf3T\x99}\xc5\\@'
p82
tp83
Rp84
ag10
(g14
S'\n\\s\xec\xbc\xc7W@'
p85
tp86
Rp87
ag10
(g14
S'b\x96\xbe4\xbb\\A@'
p88
tp89
Rp90
ag10
(g14
S'\x9eS\xb7\x12l\x8fR@'
p91
tp92
Rp93
ag10
(g14
S'\xfd\xf1.\xf1qY@@'
p94
tp95
Rp96
ag10
(g14
S'0\x1b\xff\xd2\xde\xc7^@'
p97
tp98
Rp99
ag10
(g14
S'\x94h\x01\xd4\x93)W@'
p100
tp101
Rp102
ag10
(g14
S'\x9bHMH%\xd5A@'
p103
tp104
Rp105
ag10
(g14
S'\xfb\x8e8\xc4GfQ@'
p106
tp107
Rp108
ag10
(g14
S'\x14\xdd\x07]\x15\xe0T@'
p109
tp110
Rp111
ag10
(g14
S'\xb7{\xd2\x0c\xf2^C@'
p112
tp113
Rp114
ag10
(g14
S'\xce\x03\x06\x8e\x92\xf9C@'
p115
tp116
Rp117
ag10
(g14
S'\x1cJ\xad7.LY@'
p118
tp119
Rp120
ag10
(g14
S'\x02\xd0\xc7:\xbe\xebQ@'
p121
tp122
Rp123
ag10
(g14
S'Vv\x1c\x9d\xa9zW@'
p124
tp125
Rp126
ag10
(g14
S'\xda\x0b\xe1\xba\xca\x1aW@'
p127
tp128
Rp129
ag10
(g14
S"\xec\x7f\xc8\xd0]'G@"
p130
tp131
Rp132
ag10
(g14
S'\xd4\x06\x91\xf6\xe3\xb6M@'
p133
tp134
Rp135
ag10
(g14
S"\xaa!M`\xfd'U@"
p136
tp137
Rp138
asssss.