(dp0
S'../Data/sqlite_37.csv'
p1
(dp2
S'../Data/sqlite_59.csv'
p3
(dp4
F0.15
(dp5
S'mmre'
p6
(dp7
S'bellwether'
p8
(lp9
cnumpy.core.multiarray
scalar
p10
(cnumpy
dtype
p11
(S'f8'
p12
I0
I1
tp13
Rp14
(I3
S'<'
p15
NNNI-1
I-1
I0
tp16
bS'\xa0i\x91-\x04UW@'
p17
tp18
Rp19
ag10
(g14
S'\xd5};d\x84UW@'
p20
tp21
Rp22
ag10
(g14
S'I\xf1\x1e\x01\x1aVW@'
p23
tp24
Rp25
ag10
(g14
S'\xb5\\E\x87\xecTW@'
p26
tp27
Rp28
ag10
(g14
S'\x15\xad\x83\x00\\UW@'
p29
tp30
Rp31
ag10
(g14
S'\x1d\x8f\xf8\xdb\xa6UW@'
p32
tp33
Rp34
ag10
(g14
S'\x89\x03\xf2\x90)UW@'
p35
tp36
Rp37
ag10
(g14
S'BJW\xdf\xc2UW@'
p38
tp39
Rp40
ag10
(g14
S"\xc3\x81\xbd')TW@"
p41
tp42
Rp43
ag10
(g14
S'\xbeg\xe2-_VW@'
p44
tp45
Rp46
ag10
(g14
S'\xe5 \xbd\txUW@'
p47
tp48
Rp49
ag10
(g14
S'~o\x81I\x1cUW@'
p50
tp51
Rp52
ag10
(g14
S'/Ki9\xcbUW@'
p53
tp54
Rp55
ag10
(g14
S'\x0f\x86\x95w5UW@'
p56
tp57
Rp58
ag10
(g14
S'\x17\x93x\x9b\xc4TW@'
p59
tp60
Rp61
ag10
(g14
S'\x16\x9b|<5UW@'
p62
tp63
Rp64
ag10
(g14
S'\xf8D\xfd\xdfIUW@'
p65
tp66
Rp67
ag10
(g14
S'\x02Q\xb1c2TW@'
p68
tp69
Rp70
ag10
(g14
S'$\xce\x1d\xb4\x91UW@'
p71
tp72
Rp73
ag10
(g14
S'2\xcc\xc9\x1d\xd6TW@'
p74
tp75
Rp76
asS'target'
p77
(lp78
g10
(g14
S'V\xa3|\xee2H)@'
p79
tp80
Rp81
ag10
(g14
S'\x97w\xf5\x7f\xc6\x0f%@'
p82
tp83
Rp84
ag10
(g14
S'DT\xd5\xc9\xbdI$@'
p85
tp86
Rp87
ag10
(g14
S"\xdfi\x89\xf8*8'@"
p88
tp89
Rp90
ag10
(g14
S'3\xd1\xbe\xa5v\x90%@'
p91
tp92
Rp93
ag10
(g14
S'\xba\xf1!\x0c\xf5&&@'
p94
tp95
Rp96
ag10
(g14
S'\xd7}M\x9c0\xcc&@'
p97
tp98
Rp99
ag10
(g14
S'\xb6u\xef\xc4\xabX%@'
p100
tp101
Rp102
ag10
(g14
S'\xc6l6\xe7dJ(@'
p103
tp104
Rp105
ag10
(g14
S'@\xcf\xdbv^\xe9%@'
p106
tp107
Rp108
ag10
(g14
S'\xcd\xf5{!\x83\xfa#@'
p109
tp110
Rp111
ag10
(g14
S'\xaf7^\xcb\xb8G(@'
p112
tp113
Rp114
ag10
(g14
S'\x0cg)\xd4\x86\xf1$@'
p115
tp116
Rp117
ag10
(g14
S'\x07\xd0\xe1\xbc\x8b\x85%@'
p118
tp119
Rp120
ag10
(g14
S'\xbc\xaee\x8b!\xff$@'
p121
tp122
Rp123
ag10
(g14
S'\xc4\xdbq\x04\x83\xf0&@'
p124
tp125
Rp126
ag10
(g14
S'\xb8Vy\x93\xed\xdb%@'
p127
tp128
Rp129
ag10
(g14
S'xVN\x0fl\xbe&@'
p130
tp131
Rp132
ag10
(g14
S'\xa5\td\x94X\x8c$@'
p133
tp134
Rp135
ag10
(g14
S'\xcc\x01\x064Q\x84&@'
p136
tp137
Rp138
asssss.