(dp0
S'../Data/sqlite_67.csv'
p1
(dp2
S'../Data/sqlite_36.csv'
p3
(dp4
F0.1
(dp5
S'abs_res'
p6
(dp7
S'bellwether'
p8
(lp9
cnumpy.core.multiarray
scalar
p10
(cnumpy
dtype
p11
(S'f8'
p12
I0
I1
tp13
Rp14
(I3
S'<'
p15
NNNI-1
I-1
I0
tp16
bS'\xc0-ku\x9a~#A'
p17
tp18
Rp19
ag10
(g14
S'B\xb6\xf3\xfd\xe1~#A'
p20
tp21
Rp22
ag10
(g14
S'\x9b\xc4 0B~#A'
p23
tp24
Rp25
ag10
(g14
S'\x13\x83\xc0\n\xbc~#A'
p26
tp27
Rp28
ag10
(g14
S'\xbaV\xc7Da~#A'
p29
tp30
Rp31
ag10
(g14
S'"\x94\xd1\x1b\xd8}#A'
p32
tp33
Rp34
ag10
(g14
S'D\x8bl\xe72~#A'
p35
tp36
Rp37
ag10
(g14
S'\x1b\x92\xa6T\x8e~#A'
p38
tp39
Rp40
ag10
(g14
S'yh\x91\xed\r~#A'
p41
tp42
Rp43
ag10
(g14
S'\x91\xd1\xdbr0~#A'
p44
tp45
Rp46
ag10
(g14
S'j\xc9/\x16\x12\x7f#A'
p47
tp48
Rp49
ag10
(g14
S'\\\x9c}\xb8h~#A'
p50
tp51
Rp52
ag10
(g14
S'}\xe9&\xb1\xc1~#A'
p53
tp54
Rp55
ag10
(g14
S'&\xb0r(\x88}#A'
p56
tp57
Rp58
ag10
(g14
S'\x88j\xbc\xb4[~#A'
p59
tp60
Rp61
ag10
(g14
S'|j\xbc4\xd7~#A'
p62
tp63
Rp64
ag10
(g14
S'\xfd\xd4x\xe9\x01~#A'
p65
tp66
Rp67
ag10
(g14
S'\xc6K7IN~#A'
p68
tp69
Rp70
ag10
(g14
S'Ts!\xe9\x88~#A'
p71
tp72
Rp73
ag10
(g14
S'\xb3\x1e\x85\xebe~#A'
p74
tp75
Rp76
asS'target'
p77
(lp78
g10
(g14
S'\\d;\xdfOeW@'
p79
tp80
Rp81
ag10
(g14
S'\xe3O\x8d\x97n\xb2Y@'
p82
tp83
Rp84
ag10
(g14
S'\xa8p=\n\xd7{X@'
p85
tp86
Rp87
ag10
(g14
S'\xb4rh\x91\xed\xfcX@'
p88
tp89
Rp90
ag10
(g14
S'Y\x8d\x97n\x12\xab\\@'
p91
tp92
Rp93
ag10
(g14
S'\xd3\xce\xf7S\xe3]_@'
p94
tp95
Rp96
ag10
(g14
S'w\xbe\x9f\x1a/\x05Y@'
p97
tp98
Rp99
ag10
(g14
S'0\x06\x81\x95C+[@'
p100
tp101
Rp102
ag10
(g14
S'\x9aE\xb6\xf3\xfd\x84Z@'
p103
tp104
Rp105
ag10
(g14
S'\xe0\xfb\xa9\xf1\xd2=Y@'
p106
tp107
Rp108
ag10
(g14
S'_d;\xdfO\xe5Z@'
p109
tp110
Rp111
ag10
(g14
S'\xbc\xca\xa1E\xb6\x17Y@'
p112
tp113
Rp114
ag10
(g14
S'\xc9K7\x89A\xb8Z@'
p115
tp116
Rp117
ag10
(g14
S'\\\x0e-\xb2\x9dGY@'
p118
tp119
Rp120
ag10
(g14
S'\xbeI\x0c\x02+\xa7Y@'
p121
tp122
Rp123
ag10
(g14
S'\xcf\xcc\xcc\xcc\xcclW@'
p124
tp125
Rp126
ag10
(g14
S'\xe7\xa5\x9b\xc4 \xb0X@'
p127
tp128
Rp129
ag10
(g14
S'!\xaeG\xe1z\x0c^@'
p130
tp131
Rp132
ag10
(g14
S')\xb0rh\x91\xa5Y@'
p133
tp134
Rp135
ag10
(g14
S'\xc3\xf5(\\\x8f\xc2Y@'
p136
tp137
Rp138
asssss.