(dp0
S'../Data/sqlite_71.csv'
p1
(dp2
S'../Data/sqlite_35.csv'
p3
(dp4
F0.35
(dp5
S'abs_res'
p6
(dp7
S'bellwether'
p8
(lp9
cnumpy.core.multiarray
scalar
p10
(cnumpy
dtype
p11
(S'f8'
p12
I0
I1
tp13
Rp14
(I3
S'<'
p15
NNNI-1
I-1
I0
tp16
bS'Q\xe3\xa5\x8f\xc05fA'
p17
tp18
Rp19
ag10
(g14
S't\xe7\xfb\xadY4fA'
p20
tp21
Rp22
ag10
(g14
S'"\xa3\xb79\xcc7fA'
p23
tp24
Rp25
ag10
(g14
S'\xba\x904=90fA'
p26
tp27
Rp28
ag10
(g14
S'M\xb8\x1e\xa9\x88MfA'
p29
tp30
Rp31
ag10
(g14
S'M\xf0`B\x94@fA'
p32
tp33
Rp34
ag10
(g14
S'"\\\x8fz\xd2<fA'
p35
tp36
Rp37
ag10
(g14
S'\xa7\x7f#\xc8$>fA'
p38
tp39
Rp40
ag10
(g14
S')\x94\xd1C\x8a3fA'
p41
tp42
Rp43
ag10
(g14
S'nh\x91\x95\xd2=fA'
p44
tp45
Rp46
ag10
(g14
S'#>\xc3\xce\x075fA'
p47
tp48
Rp49
ag10
(g14
S'\x976\xd0\xed\x951fA'
p50
tp51
Rp52
ag10
(g14
S'\xdf\xdd\xdd\x99"<fA'
p53
tp54
Rp55
ag10
(g14
S' \x13<\x10\xc2@fA'
p56
tp57
Rp58
ag10
(g14
S'\x02\x0f\xe65\xef>fA'
p59
tp60
Rp61
ag10
(g14
S'\x01V\x0e\xd9\xc5EfA'
p62
tp63
Rp64
ag10
(g14
S'Rq\xf6\x9d\xec3fA'
p65
tp66
Rp67
ag10
(g14
S'\x8fPF3\xe1;fA'
p68
tp69
Rp70
ag10
(g14
S'\xf0&1\xcc\x0cEfA'
p71
tp72
Rp73
ag10
(g14
S'\xf0\xe13p6BfA'
p74
tp75
Rp76
asS'target'
p77
(lp78
g10
(g14
S'Qb\x10X9\xacZ@'
p79
tp80
Rp81
ag10
(g14
S'M9\xb4\xc8v\xaeY@'
p82
tp83
Rp84
ag10
(g14
S'\xba\x9f\x1a/\xdd\xa8Y@'
p85
tp86
Rp87
ag10
(g14
S'v\x12\x83\xc0\xca\xa1Z@'
p88
tp89
Rp90
ag10
(g14
S'\xc3 \xb0rh1Y@'
p91
tp92
Rp93
ag10
(g14
S'\xac\xc8v\xbe\x9f\xeaX@'
p94
tp95
Rp96
ag10
(g14
S'\x03V\x0e-\xb2\xd1X@'
p97
tp98
Rp99
ag10
(g14
S'g\x10X9\xb4xZ@'
p100
tp101
Rp102
ag10
(g14
S'G`\xe5\xd0"\xd3Y@'
p103
tp104
Rp105
ag10
(g14
S'C\x8bl\xe7\xfb\xd1Y@'
p106
tp107
Rp108
ag10
(g14
S'\xc2v\xbe\x9f\x1a\xf7Y@'
p109
tp110
Rp111
ag10
(g14
S'\x02V\x0e-\xb2uZ@'
p112
tp113
Rp114
ag10
(g14
S'Lb\x10X9\x1cZ@'
p115
tp116
Rp117
ag10
(g14
S'\x0f\x83\xc0\xca\xa1\rZ@'
p118
tp119
Rp120
ag10
(g14
S'\r\x83\xc0\xca\xa1AZ@'
p121
tp122
Rp123
ag10
(g14
S';5^\xbaIL[@'
p124
tp125
Rp126
ag10
(g14
S'E\x8bl\xe7\xfbAY@'
p127
tp128
Rp129
ag10
(g14
S'\xf6\xfd\xd4x\xe9\xceZ@'
p130
tp131
Rp132
ag10
(g14
S'\xc5\x04\x0f\xe6\x89fZ@'
p133
tp134
Rp135
ag10
(g14
S'#\xd9\xce\xf7S#Y@'
p136
tp137
Rp138
asssss.