(dp0
S'../Data/sqlite_30.csv'
p1
(dp2
S'../Data/sqlite_4.csv'
p3
(dp4
F0.25
(dp5
S'abs_res'
p6
(dp7
S'bellwether'
p8
(lp9
cnumpy.core.multiarray
scalar
p10
(cnumpy
dtype
p11
(S'f8'
p12
I0
I1
tp13
Rp14
(I3
S'<'
p15
NNNI-1
I-1
I0
tp16
bS'\xfc\xff\xff\xbf\xedM=A'
p17
tp18
Rp19
ag10
(g14
S'j\xe7\xfb9\x81M=A'
p20
tp21
Rp22
ag10
(g14
S'E5^\n,Q=A'
p23
tp24
Rp25
ag10
(g14
S' 1\x08\x0c\xeeP=A'
p26
tp27
Rp28
ag10
(g14
S'\xad\x9b\xc4\x80\xe9N=A'
p29
tp30
Rp31
ag10
(g14
S'\x1bZd\x9b\xbfO=A'
p32
tp33
Rp34
ag10
(g14
S'"Zd\x1b\x05Q=A'
p35
tp36
Rp37
ag10
(g14
S'\x9b\xed|\x1f\xadN=A'
p38
tp39
Rp40
ag10
(g14
S'\x83\xc0\xca\xf1\xeeM=A'
p41
tp42
Rp43
ag10
(g14
S'\xe1\xf9~\nqP=A'
p44
tp45
Rp46
ag10
(g14
S'\xb7G\xe1\xfa\xbaM=A'
p47
tp48
Rp49
ag10
(g14
S'\xb0\x1e\x85{7P=A'
p50
tp51
Rp52
ag10
(g14
S'X\xb8\x1e\x15\x96N=A'
p53
tp54
Rp55
ag10
(g14
S'\x04\x00\x00 \xc1N=A'
p56
tp57
Rp58
ag10
(g14
S'\xa4\x9b\xc4\x90"N=A'
p59
tp60
Rp61
ag10
(g14
S'm\x12\x83\xc0"P=A'
p62
tp63
Rp64
ag10
(g14
S'\xcbt\x93\x18>Q=A'
p65
tp66
Rp67
ag10
(g14
S'\xf1&1\xa8tP=A'
p68
tp69
Rp70
ag10
(g14
S'R\xb8\x1e\xc5\xf8O=A'
p71
tp72
Rp73
ag10
(g14
S'\x1fZd{\xa1O=A'
p74
tp75
Rp76
asS'target'
p77
(lp78
g10
(g14
S'/333\xd3F\xd2@'
p79
tp80
Rp81
ag10
(g14
S'2333S-\xd2@'
p82
tp83
Rp84
ag10
(g14
S'\x97\x99\x99\x99\xe9\xa6\xd1@'
p85
tp86
Rp87
ag10
(g14
S'gfff6|\xd1@'
p88
tp89
Rp90
ag10
(g14
S'\x03\x00\x00\x00\xc0\xd7\xd2@'
p91
tp92
Rp93
ag10
(g14
S'pfff\x06e\xd0@'
p94
tp95
Rp96
ag10
(g14
S'1333\x13\x15\xd1@'
p97
tp98
Rp99
ag10
(g14
S',333\xf3\x01\xd2@'
p100
tp101
Rp102
ag10
(g14
S'ffffV\xec\xd1@'
p103
tp104
Rp105
ag10
(g14
S'\x96\x99\x99\x99)\xb0\xd1@'
p106
tp107
Rp108
ag10
(g14
S'cfff\xe6/\xd0@'
p109
tp110
Rp111
ag10
(g14
S'\x95\x99\x99\x999\xe6\xd1@'
p112
tp113
Rp114
ag10
(g14
S'\x9a\x99\x99\x99Y0\xd1@'
p115
tp116
Rp117
ag10
(g14
S'hfff6\xdc\xd0@'
p118
tp119
Rp120
ag10
(g14
S'\xfa\xff\xff\xff\xbfr\xd1@'
p121
tp122
Rp123
ag10
(g14
S'0333cI\xd2@'
p124
tp125
Rp126
ag10
(g14
S',333s\xfb\xd1@'
p127
tp128
Rp129
ag10
(g14
S'ffffFX\xd1@'
p130
tp131
Rp132
ag10
(g14
S'efffV`\xd1@'
p133
tp134
Rp135
ag10
(g14
S'\xff\xff\xff\xff\x1f\xef\xd0@'
p136
tp137
Rp138
asssss.