(dp0
S'../Data/sqlite_66.csv'
p1
(dp2
S'../Data/sqlite_72.csv'
p3
(dp4
F0.1
(dp5
S'abs_res'
p6
(dp7
S'bellwether'
p8
(lp9
cnumpy.core.multiarray
scalar
p10
(cnumpy
dtype
p11
(S'f8'
p12
I0
I1
tp13
Rp14
(I3
S'<'
p15
NNNI-1
I-1
I0
tp16
bS'y\x14\xaeGQR#A'
p17
tp18
Rp19
ag10
(g14
S'\x93\xfcbIaR#A'
p20
tp21
Rp22
ag10
(g14
S'\x008BY"R#A'
p23
tp24
Rp25
ag10
(g14
S'\x04+\x87\x16KR#A'
p26
tp27
Rp28
ag10
(g14
S'\xc1\xf5(\x1ctS#A'
p29
tp30
Rp31
ag10
(g14
S'\x08V\x0e\xed1S#A'
p32
tp33
Rp34
ag10
(g14
S'l\xe7\xfbi\xe1R#A'
p35
tp36
Rp37
ag10
(g14
S'\xc9K7\xc9\xeeR#A'
p38
tp39
Rp40
ag10
(g14
S"?\x98'\xaaqR#A"
p41
tp42
Rp43
ag10
(g14
S'\xf9\xd4x\xe9sQ#A'
p44
tp45
Rp46
ag10
(g14
S'\xe9\xd0"\xdb\xc4R#A'
p47
tp48
Rp49
ag10
(g14
S'\xcb\xf7S\xe3\xb2R#A'
p50
tp51
Rp52
ag10
(g14
S'M7\x89\x81\xbcR#A'
p53
tp54
Rp55
ag10
(g14
S'\xde\xf9~*?S#A'
p56
tp57
Rp58
ag10
(g14
S'\xaf\xaa\xaa\xea\xfcR#A'
p59
tp60
Rp61
ag10
(g14
S'\xc1\x04\x0f\xe6\xfcR#A'
p62
tp63
Rp64
ag10
(g14
S'\x01\xd3M"\xcbR#A'
p65
tp66
Rp67
ag10
(g14
S'\x8b\xa4)\xd5UR#A'
p68
tp69
Rp70
ag10
(g14
S'\xf9\x0c\xbbBKR#A'
p71
tp72
Rp73
ag10
(g14
S'b\xbct\x93;S#A'
p74
tp75
Rp76
asS'target'
p77
(lp78
g10
(g14
S'O\xe1z\x14\xae\xe7T@'
p79
tp80
Rp81
ag10
(g14
S'\xc0I\x0c\x02+\x97T@'
p82
tp83
Rp84
ag10
(g14
S'\x1eZd;\xdf?X@'
p85
tp86
Rp87
ag10
(g14
S'mffff\x0eV@'
p88
tp89
Rp90
ag10
(g14
S'\xb1\xf1\xd2Mb\x90S@'
p91
tp92
Rp93
ag10
(g14
S'\xe3$\x06\x81\x953V@'
p94
tp95
Rp96
ag10
(g14
S'\x90\xebQ\xb8\x1e\x99U@'
p97
tp98
Rp99
ag10
(g14
S'R\x0e-\xb2\x9d\xe7U@'
p100
tp101
Rp102
ag10
(g14
S'\xc4\x1e\x85\xebQ`V@'
p103
tp104
Rp105
ag10
(g14
S'\xa9\x1a/\xdd$^V@'
p106
tp107
Rp108
ag10
(g14
S'&\xb0rh\x91-T@'
p109
tp110
Rp111
ag10
(g14
S'[\x8f\xc2\xf5(\xfcV@'
p112
tp113
Rp114
ag10
(g14
S'd\xe5\xd0"\xdb\x11V@'
p115
tp116
Rp117
ag10
(g14
S'8\xdd$\x06\x81\xb5V@'
p118
tp119
Rp120
ag10
(g14
S'\xef\xa5\x9b\xc4 |U@'
p121
tp122
Rp123
ag10
(g14
S'\xe3O\x8d\x97n"T@'
p124
tp125
Rp126
ag10
(g14
S'\x7f\x14\xaeG\xe1ZU@'
p127
tp128
Rp129
ag10
(g14
S'\xe6$\x06\x81\x95\xdbU@'
p130
tp131
Rp132
ag10
(g14
S'\x17-\xb2\x9d\xef\x7fT@'
p133
tp134
Rp135
ag10
(g14
S'M\x0c\x02+\x87NS@'
p136
tp137
Rp138
asssss.