(dp0
S'../Data/sqlite_60.csv'
p1
(dp2
S'../Data/sqlite_3.csv'
p3
(dp4
F0.15
(dp5
S'abs_res'
p6
(dp7
S'bellwether'
p8
(lp9
cnumpy.core.multiarray
scalar
p10
(cnumpy
dtype
p11
(S'f8'
p12
I0
I1
tp13
Rp14
(I3
S'<'
p15
NNNI-1
I-1
I0
tp16
bS'\x82\xc0\xca\xe5\xdc1hA'
p17
tp18
Rp19
ag10
(g14
S'?\xee5\xd7\xed8hA'
p20
tp21
Rp22
ag10
(g14
S'\xdc$\x06\xdd\xd75hA'
p23
tp24
Rp25
ag10
(g14
S'\xb8\x1e\x85?Z.hA'
p26
tp27
Rp28
ag10
(g14
S'\xacp=\xa6_5hA'
p29
tp30
Rp31
ag10
(g14
S'w\xe7\xfb=K0hA'
p32
tp33
Rp34
ag10
(g14
S'#\x06\x81\xb5\x993hA'
p35
tp36
Rp37
ag10
(g14
S'\xfa\xa9\xf1v\xed5hA'
p38
tp39
Rp40
ag10
(g14
S'|j\xbc\xc8\xdf0hA'
p41
tp42
Rp43
ag10
(g14
S'J\xc5\xd93T3hA'
p44
tp45
Rp46
ag10
(g14
S'H\x0c\x02\x7f\xab/hA'
p47
tp48
Rp49
ag10
(g14
S'e\xbct\xf3\xd81hA'
p50
tp51
Rp52
ag10
(g14
S'v\xe9&\x85\xd73hA'
p53
tp54
Rp55
ag10
(g14
S'&\x06\x815%&hA'
p56
tp57
Rp58
ag10
(g14
S'\x92\xa6Tt/,hA'
p59
tp60
Rp61
ag10
(g14
S'\x0b-\xb2\xa9\xdb0hA'
p62
tp63
Rp64
ag10
(g14
S"\xec\xd2MNk'hA"
p65
tp66
Rp67
ag10
(g14
S'\x1e\x04V\x82\x99/hA'
p68
tp69
Rp70
ag10
(g14
S'\xc6>|N$7hA'
p71
tp72
Rp73
ag10
(g14
S'\xff\xe3^\x9f\xfe2hA'
p74
tp75
Rp76
asS'target'
p77
(lp78
g10
(g14
S'<\xdfO\x8d\x97\xd6n@'
p79
tp80
Rp81
ag10
(g14
S'\x80\x95C\x8bl\xd7l@'
p82
tp83
Rp84
ag10
(g14
S'\x98\xc4 \xb0r,m@'
p85
tp86
Rp87
ag10
(g14
S'\xde\xce\xf7S\xe3\xddo@'
p88
tp89
Rp90
ag10
(g14
S'Bb\x10X9\xacm@'
p91
tp92
Rp93
ag10
(g14
S'\x91\xed|?5Vl@'
p94
tp95
Rp96
ag10
(g14
S'\xe7\xfb\xa9\xf1\xd2{k@'
p97
tp98
Rp99
ag10
(g14
S'\xf1(\\\x8f\xc2on@'
p100
tp101
Rp102
ag10
(g14
S'\x94\xc2\xf5(\\\x8bl@'
p103
tp104
Rp105
ag10
(g14
S'p\x12\x83\xc0\xcaYn@'
p106
tp107
Rp108
ag10
(g14
S'\x91\xed|?58p@'
p109
tp110
Rp111
ag10
(g14
S'\xc4\xca\xa1E\xb6=p@'
p112
tp113
Rp114
ag10
(g14
S'c\xe7\xfb\xa9\xf1\\q@'
p115
tp116
Rp117
ag10
(g14
S'\xd9\xf9~j\xbc\xf2p@'
p118
tp119
Rp120
ag10
(g14
S'\xb2\x1cZd;ep@'
p121
tp122
Rp123
ag10
(g14
S'xh\x91\xed|ol@'
p124
tp125
Rp126
ag10
(g14
S'\x1a/\xdd$\x06\x1fr@'
p127
tp128
Rp129
ag10
(g14
S'Y\xe3\xa5\x9b\xc4fp@'
p130
tp131
Rp132
ag10
(g14
S'\xe7\xa5\x9b\xc4 \x1fp@'
p133
tp134
Rp135
ag10
(g14
S'\xb7\xc8v\xbe\x9f\xf6n@'
p136
tp137
Rp138
asssss.