(dp0
S'../Data/sqlite_74.csv'
p1
(dp2
S'../Data/sqlite_61.csv'
p3
(dp4
F0.4
(dp5
S'abs_res'
p6
(dp7
S'bellwether'
p8
(lp9
cnumpy.core.multiarray
scalar
p10
(cnumpy
dtype
p11
(S'f8'
p12
I0
I1
tp13
Rp14
(I3
S'<'
p15
NNNI-1
I-1
I0
tp16
bS'\xa3p=Z\xc9LdA'
p17
tp18
Rp19
ag10
(g14
S'}?5n\xaaPdA'
p20
tp21
Rp22
ag10
(g14
S'4\xec\n\xc87GdA'
p23
tp24
Rp25
ag10
(g14
S'\x10\xf3D!\x97CdA'
p26
tp27
Rp28
ag10
(g14
S'\x18\x83\xc02\x8eQdA'
p29
tp30
Rp31
ag10
(g14
S'\xe0\x17K\xf6;KdA'
p32
tp33
Rp34
ag10
(g14
S'^H\x9a\xfe\x8e?dA'
p35
tp36
Rp37
ag10
(g14
S'\x89\xfa7\x1amFdA'
p38
tp39
Rp40
ag10
(g14
S'\xcfi\x03\xfd\x86RdA'
p41
tp42
Rp43
ag10
(g14
S'w\x05\xc8\xe1;BdA'
p44
tp45
Rp46
ag10
(g14
S'>o\xcb\x86\xfbFdA'
p47
tp48
Rp49
ag10
(g14
S'z\xe9&i\xd3=dA'
p50
tp51
Rp52
ag10
(g14
S'\xb4:&\xccjIdA'
p53
tp54
Rp55
ag10
(g14
S'\xa0\xfe\x8d\x18\xd9>dA'
p56
tp57
Rp58
ag10
(g14
S'\xc0<Q\x8brSdA'
p59
tp60
Rp61
ag10
(g14
S'u\x93\x18\x0c\xaaEdA'
p62
tp63
Rp64
ag10
(g14
S'V\xffF`\xebRdA'
p65
tp66
Rp67
ag10
(g14
S'\xdd$\x06\xe1vRdA'
p68
tp69
Rp70
ag10
(g14
S'\x1eZd\xbfAAdA'
p71
tp72
Rp73
ag10
(g14
S'\x976\xd01\x80TdA'
p74
tp75
Rp76
asS'target'
p77
(lp78
g10
(g14
S'i\x12\x83\xc0\xca\xb7p@'
p79
tp80
Rp81
ag10
(g14
S'8\x89A`\xe5\xdfp@'
p82
tp83
Rp84
ag10
(g14
S'233333p@'
p85
tp86
Rp87
ag10
(g14
S'\xb9\xf3\xfd\xd4xYl@'
p88
tp89
Rp90
ag10
(g14
S'p\x93\x18\x04V\xcfq@'
p91
tp92
Rp93
ag10
(g14
S'\x91\xc2\xf5(\\\xbfk@'
p94
tp95
Rp96
ag10
(g14
S'\xed&1\x08\xacGq@'
p97
tp98
Rp99
ag10
(g14
S'\x0c-\xb2\x9d\xef\x0fo@'
p100
tp101
Rp102
ag10
(g14
S'\x92\x97n\x12\x83Po@'
p103
tp104
Rp105
ag10
(g14
S'\xb6\xc8v\xbe\x9f\x93r@'
p106
tp107
Rp108
ag10
(g14
S'effff$n@'
p109
tp110
Rp111
ag10
(g14
S'K7\x89A`\x08q@'
p112
tp113
Rp114
ag10
(g14
S'\x9cE\xb6\xf3\xfd\xeaq@'
p115
tp116
Rp117
ag10
(g14
S'\x8a\xed|?5\xe0n@'
p118
tp119
Rp120
ag10
(g14
S'_;\xdfO\x8deo@'
p121
tp122
Rp123
ag10
(g14
S'X\x0e-\xb2\x9dRq@'
p124
tp125
Rp126
ag10
(g14
S'\xd8x\xe9&1\x10o@'
p127
tp128
Rp129
ag10
(g14
S'\x89j\xbct\x93\x00o@'
p130
tp131
Rp132
ag10
(g14
S'\x95n\x12\x83\xc0\xdan@'
p133
tp134
Rp135
ag10
(g14
S'\xc9\xa1E\xb6\xf3\xaep@'
p136
tp137
Rp138
asssss.