(dp0
S'../Data/sqlite_67.csv'
p1
(dp2
S'../Data/sqlite_75.csv'
p3
(dp4
F0.05
(dp5
S'abs_res'
p6
(dp7
S'bellwether'
p8
(lp9
cnumpy.core.multiarray
scalar
p10
(cnumpy
dtype
p11
(S'f8'
p12
I0
I1
tp13
Rp14
(I3
S'<'
p15
NNNI-1
I-1
I0
tp16
bS'\xab\x1cZd~;$A'
p17
tp18
Rp19
ag10
(g14
S'\xe2$\x06A\x0e<$A'
p20
tp21
Rp22
ag10
(g14
S'Rb\x10X\x85;$A'
p23
tp24
Rp25
ag10
(g14
S'\x94\xc4 \xb0t;$A'
p26
tp27
Rp28
ag10
(g14
S'\xda\xf9~\xaa\xcd;$A'
p29
tp30
Rp31
ag10
(g14
S'\xbf\x9f\x1a\xef\x1f;$A'
p32
tp33
Rp34
ag10
(g14
S'\xce"\xdb\xf9d;$A'
p35
tp36
Rp37
ag10
(g14
S'\xafrh\x11\xf3:$A'
p38
tp39
Rp40
ag10
(g14
S't=\n\x97\x90;$A'
p41
tp42
Rp43
ag10
(g14
S'\t\xac\x1cZ\xa1;$A'
p44
tp45
Rp46
ag10
(g14
S'\xcd\xbd\xe6B<;$A'
p47
tp48
Rp49
ag10
(g14
S'\xb2\xc8v>U;$A'
p50
tp51
Rp52
ag10
(g14
S'f\xbct\x93\xfc;$A'
p53
tp54
Rp55
ag10
(g14
S'\xe2\xa5\x9bD~;$A'
p56
tp57
Rp58
ag10
(g14
S'V\xc7\x04\xcf\xbc;$A'
p59
tp60
Rp61
ag10
(g14
S'\xd5x\xe9f\xd9;$A'
p62
tp63
Rp64
ag10
(g14
S'\x8f\x16\xd9\x8e\xce;$A'
p65
tp66
Rp67
ag10
(g14
S'F7\x89\xc1y;$A'
p68
tp69
Rp70
ag10
(g14
S'\xbbI\x0c\x82\x83;$A'
p71
tp72
Rp73
ag10
(g14
S'qh\x91\xad\x98;$A'
p74
tp75
Rp76
asS'target'
p77
(lp78
g10
(g14
S')\x06\x81\x95C?b@'
p79
tp80
Rp81
ag10
(g14
S'\xad\x1cZd;\x8fa@'
p82
tp83
Rp84
ag10
(g14
S'\x00\xac\x1cZd\x07b@'
p85
tp86
Rp87
ag10
(g14
S'\x0c\x81\x95C\x8b\x98b@'
p88
tp89
Rp90
ag10
(g14
S'\xba\x1e\x85\xebQ\x00a@'
p91
tp92
Rp93
ag10
(g14
S'\x08\xaa\xf1\xd2M6`@'
p94
tp95
Rp96
ag10
(g14
S'\x18Zd;\xdf\x87a@'
p97
tp98
Rp99
ag10
(g14
S'p\xbe\x9f\x1a/\x01b@'
p100
tp101
Rp102
ag10
(g14
S'\xf8\xfd\xd4x\xe9\xca`@'
p103
tp104
Rp105
ag10
(g14
S'*3333k`@'
p106
tp107
Rp108
ag10
(g14
S"\x8f\xc2\xf5(\\'^@"
p109
tp110
Rp111
ag10
(g14
S'\xca\xf7S\xe3\xa5\x8f`@'
p112
tp113
Rp114
ag10
(g14
S'\xbf\xf5(\\\x8fba@'
p115
tp116
Rp117
ag10
(g14
S'\x97C\x8bl\xe7Gb@'
p118
tp119
Rp120
ag10
(g14
S'\xc8K7\x89Ah_@'
p121
tp122
Rp123
ag10
(g14
S'\x86l\xe7\xfb\xa9a_@'
p124
tp125
Rp126
ag10
(g14
S'\xd0"\xdb\xf9~fa@'
p127
tp128
Rp129
ag10
(g14
S'\x90j\xbct\x93X]@'
p130
tp131
Rp132
ag10
(g14
S'\x12X9\xb4\xc8\xceb@'
p133
tp134
Rp135
ag10
(g14
S'\x9f\xf1\xd2Mb\xecb@'
p136
tp137
Rp138
asssss.