(dp0
S'../Data/sqlite_31.csv'
p1
(dp2
S'../Data/sqlite_94.csv'
p3
(dp4
F0.35
(dp5
S'mmre'
p6
(dp7
S'bellwether'
p8
(lp9
cnumpy.core.multiarray
scalar
p10
(cnumpy
dtype
p11
(S'f8'
p12
I0
I1
tp13
Rp14
(I3
S'<'
p15
NNNI-1
I-1
I0
tp16
bS'\x91\xf6\xfdQ\xe7.X@'
p17
tp18
Rp19
ag10
(g14
S'\xfb\xdbm\x97\xc04X@'
p20
tp21
Rp22
ag10
(g14
S'\x88\x93%\n1/X@'
p23
tp24
Rp25
ag10
(g14
S'\xf0$\xa7hV1X@'
p26
tp27
Rp28
ag10
(g14
S'U\x1b\x07x\xc71X@'
p29
tp30
Rp31
ag10
(g14
S'I\xd0\x0e\xffR0X@'
p32
tp33
Rp34
ag10
(g14
S'\xfb^&\x84\xbb0X@'
p35
tp36
Rp37
ag10
(g14
S'\xe6K\x91 \xd0.X@'
p38
tp39
Rp40
ag10
(g14
S'\xe2\xf8\x00s(2X@'
p41
tp42
Rp43
ag10
(g14
S'\x97\x05o~\x981X@'
p44
tp45
Rp46
ag10
(g14
S'\xa0U\xfe`\xd41X@'
p47
tp48
Rp49
ag10
(g14
S'\x0c9+VY0X@'
p50
tp51
Rp52
ag10
(g14
S'\x8a\xee\xb4U\x8b/X@'
p53
tp54
Rp55
ag10
(g14
S'}\\\xb0\xd8E0X@'
p56
tp57
Rp58
ag10
(g14
S"'\xb5\xd3\xe1J3X@"
p59
tp60
Rp61
ag10
(g14
S'\xad\xc3?:(2X@'
p62
tp63
Rp64
ag10
(g14
S'eD\xff\x0e\xe21X@'
p65
tp66
Rp67
ag10
(g14
S'\xd0G\xc3kd2X@'
p68
tp69
Rp70
ag10
(g14
S"\xfc\x8e\x82'\x182X@"
p71
tp72
Rp73
ag10
(g14
S'\x13\xc6Z\xdfu2X@'
p74
tp75
Rp76
asS'target'
p77
(lp78
g10
(g14
S'\xb6\x81F@\x1d\x8eR@'
p79
tp80
Rp81
ag10
(g14
S'6[\xcb\xb5\xa83P@'
p82
tp83
Rp84
ag10
(g14
S'\xaf#M\xa7I\xb2P@'
p85
tp86
Rp87
ag10
(g14
S'\xf3\x04ke\x8bbF@'
p88
tp89
Rp90
ag10
(g14
S'\xca5@\xd6x\xe3Q@'
p91
tp92
Rp93
ag10
(g14
S'\x16\xb5y\xde\xb9`T@'
p94
tp95
Rp96
ag10
(g14
S'\xdbL\x1eG9\x9dU@'
p97
tp98
Rp99
ag10
(g14
S'\xb6\x1ep\xa1\xf0\x08Q@'
p100
tp101
Rp102
ag10
(g14
S'\xa57K\x13<\x8aN@'
p103
tp104
Rp105
ag10
(g14
S'\xdcuMq\x92\x17S@'
p106
tp107
Rp108
ag10
(g14
S'\xf2\xc0\xb0\xd5\x13\xd4K@'
p109
tp110
Rp111
ag10
(g14
S'\x0f\xef)i\tqS@'
p112
tp113
Rp114
ag10
(g14
S'hh\x90\x03\x91CQ@'
p115
tp116
Rp117
ag10
(g14
S'&!i\xb2\x84\xbdO@'
p118
tp119
Rp120
ag10
(g14
S'\xd4\r\x05\xa4\xa5KT@'
p121
tp122
Rp123
ag10
(g14
S'r1\xd8\x14s\x7fQ@'
p124
tp125
Rp126
ag10
(g14
S'\x91-u\xdf\xab\xafQ@'
p127
tp128
Rp129
ag10
(g14
S'jk\xae\xcc\xc4\xd8R@'
p130
tp131
Rp132
ag10
(g14
S'9\xde#\x85\x16\rS@'
p133
tp134
Rp135
ag10
(g14
S'x\x9f\xd5\x08\xd4jG@'
p136
tp137
Rp138
asssss.