(dp0
S'../Data/sqlite_18.csv'
p1
(dp2
S'../Data/sqlite_51.csv'
p3
(dp4
F0.1
(dp5
S'abs_res'
p6
(dp7
S'bellwether'
p8
(lp9
cnumpy.core.multiarray
scalar
p10
(cnumpy
dtype
p11
(S'f8'
p12
I0
I1
tp13
Rp14
(I3
S'<'
p15
NNNI-1
I-1
I0
tp16
bS'^\xbaI\xcc\xe3|AA'
p17
tp18
Rp19
ag10
(g14
S'X\x8f\xc2u\xf9|AA'
p20
tp21
Rp22
ag10
(g14
S'/\x08\xac\x1c,}AA'
p23
tp24
Rp25
ag10
(g14
S'g\xbct\xe3\x98|AA'
p26
tp27
Rp28
ag10
(g14
S'$""\xf2\xea|AA'
p29
tp30
Rp31
ag10
(g14
S'/\x96\xfc\xa2\xca|AA'
p32
tp33
Rp34
ag10
(g14
S'\x04\xe4^\xd3\xcb|AA'
p35
tp36
Rp37
ag10
(g14
S'\xbbX\xf2k\x91}AA'
p38
tp39
Rp40
ag10
(g14
S'9\x17\x92&t}AA'
p41
tp42
Rp43
ag10
(g14
S'=\n\xd7S5}AA'
p44
tp45
Rp46
ag10
(g14
S'\x9e\xc4 @\x03}AA'
p47
tp48
Rp49
ag10
(g14
S'A5^\x1a\xbe|AA'
p50
tp51
Rp52
ag10
(g14
S'FDDtm}AA'
p53
tp54
Rp55
ag10
(g14
S'\x8f\xc2\xf5\xb8\xfb|AA'
p56
tp57
Rp58
ag10
(g14
S'\xb8I\x0c\x12\xb6}AA'
p59
tp60
Rp61
ag10
(g14
S'\xd3\\Hz\x04}AA'
p62
tp63
Rp64
ag10
(g14
S'Q\xc7\x04\xaf\xeb|AA'
p65
tp66
Rp67
ag10
(g14
S'\xfcb\xc9\x7f\xe4|AA'
p68
tp69
Rp70
ag10
(g14
S'\xe8|?\x956}AA'
p71
tp72
Rp73
ag10
(g14
S'7\n\xd7\xf3\xa3}AA'
p74
tp75
Rp76
asS'target'
p77
(lp78
g10
(g14
S'\x14V\x0e-\xb2\x8dA@'
p79
tp80
Rp81
ag10
(g14
S'^d;\xdfO]D@'
p82
tp83
Rp84
ag10
(g14
S'\xd3Mb\x10X9C@'
p85
tp86
Rp87
ag10
(g14
S'\x80\xebQ\xb8\x1e\xe5D@'
p88
tp89
Rp90
ag10
(g14
S'-\xb0rh\x91=F@'
p91
tp92
Rp93
ag10
(g14
S'\xb9\xf3\xfd\xd4x\xc9@@'
p94
tp95
Rp96
ag10
(g14
S'\x99\x99\x99\x99\x99\xe9@@'
p97
tp98
Rp99
ag10
(g14
S'\xe4O\x8d\x97n\xa2D@'
p100
tp101
Rp102
ag10
(g14
S'}\xc0\xca\xa1E\xa6A@'
p103
tp104
Rp105
ag10
(g14
S'\x99C\x8bl\xe7\xcbE@'
p106
tp107
Rp108
ag10
(g14
S'E5^\xbaILE@'
p109
tp110
Rp111
ag10
(g14
S'\xd4Mb\x10X\xd9C@'
p112
tp113
Rp114
ag10
(g14
S'\xf4|?5^\nB@'
p115
tp116
Rp117
ag10
(g14
S'\x9f\xef\xa7\xc6K\xe7E@'
p118
tp119
Rp120
ag10
(g14
S'\xc4t\x93\x18\x04\x06B@'
p121
tp122
Rp123
ag10
(g14
S'n\xe7\xfb\xa9\xf1\nA@'
p124
tp125
Rp126
ag10
(g14
S'\x9cl\xe7\xfb\xa9\x11?@'
p127
tp128
Rp129
ag10
(g14
S')\x06\x81\x95C+@@'
p130
tp131
Rp132
ag10
(g14
S'\xf5\xd2Mb\x10\xc8C@'
p133
tp134
Rp135
ag10
(g14
S'\x7f?5^\xba\xe9>@'
p136
tp137
Rp138
asssss.