(dp0
S'../Data/sqlite_84.csv'
p1
(dp2
S'../Data/sqlite_87.csv'
p3
(dp4
F0.1
(dp5
S'mmre'
p6
(dp7
S'bellwether'
p8
(lp9
cnumpy.core.multiarray
scalar
p10
(cnumpy
dtype
p11
(S'f8'
p12
I0
I1
tp13
Rp14
(I3
S'<'
p15
NNNI-1
I-1
I0
tp16
bS'>(<D\xffbH@'
p17
tp18
Rp19
ag10
(g14
S'\xf0\xbc\xd6\xd3G\x83H@'
p20
tp21
Rp22
ag10
(g14
S'\x8f\xfc2\x173rH@'
p23
tp24
Rp25
ag10
(g14
S'\x99*\xaa\x91"hH@'
p26
tp27
Rp28
ag10
(g14
S'V\xbc\x8d;\xccsH@'
p29
tp30
Rp31
ag10
(g14
S'\xf9\x19\xefWWsH@'
p32
tp33
Rp34
ag10
(g14
S'e\xcer\xf9\xbfzH@'
p35
tp36
Rp37
ag10
(g14
S'\xc2AN\x0bzfH@'
p38
tp39
Rp40
ag10
(g14
S'\x03\xe5\x97R\xfdmH@'
p41
tp42
Rp43
ag10
(g14
S'\x1e \xc5\xcf;fH@'
p44
tp45
Rp46
ag10
(g14
S'\xdaL}\xa2\x10uH@'
p47
tp48
Rp49
ag10
(g14
S'\x93%\xaaQ\xa8cH@'
p50
tp51
Rp52
ag10
(g14
S'\rBhe\x9flH@'
p53
tp54
Rp55
ag10
(g14
S'rg\x90\xb7onH@'
p56
tp57
Rp58
ag10
(g14
S'4VO\xd1=gH@'
p59
tp60
Rp61
ag10
(g14
S'B\xc2eY\xe7cH@'
p62
tp63
Rp64
ag10
(g14
S'\xb4\xb3e\xca\xcfdH@'
p65
tp66
Rp67
ag10
(g14
S'8k\xe5\xee\x92_H@'
p68
tp69
Rp70
ag10
(g14
S'\x93\x96\xf4\xca\x91kH@'
p71
tp72
Rp73
ag10
(g14
S'\xcf\x06~\x15\xba[H@'
p74
tp75
Rp76
asS'target'
p77
(lp78
g10
(g14
S'o\xe0\xce\xe0,OI@'
p79
tp80
Rp81
ag10
(g14
S'P{\xc8B\xa9\tR@'
p82
tp83
Rp84
ag10
(g14
S'e(\xe9\xbd\x12\xf9[@'
p85
tp86
Rp87
ag10
(g14
S'\xd5P\xd9\xac\x9fiR@'
p88
tp89
Rp90
ag10
(g14
S'\xe2= \xe4\xdb\xceR@'
p91
tp92
Rp93
ag10
(g14
S'^\xaa\xbd\x02\x17 Q@'
p94
tp95
Rp96
ag10
(g14
S'\xb7\xbc5I\xec;S@'
p97
tp98
Rp99
ag10
(g14
S'\xe9bGP_\xb0I@'
p100
tp101
Rp102
ag10
(g14
S'Gq9<\xb3\xd0Q@'
p103
tp104
Rp105
ag10
(g14
S'\x07\x9c\x98\xec\x8b\x06J@'
p106
tp107
Rp108
ag10
(g14
S'\x06\x05>9\x90YN@'
p109
tp110
Rp111
ag10
(g14
S'x\x9f\xda\xded\xa4P@'
p112
tp113
Rp114
ag10
(g14
S'*\xd9\x1eW \x17J@'
p115
tp116
Rp117
ag10
(g14
S'\xf4\xeaa_\x00\xf1L@'
p118
tp119
Rp120
ag10
(g14
S'\x81\x8e\xf8\x1e\xe3hT@'
p121
tp122
Rp123
ag10
(g14
S'bpJ\xd4\xa2nP@'
p124
tp125
Rp126
ag10
(g14
S'x\xb5\xbc\xd8R\x04V@'
p127
tp128
Rp129
ag10
(g14
S'\xdd(m\\\x823V@'
p130
tp131
Rp132
ag10
(g14
S'\xd2g\xd2\x08\xb7*K@'
p133
tp134
Rp135
ag10
(g14
S'5`aB\xc1?T@'
p136
tp137
Rp138
asssss.