(dp0
S'../Data/sqlite_23.csv'
p1
(dp2
S'../Data/sqlite_78.csv'
p3
(dp4
F0.25
(dp5
S'mmre'
p6
(dp7
S'bellwether'
p8
(lp9
cnumpy.core.multiarray
scalar
p10
(cnumpy
dtype
p11
(S'f8'
p12
I0
I1
tp13
Rp14
(I3
S'<'
p15
NNNI-1
I-1
I0
tp16
bS'Q\x14\xf0\xa0\xd3(T@'
p17
tp18
Rp19
ag10
(g14
S"\xa9\x0b\xab\xfe\xe4'T@"
p20
tp21
Rp22
ag10
(g14
S'\t\xa8\xe9>\xee"T@'
p23
tp24
Rp25
ag10
(g14
S'wh\xa4LX T@'
p26
tp27
Rp28
ag10
(g14
S'\xa0h\x0c\x90\x0e%T@'
p29
tp30
Rp31
ag10
(g14
S'5\xb25\xdd\xe8$T@'
p32
tp33
Rp34
ag10
(g14
S'HCD-l T@'
p35
tp36
Rp37
ag10
(g14
S'U\xce}R\xc7\x1fT@'
p38
tp39
Rp40
ag10
(g14
S'\xba-\x19il&T@'
p41
tp42
Rp43
ag10
(g14
S'idH\x16a&T@'
p44
tp45
Rp46
ag10
(g14
S'\xaf\xf10\x01\x96%T@'
p47
tp48
Rp49
ag10
(g14
S's\x97\xe2:$ T@'
p50
tp51
Rp52
ag10
(g14
S'\xa5\xa9V\xfd\xe2"T@'
p53
tp54
Rp55
ag10
(g14
S'),\x8c\xd2\x81$T@'
p56
tp57
Rp58
ag10
(g14
S'"g\xa1$\x16\'T@'
p59
tp60
Rp61
ag10
(g14
S'\x9f>\xabk\xb6(T@'
p62
tp63
Rp64
ag10
(g14
S'c\x90ge\x0e%T@'
p65
tp66
Rp67
ag10
(g14
S'=\xf6\x9f\xfd\x13&T@'
p68
tp69
Rp70
ag10
(g14
S'\xf56\x95\xc4\xde&T@'
p71
tp72
Rp73
ag10
(g14
S'd\xcd\x93\x04\x10%T@'
p74
tp75
Rp76
asS'target'
p77
(lp78
g10
(g14
S'Y\x0c\xf0\xd0}.4@'
p79
tp80
Rp81
ag10
(g14
S'\xd9\x8a\x10T\x00\x863@'
p82
tp83
Rp84
ag10
(g14
S'\xa8Y\xbd(\x8f\x153@'
p85
tp86
Rp87
ag10
(g14
S'`_$"\x1f\xe13@'
p88
tp89
Rp90
ag10
(g14
S'\xf0\xb6q\xce\x0ev2@'
p91
tp92
Rp93
ag10
(g14
S'\xf1\xa1^\xcb\xa6%5@'
p94
tp95
Rp96
ag10
(g14
S'5%\x91\xde\x19\xb04@'
p97
tp98
Rp99
ag10
(g14
S'\x1a\x94b\xa5\x81\xb22@'
p100
tp101
Rp102
ag10
(g14
S'V\xdf\x8a\x8c\x83L3@'
p103
tp104
Rp105
ag10
(g14
S'\xf0\n\x90K\x80/3@'
p106
tp107
Rp108
ag10
(g14
S'\x9c0AU\x01\xdf3@'
p109
tp110
Rp111
ag10
(g14
S'\x97\x0e\x9f%\xd5\x944@'
p112
tp113
Rp114
ag10
(g14
S'\xccG\x91\x19\xa8S3@'
p115
tp116
Rp117
ag10
(g14
S'f\x1a_Z#T2@'
p118
tp119
Rp120
ag10
(g14
S'x\x1b\x05\xb8\x00^4@'
p121
tp122
Rp123
ag10
(g14
S'U\xd5\xae1\x9a$3@'
p124
tp125
Rp126
ag10
(g14
S'\x8b\xebk\xee2\xd92@'
p127
tp128
Rp129
ag10
(g14
S'\x93[o\tq\xfc3@'
p130
tp131
Rp132
ag10
(g14
S'\x7f\xf8=d\x8363@'
p133
tp134
Rp135
ag10
(g14
S'MsU\x94+O3@'
p136
tp137
Rp138
asssss.