(dp0
S'../Data/sqlite_28.csv'
p1
(dp2
S'../Data/sqlite_93.csv'
p3
(dp4
F0.05
(dp5
S'mmre'
p6
(dp7
S'bellwether'
p8
(lp9
cnumpy.core.multiarray
scalar
p10
(cnumpy
dtype
p11
(S'f8'
p12
I0
I1
tp13
Rp14
(I3
S'<'
p15
NNNI-1
I-1
I0
tp16
bS'<6\\aT\x81p@'
p17
tp18
Rp19
ag10
(g14
S'\xb0\x9c\x8a^Z}p@'
p20
tp21
Rp22
ag10
(g14
S'\xf6h\xa1\x00\xce\x83p@'
p23
tp24
Rp25
ag10
(g14
S'9:j\x7fK\x99p@'
p26
tp27
Rp28
ag10
(g14
S'[\x9d\xbd)7\x8cp@'
p29
tp30
Rp31
ag10
(g14
S']\xf1\xfbN?\x91p@'
p32
tp33
Rp34
ag10
(g14
S'.\x1ba\\\\\x90p@'
p35
tp36
Rp37
ag10
(g14
S'\x15\xe4n\x1fN\x82p@'
p38
tp39
Rp40
ag10
(g14
S'x\xf0\x12\x12\x16zp@'
p41
tp42
Rp43
ag10
(g14
S'L#\xb6h\xefzp@'
p44
tp45
Rp46
ag10
(g14
S'@\x03\x82r\x10\x84p@'
p47
tp48
Rp49
ag10
(g14
S'\xceqPP*\x85p@'
p50
tp51
Rp52
ag10
(g14
S'\xde\xa7.6[\x88p@'
p53
tp54
Rp55
ag10
(g14
S'B\xeeG\xd9\xf9}p@'
p56
tp57
Rp58
ag10
(g14
S'\xce\xdc\x07V{\x8fp@'
p59
tp60
Rp61
ag10
(g14
S'\xbe@oN\xc7{p@'
p62
tp63
Rp64
ag10
(g14
S'o\x88~/}\x91p@'
p65
tp66
Rp67
ag10
(g14
S'K\xb8\x9d\n\x02\x81p@'
p68
tp69
Rp70
ag10
(g14
S'\x1a\xb3\xb7\xed\r\x8ep@'
p71
tp72
Rp73
ag10
(g14
S'T\x1c$NAzp@'
p74
tp75
Rp76
asS'target'
p77
(lp78
g10
(g14
S'U\x8c\xd2\xb6f\x91M@'
p79
tp80
Rp81
ag10
(g14
S'\x85@\xc9\xbbA\xbfF@'
p82
tp83
Rp84
ag10
(g14
S'\xd5j\xb2K\xbf\xb4\\@'
p85
tp86
Rp87
ag10
(g14
S'\xbaihU\xaa\xfeS@'
p88
tp89
Rp90
ag10
(g14
S'\xbe/1U\x1d\xb8V@'
p91
tp92
Rp93
ag10
(g14
S'x:\x9f\xaf\xe5\xc1K@'
p94
tp95
Rp96
ag10
(g14
S'\xcc\x8e+i=\xc7_@'
p97
tp98
Rp99
ag10
(g14
S'k\t\xcd?*\\P@'
p100
tp101
Rp102
ag10
(g14
S'!\xf090\xa0\x95L@'
p103
tp104
Rp105
ag10
(g14
S'9;\x13OtxN@'
p106
tp107
Rp108
ag10
(g14
S'\x0f\x8a\x91\x0e\xe1\xaec@'
p109
tp110
Rp111
ag10
(g14
S'\xfc\n?\xd6-\xed[@'
p112
tp113
Rp114
ag10
(g14
S'\x98\xb2Er\xfe\xc6E@'
p115
tp116
Rp117
ag10
(g14
S'\x95\x8d\x86n<\xd1c@'
p118
tp119
Rp120
ag10
(g14
S'L\xf9\x1c\xde\xab\x83W@'
p121
tp122
Rp123
ag10
(g14
S'\xc7\xb8\xf5\xa1\xbf\xc0C@'
p124
tp125
Rp126
ag10
(g14
S'\xc8\x8c\x80,.]Y@'
p127
tp128
Rp129
ag10
(g14
S'\xadD\x1b\xdb\xaa\x96Y@'
p130
tp131
Rp132
ag10
(g14
S'\xba\xa3\xbe\r\xcb\xc6P@'
p133
tp134
Rp135
ag10
(g14
S'\x17\x8fLPc#X@'
p136
tp137
Rp138
asssss.