(dp0
S'../Data/sqlite_65.csv'
p1
(dp2
S'../Data/sqlite_76.csv'
p3
(dp4
F0.25
(dp5
S'mmre'
p6
(dp7
S'bellwether'
p8
(lp9
cnumpy.core.multiarray
scalar
p10
(cnumpy
dtype
p11
(S'f8'
p12
I0
I1
tp13
Rp14
(I3
S'<'
p15
NNNI-1
I-1
I0
tp16
bS'\xcd\x81\xa2\x9b\xaexW@'
p17
tp18
Rp19
ag10
(g14
S'\xcc\x05\x0c\xb9\x1dzW@'
p20
tp21
Rp22
ag10
(g14
S'\x87E\x83\xf8zxW@'
p23
tp24
Rp25
ag10
(g14
S'\x91\xb6\xc8\x11\xeaxW@'
p26
tp27
Rp28
ag10
(g14
S'\x9f\xb2?b\xf2wW@'
p29
tp30
Rp31
ag10
(g14
S'r\xfb\xc1\x8c:wW@'
p32
tp33
Rp34
ag10
(g14
S'\xde\xe6.>\xa0wW@'
p35
tp36
Rp37
ag10
(g14
S',I\xa4\xabdxW@'
p38
tp39
Rp40
ag10
(g14
S'z\xb8\x1a\x10\xd7wW@'
p41
tp42
Rp43
ag10
(g14
S'\x89\x1014~xW@'
p44
tp45
Rp46
ag10
(g14
S'o2h\xa2\x1fxW@'
p47
tp48
Rp49
ag10
(g14
S'\x1b<i!\xe4xW@'
p50
tp51
Rp52
ag10
(g14
S'\n}\x0b\x1f\x7f{W@'
p53
tp54
Rp55
ag10
(g14
S'\xcf8R:qzW@'
p56
tp57
Rp58
ag10
(g14
S'ldi\x99tzW@'
p59
tp60
Rp61
ag10
(g14
S'V\x7f\x08\xff\x03yW@'
p62
tp63
Rp64
ag10
(g14
S'\xad\xca\x8a\x97\x94xW@'
p65
tp66
Rp67
ag10
(g14
S'\x16\x02\xdd\xb9\xb8zW@'
p68
tp69
Rp70
ag10
(g14
S'\xb3/\xbb~7yW@'
p71
tp72
Rp73
ag10
(g14
S'\x01w.5\x87xW@'
p74
tp75
Rp76
asS'target'
p77
(lp78
g10
(g14
S'SF\xc6eFZ1@'
p79
tp80
Rp81
ag10
(g14
S'+c\x80\xbe\x9d\x1f1@'
p82
tp83
Rp84
ag10
(g14
S'\xf6 \xa95\xc3\xaf2@'
p85
tp86
Rp87
ag10
(g14
S'#Ec\x81\xb9\x841@'
p88
tp89
Rp90
ag10
(g14
S'\xf6\xf1\xf4\xdf\x07\x031@'
p91
tp92
Rp93
ag10
(g14
S'\x1c["=\xa7\xf61@'
p94
tp95
Rp96
ag10
(g14
S'\x9ei\xe8/\x8a\xad0@'
p97
tp98
Rp99
ag10
(g14
S'\x11\xad)x\xa8\xb30@'
p100
tp101
Rp102
ag10
(g14
S'\xbc\x920\xf9\x93\x1f1@'
p103
tp104
Rp105
ag10
(g14
S'>J\x81\x84\t\xdb0@'
p106
tp107
Rp108
ag10
(g14
S'\xebk0#l\xb30@'
p109
tp110
Rp111
ag10
(g14
S'u\x98\xd1\xd0\xe0\xd20@'
p112
tp113
Rp114
ag10
(g14
S'\x8b\x02\xc5jQ\xad0@'
p115
tp116
Rp117
ag10
(g14
S'1\x07NP\xdf^0@'
p118
tp119
Rp120
ag10
(g14
S'\xe2\x00z{\xc1`1@'
p121
tp122
Rp123
ag10
(g14
S'\xbf\xf9\xcf\xe4\x96G1@'
p124
tp125
Rp126
ag10
(g14
S'V\x8e\\\xc8M\x840@'
p127
tp128
Rp129
ag10
(g14
S'Kh\x1b~\x94\x1f2@'
p130
tp131
Rp132
ag10
(g14
S'\xc71\xc8#\x12/1@'
p133
tp134
Rp135
ag10
(g14
S'~\x9e\x0f,\xdb\x981@'
p136
tp137
Rp138
asssss.