(dp0
S'../Data/sqlite_45.csv'
p1
(dp2
S'../Data/sqlite_73.csv'
p3
(dp4
F0.15
(dp5
S'mmre'
p6
(dp7
S'bellwether'
p8
(lp9
cnumpy.core.multiarray
scalar
p10
(cnumpy
dtype
p11
(S'f8'
p12
I0
I1
tp13
Rp14
(I3
S'<'
p15
NNNI-1
I-1
I0
tp16
bS'\xef\xf1\xc0\xb2\xa1ZE@'
p17
tp18
Rp19
ag10
(g14
S'{C\xdd[DfE@'
p20
tp21
Rp22
ag10
(g14
S'\xa62\xc8?AnE@'
p23
tp24
Rp25
ag10
(g14
S'\xc6\x07l\xb2\xc8gE@'
p26
tp27
Rp28
ag10
(g14
S'^0\xc5\xe8\xcdcE@'
p29
tp30
Rp31
ag10
(g14
S'8?\x9fP\xc8PE@'
p32
tp33
Rp34
ag10
(g14
S'\x06\xab\xa1_\xc8SE@'
p35
tp36
Rp37
ag10
(g14
S"w<\x0f\x0c'YE@"
p38
tp39
Rp40
ag10
(g14
S'{\xb1rTmfE@'
p41
tp42
Rp43
ag10
(g14
S'\xc5\x04\x864ZME@'
p44
tp45
Rp46
ag10
(g14
S'\xcdc\xbe\xaf\x85YE@'
p47
tp48
Rp49
ag10
(g14
S'Q\xe9\xf0\xf4\xa7VE@'
p50
tp51
Rp52
ag10
(g14
S'\xde\x13\xfc\xcb\x8cSE@'
p53
tp54
Rp55
ag10
(g14
S'%\x1e}m\xfcIE@'
p56
tp57
Rp58
ag10
(g14
S'oXF>oUE@'
p59
tp60
Rp61
ag10
(g14
S'aO\x8dr\x9a[E@'
p62
tp63
Rp64
ag10
(g14
S'\x8a\xfeY\xb8EfE@'
p65
tp66
Rp67
ag10
(g14
S'\xaa\x08\x80\xe8\x1bcE@'
p68
tp69
Rp70
ag10
(g14
S'\x9c\xeb\xb4\x14\xf4RE@'
p71
tp72
Rp73
ag10
(g14
S'\x9d\xf5\xdf\xd8\xe7]E@'
p74
tp75
Rp76
asS'target'
p77
(lp78
g10
(g14
S'X\x97\x05\x070k-@'
p79
tp80
Rp81
ag10
(g14
S'\x9f\xef\x9e\xec {,@'
p82
tp83
Rp84
ag10
(g14
S'\x89\xd8\xbbW`\xac)@'
p85
tp86
Rp87
ag10
(g14
S'*`\xc6*\x17\xf9*@'
p88
tp89
Rp90
ag10
(g14
S'`\xf6\xfaM\xa3c+@'
p91
tp92
Rp93
ag10
(g14
S'*\xa5W\xb8\x13/,@'
p94
tp95
Rp96
ag10
(g14
S'\xe5\x00\xd8s\xc22*@'
p97
tp98
Rp99
ag10
(g14
S'K\xd0\xe08O\xe2+@'
p100
tp101
Rp102
ag10
(g14
S'\n3?u\x91\xb3,@'
p103
tp104
Rp105
ag10
(g14
S'\x9c\xed\xe6\x19x\xfb-@'
p106
tp107
Rp108
ag10
(g14
S'7q\xce\x16\x0b\xc2-@'
p109
tp110
Rp111
ag10
(g14
S'\x00\x15\n#c\xe3/@'
p112
tp113
Rp114
ag10
(g14
S'\x80i\x1b\xb2D\x9f+@'
p115
tp116
Rp117
ag10
(g14
S'\xa2\xde,\x1f7\xf7.@'
p118
tp119
Rp120
ag10
(g14
S'<\xaa\xa685\xb7,@'
p121
tp122
Rp123
ag10
(g14
S'\xdf#+fn\xc6*@'
p124
tp125
Rp126
ag10
(g14
S'J\x07\x1f\xdf\xb6\xdb+@'
p127
tp128
Rp129
ag10
(g14
S'\x06\xfe\x93_\x12A+@'
p130
tp131
Rp132
ag10
(g14
S'\xdd\x8d-4\xa3G+@'
p133
tp134
Rp135
ag10
(g14
S'\xf5\x01a\xe8\x00\xbd*@'
p136
tp137
Rp138
asssss.