(dp0
S'../Data/sqlite_13.csv'
p1
(dp2
S'../Data/sqlite_59.csv'
p3
(dp4
F0.1
(dp5
S'mmre'
p6
(dp7
S'bellwether'
p8
(lp9
cnumpy.core.multiarray
scalar
p10
(cnumpy
dtype
p11
(S'f8'
p12
I0
I1
tp13
Rp14
(I3
S'<'
p15
NNNI-1
I-1
I0
tp16
bS"'\xc3\xaa\x04eO[@"
p17
tp18
Rp19
ag10
(g14
S'),\xd1\xb0Zj[@'
p20
tp21
Rp22
ag10
(g14
S'em\x8e\xc2\xc1T[@'
p23
tp24
Rp25
ag10
(g14
S'c\x06p\xad\xe6G[@'
p26
tp27
Rp28
ag10
(g14
S'd\xc0\x0e\x07^G[@'
p29
tp30
Rp31
ag10
(g14
S'\x0cyq\xbb\xa1Y[@'
p32
tp33
Rp34
ag10
(g14
S'\xd4\x7f\xd8f\xf8\\[@'
p35
tp36
Rp37
ag10
(g14
S'\x86fg\x80\xe1M[@'
p38
tp39
Rp40
ag10
(g14
S'\x90_- 9V[@'
p41
tp42
Rp43
ag10
(g14
S'\xf9\xa1\n\xee\xfao[@'
p44
tp45
Rp46
ag10
(g14
S'\xfe\xe193gV[@'
p47
tp48
Rp49
ag10
(g14
S'FQ\\_yg[@'
p50
tp51
Rp52
ag10
(g14
S'\x93\x8a\xe99\x1fe[@'
p53
tp54
Rp55
ag10
(g14
S'\xf6\x1f;\xacKr[@'
p56
tp57
Rp58
ag10
(g14
S'%5\rG\x19p[@'
p59
tp60
Rp61
ag10
(g14
S'z\xee)+,m[@'
p62
tp63
Rp64
ag10
(g14
S'\x10s\x99\xfeUi[@'
p65
tp66
Rp67
ag10
(g14
S'\xdd2\xd5R\x10_[@'
p68
tp69
Rp70
ag10
(g14
S'm\xc1\xa3\xa4\xedn[@'
p71
tp72
Rp73
ag10
(g14
S'%\xc3\x89\xae\xce_[@'
p74
tp75
Rp76
asS'target'
p77
(lp78
g10
(g14
S'\xa6Hg\xa0\xda\xf1$@'
p79
tp80
Rp81
ag10
(g14
S'\xf9\xa0\xfb\xef\xea[&@'
p82
tp83
Rp84
ag10
(g14
S'\x95\xe8\xe5\x7f\xd25&@'
p85
tp86
Rp87
ag10
(g14
S'\xa6Cr\xf4a\x02%@'
p88
tp89
Rp90
ag10
(g14
S'={*_\x0b\xb4%@'
p91
tp92
Rp93
ag10
(g14
S"O\xd4$1\x16\xdf'@"
p94
tp95
Rp96
ag10
(g14
S'\x0b&\x7f\xde\xc5\xd8&@'
p97
tp98
Rp99
ag10
(g14
S'z)U_\xe6\xfa$@'
p100
tp101
Rp102
ag10
(g14
S'\x1ew\n\x13x\xbc%@'
p103
tp104
Rp105
ag10
(g14
S'\x8b^%AL\x13+@'
p106
tp107
Rp108
ag10
(g14
S'O\xa2\xae\xac\xb5\xd6$@'
p109
tp110
Rp111
ag10
(g14
S'\tN\x91\\H\x92&@'
p112
tp113
Rp114
ag10
(g14
S'\xe2\xb0g\xbf\xf1c&@'
p115
tp116
Rp117
ag10
(g14
S'p\xc7\xb2\xc1\xc2$&@'
p118
tp119
Rp120
ag10
(g14
S']\x85\x1a\xec\x9f\x91&@'
p121
tp122
Rp123
ag10
(g14
S'\xb0\xfe\xceWV5&@'
p124
tp125
Rp126
ag10
(g14
S"'?\xf8\xc3{\xe2(@"
p127
tp128
Rp129
ag10
(g14
S'\xc0m\xb0\x85\xd7\xe8&@'
p130
tp131
Rp132
ag10
(g14
S'\xa5\xfeh\x08\x81E*@'
p133
tp134
Rp135
ag10
(g14
S'\xcb\x97\xe2\xc4Z4&@'
p136
tp137
Rp138
asssss.