(dp0
S'../Data/sqlite_22.csv'
p1
(dp2
S'../Data/sqlite_62.csv'
p3
(dp4
F0.35
(dp5
S'mmre'
p6
(dp7
S'bellwether'
p8
(lp9
cnumpy.core.multiarray
scalar
p10
(cnumpy
dtype
p11
(S'f8'
p12
I0
I1
tp13
Rp14
(I3
S'<'
p15
NNNI-1
I-1
I0
tp16
bS'@}\xe0\x92?aU@'
p17
tp18
Rp19
ag10
(g14
S'J\x1dA+\xaa\\U@'
p20
tp21
Rp22
ag10
(g14
S'\xceUW?\xc1_U@'
p23
tp24
Rp25
ag10
(g14
S'\xb1\x12\x04GC_U@'
p26
tp27
Rp28
ag10
(g14
S'e\xc29\xec\x83_U@'
p29
tp30
Rp31
ag10
(g14
S'\xeb`\x8c;3_U@'
p32
tp33
Rp34
ag10
(g14
S';/\xe5\xf3\xd3cU@'
p35
tp36
Rp37
ag10
(g14
S'\x15\xb6i\x0f\xa5_U@'
p38
tp39
Rp40
ag10
(g14
S'\x8fuUF\x80]U@'
p41
tp42
Rp43
ag10
(g14
S'\xd3a\xdb\xb8H`U@'
p44
tp45
Rp46
ag10
(g14
S'\xce\x00\xa9\x17\xde[U@'
p47
tp48
Rp49
ag10
(g14
S'\xe7\xfc~8\xee\\U@'
p50
tp51
Rp52
ag10
(g14
S'\xb4\xeeMd\xdcaU@'
p53
tp54
Rp55
ag10
(g14
S'\x1d\xecdb\xfc`U@'
p56
tp57
Rp58
ag10
(g14
S'^G\xfdu\x7faU@'
p59
tp60
Rp61
ag10
(g14
S'\xc5LX\xef\xf6\\U@'
p62
tp63
Rp64
ag10
(g14
S'es+\xd1\x00]U@'
p65
tp66
Rp67
ag10
(g14
S'\xda\xc0\xe5\xe2\x86aU@'
p68
tp69
Rp70
ag10
(g14
S'z\xac\xef\x1d\x8acU@'
p71
tp72
Rp73
ag10
(g14
S'\xa2)C[\xf2]U@'
p74
tp75
Rp76
asS'target'
p77
(lp78
g10
(g14
S'\x9a\xb3\x0f~\xd8+"@'
p79
tp80
Rp81
ag10
(g14
S'\xe0\xb2!r\x95="@'
p82
tp83
Rp84
ag10
(g14
S'T\xa7O\x83\\\xee!@'
p85
tp86
Rp87
ag10
(g14
S'mX.y\xd6\xe9 @'
p88
tp89
Rp90
ag10
(g14
S'\xceR\x83q\x7f\xdd!@'
p91
tp92
Rp93
ag10
(g14
S'\xc9\xcb\xd6x\xf4\x1c#@'
p94
tp95
Rp96
ag10
(g14
S'f\xb13{\xb5\xaa!@'
p97
tp98
Rp99
ag10
(g14
S'\x9a.\xd9\x80\xec\xb3!@'
p100
tp101
Rp102
ag10
(g14
S'K\xf7Th\x8f\xce @'
p103
tp104
Rp105
ag10
(g14
S'\x07\r\x18\xcdd1!@'
p106
tp107
Rp108
ag10
(g14
S'h\x02\r\xf5\xf8`"@'
p109
tp110
Rp111
ag10
(g14
S'\x9b\x84;\xc8p\\#@'
p112
tp113
Rp114
ag10
(g14
S'\x8c\xd6l\xd7\xdca!@'
p115
tp116
Rp117
ag10
(g14
S'\xa6\xe9\xd1\xe3\x18\x06!@'
p118
tp119
Rp120
ag10
(g14
S'\xd5\x91\xbf\xb7Z\x9e!@'
p121
tp122
Rp123
ag10
(g14
S'Rnp3\x14\xad!@'
p124
tp125
Rp126
ag10
(g14
S'\x84\xd2\xbd<]\xd6!@'
p127
tp128
Rp129
ag10
(g14
S'\xb0\xe1\x92Y\x06?!@'
p130
tp131
Rp132
ag10
(g14
S'\xe9\x1c\xed_\x8ay"@'
p133
tp134
Rp135
ag10
(g14
S'\xac\xec\x19\x86%\xed!@'
p136
tp137
Rp138
asssss.