(dp0
S'../Data/sqlite_59.csv'
p1
(dp2
S'../Data/sqlite_96.csv'
p3
(dp4
F0.05
(dp5
S'mmre'
p6
(dp7
S'bellwether'
p8
(lp9
cnumpy.core.multiarray
scalar
p10
(cnumpy
dtype
p11
(S'f8'
p12
I0
I1
tp13
Rp14
(I3
S'<'
p15
NNNI-1
I-1
I0
tp16
bS'\x9b\xce\xb9\xc38|J@'
p17
tp18
Rp19
ag10
(g14
S'\x18.4\x8e\xfdvJ@'
p20
tp21
Rp22
ag10
(g14
S'\xcf\x13\xde\x8dr~J@'
p23
tp24
Rp25
ag10
(g14
S'G\x19HV\x0c_J@'
p26
tp27
Rp28
ag10
(g14
S'\xa9\xe14l\xcb\x80J@'
p29
tp30
Rp31
ag10
(g14
S'8\xc6%\x1dD~J@'
p32
tp33
Rp34
ag10
(g14
S'a\xb5\x01T0}J@'
p35
tp36
Rp37
ag10
(g14
S'\x12\xb8V".qJ@'
p38
tp39
Rp40
ag10
(g14
S'\xc4]\xbdN\xdcqJ@'
p41
tp42
Rp43
ag10
(g14
S'\xe3\xcba\x00\xcc\x94J@'
p44
tp45
Rp46
ag10
(g14
S'\xf8!\x80{LvJ@'
p47
tp48
Rp49
ag10
(g14
S'\xe4/\xa4\xc0\xec\x81J@'
p50
tp51
Rp52
ag10
(g14
S'\x9f\xfdn\xfb\x16sJ@'
p53
tp54
Rp55
ag10
(g14
S'\xa5\xeea\x8d\xfd|J@'
p56
tp57
Rp58
ag10
(g14
S'^qh,\xc9\x86J@'
p59
tp60
Rp61
ag10
(g14
S'\xf7\x0e\xc26Y\x95J@'
p62
tp63
Rp64
ag10
(g14
S'P\xfey\x81|\x8aJ@'
p65
tp66
Rp67
ag10
(g14
S'a\x19@\x86r\x7fJ@'
p68
tp69
Rp70
ag10
(g14
S'7Y}7\x1dzJ@'
p71
tp72
Rp73
ag10
(g14
S'h\xf9w5\xf6\x8eJ@'
p74
tp75
Rp76
asS'target'
p77
(lp78
g10
(g14
S'\xdaR"\xa5\xdb\xcaZ@'
p79
tp80
Rp81
ag10
(g14
S'\x17\xeeX\x04\x9eyZ@'
p82
tp83
Rp84
ag10
(g14
S'Z\xc4w1\xdbv[@'
p85
tp86
Rp87
ag10
(g14
S'\x11!+\x84%\xa4W@'
p88
tp89
Rp90
ag10
(g14
S'\xb8\xde\xf4\xfa@\xa3W@'
p91
tp92
Rp93
ag10
(g14
S"\xc8m\xcb\xdd'\xadQ@"
p94
tp95
Rp96
ag10
(g14
S'}J\x8e]\xa9\xbf]@'
p97
tp98
Rp99
ag10
(g14
S'\xa5\xddRm\xefbd@'
p100
tp101
Rp102
ag10
(g14
S'\n\xdesm\x9e\x9fN@'
p103
tp104
Rp105
ag10
(g14
S'\xb9\x84}\xae\xbaR@@'
p106
tp107
Rp108
ag10
(g14
S'fx2\xd0\x8e\x14[@'
p109
tp110
Rp111
ag10
(g14
S'\xfalm\xb5s\xaeW@'
p112
tp113
Rp114
ag10
(g14
S'\x93 n\x17\xf3\x0b^@'
p115
tp116
Rp117
ag10
(g14
S'\xb6e\x0c#>\xd9S@'
p118
tp119
Rp120
ag10
(g14
S'\xbeAy]\xa7\xe6@@'
p121
tp122
Rp123
ag10
(g14
S'\xf1\xe9N[]e[@'
p124
tp125
Rp126
ag10
(g14
S'\xb8%\n\xcbXH\\@'
p127
tp128
Rp129
ag10
(g14
S'\x9d2p\xe2\\JU@'
p130
tp131
Rp132
ag10
(g14
S'\x18\x06lg\xdc0R@'
p133
tp134
Rp135
ag10
(g14
S' }\x08\x02\xcc\x8cU@'
p136
tp137
Rp138
asssss.