(dp0
S'../Data/sqlite_4.csv'
p1
(dp2
S'../Data/sqlite_44.csv'
p3
(dp4
F0.3
(dp5
S'abs_res'
p6
(dp7
S'bellwether'
p8
(lp9
cnumpy.core.multiarray
scalar
p10
(cnumpy
dtype
p11
(S'f8'
p12
I0
I1
tp13
Rp14
(I3
S'<'
p15
NNNI-1
I-1
I0
tp16
bS'\xe7\xa7\xc6\xab\x19T;A'
p17
tp18
Rp19
ag10
(g14
S'\xb2\x1cZ$\xd6S;A'
p20
tp21
Rp22
ag10
(g14
S'\x8b\t\x1elMV;A'
p23
tp24
Rp25
ag10
(g14
S'\x85\t\x1el\xdaP;A'
p26
tp27
Rp28
ag10
(g14
S'u0O\xf4<R;A'
p29
tp30
Rp31
ag10
(g14
S'\x0bt\xda\x00\x88S;A'
p32
tp33
Rp34
ag10
(g14
S'\xd7@\xa7M\xb5S;A'
p35
tp36
Rp37
ag10
(g14
S'G~\xb1D~T;A'
p38
tp39
Rp40
ag10
(g14
S'\x8b\t\x1e\xcc\xc8S;A'
p41
tp42
Rp43
ag10
(g14
S'y\xc0\xca\x81\rR;A'
p44
tp45
Rp46
ag10
(g14
S'X\x9c}\xf8\x88S;A'
p47
tp48
Rp49
ag10
(g14
S'\x9baW@\xe0S;A'
p50
tp51
Rp52
ag10
(g14
S'\x96\x0bI\x13dR;A'
p53
tp54
Rp55
ag10
(g14
S'0\xdd$\x06wT;A'
p56
tp57
Rp58
ag10
(g14
S'\x8a\xde\x96\xf5\xa6R;A'
p59
tp60
Rp61
ag10
(g14
S'\xab\xb9\x90\xf4.R;A'
p62
tp63
Rp64
ag10
(g14
S'\xe03\xec\xea-T;A'
p65
tp66
Rp67
ag10
(g14
S'r\x05\xc8\xbdnT;A'
p68
tp69
Rp70
ag10
(g14
S';\xdfO\xcdTT;A'
p71
tp72
Rp73
ag10
(g14
S'\xdaO\x8dWjU;A'
p74
tp75
Rp76
asS'target'
p77
(lp78
g10
(g14
S'\x89A`\xe5\xd0"I@'
p79
tp80
Rp81
ag10
(g14
S'i\x93\x18\x04VNK@'
p82
tp83
Rp84
ag10
(g14
S'.\x89A`\xe5\xf0K@'
p85
tp86
Rp87
ag10
(g14
S'-\xdd$\x06\x81EK@'
p88
tp89
Rp90
ag10
(g14
S'\x06\xd7\xa3p=\x9aI@'
p91
tp92
Rp93
ag10
(g14
S'\xfd\xab\x1cZd+N@'
p94
tp95
Rp96
ag10
(g14
S'!Zd;\xdf\xcfI@'
p97
tp98
Rp99
ag10
(g14
S'\x9d\x1a/\xdd$\xe6H@'
p100
tp101
Rp102
ag10
(g14
S'\xc1t\x93\x18\x04.H@'
p103
tp104
Rp105
ag10
(g14
S'\xde\xf9~j\xbcdI@'
p106
tp107
Rp108
ag10
(g14
S'5`\xe5\xd0"\xabH@'
p109
tp110
Rp111
ag10
(g14
S'\xc3\xca\xa1E\xb6CJ@'
p112
tp113
Rp114
ag10
(g14
S'\x88\x18\x04V\x0eMI@'
p115
tp116
Rp117
ag10
(g14
S'7\xdfO\x8d\x97\xeeH@'
p118
tp119
Rp120
ag10
(g14
S'\x83\xc2\xf5(\\\x8fK@'
p121
tp122
Rp123
ag10
(g14
S',\x87\x16\xd9\xce\xdfJ@'
p124
tp125
Rp126
ag10
(g14
S'\x03\xd7\xa3p=\xbaL@'
p127
tp128
Rp129
ag10
(g14
S'\x10\x04V\x0e-\xaaJ@'
p130
tp131
Rp132
ag10
(g14
S'\x93\x97n\x12\x83pN@'
p133
tp134
Rp135
ag10
(g14
S'$\xdb\xf9~j\x0cH@'
p136
tp137
Rp138
asssss.