(dp0
S'../Data/sqlite_59.csv'
p1
(dp2
S'../Data/sqlite_15.csv'
p3
(dp4
F0.2
(dp5
S'abs_res'
p6
(dp7
S'bellwether'
p8
(lp9
cnumpy.core.multiarray
scalar
p10
(cnumpy
dtype
p11
(S'f8'
p12
I0
I1
tp13
Rp14
(I3
S'<'
p15
NNNI-1
I-1
I0
tp16
bS'\x07\x02+\x97V+>A'
p17
tp18
Rp19
ag10
(g14
S'45^*\xf8+>A'
p20
tp21
Rp22
ag10
(g14
S'\x862zK\xcb*>A'
p23
tp24
Rp25
ag10
(g14
S'\xb1\xc6K\xf7C+>A'
p26
tp27
Rp28
ag10
(g14
S'\xf4\xd4x\x89\x07,>A'
p29
tp30
Rp31
ag10
(g14
S'\xd4z\x14\x9e\x02*>A'
p32
tp33
Rp34
ag10
(g14
S'\x0be\xf4\xf6\x88+>A'
p35
tp36
Rp37
ag10
(g14
S'\xe2B\xd2D\x18+>A'
p38
tp39
Rp40
ag10
(g14
S'~\xa2\xfe\xdd\xba,>A'
p41
tp42
Rp43
ag10
(g14
S'\xb8\x02\xe4~Y,>A'
p44
tp45
Rp46
ag10
(g14
S'\x02\x00\x000\x9f,>A'
p47
tp48
Rp49
ag10
(g14
S'N7\x89\x91\xf7+>A'
p50
tp51
Rp52
ag10
(g14
S'{\xf8\x0c\xbb\xd2,>A'
p53
tp54
Rp55
ag10
(g14
S'\x8d\x97nR\xce,>A'
p56
tp57
Rp58
ag10
(g14
S'H\xb6\xf3}!,>A'
p59
tp60
Rp61
ag10
(g14
S'\xae\x81N\x0b\xdd+>A'
p62
tp63
Rp64
ag10
(g14
S'.\x08\xac\x9c\xc8+>A'
p65
tp66
Rp67
ag10
(g14
S'\xb8\x81N{\x1d+>A'
p68
tp69
Rp70
ag10
(g14
S'\x8a\x95C\xeb\xeb->A'
p71
tp72
Rp73
ag10
(g14
S'\\\xe5\xd0""->A'
p74
tp75
Rp76
asS'target'
p77
(lp78
g10
(g14
S'2333\x93\xdd\xd0@'
p79
tp80
Rp81
ag10
(g14
S'bfff\xe6\xb2\xd0@'
p82
tp83
Rp84
ag10
(g14
S'03333\xc7\xce@'
p85
tp86
Rp87
ag10
(g14
S'\xc4\xcc\xcc\xcc\xcc\xce\xcf@'
p88
tp89
Rp90
ag10
(g14
S'\x00\x00\x00\x00\x10\x1e\xd1@'
p91
tp92
Rp93
ag10
(g14
S'@333\xa3x\xd2@'
p94
tp95
Rp96
ag10
(g14
S"hfff&'\xd0@"
p97
tp98
Rp99
ag10
(g14
S'\x8e\x99\x99\x99y\x05\xcf@'
p100
tp101
Rp102
ag10
(g14
S'afff\x96\x19\xd0@'
p103
tp104
Rp105
ag10
(g14
S'afff\x86!\xd1@'
p106
tp107
Rp108
ag10
(g14
S'<333s~\xd0@'
p109
tp110
Rp111
ag10
(g14
S'dfff\xd6\xe1\xd0@'
p112
tp113
Rp114
ag10
(g14
S'effff\xf1\xcf@'
p115
tp116
Rp117
ag10
(g14
S'\x00\x00\x00\x00@\x87\xd0@'
p118
tp119
Rp120
ag10
(g14
S'bffff\x95\xd0@'
p121
tp122
Rp123
ag10
(g14
S'\xc7\xcc\xcc\xcc\xec\xb2\xd0@'
p124
tp125
Rp126
ag10
(g14
S'\xcd\xcc\xcc\xcc,6\xd0@'
p127
tp128
Rp129
ag10
(g14
S'effff\x1f\xd1@'
p130
tp131
Rp132
ag10
(g14
S'hfff\xc6g\xd1@'
p133
tp134
Rp135
ag10
(g14
S'ffff\xd6S\xd0@'
p136
tp137
Rp138
asssss.