(dp0
S'../Data/sqlite_12.csv'
p1
(dp2
S'../Data/sqlite_77.csv'
p3
(dp4
F0.4
(dp5
S'mmre'
p6
(dp7
S'bellwether'
p8
(lp9
cnumpy.core.multiarray
scalar
p10
(cnumpy
dtype
p11
(S'f8'
p12
I0
I1
tp13
Rp14
(I3
S'<'
p15
NNNI-1
I-1
I0
tp16
bS'\xae\xef\x83Y\xcc\xa2<@'
p17
tp18
Rp19
ag10
(g14
S'\xd9\x9b,\x95\xb93<@'
p20
tp21
Rp22
ag10
(g14
S'c,o. &<@'
p23
tp24
Rp25
ag10
(g14
S'5\rZb\xa8\xc1<@'
p26
tp27
Rp28
ag10
(g14
S"'\xbc\xe386\x88<@"
p29
tp30
Rp31
ag10
(g14
S'\x8d(Gm\xf4a<@'
p32
tp33
Rp34
ag10
(g14
S'\xb6\xb2y\xdat\xd1=@'
p35
tp36
Rp37
ag10
(g14
S'\xb5 +|\x82\xef<@'
p38
tp39
Rp40
ag10
(g14
S'\x9e"x1\xfbV<@'
p41
tp42
Rp43
ag10
(g14
S'%\xd7\xb53\xb4\xb9=@'
p44
tp45
Rp46
ag10
(g14
S'\xd1\x83\x8e\xce\xc6\xe2<@'
p47
tp48
Rp49
ag10
(g14
S'\xde\xd9L\xc6\xc4\x04<@'
p50
tp51
Rp52
ag10
(g14
S'X\x87\xba\xddii=@'
p53
tp54
Rp55
ag10
(g14
S'b\xea\xb5\x90\x03@=@'
p56
tp57
Rp58
ag10
(g14
S'm\xdaUS\x0f\xa5<@'
p59
tp60
Rp61
ag10
(g14
S'\xfe\xa2\xe9m\t*>@'
p62
tp63
Rp64
ag10
(g14
S'\xfd\xdd#j\xb5\xb0<@'
p65
tp66
Rp67
ag10
(g14
S'\xf8\xae\xba\x19IE=@'
p68
tp69
Rp70
ag10
(g14
S'\xf2,\xd6^%\r=@'
p71
tp72
Rp73
ag10
(g14
S'\xd1A\x87\x16\x9b\r<@'
p74
tp75
Rp76
asS'target'
p77
(lp78
g10
(g14
S'\x7f\xe4s4C\xf04@'
p79
tp80
Rp81
ag10
(g14
S'c\x1a\xafL\x90x5@'
p82
tp83
Rp84
ag10
(g14
S'\xbcVPsMH6@'
p85
tp86
Rp87
ag10
(g14
S'\xbe\xf4\x9e\x04a\xfe5@'
p88
tp89
Rp90
ag10
(g14
S'k \xe6f\x08\xa35@'
p91
tp92
Rp93
ag10
(g14
S'-\xf0\xaf-\x9e[6@'
p94
tp95
Rp96
ag10
(g14
S'[\x978\xf8\xe3\xa17@'
p97
tp98
Rp99
ag10
(g14
S'\xc9\xde\xf9\xa6P\xf65@'
p100
tp101
Rp102
ag10
(g14
S'\x9d\xf8^a\x81z4@'
p103
tp104
Rp105
ag10
(g14
S'<\xbf\x03S8P5@'
p106
tp107
Rp108
ag10
(g14
S'_\t\x03\xc0\x90\xb25@'
p109
tp110
Rp111
ag10
(g14
S'\n\x9b!J\xcd\x9a4@'
p112
tp113
Rp114
ag10
(g14
S'[\xd7X\xb25p5@'
p115
tp116
Rp117
ag10
(g14
S'\x82\xdc0\xf1\xcdH5@'
p118
tp119
Rp120
ag10
(g14
S'n\xf4\xc3\x9b\xd8\x1f6@'
p121
tp122
Rp123
ag10
(g14
S'\x0eTY\xb0W\xe94@'
p124
tp125
Rp126
ag10
(g14
S'R\x0e\xbd0H\xa36@'
p127
tp128
Rp129
ag10
(g14
S'0\x1ak\xe7\xed*5@'
p130
tp131
Rp132
ag10
(g14
S'\x07F\xe3\xb4\xff\xee3@'
p133
tp134
Rp135
ag10
(g14
S'[Q\xb5/\x0bY6@'
p136
tp137
Rp138
asssss.