(dp0
S'../Data/sqlite_91.csv'
p1
(dp2
S'../Data/sqlite_90.csv'
p3
(dp4
F0.35
(dp5
S'mmre'
p6
(dp7
S'bellwether'
p8
(lp9
cnumpy.core.multiarray
scalar
p10
(cnumpy
dtype
p11
(S'f8'
p12
I0
I1
tp13
Rp14
(I3
S'<'
p15
NNNI-1
I-1
I0
tp16
bS'\xc2i\x7fe\xecxv@'
p17
tp18
Rp19
ag10
(g14
S'\x82i\xa0\xad^tv@'
p20
tp21
Rp22
ag10
(g14
S'\\\xc7\xef\xe1]%v@'
p23
tp24
Rp25
ag10
(g14
S'\x7f*\x01\xc5\x80\xadv@'
p26
tp27
Rp28
ag10
(g14
S'\xf0\x1eP\x1f\x16nv@'
p29
tp30
Rp31
ag10
(g14
S'\xef\x8aH;\xa5tv@'
p32
tp33
Rp34
ag10
(g14
S'\xa31\x87\xbd: v@'
p35
tp36
Rp37
ag10
(g14
S'F\xcag\xbamzv@'
p38
tp39
Rp40
ag10
(g14
S'\xe9yP3\xed\xa6v@'
p41
tp42
Rp43
ag10
(g14
S'}\x89\xa7\xbb\xf2;v@'
p44
tp45
Rp46
ag10
(g14
S"{\xbb\xeb\xe4S'v@"
p47
tp48
Rp49
ag10
(g14
S'\x08\xa7\x82i\xc6cv@'
p50
tp51
Rp52
ag10
(g14
S'\xe0\xd89\xa2w`v@'
p53
tp54
Rp55
ag10
(g14
S' \xdb\xed\x1d\x9e.v@'
p56
tp57
Rp58
ag10
(g14
S'?P\xde\xc98\x91v@'
p59
tp60
Rp61
ag10
(g14
S'\x04tvH\xf3Av@'
p62
tp63
Rp64
ag10
(g14
S':\xf2\x10`e\x8bv@'
p65
tp66
Rp67
ag10
(g14
S'W\x1ft}\x82<v@'
p68
tp69
Rp70
ag10
(g14
S'j\x10\x10\xcc\x91Ov@'
p71
tp72
Rp73
ag10
(g14
S'&\x98e\xd8\x8d+v@'
p74
tp75
Rp76
asS'target'
p77
(lp78
g10
(g14
S'Oc\xf4\xed\x01\xa1A@'
p79
tp80
Rp81
ag10
(g14
S'\x16\xd2\xae\xfd\xc0UA@'
p82
tp83
Rp84
ag10
(g14
S'%KE~\xa3{A@'
p85
tp86
Rp87
ag10
(g14
S'>\xf1\xff\xfe/7?@'
p88
tp89
Rp90
ag10
(g14
S' \xadS\xa5\xb2\xeaA@'
p91
tp92
Rp93
ag10
(g14
S'\xeb-\xbb\xd2\xaf\x02A@'
p94
tp95
Rp96
ag10
(g14
S'\x10\x91Q\x03\x9c\xf7A@'
p97
tp98
Rp99
ag10
(g14
S')}]nDDA@'
p100
tp101
Rp102
ag10
(g14
S';[\xc1~p9C@'
p103
tp104
Rp105
ag10
(g14
S'-LGL\xb7\x9e@@'
p106
tp107
Rp108
ag10
(g14
S'+\x9a\xbe{B[B@'
p109
tp110
Rp111
ag10
(g14
S'\xe1\x07X\xdfFs@@'
p112
tp113
Rp114
ag10
(g14
S'9\x8d\x17?\xbf\xcaA@'
p115
tp116
Rp117
ag10
(g14
S'\x07\xc1\xca3j\xedB@'
p118
tp119
Rp120
ag10
(g14
S"\xba'\x90\xe2<\x1dA@"
p121
tp122
Rp123
ag10
(g14
S'uU$\xe0\xdeAB@'
p124
tp125
Rp126
ag10
(g14
S'^\xca\xf0UZ\xa6@@'
p127
tp128
Rp129
ag10
(g14
S'L\x0b\xc3\xdc\xc7\x8fC@'
p130
tp131
Rp132
ag10
(g14
S'Acj\xaf\xfc\x97A@'
p133
tp134
Rp135
ag10
(g14
S'4z]\x80"\x19B@'
p136
tp137
Rp138
asssss.