(dp0
S'../Data/sqlite_16.csv'
p1
(dp2
S'../Data/sqlite_97.csv'
p3
(dp4
F0.2
(dp5
S'mmre'
p6
(dp7
S'bellwether'
p8
(lp9
cnumpy.core.multiarray
scalar
p10
(cnumpy
dtype
p11
(S'f8'
p12
I0
I1
tp13
Rp14
(I3
S'<'
p15
NNNI-1
I-1
I0
tp16
bS'\xe7\xbe&BY{W@'
p17
tp18
Rp19
ag10
(g14
S'\x8d:e|\xdc|W@'
p20
tp21
Rp22
ag10
(g14
S'D\xb8\xa6\x0f\xa4yW@'
p23
tp24
Rp25
ag10
(g14
S'\xc5\xdf\xa1\x9c\xbe~W@'
p26
tp27
Rp28
ag10
(g14
S'HW\x8e\x8b\xea}W@'
p29
tp30
Rp31
ag10
(g14
S'\xca\xd1\x97W5zW@'
p32
tp33
Rp34
ag10
(g14
S'\xb0\x02\xb18n}W@'
p35
tp36
Rp37
ag10
(g14
S'}LA\xecDyW@'
p38
tp39
Rp40
ag10
(g14
S'\x0c\\\x8d\x00\xda{W@'
p41
tp42
Rp43
ag10
(g14
S't!Bf\x85{W@'
p44
tp45
Rp46
ag10
(g14
S'\xb0{\x03\x0f:\x7fW@'
p47
tp48
Rp49
ag10
(g14
S'_B\x13\xbau|W@'
p50
tp51
Rp52
ag10
(g14
S'\xca\x84\xe1\t\xf8|W@'
p53
tp54
Rp55
ag10
(g14
S'J\x01\xacb\xd0|W@'
p56
tp57
Rp58
ag10
(g14
S'X=\x18\xb7\xba|W@'
p59
tp60
Rp61
ag10
(g14
S'r\xc0\xa4\x9c\xfa{W@'
p62
tp63
Rp64
ag10
(g14
S'\x8c\xdd\xe9\x07\x87xW@'
p65
tp66
Rp67
ag10
(g14
S'E)\x95WO}W@'
p68
tp69
Rp70
ag10
(g14
S'\xc0\xf0%MZxW@'
p71
tp72
Rp73
ag10
(g14
S'\xa2\x1a\x7f\xe5\xfbzW@'
p74
tp75
Rp76
asS'target'
p77
(lp78
g10
(g14
S'$g\x08\xed\xf1rU@'
p79
tp80
Rp81
ag10
(g14
S'3{\x1fO|mR@'
p82
tp83
Rp84
ag10
(g14
S'\xac\xc5\xff\xcc2aW@'
p85
tp86
Rp87
ag10
(g14
S'\xb2\xda\x15\xa5a\xfcH@'
p88
tp89
Rp90
ag10
(g14
S'W\xc8UU\x97bN@'
p91
tp92
Rp93
ag10
(g14
S'\xde\x01\xe2\xdf\xc4[^@'
p94
tp95
Rp96
ag10
(g14
S' 2\xb4`\xf0\xb8Q@'
p97
tp98
Rp99
ag10
(g14
S'\xd2\tR\xac\xd9\xe2S@'
p100
tp101
Rp102
ag10
(g14
S'r\x1fE\xa2tTJ@'
p103
tp104
Rp105
ag10
(g14
S'd\x03\xaa\x02i\x9bJ@'
p106
tp107
Rp108
ag10
(g14
S'\x15\xec\x13\x8e`\xf2R@'
p109
tp110
Rp111
ag10
(g14
S',\t&e\xce\x18K@'
p112
tp113
Rp114
ag10
(g14
S'1N\xad\xa2E\xb6U@'
p115
tp116
Rp117
ag10
(g14
S'\x8e\x8bh2{tK@'
p118
tp119
Rp120
ag10
(g14
S'\x84\xa4+Qs[V@'
p121
tp122
Rp123
ag10
(g14
S'4kk2n\x1bR@'
p124
tp125
Rp126
ag10
(g14
S'\xdd\x068\x15R\x92Y@'
p127
tp128
Rp129
ag10
(g14
S'\xa46TC2\xd8F@'
p130
tp131
Rp132
ag10
(g14
S'r7\xae\x9f\t\x08]@'
p133
tp134
Rp135
ag10
(g14
S'v\xd2~,\x7fpS@'
p136
tp137
Rp138
asssss.