(dp0
S'../Data/sqlite_48.csv'
p1
(dp2
S'../Data/sqlite_59.csv'
p3
(dp4
F0.35
(dp5
S'mmre'
p6
(dp7
S'bellwether'
p8
(lp9
cnumpy.core.multiarray
scalar
p10
(cnumpy
dtype
p11
(S'f8'
p12
I0
I1
tp13
Rp14
(I3
S'<'
p15
NNNI-1
I-1
I0
tp16
bS'\x0f\x15\xc5\x15w\xf4=@'
p17
tp18
Rp19
ag10
(g14
S'e\x90W\xa5r\xbd=@'
p20
tp21
Rp22
ag10
(g14
S'\x87FB\xf0z\xb8=@'
p23
tp24
Rp25
ag10
(g14
S'&4s\\!\xd4=@'
p26
tp27
Rp28
ag10
(g14
S'\x82q+V\xd6\xf5=@'
p29
tp30
Rp31
ag10
(g14
S'so8\\\x85{=@'
p32
tp33
Rp34
ag10
(g14
S'j\xf6\xa5x\xa2\xa3=@'
p35
tp36
Rp37
ag10
(g14
S'\t\x15\xd1P\xd9\xc5=@'
p38
tp39
Rp40
ag10
(g14
S'7}\xc1o\xef\x1b>@'
p41
tp42
Rp43
ag10
(g14
S'\xd2+52\x00\xc2=@'
p44
tp45
Rp46
ag10
(g14
S'\xe2\xf5\xb7\x1e\xf5\x88=@'
p47
tp48
Rp49
ag10
(g14
S'\xf7\xc2\x12P$\xc8=@'
p50
tp51
Rp52
ag10
(g14
S'\xd3\x15.\x9e\xaf\xc2=@'
p53
tp54
Rp55
ag10
(g14
S'T\xd5{w2\xd5=@'
p56
tp57
Rp58
ag10
(g14
S'SI\xa80\x01\xa0=@'
p59
tp60
Rp61
ag10
(g14
S'\xdfN\xe7\xc0k\x9e=@'
p62
tp63
Rp64
ag10
(g14
S'\t\xf7\x1f\xd7/\xad=@'
p65
tp66
Rp67
ag10
(g14
S'\x8ar\xff%,\xc3=@'
p68
tp69
Rp70
ag10
(g14
S'\xa4\xee\x84x5\x9d=@'
p71
tp72
Rp73
ag10
(g14
S'&\xec!\x84I\x9f=@'
p74
tp75
Rp76
asS'target'
p77
(lp78
g10
(g14
S'^\xd6\xb5\x14\xcc\xd0$@'
p79
tp80
Rp81
ag10
(g14
S'er\xdcD\xef\xc0$@'
p82
tp83
Rp84
ag10
(g14
S'vYb\t\x8dR%@'
p85
tp86
Rp87
ag10
(g14
S'\xc2KjH\xd6\x80%@'
p88
tp89
Rp90
ag10
(g14
S'\xb3\x96D.)\xdd&@'
p91
tp92
Rp93
ag10
(g14
S'{\x9cR18\xe2%@'
p94
tp95
Rp96
ag10
(g14
S'\x1c\x1e]\xa3\xc7\n&@'
p97
tp98
Rp99
ag10
(g14
S'\xd9\xc88\x11O\xb2$@'
p100
tp101
Rp102
ag10
(g14
S'{\x13\x05\xc2\xa9\x99$@'
p103
tp104
Rp105
ag10
(g14
S'\x9f\x8cJk\x82\xe5$@'
p106
tp107
Rp108
ag10
(g14
S'\xb6\xe83\x026\x0b%@'
p109
tp110
Rp111
ag10
(g14
S'cp]\xea\xf3m%@'
p112
tp113
Rp114
ag10
(g14
S'j\x88"\xc6o\xa2&@'
p115
tp116
Rp117
ag10
(g14
S'\xb1\x9b\xb9U\xde\xe8%@'
p118
tp119
Rp120
ag10
(g14
S'`\x8fjo\x8b\x8e%@'
p121
tp122
Rp123
ag10
(g14
S'n\x03h\x9duY&@'
p124
tp125
Rp126
ag10
(g14
S"@\xe1h\xc3i'&@"
p127
tp128
Rp129
ag10
(g14
S'L\x90~\x94\x94\x0f&@'
p130
tp131
Rp132
ag10
(g14
S'\xb4\x8e6\xfed+&@'
p133
tp134
Rp135
ag10
(g14
S'`\xf6I\x1f\xb1!%@'
p136
tp137
Rp138
asssss.