(dp0
S'../Data/sqlite_95.csv'
p1
(dp2
S'../Data/sqlite_58.csv'
p3
(dp4
F0.15
(dp5
S'abs_res'
p6
(dp7
S'bellwether'
p8
(lp9
cnumpy.core.multiarray
scalar
p10
(cnumpy
dtype
p11
(S'f8'
p12
I0
I1
tp13
Rp14
(I3
S'<'
p15
NNNI-1
I-1
I0
tp16
bS'\xc9t\x938\x19%9A'
p17
tp18
Rp19
ag10
(g14
S'\xef\xc3g\x18?\x1c9A'
p20
tp21
Rp22
ag10
(g14
S'2\xa3\xb7eZ\x0e9A'
p23
tp24
Rp25
ag10
(g14
S'\x852z[9\r9A'
p26
tp27
Rp28
ag10
(g14
S'g\xe5\xd0"\x15&9A'
p29
tp30
Rp31
ag10
(g14
S'/\xf9\xc5R\x9e,9A'
p32
tp33
Rp34
ag10
(g14
S'\xa5\xe2\xec\x83\x1f\x149A'
p35
tp36
Rp37
ag10
(g14
S'\xb4\x9d\xefg\xa4\x159A'
p38
tp39
Rp40
ag10
(g14
S'T\xd4\xbfqz29A'
p41
tp42
Rp43
ag10
(g14
S'{\xe9&\x91\xb5N9A'
p44
tp45
Rp46
ag10
(g14
S'\xa26\xd0I\xb2:9A'
p47
tp48
Rp49
ag10
(g14
S'k\x91\xed\\!\r9A'
p50
tp51
Rp52
ag10
(g14
S'\xbe-k\x95\x0e\x199A'
p53
tp54
Rp55
ag10
(g14
S'kff\xe6w&9A'
p56
tp57
Rp58
ag10
(g14
S'\rIS\x8az(9A'
p59
tp60
Rp61
ag10
(g14
S'iff&\xdc/9A'
p62
tp63
Rp64
ag10
(g14
S'gJ\xc5\xd9\xe5\xfa8A'
p65
tp66
Rp67
ag10
(g14
S'\xd4"\xdby\x08/9A'
p68
tp69
Rp70
ag10
(g14
S'n\x12\x83\xe0p19A'
p71
tp72
Rp73
ag10
(g14
S's\xbct\x93,/9A'
p74
tp75
Rp76
asS'target'
p77
(lp78
g10
(g14
S'I\xb8\x1e\x85\xeb\xd1X@'
p79
tp80
Rp81
ag10
(g14
S'\x0c\x02+\x87\x16\xd1X@'
p82
tp83
Rp84
ag10
(g14
S'\xcd"\xdb\xf9~\xc2V@'
p85
tp86
Rp87
ag10
(g14
S'K\x8d\x97n\x12;V@'
p88
tp89
Rp90
ag10
(g14
S'\xaap=\n\xd7\xabX@'
p91
tp92
Rp93
ag10
(g14
S'\x8f\xc2\xf5(\\\xafW@'
p94
tp95
Rp96
ag10
(g14
S'\xb2\xc8v\xbe\x9f\x9aY@'
p97
tp98
Rp99
ag10
(g14
S'<`\xe5\xd0"\xc3Y@'
p100
tp101
Rp102
ag10
(g14
S'hffff\xa2W@'
p103
tp104
Rp105
ag10
(g14
S'<\x8bl\xe7\xfb\x81X@'
p106
tp107
Rp108
ag10
(g14
S'\xd9\xce\xf7S\xe3%X@'
p109
tp110
Rp111
ag10
(g14
S'\x98E\xb6\xf3\xfd\xb4X@'
p112
tp113
Rp114
ag10
(g14
S'\xb7\x1cZd;\x9bY@'
p115
tp116
Rp117
ag10
(g14
S'[ffff\xd2W@'
p118
tp119
Rp120
ag10
(g14
S'\x1a\x04V\x0e-\x82X@'
p121
tp122
Rp123
ag10
(g14
S'Lb\x10X9\xfcV@'
p124
tp125
Rp126
ag10
(g14
S'\x8a\xebQ\xb8\x1e\xb5X@'
p127
tp128
Rp129
ag10
(g14
S'\x84\x95C\x8bl\xe7W@'
p130
tp131
Rp132
ag10
(g14
S'\xe6z\x14\xaeGAX@'
p133
tp134
Rp135
ag10
(g14
S'\x18\x83\xc0\xca\xa1\xedY@'
p136
tp137
Rp138
asssss.