(dp0
S'../Data/sqlite_17.csv'
p1
(dp2
S'../Data/sqlite_85.csv'
p3
(dp4
F0.2
(dp5
S'abs_res'
p6
(dp7
S'bellwether'
p8
(lp9
cnumpy.core.multiarray
scalar
p10
(cnumpy
dtype
p11
(S'f8'
p12
I0
I1
tp13
Rp14
(I3
S'<'
p15
NNNI-1
I-1
I0
tp16
bS'\xa6E\xb6\xbf\xa4\xf7UA'
p17
tp18
Rp19
ag10
(g14
S'\xc9K7\xc1q\x19VA'
p20
tp21
Rp22
ag10
(g14
S'l\x12\x83\x14H\x1eVA'
p23
tp24
Rp25
ag10
(g14
S'f\x91\xed|0\xcfUA'
p26
tp27
Rp28
ag10
(g14
S'+\xb2\x9d\x87d\rVA'
p29
tp30
Rp31
ag10
(g14
S'\xe0$\x06\xc5*\xbaUA'
p32
tp33
Rp34
ag10
(g14
S'!\xdb\xf9\xce\xb0*VA'
p35
tp36
Rp37
ag10
(g14
S'\xc4\xca\xa1E\xee\xdbUA'
p38
tp39
Rp40
ag10
(g14
S'D\n\xd7c>\x1eVA'
p41
tp42
Rp43
ag10
(g14
S'q\xbct\xa7\x01\xfaUA'
p44
tp45
Rp46
ag10
(g14
S'Wd;s\xce\x12VA'
p47
tp48
Rp49
ag10
(g14
S'\x17X9l!\xdbUA'
p50
tp51
Rp52
ag10
(g14
S'M9\xb48\xb2,VA'
p53
tp54
Rp55
ag10
(g14
S'7\n\xd7\x8f\xc3\xf9UA'
p56
tp57
Rp58
ag10
(g14
S'\xd0"\xdbiB\xd2UA'
p59
tp60
Rp61
ag10
(g14
S'>^\xbaE\xf1\x1bVA'
p62
tp63
Rp64
ag10
(g14
S'M9\xb4X\xde\x17VA'
p65
tp66
Rp67
ag10
(g14
S'\xc4K7=\xb0\tVA'
p68
tp69
Rp70
ag10
(g14
S'\xa0\xc4 0T\xf4UA'
p71
tp72
Rp73
ag10
(g14
S'\xa6p=\x8a^\x06VA'
p74
tp75
Rp76
asS'target'
p77
(lp78
g10
(g14
S'V\xb8\x1eE1\xc3?A'
p79
tp80
Rp81
ag10
(g14
S'\xd5\xa3p\xfd\xeeU>A'
p82
tp83
Rp84
ag10
(g14
S'/\\\x8f\x82X5?A'
p85
tp86
Rp87
ag10
(g14
S'R\xb8\x1e%\x11>AA'
p88
tp89
Rp90
ag10
(g14
S'$\\\x8fB\x96\xc2AA'
p91
tp92
Rp93
ag10
(g14
S'\x8a\xebQx\xaf\xbaAA'
p94
tp95
Rp96
ag10
(g14
S'\x16\xaeG\x81\xc2EBA'
p97
tp98
Rp99
ag10
(g14
S':\n\xd7\x83]PAA'
p100
tp101
Rp102
ag10
(g14
S'|\x14\xaeg\xbffCA'
p103
tp104
Rp105
ag10
(g14
S'P\xb8\x1e\x85\xd2\x1dBA'
p106
tp107
Rp108
ag10
(g14
S'r=\nw|?AA'
p109
tp110
Rp111
ag10
(g14
S'\x8f\xc2\xf5\xa8\x181@A'
p112
tp113
Rp114
ag10
(g14
S'\x1c\\\x8f\x02\xaal?A'
p115
tp116
Rp117
ag10
(g14
S'cff&@m@A'
p118
tp119
Rp120
ag10
(g14
S'\xc2\xf5(\xfc\xedLAA'
p121
tp122
Rp123
ag10
(g14
S'gffFU\xf7@A'
p124
tp125
Rp126
ag10
(g14
S'\x9f\x99\x99\x99S\x03?A'
p127
tp128
Rp129
ag10
(g14
S'G\xb8\x1e\x85\xa8x?A'
p130
tp131
Rp132
ag10
(g14
S'\xaeG\xe1\x9a\xfb\x1eAA'
p133
tp134
Rp135
ag10
(g14
S'\x16\xaeG!e\x08AA'
p136
tp137
Rp138
asssss.