(dp0
S'../Data/sqlite_21.csv'
p1
(dp2
S'../Data/sqlite_78.csv'
p3
(dp4
F0.05
(dp5
S'mmre'
p6
(dp7
S'bellwether'
p8
(lp9
cnumpy.core.multiarray
scalar
p10
(cnumpy
dtype
p11
(S'f8'
p12
I0
I1
tp13
Rp14
(I3
S'<'
p15
NNNI-1
I-1
I0
tp16
bS'\xe5\xbarO~"L@'
p17
tp18
Rp19
ag10
(g14
S'n\xc4\x98\x06]\xfeK@'
p20
tp21
Rp22
ag10
(g14
S'\x044\x01\x96\xb8hL@'
p23
tp24
Rp25
ag10
(g14
S'\xd1\x12D\x89\xc18L@'
p26
tp27
Rp28
ag10
(g14
S'Q\xd1\xfd\xc7\x046L@'
p29
tp30
Rp31
ag10
(g14
S'X\xe4\xbd,G\x15L@'
p32
tp33
Rp34
ag10
(g14
S'c-6\x17qQL@'
p35
tp36
Rp37
ag10
(g14
S'\xa8\x96\xd5\xdd\x87IL@'
p38
tp39
Rp40
ag10
(g14
S'Xr]z\xd2\x1fL@'
p41
tp42
Rp43
ag10
(g14
S"\xb6AL\xbc;'L@"
p44
tp45
Rp46
ag10
(g14
S';HKL\r\xfdK@'
p47
tp48
Rp49
ag10
(g14
S'\xee\xb4\xd9\x84j\x01L@'
p50
tp51
Rp52
ag10
(g14
S'=pA\x91a7L@'
p53
tp54
Rp55
ag10
(g14
S'\xc8\xacRv\x83/L@'
p56
tp57
Rp58
ag10
(g14
S'\xf5l\xf9D\x813L@'
p59
tp60
Rp61
ag10
(g14
S'\xd1*+}\x883L@'
p62
tp63
Rp64
ag10
(g14
S'<\x04\x05/.*L@'
p65
tp66
Rp67
ag10
(g14
S'd\xbd`.h!L@'
p68
tp69
Rp70
ag10
(g14
S'C\x86g\xa9^\x1fL@'
p71
tp72
Rp73
ag10
(g14
S'\xfdN4\xf3y?L@'
p74
tp75
Rp76
asS'target'
p77
(lp78
g10
(g14
S' \xa6\xd3$\xb9\xbb7@'
p79
tp80
Rp81
ag10
(g14
S'\x8eD\xd5\xe9\x1d\x8e0@'
p82
tp83
Rp84
ag10
(g14
S'\x89\xb7\xdb\x05\x97\xcf6@'
p85
tp86
Rp87
ag10
(g14
S'cs\xc5\xbb/\xb35@'
p88
tp89
Rp90
ag10
(g14
S'\xff\xe1D\xb46\t5@'
p91
tp92
Rp93
ag10
(g14
S'\x80\xfc\x98\x86?32@'
p94
tp95
Rp96
ag10
(g14
S'\x19\x18pp&\xa04@'
p97
tp98
Rp99
ag10
(g14
S'\xa0\xa5\x17u\\\x166@'
p100
tp101
Rp102
ag10
(g14
S'\xc8\x95\x9b\xffD\xfe5@'
p103
tp104
Rp105
ag10
(g14
S'\xe8\xadNtF\xde3@'
p106
tp107
Rp108
ag10
(g14
S'\xfe\xcfw,}62@'
p109
tp110
Rp111
ag10
(g14
S'vP\xffY\xd2F4@'
p112
tp113
Rp114
ag10
(g14
S'\xc0\xf6y\xfbd\xa65@'
p115
tp116
Rp117
ag10
(g14
S'd,\xc9\xf1l\xff2@'
p118
tp119
Rp120
ag10
(g14
S'\x87\xe2\x92X\xd8\xca4@'
p121
tp122
Rp123
ag10
(g14
S'W\xffL\xb5\xba)7@'
p124
tp125
Rp126
ag10
(g14
S'\xd6\xee\xeeukQ3@'
p127
tp128
Rp129
ag10
(g14
S'\x1b\xd1\xfd\xaf\xbf|3@'
p130
tp131
Rp132
ag10
(g14
S'\x18\xdc\xb9\xa7\xecT3@'
p133
tp134
Rp135
ag10
(g14
S'\xa2!\x1c\xe2+\xd33@'
p136
tp137
Rp138
asssss.