(dp0
S'../Data/sqlite_59.csv'
p1
(dp2
S'../Data/sqlite_94.csv'
p3
(dp4
F0.05
(dp5
S'mmre'
p6
(dp7
S'bellwether'
p8
(lp9
cnumpy.core.multiarray
scalar
p10
(cnumpy
dtype
p11
(S'f8'
p12
I0
I1
tp13
Rp14
(I3
S'<'
p15
NNNI-1
I-1
I0
tp16
bS'tS\xb0r\xddlW@'
p17
tp18
Rp19
ag10
(g14
S'\x8f\xcbP\x17\xaamW@'
p20
tp21
Rp22
ag10
(g14
S'2\xee\x86\x90\x8eoW@'
p23
tp24
Rp25
ag10
(g14
S'\xdc?\xe0\xf1\xd5mW@'
p26
tp27
Rp28
ag10
(g14
S'L0P\xc5\xabnW@'
p29
tp30
Rp31
ag10
(g14
S'9]\xb1\xe7\xcdmW@'
p32
tp33
Rp34
ag10
(g14
S'0\xf3\x82\xbb\x90nW@'
p35
tp36
Rp37
ag10
(g14
S'\x80-\x1cH\x03oW@'
p38
tp39
Rp40
ag10
(g14
S'0g)>hnW@'
p41
tp42
Rp43
ag10
(g14
S'\xd8ax\xc4\rlW@'
p44
tp45
Rp46
ag10
(g14
S'}\xba\x9e\xe9\x7fnW@'
p47
tp48
Rp49
ag10
(g14
S'\x0f\xe8c\xf9\xe6mW@'
p50
tp51
Rp52
ag10
(g14
S'\xfb\xdaI\x03\x89nW@'
p53
tp54
Rp55
ag10
(g14
S'>\xffKM\xe9lW@'
p56
tp57
Rp58
ag10
(g14
S'\xb0Zx#\xe9lW@'
p59
tp60
Rp61
ag10
(g14
S'\xbdo\xe2ewnW@'
p62
tp63
Rp64
ag10
(g14
S's\x12\x12)1nW@'
p65
tp66
Rp67
ag10
(g14
S'H\xc8\xc9\x8e\xeamW@'
p68
tp69
Rp70
ag10
(g14
S'\x80<\xac\xfc2mW@'
p71
tp72
Rp73
ag10
(g14
S'\xc1\xfd\xf5\x9e}lW@'
p74
tp75
Rp76
asS'target'
p77
(lp78
g10
(g14
S'K7\xf0\x84.\x01L@'
p79
tp80
Rp81
ag10
(g14
S'\xb9$H)6\xb8U@'
p82
tp83
Rp84
ag10
(g14
S'#\x1c\x90H79B@'
p85
tp86
Rp87
ag10
(g14
S'~\xe8\x91\xb7S\xfaY@'
p88
tp89
Rp90
ag10
(g14
S'\xd4\xf8,\xf9\xa5\x90@@'
p91
tp92
Rp93
ag10
(g14
S',\xeevE\xef\xdfQ@'
p94
tp95
Rp96
ag10
(g14
S'E\x98f\xb9Y3@@'
p97
tp98
Rp99
ag10
(g14
S'[{+0\xa0/A@'
p100
tp101
Rp102
ag10
(g14
S'\x07\xddP2\x06\xfdC@'
p103
tp104
Rp105
ag10
(g14
S'7\x85q\x8c\xd68[@'
p106
tp107
Rp108
ag10
(g14
S'\x963\xf3\x14z&@@'
p109
tp110
Rp111
ag10
(g14
S'\xb2>\xdc\x8c\xe7=a@'
p112
tp113
Rp114
ag10
(g14
S'\x956\xc3\r\xe4\x86Y@'
p115
tp116
Rp117
ag10
(g14
S'\xad{\xa4\xb7\xe47E@'
p118
tp119
Rp120
ag10
(g14
S'!\xb2\x95\t\x9b\x1eY@'
p121
tp122
Rp123
ag10
(g14
S'\xee\xa3&\xbe?>=@'
p124
tp125
Rp126
ag10
(g14
S'Bx*\xe8\xc2\xa2B@'
p127
tp128
Rp129
ag10
(g14
S',\x07\x93\x0f\xb5\x14W@'
p130
tp131
Rp132
ag10
(g14
S'\x17\xbdst,JD@'
p133
tp134
Rp135
ag10
(g14
S'\xaf"g\xacI\xc5W@'
p136
tp137
Rp138
asssss.