(dp0
S'../Data/sqlite_85.csv'
p1
(dp2
S'../Data/sqlite_61.csv'
p3
(dp4
F0.3
(dp5
S'abs_res'
p6
(dp7
S'bellwether'
p8
(lp9
cnumpy.core.multiarray
scalar
p10
(cnumpy
dtype
p11
(S'f8'
p12
I0
I1
tp13
Rp14
(I3
S'<'
p15
NNNI-1
I-1
I0
tp16
bS'\x16\x11\x11Q\x03\x11SA'
p17
tp18
Rp19
ag10
(g14
S'!\xbfX\xaa\x02wSA'
p20
tp21
Rp22
ag10
(g14
S'<5^2wTSA'
p23
tp24
Rp25
ag10
(g14
S'\x90\xc2\xf58AiSA'
p26
tp27
Rp28
ag10
(g14
S'n\x1f>\xf3H\xeaRA'
p29
tp30
Rp31
ag10
(g14
S'%\xa3\xb7u\xe2\\SA'
p32
tp33
Rp34
ag10
(g14
S'\xd9$\x06\xc1k SA'
p35
tp36
Rp37
ag10
(g14
S'\x86\xebQh\x832SA'
p38
tp39
Rp40
ag10
(g14
S'\xa0\x9b\xc4\x08\xfacSA'
p41
tp42
Rp43
ag10
(g14
S'mJ\xc5\xc1\xb6\x1aSA'
p44
tp45
Rp46
ag10
(g14
S'/O\xd4\x87\xccXSA'
p47
tp48
Rp49
ag10
(g14
S'\xb08\xfbx\xca\x19SA'
p50
tp51
Rp52
ag10
(g14
S'j\xf4\xb6|?_SA'
p53
tp54
Rp55
ag10
(g14
S'juLP\xa1hSA'
p56
tp57
Rp58
ag10
(g14
S'P\x9c}X\x974SA'
p59
tp60
Rp61
ag10
(g14
S'K\xf0`\xb6\xc79SA'
p62
tp63
Rp64
ag10
(g14
S'N\xe1z\xa4\xe8iSA'
p65
tp66
Rp67
ag10
(g14
S'\x9cRqF=TSA'
p68
tp69
Rp70
ag10
(g14
S'w\xaf\xb9\xb0U|SA'
p71
tp72
Rp73
ag10
(g14
S'\xd5x\xe9\xd6!\x1eSA'
p74
tp75
Rp76
asS'target'
p77
(lp78
g10
(g14
S'\xf8\xa9\xf1\xd2M\xeeq@'
p79
tp80
Rp81
ag10
(g14
S'k\xbct\x93\x18\xb5r@'
p82
tp83
Rp84
ag10
(g14
S'\x83\x16\xd9\xce\xf7xq@'
p85
tp86
Rp87
ag10
(g14
S'\xd3\xa3p=\n\xc9t@'
p88
tp89
Rp90
ag10
(g14
S'\x13X9\xb4\xc8\xb0t@'
p91
tp92
Rp93
ag10
(g14
S'\x96\x18\x04V\x0e\xe7q@'
p94
tp95
Rp96
ag10
(g14
S'\x94\xc2\xf5(\\Rs@'
p97
tp98
Rp99
ag10
(g14
S'\x18\xaeG\xe1z\x05r@'
p100
tp101
Rp102
ag10
(g14
S'\xcev\xbe\x9f\x1a0t@'
p103
tp104
Rp105
ag10
(g14
S'\xff*\x87\x16\xd9Jq@'
p106
tp107
Rp108
ag10
(g14
S'\xdcO\x8d\x97n\x8fs@'
p109
tp110
Rp111
ag10
(g14
S'\xe2O\x8d\x97n\x0ev@'
p112
tp113
Rp114
ag10
(g14
S' Zd;\xdf\xc1p@'
p115
tp116
Rp117
ag10
(g14
S'X9\xb4\xc8vJv@'
p118
tp119
Rp120
ag10
(g14
S'T\xbaI\x0c\x02\xafo@'
p121
tp122
Rp123
ag10
(g14
S'73333Cq@'
p124
tp125
Rp126
ag10
(g14
S'\xdbO\x8d\x97n\x02x@'
p127
tp128
Rp129
ag10
(g14
S'\x16\xd9\xce\xf7S\\p@'
p130
tp131
Rp132
ag10
(g14
S'\x01+\x87\x16\xd9\xd0q@'
p133
tp134
Rp135
ag10
(g14
S'\xa1\xef\xa7\xc6Kit@'
p136
tp137
Rp138
asssss.