(dp0
S'../Data/sqlite_32.csv'
p1
(dp2
S'../Data/sqlite_94.csv'
p3
(dp4
F0.1
(dp5
S'mmre'
p6
(dp7
S'bellwether'
p8
(lp9
cnumpy.core.multiarray
scalar
p10
(cnumpy
dtype
p11
(S'f8'
p12
I0
I1
tp13
Rp14
(I3
S'<'
p15
NNNI-1
I-1
I0
tp16
bS'\x15\xcf@\xc5\xccT}@'
p17
tp18
Rp19
ag10
(g14
S'Y\x0b3SV*}@'
p20
tp21
Rp22
ag10
(g14
S'\xe8C\xfb\xcf)&}@'
p23
tp24
Rp25
ag10
(g14
S'K;\x9d\xa3\x909}@'
p26
tp27
Rp28
ag10
(g14
S'U\x9d|\xf7\x89F}@'
p29
tp30
Rp31
ag10
(g14
S')\xa5N.\xc50}@'
p32
tp33
Rp34
ag10
(g14
S'B\xea\xe1\x9e\x113}@'
p35
tp36
Rp37
ag10
(g14
S'\t\xf9\x1f\x17\xf0L}@'
p38
tp39
Rp40
ag10
(g14
S'\x9b\xfa\xf7\xa2TW}@'
p41
tp42
Rp43
ag10
(g14
S"'L\x0b\x05\xf7m}@"
p44
tp45
Rp46
ag10
(g14
S'\xdc~\x9b\xb22^}@'
p47
tp48
Rp49
ag10
(g14
S't}\x13\x9f\xda6}@'
p50
tp51
Rp52
ag10
(g14
S'\xc04\xc5\xbb\xf0W}@'
p53
tp54
Rp55
ag10
(g14
S'\xb1\x12\xad(2G}@'
p56
tp57
Rp58
ag10
(g14
S' \x14&\x158P}@'
p59
tp60
Rp61
ag10
(g14
S'\x12\xbe\xddo\xfcX}@'
p62
tp63
Rp64
ag10
(g14
S'N\xff\xe8)\x96\x10}@'
p65
tp66
Rp67
ag10
(g14
S')\xbf\xe6\xcc\xde\x85}@'
p68
tp69
Rp70
ag10
(g14
S'Cu/\xff\xe2>}@'
p71
tp72
Rp73
ag10
(g14
S'$$@\x95\x93M}@'
p74
tp75
Rp76
asS'target'
p77
(lp78
g10
(g14
S'E\x89\x8f\x85\xa8ZQ@'
p79
tp80
Rp81
ag10
(g14
S'r\xe4m\xa5PVS@'
p82
tp83
Rp84
ag10
(g14
S'\xfb\xb4W\x00X\xc4Q@'
p85
tp86
Rp87
ag10
(g14
S'\xa6\xc7\xc5;\xb6oK@'
p88
tp89
Rp90
ag10
(g14
S'\xc2\xa5\xb1\xa1n\x94K@'
p91
tp92
Rp93
ag10
(g14
S'J\x03\xcc_\xad\xfeD@'
p94
tp95
Rp96
ag10
(g14
S's\xc5\x84$VmL@'
p97
tp98
Rp99
ag10
(g14
S'\xab\xac\x00\xec~\x93S@'
p100
tp101
Rp102
ag10
(g14
S'^v\x19\x18(TW@'
p103
tp104
Rp105
ag10
(g14
S'\xe1\x8f\x04\x10\xb8\x1dL@'
p106
tp107
Rp108
ag10
(g14
S'\xbc\x83\x81\xf4\t\xc7Q@'
p109
tp110
Rp111
ag10
(g14
S'B$\x8a \x88PP@'
p112
tp113
Rp114
ag10
(g14
S'\xa2\xb7\xeevkQY@'
p115
tp116
Rp117
ag10
(g14
S"\x96'\xaf\xdb1#J@"
p118
tp119
Rp120
ag10
(g14
S'{\x06\xf5\xb4\xa8!^@'
p121
tp122
Rp123
ag10
(g14
S'\x02\xd6(\x12\x9boT@'
p124
tp125
Rp126
ag10
(g14
S'\x99\xf3\xd1[QFS@'
p127
tp128
Rp129
ag10
(g14
S'Fa?4\x07g[@'
p130
tp131
Rp132
ag10
(g14
S'\xbcAC+Y\xc7L@'
p133
tp134
Rp135
ag10
(g14
S'\xec`\x82b\xb6\xf7T@'
p136
tp137
Rp138
asssss.