(dp0
S'../Data/sqlite_75.csv'
p1
(dp2
S'../Data/sqlite_77.csv'
p3
(dp4
F0.25
(dp5
S'mmre'
p6
(dp7
S'bellwether'
p8
(lp9
cnumpy.core.multiarray
scalar
p10
(cnumpy
dtype
p11
(S'f8'
p12
I0
I1
tp13
Rp14
(I3
S'<'
p15
NNNI-1
I-1
I0
tp16
bS';b\xc0AZQP@'
p17
tp18
Rp19
ag10
(g14
S'\x97oN\x0b\xcbHP@'
p20
tp21
Rp22
ag10
(g14
S'W\xa5\x0e-\xa4YP@'
p23
tp24
Rp25
ag10
(g14
S'\x11%\xa3\x92qOP@'
p26
tp27
Rp28
ag10
(g14
S'!\x19\x9c\xb8\x13OP@'
p29
tp30
Rp31
ag10
(g14
S'\x9f\x84\x7f\xcafQP@'
p32
tp33
Rp34
ag10
(g14
S'\x11\xb2\xca\x9bAVP@'
p35
tp36
Rp37
ag10
(g14
S'\xd6\xe1{Iz_P@'
p38
tp39
Rp40
ag10
(g14
S'\xcam\xf6A\x01SP@'
p41
tp42
Rp43
ag10
(g14
S'p\xbd\xd7\xfbsXP@'
p44
tp45
Rp46
ag10
(g14
S'\x06w\xb1\xe1;RP@'
p47
tp48
Rp49
ag10
(g14
S'\x94N\xa8\xb3\xf8bP@'
p50
tp51
Rp52
ag10
(g14
S'\x9b\xde\x19>\xd8UP@'
p53
tp54
Rp55
ag10
(g14
S'\x11\xd7\x1a\x8byKP@'
p56
tp57
Rp58
ag10
(g14
S'\x05K\xb3\xeb8YP@'
p59
tp60
Rp61
ag10
(g14
S't\x9fE\x06\xbbaP@'
p62
tp63
Rp64
ag10
(g14
S'\xbe2\xa9\xe2\xe1RP@'
p65
tp66
Rp67
ag10
(g14
S'f\xb7"]\x1cXP@'
p68
tp69
Rp70
ag10
(g14
S'\xce\xd7\xac\x14\n[P@'
p71
tp72
Rp73
ag10
(g14
S'e\x81a\x89\x92XP@'
p74
tp75
Rp76
asS'target'
p77
(lp78
g10
(g14
S'\xa66\xda\xf6-\x107@'
p79
tp80
Rp81
ag10
(g14
S'"\x9fra\xed\xd95@'
p82
tp83
Rp84
ag10
(g14
S"'K|\x81\xd9\xa14@"
p85
tp86
Rp87
ag10
(g14
S'\x1d\x97^zl\x954@'
p88
tp89
Rp90
ag10
(g14
S'\xba\xb4O\x88\x92\xd95@'
p91
tp92
Rp93
ag10
(g14
S'\xc8\xe8\x92\xd59V7@'
p94
tp95
Rp96
ag10
(g14
S'\xc9l#i5J5@'
p97
tp98
Rp99
ag10
(g14
S'\x01\xd2\x1c\xf8\x8f)5@'
p100
tp101
Rp102
ag10
(g14
S'\xb6O\x1f\xf6\x9577@'
p103
tp104
Rp105
ag10
(g14
S'\xca<\xf3z\xe1d5@'
p106
tp107
Rp108
ag10
(g14
S'\x8b\xc9B\xc7EH6@'
p109
tp110
Rp111
ag10
(g14
S'\xafs\xc1\xdd\xf0\xb75@'
p112
tp113
Rp114
ag10
(g14
S'\xd4\x98Gs]d5@'
p115
tp116
Rp117
ag10
(g14
S'`\t2\x07p\xb16@'
p118
tp119
Rp120
ag10
(g14
S'\x06\xa9DhA?6@'
p121
tp122
Rp123
ag10
(g14
S'6\x9f{\xb2u\x866@'
p124
tp125
Rp126
ag10
(g14
S'\xc4\x0c\x84O\xac 5@'
p127
tp128
Rp129
ag10
(g14
S'\x13B\xe7\x1f\x8b[5@'
p130
tp131
Rp132
ag10
(g14
S'"1H\x86\xdf&4@'
p133
tp134
Rp135
ag10
(g14
S'\x0e\x845\r\xb3t6@'
p136
tp137
Rp138
asssss.