(dp0
S'../Data/sqlite_16.csv'
p1
(dp2
S'../Data/sqlite_86.csv'
p3
(dp4
F0.35
(dp5
S'mmre'
p6
(dp7
S'bellwether'
p8
(lp9
cnumpy.core.multiarray
scalar
p10
(cnumpy
dtype
p11
(S'f8'
p12
I0
I1
tp13
Rp14
(I3
S'<'
p15
NNNI-1
I-1
I0
tp16
bS'\xff\x8d\xe0h*\x974@'
p17
tp18
Rp19
ag10
(g14
S'1\x8b=G\xf5\n5@'
p20
tp21
Rp22
ag10
(g14
S'S\xdd\x99,(\x8c3@'
p23
tp24
Rp25
ag10
(g14
S'\xcc\xf0\xa1\xfao\xdb4@'
p26
tp27
Rp28
ag10
(g14
S'\x92t\x8bx\xff\x1f5@'
p29
tp30
Rp31
ag10
(g14
S'H^\x89A\xd0;4@'
p32
tp33
Rp34
ag10
(g14
S'Y\xe8_V\xd9\x8c4@'
p35
tp36
Rp37
ag10
(g14
S'N\x8c\xddeKW6@'
p38
tp39
Rp40
ag10
(g14
S'\xed\xc9\xb4W\x96\xf64@'
p41
tp42
Rp43
ag10
(g14
S'\xe4:j\r\xe7%5@'
p44
tp45
Rp46
ag10
(g14
S'-F\xe1\xbbGN5@'
p47
tp48
Rp49
ag10
(g14
S'U\xe3\x02J\xbad5@'
p50
tp51
Rp52
ag10
(g14
S'\xd2\xab(\xa1\xa3A5@'
p53
tp54
Rp55
ag10
(g14
S'\xad<y` 95@'
p56
tp57
Rp58
ag10
(g14
S'\xd5\\sX\xe6R4@'
p59
tp60
Rp61
ag10
(g14
S'\x0c\xa3B\xde\xb6)6@'
p62
tp63
Rp64
ag10
(g14
S'\xdel\xfbvE\x9f4@'
p65
tp66
Rp67
ag10
(g14
S't\x05$\x8b\xad\xc84@'
p68
tp69
Rp70
ag10
(g14
S']\xb5\xcb_s\xf24@'
p71
tp72
Rp73
ag10
(g14
S'_0\xe0\x92v|5@'
p74
tp75
Rp76
asS'target'
p77
(lp78
g10
(g14
S'+\x19\x87;R\xecQ@'
p79
tp80
Rp81
ag10
(g14
S'Nc\x0f\xb1\x02NG@'
p82
tp83
Rp84
ag10
(g14
S'\x18\xb5\xa7]>1Q@'
p85
tp86
Rp87
ag10
(g14
S'\xfa\xf7\x00\xc8\x01\x88N@'
p88
tp89
Rp90
ag10
(g14
S'mN3\xd9r*Q@'
p91
tp92
Rp93
ag10
(g14
S'\xc5"o0\xa7\x1cP@'
p94
tp95
Rp96
ag10
(g14
S'\x84]\xd8\nD\x10M@'
p97
tp98
Rp99
ag10
(g14
S'\xf6P\xa1&\x84AF@'
p100
tp101
Rp102
ag10
(g14
S'5\x1e\xe2\x83\x8ejI@'
p103
tp104
Rp105
ag10
(g14
S'\xeb5\xac\x1d\x8e\x8cS@'
p106
tp107
Rp108
ag10
(g14
S',[\x85F\xcd\x9aQ@'
p109
tp110
Rp111
ag10
(g14
S'J\xe6h\x0c\x1d\tS@'
p112
tp113
Rp114
ag10
(g14
S'\x0b\\\x87V\xa6+M@'
p115
tp116
Rp117
ag10
(g14
S'\xc97\xd6\x9d\x85\xdeS@'
p118
tp119
Rp120
ag10
(g14
S'F}K\xdf\x19pR@'
p121
tp122
Rp123
ag10
(g14
S'\x0bkr\xecz\xa8P@'
p124
tp125
Rp126
ag10
(g14
S'\x99\x81\x9e\xa9C\xffM@'
p127
tp128
Rp129
ag10
(g14
S')y\x15S\xd31M@'
p130
tp131
Rp132
ag10
(g14
S'WY\xc2\xde\xaf\xe1P@'
p133
tp134
Rp135
ag10
(g14
S'oQl\x06\xb5\x1aQ@'
p136
tp137
Rp138
asssss.