(dp0
S'../Data/sqlite_5.csv'
p1
(dp2
S'../Data/sqlite_91.csv'
p3
(dp4
F0.05
(dp5
S'mmre'
p6
(dp7
S'bellwether'
p8
(lp9
cnumpy.core.multiarray
scalar
p10
(cnumpy
dtype
p11
(S'f8'
p12
I0
I1
tp13
Rp14
(I3
S'<'
p15
NNNI-1
I-1
I0
tp16
bS'\x12\xb1r\x04*`X@'
p17
tp18
Rp19
ag10
(g14
S'\xb1-\xa2\xa15]X@'
p20
tp21
Rp22
ag10
(g14
S'b^\x00\x18\x96]X@'
p23
tp24
Rp25
ag10
(g14
S'\xc8\x91d\xf1\xcc^X@'
p26
tp27
Rp28
ag10
(g14
S'1`p\x91\x9f_X@'
p29
tp30
Rp31
ag10
(g14
S'\xf3\x07\x93\x04?]X@'
p32
tp33
Rp34
ag10
(g14
S'\x91\x8eOT\tbX@'
p35
tp36
Rp37
ag10
(g14
S'\xa3<\xa7MO]X@'
p38
tp39
Rp40
ag10
(g14
S'U#\x15$VgX@'
p41
tp42
Rp43
ag10
(g14
S'\x93\r~\x15\xf7_X@'
p44
tp45
Rp46
ag10
(g14
S'\xd4j\xbc\x83\xb6_X@'
p47
tp48
Rp49
ag10
(g14
S'\xfd\xa0|\xa0t]X@'
p50
tp51
Rp52
ag10
(g14
S'\x0eM\x85\xcc\xdd_X@'
p53
tp54
Rp55
ag10
(g14
S'\xe7U\x17RjbX@'
p56
tp57
Rp58
ag10
(g14
S'\x96\x04\x9f\xee\xc2_X@'
p59
tp60
Rp61
ag10
(g14
S'\x1c\x18T\x99\x02]X@'
p62
tp63
Rp64
ag10
(g14
S'\x97\xf8\xfc\xb4\xea^X@'
p65
tp66
Rp67
ag10
(g14
S'\x93\x90\xd7\x95KdX@'
p68
tp69
Rp70
ag10
(g14
S'\xbb\xc9\xa3\xe0\x04_X@'
p71
tp72
Rp73
ag10
(g14
S'v\xb9m{ycX@'
p74
tp75
Rp76
asS'target'
p77
(lp78
g10
(g14
S'P\x99L-\xca\x0bN@'
p79
tp80
Rp81
ag10
(g14
S'D\xeaU\x9e\xc7\x9dQ@'
p82
tp83
Rp84
ag10
(g14
S'-\n\xdb\t\x87FP@'
p85
tp86
Rp87
ag10
(g14
S'\x87\xe8%\x16\x8abP@'
p88
tp89
Rp90
ag10
(g14
S'q\x90up`xN@'
p91
tp92
Rp93
ag10
(g14
S"\x1b\xdc\xac'\xc1\xd4P@"
p94
tp95
Rp96
ag10
(g14
S'TMU\xda\xeb{Q@'
p97
tp98
Rp99
ag10
(g14
S'~\xab\xac\x1b\xf2)P@'
p100
tp101
Rp102
ag10
(g14
S'\x99E\x97\x02\xcd\xd5M@'
p103
tp104
Rp105
ag10
(g14
S'\xedE\x8d3\xb7\xdaN@'
p106
tp107
Rp108
ag10
(g14
S'9,\xa7q\x1c\x81O@'
p109
tp110
Rp111
ag10
(g14
S'\x97\x159\xea\x197O@'
p112
tp113
Rp114
ag10
(g14
S'\x176w\xa1\xb4@P@'
p115
tp116
Rp117
ag10
(g14
S"\xe9'\xd1YI:O@"
p118
tp119
Rp120
ag10
(g14
S'\x8d\x9ai\xb7J\x84N@'
p121
tp122
Rp123
ag10
(g14
S'\xfb\xb5\xce}~9P@'
p124
tp125
Rp126
ag10
(g14
S"T:\xe9\xa1'vQ@"
p127
tp128
Rp129
ag10
(g14
S'\r\x12ne\x1b\x08P@'
p130
tp131
Rp132
ag10
(g14
S'\x1c=,\xb7j\\P@'
p133
tp134
Rp135
ag10
(g14
S'7\xc6\xdf\x88,.P@'
p136
tp137
Rp138
asssss.