(dp0
S'../Data/sqlite_46.csv'
p1
(dp2
S'../Data/sqlite_30.csv'
p3
(dp4
F0.35
(dp5
S'abs_res'
p6
(dp7
S'bellwether'
p8
(lp9
cnumpy.core.multiarray
scalar
p10
(cnumpy
dtype
p11
(S'f8'
p12
I0
I1
tp13
Rp14
(I3
S'<'
p15
NNNI-1
I-1
I0
tp16
bS'\xc5\x9f\x1a\xaf\x1329A'
p17
tp18
Rp19
ag10
(g14
S'\xb2\xf1\xd2\r\x1b49A'
p20
tp21
Rp22
ag10
(g14
S'\x18\xaeGA\xfa19A'
p23
tp24
Rp25
ag10
(g14
S'\xfe\xa9\xf1\xf2\x1c29A'
p26
tp27
Rp28
ag10
(g14
S'~j\xbcT\xdb29A'
p29
tp30
Rp31
ag10
(g14
S'I5^Zw29A'
p32
tp33
Rp34
ag10
(g14
S'\x1c\xaeGA\xaf19A'
p35
tp36
Rp37
ag10
(g14
S'\xa6\x1a/]\x8429A'
p38
tp39
Rp40
ag10
(g14
S'\xce"\xdb\xb9\x0c49A'
p41
tp42
Rp43
ag10
(g14
S'\xcfv\xbe_\x0349A'
p44
tp45
Rp46
ag10
(g14
S'\x8c\xc2\xf5\xe8\xd129A'
p47
tp48
Rp49
ag10
(g14
S'}?5\xbe649A'
p50
tp51
Rp52
ag10
(g14
S'3\x08\xac\\\xae29A'
p53
tp54
Rp55
ag10
(g14
S'_\xe5\xd0\xe2\x8239A'
p56
tp57
Rp58
ag10
(g14
S'"\xdb\xf9\x9ep29A'
p59
tp60
Rp61
ag10
(g14
S'\xc0\xf3\xfdt\x0849A'
p62
tp63
Rp64
ag10
(g14
S'\x0f\x02+Gz39A'
p65
tp66
Rp67
ag10
(g14
S'iff\xe6\xf339A'
p68
tp69
Rp70
ag10
(g14
S'\x1bZd\x9b\xb439A'
p71
tp72
Rp73
ag10
(g14
S'+\xdd$fB29A'
p74
tp75
Rp76
asS'target'
p77
(lp78
g10
(g14
S'\xd9\xa3p=\n\xa7;@'
p79
tp80
Rp81
ag10
(g14
S'x\x14\xaeG\xe1\xca9@'
p82
tp83
Rp84
ag10
(g14
S'\xc8v\xbe\x9f\x1a\xaf8@'
p85
tp86
Rp87
ag10
(g14
S'f\xe5\xd0"\xdbI;@'
p88
tp89
Rp90
ag10
(g14
S']9\xb4\xc8v\x9e<@'
p91
tp92
Rp93
ag10
(g14
S'\xee|?5^\x8a@@'
p94
tp95
Rp96
ag10
(g14
S'#\\\x8f\xc2\xf5\xb88@'
p97
tp98
Rp99
ag10
(g14
S'\xe0O\x8d\x97n\xb2:@'
p100
tp101
Rp102
ag10
(g14
S'\x92\x97n\x12\x83 >@'
p103
tp104
Rp105
ag10
(g14
S'J7\x89A`e>@'
p106
tp107
Rp108
ag10
(g14
S'qh\x91\xed|\xff;@'
p109
tp110
Rp111
ag10
(g14
S'\xc4\xca\xa1E\xb6\x03@@'
p112
tp113
Rp114
ag10
(g14
S'<\n\xd7\xa3p\r9@'
p115
tp116
Rp117
ag10
(g14
S'i\x10X9\xb4\x88;@'
p118
tp119
Rp120
ag10
(g14
S'\xc6\xf7S\xe3\xa5\x1b=@'
p121
tp122
Rp123
ag10
(g14
S'\xf2|?5^:<@'
p124
tp125
Rp126
ag10
(g14
S'\xbd\x9d\xef\xa7\xc6\xab;@'
p127
tp128
Rp129
ag10
(g14
S'\x97\x18\x04V\x0e\xad9@'
p130
tp131
Rp132
ag10
(g14
S'\xdf\xf9~j\xbc\\A@'
p133
tp134
Rp135
ag10
(g14
S'7\xdfO\x8d\x97.8@'
p136
tp137
Rp138
asssss.