(dp0
S'../Data/sqlite_43.csv'
p1
(dp2
S'../Data/sqlite_36.csv'
p3
(dp4
F0.15
(dp5
S'abs_res'
p6
(dp7
S'bellwether'
p8
(lp9
cnumpy.core.multiarray
scalar
p10
(cnumpy
dtype
p11
(S'f8'
p12
I0
I1
tp13
Rp14
(I3
S'<'
p15
NNNI-1
I-1
I0
tp16
bS"w\x14\xaeW~'@A"
p17
tp18
Rp19
ag10
(g14
S"\x11\x02+\xe7M'@A"
p20
tp21
Rp22
ag10
(g14
S"R\x1b\xe8TI'@A"
p23
tp24
Rp25
ag10
(g14
S"j\x1f>c\x07'@A"
p26
tp27
Rp28
ag10
(g14
S"\x1d\x85\xeb\x01s'@A"
p29
tp30
Rp31
ag10
(g14
S"\xca\xae\x00\xf9\xab'@A"
p32
tp33
Rp34
ag10
(g14
S"\xdf$\x06\xd1J'@A"
p35
tp36
Rp37
ag10
(g14
S"~\xcd\x85\xf4\x97'@A"
p38
tp39
Rp40
ag10
(g14
S'K\x0c\x02\x0b\x14(@A'
p41
tp42
Rp43
ag10
(g14
S"\xd4\xf7S\xc3\xb3'@A"
p44
tp45
Rp46
ag10
(g14
S"\xf7\xfd\xd4\xd8\x8c'@A"
p47
tp48
Rp49
ag10
(g14
S"\xe1O\x8dg\xd5'@A"
p50
tp51
Rp52
ag10
(g14
S'\xaec\x82G\xdd&@A'
p53
tp54
Rp55
ag10
(g14
S"|\xbe\x9f\x1aZ'@A"
p56
tp57
Rp58
ag10
(g14
S"\xcb\x85\xa49\xaf'@A"
p59
tp60
Rp61
ag10
(g14
S'2\x08\xac\xbc\xbf&@A'
p62
tp63
Rp64
ag10
(g14
S"\xab\x1cZD\x9d'@A"
p65
tp66
Rp67
ag10
(g14
S"633\xe3\xf5'@A"
p68
tp69
Rp70
ag10
(g14
S"=\n\xd7s3'@A"
p71
tp72
Rp73
ag10
(g14
S"=\n\xd7\xd3\x88'@A"
p74
tp75
Rp76
asS'target'
p77
(lp78
g10
(g14
S'U`\xe5\xd0"+Z@'
p79
tp80
Rp81
ag10
(g14
S'F\xe1z\x14\xae\xbfY@'
p82
tp83
Rp84
ag10
(g14
S'\x9d\x1a/\xdd$VZ@'
p85
tp86
Rp87
ag10
(g14
S'\xdbMb\x10X\xc9[@'
p88
tp89
Rp90
ag10
(g14
S'\xea\xfd\xd4x\xe9\xd6Y@'
p91
tp92
Rp93
ag10
(g14
S'\xb7G\xe1z\x14\xceW@'
p94
tp95
Rp96
ag10
(g14
S'd\x8f\xc2\xf5(\xe8Y@'
p97
tp98
Rp99
ag10
(g14
S'~\xbe\x9f\x1a/\rW@'
p100
tp101
Rp102
ag10
(g14
S'\xf7\xfd\xd4x\xe9\xe6Y@'
p103
tp104
Rp105
ag10
(g14
S'/\xdd$\x06\x81}Z@'
p106
tp107
Rp108
ag10
(g14
S'\xdb\xf9~j\xbc\xe8X@'
p109
tp110
Rp111
ag10
(g14
S'\x89A`\xe5\xd0\x82X@'
p112
tp113
Rp114
ag10
(g14
S'G\xb4\xc8v\xbe[X@'
p115
tp116
Rp117
ag10
(g14
S'a;\xdfO\x8d\xbfX@'
p118
tp119
Rp120
ag10
(g14
S'xj\xbct\x93XX@'
p121
tp122
Rp123
ag10
(g14
S'+\xdb\xf9~j\\Y@'
p124
tp125
Rp126
ag10
(g14
S'\x19\xaeG\xe1z\xecY@'
p127
tp128
Rp129
ag10
(g14
S'bffff\xd6W@'
p130
tp131
Rp132
ag10
(g14
S'\x8b\x97n\x12\x83@Z@'
p133
tp134
Rp135
ag10
(g14
S'\xa1\x99\x99\x99\x99\xf9Y@'
p136
tp137
Rp138
asssss.