(dp0
S'../Data/sqlite_57.csv'
p1
(dp2
S'../Data/sqlite_35.csv'
p3
(dp4
F0.2
(dp5
S'abs_res'
p6
(dp7
S'bellwether'
p8
(lp9
cnumpy.core.multiarray
scalar
p10
(cnumpy
dtype
p11
(S'f8'
p12
I0
I1
tp13
Rp14
(I3
S'<'
p15
NNNI-1
I-1
I0
tp16
bS'U9\xb4\xcc3GgA'
p17
tp18
Rp19
ag10
(g14
S'z\x95CoDIgA'
p20
tp21
Rp22
ag10
(g14
S'\xe0&1\xb4AGgA'
p23
tp24
Rp25
ag10
(g14
S'\x10\xd9\xceC\x86KgA'
p26
tp27
Rp28
ag10
(g14
S']\x8f\xc2\x91\x7fBgA'
p29
tp30
Rp31
ag10
(g14
S'133+\xb1AgA'
p32
tp33
Rp34
ag10
(g14
S'S\xe3\xa5\x1f\xa3AgA'
p35
tp36
Rp37
ag10
(g14
S'\x10\xaeG1`HgA'
p38
tp39
Rp40
ag10
(g14
S'\x12\x02+o\xa6IgA'
p41
tp42
Rp43
ag10
(g14
S'\xad\xc8v*KKgA'
p44
tp45
Rp46
ag10
(g14
S'\x03V\x0e!\xb08gA'
p47
tp48
Rp49
ag10
(g14
S'Nb\x10\\\xdeHgA'
p50
tp51
Rp52
ag10
(g14
S'X\xbaI\x84\x93DgA'
p53
tp54
Rp55
ag10
(g14
S'-\xb4\xc8ZzPgA'
p56
tp57
Rp58
ag10
(g14
S'\x92C\x8b@\xf6FgA'
p59
tp60
Rp61
ag10
(g14
S'\x0e\x83\xc0\x1a\xf3GgA'
p62
tp63
Rp64
ag10
(g14
S'\xfa\xd2M\xbe\xb0HgA'
p65
tp66
Rp67
ag10
(g14
S'\xd7\xce\xf7\x03~DgA'
p68
tp69
Rp70
ag10
(g14
S'o=\n\xef\xfd>gA'
p71
tp72
Rp73
ag10
(g14
S'\xc4\xf5(T\xe9BgA'
p74
tp75
Rp76
asS'target'
p77
(lp78
g10
(g14
S'Pb\x10X9\n`@'
p79
tp80
Rp81
ag10
(g14
S'O\x8d\x97n\x12\xcf`@'
p82
tp83
Rp84
ag10
(g14
S'^\xbaI\x0c\x02[a@'
p85
tp86
Rp87
ag10
(g14
S'\xf0\xd2Mb\x10@_@'
p88
tp89
Rp90
ag10
(g14
S'\x98\x18\x04V\x0ea`@'
p91
tp92
Rp93
ag10
(g14
S'T\xbaI\x0c\x02s_@'
p94
tp95
Rp96
ag10
(g14
S'}\xc0\xca\xa1E^`@'
p97
tp98
Rp99
ag10
(g14
S'\t\xac\x1cZd\x9fa@'
p100
tp101
Rp102
ag10
(g14
S'\xc5\xca\xa1E\xb6o`@'
p103
tp104
Rp105
ag10
(g14
S'pffff\xcab@'
p106
tp107
Rp108
ag10
(g14
S'\xe9\xa7\xc6K7\x9f`@'
p109
tp110
Rp111
ag10
(g14
S'\n\x02+\x87\x16\x11^@'
p112
tp113
Rp114
ag10
(g14
S'\xdaO\x8d\x97n\xa2`@'
p115
tp116
Rp117
ag10
(g14
S'\xf6|?5^\x0eb@'
p118
tp119
Rp120
ag10
(g14
S'\x80\x14\xaeG\xe1\xee`@'
p121
tp122
Rp123
ag10
(g14
S'\x06+\x87\x16\xd9&b@'
p124
tp125
Rp126
ag10
(g14
S'\x8d\xed|?5\xf0`@'
p127
tp128
Rp129
ag10
(g14
S'D`\xe5\xd0";_@'
p130
tp131
Rp132
ag10
(g14
S'x\xc0\xca\xa1EN^@'
p133
tp134
Rp135
ag10
(g14
S"'Zd;\xdfG_@"
p136
tp137
Rp138
asssss.