(dp0
S'../Data/sqlite_36.csv'
p1
(dp2
S'../Data/sqlite_40.csv'
p3
(dp4
F0.25
(dp5
S'rank'
p6
(dp7
S'bellwether'
p8
(lp9
I483
aI80
aI81
aI77
aI476
aI479
aI309
aI487
aI72
aI75
aI482
aI75
aI77
aI487
aI480
aI80
aI481
aI52
aI485
aI488
asS'target'
p10
(lp11
I55
aI315
aI202
aI215
aI112
aI26
aI100
aI738
aI48
aI200
aI153
aI56
aI254
aI111
aI137
aI72
aI43
aI297
aI142
aI74
asssss.