(dp0
S'../Data/sqlite_74.csv'
p1
(dp2
S'../Data/sqlite_88.csv'
p3
(dp4
F0.05
(dp5
S'abs_res'
p6
(dp7
S'bellwether'
p8
(lp9
cnumpy.core.multiarray
scalar
p10
(cnumpy
dtype
p11
(S'f8'
p12
I0
I1
tp13
Rp14
(I3
S'<'
p15
NNNI-1
I-1
I0
tp16
bS'd\xc9/\x06VlVA'
p17
tp18
Rp19
ag10
(g14
S' \x85\xeb\xc1ZNVA'
p20
tp21
Rp22
ag10
(g14
S'I\xe1z\x14\xb12VA'
p23
tp24
Rp25
ag10
(g14
S'\xecQ\xb8\xbeCOVA'
p26
tp27
Rp28
ag10
(g14
S'>\n\xd7\x13M/VA'
p29
tp30
Rp31
ag10
(g14
S'\xecQ\xb8\x0eBJVA'
p32
tp33
Rp34
ag10
(g14
S'\xcb/\x96\x8cJOVA'
p35
tp36
Rp37
ag10
(g14
S'\x1e\x85\xeb\xe1\x7fPVA'
p38
tp39
Rp40
ag10
(g14
S'\xafG\xe1\n\xa38VA'
p41
tp42
Rp43
ag10
(g14
S'\xb7\x1e\x85\xdb\xa9gVA'
p44
tp45
Rp46
ag10
(g14
S'+\\\x8f\x02=]VA'
p47
tp48
Rp49
ag10
(g14
S'\xd8\xa3p\xbdMNVA'
p50
tp51
Rp52
ag10
(g14
S'1\x96\xfc\xd2HJVA'
p53
tp54
Rp55
ag10
(g14
S'q=\nWe>VA'
p56
tp57
Rp58
ag10
(g14
S'\xc4\xf5(\xcc\xc2&VA'
p59
tp60
Rp61
ag10
(g14
S'q=\n\xc7\xef6VA'
p62
tp63
Rp64
ag10
(g14
S'\xfdb\xc9\x9f\\(VA'
p65
tp66
Rp67
ag10
(g14
S'e\xc9/&\xd2YVA'
p68
tp69
Rp70
ag10
(g14
S'\xa4p=z\x08XVA'
p71
tp72
Rp73
ag10
(g14
S'\xbb\x1e\x85[\x1aXVA'
p74
tp75
Rp76
asS'target'
p77
(lp78
g10
(g14
S'\xe0z\x14\xee\x87$1A'
p79
tp80
Rp81
ag10
(g14
S'\r\xaeG!U\xf28A'
p82
tp83
Rp84
ag10
(g14
S'\xe0z\x14.G34A'
p85
tp86
Rp87
ag10
(g14
S'\xf4z\x14n\xd0\x0e>A'
p88
tp89
Rp90
ag10
(g14
S'@\n\xd7\xe3\x8d\x19=A'
p91
tp92
Rp93
ag10
(g14
S'\xaeG\xe1:\xa3\x894A'
p94
tp95
Rp96
ag10
(g14
S'\xacG\xe1:\xb8\xac1A'
p97
tp98
Rp99
ag10
(g14
S'\x1f\x85\xeb\x11\xc6k6A'
p100
tp101
Rp102
ag10
(g14
S'0\n\xd7c\xa3r:A'
p103
tp104
Rp105
ag10
(g14
S'\xe1z\x14\xee{\x027A'
p106
tp107
Rp108
ag10
(g14
S']\x8f\xc2\xf5\xa3*+A'
p109
tp110
Rp111
ag10
(g14
S'\x8e\xc2\xf5h\xb7N6A'
p112
tp113
Rp114
ag10
(g14
S'\xc4\xf5(\xdcv\x94+A'
p115
tp116
Rp117
ag10
(g14
S'\x1c\x85\xeb\xd1\x96\xda3A'
p118
tp119
Rp120
ag10
(g14
S'\xc1\x1e\x85K\x976GA'
p121
tp122
Rp123
ag10
(g14
S'\xb8\x1e\x85+j\x9f<A'
p124
tp125
Rp126
ag10
(g14
S'\xdc\xa3p\x9d\xea\xe4AA'
p127
tp128
Rp129
ag10
(g14
S'F\xe1zTS\xfd9A'
p130
tp131
Rp132
ag10
(g14
S'V\xb8\x1eEA\xc66A'
p133
tp134
Rp135
ag10
(g14
S'\xc3\xf5(\xdcmr#A'
p136
tp137
Rp138
asssss.