(dp0
S'../Data/sqlite_36.csv'
p1
(dp2
S'../Data/sqlite_85.csv'
p3
(dp4
F0.3
(dp5
S'abs_res'
p6
(dp7
S'bellwether'
p8
(lp9
cnumpy.core.multiarray
scalar
p10
(cnumpy
dtype
p11
(S'f8'
p12
I0
I1
tp13
Rp14
(I3
S'<'
p15
NNNI-1
I-1
I0
tp16
bS'.$M\xed8&SA'
p17
tp18
Rp19
ag10
(g14
S'H\xe1z\xb4-\x8cSA'
p20
tp21
Rp22
ag10
(g14
S'\x82\x95CG\xe1]SA'
p23
tp24
Rp25
ag10
(g14
S'\xec\xfb\xa9\xc9\x03|SA'
p26
tp27
Rp28
ag10
(g14
S'o\xda@\xb7c>SA'
p29
tp30
Rp31
ag10
(g14
S'\x04\xb9\xd7\xc8\xbagSA'
p32
tp33
Rp34
ag10
(g14
S'\xca\x04\x0f\x82g<SA'
p35
tp36
Rp37
ag10
(g14
S')@\xee\x95dhSA'
p38
tp39
Rp40
ag10
(g14
S'\xa6T\x9c-LsSA'
p41
tp42
Rp43
ag10
(g14
S'\xba\xd7\\\x00\xfapSA'
p44
tp45
Rp46
ag10
(g14
S'\xe5\xd0"\x8b\xeedSA'
p47
tp48
Rp49
ag10
(g14
S'\x95n\x12g\x96\xf9RA'
p50
tp51
Rp52
ag10
(g14
S'\xdf\xdd\xdd\xe9\x9e\x94SA'
p53
tp54
Rp55
ag10
(g14
S'\\d;\xfb\xea9SA'
p56
tp57
Rp58
ag10
(g14
S'\n\x90{\x95TZSA'
p59
tp60
Rp61
ag10
(g14
S';\x89A8q3SA'
p62
tp63
Rp64
ag10
(g14
S"*\xbfX\x9e\xd5'SA"
p65
tp66
Rp67
ag10
(g14
S'\xb5\x00\xb9g\xb3@SA'
p68
tp69
Rp70
ag10
(g14
S'\x9e\xa8\x7fg="SA'
p71
tp72
Rp73
ag10
(g14
S'\x16\xbd-\x7f96SA'
p74
tp75
Rp76
asS'target'
p77
(lp78
g10
(g14
S'\xdd\xa3p=\x13\xb8:A'
p79
tp80
Rp81
ag10
(g14
S'\x91\xc2\xf5(D\xf3:A'
p82
tp83
Rp84
ag10
(g14
S'\xabp=\xca\x86Y?A'
p85
tp86
Rp87
ag10
(g14
S'\x97\xfcbIa\x1a<A'
p88
tp89
Rp90
ag10
(g14
S'\xa4p=\n\xf1\x11>A'
p91
tp92
Rp93
ag10
(g14
S'[\xb8\x1eEuI=A'
p94
tp95
Rp96
ag10
(g14
S'\x8d\x14\xaeG\xd4\xa1;A'
p97
tp98
Rp99
ag10
(g14
S'\xa6p=\x8a7\x15;A'
p100
tp101
Rp102
ag10
(g14
S'\x80\xc2\xf5\xe8\x1b\x8d=A'
p103
tp104
Rp105
ag10
(g14
S'\xecQ\xb8^\xfdY>A'
p106
tp107
Rp108
ag10
(g14
S'\x8c\xebQ\xb8\xa4\xba<A'
p109
tp110
Rp111
ag10
(g14
S':333\xfe\xfd:A'
p112
tp113
Rp114
ag10
(g14
S'\xf1(\\\x0f4\x08=A'
p115
tp116
Rp117
ag10
(g14
S'\xeeQ\xb8\x1e\xb5P<A'
p118
tp119
Rp120
ag10
(g14
S'F\xe1z\xb4\xa5\n@A'
p121
tp122
Rp123
ag10
(g14
S'q=\n\xd7c\x9d=A'
p124
tp125
Rp126
ag10
(g14
S'\xfb\xff\xff\xbf\xc8\xd8?A'
p127
tp128
Rp129
ag10
(g14
S'\xf0(\\\x8f\xab\xd8<A'
p130
tp131
Rp132
ag10
(g14
S'f=\n\x97\x04\xd0<A'
p133
tp134
Rp135
ag10
(g14
S'\x7f=\nW\x1a><A'
p136
tp137
Rp138
asssss.