(dp0
S'../Data/sqlite_45.csv'
p1
(dp2
S'../Data/sqlite_77.csv'
p3
(dp4
F0.25
(dp5
S'mmre'
p6
(dp7
S'bellwether'
p8
(lp9
cnumpy.core.multiarray
scalar
p10
(cnumpy
dtype
p11
(S'f8'
p12
I0
I1
tp13
Rp14
(I3
S'<'
p15
NNNI-1
I-1
I0
tp16
bS'\xf3\xa7\xb3\xdf$|N@'
p17
tp18
Rp19
ag10
(g14
S'\x1c@\xee\x90\x88^N@'
p20
tp21
Rp22
ag10
(g14
S'>\xca\x85\xa7\xccXN@'
p23
tp24
Rp25
ag10
(g14
S'\xa1\xd22C\x9a\x7fN@'
p26
tp27
Rp28
ag10
(g14
S'\xa9\x93\xe2\x97DzN@'
p29
tp30
Rp31
ag10
(g14
S'\x97)\x9a\x9c\xfdZN@'
p32
tp33
Rp34
ag10
(g14
S'7\xb7?\x1a\xecnN@'
p35
tp36
Rp37
ag10
(g14
S'\xb5\xd4\xa6T\xfbgN@'
p38
tp39
Rp40
ag10
(g14
S"B'&\xabHxN@"
p41
tp42
Rp43
ag10
(g14
S'\xe8\x12G\xe6HtN@'
p44
tp45
Rp46
ag10
(g14
S'F\x99\xe7D6cN@'
p47
tp48
Rp49
ag10
(g14
S'\x8c\x8c+\xcb\xc0|N@'
p50
tp51
Rp52
ag10
(g14
S'%\xcc\xac\x00U]N@'
p53
tp54
Rp55
ag10
(g14
S'F\x0c\xc3\xc6\xdcTN@'
p56
tp57
Rp58
ag10
(g14
S"'H\x08\x9e\xc4^N@"
p59
tp60
Rp61
ag10
(g14
S'\xbei^\xf7TzN@'
p62
tp63
Rp64
ag10
(g14
S' \x01\xe8_\x8ewN@'
p65
tp66
Rp67
ag10
(g14
S'\xd0\xc3\x9e\xfcvkN@'
p68
tp69
Rp70
ag10
(g14
S':\x0c\xf2\xec\x9fwN@'
p71
tp72
Rp73
ag10
(g14
S'x\x10\x04h\x80^N@'
p74
tp75
Rp76
asS'target'
p77
(lp78
g10
(g14
S'\xc8\xfdo\xe6\xa5\x965@'
p79
tp80
Rp81
ag10
(g14
S'\xc3\x11\x06\xb6Z96@'
p82
tp83
Rp84
ag10
(g14
S"\xb9\x9e\x00',\xc16@"
p85
tp86
Rp87
ag10
(g14
S'~~\xb49I\xc26@'
p88
tp89
Rp90
ag10
(g14
S'\xf2\xc4\xbbR>\x937@'
p91
tp92
Rp93
ag10
(g14
S'\xdb\x86\x9b\xe6\xb4[5@'
p94
tp95
Rp96
ag10
(g14
S'\x0b\x81\x86i\xd0o6@'
p97
tp98
Rp99
ag10
(g14
S'\x9a\t\xd8\xb9N\xa07@'
p100
tp101
Rp102
ag10
(g14
S'z\xd8\xd3uy\x1d6@'
p103
tp104
Rp105
ag10
(g14
S'R\xd8\x811\xbe\xa86@'
p106
tp107
Rp108
ag10
(g14
S'\xd8+\xad\x87~\x965@'
p109
tp110
Rp111
ag10
(g14
S'j1+\xdb\x07\xbe4@'
p112
tp113
Rp114
ag10
(g14
S'j\xd0\xe8\x19H\x8f5@'
p115
tp116
Rp117
ag10
(g14
S'\xb26\xdf\xb6/H8@'
p118
tp119
Rp120
ag10
(g14
S'6Z\xf4<\xb9\xff7@'
p121
tp122
Rp123
ag10
(g14
S'^\xb8c\xa72\x145@'
p124
tp125
Rp126
ag10
(g14
S'\xb4pb;+\xd74@'
p127
tp128
Rp129
ag10
(g14
S"\xfcA'D\xe8=7@"
p130
tp131
Rp132
ag10
(g14
S'm^\x82S!05@'
p133
tp134
Rp135
ag10
(g14
S'-\xaa|*\xd0}5@'
p136
tp137
Rp138
asssss.