(dp0
S'../Data/sqlite_69.csv'
p1
(dp2
S'../Data/sqlite_85.csv'
p3
(dp4
F0.2
(dp5
S'mmre'
p6
(dp7
S'bellwether'
p8
(lp9
cnumpy.core.multiarray
scalar
p10
(cnumpy
dtype
p11
(S'f8'
p12
I0
I1
tp13
Rp14
(I3
S'<'
p15
NNNI-1
I-1
I0
tp16
bS'\xc2\x84\x14\xe2\xa5XX@'
p17
tp18
Rp19
ag10
(g14
S'h,\xda\xf3FZX@'
p20
tp21
Rp22
ag10
(g14
S'\xdc\xa5v\x82\xdaXX@'
p23
tp24
Rp25
ag10
(g14
S'p\x15\xfbr\x9cVX@'
p26
tp27
Rp28
ag10
(g14
S'\xbe\x8d\xfas\x1eVX@'
p29
tp30
Rp31
ag10
(g14
S'\x8c"e2 [X@'
p32
tp33
Rp34
ag10
(g14
S'b0a\xdfcVX@'
p35
tp36
Rp37
ag10
(g14
S'\x02\xed\x86\xd1.WX@'
p38
tp39
Rp40
ag10
(g14
S'\x1e\xc14\x88=WX@'
p41
tp42
Rp43
ag10
(g14
S'*\xd9\xe84a[X@'
p44
tp45
Rp46
ag10
(g14
S'\xfa\xb2Z\xe5\xe0VX@'
p47
tp48
Rp49
ag10
(g14
S'\xda\x98\xa1\xea\xa6TX@'
p50
tp51
Rp52
ag10
(g14
S'|\x16\xec7\x81TX@'
p53
tp54
Rp55
ag10
(g14
S'\xc6B\xbbk\x9eTX@'
p56
tp57
Rp58
ag10
(g14
S"x'r\xaa\xebTX@"
p59
tp60
Rp61
ag10
(g14
S'\x1aL\x99\x86\x84ZX@'
p62
tp63
Rp64
ag10
(g14
S'\x0c\x8e\x1eRGXX@'
p65
tp66
Rp67
ag10
(g14
S'\xc2\xf6\xac\x8a}XX@'
p68
tp69
Rp70
ag10
(g14
S'\x9d\xc8\xf6q\xf3SX@'
p71
tp72
Rp73
ag10
(g14
S'\xf9O7\xf8\x88WX@'
p74
tp75
Rp76
asS'target'
p77
(lp78
g10
(g14
S'\x18L\xf1V\xf5\xb6R@'
p79
tp80
Rp81
ag10
(g14
S'\x18\xab{\xa5s8S@'
p82
tp83
Rp84
ag10
(g14
S'\x87\x1dE\xc1\xd1\x14S@'
p85
tp86
Rp87
ag10
(g14
S'BimGl\xceR@'
p88
tp89
Rp90
ag10
(g14
S'\xb8=\xb4\xf2e\x03S@'
p91
tp92
Rp93
ag10
(g14
S'h-\xaa\x13}/Q@'
p94
tp95
Rp96
ag10
(g14
S'\x8cH\xc2\xca\x07\xa4T@'
p97
tp98
Rp99
ag10
(g14
S'Q\x05\x05b\xfdCV@'
p100
tp101
Rp102
ag10
(g14
S'\xb0\xa3\xc5\xea\x92fS@'
p103
tp104
Rp105
ag10
(g14
S'\xc5\x08\xa1\xbd~\xb9R@'
p106
tp107
Rp108
ag10
(g14
S'\xea\xff+X\xd2HU@'
p109
tp110
Rp111
ag10
(g14
S'@\xc4U\x9d6fS@'
p112
tp113
Rp114
ag10
(g14
S'\xe0g\x92<^\xd1S@'
p115
tp116
Rp117
ag10
(g14
S'FFd\x1bKzS@'
p118
tp119
Rp120
ag10
(g14
S'$\xe1\xceC+\xc8U@'
p121
tp122
Rp123
ag10
(g14
S'\xbc\xa4\x84\n\xea\x0cR@'
p124
tp125
Rp126
ag10
(g14
S'k\xa5*T+\x14R@'
p127
tp128
Rp129
ag10
(g14
S'\xcef\xef\xd8|IS@'
p130
tp131
Rp132
ag10
(g14
S'`\x9a\xb3\xd7\x810S@'
p133
tp134
Rp135
ag10
(g14
S'\xf62\xf5\xe4\xd7\xf3R@'
p136
tp137
Rp138
asssss.