(dp0
S'../Data/sqlite_51.csv'
p1
(dp2
S'../Data/sqlite_96.csv'
p3
(dp4
F0.25
(dp5
S'mmre'
p6
(dp7
S'bellwether'
p8
(lp9
cnumpy.core.multiarray
scalar
p10
(cnumpy
dtype
p11
(S'f8'
p12
I0
I1
tp13
Rp14
(I3
S'<'
p15
NNNI-1
I-1
I0
tp16
bS'\xaa|\xdc*<#X@'
p17
tp18
Rp19
ag10
(g14
S'\x8d\xc6F\x0cc"X@'
p20
tp21
Rp22
ag10
(g14
S'\x9fBI\xfa&#X@'
p23
tp24
Rp25
ag10
(g14
S'\x157\xe4x\xce#X@'
p26
tp27
Rp28
ag10
(g14
S'\xd0\xaa0\x81\x00%X@'
p29
tp30
Rp31
ag10
(g14
S'T\xf8\xdf\x99\x12$X@'
p32
tp33
Rp34
ag10
(g14
S'1w\xc2\x90{%X@'
p35
tp36
Rp37
ag10
(g14
S'\x80Tl\xae\xb9#X@'
p38
tp39
Rp40
ag10
(g14
S'3\xa9\xa1\xfa\xce$X@'
p41
tp42
Rp43
ag10
(g14
S'\xb8\xfe\x0e\x00\x12$X@'
p44
tp45
Rp46
ag10
(g14
S'\xd3"C\x8e\x80$X@'
p47
tp48
Rp49
ag10
(g14
S'\x06\x9b=\xa1\xc4#X@'
p50
tp51
Rp52
ag10
(g14
S'?\x0c\x92_\n$X@'
p53
tp54
Rp55
ag10
(g14
S'\x137\x97\xba\xd0$X@'
p56
tp57
Rp58
ag10
(g14
S'\xd1\xb7\r{a%X@'
p59
tp60
Rp61
ag10
(g14
S's*\xad\x08,"X@'
p62
tp63
Rp64
ag10
(g14
S'\xed\xc5\xad\xa7F$X@'
p65
tp66
Rp67
ag10
(g14
S'\xa7\xd1\x87\xed,$X@'
p68
tp69
Rp70
ag10
(g14
S'\x0f\x0e\xd9<\x9f#X@'
p71
tp72
Rp73
ag10
(g14
S'\xad\x8b$\xd9\x1e$X@'
p74
tp75
Rp76
asS'target'
p77
(lp78
g10
(g14
S'\x91{\xa7\xbcs\xe1\\@'
p79
tp80
Rp81
ag10
(g14
S'\xaaG$\x0c\xdb\x81_@'
p82
tp83
Rp84
ag10
(g14
S'1\xc9\x0eR\r\xd9^@'
p85
tp86
Rp87
ag10
(g14
S'\xcf\xf4J\xe4_\xd6R@'
p88
tp89
Rp90
ag10
(g14
S'\xf7_`\xb6\xf6vR@'
p91
tp92
Rp93
ag10
(g14
S'\x9c\x86`r\x01\xeb[@'
p94
tp95
Rp96
ag10
(g14
S'\xc5\xf9%\xf8\xcb@[@'
p97
tp98
Rp99
ag10
(g14
S'\xe0\xf0[yDHS@'
p100
tp101
Rp102
ag10
(g14
S'h}\xd0n\x07+V@'
p103
tp104
Rp105
ag10
(g14
S"\xb7\xea'zZvN@"
p106
tp107
Rp108
ag10
(g14
S'\x02\xe1\xd8\xecE\x16U@'
p109
tp110
Rp111
ag10
(g14
S"I\xbdJ5@'V@"
p112
tp113
Rp114
ag10
(g14
S'V\x16\xa7\x9e\xbc\xc3R@'
p115
tp116
Rp117
ag10
(g14
S'\xbe4\xfe\xf1\xa5!T@'
p118
tp119
Rp120
ag10
(g14
S'\xb17\xffy\xfe\xf5H@'
p121
tp122
Rp123
ag10
(g14
S"\xe0zK'\xeb\xb1_@"
p124
tp125
Rp126
ag10
(g14
S'~\x07\x10_\x99\x02V@'
p127
tp128
Rp129
ag10
(g14
S'\xde\xb8\xbc\xaaHgN@'
p130
tp131
Rp132
ag10
(g14
S'^y\x1f\xca/gQ@'
p133
tp134
Rp135
ag10
(g14
S'\xc9<\n\xa2\x93\x99X@'
p136
tp137
Rp138
asssss.