(dp0
S'../Data/sqlite_28.csv'
p1
(dp2
S'../Data/sqlite_87.csv'
p3
(dp4
F0.4
(dp5
S'mmre'
p6
(dp7
S'bellwether'
p8
(lp9
cnumpy.core.multiarray
scalar
p10
(cnumpy
dtype
p11
(S'f8'
p12
I0
I1
tp13
Rp14
(I3
S'<'
p15
NNNI-1
I-1
I0
tp16
bS"\xce;'\xacrUO@"
p17
tp18
Rp19
ag10
(g14
S'\xedv\xcc\x17IAO@'
p20
tp21
Rp22
ag10
(g14
S'H\xee\x90*\x95\x1bO@'
p23
tp24
Rp25
ag10
(g14
S'\xe8\x10:PyzO@'
p26
tp27
Rp28
ag10
(g14
S'\xc2\xbeL\xb4Z!O@'
p29
tp30
Rp31
ag10
(g14
S'\xed\xef%\x08\xeb@O@'
p32
tp33
Rp34
ag10
(g14
S']\x11\xe1\xb0\xd6CO@'
p35
tp36
Rp37
ag10
(g14
S'\xb2k\x9c\t\x0e\x1dO@'
p38
tp39
Rp40
ag10
(g14
S'z\xd0\x98\xdae,O@'
p41
tp42
Rp43
ag10
(g14
S'\x0f7h\xf5G>O@'
p44
tp45
Rp46
ag10
(g14
S'sA\xb7\xfa\x05@O@'
p47
tp48
Rp49
ag10
(g14
S'\xcb{9\xa9\x83[O@'
p50
tp51
Rp52
ag10
(g14
S'9\xa5\xe2&\x016O@'
p53
tp54
Rp55
ag10
(g14
S'\x853\x96X\x0fcO@'
p56
tp57
Rp58
ag10
(g14
S'\x138\x84=6|O@'
p59
tp60
Rp61
ag10
(g14
S'Ed\xdd\x02\xcbPO@'
p62
tp63
Rp64
ag10
(g14
S'\xf1\x02\xb1\r|\x7fO@'
p65
tp66
Rp67
ag10
(g14
S"g|'T)NO@"
p68
tp69
Rp70
ag10
(g14
S'\x9a\xf0l\xa4D)O@'
p71
tp72
Rp73
ag10
(g14
S'\xd3\xb7\xc4\x10\x01oO@'
p74
tp75
Rp76
asS'target'
p77
(lp78
g10
(g14
S'>\xdd\xeal\xd5\xa4L@'
p79
tp80
Rp81
ag10
(g14
S'yb=\xaae2Q@'
p82
tp83
Rp84
ag10
(g14
S'.\xa1\xb3TeRQ@'
p85
tp86
Rp87
ag10
(g14
S'\xc9\xfeyC\xabPJ@'
p88
tp89
Rp90
ag10
(g14
S'\x05\x907\x02\xac:P@'
p91
tp92
Rp93
ag10
(g14
S'\xb7w\xc1\x15\xdb\x8aQ@'
p94
tp95
Rp96
ag10
(g14
S'x\x94"\xb40bL@'
p97
tp98
Rp99
ag10
(g14
S'G[\xc6\x92\x8a\xcdO@'
p100
tp101
Rp102
ag10
(g14
S'\xd09(h`\x84P@'
p103
tp104
Rp105
ag10
(g14
S'\x00\x1egW}%N@'
p106
tp107
Rp108
ag10
(g14
S'\xeb\xf5\x8f\x9f\x04{S@'
p109
tp110
Rp111
ag10
(g14
S'\xe3\x8d\x02+Y3M@'
p112
tp113
Rp114
ag10
(g14
S'\xa0"\x00&\xa8\x9aT@'
p115
tp116
Rp117
ag10
(g14
S'\xa6\xd7\x82\xa6q\x8fN@'
p118
tp119
Rp120
ag10
(g14
S'D\x92\xc7\xbb?\x08R@'
p121
tp122
Rp123
ag10
(g14
S'\xc2\xa3l\\X\x81P@'
p124
tp125
Rp126
ag10
(g14
S'\x9b>=T\xdb1L@'
p127
tp128
Rp129
ag10
(g14
S'\x97\x1amcBDU@'
p130
tp131
Rp132
ag10
(g14
S'U\xd3\xbdZ\xe9\xecQ@'
p133
tp134
Rp135
ag10
(g14
S'LZ\xab*%\xd1K@'
p136
tp137
Rp138
asssss.