(dp0
S'../Data/sqlite_60.csv'
p1
(dp2
S'../Data/sqlite_31.csv'
p3
(dp4
F0.15
(dp5
S'abs_res'
p6
(dp7
S'bellwether'
p8
(lp9
cnumpy.core.multiarray
scalar
p10
(cnumpy
dtype
p11
(S'f8'
p12
I0
I1
tp13
Rp14
(I3
S'<'
p15
NNNI-1
I-1
I0
tp16
bS'\xd6\xb0+D\x170hA'
p17
tp18
Rp19
ag10
(g14
S'\xceZ\x1d\x17\x162hA'
p20
tp21
Rp22
ag10
(g14
S'\xabrh)X-hA'
p23
tp24
Rp25
ag10
(g14
S'\x8c{\xcd9-5hA'
p26
tp27
Rp28
ag10
(g14
S'\x82y\xa2.U1hA'
p29
tp30
Rp31
ag10
(g14
S'Jb\x10\x8880hA'
p32
tp33
Rp34
ag10
(g14
S']\xc7\x04o\x10*hA'
p35
tp36
Rp37
ag10
(g14
S'\x06:m$B=hA'
p38
tp39
Rp40
ag10
(g14
S'5\x17\x926\x96,hA'
p41
tp42
Rp43
ag10
(g14
S'jh\x91Y\x01/hA'
p44
tp45
Rp46
ag10
(g14
S'\x0bV\x0e]\xfc-hA'
p47
tp48
Rp49
ag10
(g14
S'\xb3\xf3\xfd$\xfb1hA'
p50
tp51
Rp52
ag10
(g14
S'-\xb2\x9d\x13\x9f9hA'
p53
tp54
Rp55
ag10
(g14
S'Z\x0e-\xbe8<hA'
p56
tp57
Rp58
ag10
(g14
S'4\xdd$z\xf64hA'
p59
tp60
Rp61
ag10
(g14
S'\xd3\xa3p\rR6hA'
p62
tp63
Rp64
ag10
(g14
S'l=\n\xd3\xaf2hA'
p65
tp66
Rp67
ag10
(g14
S':\xdfOYx3hA'
p68
tp69
Rp70
ag10
(g14
S'\x13\xbd-3W4hA'
p71
tp72
Rp73
ag10
(g14
S'?o\xcb\xb62/hA'
p74
tp75
Rp76
asS'target'
p77
(lp78
g10
(g14
S'\xc1t\x93\x18\x04\x9ee@'
p79
tp80
Rp81
ag10
(g14
S'\xb4\xf3\xfd\xd4x\xc1e@'
p82
tp83
Rp84
ag10
(g14
S'<^\xbaI\x0c>g@'
p85
tp86
Rp87
ag10
(g14
S'\xae\x1cZd;sd@'
p88
tp89
Rp90
ag10
(g14
S'j;\xdfO\x8d\xdbh@'
p91
tp92
Rp93
ag10
(g14
S'd\xe5\xd0"\xdb]e@'
p94
tp95
Rp96
ag10
(g14
S'\xb7I\x0c\x02+\xf5d@'
p97
tp98
Rp99
ag10
(g14
S'W\x0e-\xb2\x9d\xa9f@'
p100
tp101
Rp102
ag10
(g14
S'\x97\xef\xa7\xc6Kwf@'
p103
tp104
Rp105
ag10
(g14
S'\xc2 \xb0rhmf@'
p106
tp107
Rp108
ag10
(g14
S'i\xbct\x93\x18\xacd@'
p109
tp110
Rp111
ag10
(g14
S'\xd2\xf9~j\xbc\xa4h@'
p112
tp113
Rp114
ag10
(g14
S's\x93\x18\x04V\xdad@'
p115
tp116
Rp117
ag10
(g14
S'\x83\x95C\x8bl\xbbd@'
p118
tp119
Rp120
ag10
(g14
S'\xcbMb\x10X9h@'
p121
tp122
Rp123
ag10
(g14
S'~?5^\xba!e@'
p124
tp125
Rp126
ag10
(g14
S'.\x08\xac\x1cZ\x84e@'
p127
tp128
Rp129
ag10
(g14
S'}\x95C\x8blmg@'
p130
tp131
Rp132
ag10
(g14
S'$1\x08\xac\x1cZe@'
p133
tp134
Rp135
ag10
(g14
S'\xa2E\xb6\xf3\xfd4f@'
p136
tp137
Rp138
asssss.