(dp0
S'../Data/sqlite_37.csv'
p1
(dp2
S'../Data/sqlite_96.csv'
p3
(dp4
F0.05
(dp5
S'mmre'
p6
(dp7
S'bellwether'
p8
(lp9
cnumpy.core.multiarray
scalar
p10
(cnumpy
dtype
p11
(S'f8'
p12
I0
I1
tp13
Rp14
(I3
S'<'
p15
NNNI-1
I-1
I0
tp16
bS'.flY\x83:X@'
p17
tp18
Rp19
ag10
(g14
S'X<\x0e2\xd3:X@'
p20
tp21
Rp22
ag10
(g14
S'\xc0\xd1\x9f\xfb<:X@'
p23
tp24
Rp25
ag10
(g14
S'\xc7n\xf4\x94\x90:X@'
p26
tp27
Rp28
ag10
(g14
S'|g\xd8\xe2\x08;X@'
p29
tp30
Rp31
ag10
(g14
S';\xff(@\xc4:X@'
p32
tp33
Rp34
ag10
(g14
S'\t\x89-\xc7X:X@'
p35
tp36
Rp37
ag10
(g14
S'\xe3\xd1(\xd2\xe49X@'
p38
tp39
Rp40
ag10
(g14
S'\xff\xb6Rt\x81:X@'
p41
tp42
Rp43
ag10
(g14
S'\xc9\xe7\xc0\xe8[:X@'
p44
tp45
Rp46
ag10
(g14
S'\xb1V\x9a\xd8\xfd:X@'
p47
tp48
Rp49
ag10
(g14
S'\x11\x1d\r5[:X@'
p50
tp51
Rp52
ag10
(g14
S'g\xd4\x8a\x13\xd2:X@'
p53
tp54
Rp55
ag10
(g14
S'\xce\x9aa]\xb3:X@'
p56
tp57
Rp58
ag10
(g14
S'_\xac\xbf\xd0(:X@'
p59
tp60
Rp61
ag10
(g14
S'L\xb3\x8b1~:X@'
p62
tp63
Rp64
ag10
(g14
S'\x18\xa2\xe3f\xc0:X@'
p65
tp66
Rp67
ag10
(g14
S'\xa0Q!\x04\xc5;X@'
p68
tp69
Rp70
ag10
(g14
S'\x92|D\x85\xd4:X@'
p71
tp72
Rp73
ag10
(g14
S'p\xa1#\xa7\xbc:X@'
p74
tp75
Rp76
asS'target'
p77
(lp78
g10
(g14
S'\xb2\xb59c\xbd\xb7`@'
p79
tp80
Rp81
ag10
(g14
S'\x8f\xdb\xb1\xcd\xb7C[@'
p82
tp83
Rp84
ag10
(g14
S'\xafb#C\x1a\xe8Y@'
p85
tp86
Rp87
ag10
(g14
S'b\xbar;\x7f\x18]@'
p88
tp89
Rp90
ag10
(g14
S'\xe5_\x19}z\xa0W@'
p91
tp92
Rp93
ag10
(g14
S'o\xb8\xf1\xda\xbc\x1eC@'
p94
tp95
Rp96
ag10
(g14
S'\x91\x83@\x9e%\xc4N@'
p97
tp98
Rp99
ag10
(g14
S'\xc2\x13\xa5\xf9\xa0wa@'
p100
tp101
Rp102
ag10
(g14
S'\xf8\xc4\xd6\nt*C@'
p103
tp104
Rp105
ag10
(g14
S'V\xb6}\xef1\xf1Q@'
p106
tp107
Rp108
ag10
(g14
S'\xd0Q\x04P\x8c\xfc]@'
p109
tp110
Rp111
ag10
(g14
S'\x04 #})wY@'
p112
tp113
Rp114
ag10
(g14
S"\xec\x99K\xaf'1S@"
p115
tp116
Rp117
ag10
(g14
S'6\x06L4F\x18p@'
p118
tp119
Rp120
ag10
(g14
S'\xeeGy\xb3(\xc7V@'
p121
tp122
Rp123
ag10
(g14
S')6\x0b\x8e\xff@I@'
p124
tp125
Rp126
ag10
(g14
S'E)\x93j\x89oX@'
p127
tp128
Rp129
ag10
(g14
S'#t\xc8\xff\xd5\x01:@'
p130
tp131
Rp132
ag10
(g14
S'\xe1\xff\xa8XY\x1e\\@'
p133
tp134
Rp135
ag10
(g14
S'\xad\xf8^\x08\t\xabE@'
p136
tp137
Rp138
asssss.