(dp0
S'../Data/sqlite_72.csv'
p1
(dp2
S'../Data/sqlite_90.csv'
p3
(dp4
F0.25
(dp5
S'mmre'
p6
(dp7
S'bellwether'
p8
(lp9
cnumpy.core.multiarray
scalar
p10
(cnumpy
dtype
p11
(S'f8'
p12
I0
I1
tp13
Rp14
(I3
S'<'
p15
NNNI-1
I-1
I0
tp16
bS'\xa2f\xec\x18\xadkX@'
p17
tp18
Rp19
ag10
(g14
S'|\xb1\x0c\xf1\x90lX@'
p20
tp21
Rp22
ag10
(g14
S'\x002\xd5\x0e\x94iX@'
p23
tp24
Rp25
ag10
(g14
S'\xd7>o3liX@'
p26
tp27
Rp28
ag10
(g14
S'\x82\xb6\x1d\xb8ZhX@'
p29
tp30
Rp31
ag10
(g14
S'\xa9\xc3L\xddSjX@'
p32
tp33
Rp34
ag10
(g14
S'F\x01h,MhX@'
p35
tp36
Rp37
ag10
(g14
S'\xa0^\x04E<iX@'
p38
tp39
Rp40
ag10
(g14
S'C`_\xca/jX@'
p41
tp42
Rp43
ag10
(g14
S'\xaf\xb1\x0fC\x87jX@'
p44
tp45
Rp46
ag10
(g14
S'BJ\xef\xe0\xe2jX@'
p47
tp48
Rp49
ag10
(g14
S'\xc63\x02\x0b\xfdoX@'
p50
tp51
Rp52
ag10
(g14
S'\xb1\x98-\xe4\xd8gX@'
p53
tp54
Rp55
ag10
(g14
S'\x0f\xdaIpohX@'
p56
tp57
Rp58
ag10
(g14
S'L\xb3hH\xc7gX@'
p59
tp60
Rp61
ag10
(g14
S'\xc0\xed\x9d\xad\x1anX@'
p62
tp63
Rp64
ag10
(g14
S'\xb3\xdb\xca{siX@'
p65
tp66
Rp67
ag10
(g14
S'>\\8k\xe8fX@'
p68
tp69
Rp70
ag10
(g14
S'+\x06\xd4?\xcfjX@'
p71
tp72
Rp73
ag10
(g14
S'\xfc-\x92-\x1akX@'
p74
tp75
Rp76
asS'target'
p77
(lp78
g10
(g14
S'W2\xca>\xe3@@@'
p79
tp80
Rp81
ag10
(g14
S'\x8e\x1e\x045Dn@@'
p82
tp83
Rp84
ag10
(g14
S'\xe1\\P\x91\x90r@@'
p85
tp86
Rp87
ag10
(g14
S'\x02/?!\xfe\xe9A@'
p88
tp89
Rp90
ag10
(g14
S'\x97@3\xba\xc0\tB@'
p91
tp92
Rp93
ag10
(g14
S'\xf1\xea\x05\xb6\x0ehB@'
p94
tp95
Rp96
ag10
(g14
S'3\x1c\x9bV{2B@'
p97
tp98
Rp99
ag10
(g14
S'\x101AY\xf0\x8bA@'
p100
tp101
Rp102
ag10
(g14
S'\x03\x81\xfa"\xa4\xff@@'
p103
tp104
Rp105
ag10
(g14
S'\x80 \xf9\xb7O\x18C@'
p106
tp107
Rp108
ag10
(g14
S'\xbcN|c\x0c\xf7B@'
p109
tp110
Rp111
ag10
(g14
S'"h\x8e;\x07\xcd?@'
p112
tp113
Rp114
ag10
(g14
S'\xb7\xa0\xa0\x17\xd1kA@'
p115
tp116
Rp117
ag10
(g14
S'A#3\x1f\x8c.A@'
p118
tp119
Rp120
ag10
(g14
S'\xcf\xcb\xcd\x87\xbc\xa6A@'
p121
tp122
Rp123
ag10
(g14
S'\x14\x0e\xa2v\x1aG?@'
p124
tp125
Rp126
ag10
(g14
S'}\n\xd4Z\xe22A@'
p127
tp128
Rp129
ag10
(g14
S'z\x87\xbe\xf1\x96\xa0A@'
p130
tp131
Rp132
ag10
(g14
S'+\xb8\x9b\\\xeenA@'
p133
tp134
Rp135
ag10
(g14
S'Y]\xcf\xfc\x03\x19@@'
p136
tp137
Rp138
asssss.