(dp0
S'../Data/sqlite_29.csv'
p1
(dp2
S'../Data/sqlite_16.csv'
p3
(dp4
F0.3
(dp5
S'abs_res'
p6
(dp7
S'bellwether'
p8
(lp9
cnumpy.core.multiarray
scalar
p10
(cnumpy
dtype
p11
(S'f8'
p12
I0
I1
tp13
Rp14
(I3
S'<'
p15
NNNI-1
I-1
I0
tp16
bS'\x1c\xbd-\xabQ`?A'
p17
tp18
Rp19
ag10
(g14
S'\xd7x\xe9\x06rb?A'
p20
tp21
Rp22
ag10
(g14
S'\x1f\xa1\x8c~\xfd`?A'
p23
tp24
Rp25
ag10
(g14
S'Yd;\xff\td?A'
p26
tp27
Rp28
ag10
(g14
S'c;\xdf\x0f|`?A'
p29
tp30
Rp31
ag10
(g14
S'*\x15g_\x05b?A'
p32
tp33
Rp34
ag10
(g14
S'\xbd\xf5(<~b?A'
p35
tp36
Rp37
ag10
(g14
S'c9\xb4H;c?A'
p38
tp39
Rp40
ag10
(g14
S'\x84A`E\xdda?A'
p41
tp42
Rp43
ag10
(g14
S'&\xf7\x9a\xebZe?A'
p44
tp45
Rp46
ag10
(g14
S'kuLP\xd7a?A'
p47
tp48
Rp49
ag10
(g14
S'\xcfZ\x1d\x13ba?A'
p50
tp51
Rp52
ag10
(g14
S'\x81\x86]aUb?A'
p53
tp54
Rp55
ag10
(g14
S'OFo\x8bwb?A'
p56
tp57
Rp58
ag10
(g14
S'\x89{\xcd%\xb8b?A'
p59
tp60
Rp61
ag10
(g14
S'\xb9\xd7\\\xc8!b?A'
p62
tp63
Rp64
ag10
(g14
S'"iJ\x85\xbf`?A'
p65
tp66
Rp67
ag10
(g14
S'(\x15g\x7fvb?A'
p68
tp69
Rp70
ag10
(g14
S'\x93\xd1\xdb2\xb5c?A'
p71
tp72
Rp73
ag10
(g14
S'{\xc0\xca\xa1q`?A'
p74
tp75
Rp76
asS'target'
p77
(lp78
g10
(g14
S'\x8f\xed|?5&J@'
p79
tp80
Rp81
ag10
(g14
S'\x0f\xd7\xa3p=\xfaE@'
p82
tp83
Rp84
ag10
(g14
S't\xe7\xfb\xa9\xf1\xe2F@'
p85
tp86
Rp87
ag10
(g14
S'\\\x0e-\xb2\x9dOL@'
p88
tp89
Rp90
ag10
(g14
S'\x9f\x1a/\xdd$^G@'
p91
tp92
Rp93
ag10
(g14
S'\xb6rh\x91\xed|L@'
p94
tp95
Rp96
ag10
(g14
S'\xc2\xd7\\H\x9a\xa2H@'
p97
tp98
Rp99
ag10
(g14
S'\xf1\xfd\xd4x\xe9NG@'
p100
tp101
Rp102
ag10
(g14
S'\xa4p=\n\xd7CM@'
p103
tp104
Rp105
ag10
(g14
S'E5^\xbaI\x1cI@'
p106
tp107
Rp108
ag10
(g14
S'\xd0\xf7S\xe3\xa5\x03I@'
p109
tp110
Rp111
ag10
(g14
S'}\x93\x18\x04V\xb6G@'
p112
tp113
Rp114
ag10
(g14
S'\x0c\xac\x1cZd\xfbI@'
p115
tp116
Rp117
ag10
(g14
S'\x06\x83\xc0\xca\xa15F@'
p118
tp119
Rp120
ag10
(g14
S'\xac\x9d\xef\xa7\xc6\xcbE@'
p121
tp122
Rp123
ag10
(g14
S'\xfa|?5^\xfaI@'
p124
tp125
Rp126
ag10
(g14
S'\x0c+\x87\x16\xd9\xfeF@'
p127
tp128
Rp129
ag10
(g14
S'\t\xaa\xf1\xd2M\xe2F@'
p130
tp131
Rp132
ag10
(g14
S'\xb4\xc6K7\x89\tJ@'
p133
tp134
Rp135
ag10
(g14
S'\xbc\x1e\x85\xebQHG@'
p136
tp137
Rp138
asssss.