(dp0
S'../Data/sqlite_72.csv'
p1
(dp2
S'../Data/sqlite_90.csv'
p3
(dp4
F0.05
(dp5
S'mmre'
p6
(dp7
S'bellwether'
p8
(lp9
cnumpy.core.multiarray
scalar
p10
(cnumpy
dtype
p11
(S'f8'
p12
I0
I1
tp13
Rp14
(I3
S'<'
p15
NNNI-1
I-1
I0
tp16
bS'\x9e=\xa2\x07YjX@'
p17
tp18
Rp19
ag10
(g14
S'x\n\x06x4kX@'
p20
tp21
Rp22
ag10
(g14
S'XI\n\x81\xdfkX@'
p23
tp24
Rp25
ag10
(g14
S'\xb3X\x10\xab\xb8jX@'
p26
tp27
Rp28
ag10
(g14
S'4\x0eLV\x06jX@'
p29
tp30
Rp31
ag10
(g14
S'\rO\x98\xd7\x08jX@'
p32
tp33
Rp34
ag10
(g14
S'\xddo1=SkX@'
p35
tp36
Rp37
ag10
(g14
S'7G\xfaj\x8dkX@'
p38
tp39
Rp40
ag10
(g14
S'@\xe6\xbe)njX@'
p41
tp42
Rp43
ag10
(g14
S'\x05\x0b\x91\\\x8cjX@'
p44
tp45
Rp46
ag10
(g14
S'\xf3\xf4\x87\x17MjX@'
p47
tp48
Rp49
ag10
(g14
S'\xbfTE\xcbrjX@'
p50
tp51
Rp52
ag10
(g14
S'\x9a\xe3\xcff\xf5jX@'
p53
tp54
Rp55
ag10
(g14
S'\x0c\xa4\xa9\xd4\x82mX@'
p56
tp57
Rp58
ag10
(g14
S'\xf95\xd9\xaf\xb4jX@'
p59
tp60
Rp61
ag10
(g14
S'g\xb8\x17\x8f1kX@'
p62
tp63
Rp64
ag10
(g14
S'\xf3Fv\x8a\xcdiX@'
p65
tp66
Rp67
ag10
(g14
S'\xe2,Z\x84\x0ckX@'
p68
tp69
Rp70
ag10
(g14
S'\xd4\xad\xc2\xc8\x84kX@'
p71
tp72
Rp73
ag10
(g14
S'\xcaL|=\x1bkX@'
p74
tp75
Rp76
asS'target'
p77
(lp78
g10
(g14
S'\x03+6U\xde\tB@'
p79
tp80
Rp81
ag10
(g14
S'\xbf\xc6\xb0\xc0\xfd\xa6A@'
p82
tp83
Rp84
ag10
(g14
S'\xc8\xe6\x80\xe5\xa7\x88F@'
p85
tp86
Rp87
ag10
(g14
S';"\xfc\xd8\xa0gA@'
p88
tp89
Rp90
ag10
(g14
S'\xe5\xcf\xdcXo.@@'
p91
tp92
Rp93
ag10
(g14
S'\xf8c\x87\x12\x94N>@'
p94
tp95
Rp96
ag10
(g14
S'G\xfcr\xac_@@@'
p97
tp98
Rp99
ag10
(g14
S'\xa9~0\n4\x90A@'
p100
tp101
Rp102
ag10
(g14
S'\x83\x98\x89\x85\xe4\xe5@@'
p103
tp104
Rp105
ag10
(g14
S'\xc9)\xb5viOA@'
p106
tp107
Rp108
ag10
(g14
S'\xaf$<\x07\xa9\xd2A@'
p109
tp110
Rp111
ag10
(g14
S'Y\xd7\xb4\xb9IvA@'
p112
tp113
Rp114
ag10
(g14
S'\xa8\xc4\xc5.0rB@'
p115
tp116
Rp117
ag10
(g14
S'\xae<\x0f\x87\x86\x9bC@'
p118
tp119
Rp120
ag10
(g14
S'/H\xf4a\xa6\xb2@@'
p121
tp122
Rp123
ag10
(g14
S'=\xfc\xd8>\x17\xad@@'
p124
tp125
Rp126
ag10
(g14
S'T\xe9t\x8a\x00\xfdA@'
p127
tp128
Rp129
ag10
(g14
S'\xd1\tD\x12\xca\xecG@'
p130
tp131
Rp132
ag10
(g14
S'1\xbe\x1a\x8a\x04\xa1C@'
p133
tp134
Rp135
ag10
(g14
S"\x8b'\xf4+\xcf#@@"
p136
tp137
Rp138
asssss.