(dp0
S'../Data/sqlite_57.csv'
p1
(dp2
S'../Data/sqlite_49.csv'
p3
(dp4
F0.1
(dp5
S'abs_res'
p6
(dp7
S'bellwether'
p8
(lp9
cnumpy.core.multiarray
scalar
p10
(cnumpy
dtype
p11
(S'f8'
p12
I0
I1
tp13
Rp14
(I3
S'<'
p15
NNNI-1
I-1
I0
tp16
bS'a\x10X\xf1"-jA'
p17
tp18
Rp19
ag10
(g14
S'\xca \xb0\xa2/.jA'
p20
tp21
Rp22
ag10
(g14
S'\xab\xc6KS\xf1(jA'
p23
tp24
Rp25
ag10
(g14
S"\x9dE\xb6'\xc1(jA"
p26
tp27
Rp28
ag10
(g14
S'\xd0\xf7S\xef\xcd%jA'
p29
tp30
Rp31
ag10
(g14
S'\xc0 \xb0\xca40jA'
p32
tp33
Rp34
ag10
(g14
S'\xe5\xd0"\xeb\x83-jA'
p35
tp36
Rp37
ag10
(g14
S'\x89\x95C\xdf\xdb,jA'
p38
tp39
Rp40
ag10
(g14
S'\xd6\xa3p-\x030jA'
p41
tp42
Rp43
ag10
(g14
S'|\x14\xae\x1f\xd1(jA'
p44
tp45
Rp46
ag10
(g14
S'\xcc\xa1E\x1a\xb40jA'
p47
tp48
Rp49
ag10
(g14
S'\xf6\xd4x\x99e-jA'
p50
tp51
Rp52
ag10
(g14
S'\x94\x18\x04\xce\x9c-jA'
p53
tp54
Rp55
ag10
(g14
S'\x0b\x02+\xc3\xe0.jA'
p56
tp57
Rp58
ag10
(g14
S'\xf6|?Q$,jA'
p59
tp60
Rp61
ag10
(g14
S'\xffS\xe3\xe9\xb8/jA'
p62
tp63
Rp64
ag10
(g14
S'\xed&1\x9c\xc6+jA'
p65
tp66
Rp67
ag10
(g14
S'\x04\xd5x\xf9\x88!jA'
p68
tp69
Rp70
ag10
(g14
S'\x81?5fT$jA'
p71
tp72
Rp73
ag10
(g14
S'k\xbct\xf3H+jA'
p74
tp75
Rp76
asS'target'
p77
(lp78
g10
(g14
S'z?5^\xbaMj@'
p79
tp80
Rp81
ag10
(g14
S'\xe2O\x8d\x97n^k@'
p82
tp83
Rp84
ag10
(g14
S'\x83?5^\xba\x1dm@'
p85
tp86
Rp87
ag10
(g14
S'\xc6\xa1E\xb6\xf3\xd9j@'
p88
tp89
Rp90
ag10
(g14
S'\xf1S\xe3\xa5\x9b\x88j@'
p91
tp92
Rp93
ag10
(g14
S'\xee|?5^\x82j@'
p94
tp95
Rp96
ag10
(g14
S'\x03\x81\x95C\x8b\xdcg@'
p97
tp98
Rp99
ag10
(g14
S'.\xdb\xf9~jlh@'
p100
tp101
Rp102
ag10
(g14
S'5\x89A`\xe5<k@'
p103
tp104
Rp105
ag10
(g14
S'\x91\xebQ\xb8\x1e\xd1k@'
p106
tp107
Rp108
ag10
(g14
S'\\\xe5\xd0"\xdbuj@'
p109
tp110
Rp111
ag10
(g14
S'Od;\xdfO1k@'
p112
tp113
Rp114
ag10
(g14
S'\xf4Q\xb8\x1e\x85\x9bj@'
p115
tp116
Rp117
ag10
(g14
S'\x81\xc2\xf5(\\7j@'
p118
tp119
Rp120
ag10
(g14
S'G\x8bl\xe7\xfb\x95j@'
p121
tp122
Rp123
ag10
(g14
S'\x16Zd;\xdf\xefi@'
p124
tp125
Rp126
ag10
(g14
S'\xf6\xa7\xc6K7Ah@'
p127
tp128
Rp129
ag10
(g14
S'\xdfQ\xb8\x1e\x85\xafg@'
p130
tp131
Rp132
ag10
(g14
S'\x91l\xe7\xfb\xa9ig@'
p133
tp134
Rp135
ag10
(g14
S'\x1a\x04V\x0e-*h@'
p136
tp137
Rp138
asssss.