(dp0
S'../Data/sqlite_59.csv'
p1
(dp2
S'../Data/sqlite_96.csv'
p3
(dp4
F0.15
(dp5
S'mmre'
p6
(dp7
S'bellwether'
p8
(lp9
cnumpy.core.multiarray
scalar
p10
(cnumpy
dtype
p11
(S'f8'
p12
I0
I1
tp13
Rp14
(I3
S'<'
p15
NNNI-1
I-1
I0
tp16
bS'\xd4I98v\xbcJ@'
p17
tp18
Rp19
ag10
(g14
S'\x02V9,\xdbpJ@'
p20
tp21
Rp22
ag10
(g14
S'}\xa5\xf91+aJ@'
p23
tp24
Rp25
ag10
(g14
S'7\xa7\x11\x81\xb0\x81J@'
p26
tp27
Rp28
ag10
(g14
S'^Q\xd2X4\x87J@'
p29
tp30
Rp31
ag10
(g14
S'KC\xaf+\xe3ZJ@'
p32
tp33
Rp34
ag10
(g14
S'5\x8eH84\x8cJ@'
p35
tp36
Rp37
ag10
(g14
S'\xd5\x00\x8ai`\x93J@'
p38
tp39
Rp40
ag10
(g14
S'9\xaaXS\xeayJ@'
p41
tp42
Rp43
ag10
(g14
S'7\xd4\xac\xd0T\x85J@'
p44
tp45
Rp46
ag10
(g14
S'}l\x07\xa3JqJ@'
p47
tp48
Rp49
ag10
(g14
S'\x0b<js\raJ@'
p50
tp51
Rp52
ag10
(g14
S'tM\x05.\x8a`J@'
p53
tp54
Rp55
ag10
(g14
S'^7\xe1\x9fdxJ@'
p56
tp57
Rp58
ag10
(g14
S'\xc2\xf6\xd3;\xf9\x88J@'
p59
tp60
Rp61
ag10
(g14
S'>D\x1f\x89N\x8cJ@'
p62
tp63
Rp64
ag10
(g14
S'j\xf5{\xaa_?J@'
p65
tp66
Rp67
ag10
(g14
S'<\xd6\x1c\x95\xb4\x8eJ@'
p68
tp69
Rp70
ag10
(g14
S'D\xba;x\xe4zJ@'
p71
tp72
Rp73
ag10
(g14
S'\xba\xea\x12=bdJ@'
p74
tp75
Rp76
asS'target'
p77
(lp78
g10
(g14
S'\xb5\xe4nA\xce3X@'
p79
tp80
Rp81
ag10
(g14
S']?Q\xf0\x81b]@'
p82
tp83
Rp84
ag10
(g14
S'\xfe*a\xe7\xe9wT@'
p85
tp86
Rp87
ag10
(g14
S'\x1dT\x8a\xb0{\x8a[@'
p88
tp89
Rp90
ag10
(g14
S'\xdeF\xba\xdd\x88\xaeX@'
p91
tp92
Rp93
ag10
(g14
S'D\xa6\xb6\xe4\xc5.X@'
p94
tp95
Rp96
ag10
(g14
S'p\xd9K\xad\t\xf1L@'
p97
tp98
Rp99
ag10
(g14
S'w}\xbc\xdaN\x1aX@'
p100
tp101
Rp102
ag10
(g14
S'\xfcD\xe7\xd6\x19\xbdS@'
p103
tp104
Rp105
ag10
(g14
S'G\x069+\x19\xd2R@'
p106
tp107
Rp108
ag10
(g14
S'\x84W@1!\xfdH@'
p109
tp110
Rp111
ag10
(g14
S'p;vr<\x95C@'
p112
tp113
Rp114
ag10
(g14
S'~\x99\xca\xdfE\xc9H@'
p115
tp116
Rp117
ag10
(g14
S'vxx\x1e\x87\x9bP@'
p118
tp119
Rp120
ag10
(g14
S'\xb42\x8e\x0f\xc1\x82H@'
p121
tp122
Rp123
ag10
(g14
S'_\x0b\xbc\xfe^\xf1O@'
p124
tp125
Rp126
ag10
(g14
S'\xc6\xa6\x07u\xd84c@'
p127
tp128
Rp129
ag10
(g14
S'0\x8a\x10h\xcduA@'
p130
tp131
Rp132
ag10
(g14
S';\x07\x01\xbd\xc1@C@'
p133
tp134
Rp135
ag10
(g14
S'\xb2\t\x0e#C\x0cR@'
p136
tp137
Rp138
asssss.