(dp0
S'../Data/sqlite_38.csv'
p1
(dp2
S'../Data/sqlite_96.csv'
p3
(dp4
F0.05
(dp5
S'mmre'
p6
(dp7
S'bellwether'
p8
(lp9
cnumpy.core.multiarray
scalar
p10
(cnumpy
dtype
p11
(S'f8'
p12
I0
I1
tp13
Rp14
(I3
S'<'
p15
NNNI-1
I-1
I0
tp16
bS'o\x7f\xdf\xa8nog@'
p17
tp18
Rp19
ag10
(g14
S'\xd6\xcb\xc5E\xc7dg@'
p20
tp21
Rp22
ag10
(g14
S'n\xb6(kfOg@'
p23
tp24
Rp25
ag10
(g14
S'\xb4\x869\xe1?^g@'
p26
tp27
Rp28
ag10
(g14
S'1\xba\xb4\xdbLOg@'
p29
tp30
Rp31
ag10
(g14
S'\x02\xcc\x8b\xf4ggg@'
p32
tp33
Rp34
ag10
(g14
S'\xa7\x06d\xf5\x81\x83g@'
p35
tp36
Rp37
ag10
(g14
S'~\x05s!,hg@'
p38
tp39
Rp40
ag10
(g14
S'\xedv;\xf8`@g@'
p41
tp42
Rp43
ag10
(g14
S'?\xb5h\xef\xb0Rg@'
p44
tp45
Rp46
ag10
(g14
S'\xa0\x13\x16\xfb\xc3Sg@'
p47
tp48
Rp49
ag10
(g14
S'\xd1\xe5\xd6avRg@'
p50
tp51
Rp52
ag10
(g14
S'\x91"x\xda\x02Tg@'
p53
tp54
Rp55
ag10
(g14
S'\x15\xaf:\xb4jcg@'
p56
tp57
Rp58
ag10
(g14
S'\xfe\xc7\xdf\x16\xbc`g@'
p59
tp60
Rp61
ag10
(g14
S'4\xba\xbf\x83rig@'
p62
tp63
Rp64
ag10
(g14
S'2\xbb\x0eFqMg@'
p65
tp66
Rp67
ag10
(g14
S'\xc8\xd8\x88\x168^g@'
p68
tp69
Rp70
ag10
(g14
S'l\xdb\xcc\x19iRg@'
p71
tp72
Rp73
ag10
(g14
S'\x94\xf4OAV`g@'
p74
tp75
Rp76
asS'target'
p77
(lp78
g10
(g14
S'l\xfe\xa9\xb5\xf8s`@'
p79
tp80
Rp81
ag10
(g14
S'\x8d6\r\x8c\xfe\xf6Y@'
p82
tp83
Rp84
ag10
(g14
S'\xaarjF\r<@@'
p85
tp86
Rp87
ag10
(g14
S'\x19\xe8\xe2\n\xc8\x03Z@'
p88
tp89
Rp90
ag10
(g14
S'I\x882vt\x82W@'
p91
tp92
Rp93
ag10
(g14
S'sK\x0b,\x17\xd3B@'
p94
tp95
Rp96
ag10
(g14
S'R\xaa\xe1\xdf\xb7IW@'
p97
tp98
Rp99
ag10
(g14
S'\x1eD\xb1\xe6,\xecN@'
p100
tp101
Rp102
ag10
(g14
S'Lq\x03\x07\xe8+U@'
p103
tp104
Rp105
ag10
(g14
S'\r\xa7w\xbf\xc48X@'
p106
tp107
Rp108
ag10
(g14
S'\xc0\xdc\xe4\xd0-\x8dH@'
p109
tp110
Rp111
ag10
(g14
S'\t\x90\xff\xde\xcc\xf6a@'
p112
tp113
Rp114
ag10
(g14
S'\xe6C7\xa6C\xeeA@'
p115
tp116
Rp117
ag10
(g14
S'd\xd6\x92fI\xfeC@'
p118
tp119
Rp120
ag10
(g14
S'[k7\x1bs\xbfX@'
p121
tp122
Rp123
ag10
(g14
S'\x11\xafm}>\xd9E@'
p124
tp125
Rp126
ag10
(g14
S'/\x10Zb\xa1\xfc>@'
p127
tp128
Rp129
ag10
(g14
S'\xb2\xd4\xa7G\xbf\x9cA@'
p130
tp131
Rp132
ag10
(g14
S'\x14\x9aRl\x8e0^@'
p133
tp134
Rp135
ag10
(g14
S'\x13\xcd\xa7Q\xa7kR@'
p136
tp137
Rp138
asssss.