(dp0
S'../Data/sqlite_44.csv'
p1
(dp2
S'../Data/sqlite_73.csv'
p3
(dp4
F0.1
(dp5
S'mmre'
p6
(dp7
S'bellwether'
p8
(lp9
cnumpy.core.multiarray
scalar
p10
(cnumpy
dtype
p11
(S'f8'
p12
I0
I1
tp13
Rp14
(I3
S'<'
p15
NNNI-1
I-1
I0
tp16
bS'\x92>\xe7\\\xd6^U@'
p17
tp18
Rp19
ag10
(g14
S'w\x0e\x1a\xf9s]U@'
p20
tp21
Rp22
ag10
(g14
S"'\xa1U1\x92]U@"
p23
tp24
Rp25
ag10
(g14
S'\xf7:R\xfdo]U@'
p26
tp27
Rp28
ag10
(g14
S'tOP\xbe\x91_U@'
p29
tp30
Rp31
ag10
(g14
S'\xba`\x80\x10=^U@'
p32
tp33
Rp34
ag10
(g14
S'iskB\x8a`U@'
p35
tp36
Rp37
ag10
(g14
S'pS\x1d \x7f^U@'
p38
tp39
Rp40
ag10
(g14
S'\xe7\xe4\xac||^U@'
p41
tp42
Rp43
ag10
(g14
S'\x0b\x7fQ\xb4\x99`U@'
p44
tp45
Rp46
ag10
(g14
S'\xe3\xef\x0f\xeb:]U@'
p47
tp48
Rp49
ag10
(g14
S'}l\xd6\x04\r]U@'
p50
tp51
Rp52
ag10
(g14
S'\x02&\xcd\xc4\xfb^U@'
p53
tp54
Rp55
ag10
(g14
S'F[\xf3G\x87^U@'
p56
tp57
Rp58
ag10
(g14
S'E\xf8\x94\x16\xd0`U@'
p59
tp60
Rp61
ag10
(g14
S'\xbb\x85\xb2uN`U@'
p62
tp63
Rp64
ag10
(g14
S'\xa7\xbdZ:g]U@'
p65
tp66
Rp67
ag10
(g14
S'\xcfrB_M^U@'
p68
tp69
Rp70
ag10
(g14
S'\xbb!\xcbuW^U@'
p71
tp72
Rp73
ag10
(g14
S'n\x85\xactQ^U@'
p74
tp75
Rp76
asS'target'
p77
(lp78
g10
(g14
S'`yc{\x9b\x9d*@'
p79
tp80
Rp81
ag10
(g14
S'\xfc\xad\x12\xf4\x03M-@'
p82
tp83
Rp84
ag10
(g14
S'\xd8\x06\xc25\x0b\x91,@'
p85
tp86
Rp87
ag10
(g14
S'[@O\xb19\xc7+@'
p88
tp89
Rp90
ag10
(g14
S'\xe1\xf8\xb0\xc9Xt+@'
p91
tp92
Rp93
ag10
(g14
S'O\xffG\xc4\xe7\xb8)@'
p94
tp95
Rp96
ag10
(g14
S'\xe9\xae\xf2\xbc\x19")@'
p97
tp98
Rp99
ag10
(g14
S'\xcfna;\xc6\xbf)@'
p100
tp101
Rp102
ag10
(g14
S'\x0c\x1a\x82\xf3\x00\xde*@'
p103
tp104
Rp105
ag10
(g14
S'\x98\x84\x1d)\xbb\xb6)@'
p106
tp107
Rp108
ag10
(g14
S'{\xebk\xb5S#.@'
p109
tp110
Rp111
ag10
(g14
S'\xb3ga1n\xd7.@'
p112
tp113
Rp114
ag10
(g14
S'\xd5;8lQ$,@'
p115
tp116
Rp117
ag10
(g14
S'\xd6\xf8\x91-\xb77-@'
p118
tp119
Rp120
ag10
(g14
S'\xdd\xcbF}-\xa4+@'
p121
tp122
Rp123
ag10
(g14
S'(\xc5,\xab\x9f)+@'
p124
tp125
Rp126
ag10
(g14
S'\x1e\xbb\xce\x02r\xad/@'
p127
tp128
Rp129
ag10
(g14
S'0\xca\xe0\x94Q\x02,@'
p130
tp131
Rp132
ag10
(g14
S'\xc2\xe8\xe0\xaa1F+@'
p133
tp134
Rp135
ag10
(g14
S'\x9b\xe3\x91\x9dXD.@'
p136
tp137
Rp138
asssss.