(dp0
S'../Data/sqlite_30.csv'
p1
(dp2
S'../Data/sqlite_73.csv'
p3
(dp4
F0.25
(dp5
S'mmre'
p6
(dp7
S'bellwether'
p8
(lp9
cnumpy.core.multiarray
scalar
p10
(cnumpy
dtype
p11
(S'f8'
p12
I0
I1
tp13
Rp14
(I3
S'<'
p15
NNNI-1
I-1
I0
tp16
bS'b4B\x9cdFW@'
p17
tp18
Rp19
ag10
(g14
S'\xd0&pC)HW@'
p20
tp21
Rp22
ag10
(g14
S'\xec\xca\x873IIW@'
p23
tp24
Rp25
ag10
(g14
S'\xf2\x88\x1e\x06\xcbGW@'
p26
tp27
Rp28
ag10
(g14
S'Q*\x0c\xf3\x19GW@'
p29
tp30
Rp31
ag10
(g14
S'3Qc\xb9\xb5HW@'
p32
tp33
Rp34
ag10
(g14
S'\xb95\x14\xcb\xffFW@'
p35
tp36
Rp37
ag10
(g14
S'T\x85\xa0\x14\x80GW@'
p38
tp39
Rp40
ag10
(g14
S'\xf2B\xc2\xd0\xc2HW@'
p41
tp42
Rp43
ag10
(g14
S'\x12\x84\x95\xfc\xe3FW@'
p44
tp45
Rp46
ag10
(g14
S'\x02\xce*epIW@'
p47
tp48
Rp49
ag10
(g14
S'\xc7lwYQHW@'
p50
tp51
Rp52
ag10
(g14
S'q\xb3\xb9<\x87HW@'
p53
tp54
Rp55
ag10
(g14
S'\xef~&\x95VGW@'
p56
tp57
Rp58
ag10
(g14
S'9\x93vb\xfdGW@'
p59
tp60
Rp61
ag10
(g14
S'\x07_I\x9a\xb6HW@'
p62
tp63
Rp64
ag10
(g14
S'\xa1h\xa0\x8f\x08IW@'
p65
tp66
Rp67
ag10
(g14
S'/\rr\xa0\xabFW@'
p68
tp69
Rp70
ag10
(g14
S'{\x0fN\xb4QHW@'
p71
tp72
Rp73
ag10
(g14
S'B\xc6\xe1=4HW@'
p74
tp75
Rp76
asS'target'
p77
(lp78
g10
(g14
S'F\xd9b\xa1,\xab+@'
p79
tp80
Rp81
ag10
(g14
S'\xec\xbd\xdc\xdcY\xc1*@'
p82
tp83
Rp84
ag10
(g14
S'\x86P\\(&\x1e+@'
p85
tp86
Rp87
ag10
(g14
S'\x17\xee\x800h\x1d.@'
p88
tp89
Rp90
ag10
(g14
S'\x93\xe3vg\xc0\xab)@'
p91
tp92
Rp93
ag10
(g14
S'o\xf2\x0e\xee\xfe\x96)@'
p94
tp95
Rp96
ag10
(g14
S's\x02\x88\xe4v\xae.@'
p97
tp98
Rp99
ag10
(g14
S'\xb1b9\x83\x02+-@'
p100
tp101
Rp102
ag10
(g14
S'\x84\x89/\xc8Y\xcb+@'
p103
tp104
Rp105
ag10
(g14
S'\x10d\xd4D\x04O*@'
p106
tp107
Rp108
ag10
(g14
S'\xean\xd1V\x13d-@'
p109
tp110
Rp111
ag10
(g14
S'\xe5m\x15\xca\x13O+@'
p112
tp113
Rp114
ag10
(g14
S'\xf2K\nw\x12>+@'
p115
tp116
Rp117
ag10
(g14
S'\x88\xc4Ca\t\xa5+@'
p118
tp119
Rp120
ag10
(g14
S'\xce6_\xc5\x8b\x93,@'
p121
tp122
Rp123
ag10
(g14
S'\xb19\x80\x00\x05\xcb*@'
p124
tp125
Rp126
ag10
(g14
S'\xf8\xbb\xae\xd31\x8f+@'
p127
tp128
Rp129
ag10
(g14
S'\xa4G\xce\xa8\xd3\n+@'
p130
tp131
Rp132
ag10
(g14
S'\x17\xa9T\x9fj\x91,@'
p133
tp134
Rp135
ag10
(g14
S'\x8c\xdd\xef\xbe\xbf[)@'
p136
tp137
Rp138
asssss.