(dp0
S'../Data/sqlite_69.csv'
p1
(dp2
S'../Data/sqlite_63.csv'
p3
(dp4
F0.35
(dp5
S'mmre'
p6
(dp7
S'bellwether'
p8
(lp9
cnumpy.core.multiarray
scalar
p10
(cnumpy
dtype
p11
(S'f8'
p12
I0
I1
tp13
Rp14
(I3
S'<'
p15
NNNI-1
I-1
I0
tp16
bS'9\xcf\xea|rjm@'
p17
tp18
Rp19
ag10
(g14
S'\xdf\xf1\xf0\x02\xddum@'
p20
tp21
Rp22
ag10
(g14
S'\xd9\xac6U\xfb\x82m@'
p23
tp24
Rp25
ag10
(g14
S'^_\xe7RA`m@'
p26
tp27
Rp28
ag10
(g14
S'$\xd0\x88\xbb\x05am@'
p29
tp30
Rp31
ag10
(g14
S'\xac\xfcebvim@'
p32
tp33
Rp34
ag10
(g14
S'\x02\xe3\xd1\x8c!rm@'
p35
tp36
Rp37
ag10
(g14
S'\xda*F0UQm@'
p38
tp39
Rp40
ag10
(g14
S'~1\xc2C.xm@'
p41
tp42
Rp43
ag10
(g14
S'h|\rmO|m@'
p44
tp45
Rp46
ag10
(g14
S'>W?$\xe3Ym@'
p47
tp48
Rp49
ag10
(g14
S'\xd9\xad\x93d\t]m@'
p50
tp51
Rp52
ag10
(g14
S'OS\xc1\xee\x02gm@'
p53
tp54
Rp55
ag10
(g14
S'\xb5o\xb6|\x94\x85m@'
p56
tp57
Rp58
ag10
(g14
S'\xb8\x13\n\x07\\km@'
p59
tp60
Rp61
ag10
(g14
S'\x12\xb4\x8a\x1b\x9clm@'
p62
tp63
Rp64
ag10
(g14
S'\xb3\xe6ay\xcaqm@'
p65
tp66
Rp67
ag10
(g14
S'\x89E\xfb(\x83bm@'
p68
tp69
Rp70
ag10
(g14
S'\xbe\x81\x9b\x12\x9e\\m@'
p71
tp72
Rp73
ag10
(g14
S'\xd8\x803\x07\x01km@'
p74
tp75
Rp76
asS'target'
p77
(lp78
g10
(g14
S'7\xa3\xaa\x82X`#@'
p79
tp80
Rp81
ag10
(g14
S'}Q@\xc5\xb6{"@'
p82
tp83
Rp84
ag10
(g14
S'\xe9\xd5\xa1\xc8s\x00"@'
p85
tp86
Rp87
ag10
(g14
S'\xea\xcf\xf7\x9e\xbc="@'
p88
tp89
Rp90
ag10
(g14
S'm\x94Up\x0e\xdf"@'
p91
tp92
Rp93
ag10
(g14
S'\xce\xb4W\x1b\x01\xd8"@'
p94
tp95
Rp96
ag10
(g14
S'\xb6\x947}\xa6\xb5!@'
p97
tp98
Rp99
ag10
(g14
S'\xfc\xe3/\x828\xd6"@'
p100
tp101
Rp102
ag10
(g14
S'\x1f\xe5(E\x14\xe2!@'
p103
tp104
Rp105
ag10
(g14
S'\x85_\xa35s\x0b#@'
p106
tp107
Rp108
ag10
(g14
S'\xcfY\x13?\xe4\n#@'
p109
tp110
Rp111
ag10
(g14
S'\xf8\xf4\x19E\x92E"@'
p112
tp113
Rp114
ag10
(g14
S'\xde\xcdrK\x0eS"@'
p115
tp116
Rp117
ag10
(g14
S'\x05\x99j_\xb6<#@'
p118
tp119
Rp120
ag10
(g14
S'/\xe1\xc1\xa7\xd6\xa6#@'
p121
tp122
Rp123
ag10
(g14
S'\x9e [&uF"@'
p124
tp125
Rp126
ag10
(g14
S'\xd8\xb9a\xa7\xf1\xac#@'
p127
tp128
Rp129
ag10
(g14
S'\xd2DX\xc1\xa8\x0b#@'
p130
tp131
Rp132
ag10
(g14
S'\x7f\x8e\x11r\xb7\x9a!@'
p133
tp134
Rp135
ag10
(g14
S'\x02\xda\x86\xf7m3"@'
p136
tp137
Rp138
asssss.