(dp0
S'../Data/sqlite_70.csv'
p1
(dp2
S'../Data/sqlite_91.csv'
p3
(dp4
F0.2
(dp5
S'mmre'
p6
(dp7
S'bellwether'
p8
(lp9
cnumpy.core.multiarray
scalar
p10
(cnumpy
dtype
p11
(S'f8'
p12
I0
I1
tp13
Rp14
(I3
S'<'
p15
NNNI-1
I-1
I0
tp16
bS'T\xc627b$X@'
p17
tp18
Rp19
ag10
(g14
S'\x12[\x8c\x87\xce\x1cX@'
p20
tp21
Rp22
ag10
(g14
S'f\xea|\xbb\x08&X@'
p23
tp24
Rp25
ag10
(g14
S'b E\xd4;2X@'
p26
tp27
Rp28
ag10
(g14
S'N\xcc\x9a\xae\xde\x17X@'
p29
tp30
Rp31
ag10
(g14
S'RN\x05V\xf3\x1bX@'
p32
tp33
Rp34
ag10
(g14
S'B.\xf1q}\x13X@'
p35
tp36
Rp37
ag10
(g14
S'2\x0b\xe8N\x07"X@'
p38
tp39
Rp40
ag10
(g14
S'\xa0_&\xb7\xa5 X@'
p41
tp42
Rp43
ag10
(g14
S'\x1e\xa0rt\xc3\x1eX@'
p44
tp45
Rp46
ag10
(g14
S'\x9c\x1a\x07OF\x1aX@'
p47
tp48
Rp49
ag10
(g14
S'>\xbe\x97\r\x87\x1dX@'
p50
tp51
Rp52
ag10
(g14
S'#;<(6\x1cX@'
p53
tp54
Rp55
ag10
(g14
S'\x0e\xac\xbd\x92\x07\x1dX@'
p56
tp57
Rp58
ag10
(g14
S'`\xe9\x05\xf4S\x10X@'
p59
tp60
Rp61
ag10
(g14
S'\x90\xad@!\xe7\x1eX@'
p62
tp63
Rp64
ag10
(g14
S'(>\xbe\xcfF\x1eX@'
p65
tp66
Rp67
ag10
(g14
S'\xb7\nn\t\x9d\x1fX@'
p68
tp69
Rp70
ag10
(g14
S"'5\xcezQ\x1dX@"
p71
tp72
Rp73
ag10
(g14
S'aG\xae\x1b\xa7\x1cX@'
p74
tp75
Rp76
asS'target'
p77
(lp78
g10
(g14
S'yI4 U\xfdN@'
p79
tp80
Rp81
ag10
(g14
S'\xdfX\xfd+\xdb\xbbP@'
p82
tp83
Rp84
ag10
(g14
S'n\xc7\xc4\xed\xc0gO@'
p85
tp86
Rp87
ag10
(g14
S'2\x86\xe9\xbc\xce\xbfH@'
p88
tp89
Rp90
ag10
(g14
S'\xeaz\xef31MQ@'
p91
tp92
Rp93
ag10
(g14
S'\xd5l\xc9H\xb13Q@'
p94
tp95
Rp96
ag10
(g14
S'\xab\x95\xaf\x10\xf5wP@'
p97
tp98
Rp99
ag10
(g14
S"'m\xefq6\xeeP@"
p100
tp101
Rp102
ag10
(g14
S'\xce\x00t\x80;\x88L@'
p103
tp104
Rp105
ag10
(g14
S'mb\x8d[\xcb\xa4P@'
p106
tp107
Rp108
ag10
(g14
S'\xc1\xa4\xd5\x03^lQ@'
p109
tp110
Rp111
ag10
(g14
S',e\x86\xff|\x8bP@'
p112
tp113
Rp114
ag10
(g14
S'V<H;\xfa\xffP@'
p115
tp116
Rp117
ag10
(g14
S"\x18'HZ\xebjP@"
p118
tp119
Rp120
ag10
(g14
S'r;\xb3\x08\xee5S@'
p121
tp122
Rp123
ag10
(g14
S'\xb4\xff0\xb1O5P@'
p124
tp125
Rp126
ag10
(g14
S'\n\x8eR\xc3\xb4\x8fQ@'
p127
tp128
Rp129
ag10
(g14
S'\xec\xa0\x88\xbc.\x8dP@'
p130
tp131
Rp132
ag10
(g14
S'H\x93\x98\x9d\xe7\x10Q@'
p133
tp134
Rp135
ag10
(g14
S'%\x838\x06\x91\xddN@'
p136
tp137
Rp138
asssss.