(dp0
S'../Data/sqlite_85.csv'
p1
(dp2
S'../Data/sqlite_36.csv'
p3
(dp4
F0.3
(dp5
S'abs_res'
p6
(dp7
S'bellwether'
p8
(lp9
cnumpy.core.multiarray
scalar
p10
(cnumpy
dtype
p11
(S'f8'
p12
I0
I1
tp13
Rp14
(I3
S'<'
p15
NNNI-1
I-1
I0
tp16
bS'\xa4\xd3\x06\x02\xcb\x82SA'
p17
tp18
Rp19
ag10
(g14
S'p\xa0\xd3vHrSA'
p20
tp21
Rp22
ag10
(g14
S'\xb5\x1e\x85\x03JoSA'
p23
tp24
Rp25
ag10
(g14
S'V\xffF\xa8}:SA'
p26
tp27
Rp28
ag10
(g14
S's\xaf\xb9@:@SA'
p29
tp30
Rp31
ag10
(g14
S'h\x10X\xb9$XSA'
p32
tp33
Rp34
ag10
(g14
S'wL\xf0\xa0\xb3dSA'
p35
tp36
Rp37
ag10
(g14
S'\n:mX,-SA'
p38
tp39
Rp40
ag10
(g14
S'\x84]\x01Z\riSA'
p41
tp42
Rp43
ag10
(g14
S'\x8dA`\xb5\xb5\x18SA'
p44
tp45
Rp46
ag10
(g14
S'\xfaS\xe3mhCSA'
p47
tp48
Rp49
ag10
(g14
S'\xcd"\xdb\x81\x1d\x15SA'
p50
tp51
Rp52
ag10
(g14
S':\xec\n\x90+vSA'
p53
tp54
Rp55
ag10
(g14
S'\t+\x87\xf6>\x8bSA'
p56
tp57
Rp58
ag10
(g14
S'\xa7)\x15\xff\x11KSA'
p59
tp60
Rp61
ag10
(g14
S'\xbd\x02\xe467\x0fSA'
p62
tp63
Rp64
ag10
(g14
S"8@\xee-'ISA"
p65
tp66
Rp67
ag10
(g14
S'\xc4/\x96lQ]SA'
p68
tp69
Rp70
ag10
(g14
S'\xfe~j\xbc\xfdbSA'
p71
tp72
Rp73
ag10
(g14
S'A\xee5w\x8cNSA'
p74
tp75
Rp76
asS'target'
p77
(lp78
g10
(g14
S'5\x08\xac\x1cZ|S@'
p79
tp80
Rp81
ag10
(g14
S'\x19\xd9\xce\xf7S\x9bU@'
p82
tp83
Rp84
ag10
(g14
S'0\x87\x16\xd9\xceST@'
p85
tp86
Rp87
ag10
(g14
S'\xf4\xa7\xc6K7AT@'
p88
tp89
Rp90
ag10
(g14
S'\xd9\xce\xf7S\xe3\xb5U@'
p91
tp92
Rp93
ag10
(g14
S'\xa9\xc6K7\x895T@'
p94
tp95
Rp96
ag10
(g14
S'\x9f\xef\xa7\xc6K\x0fS@'
p97
tp98
Rp99
ag10
(g14
S'\xd9\xf7S\xe3\xa5\xe3T@'
p100
tp101
Rp102
ag10
(g14
S'\xb4t\x93\x18\x04"S@'
p103
tp104
Rp105
ag10
(g14
S'\x1a\xaeG\xe1z\xd4S@'
p106
tp107
Rp108
ag10
(g14
S'U\xe3\xa5\x9b\xc4PU@'
p109
tp110
Rp111
ag10
(g14
S'\xb3\x1cZd;\x07T@'
p112
tp113
Rp114
ag10
(g14
S'\xed&1\x08\xac\xbcU@'
p115
tp116
Rp117
ag10
(g14
S'\xc9\xf5(\\\x8f\x12S@'
p118
tp119
Rp120
ag10
(g14
S'>\n\xd7\xa3piS@'
p121
tp122
Rp123
ag10
(g14
S'F\x0c\x02+\x87:U@'
p124
tp125
Rp126
ag10
(g14
S'd\x91\xed|?\x15U@'
p127
tp128
Rp129
ag10
(g14
S'\x19/\xdd$\x065T@'
p130
tp131
Rp132
ag10
(g14
S'\xa5\x1cZd;/T@'
p133
tp134
Rp135
ag10
(g14
S'_\xe5\xd0"\xdbQU@'
p136
tp137
Rp138
asssss.