(dp0
S'../Data/sqlite_46.csv'
p1
(dp2
S'../Data/sqlite_82.csv'
p3
(dp4
F0.35
(dp5
S'abs_res'
p6
(dp7
S'bellwether'
p8
(lp9
cnumpy.core.multiarray
scalar
p10
(cnumpy
dtype
p11
(S'f8'
p12
I0
I1
tp13
Rp14
(I3
S'<'
p15
NNNI-1
I-1
I0
tp16
bS'\x0f\xd7\xa3\xd0?m8A'
p17
tp18
Rp19
ag10
(g14
S'\xfa\xfd\xd4X\x9fk8A'
p20
tp21
Rp22
ag10
(g14
S"z\xbe\x9f\xfa'l8A"
p23
tp24
Rp25
ag10
(g14
S'x\xe9&\xf1om8A'
p26
tp27
Rp28
ag10
(g14
S'\xe0\xce\xf7\x13+n8A'
p29
tp30
Rp31
ag10
(g14
S'gff\xc6\xb6m8A'
p32
tp33
Rp34
ag10
(g14
S'\xc5\xcc\xcc\x8c\x1em8A'
p35
tp36
Rp37
ag10
(g14
S'\x90\x18\x04V(m8A'
p38
tp39
Rp40
ag10
(g14
S'a\xbaI\x0c"m8A'
p41
tp42
Rp43
ag10
(g14
S'\x06+\x87\xd6Gn8A'
p44
tp45
Rp46
ag10
(g14
S'c\xbaI\xecpm8A'
p47
tp48
Rp49
ag10
(g14
S'\x86\x95C\xeb\xeam8A'
p50
tp51
Rp52
ag10
(g14
S'[\xe5\xd0\xa2\rl8A'
p53
tp54
Rp55
ag10
(g14
S'\xbet\x93x\xc6m8A'
p56
tp57
Rp58
ag10
(g14
S'\xaa\xf1\xd2\r\x13n8A'
p59
tp60
Rp61
ag10
(g14
S'\xfc\xd4x)Xm8A'
p62
tp63
Rp64
ag10
(g14
S'Zd;\xbfKm8A'
p65
tp66
Rp67
ag10
(g14
S'1\xb2\x9d\xcf\xfcl8A'
p68
tp69
Rp70
ag10
(g14
S'O\x8d\x97n\xfbk8A'
p71
tp72
Rp73
ag10
(g14
S'/\x89A`\xa6l8A'
p74
tp75
Rp76
asS'target'
p77
(lp78
g10
(g14
S'w?5^:\x08\x81@'
p79
tp80
Rp81
ag10
(g14
S'\xf2|?5^\xabs@'
p82
tp83
Rp84
ag10
(g14
S'\xf4\xd2Mb\x10\x8cy@'
p85
tp86
Rp87
ag10
(g14
S'qh\x91\xed|\x81s@'
p88
tp89
Rp90
ag10
(g14
S'\xf0\xa9\xf1\xd2MRz@'
p91
tp92
Rp93
ag10
(g14
S'\x99n\x12\x83\xc0\ru@'
p94
tp95
Rp96
ag10
(g14
S'Jb\x10X9\x9fx@'
p97
tp98
Rp99
ag10
(g14
S'\xb5\xf5(\\\x8f\xd9w@'
p100
tp101
Rp102
ag10
(g14
S'\x01V\x0e-\xb2\x9av@'
p103
tp104
Rp105
ag10
(g14
S'3\x89A`\xe5\xea|@'
p106
tp107
Rp108
ag10
(g14
S'x\xe9&1\x08\xf8u@'
p109
tp110
Rp111
ag10
(g14
S'n\x93\x18\x04VJz@'
p112
tp113
Rp114
ag10
(g14
S'z\x95C\x8bl\xbd|@'
p115
tp116
Rp117
ag10
(g14
S'\x19\xb0rh\x91\xf5\x7f@'
p118
tp119
Rp120
ag10
(g14
S'Vd;\xdfO\x81s@'
p121
tp122
Rp123
ag10
(g14
S'\xd7\xa5\x9b\xc4 \xf9v@'
p124
tp125
Rp126
ag10
(g14
S'\xeb\xd2Mb\x10\xb8u@'
p127
tp128
Rp129
ag10
(g14
S'X\xbaI\x0c\x02\x82\x82@'
p130
tp131
Rp132
ag10
(g14
S'7\n\xd7\xa3p\xd8y@'
p133
tp134
Rp135
ag10
(g14
S'W\x10X9\xb4nt@'
p136
tp137
Rp138
asssss.