(dp0
S'../Data/sqlite_1.csv'
p1
(dp2
S'../Data/sqlite_20.csv'
p3
(dp4
F0.1
(dp5
S'abs_res'
p6
(dp7
S'bellwether'
p8
(lp9
cnumpy.core.multiarray
scalar
p10
(cnumpy
dtype
p11
(S'f8'
p12
I0
I1
tp13
Rp14
(I3
S'<'
p15
NNNI-1
I-1
I0
tp16
bS'\xdf\xf9~JK#AA'
p17
tp18
Rp19
ag10
(g14
S'\n\x1e\xcc\xf3$#AA'
p20
tp21
Rp22
ag10
(g14
S'\xcbv\xbe\xcf;#AA'
p23
tp24
Rp25
ag10
(g14
S'\x85\x16\xd9\xaer#AA'
p26
tp27
Rp28
ag10
(g14
S'\xa5\x9b\xc4\xe0\x0e#AA'
p29
tp30
Rp31
ag10
(g14
S'M\x0c\x02[\x84#AA'
p32
tp33
Rp34
ag10
(g14
S'c;\xdf\x7f*#AA'
p35
tp36
Rp37
ag10
(g14
S'8\xa5\xe2\x1cP#AA'
p38
tp39
Rp40
ag10
(g14
S'\x1dv\x05\xc8S#AA'
p41
tp42
Rp43
ag10
(g14
S'\x94\x18\x04\xc61#AA'
p44
tp45
Rp46
ag10
(g14
S']\xbaI,W#AA'
p47
tp48
Rp49
ag10
(g14
S'a\x10XI\x96#AA'
p50
tp51
Rp52
ag10
(g14
S'$\\\x8f\x02?#AA'
p53
tp54
Rp55
ag10
(g14
S'\xb1rh\xd1\x98#AA'
p56
tp57
Rp58
ag10
(g14
S'\xb0\x1cZT\x10#AA'
p59
tp60
Rp61
ag10
(g14
S'\xd2\xf7S\x13\xe3#AA'
p62
tp63
Rp64
ag10
(g14
S'\xb7\xc8v.\x10#AA'
p65
tp66
Rp67
ag10
(g14
S'Y\x0e-\x12\xd4"AA'
p68
tp69
Rp70
ag10
(g14
S'\xa5E\xb6\x03_#AA'
p71
tp72
Rp73
ag10
(g14
S'<\xdfO\xfdr#AA'
p74
tp75
Rp76
asS'target'
p77
(lp78
g10
(g14
S'\x17\xb0rh\x91\x9fs@'
p79
tp80
Rp81
ag10
(g14
S'\xbc \xb0rh\xffr@'
p82
tp83
Rp84
ag10
(g14
S'v\xbe\x9f\x1a/\x03s@'
p85
tp86
Rp87
ag10
(g14
S'\x0c\x02+\x87\x16\x0fr@'
p88
tp89
Rp90
ag10
(g14
S'\xf2\xa7\xc6K7\x8ds@'
p91
tp92
Rp93
ag10
(g14
S'r=\n\xd7\xa3\x8at@'
p94
tp95
Rp96
ag10
(g14
S'Ud;\xdfO!t@'
p97
tp98
Rp99
ag10
(g14
S'\xde$\x06\x81\x95\xebr@'
p100
tp101
Rp102
ag10
(g14
S'\x0b\x02+\x87\x16%t@'
p103
tp104
Rp105
ag10
(g14
S'\xea\xd0"\xdb\xf9Xs@'
p106
tp107
Rp108
ag10
(g14
S'\x1e1\x08\xac\x1c\xb4t@'
p109
tp110
Rp111
ag10
(g14
S'\xe6\xfd\xd4x\xe9\xaeq@'
p112
tp113
Rp114
ag10
(g14
S'\x0e\xd7\xa3p=\xb0s@'
p115
tp116
Rp117
ag10
(g14
S'\xe7\xf9~j\xbcqt@'
p118
tp119
Rp120
ag10
(g14
S'\x18\xd9\xce\xf7S9v@'
p121
tp122
Rp123
ag10
(g14
S'\x12\xd9\xce\xf7S\x13t@'
p124
tp125
Rp126
ag10
(g14
S'q\x91\xed|?yu@'
p127
tp128
Rp129
ag10
(g14
S'n\xe7\xfb\xa9\xf1:s@'
p130
tp131
Rp132
ag10
(g14
S'b\xbaI\x0c\x02+s@'
p133
tp134
Rp135
ag10
(g14
S'j\x10X9\xb4\xf6s@'
p136
tp137
Rp138
asssss.