(dp0
S'../Data/sqlite_28.csv'
p1
(dp2
S'../Data/sqlite_1.csv'
p3
(dp4
F0.15
(dp5
S'abs_res'
p6
(dp7
S'bellwether'
p8
(lp9
cnumpy.core.multiarray
scalar
p10
(cnumpy
dtype
p11
(S'f8'
p12
I0
I1
tp13
Rp14
(I3
S'<'
p15
NNNI-1
I-1
I0
tp16
bS'Vd;wEE@A'
p17
tp18
Rp19
ag10
(g14
S"I7\x89\xe1'D@A"
p20
tp21
Rp22
ag10
(g14
S'\x17/\xdd|pD@A'
p23
tp24
Rp25
ag10
(g14
S'\xe5\xd0"\x0b7D@A'
p26
tp27
Rp28
ag10
(g14
S'<`\xe5@\x0cE@A'
p29
tp30
Rp31
ag10
(g14
S'\xe4&1\x88iD@A'
p32
tp33
Rp34
ag10
(g14
S'\xd3Mb@\x98D@A'
p35
tp36
Rp37
ag10
(g14
S'\x07\x81\x95\xe3\xb0D@A'
p38
tp39
Rp40
ag10
(g14
S'B\x8blowD@A'
p41
tp42
Rp43
ag10
(g14
S'\xcc\xf7S;4D@A'
p44
tp45
Rp46
ag10
(g14
S'\xba\xca\xa1\xad\xefD@A'
p47
tp48
Rp49
ag10
(g14
S'\xc4K7\x81/D@A'
p50
tp51
Rp52
ag10
(g14
S'S\x0e-\xa2|D@A'
p53
tp54
Rp55
ag10
(g14
S'\xf1|?U3D@A'
p56
tp57
Rp58
ag10
(g14
S'n=\nO\x02E@A'
p59
tp60
Rp61
ag10
(g14
S'\xfa\xa9\xf1:3D@A'
p62
tp63
Rp64
ag10
(g14
S'\x13\xd9\xce\xcf\xd8C@A'
p65
tp66
Rp67
ag10
(g14
S'cff>\rE@A'
p68
tp69
Rp70
ag10
(g14
S'\x11\x83\xc0\n\xefD@A'
p71
tp72
Rp73
ag10
(g14
S'Nb\x10\xc8YD@A'
p74
tp75
Rp76
asS'target'
p77
(lp78
g10
(g14
S'3333s\x91\xd3@'
p79
tp80
Rp81
ag10
(g14
S'93333\x82\xd1@'
p82
tp83
Rp84
ag10
(g14
S'\x00\x00\x00\x00`\x0f\xd2@'
p85
tp86
Rp87
ag10
(g14
S'\xcc\xcc\xcc\xcc\xec\x06\xd3@'
p88
tp89
Rp90
ag10
(g14
S'\xcb\xcc\xcc\xccl\x89\xd2@'
p91
tp92
Rp93
ag10
(g14
S'3333s\xe1\xd2@'
p94
tp95
Rp96
ag10
(g14
S'\x05\x00\x00\x00\x00!\xd4@'
p97
tp98
Rp99
ag10
(g14
S';333\x13\xd6\xd1@'
p100
tp101
Rp102
ag10
(g14
S'hfffF\x19\xd2@'
p103
tp104
Rp105
ag10
(g14
S'\x02\x00\x00\x00\x00x\xd2@'
p106
tp107
Rp108
ag10
(g14
S'\xd0\xcc\xcc\xcc|*\xd3@'
p109
tp110
Rp111
ag10
(g14
S'\x0f\x00\x00\x00 \xda\xd3@'
p112
tp113
Rp114
ag10
(g14
S'mfffv\x82\xd1@'
p115
tp116
Rp117
ag10
(g14
S'\xce\xcc\xcc\xccL)\xd2@'
p118
tp119
Rp120
ag10
(g14
S'6333S1\xd1@'
p121
tp122
Rp123
ag10
(g14
S'\x00\x00\x00\x00 \xa0\xd2@'
p124
tp125
Rp126
ag10
(g14
S'\xc6\xcc\xcc\xcc\\\x83\xd1@'
p127
tp128
Rp129
ag10
(g14
S'\xcf\xcc\xcc\xcclA\xd2@'
p130
tp131
Rp132
ag10
(g14
S'\x06\x00\x00\x00\x807\xd2@'
p133
tp134
Rp135
ag10
(g14
S'+333\x13}\xd2@'
p136
tp137
Rp138
asssss.