(dp0
S'../Data/sqlite_28.csv'
p1
(dp2
S'../Data/sqlite_80.csv'
p3
(dp4
F0.4
(dp5
S'mmre'
p6
(dp7
S'bellwether'
p8
(lp9
cnumpy.core.multiarray
scalar
p10
(cnumpy
dtype
p11
(S'f8'
p12
I0
I1
tp13
Rp14
(I3
S'<'
p15
NNNI-1
I-1
I0
tp16
bS'\x8cj^\xb0\x0bNX@'
p17
tp18
Rp19
ag10
(g14
S'F}/d\x01NX@'
p20
tp21
Rp22
ag10
(g14
S'\x98\xca"\xbb\xdfMX@'
p23
tp24
Rp25
ag10
(g14
S'2\xcbl\x1aQNX@'
p26
tp27
Rp28
ag10
(g14
S'Yl\xc0\xbegNX@'
p29
tp30
Rp31
ag10
(g14
S'\x05\xa1\xa9\x17\x0fNX@'
p32
tp33
Rp34
ag10
(g14
S'\xfd\x85\x8b\x96\rNX@'
p35
tp36
Rp37
ag10
(g14
S'\x97\xee\xcbl\xe1MX@'
p38
tp39
Rp40
ag10
(g14
S'\x8b/Y\xea\xdeMX@'
p41
tp42
Rp43
ag10
(g14
S'\xc1\xc1j\x1a|NX@'
p44
tp45
Rp46
ag10
(g14
S'g\x9c;\x8d\xf8MX@'
p47
tp48
Rp49
ag10
(g14
S'\xa0\x94\x80\xd2\x1eNX@'
p50
tp51
Rp52
ag10
(g14
S'\x0ea\xd4]\xf8MX@'
p53
tp54
Rp55
ag10
(g14
S'mX-P|NX@'
p56
tp57
Rp58
ag10
(g14
S'\x9dN\xdaG\x86NX@'
p59
tp60
Rp61
ag10
(g14
S'\xf4\xbaDm\tNX@'
p62
tp63
Rp64
ag10
(g14
S'\xed\xbf\xe79uMX@'
p65
tp66
Rp67
ag10
(g14
S'\xd5\\fXjNX@'
p68
tp69
Rp70
ag10
(g14
S'"l\x12LfMX@'
p71
tp72
Rp73
ag10
(g14
S'$\x8eM*\x16NX@'
p74
tp75
Rp76
asS'target'
p77
(lp78
g10
(g14
S'F\x9c\xc5\xdf\x0c]\xf1?'
p79
tp80
Rp81
ag10
(g14
S';L\xf73z\xe7\xef?'
p82
tp83
Rp84
ag10
(g14
S'\x0cGf1\x90\x17\xf0?'
p85
tp86
Rp87
ag10
(g14
S'LH}z\xba\x93\xed?'
p88
tp89
Rp90
ag10
(g14
S'k\xefxM/\xb3\xee?'
p91
tp92
Rp93
ag10
(g14
S']\x16Jzm\x92\xed?'
p94
tp95
Rp96
ag10
(g14
S'\tcl;d\x9a\xef?'
p97
tp98
Rp99
ag10
(g14
S'\xc8^\xd6\xf9Gf\xef?'
p100
tp101
Rp102
ag10
(g14
S'\xa6~\x91\\\xc8p\xf0?'
p103
tp104
Rp105
ag10
(g14
S'w\x81Qr*\xde\xef?'
p106
tp107
Rp108
ag10
(g14
S'\xd1c_\xe2a<\xf0?'
p109
tp110
Rp111
ag10
(g14
S'}\xa2\xa7\x01\x16\xb7\xef?'
p112
tp113
Rp114
ag10
(g14
S'\xa7Vl\xf7E\xad\xef?'
p115
tp116
Rp117
ag10
(g14
S'\xd1\r\xf7\xf6O\xbe\xee?'
p118
tp119
Rp120
ag10
(g14
S'\x86\xebq\xb2FT\xef?'
p121
tp122
Rp123
ag10
(g14
S'\xa0\xbb\x86\x9f^\xeb\xed?'
p124
tp125
Rp126
ag10
(g14
S'\xf0o\x96\xd1\xdf\x9a\xee?'
p127
tp128
Rp129
ag10
(g14
S'\xa19XR\x91:\xef?'
p130
tp131
Rp132
ag10
(g14
S'\x11x\xa7v\x17\x08\xf1?'
p133
tp134
Rp135
ag10
(g14
S'2ZF\xaa`*\xf2?'
p136
tp137
Rp138
asssss.