(dp0
S'../Data/sqlite_76.csv'
p1
(dp2
S'../Data/sqlite_94.csv'
p3
(dp4
F0.1
(dp5
S'mmre'
p6
(dp7
S'bellwether'
p8
(lp9
cnumpy.core.multiarray
scalar
p10
(cnumpy
dtype
p11
(S'f8'
p12
I0
I1
tp13
Rp14
(I3
S'<'
p15
NNNI-1
I-1
I0
tp16
bS'\x95\x85\xa0\x1a\x87>V@'
p17
tp18
Rp19
ag10
(g14
S'\xb0gV\x1b\xe2?V@'
p20
tp21
Rp22
ag10
(g14
S'\x91\xc1\x8f*\xa9AV@'
p23
tp24
Rp25
ag10
(g14
S'W\x05\xca\t\x16@V@'
p26
tp27
Rp28
ag10
(g14
S'\x85o\xc1NnAV@'
p29
tp30
Rp31
ag10
(g14
S'\xa7\xcb\x033cAV@'
p32
tp33
Rp34
ag10
(g14
S'c\x08\r\xa0\xfa?V@'
p35
tp36
Rp37
ag10
(g14
S'\x9cFee\xea=V@'
p38
tp39
Rp40
ag10
(g14
S'\xc6T\xfeZ\x89@V@'
p41
tp42
Rp43
ag10
(g14
S'9Y\x03\xe1\xa1=V@'
p44
tp45
Rp46
ag10
(g14
S'\xb3^;W\x18=V@'
p47
tp48
Rp49
ag10
(g14
S'\x1cHhw\xdc?V@'
p50
tp51
Rp52
ag10
(g14
S'T?Hk,BV@'
p53
tp54
Rp55
ag10
(g14
S'#\xb0\x0f\x9b];V@'
p56
tp57
Rp58
ag10
(g14
S'kf\x8f\xf8\xa7<V@'
p59
tp60
Rp61
ag10
(g14
S'\xee)p4\xcb<V@'
p62
tp63
Rp64
ag10
(g14
S'\x03\xb5\xcab\xfd<V@'
p65
tp66
Rp67
ag10
(g14
S'p\x14g\x11\xaf;V@'
p68
tp69
Rp70
ag10
(g14
S'92\xca\xcc\xf8;V@'
p71
tp72
Rp73
ag10
(g14
S'\xfc\xf8\xab\xb7r>V@'
p74
tp75
Rp76
asS'target'
p77
(lp78
g10
(g14
S'\xf1\x13\x02\x82\xd9\xeeI@'
p79
tp80
Rp81
ag10
(g14
S'^\xd7[Bn\xc4P@'
p82
tp83
Rp84
ag10
(g14
S'\x12\xdf\xb8\xfdGHO@'
p85
tp86
Rp87
ag10
(g14
S'\xae\x81^>\xc4\xfeP@'
p88
tp89
Rp90
ag10
(g14
S'\x9d\x98d+\xf8GI@'
p91
tp92
Rp93
ag10
(g14
S'\xf3z\x127\xc6+U@'
p94
tp95
Rp96
ag10
(g14
S'\xf1\x06\xda\xee\xb8\x94I@'
p97
tp98
Rp99
ag10
(g14
S'\x08K\x08\xd9]@L@'
p100
tp101
Rp102
ag10
(g14
S'K\x95\xdf\xb3_\x82N@'
p103
tp104
Rp105
ag10
(g14
S'\xf1\xef\xc5s{\x9dX@'
p106
tp107
Rp108
ag10
(g14
S'\xb1\x01\x84\xc3+\x9fO@'
p109
tp110
Rp111
ag10
(g14
S"\xd2{\x87\x10\x19'M@"
p112
tp113
Rp114
ag10
(g14
S'!\x1bq\x10\xaa\x8fK@'
p115
tp116
Rp117
ag10
(g14
S'\x03\xc3\xebNHkQ@'
p118
tp119
Rp120
ag10
(g14
S'\xce\xdc\xef\x1fuLI@'
p121
tp122
Rp123
ag10
(g14
S'\xc9^j\x92\xfa\xf8U@'
p124
tp125
Rp126
ag10
(g14
S'\xf3YE\x94Z\xfdT@'
p127
tp128
Rp129
ag10
(g14
S'X\x03dB ZP@'
p130
tp131
Rp132
ag10
(g14
S'`By?<\xc8I@'
p133
tp134
Rp135
ag10
(g14
S'\xc8\xfc\x8d\x1d\x938M@'
p136
tp137
Rp138
asssss.