(dp0
S'../Data/sqlite_50.csv'
p1
(dp2
S'../Data/sqlite_87.csv'
p3
(dp4
F0.35
(dp5
S'mmre'
p6
(dp7
S'bellwether'
p8
(lp9
cnumpy.core.multiarray
scalar
p10
(cnumpy
dtype
p11
(S'f8'
p12
I0
I1
tp13
Rp14
(I3
S'<'
p15
NNNI-1
I-1
I0
tp16
bS'D\xc7r\xccwPS@'
p17
tp18
Rp19
ag10
(g14
S'uN\x19q;HS@'
p20
tp21
Rp22
ag10
(g14
S'Pg+\x99PYS@'
p23
tp24
Rp25
ag10
(g14
S'\xa9N\x8e\x98\x9fZS@'
p26
tp27
Rp28
ag10
(g14
S'/\xb1\xad\x01\xfcLS@'
p29
tp30
Rp31
ag10
(g14
S'.\xaf\xad\xf8<VS@'
p32
tp33
Rp34
ag10
(g14
S'Qp\xc4\x89\xc5GS@'
p35
tp36
Rp37
ag10
(g14
S'\xa1\x81n\xd0\xc9XS@'
p38
tp39
Rp40
ag10
(g14
S'\t\xc1\x9euiWS@'
p41
tp42
Rp43
ag10
(g14
S'p\xba\xfd\xc4\x05JS@'
p44
tp45
Rp46
ag10
(g14
S'\xd6\x1c\xed3lOS@'
p47
tp48
Rp49
ag10
(g14
S'\x90\xdc\xde\xba,RS@'
p50
tp51
Rp52
ag10
(g14
S'\xe5\xd7~\x1b\xc7CS@'
p53
tp54
Rp55
ag10
(g14
S'\x00\xd3\x18j\x97LS@'
p56
tp57
Rp58
ag10
(g14
S'\xa0{\x96GcRS@'
p59
tp60
Rp61
ag10
(g14
S'p\x1d\xa4J\xc0WS@'
p62
tp63
Rp64
ag10
(g14
S'\x94\xe6\x9f8.IS@'
p65
tp66
Rp67
ag10
(g14
S'\x88\xb5\xb1\xc3\xabES@'
p68
tp69
Rp70
ag10
(g14
S'J\xb1NsXGS@'
p71
tp72
Rp73
ag10
(g14
S'U3@\xe73HS@'
p74
tp75
Rp76
asS'target'
p77
(lp78
g10
(g14
S'p[G\x14\xebqP@'
p79
tp80
Rp81
ag10
(g14
S'2\x96\xa5\xbay\xe7S@'
p82
tp83
Rp84
ag10
(g14
S'z@\xae\xa1\xe4\xeaQ@'
p85
tp86
Rp87
ag10
(g14
S'\xa7\xd0\x80N\xd8\x05O@'
p88
tp89
Rp90
ag10
(g14
S'\xf6 t\xc9tOM@'
p91
tp92
Rp93
ag10
(g14
S'\x18\x05\x0c\x0b5\xd8P@'
p94
tp95
Rp96
ag10
(g14
S'\xcf\xf0{x\xa17P@'
p97
tp98
Rp99
ag10
(g14
S'^O\x9e_<\xe2M@'
p100
tp101
Rp102
ag10
(g14
S'90\xfd\x1d4_M@'
p103
tp104
Rp105
ag10
(g14
S'\xd5D\xd7\xbc\x89\xf9P@'
p106
tp107
Rp108
ag10
(g14
S'k=\xb8\xc7,SH@'
p109
tp110
Rp111
ag10
(g14
S'\xbd-\xb6\xc7`iP@'
p112
tp113
Rp114
ag10
(g14
S'qC\x91t\x88\xc9T@'
p115
tp116
Rp117
ag10
(g14
S'\xe2nv\x89\xbc\xe5R@'
p118
tp119
Rp120
ag10
(g14
S'\x07\xe5\xca;\xf5\xa5W@'
p121
tp122
Rp123
ag10
(g14
S'\xfe\x928\xf557O@'
p124
tp125
Rp126
ag10
(g14
S'\xeb\xb70N!\xf7P@'
p127
tp128
Rp129
ag10
(g14
S'\x9eA\x11\x82\xb9\x90O@'
p130
tp131
Rp132
ag10
(g14
S'\x0eo>d\x16\x0fS@'
p133
tp134
Rp135
ag10
(g14
S'\xb0Y\xbf\x1d\xcd\xa8R@'
p136
tp137
Rp138
asssss.