(dp0
S'../Data/sqlite_72.csv'
p1
(dp2
S'../Data/sqlite_78.csv'
p3
(dp4
F0.05
(dp5
S'mmre'
p6
(dp7
S'bellwether'
p8
(lp9
cnumpy.core.multiarray
scalar
p10
(cnumpy
dtype
p11
(S'f8'
p12
I0
I1
tp13
Rp14
(I3
S'<'
p15
NNNI-1
I-1
I0
tp16
bS'\x80\xc5\x93e\xa1PQ@'
p17
tp18
Rp19
ag10
(g14
S'\x96\xd7\xc9l\xaePQ@'
p20
tp21
Rp22
ag10
(g14
S'\x00!\xd8\x8a\x90OQ@'
p23
tp24
Rp25
ag10
(g14
S'\xbd&\xd6d\xb2OQ@'
p26
tp27
Rp28
ag10
(g14
S'|+K\x11\xc2MQ@'
p29
tp30
Rp31
ag10
(g14
S'r\xf0\x9c\xde?PQ@'
p32
tp33
Rp34
ag10
(g14
S'\xa74@G5QQ@'
p35
tp36
Rp37
ag10
(g14
S'\xe7|\xa5\xce\x94RQ@'
p38
tp39
Rp40
ag10
(g14
S'\xee\xd8\xad\xad\xd0PQ@'
p41
tp42
Rp43
ag10
(g14
S'\xed\xa5\x82pzMQ@'
p44
tp45
Rp46
ag10
(g14
S'\xd3\x1f\x1e,4IQ@'
p47
tp48
Rp49
ag10
(g14
S'\xe8\x7f\xe1\xe9\x06RQ@'
p50
tp51
Rp52
ag10
(g14
S'\x00\xceqx\x14OQ@'
p53
tp54
Rp55
ag10
(g14
S'\x84\xb5\x7fcQNQ@'
p56
tp57
Rp58
ag10
(g14
S'\x83\xd7\x98\x86\x04PQ@'
p59
tp60
Rp61
ag10
(g14
S'Yv#\x92\x9aNQ@'
p62
tp63
Rp64
ag10
(g14
S'\x06\xcf\xe9\xbeCNQ@'
p65
tp66
Rp67
ag10
(g14
S'a\xef\x04z\xabKQ@'
p68
tp69
Rp70
ag10
(g14
S'\x16F_a?IQ@'
p71
tp72
Rp73
ag10
(g14
S'S\xed\x94e\xe3PQ@'
p74
tp75
Rp76
asS'target'
p77
(lp78
g10
(g14
S'eh\x8e\xd1\x01\x9d2@'
p79
tp80
Rp81
ag10
(g14
S'/F\xbd%\xad\xab3@'
p82
tp83
Rp84
ag10
(g14
S'rLe\xd8v\xf03@'
p85
tp86
Rp87
ag10
(g14
S'\x07f\xad^\xabT4@'
p88
tp89
Rp90
ag10
(g14
S'\xa8SM\x01g\xe22@'
p91
tp92
Rp93
ag10
(g14
S'\x8eoAwU\xc16@'
p94
tp95
Rp96
ag10
(g14
S'|\xb9e\x1b\xc1`3@'
p97
tp98
Rp99
ag10
(g14
S'zb\xda\x8cu\xf01@'
p100
tp101
Rp102
ag10
(g14
S's\xa44\x87\xae\xac3@'
p103
tp104
Rp105
ag10
(g14
S'\xecp\x1f\x15\xec\xfc4@'
p106
tp107
Rp108
ag10
(g14
S'\x08P\xdb\xa8I\xe44@'
p109
tp110
Rp111
ag10
(g14
S'\x0f\x16\x03t\xd0\x8a6@'
p112
tp113
Rp114
ag10
(g14
S'}\xe5\\\xa7[\xe46@'
p115
tp116
Rp117
ag10
(g14
S'\xec\xde\x8a6sN3@'
p118
tp119
Rp120
ag10
(g14
S'e\xe2\xf8\xb9B;2@'
p121
tp122
Rp123
ag10
(g14
S'\xd3\xbd\xb4\xc3\x7fy:@'
p124
tp125
Rp126
ag10
(g14
S'\x8e!X\x8aI\xce4@'
p127
tp128
Rp129
ag10
(g14
S'\xa9,5/M\xc73@'
p130
tp131
Rp132
ag10
(g14
S'\x8dyJ\xb3#36@'
p133
tp134
Rp135
ag10
(g14
S'\x00\x1a\x02u\x02\x873@'
p136
tp137
Rp138
asssss.