(dp0
S'../Data/sqlite_60.csv'
p1
(dp2
S'../Data/sqlite_47.csv'
p3
(dp4
F0.25
(dp5
S'abs_res'
p6
(dp7
S'bellwether'
p8
(lp9
cnumpy.core.multiarray
scalar
p10
(cnumpy
dtype
p11
(S'f8'
p12
I0
I1
tp13
Rp14
(I3
S'<'
p15
NNNI-1
I-1
I0
tp16
bS'\xdb\xb2V7\x7fceA'
p17
tp18
Rp19
ag10
(g14
S'\r\xbb\x02\xf8PSeA'
p20
tp21
Rp22
ag10
(g14
S'\xf9`\x9e\xf8S^eA'
p23
tp24
Rp25
ag10
(g14
S'\x89\xebQ\xa4\xacXeA'
p26
tp27
Rp28
ag10
(g14
S'\x86\x95C\xb7I[eA'
p29
tp30
Rp31
ag10
(g14
S'V,\xf9\xa5"PeA'
p32
tp33
Rp34
ag10
(g14
S'\x8fl\xe7\xd3iXeA'
p35
tp36
Rp37
ag10
(g14
S'o\x93\x18\xe8eceA'
p38
tp39
Rp40
ag10
(g14
S'\x06:ml\x93[eA'
p41
tp42
Rp43
ag10
(g14
S'q\xcbZA\x82QeA'
p44
tp45
Rp46
ag10
(g14
S"<\x98'\xae9]eA"
p47
tp48
Rp49
ag10
(g14
S'a\x01r?\xbfYeA'
p50
tp51
Rp52
ag10
(g14
S')\xbfX*\x9f_eA'
p53
tp54
Rp55
ag10
(g14
S'\x14\xe6\x89\xae1YeA'
p56
tp57
Rp58
ag10
(g14
S'\x15g\x1f\xfa^ZeA'
p59
tp60
Rp61
ag10
(g14
S'\xdd\xb2V\xff\xfb^eA'
p62
tp63
Rp64
ag10
(g14
S'\x0c\xb9\xd7\xf4\xfe[eA'
p65
tp66
Rp67
ag10
(g14
S'\xc0\x83y~\xbaTeA'
p68
tp69
Rp70
ag10
(g14
S'\x8c\xebQ\xac\xab_eA'
p71
tp72
Rp73
ag10
(g14
S'\xf7\xd2Mr\x9dWeA'
p74
tp75
Rp76
asS'target'
p77
(lp78
g10
(g14
S'\xa7p=\n\xd7\x8fU@'
p79
tp80
Rp81
ag10
(g14
S'\xcfMb\x10X\x19X@'
p82
tp83
Rp84
ag10
(g14
S'\xce\xa1E\xb6\xf3%Z@'
p85
tp86
Rp87
ag10
(g14
S'\x96\x99\x99\x99\x99}V@'
p88
tp89
Rp90
ag10
(g14
S'\xe7|?5^\xc2U@'
p91
tp92
Rp93
ag10
(g14
S'@\x8bl\xe7\xfbAV@'
p94
tp95
Rp96
ag10
(g14
S'j\xe7\xfb\xa9\xf1*V@'
p97
tp98
Rp99
ag10
(g14
S'\xa4\xf1\xd2Mb\x98X@'
p100
tp101
Rp102
ag10
(g14
S'\x9f\x9b\xc4 \xb0\xd2U@'
p103
tp104
Rp105
ag10
(g14
S'I7\x89A`\xedW@'
p106
tp107
Rp108
ag10
(g14
S'\xe9\xfb\xa9\xf1\xd2\xe5U@'
p109
tp110
Rp111
ag10
(g14
S'@\xe1z\x14\xae\xa7T@'
p112
tp113
Rp114
ag10
(g14
S'q\xbct\x93\x18\\Y@'
p115
tp116
Rp117
ag10
(g14
S'\xe3z\x14\xaeG\tY@'
p118
tp119
Rp120
ag10
(g14
S'\x16/\xdd$\x06YV@'
p121
tp122
Rp123
ag10
(g14
S's?5^\xba\xd9U@'
p124
tp125
Rp126
ag10
(g14
S'C5^\xbaI\\V@'
p127
tp128
Rp129
ag10
(g14
S'e\xe7\xfb\xa9\xf1\xc2X@'
p130
tp131
Rp132
ag10
(g14
S'\xf0\xfd\xd4x\xe9\xe6U@'
p133
tp134
Rp135
ag10
(g14
S'&\xb2\x9d\xef\xa7\xfeU@'
p136
tp137
Rp138
asssss.