(dp0
S'../Data/sqlite_85.csv'
p1
(dp2
S'../Data/sqlite_42.csv'
p3
(dp4
F0.15
(dp5
S'abs_res'
p6
(dp7
S'bellwether'
p8
(lp9
cnumpy.core.multiarray
scalar
p10
(cnumpy
dtype
p11
(S'f8'
p12
I0
I1
tp13
Rp14
(I3
S'<'
p15
NNNI-1
I-1
I0
tp16
bS'\x8c]\x01\xd2!oWA'
p17
tp18
Rp19
ag10
(g14
S'2\xb4\xc8NDsWA'
p20
tp21
Rp22
ag10
(g14
S'\xb2\x9f\x1a\x8f\x80TWA'
p23
tp24
Rp25
ag10
(g14
S'N\xb8\x1e-"iWA'
p26
tp27
Rp28
ag10
(g14
S'x\x93\x18\x04\xec\x81WA'
p29
tp30
Rp31
ag10
(g14
S'Q\xffF\xa0\x07nWA'
p32
tp33
Rp34
ag10
(g14
S'\x7f\x16\xd9n!HWA'
p35
tp36
Rp37
ag10
(g14
S'\xd0\xce\xf7+\xc6~WA'
p38
tp39
Rp40
ag10
(g14
S'\x91\x97n\x8a\xf0hWA'
p41
tp42
Rp43
ag10
(g14
S'C\xe1z\xf4\xe4cWA'
p44
tp45
Rp46
ag10
(g14
S'\x1c\x13<\xb0`iWA'
p47
tp48
Rp49
ag10
(g14
S'>5^\xc25rWA'
p50
tp51
Rp52
ag10
(g14
S'\x1a\x04VF\xd4}WA'
p53
tp54
Rp55
ag10
(g14
S'\xfb\xd4x\x01\xd1\x90WA'
p56
tp57
Rp58
ag10
(g14
S's\xf6\xe1\x03\x86\xa9WA'
p59
tp60
Rp61
ag10
(g14
S'\xb5I\x0cr\xa7dWA'
p62
tp63
Rp64
ag10
(g14
S'efff8RWA'
p65
tp66
Rp67
ag10
(g14
S'^\x1d\x134\x93YWA'
p68
tp69
Rp70
ag10
(g14
S'\x04\xe6\x89\n\\;WA'
p71
tp72
Rp73
ag10
(g14
S'\x85\xa4)\x05\x02\xb0WA'
p74
tp75
Rp76
asS'target'
p77
(lp78
g10
(g14
S't\xbe\x9f\x1a/\xedh@'
p79
tp80
Rp81
ag10
(g14
S'\x03\xac\x1cZd\x87h@'
p82
tp83
Rp84
ag10
(g14
S'\x8e\x97n\x12\x83\xb0i@'
p85
tp86
Rp87
ag10
(g14
S'\xeb|?5^:i@'
p88
tp89
Rp90
ag10
(g14
S'\xdd\xf9~j\xbc4h@'
p91
tp92
Rp93
ag10
(g14
S'I7\x89A`-i@'
p94
tp95
Rp96
ag10
(g14
S'\xf6|?5^\x16l@'
p97
tp98
Rp99
ag10
(g14
S'?\xb6\xf3\xfd\xd4\xa2m@'
p100
tp101
Rp102
ag10
(g14
S'\xf4\xa7\xc6K7\xe5i@'
p103
tp104
Rp105
ag10
(g14
S'!\xdb\xf9~j\xf0j@'
p106
tp107
Rp108
ag10
(g14
S',\x89A`\xe5\xd8i@'
p109
tp110
Rp111
ag10
(g14
S'b\xbct\x93\x18vh@'
p112
tp113
Rp114
ag10
(g14
S'\xf8\xa7\xc6K7\xc9g@'
p115
tp116
Rp117
ag10
(g14
S'\xebz\x14\xaeG]f@'
p118
tp119
Rp120
ag10
(g14
S'\xc9\xf7S\xe3\xa5}f@'
p121
tp122
Rp123
ag10
(g14
S'\xf7~j\xbct\xe5e@'
p124
tp125
Rp126
ag10
(g14
S'\n\x83\xc0\xca\xa1ii@'
p127
tp128
Rp129
ag10
(g14
S'\x11X9\xb4\xc8\x86h@'
p130
tp131
Rp132
ag10
(g14
S'u\x93\x18\x04V\x02h@'
p133
tp134
Rp135
ag10
(g14
S'\xa0\x1a/\xdd$Nh@'
p136
tp137
Rp138
asssss.