(dp0
S'../Data/sqlite_31.csv'
p1
(dp2
S'../Data/sqlite_90.csv'
p3
(dp4
F0.2
(dp5
S'mmre'
p6
(dp7
S'bellwether'
p8
(lp9
cnumpy.core.multiarray
scalar
p10
(cnumpy
dtype
p11
(S'f8'
p12
I0
I1
tp13
Rp14
(I3
S'<'
p15
NNNI-1
I-1
I0
tp16
bS'\nY\x17\xc3\xcb`V@'
p17
tp18
Rp19
ag10
(g14
S'\x90Z\rB\xf4dV@'
p20
tp21
Rp22
ag10
(g14
S'\xe1+\xa4\x94\xfchV@'
p23
tp24
Rp25
ag10
(g14
S'\xe7\x8a\xa3\xf7`VV@'
p26
tp27
Rp28
ag10
(g14
S's\x8csS\xddrV@'
p29
tp30
Rp31
ag10
(g14
S'w4\x05\xdb\xe7bV@'
p32
tp33
Rp34
ag10
(g14
S'U\xae\x06\xddYlV@'
p35
tp36
Rp37
ag10
(g14
S'Wg\xe2\xd1\x1eiV@'
p38
tp39
Rp40
ag10
(g14
S'7\xf0?\x00\x9caV@'
p41
tp42
Rp43
ag10
(g14
S'\\\xad\x01n5eV@'
p44
tp45
Rp46
ag10
(g14
S'\x90p\x9c\xb3\xaaoV@'
p47
tp48
Rp49
ag10
(g14
S't\xfc\x0bjLbV@'
p50
tp51
Rp52
ag10
(g14
S'Bv\xcf\xc8\xdebV@'
p53
tp54
Rp55
ag10
(g14
S'\x05d\xd7\xe1\xe0bV@'
p56
tp57
Rp58
ag10
(g14
S'\xfa\x81H](hV@'
p59
tp60
Rp61
ag10
(g14
S'\xe4`\xf7\xe92jV@'
p62
tp63
Rp64
ag10
(g14
S'@\xcbE\xe7\xc5tV@'
p65
tp66
Rp67
ag10
(g14
S'I]\xfa\xb4\x98aV@'
p68
tp69
Rp70
ag10
(g14
S'\xa1\xfd\x9a\x8c*aV@'
p71
tp72
Rp73
ag10
(g14
S'q\\e\xab\x16fV@'
p74
tp75
Rp76
asS'target'
p77
(lp78
g10
(g14
S't\xaedW\x0f\x82A@'
p79
tp80
Rp81
ag10
(g14
S'$\xb3p\x81\x81\x9fB@'
p82
tp83
Rp84
ag10
(g14
S'v\xaf"#W\xb2A@'
p85
tp86
Rp87
ag10
(g14
S'\x82\x81\x15\x1a\x17\xe6A@'
p88
tp89
Rp90
ag10
(g14
S'8\x87\xce\x9f\\\x9f@@'
p91
tp92
Rp93
ag10
(g14
S'\xb2Z\x1b\xee\xb4NA@'
p94
tp95
Rp96
ag10
(g14
S'>\xd8\x84d\xf0\xffA@'
p97
tp98
Rp99
ag10
(g14
S'2\xdcq@\xb7/A@'
p100
tp101
Rp102
ag10
(g14
S'\x87_\xc8{\xc2eA@'
p103
tp104
Rp105
ag10
(g14
S'dk\xdd\xac}\x97>@'
p106
tp107
Rp108
ag10
(g14
S'B/\x83\xe2B(A@'
p109
tp110
Rp111
ag10
(g14
S'\x80\x88F\xe30\xa6?@'
p112
tp113
Rp114
ag10
(g14
S'\x98\xa2\xd7\xd7\xb7\xe3A@'
p115
tp116
Rp117
ag10
(g14
S'2\xf4z[\x0e\x81A@'
p118
tp119
Rp120
ag10
(g14
S'\xca\x13!/tKA@'
p121
tp122
Rp123
ag10
(g14
S'\x9cSu&[Q?@'
p124
tp125
Rp126
ag10
(g14
S'#E\xc6\xcd\x0b6B@'
p127
tp128
Rp129
ag10
(g14
S'\x8b\xc0#\xd7\xcf\xe8@@'
p130
tp131
Rp132
ag10
(g14
S'$u,\xddx\xccA@'
p133
tp134
Rp135
ag10
(g14
S'\xa0\xb0\x92!\xd2dA@'
p136
tp137
Rp138
asssss.