(dp0
S'../Data/sqlite_2.csv'
p1
(dp2
S'../Data/sqlite_97.csv'
p3
(dp4
F0.3
(dp5
S'mmre'
p6
(dp7
S'bellwether'
p8
(lp9
cnumpy.core.multiarray
scalar
p10
(cnumpy
dtype
p11
(S'f8'
p12
I0
I1
tp13
Rp14
(I3
S'<'
p15
NNNI-1
I-1
I0
tp16
bS'\xaa\xcag\x1e\x88|W@'
p17
tp18
Rp19
ag10
(g14
S'9\xe2WN\xd2{W@'
p20
tp21
Rp22
ag10
(g14
S'\xce\xa6\xabe\x1dxW@'
p23
tp24
Rp25
ag10
(g14
S'`\x00\x06\xd0\x8exW@'
p26
tp27
Rp28
ag10
(g14
S'\t\xd0:\xfcr}W@'
p29
tp30
Rp31
ag10
(g14
S'\x8b\xfb.\xfd\xc4\x7fW@'
p32
tp33
Rp34
ag10
(g14
S'\xf9\xec\x14E/zW@'
p35
tp36
Rp37
ag10
(g14
S'l\x16W\x95\xb5yW@'
p38
tp39
Rp40
ag10
(g14
S'\xc5\xd8\x81\x10\xc8uW@'
p41
tp42
Rp43
ag10
(g14
S'\x82\xbc\xf9\xa8\xc5zW@'
p44
tp45
Rp46
ag10
(g14
S'#\x18ZO{{W@'
p47
tp48
Rp49
ag10
(g14
S'%\xff\x1b\xb2\xffyW@'
p50
tp51
Rp52
ag10
(g14
S'\xea\xdc\x9f\xf7j\x7fW@'
p53
tp54
Rp55
ag10
(g14
S'fE\xe0KX{W@'
p56
tp57
Rp58
ag10
(g14
S'\xf10MG\xf8zW@'
p59
tp60
Rp61
ag10
(g14
S'\x10\xd2\xf7\xc9\x90|W@'
p62
tp63
Rp64
ag10
(g14
S't\x99\xdd69|W@'
p65
tp66
Rp67
ag10
(g14
S'\xf9g\xe9FE\x7fW@'
p68
tp69
Rp70
ag10
(g14
S'"\xa3\xb4\x83h~W@'
p71
tp72
Rp73
ag10
(g14
S'<\xc2\x05\x1a`yW@'
p74
tp75
Rp76
asS'target'
p77
(lp78
g10
(g14
S'(\xe3\xec\xb4{\x9cP@'
p79
tp80
Rp81
ag10
(g14
S'Z\x1e\x17\x132\x9eU@'
p82
tp83
Rp84
ag10
(g14
S'\xc3KD\x7f\xe8\x9eR@'
p85
tp86
Rp87
ag10
(g14
S'\x87\x81\xcb\x0bJVR@'
p88
tp89
Rp90
ag10
(g14
S'~\xfc\xb8]E\x9dV@'
p91
tp92
Rp93
ag10
(g14
S'Oo dXTP@'
p94
tp95
Rp96
ag10
(g14
S'\x1fl*l8\xf3R@'
p97
tp98
Rp99
ag10
(g14
S'\xa7\xb4^FW\xadR@'
p100
tp101
Rp102
ag10
(g14
S'\x9e\xd9s\xb9\xb3\xd5V@'
p103
tp104
Rp105
ag10
(g14
S'\xedn\xbf\x1ek#R@'
p106
tp107
Rp108
ag10
(g14
S'\x14d\xe7\xd4T\xebV@'
p109
tp110
Rp111
ag10
(g14
S'\x8a\xdb\x00-d+R@'
p112
tp113
Rp114
ag10
(g14
S'J\x07I]*xQ@'
p115
tp116
Rp117
ag10
(g14
S'\xd0m\x91*tXS@'
p118
tp119
Rp120
ag10
(g14
S'\x9d\x85\xa4\xd6\xaa7U@'
p121
tp122
Rp123
ag10
(g14
S'\x94\nal-wT@'
p124
tp125
Rp126
ag10
(g14
S'\xe1\xaa\xd9\xdd\xb9dW@'
p127
tp128
Rp129
ag10
(g14
S".'\x18 \xb9\x06J@"
p130
tp131
Rp132
ag10
(g14
S'3\xd4\xbcB\x94\xf4S@'
p133
tp134
Rp135
ag10
(g14
S'b\x01\xcd\x95\n1X@'
p136
tp137
Rp138
asssss.