(dp0
S'../Data/sqlite_4.csv'
p1
(dp2
S'../Data/sqlite_28.csv'
p3
(dp4
F0.4
(dp5
S'abs_res'
p6
(dp7
S'bellwether'
p8
(lp9
cnumpy.core.multiarray
scalar
p10
(cnumpy
dtype
p11
(S'f8'
p12
I0
I1
tp13
Rp14
(I3
S'<'
p15
NNNI-1
I-1
I0
tp16
bS'6&x\x10P`7A'
p17
tp18
Rp19
ag10
(g14
S']\xad\x8e\x89\xc0^7A'
p20
tp21
Rp22
ag10
(g14
S'W9\xb4(j_7A'
p23
tp24
Rp25
ag10
(g14
S'\xeamY\xabg^7A'
p26
tp27
Rp28
ag10
(g14
S'\xb8\x1e\x85k/`7A'
p29
tp30
Rp31
ag10
(g14
S'\xcc"\xdb\xb9=_7A'
p32
tp33
Rp34
ag10
(g14
S'\xb9\x11\xcaH\xe6_7A'
p35
tp36
Rp37
ag10
(g14
S'y\xa2\xfe\xed{\\7A'
p38
tp39
Rp40
ag10
(g14
S'\nISJ3`7A'
p41
tp42
Rp43
ag10
(g14
S'i\xcbZ\x1dj_7A'
p44
tp45
Rp46
ag10
(g14
S'x\xa2\xfe\xedIa7A'
p47
tp48
Rp49
ag10
(g14
S'n\xbe\x9f:\xe4a7A'
p50
tp51
Rp52
ag10
(g14
S'\x7f[\xd6\xea\x17^7A'
p53
tp54
Rp55
ag10
(g14
S'\xd6\x96\xb5\x9a\xa6_7A'
p56
tp57
Rp58
ag10
(g14
S'FS*\xcen^7A'
p59
tp60
Rp61
ag10
(g14
S'\xf2Q\xb8^\x15^7A'
p62
tp63
Rp64
ag10
(g14
S'\x93_,\x99X^7A'
p65
tp66
Rp67
ag10
(g14
S'^,\xf9%7^7A'
p68
tp69
Rp70
ag10
(g14
S'75^\xdas^7A'
p71
tp72
Rp73
ag10
(g14
S'\xa8\x7f#\x94\xb3^7A'
p74
tp75
Rp76
asS'target'
p77
(lp78
g10
(g14
S'\xb3\xf3\xfd\xd4x\xb5Y@'
p79
tp80
Rp81
ag10
(g14
S'?\x8bl\xe7\xfbYZ@'
p82
tp83
Rp84
ag10
(g14
S'\xbe\x1e\x85\xebQ|Y@'
p85
tp86
Rp87
ag10
(g14
S'\x8el\xe7\xfb\xa9\xb9Z@'
p88
tp89
Rp90
ag10
(g14
S'\x99\x99\x99\x99\x99\xa1Y@'
p91
tp92
Rp93
ag10
(g14
S':\xdfO\x8d\x97^\\@'
p94
tp95
Rp96
ag10
(g14
S'\x1a\xd9\xce\xf7S\xebX@'
p97
tp98
Rp99
ag10
(g14
S'\x9c\x99\x99\x99\x99yZ@'
p100
tp101
Rp102
ag10
(g14
S'{\x93\x18\x04V\xd2X@'
p103
tp104
Rp105
ag10
(g14
S'$Zd;\xdf\xbfX@'
p106
tp107
Rp108
ag10
(g14
S"rh\x91\xed|'Y@"
p109
tp110
Rp111
ag10
(g14
S'C`\xe5\xd0"\xeb[@'
p112
tp113
Rp114
ag10
(g14
S'=5^\xbaIHY@'
p115
tp116
Rp117
ag10
(g14
S"\xfe\xab\x1cZd'X@"
p118
tp119
Rp120
ag10
(g14
S'u\x93\x18\x04V*W@'
p121
tp122
Rp123
ag10
(g14
S'r=\n\xd7\xa3hW@'
p124
tp125
Rp126
ag10
(g14
S'\x10\x83\xc0\xca\xa1\x19Z@'
p127
tp128
Rp129
ag10
(g14
S'1\xdd$\x06\x81\xd1W@'
p130
tp131
Rp132
ag10
(g14
S'\xe0x\xe9&1\x0c\\@'
p133
tp134
Rp135
ag10
(g14
S'Zd;\xdfO\xc5X@'
p136
tp137
Rp138
asssss.