(dp0
S'../Data/sqlite_23.csv'
p1
(dp2
S'../Data/sqlite_97.csv'
p3
(dp4
F0.35
(dp5
S'mmre'
p6
(dp7
S'bellwether'
p8
(lp9
cnumpy.core.multiarray
scalar
p10
(cnumpy
dtype
p11
(S'f8'
p12
I0
I1
tp13
Rp14
(I3
S'<'
p15
NNNI-1
I-1
I0
tp16
bS'9\xb0\xd7\xf4|?X@'
p17
tp18
Rp19
ag10
(g14
S'\xaa}v\xf5`AX@'
p20
tp21
Rp22
ag10
(g14
S'%ut\xfb.AX@'
p23
tp24
Rp25
ag10
(g14
S'{\x93\x82(\t>X@'
p26
tp27
Rp28
ag10
(g14
S'p\xe8&\xb08@X@'
p29
tp30
Rp31
ag10
(g14
S'\xca\xc2\x08\xa4g=X@'
p32
tp33
Rp34
ag10
(g14
S'\x0b\xecs\x9a\xc0=X@'
p35
tp36
Rp37
ag10
(g14
S'\xfc\xf0\x03\xe3\xd1>X@'
p38
tp39
Rp40
ag10
(g14
S'vV\xb2\x9d\xa2>X@'
p41
tp42
Rp43
ag10
(g14
S'\xe8\xfe8\xd7C@X@'
p44
tp45
Rp46
ag10
(g14
S'\xa3\x0b\xa7\xfe\xbf?X@'
p47
tp48
Rp49
ag10
(g14
S'\xfe\xc3\xb5\xd9\xf4=X@'
p50
tp51
Rp52
ag10
(g14
S'\x8f\xfd&\x91\xe9=X@'
p53
tp54
Rp55
ag10
(g14
S'\x8c\x13\xe9\x15\xbe?X@'
p56
tp57
Rp58
ag10
(g14
S'\xaeO=s\xfb?X@'
p59
tp60
Rp61
ag10
(g14
S'\x8a\\\x8f\x06<>X@'
p62
tp63
Rp64
ag10
(g14
S'_\x8d\xe46\xcc=X@'
p65
tp66
Rp67
ag10
(g14
S'eL\\`\x93?X@'
p68
tp69
Rp70
ag10
(g14
S'\x16G\xeb-\xde@X@'
p71
tp72
Rp73
ag10
(g14
S'\xac\xe5\xe1\x03\xf3=X@'
p74
tp75
Rp76
asS'target'
p77
(lp78
g10
(g14
S'\x06J\x19e\x8aeR@'
p79
tp80
Rp81
ag10
(g14
S'{p\x7fk\xce\xfeR@'
p82
tp83
Rp84
ag10
(g14
S'\x19W\xe9\xe9\x14\x0eR@'
p85
tp86
Rp87
ag10
(g14
S'L\xceu\x1aY\xbcR@'
p88
tp89
Rp90
ag10
(g14
S'\x9a$\x93\xcca\xceU@'
p91
tp92
Rp93
ag10
(g14
S'\x13u#\x1fXn]@'
p94
tp95
Rp96
ag10
(g14
S'\x90J\x840\xb2\x9cO@'
p97
tp98
Rp99
ag10
(g14
S'\x9a\x8fK\xa07;Q@'
p100
tp101
Rp102
ag10
(g14
S'\xc1kN\xd8\xbe\x0fT@'
p103
tp104
Rp105
ag10
(g14
S'\xe0\xb0\xae2\xe4\x98V@'
p106
tp107
Rp108
ag10
(g14
S'e-W\xba\x06]V@'
p109
tp110
Rp111
ag10
(g14
S'8.O\xb7\xab\x1eW@'
p112
tp113
Rp114
ag10
(g14
S'6u\x0c\xa1\x08\x8cV@'
p115
tp116
Rp117
ag10
(g14
S'J9\x8b&\xac\xdbU@'
p118
tp119
Rp120
ag10
(g14
S'\xc0?3\n\xfd]R@'
p121
tp122
Rp123
ag10
(g14
S'\x89\xc0\xd4`@xQ@'
p124
tp125
Rp126
ag10
(g14
S'\xb6\xc5\xc9\x13\x88\xe5Q@'
p127
tp128
Rp129
ag10
(g14
S'{E\xd6\tvbU@'
p130
tp131
Rp132
ag10
(g14
S'\x1b\xb2\x9d\x1e}JQ@'
p133
tp134
Rp135
ag10
(g14
S'eu\x82\xf0\xb1\xa3W@'
p136
tp137
Rp138
asssss.