(dp0
S'../Data/sqlite_60.csv'
p1
(dp2
S'../Data/sqlite_50.csv'
p3
(dp4
F0.15
(dp5
S'abs_res'
p6
(dp7
S'bellwether'
p8
(lp9
cnumpy.core.multiarray
scalar
p10
(cnumpy
dtype
p11
(S'f8'
p12
I0
I1
tp13
Rp14
(I3
S'<'
p15
NNNI-1
I-1
I0
tp16
bS'Td;_\xc3/hA'
p17
tp18
Rp19
ag10
(g14
S'\x99C\x8b\x00\xa6@hA'
p20
tp21
Rp22
ag10
(g14
S'vuL\xa8e3hA'
p23
tp24
Rp25
ag10
(g14
S'\xd51\xc1\xc3\x875hA'
p26
tp27
Rp28
ag10
(g14
S'\xa9)\x15\xa3\xe30hA'
p29
tp30
Rp31
ag10
(g14
S'\x0f\x90{%01hA'
p32
tp33
Rp34
ag10
(g14
S'\x8a\xebQ\x8035hA'
p35
tp36
Rp37
ag10
(g14
S'\xd8\xcc\xcc\x9c\xc40hA'
p38
tp39
Rp40
ag10
(g14
S'(1\x08\x10\x0b/hA'
p41
tp42
Rp43
ag10
(g14
S'\xf1&1d\xaf/hA'
p44
tp45
Rp46
ag10
(g14
S'\xe9&1\xcc=0hA'
p47
tp48
Rp49
ag10
(g14
S'G\xe1z@\x1f;hA'
p50
tp51
Rp52
ag10
(g14
S'\xdd$\x06\xb5\xea0hA'
p53
tp54
Rp55
ag10
(g14
S'[\xe3\xa5;`4hA'
p56
tp57
Rp58
ag10
(g14
S'5\x08\xac\x10\xc64hA'
p59
tp60
Rp61
ag10
(g14
S'B\xdfO\t\xe8;hA'
p62
tp63
Rp64
ag10
(g14
S'\x0f:m\xe8x3hA'
p65
tp66
Rp67
ag10
(g14
S'\x0c\x11\x11\xd1(8hA'
p68
tp69
Rp70
ag10
(g14
S'n\xbaI\x80\xdc5hA'
p71
tp72
Rp73
ag10
(g14
S'\xb7\x1e\x85\x9fV1hA'
p74
tp75
Rp76
asS'target'
p77
(lp78
g10
(g14
S'\x9f\xc6K7\x89\x89Z@'
p79
tp80
Rp81
ag10
(g14
S'X\xb8\x1e\x85\xeb)\\@'
p82
tp83
Rp84
ag10
(g14
S'\x8d\x97n\x12\x83\x08Z@'
p85
tp86
Rp87
ag10
(g14
S'\r\xac\x1cZd;]@'
p88
tp89
Rp90
ag10
(g14
S'\xc6 \xb0rh\xc1\\@'
p91
tp92
Rp93
ag10
(g14
S'\x9d\xed|?5\xc6\\@'
p94
tp95
Rp96
ag10
(g14
S'$\x06\x81\x95C\xb3_@'
p97
tp98
Rp99
ag10
(g14
S'{\x95C\x8bl\xef\\@'
p100
tp101
Rp102
ag10
(g14
S'\x06V\x0e-\xb2\xd5X@'
p103
tp104
Rp105
ag10
(g14
S'\xc8v\xbe\x9f\x1a\xd7[@'
p106
tp107
Rp108
ag10
(g14
S'L5^\xbaI\x8cY@'
p109
tp110
Rp111
ag10
(g14
S'M\xe1z\x14\xaeoZ@'
p112
tp113
Rp114
ag10
(g14
S'\xd9\xa1E\xb6\xf3-[@'
p115
tp116
Rp117
ag10
(g14
S'\xb5G\xe1z\x14\x06[@'
p118
tp119
Rp120
ag10
(g14
S'\xb8\xf1\xd2Mb\x08Y@'
p121
tp122
Rp123
ag10
(g14
S'\n+\x87\x16\xd9\x9eY@'
p124
tp125
Rp126
ag10
(g14
S'>\xb4\xc8v\xbe\x0fY@'
p127
tp128
Rp129
ag10
(g14
S'B\n\xd7\xa3p}]@'
p130
tp131
Rp132
ag10
(g14
S'h\x10X9\xb48\\@'
p133
tp134
Rp135
ag10
(g14
S'\x9dn\x12\x83\xc0jX@'
p136
tp137
Rp138
asssss.