(dp0
S'../Data/sqlite_67.csv'
p1
(dp2
S'../Data/sqlite_50.csv'
p3
(dp4
F0.1
(dp5
S'abs_res'
p6
(dp7
S'bellwether'
p8
(lp9
cnumpy.core.multiarray
scalar
p10
(cnumpy
dtype
p11
(S'f8'
p12
I0
I1
tp13
Rp14
(I3
S'<'
p15
NNNI-1
I-1
I0
tp16
bS'\x1e1\x08\xecQu#A'
p17
tp18
Rp19
ag10
(g14
S'\xd8\x06:-\xe5u#A'
p20
tp21
Rp22
ag10
(g14
S'B\xe1z\x14\xd2u#A'
p23
tp24
Rp25
ag10
(g14
S'\x91{\xcd\x05\x84u#A'
p26
tp27
Rp28
ag10
(g14
S'\xe3\x08e4\xd7u#A'
p29
tp30
Rp31
ag10
(g14
S'\xbe\xca\xa1\x05\x9ev#A'
p32
tp33
Rp34
ag10
(g14
S'\x9dp=\xcaqv#A'
p35
tp36
Rp37
ag10
(g14
S'\\\xe5\xd0b\xb3u#A'
p38
tp39
Rp40
ag10
(g14
S'(\xb2\x9d/\x19u#A'
p41
tp42
Rp43
ag10
(g14
S'E\xee5\xd7\xafu#A'
p44
tp45
Rp46
ag10
(g14
S'\xde\xa3p\xbdpu#A'
p47
tp48
Rp49
ag10
(g14
S'`\xe5\xd0\xa2\x08v#A'
p50
tp51
Rp52
ag10
(g14
S'|?5\xde%u#A'
p53
tp54
Rp55
ag10
(g14
S'\x15\xd9\xce7\xccu#A'
p56
tp57
Rp58
ag10
(g14
S'b;\xdf\xcf\rv#A'
p59
tp60
Rp61
ag10
(g14
S'\x86\xfa7B\xeet#A'
p62
tp63
Rp64
ag10
(g14
S'J\x8d\x97.\x15v#A'
p65
tp66
Rp67
ag10
(g14
S'\xef\xa7\xc6\xcb\xb9u#A'
p68
tp69
Rp70
ag10
(g14
S'\x8c\x97n\x92\x1bv#A'
p71
tp72
Rp73
ag10
(g14
S'Xd;\xdfKv#A'
p74
tp75
Rp76
asS'target'
p77
(lp78
g10
(g14
S'\x9cn\x12\x83\xc0\x82[@'
p79
tp80
Rp81
ag10
(g14
S'\x97A`\xe5\xd0\xd2\\@'
p82
tp83
Rp84
ag10
(g14
S'\x7f\x95C\x8bl\x7f]@'
p85
tp86
Rp87
ag10
(g14
S'\x81\xe9&1\x08\x9c^@'
p88
tp89
Rp90
ag10
(g14
S'qh\x91\xed|G`@'
p91
tp92
Rp93
ag10
(g14
S'21\x08\xac\x1cB\\@'
p94
tp95
Rp96
ag10
(g14
S'U\x0e-\xb2\x9d\x07]@'
p97
tp98
Rp99
ag10
(g14
S'\x1dX9\xb4\xc8\xce[@'
p100
tp101
Rp102
ag10
(g14
S'\xb7rh\x91\xed\x94[@'
p103
tp104
Rp105
ag10
(g14
S'\xe7\xd0"\xdb\xf9~b@'
p106
tp107
Rp108
ag10
(g14
S'\xb1\x1cZd;\xe7]@'
p109
tp110
Rp111
ag10
(g14
S'\xd4Mb\x10X\xa1]@'
p112
tp113
Rp114
ag10
(g14
S'\x1b\xd9\xce\xf7S\xd3Z@'
p115
tp116
Rp117
ag10
(g14
S'\xd4x\xe9&1\xbc`@'
p118
tp119
Rp120
ag10
(g14
S'bd;\xdfO\xed[@'
p121
tp122
Rp123
ag10
(g14
S'\xed\xfd\xd4x\xe9f]@'
p124
tp125
Rp126
ag10
(g14
S'\xabG\xe1z\x14\x02a@'
p127
tp128
Rp129
ag10
(g14
S'\xe1O\x8d\x97nB\\@'
p130
tp131
Rp132
ag10
(g14
S'=\n\xd7\xa3p\x8d\\@'
p133
tp134
Rp135
ag10
(g14
S'\x8a\xbe\x9f\x1a/=^@'
p136
tp137
Rp138
asssss.