(dp0
S'../Data/sqlite_8.csv'
p1
(dp2
S'../Data/sqlite_76.csv'
p3
(dp4
F0.05
(dp5
S'mmre'
p6
(dp7
S'bellwether'
p8
(lp9
cnumpy.core.multiarray
scalar
p10
(cnumpy
dtype
p11
(S'f8'
p12
I0
I1
tp13
Rp14
(I3
S'<'
p15
NNNI-1
I-1
I0
tp16
bS'3\x04\x82\x1f\xceAV@'
p17
tp18
Rp19
ag10
(g14
S'\xdf\xe6(BFBV@'
p20
tp21
Rp22
ag10
(g14
S'bz\x8d\x1b\xf8CV@'
p23
tp24
Rp25
ag10
(g14
S'\x93iV\x0e\x9eCV@'
p26
tp27
Rp28
ag10
(g14
S'Y~\x9d9\xc6@V@'
p29
tp30
Rp31
ag10
(g14
S's )8\x9dDV@'
p32
tp33
Rp34
ag10
(g14
S'\xca\x88(jXBV@'
p35
tp36
Rp37
ag10
(g14
S'\x0c\x0f0i)BV@'
p38
tp39
Rp40
ag10
(g14
S'@>3MJDV@'
p41
tp42
Rp43
ag10
(g14
S'\x98/n\xbb0DV@'
p44
tp45
Rp46
ag10
(g14
S'\x93bH\xac\xbeAV@'
p47
tp48
Rp49
ag10
(g14
S'\xa8\xa8\xfaW\xd0CV@'
p50
tp51
Rp52
ag10
(g14
S'\xd5\xf9\xb3\xafOCV@'
p53
tp54
Rp55
ag10
(g14
S'\x11\xdf+oWCV@'
p56
tp57
Rp58
ag10
(g14
S'\x16\x81\xdftqCV@'
p59
tp60
Rp61
ag10
(g14
S'\xdc\x81\x94F\xddBV@'
p62
tp63
Rp64
ag10
(g14
S',\tf\x1a\xacCV@'
p65
tp66
Rp67
ag10
(g14
S'\x92mr1\xd7CV@'
p68
tp69
Rp70
ag10
(g14
S'\x03\x05\xbe-\x0fBV@'
p71
tp72
Rp73
ag10
(g14
S'\x13[\xe8\xdb8BV@'
p74
tp75
Rp76
asS'target'
p77
(lp78
g10
(g14
S'\x87\xc1\xfc\x86\xf3?3@'
p79
tp80
Rp81
ag10
(g14
S'\xa8\x98M\xb3\x07q2@'
p82
tp83
Rp84
ag10
(g14
S'\xc3Q\xac-6\x91/@'
p85
tp86
Rp87
ag10
(g14
S'M\xecE61\xaa.@'
p88
tp89
Rp90
ag10
(g14
S'\xb2h\n\xd2\xa5+6@'
p91
tp92
Rp93
ag10
(g14
S'\xe0\xc7\xc5\x94\x97R/@'
p94
tp95
Rp96
ag10
(g14
S'\x86{\xfdx\r\x0e3@'
p97
tp98
Rp99
ag10
(g14
S'JL\xc5E\xb4D0@'
p100
tp101
Rp102
ag10
(g14
S'l\xcd\xe2\xd9O\xc42@'
p103
tp104
Rp105
ag10
(g14
S'\x9f\xc6\x80\xd3Qp/@'
p106
tp107
Rp108
ag10
(g14
S'\x92\x8ca\xe8\x1f\x0b3@'
p109
tp110
Rp111
ag10
(g14
S'\xf1\xf6C\x93\xd8M0@'
p112
tp113
Rp114
ag10
(g14
S'\x1b\x10q==\xb20@'
p115
tp116
Rp117
ag10
(g14
S'\x8b\xa5\xce\xb4\xc6\x911@'
p118
tp119
Rp120
ag10
(g14
S'?\xa1\xe2\x94\xff\xf5/@'
p121
tp122
Rp123
ag10
(g14
S'\xb0\xa6{\xafx;1@'
p124
tp125
Rp126
ag10
(g14
S'\xdd:1\xf7\xf8\x983@'
p127
tp128
Rp129
ag10
(g14
S't\x11\x07#\x1a10@'
p130
tp131
Rp132
ag10
(g14
S'\xf2\xa7\xaf\x161\x1f5@'
p133
tp134
Rp135
ag10
(g14
S'\x10a\xdc\xea\x96\x10/@'
p136
tp137
Rp138
asssss.