(dp0
S'../Data/sqlite_23.csv'
p1
(dp2
S'../Data/sqlite_89.csv'
p3
(dp4
F0.35
(dp5
S'mmre'
p6
(dp7
S'bellwether'
p8
(lp9
cnumpy.core.multiarray
scalar
p10
(cnumpy
dtype
p11
(S'f8'
p12
I0
I1
tp13
Rp14
(I3
S'<'
p15
NNNI-1
I-1
I0
tp16
bS'^\x16<\x90[lV@'
p17
tp18
Rp19
ag10
(g14
S'\x9ekQ\xc5D_V@'
p20
tp21
Rp22
ag10
(g14
S'\xcf/f\x9a\xe9hV@'
p23
tp24
Rp25
ag10
(g14
S'\xa0O\n\xd7~gV@'
p26
tp27
Rp28
ag10
(g14
S'\x1a\xcf\x1db\xbc]V@'
p29
tp30
Rp31
ag10
(g14
S'\x14\xe4\x97\x9a"gV@'
p32
tp33
Rp34
ag10
(g14
S'\xdf\xf7k\x83\xadhV@'
p35
tp36
Rp37
ag10
(g14
S'P\xad\x16J\x92[V@'
p38
tp39
Rp40
ag10
(g14
S'\x99\xc7\xdb\x9aT`V@'
p41
tp42
Rp43
ag10
(g14
S'\x8cu,\xe0\xa9]V@'
p44
tp45
Rp46
ag10
(g14
S'\x19\xc2@\xa6\x84lV@'
p47
tp48
Rp49
ag10
(g14
S"y\xeb'u_fV@"
p50
tp51
Rp52
ag10
(g14
S'7\xc1\x92z\x19dV@'
p53
tp54
Rp55
ag10
(g14
S'Y\x8b\xf9\xdc\x9ehV@'
p56
tp57
Rp58
ag10
(g14
S'\x89\x9e`Z\xcejV@'
p59
tp60
Rp61
ag10
(g14
S'V\xcb\xd63\xdfcV@'
p62
tp63
Rp64
ag10
(g14
S"'\x03\x1d\x1a\x18fV@"
p65
tp66
Rp67
ag10
(g14
S'\x9b(\n@\xfbiV@'
p68
tp69
Rp70
ag10
(g14
S'\x08L\xb1\xbd\xb2ZV@'
p71
tp72
Rp73
ag10
(g14
S'\xbdL\x18\xe1{cV@'
p74
tp75
Rp76
asS'target'
p77
(lp78
g10
(g14
S'2E\x99\x92\x13dT@'
p79
tp80
Rp81
ag10
(g14
S'I\x8fJ\x90\xf9\xbcS@'
p82
tp83
Rp84
ag10
(g14
S'\r\xcb\xeb\x8f\x9a#R@'
p85
tp86
Rp87
ag10
(g14
S'S\xa4oB\xdamS@'
p88
tp89
Rp90
ag10
(g14
S'\x0b\x1aB\x14q\xc6S@'
p91
tp92
Rp93
ag10
(g14
S'\xd6\xa7\xc3\xaf@\nR@'
p94
tp95
Rp96
ag10
(g14
S'lJ\xcf\x02\xb0*Q@'
p97
tp98
Rp99
ag10
(g14
S'\x0f\x01v\x01\xf2\xf0Q@'
p100
tp101
Rp102
ag10
(g14
S'\xa4\x1b\xa6<\x9b\x9cQ@'
p103
tp104
Rp105
ag10
(g14
S'.?P0f\x1eL@'
p106
tp107
Rp108
ag10
(g14
S'\x84g\xe1\t4MQ@'
p109
tp110
Rp111
ag10
(g14
S'\xfa%\xd2\x95/-W@'
p112
tp113
Rp114
ag10
(g14
S"\xf4\x1b'\th:Q@"
p115
tp116
Rp117
ag10
(g14
S'\xebCQ"\x08\x0cR@'
p118
tp119
Rp120
ag10
(g14
S'\x86\xf0\xf5G\x94ZN@'
p121
tp122
Rp123
ag10
(g14
S'8\xcd\x0cR\x95cJ@'
p124
tp125
Rp126
ag10
(g14
S"\xf4\xf87\xf2'\xcaL@"
p127
tp128
Rp129
ag10
(g14
S'j\xf1\xd5T\x14\xf3Q@'
p130
tp131
Rp132
ag10
(g14
S'\xed\xe7\xda58rO@'
p133
tp134
Rp135
ag10
(g14
S'\xa2a#b~\xbfM@'
p136
tp137
Rp138
asssss.