(dp0
S'../Data/sqlite_12.csv'
p1
(dp2
S'../Data/sqlite_18.csv'
p3
(dp4
F0.3
(dp5
S'mmre'
p6
(dp7
S'bellwether'
p8
(lp9
cnumpy.core.multiarray
scalar
p10
(cnumpy
dtype
p11
(S'f8'
p12
I0
I1
tp13
Rp14
(I3
S'<'
p15
NNNI-1
I-1
I0
tp16
bS'wi_LpcX@'
p17
tp18
Rp19
ag10
(g14
S'\x91J\xac\xefJcX@'
p20
tp21
Rp22
ag10
(g14
S'\xa9A\xac\xa4tcX@'
p23
tp24
Rp25
ag10
(g14
S'G \xdbD|cX@'
p26
tp27
Rp28
ag10
(g14
S'\xd5:\xd1\xe9PcX@'
p29
tp30
Rp31
ag10
(g14
S'O\xd6\xa1\xdb\x8bcX@'
p32
tp33
Rp34
ag10
(g14
S'\xf0OZ\x0bOcX@'
p35
tp36
Rp37
ag10
(g14
S'\xa9q=\xc8^cX@'
p38
tp39
Rp40
ag10
(g14
S',E\xa9\x14\x97cX@'
p41
tp42
Rp43
ag10
(g14
S'\xafPa7vcX@'
p44
tp45
Rp46
ag10
(g14
S'\x0b\x17W\xb9bcX@'
p47
tp48
Rp49
ag10
(g14
S'\x01\xa3\xb6\xd6AcX@'
p50
tp51
Rp52
ag10
(g14
S'\x89\n\x04\xf6kcX@'
p53
tp54
Rp55
ag10
(g14
S'i\xdd\x83`WcX@'
p56
tp57
Rp58
ag10
(g14
S'\x95_DctcX@'
p59
tp60
Rp61
ag10
(g14
S'\xc0uE\xfarcX@'
p62
tp63
Rp64
ag10
(g14
S'\x10\xc3\xe69]cX@'
p65
tp66
Rp67
ag10
(g14
S'\x82r<f}cX@'
p68
tp69
Rp70
ag10
(g14
S'\xb5\x94\x9c7ucX@'
p71
tp72
Rp73
ag10
(g14
S"\xe0\xe0X'pcX@"
p74
tp75
Rp76
asS'target'
p77
(lp78
g10
(g14
S')!\x9e\x898W\xec?'
p79
tp80
Rp81
ag10
(g14
S'\x1b\x0e\x02\x18*W\xeb?'
p82
tp83
Rp84
ag10
(g14
S'di7\xb9S\xd3\xea?'
p85
tp86
Rp87
ag10
(g14
S'}\xa32@RV\xec?'
p88
tp89
Rp90
ag10
(g14
S'!\x86\xa6\xc5\xd6F\xed?'
p91
tp92
Rp93
ag10
(g14
S'\x82\xf4\xc4\x0bS\xde\xeb?'
p94
tp95
Rp96
ag10
(g14
S'\xb3W?\\\x8c(\xec?'
p97
tp98
Rp99
ag10
(g14
S'\xce\xe1(\x9f\xb1\xa4\xeb?'
p100
tp101
Rp102
ag10
(g14
S"V~\x8d\xb1\xae'\xed?"
p103
tp104
Rp105
ag10
(g14
S'\xaeW\xbfO\xbe|\xea?'
p106
tp107
Rp108
ag10
(g14
S'KlB\xdf~H\xec?'
p109
tp110
Rp111
ag10
(g14
S"'_\xab\xba\x92\xa5\xeb?"
p112
tp113
Rp114
ag10
(g14
S'b\xd2\x88\x0fV\x97\xeb?'
p115
tp116
Rp117
ag10
(g14
S'\x8fi\xce<C3\xed?'
p118
tp119
Rp120
ag10
(g14
S'\x861w\x9f\xbe\x94\xeb?'
p121
tp122
Rp123
ag10
(g14
S'\x02Ao\xe9\xf2\xf8\xea?'
p124
tp125
Rp126
ag10
(g14
S'\xba+<~v\xd5\xea?'
p127
tp128
Rp129
ag10
(g14
S'\x193Y-\xf5;\xec?'
p130
tp131
Rp132
ag10
(g14
S'\xac\xced\x1f\xc2\xbf\xec?'
p133
tp134
Rp135
ag10
(g14
S'\xb6\xa9 \xdd\x1fX\xee?'
p136
tp137
Rp138
asssss.