(dp0
S'../Data/sqlite_35.csv'
p1
(dp2
S'../Data/sqlite_90.csv'
p3
(dp4
F0.4
(dp5
S'mmre'
p6
(dp7
S'bellwether'
p8
(lp9
cnumpy.core.multiarray
scalar
p10
(cnumpy
dtype
p11
(S'f8'
p12
I0
I1
tp13
Rp14
(I3
S'<'
p15
NNNI-1
I-1
I0
tp16
bS'\x0bq\x81\xc7\x9dWV@'
p17
tp18
Rp19
ag10
(g14
S'\xb8h\x8e\xd0aIV@'
p20
tp21
Rp22
ag10
(g14
S'"\xbb<\xf5\xa8qV@'
p23
tp24
Rp25
ag10
(g14
S'\x07\xbd\xc41\x9cWV@'
p26
tp27
Rp28
ag10
(g14
S'X\x9b\x85!$SV@'
p29
tp30
Rp31
ag10
(g14
S'\x12"l\x08)RV@'
p32
tp33
Rp34
ag10
(g14
S'`\xaf]\xe3\xf0^V@'
p35
tp36
Rp37
ag10
(g14
S'pg%\xb3\xc7]V@'
p38
tp39
Rp40
ag10
(g14
S'J\x9c\xe68\xa2]V@'
p41
tp42
Rp43
ag10
(g14
S'9\xed\xdai\x02`V@'
p44
tp45
Rp46
ag10
(g14
S'\xca\xce\xe7\xe22RV@'
p47
tp48
Rp49
ag10
(g14
S'x2Ha\xfdSV@'
p50
tp51
Rp52
ag10
(g14
S'5\xb0P\xc7\xf2MV@'
p53
tp54
Rp55
ag10
(g14
S'\x92\xdfSS>=V@'
p56
tp57
Rp58
ag10
(g14
S'\xf3\x08#(\xd7wV@'
p59
tp60
Rp61
ag10
(g14
S'=\x05E\xe7)VV@'
p62
tp63
Rp64
ag10
(g14
S'\x13(\x9b\xe74`V@'
p65
tp66
Rp67
ag10
(g14
S'\xc5\x9a\xba)vMV@'
p68
tp69
Rp70
ag10
(g14
S'RU7\xb2S]V@'
p71
tp72
Rp73
ag10
(g14
S'\x0f\xbcE\xf3RLV@'
p74
tp75
Rp76
asS'target'
p77
(lp78
g10
(g14
S'\xc6\t\xc0g\x07\x00@@'
p79
tp80
Rp81
ag10
(g14
S'\xc0+\xe8\xd1\x8f\xca@@'
p82
tp83
Rp84
ag10
(g14
S'\x9f\xdc\xc6n\xa1r?@'
p85
tp86
Rp87
ag10
(g14
S'V\xd2p\xaa\xed\xf9@@'
p88
tp89
Rp90
ag10
(g14
S'\xd7\xaa\n\xe7\\3B@'
p91
tp92
Rp93
ag10
(g14
S'\xb0P\xf1\xabv\x8bA@'
p94
tp95
Rp96
ag10
(g14
S'~$\xf0`\x17\xc3A@'
p97
tp98
Rp99
ag10
(g14
S'\xd7AI\xf0\xe3=B@'
p100
tp101
Rp102
ag10
(g14
S'I\xc6\xd5\x95\xe2\x92A@'
p103
tp104
Rp105
ag10
(g14
S'\xac)*\xed\xb6\xb0@@'
p106
tp107
Rp108
ag10
(g14
S'\xb8\xb6\xbe\x02\tn@@'
p109
tp110
Rp111
ag10
(g14
S'I\xf3\xd3H\xc3GC@'
p112
tp113
Rp114
ag10
(g14
S'\xe5\r\x06\x13s\xf8A@'
p115
tp116
Rp117
ag10
(g14
S'hF\xfd\x82\x9a\x04B@'
p118
tp119
Rp120
ag10
(g14
S'\xf0\x05\x00\xd1#;>@'
p121
tp122
Rp123
ag10
(g14
S'\xb0\x12o\x82\x8f1@@'
p124
tp125
Rp126
ag10
(g14
S'e\xb0d\xad\x1akA@'
p127
tp128
Rp129
ag10
(g14
S'\x15U~sW*A@'
p130
tp131
Rp132
ag10
(g14
S'3|\xdf\x14@\x90@@'
p133
tp134
Rp135
ag10
(g14
S'\x88\x9dX\x96\x9f6B@'
p136
tp137
Rp138
asssss.