(dp0
S'../Data/sqlite_19.csv'
p1
(dp2
S'../Data/sqlite_96.csv'
p3
(dp4
F0.2
(dp5
S'mmre'
p6
(dp7
S'bellwether'
p8
(lp9
cnumpy.core.multiarray
scalar
p10
(cnumpy
dtype
p11
(S'f8'
p12
I0
I1
tp13
Rp14
(I3
S'<'
p15
NNNI-1
I-1
I0
tp16
bS'\xc4+khl\x1fT@'
p17
tp18
Rp19
ag10
(g14
S'\xf8=\xe4\x19E\x1bT@'
p20
tp21
Rp22
ag10
(g14
S'\x12B\x84^..T@'
p23
tp24
Rp25
ag10
(g14
S"7\xf7\x95\x8a\xdd'T@"
p26
tp27
Rp28
ag10
(g14
S'"\xc8K\xf6\xe9\'T@'
p29
tp30
Rp31
ag10
(g14
S'4)E\xf1\xf4 T@'
p32
tp33
Rp34
ag10
(g14
S"p\xe4\xe1-\xcd'T@"
p35
tp36
Rp37
ag10
(g14
S'\x1e\xcb\xbe\x05=+T@'
p38
tp39
Rp40
ag10
(g14
S'\xf6Y\x97z\xb9\x1dT@'
p41
tp42
Rp43
ag10
(g14
S'JD\xf7\\\xc1!T@'
p44
tp45
Rp46
ag10
(g14
S'\x8a\xe4Gc@$T@'
p47
tp48
Rp49
ag10
(g14
S'\xf8{\xd4\xf5z(T@'
p50
tp51
Rp52
ag10
(g14
S'LDB:\x99\x1dT@'
p53
tp54
Rp55
ag10
(g14
S'^E2\x91\xaf T@'
p56
tp57
Rp58
ag10
(g14
S'\x02_\x16\x90\xd2#T@'
p59
tp60
Rp61
ag10
(g14
S'\t(\x05\xde\xea)T@'
p62
tp63
Rp64
ag10
(g14
S'\xe1\x8a\x91\x99_$T@'
p65
tp66
Rp67
ag10
(g14
S'X\xa6O\xba\xaa\x17T@'
p68
tp69
Rp70
ag10
(g14
S'\xd1tH}\xda\x1bT@'
p71
tp72
Rp73
ag10
(g14
S'@\xed\x14\x95O\x1eT@'
p74
tp75
Rp76
asS'target'
p77
(lp78
g10
(g14
S'}#\xee\x1c\x11\x1aW@'
p79
tp80
Rp81
ag10
(g14
S'\x83s\xb7Y=?X@'
p82
tp83
Rp84
ag10
(g14
S'\xb6\x00\xf8hMXC@'
p85
tp86
Rp87
ag10
(g14
S'\xf3\xef07\x93\x9fN@'
p88
tp89
Rp90
ag10
(g14
S'E\xc0\xe6 qcE@'
p91
tp92
Rp93
ag10
(g14
S'\x92yl\xb7\x8b\x13_@'
p94
tp95
Rp96
ag10
(g14
S'Tr- \xd3\xa9S@'
p97
tp98
Rp99
ag10
(g14
S'\xb1D\xbe\x1b\x1f\x88C@'
p100
tp101
Rp102
ag10
(g14
S'`\xf2a\xf2#\xd8X@'
p103
tp104
Rp105
ag10
(g14
S'<\x875\xe0P(V@'
p106
tp107
Rp108
ag10
(g14
S'\xba\xaa\xc0\xd1b\xe8I@'
p109
tp110
Rp111
ag10
(g14
S'S\xb2\xbbe\x86sQ@'
p112
tp113
Rp114
ag10
(g14
S'\xaa\x8f\xeb\x1b\xaatT@'
p115
tp116
Rp117
ag10
(g14
S'\xf8\x83\r\x94-,S@'
p118
tp119
Rp120
ag10
(g14
S'\xd2sX\x0b\x93\rW@'
p121
tp122
Rp123
ag10
(g14
S'\xaae\x81V\x99\x1fQ@'
p124
tp125
Rp126
ag10
(g14
S'\x98\x1fX\xff}\xc6P@'
p127
tp128
Rp129
ag10
(g14
S'\xb0\x9aW\xc1F\xcbT@'
p130
tp131
Rp132
ag10
(g14
S'\xe2^\xe6\xb0\xe0SY@'
p133
tp134
Rp135
ag10
(g14
S'\xd9\xe0\xa4OT\x1eL@'
p136
tp137
Rp138
asssss.