(dp0
S'../Data/sqlite_28.csv'
p1
(dp2
S'../Data/sqlite_59.csv'
p3
(dp4
F0.2
(dp5
S'mmre'
p6
(dp7
S'bellwether'
p8
(lp9
cnumpy.core.multiarray
scalar
p10
(cnumpy
dtype
p11
(S'f8'
p12
I0
I1
tp13
Rp14
(I3
S'<'
p15
NNNI-1
I-1
I0
tp16
bS'-\xe1\xd7\xb8\x10\rQ@'
p17
tp18
Rp19
ag10
(g14
S'\xb2:i;\xcb\x15Q@'
p20
tp21
Rp22
ag10
(g14
S'FT\xf3\x1d\x07\x10Q@'
p23
tp24
Rp25
ag10
(g14
S'\x01\xc9\x05lW\x11Q@'
p26
tp27
Rp28
ag10
(g14
S' -\x07v\xc8\x13Q@'
p29
tp30
Rp31
ag10
(g14
S'&d\x90@\x1c\rQ@'
p32
tp33
Rp34
ag10
(g14
S'\x86\x17\x83\xd8\xa3\x10Q@'
p35
tp36
Rp37
ag10
(g14
S'\xe9\xfb.\xd8\xea\nQ@'
p38
tp39
Rp40
ag10
(g14
S'\x8f\rk\xcb\xdf\rQ@'
p41
tp42
Rp43
ag10
(g14
S'\xa1av\xb6\xa7\rQ@'
p44
tp45
Rp46
ag10
(g14
S'\xafC\xd8\x0eK\x12Q@'
p47
tp48
Rp49
ag10
(g14
S'\xa7\xe8\x1b\x9c\\\x0cQ@'
p50
tp51
Rp52
ag10
(g14
S'\xf2\xb2 \x82\xda\x10Q@'
p53
tp54
Rp55
ag10
(g14
S'j@\x16\x0eu\x0bQ@'
p56
tp57
Rp58
ag10
(g14
S"\xf3\xae'#`\x11Q@"
p59
tp60
Rp61
ag10
(g14
S':\xfc$\xfcy\x0eQ@'
p62
tp63
Rp64
ag10
(g14
S'\xfb}v,\xaa\nQ@'
p65
tp66
Rp67
ag10
(g14
S'-*\xb2E\x08\x0bQ@'
p68
tp69
Rp70
ag10
(g14
S'\x9e\xa5Cup\x0cQ@'
p71
tp72
Rp73
ag10
(g14
S'\xbc\ng\xf2\x9c\x13Q@'
p74
tp75
Rp76
asS'target'
p77
(lp78
g10
(g14
S'CtB6 |%@'
p79
tp80
Rp81
ag10
(g14
S'\x0e\xcd\xb0\xdd\x86w%@'
p82
tp83
Rp84
ag10
(g14
S'`;\xc7X\xab\xa4&@'
p85
tp86
Rp87
ag10
(g14
S'N\x9b\xbd\xad\x85#%@'
p88
tp89
Rp90
ag10
(g14
S'\xacG_\x18*r$@'
p91
tp92
Rp93
ag10
(g14
S"U-_\xac\x08\xad'@"
p94
tp95
Rp96
ag10
(g14
S'\xbe\xe4%9V\x93%@'
p97
tp98
Rp99
ag10
(g14
S"{F>\xfb{\xc5'@"
p100
tp101
Rp102
ag10
(g14
S'\xbe<\t\x02\xd1c&@'
p103
tp104
Rp105
ag10
(g14
S'\xda^\x92\xd9\xa3\xf8$@'
p106
tp107
Rp108
ag10
(g14
S'W\xa8\xa1\x8d\x91L%@'
p109
tp110
Rp111
ag10
(g14
S'\x827\x19XR\xf9&@'
p112
tp113
Rp114
ag10
(g14
S'\x8c\xb9\x942\\\x88$@'
p115
tp116
Rp117
ag10
(g14
S'\x14\xd2\x0b\x856\xe3&@'
p118
tp119
Rp120
ag10
(g14
S'}\xc7PL>\xff#@'
p121
tp122
Rp123
ag10
(g14
S'\xf7\xed#%VL$@'
p124
tp125
Rp126
ag10
(g14
S"s\x82\x9a\xebk\xdc'@"
p127
tp128
Rp129
ag10
(g14
S"\x8cP/\xd2X\xb5'@"
p130
tp131
Rp132
ag10
(g14
S'0\xdaNt\n\x02&@'
p133
tp134
Rp135
ag10
(g14
S'\xb0\x96c1\xb6\xa3$@'
p136
tp137
Rp138
asssss.