(dp0
S'../Data/sqlite_50.csv'
p1
(dp2
S'../Data/sqlite_84.csv'
p3
(dp4
F0.2
(dp5
S'mmre'
p6
(dp7
S'bellwether'
p8
(lp9
cnumpy.core.multiarray
scalar
p10
(cnumpy
dtype
p11
(S'f8'
p12
I0
I1
tp13
Rp14
(I3
S'<'
p15
NNNI-1
I-1
I0
tp16
bS'h\x9c9:/vK@'
p17
tp18
Rp19
ag10
(g14
S"\x18'\xd3\x17\xea\x8bK@"
p20
tp21
Rp22
ag10
(g14
S'j\xa8\x83\x87\x17nK@'
p23
tp24
Rp25
ag10
(g14
S'E\xb2!\xaciZK@'
p26
tp27
Rp28
ag10
(g14
S'@\xcd]W\x89zK@'
p29
tp30
Rp31
ag10
(g14
S'\xbf3C\x95!\xa8K@'
p32
tp33
Rp34
ag10
(g14
S'\xdc\xcd6@\xc9cK@'
p35
tp36
Rp37
ag10
(g14
S'>\xc6\x99\xca\x14pK@'
p38
tp39
Rp40
ag10
(g14
S'\x05~^w\\[K@'
p41
tp42
Rp43
ag10
(g14
S'2X\x91\\\x95fK@'
p44
tp45
Rp46
ag10
(g14
S'F\x99\x08MY\x80K@'
p47
tp48
Rp49
ag10
(g14
S'\x13\xc2_?!]K@'
p50
tp51
Rp52
ag10
(g14
S'\x80.T\x92#WK@'
p53
tp54
Rp55
ag10
(g14
S'\x17\xa0U\xad\x7fAK@'
p56
tp57
Rp58
ag10
(g14
S'\x93!\xd2I\xfbYK@'
p59
tp60
Rp61
ag10
(g14
S'n\xab\xb78\x84tK@'
p62
tp63
Rp64
ag10
(g14
S' \xe7\x8f-\xf6\x8eK@'
p65
tp66
Rp67
ag10
(g14
S'u\xcbU\x06~yK@'
p68
tp69
Rp70
ag10
(g14
S'\x95M\x0f\x86\x06\x9eK@'
p71
tp72
Rp73
ag10
(g14
S't\xe94\x97\x87\xa7K@'
p74
tp75
Rp76
asS'target'
p77
(lp78
g10
(g14
S'\x81\xf5]&\xaa\xeaY@'
p79
tp80
Rp81
ag10
(g14
S'&\x97j\xe9\xdbjR@'
p82
tp83
Rp84
ag10
(g14
S'ya\xe7\xd8\xd5IU@'
p85
tp86
Rp87
ag10
(g14
S'\x94\xaf\xd0\xe7L\xd6M@'
p88
tp89
Rp90
ag10
(g14
S'\x15\xe5V\xa9y\xc1N@'
p91
tp92
Rp93
ag10
(g14
S'\x1ca\xbaV;\xf2S@'
p94
tp95
Rp96
ag10
(g14
S'\x06\xf1\x9a\xf3\x9dnT@'
p97
tp98
Rp99
ag10
(g14
S'z\x83J\xa0\xc9\x00T@'
p100
tp101
Rp102
ag10
(g14
S'}\xd0\x8e\xbe\xeaTR@'
p103
tp104
Rp105
ag10
(g14
S'\xc9*\x01um\x90P@'
p106
tp107
Rp108
ag10
(g14
S'd\xa6)\x03\xe3\x9cQ@'
p109
tp110
Rp111
ag10
(g14
S'E\xac\x95#\xb7\x19M@'
p112
tp113
Rp114
ag10
(g14
S'\x97\x88\x9c\xcfD"R@'
p115
tp116
Rp117
ag10
(g14
S'n\xfb\x84\xd2CBQ@'
p118
tp119
Rp120
ag10
(g14
S'\x1fR\xeb\xc4\xef\xb2P@'
p121
tp122
Rp123
ag10
(g14
S'\x9a\x0ce\x12\x9f|S@'
p124
tp125
Rp126
ag10
(g14
S'6\xe4_x\x9eWN@'
p127
tp128
Rp129
ag10
(g14
S'!0\x0fE\xec\xf2P@'
p130
tp131
Rp132
ag10
(g14
S'\x95(b\x0b\t\xb9J@'
p133
tp134
Rp135
ag10
(g14
S'\x9c3\xd2L\x8a\x00I@'
p136
tp137
Rp138
asssss.