(dp0
S'../Data/sqlite_31.csv'
p1
(dp2
S'../Data/sqlite_86.csv'
p3
(dp4
F0.1
(dp5
S'mmre'
p6
(dp7
S'bellwether'
p8
(lp9
cnumpy.core.multiarray
scalar
p10
(cnumpy
dtype
p11
(S'f8'
p12
I0
I1
tp13
Rp14
(I3
S'<'
p15
NNNI-1
I-1
I0
tp16
bS'\xa3H\xb7\xb2\x8d\\g@'
p17
tp18
Rp19
ag10
(g14
S'2\x8ep`\x0cPg@'
p20
tp21
Rp22
ag10
(g14
S'\x8f\xec\x8a\x8ao\xadg@'
p23
tp24
Rp25
ag10
(g14
S'\xee5\xd5\xc3\xe5Xg@'
p26
tp27
Rp28
ag10
(g14
S'\xb8\x9d\xf2\xa1sng@'
p29
tp30
Rp31
ag10
(g14
S'7\xf3\xed\xebE{g@'
p32
tp33
Rp34
ag10
(g14
S'<Y\x94o\x82vg@'
p35
tp36
Rp37
ag10
(g14
S'1\xa2\xf0\x12\x8e|g@'
p38
tp39
Rp40
ag10
(g14
S'\xd2!DidAg@'
p41
tp42
Rp43
ag10
(g14
S'\x98\x8bQa\xc3\x99g@'
p44
tp45
Rp46
ag10
(g14
S'|j\xd9s\xc3Cg@'
p47
tp48
Rp49
ag10
(g14
S'\x8c_C`%Zg@'
p50
tp51
Rp52
ag10
(g14
S'\xd6W\x84[\xe8Ig@'
p53
tp54
Rp55
ag10
(g14
S'c\xe6\xb4(\xf8Dg@'
p56
tp57
Rp58
ag10
(g14
S'\xf7\x14\xa83oRg@'
p59
tp60
Rp61
ag10
(g14
S'!W\xc562ag@'
p62
tp63
Rp64
ag10
(g14
S'#w\x9a.\xf8jg@'
p65
tp66
Rp67
ag10
(g14
S'>\x11=?S~g@'
p68
tp69
Rp70
ag10
(g14
S'\x91)\xd4\x966Zg@'
p71
tp72
Rp73
ag10
(g14
S'\xd5.3(\xca{g@'
p74
tp75
Rp76
asS'target'
p77
(lp78
g10
(g14
S'\xe4\xd6\xd2\xdc{\x8cS@'
p79
tp80
Rp81
ag10
(g14
S'E\xdfca]\tS@'
p82
tp83
Rp84
ag10
(g14
S'\xc9\xa5]q\xb5Pd@'
p85
tp86
Rp87
ag10
(g14
S'\x02\xe4\x19\xd4EMH@'
p88
tp89
Rp90
ag10
(g14
S'$\x17F\xb9N\x90K@'
p91
tp92
Rp93
ag10
(g14
S'x\x12k\xbb\xf7\x85P@'
p94
tp95
Rp96
ag10
(g14
S'\x1fs\xcd\xb6\x19rJ@'
p97
tp98
Rp99
ag10
(g14
S'\xe3\xab\x81\xc64wR@'
p100
tp101
Rp102
ag10
(g14
S'\xa0\xa0\xb8\xb3,\xf9C@'
p103
tp104
Rp105
ag10
(g14
S'\xb9\x89\xcf\xad\xd2wP@'
p106
tp107
Rp108
ag10
(g14
S'\xa9d\xad\xeb\xcf\xd7I@'
p109
tp110
Rp111
ag10
(g14
S'\xbb\x92.^N\xe0H@'
p112
tp113
Rp114
ag10
(g14
S'\x8b\xa2k\x08\x1b%N@'
p115
tp116
Rp117
ag10
(g14
S'*Q2P\xf4$L@'
p118
tp119
Rp120
ag10
(g14
S'I\x05\xad\xd8\xd1%V@'
p121
tp122
Rp123
ag10
(g14
S'0\x15I\x14-\x99H@'
p124
tp125
Rp126
ag10
(g14
S'`\xa7I\x06r#B@'
p127
tp128
Rp129
ag10
(g14
S'\xc2\xa0\xc8\x17\x1f\xf9R@'
p130
tp131
Rp132
ag10
(g14
S'.\xdf\x1e\xec\xc8\x8fJ@'
p133
tp134
Rp135
ag10
(g14
S'h\x06=\x12\xd8(N@'
p136
tp137
Rp138
asssss.