(dp0
S'../Data/sqlite_76.csv'
p1
(dp2
S'../Data/sqlite_1.csv'
p3
(dp4
F0.35
(dp5
S'abs_res'
p6
(dp7
S'bellwether'
p8
(lp9
cnumpy.core.multiarray
scalar
p10
(cnumpy
dtype
p11
(S'f8'
p12
I0
I1
tp13
Rp14
(I3
S'<'
p15
NNNI-1
I-1
I0
tp16
bS'\xa5G\xe1j\xf0e8A'
p17
tp18
Rp19
ag10
(g14
S'\xa6\x1cZT\x81h8A'
p20
tp21
Rp22
ag10
(g14
S'\xbd\xf5(<He8A'
p23
tp24
Rp25
ag10
(g14
S'ph\x91mMg8A'
p26
tp27
Rp28
ag10
(g14
S'\xf8\xd4x\x99he8A'
p29
tp30
Rp31
ag10
(g14
S'z\xc0\xca\xd1^g8A'
p32
tp33
Rp34
ag10
(g14
S"\xd9O\x8d'4g8A"
p35
tp36
Rp37
ag10
(g14
S'\x1f1\x08\x0c\xa7f8A'
p38
tp39
Rp40
ag10
(g14
S'\xf4\xa9\xf1b+e8A'
p41
tp42
Rp43
ag10
(g14
S'\x81j\xbc\x94\xb4d8A'
p44
tp45
Rp46
ag10
(g14
S'\x05\xd7\xa30\xa2f8A'
p47
tp48
Rp49
ag10
(g14
S'\\\xbaI|\x1ag8A'
p50
tp51
Rp52
ag10
(g14
S'?\xdfO\xcd\xffe8A'
p53
tp54
Rp55
ag10
(g14
S'D`\xe5`\x05f8A'
p56
tp57
Rp58
ag10
(g14
S'\xeb\xfd\xd4\x18\x93f8A'
p59
tp60
Rp61
ag10
(g14
S'Pb\x10\x98\x1af8A'
p62
tp63
Rp64
ag10
(g14
S':\xb4\xc8v)g8A'
p65
tp66
Rp67
ag10
(g14
S'K\xe1z\xb4\xa8f8A'
p68
tp69
Rp70
ag10
(g14
S'5\xdfO\rxg8A'
p71
tp72
Rp73
ag10
(g14
S'\x1e\xb0r\xf8\x7fe8A'
p74
tp75
Rp76
asS'target'
p77
(lp78
g10
(g14
S'7333\xd3\xa9\xcb@'
p79
tp80
Rp81
ag10
(g14
S'hffffq\xcc@'
p82
tp83
Rp84
ag10
(g14
S'\x9a\x99\x99\x99\x19P\xcd@'
p85
tp86
Rp87
ag10
(g14
S'\x02\x00\x00\x00 \x0b\xcc@'
p88
tp89
Rp90
ag10
(g14
S'\x07\x00\x00\x00 \x19\xcc@'
p91
tp92
Rp93
ag10
(g14
S'bffffT\xcc@'
p94
tp95
Rp96
ag10
(g14
S'\x04\x00\x00\x00\xa0?\xcc@'
p97
tp98
Rp99
ag10
(g14
S'\xfe\xff\xff\xff\x7ft\xcb@'
p100
tp101
Rp102
ag10
(g14
S'6333\x13\x86\xcd@'
p103
tp104
Rp105
ag10
(g14
S'=3333t\xcc@'
p106
tp107
Rp108
ag10
(g14
S'pffff\x91\xcc@'
p109
tp110
Rp111
ag10
(g14
S'\x90\x99\x99\x99\x99n\xcc@'
p112
tp113
Rp114
ag10
(g14
S'5333s\x02\xcc@'
p115
tp116
Rp117
ag10
(g14
S'sffff>\xce@'
p118
tp119
Rp120
ag10
(g14
S'0333S.\xcc@'
p121
tp122
Rp123
ag10
(g14
S'vfff&(\xcb@'
p124
tp125
Rp126
ag10
(g14
S'hfff\x86\xaa\xce@'
p127
tp128
Rp129
ag10
(g14
S'2333\x13v\xcc@'
p130
tp131
Rp132
ag10
(g14
S'\x98\x99\x99\x99Y\xed\xcb@'
p133
tp134
Rp135
ag10
(g14
S'hfffF/\xcf@'
p136
tp137
Rp138
asssss.