(dp0
S'../Data/sqlite_15.csv'
p1
(dp2
S'../Data/sqlite_17.csv'
p3
(dp4
F0.2
(dp5
S'abs_res'
p6
(dp7
S'bellwether'
p8
(lp9
cnumpy.core.multiarray
scalar
p10
(cnumpy
dtype
p11
(S'f8'
p12
I0
I1
tp13
Rp14
(I3
S'<'
p15
NNNI-1
I-1
I0
tp16
bS'\xa8\xf1\xd2\r\xbeY>A'
p17
tp18
Rp19
ag10
(g14
S'\x93\x8a\xb3/\xa2X>A'
p20
tp21
Rp22
ag10
(g14
S'\xef\x19v\x05gY>A'
p23
tp24
Rp25
ag10
(g14
S'^\xabcBIY>A'
p26
tp27
Rp28
ag10
(g14
S'H\xe1z\xd4\xe6Y>A'
p29
tp30
Rp31
ag10
(g14
S'>5^\x9aBY>A'
p32
tp33
Rp34
ag10
(g14
S'\x10\x9fa7 Z>A'
p35
tp36
Rp37
ag10
(g14
S'\xf0|?\x95\x98Y>A'
p38
tp39
Rp40
ag10
(g14
S'\x8f\xde\x96\xb5-X>A'
p41
tp42
Rp43
ag10
(g14
S'j;\xdf\xcf$Y>A'
p44
tp45
Rp46
ag10
(g14
S'\xd3x\xe9F\xdaX>A'
p47
tp48
Rp49
ag10
(g14
S'\x8d\xc2\xf5\xe8\x85Z>A'
p50
tp51
Rp52
ag10
(g14
S'\x862z{vX>A'
p53
tp54
Rp55
ag10
(g14
S'"\xa3\xb7e\x04Z>A'
p56
tp57
Rp58
ag10
(g14
S'A`\xe5\xd0vY>A'
p59
tp60
Rp61
ag10
(g14
S'L*\xce~pX>A'
p62
tp63
Rp64
ag10
(g14
S',\x06\x81\xd5\x88Y>A'
p65
tp66
Rp67
ag10
(g14
S'\xa5\x1a/}GY>A'
p68
tp69
Rp70
ag10
(g14
S'7\xa7\r\xf4\xe9X>A'
p71
tp72
Rp73
ag10
(g14
S'\x98n\x12\xa3\x83Y>A'
p74
tp75
Rp76
asS'target'
p77
(lp78
g10
(g14
S'\x06\xd5x\xe9&\xcdl@'
p79
tp80
Rp81
ag10
(g14
S'\xc2K7\x89A\x10j@'
p82
tp83
Rp84
ag10
(g14
S']\x10X9\xb4\xc8m@'
p85
tp86
Rp87
ag10
(g14
S'%\x06\x81\x95CAj@'
p88
tp89
Rp90
ag10
(g14
S'\xdc$\x06\x81\x95Cj@'
p91
tp92
Rp93
ag10
(g14
S'\x1eX9\xb4\xc8@l@'
p94
tp95
Rp96
ag10
(g14
S'\xa9\x1cZd;\x8fj@'
p97
tp98
Rp99
ag10
(g14
S'\xecO\x8d\x97n|l@'
p100
tp101
Rp102
ag10
(g14
S'\xe0z\x14\xaeG\xe5k@'
p103
tp104
Rp105
ag10
(g14
S'\xdd\xf9~j\xbc\x18n@'
p106
tp107
Rp108
ag10
(g14
S'\x08V\x0e-\xb2\xedm@'
p109
tp110
Rp111
ag10
(g14
S'\xd0v\xbe\x9f\x1a\x97l@'
p112
tp113
Rp114
ag10
(g14
S'\xab\x9d\xef\xa7\xc6\x9fj@'
p115
tp116
Rp117
ag10
(g14
S'\x1b/\xdd$\x06_j@'
p118
tp119
Rp120
ag10
(g14
S'r\x91\xed|?em@'
p121
tp122
Rp123
ag10
(g14
S'O\x8d\x97n\x12\xdbj@'
p124
tp125
Rp126
ag10
(g14
S'\x86l\xe7\xfb\xa9\xbfn@'
p127
tp128
Rp129
ag10
(g14
S'J`\xe5\xd0"\xafl@'
p130
tp131
Rp132
ag10
(g14
S'\xc0\x9f\x1a/\xdd\xf0k@'
p133
tp134
Rp135
ag10
(g14
S'\x0b\xd7\xa3p=\xd6k@'
p136
tp137
Rp138
asssss.