(dp0
S'../Data/sqlite_2.csv'
p1
(dp2
S'../Data/sqlite_96.csv'
p3
(dp4
F0.35
(dp5
S'mmre'
p6
(dp7
S'bellwether'
p8
(lp9
cnumpy.core.multiarray
scalar
p10
(cnumpy
dtype
p11
(S'f8'
p12
I0
I1
tp13
Rp14
(I3
S'<'
p15
NNNI-1
I-1
I0
tp16
bS'\x19\x95\xdc\xe2CMW@'
p17
tp18
Rp19
ag10
(g14
S'r\x9b\xecQ.IW@'
p20
tp21
Rp22
ag10
(g14
S'\x15!\xbb!,FW@'
p23
tp24
Rp25
ag10
(g14
S'\xd3\xd1\xd2h\xc0GW@'
p26
tp27
Rp28
ag10
(g14
S'\x1a\xae\xd1~\x95HW@'
p29
tp30
Rp31
ag10
(g14
S'Iz\xd0\xe7hLW@'
p32
tp33
Rp34
ag10
(g14
S"'\xd6x-\xe5HW@"
p35
tp36
Rp37
ag10
(g14
S'\xac\xd5\xfcC\xf9JW@'
p38
tp39
Rp40
ag10
(g14
S'S~\xee\xac\x19IW@'
p41
tp42
Rp43
ag10
(g14
S'\x9a\xe9\xee\xff\x1cGW@'
p44
tp45
Rp46
ag10
(g14
S'o|L\xa4\x10PW@'
p47
tp48
Rp49
ag10
(g14
S'v\x15\xfam\x00LW@'
p50
tp51
Rp52
ag10
(g14
S'\xd9\x94$m~HW@'
p53
tp54
Rp55
ag10
(g14
S'\xd2\xeb\x99t(IW@'
p56
tp57
Rp58
ag10
(g14
S'M\x00\x90\x8b\xe9KW@'
p59
tp60
Rp61
ag10
(g14
S'\x1a\xdf\x16\xd9YMW@'
p62
tp63
Rp64
ag10
(g14
S'\xd3[\x03(~FW@'
p65
tp66
Rp67
ag10
(g14
S'\x87;!\r\xe6QW@'
p68
tp69
Rp70
ag10
(g14
S'\x83\xf2\x89\x00\tJW@'
p71
tp72
Rp73
ag10
(g14
S'\xca\xb4\xaf\xe6\xceMW@'
p74
tp75
Rp76
asS'target'
p77
(lp78
g10
(g14
S'\xfa;\x05;D\xc7T@'
p79
tp80
Rp81
ag10
(g14
S'V\x01\x91\x84\\\xdeW@'
p82
tp83
Rp84
ag10
(g14
S'\x89\\\x00\x05\x9d\xb0Z@'
p85
tp86
Rp87
ag10
(g14
S':\x05\x1f[_pT@'
p88
tp89
Rp90
ag10
(g14
S'\xe1b\xc6R \xc3Q@'
p91
tp92
Rp93
ag10
(g14
S' CUM\x90 S@'
p94
tp95
Rp96
ag10
(g14
S'\xfd\x00\xefY\xbe\rR@'
p97
tp98
Rp99
ag10
(g14
S'9:f\xcfW\xe3R@'
p100
tp101
Rp102
ag10
(g14
S'\xb0G5\x17\xfcYN@'
p103
tp104
Rp105
ag10
(g14
S'\xceI~uG\xeeY@'
p106
tp107
Rp108
ag10
(g14
S',H\xe2\r\n\xd1Q@'
p109
tp110
Rp111
ag10
(g14
S'\xe0\xe4b\xdf>\x9fP@'
p112
tp113
Rp114
ag10
(g14
S'p]\xce\xcf\xa8jQ@'
p115
tp116
Rp117
ag10
(g14
S'\xa7\xcep[\xd8\xbbW@'
p118
tp119
Rp120
ag10
(g14
S'\xf6\x9d\x9d\x80\xcfiT@'
p121
tp122
Rp123
ag10
(g14
S'\x8di\x0e\x1f\x92\xe5S@'
p124
tp125
Rp126
ag10
(g14
S'\xdeY\xf4\x19\x03\x93T@'
p127
tp128
Rp129
ag10
(g14
S'B\xd3\x85\xc9\xb8$I@'
p130
tp131
Rp132
ag10
(g14
S'n\xf0[\x00P\xa1W@'
p133
tp134
Rp135
ag10
(g14
S'j\x1c\xf3E\x90wP@'
p136
tp137
Rp138
asssss.