(dp0
S'../Data/sqlite_74.csv'
p1
(dp2
S'../Data/sqlite_0.csv'
p3
(dp4
F0.4
(dp5
S'abs_res'
p6
(dp7
S'bellwether'
p8
(lp9
cnumpy.core.multiarray
scalar
p10
(cnumpy
dtype
p11
(S'f8'
p12
I0
I1
tp13
Rp14
(I3
S'<'
p15
NNNI-1
I-1
I0
tp16
bS'\x0eg\x1f\xfa\x05:dA'
p17
tp18
Rp19
ag10
(g14
S'\xb5t\x93|\xdbPdA'
p20
tp21
Rp22
ag10
(g14
S'\x96\xc2\xf5\xd4\xc3:dA'
p23
tp24
Rp25
ag10
(g14
S'\xa5\x1cZ,nOdA'
p26
tp27
Rp28
ag10
(g14
S'\xaf\xe4\x17+MXdA'
p29
tp30
Rp31
ag10
(g14
S'\xd8\x06:u,?dA'
p32
tp33
Rp34
ag10
(g14
S',z[j\xa8KdA'
p35
tp36
Rp37
ag10
(g14
S'\x87A`1pRdA'
p38
tp39
Rp40
ag10
(g14
S'\xdbO\x8d\xd7WPdA'
p41
tp42
Rp43
ag10
(g14
S'\xd7\xf9~\x06\xeeCdA'
p44
tp45
Rp46
ag10
(g14
S'\xacG\xe12\xd9GdA'
p47
tp48
Rp49
ag10
(g14
S'b\xd8\x15\xe8\x9fBdA'
p50
tp51
Rp52
ag10
(g14
S'I~\xb1\x0cdLdA'
p53
tp54
Rp55
ag10
(g14
S'1\x08\xac\xf0\xaeKdA'
p56
tp57
Rp58
ag10
(g14
S'\xc4/\x96\xd0/WdA'
p59
tp60
Rp61
ag10
(g14
S'>\xd2\x94\xe6\xc5FdA'
p62
tp63
Rp64
ag10
(g14
S'\x80\x95C?j=dA'
p65
tp66
Rp67
ag10
(g14
S'X\xc7\x04\x0bdOdA'
p68
tp69
Rp70
ag10
(g14
S'\xb7\x1e\x85\x07gCdA'
p71
tp72
Rp73
ag10
(g14
S'\x97\xfcbQ\xc0LdA'
p74
tp75
Rp76
asS'target'
p77
(lp78
g10
(g14
S'\xe9&1\x08\xac\xec_@'
p79
tp80
Rp81
ag10
(g14
S'\xea&1\x08\xac\xec]@'
p82
tp83
Rp84
ag10
(g14
S'uh\x91\xed|Y`@'
p85
tp86
Rp87
ag10
(g14
S'A\xdfO\x8d\x97V_@'
p88
tp89
Rp90
ag10
(g14
S'\xd8\xa3p=\n[`@'
p91
tp92
Rp93
ag10
(g14
S'g;\xdfO\x8d\x9d`@'
p94
tp95
Rp96
ag10
(g14
S'\x8dl\xe7\xfb\xa9}_@'
p97
tp98
Rp99
ag10
(g14
S'\x80\xc0\xca\xa1E\xe2_@'
p100
tp101
Rp102
ag10
(g14
S'\x0e\xaeG\xe1z\x0c_@'
p103
tp104
Rp105
ag10
(g14
S'\x90\xc2\xf5(\\\x83a@'
p106
tp107
Rp108
ag10
(g14
S'\x1fZd;\xdf\x0fa@'
p109
tp110
Rp111
ag10
(g14
S'\xdax\xe9&1\x08_@'
p112
tp113
Rp114
ag10
(g14
S'}\x95C\x8bls`@'
p115
tp116
Rp117
ag10
(g14
S'\x92\xebQ\xb8\x1e=^@'
p118
tp119
Rp120
ag10
(g14
S'{\xbe\x9f\x1a/\xc5a@'
p121
tp122
Rp123
ag10
(g14
S'5\x08\xac\x1cZ\xea`@'
p124
tp125
Rp126
ag10
(g14
S'2\x08\xac\x1cZ\xd0^@'
p127
tp128
Rp129
ag10
(g14
S'$\x85\xebQ\xb8\xde^@'
p130
tp131
Rp132
ag10
(g14
S'a\x8f\xc2\xf5(\x14`@'
p133
tp134
Rp135
ag10
(g14
S'\xeb\xd2Mb\x10,`@'
p136
tp137
Rp138
asssss.