(dp0
S'../Data/sqlite_66.csv'
p1
(dp2
S'../Data/sqlite_64.csv'
p3
(dp4
F0.05
(dp5
S'abs_res'
p6
(dp7
S'bellwether'
p8
(lp9
cnumpy.core.multiarray
scalar
p10
(cnumpy
dtype
p11
(S'f8'
p12
I0
I1
tp13
Rp14
(I3
S'<'
p15
NNNI-1
I-1
I0
tp16
bS'\xdf\xdd\xdd\x1d\xc6.$A'
p17
tp18
Rp19
ag10
(g14
S'\x80?5^\xb5.$A'
p20
tp21
Rp22
ag10
(g14
S'R\xe3\xa5\xdbq.$A'
p23
tp24
Rp25
ag10
(g14
S'4\n\xd7\xe3\x92.$A'
p26
tp27
Rp28
ag10
(g14
S'\x8d{\xcdEg.$A'
p29
tp30
Rp31
ag10
(g14
S'^s!\xe9\x95.$A'
p32
tp33
Rp34
ag10
(g14
S'033s\xd3-$A'
p35
tp36
Rp37
ag10
(g14
S'C\xe1z\x14\x95-$A'
p38
tp39
Rp40
ag10
(g14
S'[\x91\xed\xfcT.$A'
p41
tp42
Rp43
ag10
(g14
S'\xe2\x89\xfa\xf7\xcd-$A'
p44
tp45
Rp46
ag10
(g14
S'V\x1d\x13<\x16.$A'
p47
tp48
Rp49
ag10
(g14
S'\xf7~j|t.$A'
p50
tp51
Rp52
ag10
(g14
S'\xecQ\xb8^\x16.$A'
p53
tp54
Rp55
ag10
(g14
S'\xc6\xa1Evw.$A'
p56
tp57
Rp58
ag10
(g14
S'P7\x89\x81\x82.$A'
p59
tp60
Rp61
ag10
(g14
S'\x07e\xf4\xf6\xc2.$A'
p62
tp63
Rp64
ag10
(g14
S'\x9c\xc4 \xf0p.$A'
p65
tp66
Rp67
ag10
(g14
S'\x91\xed|\xffF.$A'
p68
tp69
Rp70
ag10
(g14
S'9\xb4\xc86\x8a.$A'
p71
tp72
Rp73
ag10
(g14
S'\xbf\xca\xa1Ew.$A'
p74
tp75
Rp76
asS'target'
p77
(lp78
g10
(g14
S'\xe2&1\x08\xac\x9c{@'
p79
tp80
Rp81
ag10
(g14
S'\x88\xebQ\xb8\x1e\x13x@'
p82
tp83
Rp84
ag10
(g14
S'\\\x0e-\xb2\x9d\x18\x81@'
p85
tp86
Rp87
ag10
(g14
S'\xd6Mb\x10X\xe3{@'
p88
tp89
Rp90
ag10
(g14
S'\xe2O\x8d\x97n\xe2~@'
p91
tp92
Rp93
ag10
(g14
S'0\xdb\xf9~j\xc8}@'
p94
tp95
Rp96
ag10
(g14
S'A\xe1z\x14\xae\xb1v@'
p97
tp98
Rp99
ag10
(g14
S'\x81\x95C\x8bl\xc3{@'
p100
tp101
Rp102
ag10
(g14
S'\xdfz\x14\xaeGAy@'
p103
tp104
Rp105
ag10
(g14
S'D\xb8\x1e\x85\xeb\xb1{@'
p106
tp107
Rp108
ag10
(g14
S'S\xb8\x1e\x85\xeb\xd1x@'
p109
tp110
Rp111
ag10
(g14
S'\xb2v\xbe\x9f\x1a\xb9|@'
p112
tp113
Rp114
ag10
(g14
S'\xddO\x8d\x97n\x84}@'
p115
tp116
Rp117
ag10
(g14
S"'1\x08\xac\x1c\x12z@"
p118
tp119
Rp120
ag10
(g14
S'X7\x89A`\x03v@'
p121
tp122
Rp123
ag10
(g14
S'23333G{@'
p124
tp125
Rp126
ag10
(g14
S'\xaerh\x91\xed\x8e|@'
p127
tp128
Rp129
ag10
(g14
S'#\xdb\xf9~j\xb2v@'
p130
tp131
Rp132
ag10
(g14
S'\xd2\xf7S\xe3\xa5;z@'
p133
tp134
Rp135
ag10
(g14
S'\xb8t\x93\x18\x04\xdex@'
p136
tp137
Rp138
asssss.