(dp0
S'../Data/sqlite_97.csv'
p1
(dp2
S'../Data/sqlite_88.csv'
p3
(dp4
F0.25
(dp5
S'mmre'
p6
(dp7
S'bellwether'
p8
(lp9
cnumpy.core.multiarray
scalar
p10
(cnumpy
dtype
p11
(S'f8'
p12
I0
I1
tp13
Rp14
(I3
S'<'
p15
NNNI-1
I-1
I0
tp16
bS'\x03g\xe2\x07BQX@'
p17
tp18
Rp19
ag10
(g14
S'\xe8M\x96\x88v?X@'
p20
tp21
Rp22
ag10
(g14
S'+\xde\xcf\xf3\x96\\X@'
p23
tp24
Rp25
ag10
(g14
S'"\x1a\xa6\xfe\x1dMX@'
p26
tp27
Rp28
ag10
(g14
S'L\x05^\x19^OX@'
p29
tp30
Rp31
ag10
(g14
S'\xed\x0b>\xca\xa1PX@'
p32
tp33
Rp34
ag10
(g14
S'\xfc\xec`\x84_=X@'
p35
tp36
Rp37
ag10
(g14
S'\t\xf7\xfb!FaX@'
p38
tp39
Rp40
ag10
(g14
S'\x90\xca\x86\xbb\xf5LX@'
p41
tp42
Rp43
ag10
(g14
S'\xc9\xceC\x9a\x99DX@'
p44
tp45
Rp46
ag10
(g14
S'\xcbu\x999\xb9bX@'
p47
tp48
Rp49
ag10
(g14
S'\xa4\xdfJ~F?X@'
p50
tp51
Rp52
ag10
(g14
S'\xa7\xb8A\x14z=X@'
p53
tp54
Rp55
ag10
(g14
S'\xd3\xf4\x8d=\xeaFX@'
p56
tp57
Rp58
ag10
(g14
S'\x10.hu\xe0UX@'
p59
tp60
Rp61
ag10
(g14
S'\\0\xd4aUAX@'
p62
tp63
Rp64
ag10
(g14
S'\xd4\xc1F\xc3\xf0JX@'
p65
tp66
Rp67
ag10
(g14
S'\xa7\xb5\x9b?\x03OX@'
p68
tp69
Rp70
ag10
(g14
S'`\x81\xa4\xb5NKX@'
p71
tp72
Rp73
ag10
(g14
S'\xf1]sL\xb8JX@'
p74
tp75
Rp76
asS'target'
p77
(lp78
g10
(g14
S'^\x9e[\x88\x89\x05K@'
p79
tp80
Rp81
ag10
(g14
S'\xedtx5U\x9aK@'
p82
tp83
Rp84
ag10
(g14
S'\xc0\x8e\xea\xc0\r\xbaJ@'
p85
tp86
Rp87
ag10
(g14
S'\xea\x8e\x97\x19=\x93J@'
p88
tp89
Rp90
ag10
(g14
S'\xcb\xd2$\xa2\x80jO@'
p91
tp92
Rp93
ag10
(g14
S'B-\xf1X/\x06J@'
p94
tp95
Rp96
ag10
(g14
S'&\x9b\x0f\xb4HzK@'
p97
tp98
Rp99
ag10
(g14
S'qTl\x11\xc7\xafM@'
p100
tp101
Rp102
ag10
(g14
S'}?\x12F\x8dfI@'
p103
tp104
Rp105
ag10
(g14
S'9*;\xd6\xe8\x11K@'
p106
tp107
Rp108
ag10
(g14
S'P\xc8\x9c>\xba\xc2M@'
p109
tp110
Rp111
ag10
(g14
S'O\x06\xaa\x98\xacoL@'
p112
tp113
Rp114
ag10
(g14
S'\xbb\xfe\xef\xe6u\x98N@'
p115
tp116
Rp117
ag10
(g14
S'\xcaUMm\xc2(I@'
p118
tp119
Rp120
ag10
(g14
S'\xc3@dt\xf6~I@'
p121
tp122
Rp123
ag10
(g14
S'\xd7l\r\xef1"L@'
p124
tp125
Rp126
ag10
(g14
S'\xc1z\xaaPWVK@'
p127
tp128
Rp129
ag10
(g14
S'%4cf\xd6AP@'
p130
tp131
Rp132
ag10
(g14
S'\x1c\xc5/\xf0\xd1|K@'
p133
tp134
Rp135
ag10
(g14
S'#\xbc\x03H\xb6\x8fL@'
p136
tp137
Rp138
asssss.