(dp0
S'../Data/sqlite_26.csv'
p1
(dp2
S'../Data/sqlite_59.csv'
p3
(dp4
F0.05
(dp5
S'mmre'
p6
(dp7
S'bellwether'
p8
(lp9
cnumpy.core.multiarray
scalar
p10
(cnumpy
dtype
p11
(S'f8'
p12
I0
I1
tp13
Rp14
(I3
S'<'
p15
NNNI-1
I-1
I0
tp16
bS'\xf64\x15*a+V@'
p17
tp18
Rp19
ag10
(g14
S'5rzgo)V@'
p20
tp21
Rp22
ag10
(g14
S'\x19\xdcwt1$V@'
p23
tp24
Rp25
ag10
(g14
S']C&\x06\xd9.V@'
p26
tp27
Rp28
ag10
(g14
S'\xed{Zo\x1c7V@'
p29
tp30
Rp31
ag10
(g14
S'I.\xd5\xe0\xa3#V@'
p32
tp33
Rp34
ag10
(g14
S'\x9d\xe8*/[EV@'
p35
tp36
Rp37
ag10
(g14
S'\xd8\x99\x81\xa9%/V@'
p38
tp39
Rp40
ag10
(g14
S'\x93\x07\x15GF2V@'
p41
tp42
Rp43
ag10
(g14
S'\xe3\xdb\xf9\x9e\x15/V@'
p44
tp45
Rp46
ag10
(g14
S'q&\xcb&\xab.V@'
p47
tp48
Rp49
ag10
(g14
S'dW$\xa9\x1d0V@'
p50
tp51
Rp52
ag10
(g14
S'\xb1\xe5\x97\x0b\x88$V@'
p53
tp54
Rp55
ag10
(g14
S'(VPg\x03(V@'
p56
tp57
Rp58
ag10
(g14
S'k"\xd9\x1e;#V@'
p59
tp60
Rp61
ag10
(g14
S'L\xef\xf1\xe0\xc87V@'
p62
tp63
Rp64
ag10
(g14
S'!\xbd\xe3\xc0\xe0,V@'
p65
tp66
Rp67
ag10
(g14
S'\xc3\x90\xe0\xd2\xc56V@'
p68
tp69
Rp70
ag10
(g14
S'-\xfb\xe4\x96\xc6*V@'
p71
tp72
Rp73
ag10
(g14
S'\xe2"7MI2V@'
p74
tp75
Rp76
asS'target'
p77
(lp78
g10
(g14
S'\x864\xc5\x94\xb43#@'
p79
tp80
Rp81
ag10
(g14
S"%.\xb6k\x8e\xf7'@"
p82
tp83
Rp84
ag10
(g14
S'\x99\xfdgR7b&@'
p85
tp86
Rp87
ag10
(g14
S'\x91QiU\xaaA%@'
p88
tp89
Rp90
ag10
(g14
S'\xb9d\xd3\x14/\x8e%@'
p91
tp92
Rp93
ag10
(g14
S'\x9b\xa5\xfd\x061\xe2%@'
p94
tp95
Rp96
ag10
(g14
S'\x8f\xbb\xf6\xbc\xafg%@'
p97
tp98
Rp99
ag10
(g14
S'\xa6\x80\xee\xb7O\x06(@'
p100
tp101
Rp102
ag10
(g14
S'\x19\xc2g\x17m\xed#@'
p103
tp104
Rp105
ag10
(g14
S'Lr\xbd\xb1\xb1V$@'
p106
tp107
Rp108
ag10
(g14
S'\xd9\xf6u\x0c\xf0\x80(@'
p109
tp110
Rp111
ag10
(g14
S'\xe9\xbd\xbe\x14\xca\xce$@'
p112
tp113
Rp114
ag10
(g14
S'\x10m\xd6\xc0\xe3\xdf(@'
p115
tp116
Rp117
ag10
(g14
S'T\xbf\xb0\xaa]\x92&@'
p118
tp119
Rp120
ag10
(g14
S'\x8e5\xf4>qS*@'
p121
tp122
Rp123
ag10
(g14
S'+\xb4h\x1dTE&@'
p124
tp125
Rp126
ag10
(g14
S'\xa2\xaf>\xe9_\xb4"@'
p127
tp128
Rp129
ag10
(g14
S"\xb6\x0eT\xe05\xc4'@"
p130
tp131
Rp132
ag10
(g14
S"\th8e\x87\xeb'@"
p133
tp134
Rp135
ag10
(g14
S'\xfe\xa5\xec\xd9;\xea&@'
p136
tp137
Rp138
asssss.