(dp0
S'../Data/sqlite_85.csv'
p1
(dp2
S'../Data/sqlite_20.csv'
p3
(dp4
F0.15
(dp5
S'abs_res'
p6
(dp7
S'bellwether'
p8
(lp9
cnumpy.core.multiarray
scalar
p10
(cnumpy
dtype
p11
(S'f8'
p12
I0
I1
tp13
Rp14
(I3
S'<'
p15
NNNI-1
I-1
I0
tp16
bS'\xd5\x87\xcfhQ:WA'
p17
tp18
Rp19
ag10
(g14
S'\xdc\x87\xcf\xd8\x9bzWA'
p20
tp21
Rp22
ag10
(g14
S'\xdbO\x8d\x8f\xa9oWA'
p23
tp24
Rp25
ag10
(g14
S'\x00\x0f\xe6\x111eWA'
p26
tp27
Rp28
ag10
(g14
S'T\xe3\xa5ce^WA'
p29
tp30
Rp31
ag10
(g14
S'\xe7z\x14\xae\xae\x80WA'
p32
tp33
Rp34
ag10
(g14
S"\x86y\xa26'\\WA"
p35
tp36
Rp37
ag10
(g14
S'\xbet\x93@\xf66WA'
p38
tp39
Rp40
ag10
(g14
S'\xcb\x83y\x925OWA'
p41
tp42
Rp43
ag10
(g14
S'\xa6\xe2\xec\x9bh\x9dWA'
p44
tp45
Rp46
ag10
(g14
S'\xdf\x08eD\xbdIWA'
p47
tp48
Rp49
ag10
(g14
S'\xd3\xcc\xcc\xac4uWA'
p50
tp51
Rp52
ag10
(g14
S'\xd7x\xe9Nm[WA'
p53
tp54
Rp55
ag10
(g14
S'\xe8&1(\x1d}WA'
p56
tp57
Rp58
ag10
(g14
S'\x84\x95C3@{WA'
p59
tp60
Rp61
ag10
(g14
S'\x99n\x123\xd8^WA'
p62
tp63
Rp64
ag10
(g14
S'%>\xc3\xc6[mWA'
p65
tp66
Rp67
ag10
(g14
S'\xdaO\x8d\xa7~mWA'
p68
tp69
Rp70
ag10
(g14
S'_\xe5\xd0\xf2\xc0PWA'
p71
tp72
Rp73
ag10
(g14
S'/ku\xc4{nWA'
p74
tp75
Rp76
asS'target'
p77
(lp78
g10
(g14
S'C`\xe5\xd0"Qr@'
p79
tp80
Rp81
ag10
(g14
S'\x8fl\xe7\xfb\xa9Cr@'
p82
tp83
Rp84
ag10
(g14
S'c\xe5\xd0"\xdbOr@'
p85
tp86
Rp87
ag10
(g14
S'\xf8\xd2Mb\x103s@'
p88
tp89
Rp90
ag10
(g14
S')\xdd$\x06\x81 r@'
p91
tp92
Rp93
ag10
(g14
S'\xde$\x06\x81\x95cr@'
p94
tp95
Rp96
ag10
(g14
S'A\xdfO\x8d\x970r@'
p97
tp98
Rp99
ag10
(g14
S':\x89A`\xe5hp@'
p100
tp101
Rp102
ag10
(g14
S':^\xbaI\x0c\xe8s@'
p103
tp104
Rp105
ag10
(g14
S'\xb2G\xe1z\x14Ut@'
p106
tp107
Rp108
ag10
(g14
S'z\xbe\x9f\x1a/5q@'
p109
tp110
Rp111
ag10
(g14
S'j\xe7\xfb\xa9\xf1er@'
p112
tp113
Rp114
ag10
(g14
S' /\xdd$\x06\xb1s@'
p115
tp116
Rp117
ag10
(g14
S'+\x06\x81\x95C"q@'
p118
tp119
Rp120
ag10
(g14
S'\xb7\xf3\xfd\xd4x\x83s@'
p121
tp122
Rp123
ag10
(g14
S'q\xe7\xfb\xa9\xf1fs@'
p124
tp125
Rp126
ag10
(g14
S'\\\xbaI\x0c\x02\xd9q@'
p127
tp128
Rp129
ag10
(g14
S'\x02V\x0e-\xb2+r@'
p130
tp131
Rp132
ag10
(g14
S'8^\xbaI\x0cVp@'
p133
tp134
Rp135
ag10
(g14
S'\xf0\xfd\xd4x\xe9\xb4r@'
p136
tp137
Rp138
asssss.