(dp0
S'../Data/sqlite_18.csv'
p1
(dp2
S'../Data/sqlite_7.csv'
p3
(dp4
F0.1
(dp5
S'abs_res'
p6
(dp7
S'bellwether'
p8
(lp9
cnumpy.core.multiarray
scalar
p10
(cnumpy
dtype
p11
(S'f8'
p12
I0
I1
tp13
Rp14
(I3
S'<'
p15
NNNI-1
I-1
I0
tp16
bS'133#\xda^AA'
p17
tp18
Rp19
ag10
(g14
S'\xfa\x0c\xbb\x82\xb3_AA'
p20
tp21
Rp22
ag10
(g14
S'\x86?5\xce\xf3^AA'
p23
tp24
Rp25
ag10
(g14
S'\x05+\x87\xf6?_AA'
p26
tp27
Rp28
ag10
(g14
S'\xf6\xd4xi\xbd^AA'
p29
tp30
Rp31
ag10
(g14
S'B\xb6\xf3]\x01_AA'
p32
tp33
Rp34
ag10
(g14
S'\xcaK7\x99\xf0^AA'
p35
tp36
Rp37
ag10
(g14
S'\xb0\xf1\xd2\xcd\xb7_AA'
p38
tp39
Rp40
ag10
(g14
S'\xb7\xf3\xfd\x04\x1a_AA'
p41
tp42
Rp43
ag10
(g14
S'\xb3:&x\x0f_AA'
p44
tp45
Rp46
ag10
(g14
S'.\x15g\x0fq_AA'
p47
tp48
Rp49
ag10
(g14
S'\xd3\xa3p--_AA'
p50
tp51
Rp52
ag10
(g14
S')\\\x8f\x12\xd3^AA'
p53
tp54
Rp55
ag10
(g14
S'\xfbS\xe3\xd5>_AA'
p56
tp57
Rp58
ag10
(g14
S'es!\x99;_AA'
p59
tp60
Rp61
ag10
(g14
S'\x03V\x0e\xfdw_AA'
p62
tp63
Rp64
ag10
(g14
S'p=\nW/_AA'
p65
tp66
Rp67
ag10
(g14
S'F\xb6\xf3}\xfe^AA'
p68
tp69
Rp70
ag10
(g14
S'\xacG\xe1\xba\x00_AA'
p71
tp72
Rp73
ag10
(g14
S'\xe0O\x8dw\xd2_AA'
p74
tp75
Rp76
asS'target'
p77
(lp78
g10
(g14
S'\xef\xa5\x9b\xc4 Hl@'
p79
tp80
Rp81
ag10
(g14
S'\xff*\x87\x16\xd9Nn@'
p82
tp83
Rp84
ag10
(g14
S'\xdbO\x8d\x97n\xf2q@'
p85
tp86
Rp87
ag10
(g14
S'\xd8\xf9~j\xbc$m@'
p88
tp89
Rp90
ag10
(g14
S'\xbaI\x0c\x02+\x19p@'
p91
tp92
Rp93
ag10
(g14
S'\xfc~j\xbct\x7fl@'
p94
tp95
Rp96
ag10
(g14
S'\x10\xaeG\xe1zxn@'
p97
tp98
Rp99
ag10
(g14
S'\x8bC\x8bl\xe7\xafl@'
p100
tp101
Rp102
ag10
(g14
S'Yb\x10X9\xfcn@'
p103
tp104
Rp105
ag10
(g14
S'4\x89A`\xe5\xe6m@'
p106
tp107
Rp108
ag10
(g14
S'\xe6\xf9~j\xbc\xd4j@'
p109
tp110
Rp111
ag10
(g14
S'\x85\xebQ\xb8\x1e[p@'
p112
tp113
Rp114
ag10
(g14
S'\x9aC\x8bl\xe7\xa1l@'
p115
tp116
Rp117
ag10
(g14
S'H\x0e-\xb2\x9dps@'
p118
tp119
Rp120
ag10
(g14
S'\xd7$\x06\x81\x95\xebl@'
p121
tp122
Rp123
ag10
(g14
S'Z9\xb4\xc8vFo@'
p124
tp125
Rp126
ag10
(g14
S'\x85\x97n\x12\x83|n@'
p127
tp128
Rp129
ag10
(g14
S'Q\xe1z\x14\xae\xafo@'
p130
tp131
Rp132
ag10
(g14
S'4\xdd$\x06\x81\xadm@'
p133
tp134
Rp135
ag10
(g14
S'\xf8\xfb\xa9\xf1\xd2\x1dk@'
p136
tp137
Rp138
asssss.