(dp0
S'../Data/sqlite_3.csv'
p1
(dp2
S'../Data/sqlite_96.csv'
p3
(dp4
F0.05
(dp5
S'mmre'
p6
(dp7
S'bellwether'
p8
(lp9
cnumpy.core.multiarray
scalar
p10
(cnumpy
dtype
p11
(S'f8'
p12
I0
I1
tp13
Rp14
(I3
S'<'
p15
NNNI-1
I-1
I0
tp16
bS'\xd6\r\xf5:ZFR@'
p17
tp18
Rp19
ag10
(g14
S'\xbb\xadj\xe1\x03HR@'
p20
tp21
Rp22
ag10
(g14
S'}\xcfw\x05\xeeIR@'
p23
tp24
Rp25
ag10
(g14
S'\x7f\x15\xa6X+HR@'
p26
tp27
Rp28
ag10
(g14
S'e\xe7\xbeTaIR@'
p29
tp30
Rp31
ag10
(g14
S'\xc8\x99j\xe4#MR@'
p32
tp33
Rp34
ag10
(g14
S'ea1\x9d\x1aDR@'
p35
tp36
Rp37
ag10
(g14
S'|\x85\xf1\xb7\xfdER@'
p38
tp39
Rp40
ag10
(g14
S'Q\x9dt\x9d\xbfHR@'
p41
tp42
Rp43
ag10
(g14
S'\x8fk`\x0b\xa9GR@'
p44
tp45
Rp46
ag10
(g14
S'\x96\xd0\x00\xc7\x1aJR@'
p47
tp48
Rp49
ag10
(g14
S'\x94\xcd+\\4KR@'
p50
tp51
Rp52
ag10
(g14
S'V\xbb\xff\xf6\x1aJR@'
p53
tp54
Rp55
ag10
(g14
S'\x10\xdfaY\x9cFR@'
p56
tp57
Rp58
ag10
(g14
S'\xaeHA\xbb\xe8IR@'
p59
tp60
Rp61
ag10
(g14
S'\x18\xc2\x03-9KR@'
p62
tp63
Rp64
ag10
(g14
S'\x0f\x1eu(\x94NR@'
p65
tp66
Rp67
ag10
(g14
S'\xc7\x9b\n\x04\x17HR@'
p68
tp69
Rp70
ag10
(g14
S'\xea\xcf\xd6\x16jFR@'
p71
tp72
Rp73
ag10
(g14
S'\xcc\xb3\x7fV4HR@'
p74
tp75
Rp76
asS'target'
p77
(lp78
g10
(g14
S'|\xbf3\x17\xbf5\\@'
p79
tp80
Rp81
ag10
(g14
S'\xbf\x8a_c\xf2\xff]@'
p82
tp83
Rp84
ag10
(g14
S'z\xfea\t\xca\x95]@'
p85
tp86
Rp87
ag10
(g14
S'\x9b6>\x9e+\x91W@'
p88
tp89
Rp90
ag10
(g14
S'c\xf3\xc6\xbe\xb8\xb8F@'
p91
tp92
Rp93
ag10
(g14
S'\xf3\x01\x96\xb3\x99\xfcI@'
p94
tp95
Rp96
ag10
(g14
S'\xd0\xb1|\xb38\x8eX@'
p97
tp98
Rp99
ag10
(g14
S'I^XB\x97PL@'
p100
tp101
Rp102
ag10
(g14
S',\xdf\xe9\x99Ee^@'
p103
tp104
Rp105
ag10
(g14
S'\x05\x06#\x1a\x11\xb1\\@'
p106
tp107
Rp108
ag10
(g14
S'\x94\x95\xe6a\xe9\xb4C@'
p109
tp110
Rp111
ag10
(g14
S'\x07y\xe4P%\x9dV@'
p112
tp113
Rp114
ag10
(g14
S'{M)*t\x04W@'
p115
tp116
Rp117
ag10
(g14
S'M\x18Rc%\xe0W@'
p118
tp119
Rp120
ag10
(g14
S'\xd1\xbd5\x1a\x97&e@'
p121
tp122
Rp123
ag10
(g14
S'^\xefu\x1e\x0csd@'
p124
tp125
Rp126
ag10
(g14
S'\xb1\xb6\x17\xad\xee\x11@@'
p127
tp128
Rp129
ag10
(g14
S'\x92\xd7?\x94v\x1fc@'
p130
tp131
Rp132
ag10
(g14
S'W/\x15\x81Hfg@'
p133
tp134
Rp135
ag10
(g14
S'\xce\xa2\\\x95hB\\@'
p136
tp137
Rp138
asssss.