(dp0
S'../Data/sqlite_43.csv'
p1
(dp2
S'../Data/sqlite_2.csv'
p3
(dp4
F0.15
(dp5
S'abs_res'
p6
(dp7
S'bellwether'
p8
(lp9
cnumpy.core.multiarray
scalar
p10
(cnumpy
dtype
p11
(S'f8'
p12
I0
I1
tp13
Rp14
(I3
S'<'
p15
NNNI-1
I-1
I0
tp16
bS'<\xdfOm\x14(@A'
p17
tp18
Rp19
ag10
(g14
S"\te\xf4f\xe2'@A"
p20
tp21
Rp22
ag10
(g14
S"\x06\xe4^\xc3\xa0'@A"
p23
tp24
Rp25
ag10
(g14
S"?\xee5wz'@A"
p26
tp27
Rp28
ag10
(g14
S"D`\xe5\xc0V'@A"
p29
tp30
Rp31
ag10
(g14
S"\x1c\x85\xeb\x01\xa4'@A"
p32
tp33
Rp34
ag10
(g14
S"f;\xdf\xff`'@A"
p35
tp36
Rp37
ag10
(g14
S'\xc1\x9f\x1a\x1f\t(@A'
p38
tp39
Rp40
ag10
(g14
S"\x1bZd\x1b\xdc'@A"
p41
tp42
Rp43
ag10
(g14
S'z\xe9&!O(@A'
p44
tp45
Rp46
ag10
(g14
S'\xc1\xca\xa1E (@A'
p47
tp48
Rp49
ag10
(g14
S"\xbd-k\x05\xe0'@A"
p50
tp51
Rp52
ag10
(g14
S"&\\\x8f\xb2\xac'@A"
p53
tp54
Rp55
ag10
(g14
S'\x8cl\xe7\xcb&(@A'
p56
tp57
Rp58
ag10
(g14
S"\x07\xac\x1c:\xcd'@A"
p59
tp60
Rp61
ag10
(g14
S"+\xb2\x9d?\xab'@A"
p62
tp63
Rp64
ag10
(g14
S"v\xe9&\xf1\xd0'@A"
p65
tp66
Rp67
ag10
(g14
S'\xc6 \xb0BE(@A'
p68
tp69
Rp70
ag10
(g14
S'\xf8(\\\x0f*(@A'
p71
tp72
Rp73
ag10
(g14
S"Lb\x10X\x97'@A"
p74
tp75
Rp76
asS'target'
p77
(lp78
g10
(g14
S'\xceMb\x10X\xd9P@'
p79
tp80
Rp81
ag10
(g14
S'\xdf\xfb\xa9\xf1\xd2\x85T@'
p82
tp83
Rp84
ag10
(g14
S'1\xb2\x9d\xef\xa7zQ@'
p85
tp86
Rp87
ag10
(g14
S'V\xe3\xa5\x9b\xc4\x10S@'
p88
tp89
Rp90
ag10
(g14
S'\xc4\x9f\x1a/\xdd\xc4S@'
p91
tp92
Rp93
ag10
(g14
S'\x8cl\xe7\xfb\xa9\tQ@'
p94
tp95
Rp96
ag10
(g14
S'D\xdfO\x8d\x97\xe6S@'
p97
tp98
Rp99
ag10
(g14
S'(\xb0rh\x91=R@'
p100
tp101
Rp102
ag10
(g14
S'L`\xe5\xd0"\x9bW@'
p103
tp104
Rp105
ag10
(g14
S'Y\x0e-\xb2\x9d\xbbS@'
p106
tp107
Rp108
ag10
(g14
S'\xacp=\n\xd7\xd7T@'
p109
tp110
Rp111
ag10
(g14
S'\xb4G\xe1z\x14\xd6R@'
p112
tp113
Rp114
ag10
(g14
S'\xb7\x1cZd;\xf7P@'
p115
tp116
Rp117
ag10
(g14
S'\x19\x83\xc0\xca\xa15R@'
p118
tp119
Rp120
ag10
(g14
S'I\x0c\x02+\x87n^@'
p121
tp122
Rp123
ag10
(g14
S'm=\n\xd7\xa3 R@'
p124
tp125
Rp126
ag10
(g14
S'\xc4\xf5(\\\x8f\x82R@'
p127
tp128
Rp129
ag10
(g14
S'\x83\x95C\x8bl\xefV@'
p130
tp131
Rp132
ag10
(g14
S'\xa7\x1a/\xdd$nU@'
p133
tp134
Rp135
ag10
(g14
S'\xe9&1\x08\xac$R@'
p136
tp137
Rp138
asssss.