(dp0
S'../Data/sqlite_18.csv'
p1
(dp2
S'../Data/sqlite_51.csv'
p3
(dp4
F0.35
(dp5
S'abs_res'
p6
(dp7
S'bellwether'
p8
(lp9
cnumpy.core.multiarray
scalar
p10
(cnumpy
dtype
p11
(S'f8'
p12
I0
I1
tp13
Rp14
(I3
S'<'
p15
NNNI-1
I-1
I0
tp16
bS'\xa9\x1cZ\xa4\x16E9A'
p17
tp18
Rp19
ag10
(g14
S'\re\xf4\x16pB9A'
p20
tp21
Rp22
ag10
(g14
S'\xcd\xb0+\xa0FA9A'
p23
tp24
Rp25
ag10
(g14
S'6\xd0iC\xcfB9A'
p26
tp27
Rp28
ag10
(g14
S'\xd1Mb\xf0\xe9C9A'
p29
tp30
Rp31
ag10
(g14
S"'x0\x8f'A9A"
p32
tp33
Rp34
ag10
(g14
S'.@\xeeu\x9aC9A'
p35
tp36
Rp37
ag10
(g14
S'\x18\x04V\xee\x1fC9A'
p38
tp39
Rp40
ag10
(g14
S'\xfeS\xe3\xc5\xadC9A'
p41
tp42
Rp43
ag10
(g14
S'W,\xf9\x05\x96A9A'
p44
tp45
Rp46
ag10
(g14
S'\xb9-k\xd5\x8aB9A'
p47
tp48
Rp49
ag10
(g14
S'0\xa5\xe2\xcc\x0eD9A'
p50
tp51
Rp52
ag10
(g14
S'\x0b\xf3D\xfd_@9A'
p53
tp54
Rp55
ag10
(g14
S'{\x14\xaeG\x86B9A'
p56
tp57
Rp58
ag10
(g14
S'\xf7\x9a\x0b\xe9\x98D9A'
p59
tp60
Rp61
ag10
(g14
S'\xef5\x17\xf2\x95A9A'
p62
tp63
Rp64
ag10
(g14
S'\xe4\xfb\xa9\xb1\xd1D9A'
p65
tp66
Rp67
ag10
(g14
S'\xc4\x04\x0f\xc6oB9A'
p68
tp69
Rp70
ag10
(g14
S'\x10\xaeG!\xc8@9A'
p71
tp72
Rp73
ag10
(g14
S'\xee\n\x90;\xefA9A'
p74
tp75
Rp76
asS'target'
p77
(lp78
g10
(g14
S's=\n\xd7\xa3\xc0:@'
p79
tp80
Rp81
ag10
(g14
S'D\x8d\x97n\x12\x83>@'
p82
tp83
Rp84
ag10
(g14
S'\xc6 \xb0rh1:@'
p85
tp86
Rp87
ag10
(g14
S'\xfe\xd4x\xe9&!:@'
p88
tp89
Rp90
ag10
(g14
S'*\x08\xac\x1cZ\x14:@'
p91
tp92
Rp93
ag10
(g14
S'\xa8\xc6K7\x89\xc1:@'
p94
tp95
Rp96
ag10
(g14
S'V\xe5\xd0"\xdb)7@'
p97
tp98
Rp99
ag10
(g14
S'Z\x8f\xc2\xf5(\xdc:@'
p100
tp101
Rp102
ag10
(g14
S'\xf4\xc5\x92_,I;@'
p103
tp104
Rp105
ag10
(g14
S'\xa3\xf1\xd2Mb\xb09@'
p106
tp107
Rp108
ag10
(g14
S'\xd7\xce\xf7S\xe3\xa5<@'
p109
tp110
Rp111
ag10
(g14
S':\x89A`\xe5p9@'
p112
tp113
Rp114
ag10
(g14
S'X\xe3\xa5\x9b\xc4@:@'
p115
tp116
Rp117
ag10
(g14
S'\x8d\xc2\xf5(\\\x7f8@'
p118
tp119
Rp120
ag10
(g14
S'A`\xe5\xd0"{:@'
p121
tp122
Rp123
ag10
(g14
S'dffff\xb6?@'
p124
tp125
Rp126
ag10
(g14
S'\xbfv\xbe\x9f\x1a\xef:@'
p127
tp128
Rp129
ag10
(g14
S'\xbf \xb0rh\x91<@'
p130
tp131
Rp132
ag10
(g14
S'Wb\x10X949@'
p133
tp134
Rp135
ag10
(g14
S'?\xe1z\x14\xaeG;@'
p136
tp137
Rp138
asssss.