(dp0
S'../Data/sqlite_57.csv'
p1
(dp2
S'../Data/sqlite_85.csv'
p3
(dp4
F0.05
(dp5
S'abs_res'
p6
(dp7
S'bellwether'
p8
(lp9
cnumpy.core.multiarray
scalar
p10
(cnumpy
dtype
p11
(S'f8'
p12
I0
I1
tp13
Rp14
(I3
S'<'
p15
NNNI-1
I-1
I0
tp16
bS'\xbc\x1e\x85\xdb<9]A'
p17
tp18
Rp19
ag10
(g14
S'/33\x13\xc8c]A'
p20
tp21
Rp22
ag10
(g14
S'\x18\xaeGq\xdbH]A'
p23
tp24
Rp25
ag10
(g14
S'<\n\xd7\xb3x9]A'
p26
tp27
Rp28
ag10
(g14
S'A\n\xd73b4]A'
p29
tp30
Rp31
ag10
(g14
S'\xd7\xa3p\xed\x94[]A'
p32
tp33
Rp34
ag10
(g14
S'\x1e\x85\xeb\x91\xdc^]A'
p35
tp36
Rp37
ag10
(g14
S'\xd8\xa3p}*2]A'
p38
tp39
Rp40
ag10
(g14
S'bff\xb6pK]A'
p41
tp42
Rp43
ag10
(g14
S'\xeeQ\xb8\xbe\x989]A'
p44
tp45
Rp46
ag10
(g14
S'v\x14\xae\xb7\xbcH]A'
p47
tp48
Rp49
ag10
(g14
S'\x9f\x99\x99y^Z]A'
p50
tp51
Rp52
ag10
(g14
S'\x99\x99\x99\xb9\x9cV]A'
p53
tp54
Rp55
ag10
(g14
S'v\x14\xaeg/+]A'
p56
tp57
Rp58
ag10
(g14
S'\xc4\xcc\xccL\x9e^]A'
p59
tp60
Rp61
ag10
(g14
S'W\x8f\xc2\x15\xe8?]A'
p62
tp63
Rp64
ag10
(g14
S'\x08\x00\x00\xb0@>]A'
p65
tp66
Rp67
ag10
(g14
S'K\xb8\x1e\xe5\x01>]A'
p68
tp69
Rp70
ag10
(g14
S'\xc8\xf5(\xcc\x91/]A'
p71
tp72
Rp73
ag10
(g14
S'533\xb3\xc9?]A'
p74
tp75
Rp76
asS'target'
p77
(lp78
g10
(g14
S'\xd0\xcc\xcc\xcc\x1dJFA'
p79
tp80
Rp81
ag10
(g14
S'<333Tz>A'
p82
tp83
Rp84
ag10
(g14
S'\xabp=\xcam3EA'
p85
tp86
Rp87
ag10
(g14
S'\\\xb8\x1e\x05\xa59FA'
p88
tp89
Rp90
ag10
(g14
S'\xb0G\xe1\x9av\xc3CA'
p91
tp92
Rp93
ag10
(g14
S'l=\n\xb7F\xccCA'
p94
tp95
Rp96
ag10
(g14
S'|\x14\xae\x07T\xceBA'
p97
tp98
Rp99
ag10
(g14
S'\xb3G\xe1Z\xfd\xaeDA'
p100
tp101
Rp102
ag10
(g14
S'\x0f\xaeG\x01Z\x1fBA'
p103
tp104
Rp105
ag10
(g14
S'\x03\xd7\xa3\xd0M~@A'
p106
tp107
Rp108
ag10
(g14
S'633s\xf6\x1fBA'
p109
tp110
Rp111
ag10
(g14
S'\xa2\x99\x99YuECA'
p112
tp113
Rp114
ag10
(g14
S'mfff\xd2\xd3=A'
p115
tp116
Rp117
ag10
(g14
S'R\xb8\x1e\xe5=\x05GA'
p118
tp119
Rp120
ag10
(g14
S'\x8f\x99\x99Y\xcd\xcfEA'
p121
tp122
Rp123
ag10
(g14
S'\xd0\xcc\xccl\xedNCA'
p124
tp125
Rp126
ag10
(g14
S'\x0e\xd7\xa3\xf0o{CA'
p127
tp128
Rp129
ag10
(g14
S'R\xb8\x1e\x85\xf8\x83@A'
p130
tp131
Rp132
ag10
(g14
S';33\xf3\x03\x9fNA'
p133
tp134
Rp135
ag10
(g14
S'-33\xb3\xa3\x02LA'
p136
tp137
Rp138
asssss.