(dp0
S'../Data/sqlite_57.csv'
p1
(dp2
S'../Data/sqlite_19.csv'
p3
(dp4
F0.2
(dp5
S'abs_res'
p6
(dp7
S'bellwether'
p8
(lp9
cnumpy.core.multiarray
scalar
p10
(cnumpy
dtype
p11
(S'f8'
p12
I0
I1
tp13
Rp14
(I3
S'<'
p15
NNNI-1
I-1
I0
tp16
bS'\x1c\x85\xeb\t\x1cCgA'
p17
tp18
Rp19
ag10
(g14
S'\xf5~j\xc0mNgA'
p20
tp21
Rp22
ag10
(g14
S'\xe6|?q\x89?gA'
p23
tp24
Rp25
ag10
(g14
S' \xb0r`\x10DgA'
p26
tp27
Rp28
ag10
(g14
S'\x02\xd5xi!EgA'
p29
tp30
Rp31
ag10
(g14
S'\x0f\x02+7\xd4KgA'
p32
tp33
Rp34
ag10
(g14
S'\x06+\x87\xceXIgA'
p35
tp36
Rp37
ag10
(g14
S'#\xb0r\xac\x82LgA'
p38
tp39
Rp40
ag10
(g14
S'\xd7MblrNgA'
p41
tp42
Rp43
ag10
(g14
S'\xaeG\xe1\x06/IgA'
p44
tp45
Rp46
ag10
(g14
S'\xe5O\x8d?EJgA'
p47
tp48
Rp49
ag10
(g14
S'(\xdb\xf9\x06\x89>gA'
p50
tp51
Rp52
ag10
(g14
S'z?5~\xe8MgA'
p53
tp54
Rp55
ag10
(g14
S'\xed\xd0"{XFgA'
p56
tp57
Rp58
ag10
(g14
S'\x82l\xe7\x07\x0fGgA'
p59
tp60
Rp61
ag10
(g14
S'\x92n\x12\x9f\xa5JgA'
p62
tp63
Rp64
ag10
(g14
S'\x1e/\xdd\xa8wEgA'
p65
tp66
Rp67
ag10
(g14
S'v\xe9&\xf5VJgA'
p68
tp69
Rp70
ag10
(g14
S'8\xdfO\xe5\xd6EgA'
p71
tp72
Rp73
ag10
(g14
S'C\x8bl\xbf2RgA'
p74
tp75
Rp76
asS'target'
p77
(lp78
g10
(g14
S'\xaerh\x91\xed\xacX@'
p79
tp80
Rp81
ag10
(g14
S'\xac\xf3\xfd\xd4x\x19X@'
p82
tp83
Rp84
ag10
(g14
S'A\xb4\xc8v\xbe7X@'
p85
tp86
Rp87
ag10
(g14
S'\xf1~j\xbctkX@'
p88
tp89
Rp90
ag10
(g14
S'`\x8f\xc2\xf5(\\W@'
p91
tp92
Rp93
ag10
(g14
S'{\xbe\x9f\x1a/9T@'
p94
tp95
Rp96
ag10
(g14
S'\x9d\x9b\xc4 \xb0\xeaW@'
p97
tp98
Rp99
ag10
(g14
S'R\xb8\x1e\x85\xebqW@'
p100
tp101
Rp102
ag10
(g14
S'/\xdd$\x06\x81eV@'
p103
tp104
Rp105
ag10
(g14
S'\x9d\xef\xa7\xc6K[W@'
p106
tp107
Rp108
ag10
(g14
S'\xe8z\x14\xaeGQU@'
p109
tp110
Rp111
ag10
(g14
S'\x81?5^\xba\xa5U@'
p112
tp113
Rp114
ag10
(g14
S'\x0eV\x0e-\xb2\x1dV@'
p115
tp116
Rp117
ag10
(g14
S'\x1d\x04V\x0e-zV@'
p118
tp119
Rp120
ag10
(g14
S'V\xe5\xd0"\xdb\xb1W@'
p121
tp122
Rp123
ag10
(g14
S'\xb3+@\xee5wV@'
p124
tp125
Rp126
ag10
(g14
S'\x1f\xd9\xce\xf7S\x07X@'
p127
tp128
Rp129
ag10
(g14
S'\r\x02+\x87\x169W@'
p130
tp131
Rp132
ag10
(g14
S'A\x89A`\xe5\xe8Y@'
p133
tp134
Rp135
ag10
(g14
S'\xd4\xa3p=\n\xcfV@'
p136
tp137
Rp138
asssss.