(dp0
S'../Data/sqlite_65.csv'
p1
(dp2
S'../Data/sqlite_77.csv'
p3
(dp4
F0.2
(dp5
S'mmre'
p6
(dp7
S'bellwether'
p8
(lp9
cnumpy.core.multiarray
scalar
p10
(cnumpy
dtype
p11
(S'f8'
p12
I0
I1
tp13
Rp14
(I3
S'<'
p15
NNNI-1
I-1
I0
tp16
bS'H\x9f`|\x926W@'
p17
tp18
Rp19
ag10
(g14
S'\xa3\xf2\xef\x01\xa44W@'
p20
tp21
Rp22
ag10
(g14
S'\xcf54\xde\xf33W@'
p23
tp24
Rp25
ag10
(g14
S'\xd2\xd2\xc7\x8fL7W@'
p26
tp27
Rp28
ag10
(g14
S'$\x0f\x05\x94\x934W@'
p29
tp30
Rp31
ag10
(g14
S'F\x11\xb1g]5W@'
p32
tp33
Rp34
ag10
(g14
S'zl\x82av6W@'
p35
tp36
Rp37
ag10
(g14
S'\xfbGnt\x053W@'
p38
tp39
Rp40
ag10
(g14
S'\xb4\xad\xd1V&8W@'
p41
tp42
Rp43
ag10
(g14
S'\xc6$t\x10w6W@'
p44
tp45
Rp46
ag10
(g14
S'\xe5\xf3\x8f\x04\x0f6W@'
p47
tp48
Rp49
ag10
(g14
S'\xb1lu\xbcR3W@'
p50
tp51
Rp52
ag10
(g14
S'ACz\xdb\x8e5W@'
p53
tp54
Rp55
ag10
(g14
S'L\x18tv`6W@'
p56
tp57
Rp58
ag10
(g14
S'\x0c \xb8\x18\xf83W@'
p59
tp60
Rp61
ag10
(g14
S'n\xce\xf4R\x9b5W@'
p62
tp63
Rp64
ag10
(g14
S'4\xcf5D*6W@'
p65
tp66
Rp67
ag10
(g14
S'\x92<m\xf974W@'
p68
tp69
Rp70
ag10
(g14
S'$\xc1\xd6\xf5v6W@'
p71
tp72
Rp73
ag10
(g14
S'\x1c\xf1\xbd\x8a\x185W@'
p74
tp75
Rp76
asS'target'
p77
(lp78
g10
(g14
S'\xe2\x10R\xdb\x87<6@'
p79
tp80
Rp81
ag10
(g14
S'\xe5-\x95\x06\xd8\x1f5@'
p82
tp83
Rp84
ag10
(g14
S'\xa5\xd6\x81\x8f\xa1M5@'
p85
tp86
Rp87
ag10
(g14
S')\xf9`M_\x975@'
p88
tp89
Rp90
ag10
(g14
S'\x9e\xfb1R\xdb\xd56@'
p91
tp92
Rp93
ag10
(g14
S'\x867qc\x1f57@'
p94
tp95
Rp96
ag10
(g14
S'\x0b\xf6\x7f\xcef\x1c5@'
p97
tp98
Rp99
ag10
(g14
S'\xc4\xc1\x96\x0bgX5@'
p100
tp101
Rp102
ag10
(g14
S'H\xcf\x8fW\x8d\x805@'
p103
tp104
Rp105
ag10
(g14
S'\x89\xda\xd9\x96M\xd66@'
p106
tp107
Rp108
ag10
(g14
S'\x0e\xcd<? \xda5@'
p109
tp110
Rp111
ag10
(g14
S'B\xc9H,\xbb\x1f7@'
p112
tp113
Rp114
ag10
(g14
S'\xc6Y\xben\xd3*6@'
p115
tp116
Rp117
ag10
(g14
S'X\xc83\x17\x9e\xf95@'
p118
tp119
Rp120
ag10
(g14
S'\x8e"w\xbco\x166@'
p121
tp122
Rp123
ag10
(g14
S'\x1ca\xff\x9dA\x9a5@'
p124
tp125
Rp126
ag10
(g14
S'\xf8\xc6\xaa6lK7@'
p127
tp128
Rp129
ag10
(g14
S'\xd8\x13Y\x98(\xe74@'
p130
tp131
Rp132
ag10
(g14
S'\xd0d\xa2\x11q\xac5@'
p133
tp134
Rp135
ag10
(g14
S'\xa8\xa2E\x8bf\xe45@'
p136
tp137
Rp138
asssss.