(dp0
S'../Data/sqlite_64.csv'
p1
(dp2
S'../Data/sqlite_77.csv'
p3
(dp4
F0.3
(dp5
S'mmre'
p6
(dp7
S'bellwether'
p8
(lp9
cnumpy.core.multiarray
scalar
p10
(cnumpy
dtype
p11
(S'f8'
p12
I0
I1
tp13
Rp14
(I3
S'<'
p15
NNNI-1
I-1
I0
tp16
bS'\x1d\xd6\xfe\x10\x10@S@'
p17
tp18
Rp19
ag10
(g14
S'\xc8\xd9k\x00HFS@'
p20
tp21
Rp22
ag10
(g14
S'rX\xb9\xd55KS@'
p23
tp24
Rp25
ag10
(g14
S'v\\#\tB?S@'
p26
tp27
Rp28
ag10
(g14
S'\x97\x16R\x86\xafHS@'
p29
tp30
Rp31
ag10
(g14
S'(iO\xa1uBS@'
p32
tp33
Rp34
ag10
(g14
S'TJ\nX[<S@'
p35
tp36
Rp37
ag10
(g14
S'8\xde\xd4\x15\x8cJS@'
p38
tp39
Rp40
ag10
(g14
S'Y1\xb3\xd13GS@'
p41
tp42
Rp43
ag10
(g14
S'\x184\xcaq\xc9@S@'
p44
tp45
Rp46
ag10
(g14
S'if=\x84\xbbQS@'
p47
tp48
Rp49
ag10
(g14
S'],\xd9\xd5pIS@'
p50
tp51
Rp52
ag10
(g14
S'\xe4?M\n\xd1DS@'
p53
tp54
Rp55
ag10
(g14
S'\xbf\x80\xa6\x7f\x1dOS@'
p56
tp57
Rp58
ag10
(g14
S'\xcc\x84.t\x85HS@'
p59
tp60
Rp61
ag10
(g14
S'\xa4=\xce\xf1]ES@'
p62
tp63
Rp64
ag10
(g14
S'q\xedt\xf9\x96FS@'
p65
tp66
Rp67
ag10
(g14
S'\xe9M\xbf<\x95DS@'
p68
tp69
Rp70
ag10
(g14
S'\x92\xe6\x91q\tJS@'
p71
tp72
Rp73
ag10
(g14
S'g\xa8\x01arHS@'
p74
tp75
Rp76
asS'target'
p77
(lp78
g10
(g14
S'\xb4\xc9\x03\x91y96@'
p79
tp80
Rp81
ag10
(g14
S'O\xd5\x17\xf8~\t7@'
p82
tp83
Rp84
ag10
(g14
S'=\x9d|M\x90u5@'
p85
tp86
Rp87
ag10
(g14
S'\x00\xce\xaa\x1e\xdc\xb65@'
p88
tp89
Rp90
ag10
(g14
S'`\xcc*\xd4\xb9\xf15@'
p91
tp92
Rp93
ag10
(g14
S'nj\xd9\xe4\x14{5@'
p94
tp95
Rp96
ag10
(g14
S'\x94\xf2\x1cuf\xed6@'
p97
tp98
Rp99
ag10
(g14
S'4\xf1\x88\xcb\xb6\xf75@'
p100
tp101
Rp102
ag10
(g14
S'\xf4Qh\x11\xb4n5@'
p103
tp104
Rp105
ag10
(g14
S'\xae\xa5\xfa\xbe\xcf\x9d5@'
p106
tp107
Rp108
ag10
(g14
S'`\x1d{\xd7\xfb\xe43@'
p109
tp110
Rp111
ag10
(g14
S'\x16\xc1\x07\xd2\xf8n4@'
p112
tp113
Rp114
ag10
(g14
S'\x12$-@\xc2z5@'
p115
tp116
Rp117
ag10
(g14
S'\x07\x95s\xf2\xd8\x0f5@'
p118
tp119
Rp120
ag10
(g14
S'\xd7Q\xf1\xde\x8fh5@'
p121
tp122
Rp123
ag10
(g14
S'HZ16GW6@'
p124
tp125
Rp126
ag10
(g14
S'`}\x0c2\xd8\xe15@'
p127
tp128
Rp129
ag10
(g14
S'S\xf2\xf9\xb3z\xf44@'
p130
tp131
Rp132
ag10
(g14
S'\xd0\xb7\xe1:\xcb\xfe6@'
p133
tp134
Rp135
ag10
(g14
S'I\x8f;\x1e\xbc\xc16@'
p136
tp137
Rp138
asssss.