(dp0
S'../Data/sqlite_1.csv'
p1
(dp2
S'../Data/sqlite_33.csv'
p3
(dp4
F0.15
(dp5
S'abs_res'
p6
(dp7
S'bellwether'
p8
(lp9
cnumpy.core.multiarray
scalar
p10
(cnumpy
dtype
p11
(S'f8'
p12
I0
I1
tp13
Rp14
(I3
S'<'
p15
NNNI-1
I-1
I0
tp16
bS'\x11X9d\xd1C@A'
p17
tp18
Rp19
ag10
(g14
S'\xe1\xc1<1\xd3D@A'
p20
tp21
Rp22
ag10
(g14
S'\xd6\xea\x98\xb00D@A'
p23
tp24
Rp25
ag10
(g14
S'%1\x08|\x8dD@A'
p26
tp27
Rp28
ag10
(g14
S'\xf9F(s\x95D@A'
p29
tp30
Rp31
ag10
(g14
S'\xe5\xa5\x9b\x14rD@A'
p32
tp33
Rp34
ag10
(g14
S'\x91\x97n\xd2\x18D@A'
p35
tp36
Rp37
ag10
(g14
S'6\xdfO]gC@A'
p38
tp39
Rp40
ag10
(g14
S'\xfa\xfd\xd4XkD@A'
p41
tp42
Rp43
ag10
(g14
S'\xe8\xd0"\x8b@E@A'
p44
tp45
Rp46
ag10
(g14
S'\x08\x81\x95s\xedC@A'
p47
tp48
Rp49
ag10
(g14
S'733\x13jC@A'
p50
tp51
Rp52
ag10
(g14
S'\xcf\x13\xf5\xdf2D@A'
p53
tp54
Rp55
ag10
(g14
S'\x87\x16\xd9\x9e\x08D@A'
p56
tp57
Rp58
ag10
(g14
S'\x01\x7fj\\\xd3C@A'
p59
tp60
Rp61
ag10
(g14
S'Z\x8f\xc2\xf5\x8fD@A'
p62
tp63
Rp64
ag10
(g14
S'+\xce>\x0c\xe4C@A'
p65
tp66
Rp67
ag10
(g14
S'I\xe1z\x04\xfdC@A'
p68
tp69
Rp70
ag10
(g14
S'\xa0\x1a/\xad\xc0C@A'
p71
tp72
Rp73
ag10
(g14
S'\xb7\xe6B2uC@A'
p74
tp75
Rp76
asS'target'
p77
(lp78
g10
(g14
S'\xdbK7\x89A0O@'
p79
tp80
Rp81
ag10
(g14
S'\xa4\xc6K7\x89\x19M@'
p82
tp83
Rp84
ag10
(g14
S'\\9\xb4\xc8v\xe6P@'
p85
tp86
Rp87
ag10
(g14
S'\xabrh\x91\xed$M@'
p88
tp89
Rp90
ag10
(g14
S'\x9bn\x12\x83\xc0jN@'
p91
tp92
Rp93
ag10
(g14
S'\xa6\xf1\xd2Mb\xe8J@'
p94
tp95
Rp96
ag10
(g14
S'V\x8d\x97n\x12CN@'
p97
tp98
Rp99
ag10
(g14
S'2\xdd$\x06\x81\x85M@'
p100
tp101
Rp102
ag10
(g14
S'"Zd;\xdfoJ@'
p103
tp104
Rp105
ag10
(g14
S'\xf6\xfd\xd4x\xe9\xd6M@'
p106
tp107
Rp108
ag10
(g14
S'\xba\xf3\xfd\xd4x\x19Q@'
p109
tp110
Rp111
ag10
(g14
S'\x8e\x95C\x8bl\x17K@'
p112
tp113
Rp114
ag10
(g14
S'\xa1\x99\x99\x99\x99YK@'
p115
tp116
Rp117
ag10
(g14
S'm\x91\xed|?\x85K@'
p118
tp119
Rp120
ag10
(g14
S'\xe5~j\xbct\xebN@'
p121
tp122
Rp123
ag10
(g14
S'@`\xe5\xd0"\x9bO@'
p124
tp125
Rp126
ag10
(g14
S']\xe5\xd0"\xdbyO@'
p127
tp128
Rp129
ag10
(g14
S'\x94l\xe7\xfb\xa9iP@'
p130
tp131
Rp132
ag10
(g14
S'5\x89A`\xe5pL@'
p133
tp134
Rp135
ag10
(g14
S'\x89=\n\xd7\xa3@L@'
p136
tp137
Rp138
asssss.