(dp0
S'../Data/sqlite_38.csv'
p1
(dp2
S'../Data/sqlite_88.csv'
p3
(dp4
F0.25
(dp5
S'abs_res'
p6
(dp7
S'bellwether'
p8
(lp9
cnumpy.core.multiarray
scalar
p10
(cnumpy
dtype
p11
(S'f8'
p12
I0
I1
tp13
Rp14
(I3
S'<'
p15
NNNI-1
I-1
I0
tp16
bS'\xd5\xa3p\xc5\xc8G`A'
p17
tp18
Rp19
ag10
(g14
S'\x00\x00\x00PYg`A'
p20
tp21
Rp22
ag10
(g14
S'\x06:m\xbc\x04d`A'
p23
tp24
Rp25
ag10
(g14
S'\xb0G\xe1\x12tX`A'
p26
tp27
Rp28
ag10
(g14
S'\xb1G\xe1n\xbdd`A'
p29
tp30
Rp31
ag10
(g14
S')\xbfX\xaeRL`A'
p32
tp33
Rp34
ag10
(g14
S'G\xe1z\xc8\xa3:`A'
p35
tp36
Rp37
ag10
(g14
S'j\xa0\xd3\xf2\x0bs`A'
p38
tp39
Rp40
ag10
(g14
S'\xa9\rtVH\\`A'
p41
tp42
Rp43
ag10
(g14
S'>\xa7\r\x00\xfc]`A'
p44
tp45
Rp46
ag10
(g14
S'\xc7\xf5(\x1cV[`A'
p47
tp48
Rp49
ag10
(g14
S'\x10\x11\x11Y\x84``A'
p50
tp51
Rp52
ag10
(g14
S'\t:m\xe06c`A'
p53
tp54
Rp55
ag10
(g14
S'\xba\x1e\x85\x87\xd4X`A'
p56
tp57
Rp58
ag10
(g14
S'\\\x8f\xc2asg`A'
p59
tp60
Rp61
ag10
(g14
S'\x9b\xfcbu\xd3a`A'
p62
tp63
Rp64
ag10
(g14
S'|\xb1\xe4\xa3\xc0p`A'
p65
tp66
Rp67
ag10
(g14
S'\xce\xcc\xcc<\xcck`A'
p68
tp69
Rp70
ag10
(g14
S'\xf4\x8b%;\xcc_`A'
p71
tp72
Rp73
ag10
(g14
S'_,\xf9I\x03|`A'
p74
tp75
Rp76
asS'target'
p77
(lp78
g10
(g14
S'\xfe\xff\xff\xff)\xd34A'
p79
tp80
Rp81
ag10
(g14
S'gff\xe6\xf6\x1e2A'
p82
tp83
Rp84
ag10
(g14
S'\x02\x00\x00\xc0s\xe47A'
p85
tp86
Rp87
ag10
(g14
S'\n\xd7\xa3\xb0\xdc<1A'
p88
tp89
Rp90
ag10
(g14
S'\x9f\x99\x99\x19\x1a\x035A'
p91
tp92
Rp93
ag10
(g14
S'\x97\x99\x99\x99\xb4\xee,A'
p94
tp95
Rp96
ag10
(g14
S'R\xb8\x1e\x854]/A'
p97
tp98
Rp99
ag10
(g14
S"H\xe1zT'#2A"
p100
tp101
Rp102
ag10
(g14
S'r=\n\x17\x87\xa71A'
p103
tp104
Rp105
ag10
(g14
S'\xedQ\xb8^Q\x002A'
p106
tp107
Rp108
ag10
(g14
S'ffffD .A'
p109
tp110
Rp111
ag10
(g14
S'+\\\x8f\x82\x9d\x8d4A'
p112
tp113
Rp114
ag10
(g14
S'\x08\xd7\xa3p8\xc4-A'
p115
tp116
Rp117
ag10
(g14
S'Q\xb8\x1e\x85\xa6$+A'
p118
tp119
Rp120
ag10
(g14
S'G\xe1z\x14\xe7\xcb.A'
p121
tp122
Rp123
ag10
(g14
S'efff\x19~5A'
p124
tp125
Rp126
ag10
(g14
S'gff\xa6\xc1\xf52A'
p127
tp128
Rp129
ag10
(g14
S'\x98\x99\x99\x19z~/A'
p130
tp131
Rp132
ag10
(g14
S'\x11\xaeG\xe1!)-A'
p133
tp134
Rp135
ag10
(g14
S'\x14\xaeG!\xdb\xca4A'
p136
tp137
Rp138
asssss.