(dp0
S'../Data/sqlite_4.csv'
p1
(dp2
S'../Data/sqlite_6.csv'
p3
(dp4
F0.3
(dp5
S'abs_res'
p6
(dp7
S'bellwether'
p8
(lp9
cnumpy.core.multiarray
scalar
p10
(cnumpy
dtype
p11
(S'f8'
p12
I0
I1
tp13
Rp14
(I3
S'<'
p15
NNNI-1
I-1
I0
tp16
bS'\xbbK7Ii!;A'
p17
tp18
Rp19
ag10
(g14
S'*$M)(";A'
p20
tp21
Rp22
ag10
(g14
S'\xdfz\x14.\x90 ;A'
p23
tp24
Rp25
ag10
(g14
S'\x7f\xb3\x0f\x9f2#;A'
p26
tp27
Rp28
ag10
(g14
S'\xd8\xa5\x9b\xa4\x06";A'
p29
tp30
Rp31
ag10
(g14
S'\x01t\xda\xe0]";A'
p32
tp33
Rp34
ag10
(g14
S'@\x0c\x02\x0b\xb6!;A'
p35
tp36
Rp37
ag10
(g14
S'\xa7rhQ!!;A'
p38
tp39
Rp40
ag10
(g14
S'\xc1v\xbe\x9fZ#;A'
p41
tp42
Rp43
ag10
(g14
S'\x08\x1e\xcc3\xbf#;A'
p44
tp45
Rp46
ag10
(g14
S'9\xa7\r\x14\xe3#;A'
p47
tp48
Rp49
ag10
(g14
S'\xc9\x94\x8a\xb3<#;A'
p50
tp51
Rp52
ag10
(g14
S'\xbf\xe6B2\x92!;A'
p53
tp54
Rp55
ag10
(g14
S"'\xdd$\xe6\x82!;A"
p56
tp57
Rp58
ag10
(g14
S'%\x87\x16\x99\x9c!;A'
p59
tp60
Rp61
ag10
(g14
S'\x88\xde\x96U0";A'
p62
tp63
Rp64
ag10
(g14
S'\x96\xef\xa7\x869#;A'
p65
tp66
Rp67
ag10
(g14
S'rww\xb7\xc2 ;A'
p68
tp69
Rp70
ag10
(g14
S'\xfe9m\x00\x8a";A'
p71
tp72
Rp73
ag10
(g14
S'\x14K~\xf1.";A'
p74
tp75
Rp76
asS'target'
p77
(lp78
g10
(g14
S',\xdb\xf9~jLl@'
p79
tp80
Rp81
ag10
(g14
S'\xf3|?5^\x1an@'
p82
tp83
Rp84
ag10
(g14
S'\xce\xcc\xcc\xcc\xccPo@'
p85
tp86
Rp87
ag10
(g14
S'\xd0\xf7S\xe3\xa5\x1ap@'
p88
tp89
Rp90
ag10
(g14
S'\xa8\x9b\xc4 \xb0Rn@'
p91
tp92
Rp93
ag10
(g14
S'\xdc$\x06\x81\x95wo@'
p94
tp95
Rp96
ag10
(g14
S'n=\n\xd7\xa3\x10p@'
p97
tp98
Rp99
ag10
(g14
S'\x8a\x99\x99\x99\x99\x15n@'
p100
tp101
Rp102
ag10
(g14
S'9Q\xffF(On@'
p103
tp104
Rp105
ag10
(g14
S'R7\x89A`=o@'
p106
tp107
Rp108
ag10
(g14
S'3\x08\xac\x1cZ4n@'
p109
tp110
Rp111
ag10
(g14
S'Wd;\xdfOUm@'
p112
tp113
Rp114
ag10
(g14
S'\x02\xaa\xf1\xd2M\x0cn@'
p115
tp116
Rp117
ag10
(g14
S'~\xa2\xfe\x8dP\x0ep@'
p118
tp119
Rp120
ag10
(g14
S'\xb8\xf3\xfd\xd4x\xa1p@'
p121
tp122
Rp123
ag10
(g14
S'|\xe9&1\x08(n@'
p124
tp125
Rp126
ag10
(g14
S' \x06\x81\x95C\x0bn@'
p127
tp128
Rp129
ag10
(g14
S'\x9cE\xb6\xf3\xfd\x02o@'
p130
tp131
Rp132
ag10
(g14
S'X\xe1z\x14\xae\xabm@'
p133
tp134
Rp135
ag10
(g14
S'\x0c-\xb2\x9d\xef\x8fm@'
p136
tp137
Rp138
asssss.