(dp0
S'../Data/sqlite_32.csv'
p1
(dp2
S'../Data/sqlite_35.csv'
p3
(dp4
F0.2
(dp5
S'abs_res'
p6
(dp7
S'bellwether'
p8
(lp9
cnumpy.core.multiarray
scalar
p10
(cnumpy
dtype
p11
(S'f8'
p12
I0
I1
tp13
Rp14
(I3
S'<'
p15
NNNI-1
I-1
I0
tp16
bS'n\x91\xed\xfc\xbahBA'
p17
tp18
Rp19
ag10
(g14
S'nh\x91\xdd\x88jBA'
p20
tp21
Rp22
ag10
(g14
S'*\\\x8f\xe2DiBA'
p23
tp24
Rp25
ag10
(g14
S'\xdb\xa3pMujBA'
p26
tp27
Rp28
ag10
(g14
S'\xdb\xa3p]\xa7iBA'
p29
tp30
Rp31
ag10
(g14
S'\xd1\xcc\xcc\x8c\xaekBA'
p32
tp33
Rp34
ag10
(g14
S'\xb4\x1cZ\xe4\x9eiBA'
p35
tp36
Rp37
ag10
(g14
S'\xc5\xca\xa1E\xd1jBA'
p38
tp39
Rp40
ag10
(g14
S'\xc8 \xb0\xd2`iBA'
p41
tp42
Rp43
ag10
(g14
S'\xe7&1\x18%jBA'
p44
tp45
Rp46
ag10
(g14
S'\xbe\x1e\x85\xabPkBA'
p47
tp48
Rp49
ag10
(g14
S'\xd5\xcc\xcc\xccHgBA'
p50
tp51
Rp52
ag10
(g14
S',3338jBA'
p53
tp54
Rp55
ag10
(g14
S'\xef&1\x98\x96jBA'
p56
tp57
Rp58
ag10
(g14
S'<333\xb6jBA'
p59
tp60
Rp61
ag10
(g14
S'\xd2\xf7S\xd3\x91jBA'
p62
tp63
Rp64
ag10
(g14
S'\x1dZd\xfb2kBA'
p65
tp66
Rp67
ag10
(g14
S';^\xbaI^jBA'
p68
tp69
Rp70
ag10
(g14
S'\xdd\xce\xf7\xb3 jBA'
p71
tp72
Rp73
ag10
(g14
S'\xd8\xa3p\x8d\xc2iBA'
p74
tp75
Rp76
asS'target'
p77
(lp78
g10
(g14
S'\xdf\xa5\x9b\xc4 \x0ca@'
p79
tp80
Rp81
ag10
(g14
S'\\\xe3\xa5\x9b\xc4\xd8_@'
p82
tp83
Rp84
ag10
(g14
S's\x93\x18\x04V\xb2`@'
p85
tp86
Rp87
ag10
(g14
S'd\xe5\xd0"\xdb\xc1`@'
p88
tp89
Rp90
ag10
(g14
S' \x85\xebQ\xb8\xa6`@'
p91
tp92
Rp93
ag10
(g14
S'\x85\xc0\xca\xa1E\xb2a@'
p94
tp95
Rp96
ag10
(g14
S'\xc6\xca\xa1E\xb6\xaf^@'
p97
tp98
Rp99
ag10
(g14
S'\x82\x14\xaeG\xe1Z`@'
p100
tp101
Rp102
ag10
(g14
S'\x94\xc4 \xb0r\xa4^@'
p103
tp104
Rp105
ag10
(g14
S'\x92C\x8bl\xe7;a@'
p106
tp107
Rp108
ag10
(g14
S'\xa8p=\n\xd7\x0f_@'
p109
tp110
Rp111
ag10
(g14
S'\x1d\xb0rh\x91\xbd`@'
p112
tp113
Rp114
ag10
(g14
S'\xe6O\x8d\x97n\xca`@'
p115
tp116
Rp117
ag10
(g14
S'dffff\x1a_@'
p118
tp119
Rp120
ag10
(g14
S'fffff\x0ea@'
p121
tp122
Rp123
ag10
(g14
S'];\xdfO\x8d#`@'
p124
tp125
Rp126
ag10
(g14
S'\xfcU\x0e-\xb2\x9d]@'
p127
tp128
Rp129
ag10
(g14
S'\xfb\xa7\xc6K7A_@'
p130
tp131
Rp132
ag10
(g14
S'\xbd \xb0rh5_@'
p133
tp134
Rp135
ag10
(g14
S'\xb3\x9d\xef\xa7\xc6\xbb_@'
p136
tp137
Rp138
asssss.