(dp0
S'../Data/sqlite_46.csv'
p1
(dp2
S'../Data/sqlite_47.csv'
p3
(dp4
F0.15
(dp5
S'abs_res'
p6
(dp7
S'bellwether'
p8
(lp9
cnumpy.core.multiarray
scalar
p10
(cnumpy
dtype
p11
(S'f8'
p12
I0
I1
tp13
Rp14
(I3
S'<'
p15
NNNI-1
I-1
I0
tp16
bS'\xb1\x1cZ\xa4\xc4f@A'
p17
tp18
Rp19
ag10
(g14
S'0\x08\xac\xac\xe7f@A'
p20
tp21
Rp22
ag10
(g14
S'@\xb6\xf3m8f@A'
p23
tp24
Rp25
ag10
(g14
S'\x93\xed|\xff\x05g@A'
p26
tp27
Rp28
ag10
(g14
S'\x9e\x1a/\r\xc8f@A'
p29
tp30
Rp31
ag10
(g14
S'?`\xe5\xd0cf@A'
p32
tp33
Rp34
ag10
(g14
S')\x08\xac\xdc\xa3f@A'
p35
tp36
Rp37
ag10
(g14
S'$1\x08<\x10f@A'
p38
tp39
Rp40
ag10
(g14
S'\x80j\xbcT\xb4f@A'
p41
tp42
Rp43
ag10
(g14
S'D\xe1z\xf4*g@A'
p44
tp45
Rp46
ag10
(g14
S'uh\x91Mzf@A'
p47
tp48
Rp49
ag10
(g14
S'\r\xd7\xa3\x80Wf@A'
p50
tp51
Rp52
ag10
(g14
S'\x84A`e\xbbf@A'
p53
tp54
Rp55
ag10
(g14
S'R\xe3\xa5\x8b\x98f@A'
p56
tp57
Rp58
ag10
(g14
S'\xcd\xa1E6\xb6f@A'
p59
tp60
Rp61
ag10
(g14
S'\xfa\xd4x\x99\xcbf@A'
p62
tp63
Rp64
ag10
(g14
S'M7\x89q*g@A'
p65
tp66
Rp67
ag10
(g14
S'95^\x1a\xe2f@A'
p68
tp69
Rp70
ag10
(g14
S'8\xb4\xc8\xb6\x98f@A'
p71
tp72
Rp73
ag10
(g14
S'\xc7\xf5(\x1c\xe0f@A'
p74
tp75
Rp76
asS'target'
p77
(lp78
g10
(g14
S'\x10X9\xb4\xc8\x02]@'
p79
tp80
Rp81
ag10
(g14
S'sj\xbct\x93 _@'
p82
tp83
Rp84
ag10
(g14
S'!\x87\x16\xd9\xce/^@'
p85
tp86
Rp87
ag10
(g14
S'?5^\xbaI$Y@'
p88
tp89
Rp90
ag10
(g14
S'z\xe9&1\x08$[@'
p91
tp92
Rp93
ag10
(g14
S'\x07\xac\x1cZd\xbb]@'
p94
tp95
Rp96
ag10
(g14
S'\xaf\x1cZd;\x9fX@'
p97
tp98
Rp99
ag10
(g14
S'<\xdfO\x8d\x97\xe6Y@'
p100
tp101
Rp102
ag10
(g14
S'\xe8\xd2Mb\x10\xc8Y@'
p103
tp104
Rp105
ag10
(g14
S'\x9f\xef\xa7\xc6K\xe7X@'
p106
tp107
Rp108
ag10
(g14
S'\xf2~j\xbct\x03Y@'
p109
tp110
Rp111
ag10
(g14
S"'\xdb\xf9~j\xfcX@"
p112
tp113
Rp114
ag10
(g14
S'd\x91\xed|?5Y@'
p115
tp116
Rp117
ag10
(g14
S'\x8c\xebQ\xb8\x1e\xdd[@'
p118
tp119
Rp120
ag10
(g14
S'\xf5(\\\x8f\xc2AY@'
p121
tp122
Rp123
ag10
(g14
S'\x17Zd;\xdf\xe7]@'
p124
tp125
Rp126
ag10
(g14
S'\xc0\xcc\xcc\xcc\xcctZ@'
p127
tp128
Rp129
ag10
(g14
S'\xf4\xfd\xd4x\xe9\x16]@'
p130
tp131
Rp132
ag10
(g14
S'\xe9Q\xb8\x1e\x85\xbb\\@'
p133
tp134
Rp135
ag10
(g14
S'\x17\x81\x95C\x8b\xe4\\@'
p136
tp137
Rp138
asssss.