(dp0
S'../Data/sqlite_15.csv'
p1
(dp2
S'../Data/sqlite_34.csv'
p3
(dp4
F0.2
(dp5
S'abs_res'
p6
(dp7
S'bellwether'
p8
(lp9
cnumpy.core.multiarray
scalar
p10
(cnumpy
dtype
p11
(S'f8'
p12
I0
I1
tp13
Rp14
(I3
S'<'
p15
NNNI-1
I-1
I0
tp16
bS'\xf3~j\\pO>A'
p17
tp18
Rp19
ag10
(g14
S'\xccMb\x10\xadR>A'
p20
tp21
Rp22
ag10
(g14
S'Qd;\xff\nQ>A'
p23
tp24
Rp25
ag10
(g14
S'\xa5\rt\x9a\x84Q>A'
p26
tp27
Rp28
ag10
(g14
S'0$M\xa9\x92Q>A'
p29
tp30
Rp31
ag10
(g14
S'\x1d\xdb\xf9^\x9aQ>A'
p32
tp33
Rp34
ag10
(g14
S'\x13\x83\xc0\xcapP>A'
p35
tp36
Rp37
ag10
(g14
S'UUU\x95\x0eQ>A'
p38
tp39
Rp40
ag10
(g14
S'\x87]\x01ryP>A'
p41
tp42
Rp43
ag10
(g14
S'l\xa0\xd3f\x85P>A'
p44
tp45
Rp46
ag10
(g14
S'\xa3G\xe1\x1a\x06O>A'
p47
tp48
Rp49
ag10
(g14
S'/\xdfOmHQ>A'
p50
tp51
Rp52
ag10
(g14
S'\xe7\xd2M\x82\xf2O>A'
p53
tp54
Rp55
ag10
(g14
S']\xe5\xd0\x02=P>A'
p56
tp57
Rp58
ag10
(g14
S'\x82\x88\x88\xa85N>A'
p59
tp60
Rp61
ag10
(g14
S'v2z[\xc7O>A'
p62
tp63
Rp64
ag10
(g14
S'F\xe1z\x94WP>A'
p65
tp66
Rp67
ag10
(g14
S'h=\n\xf7~P>A'
p68
tp69
Rp70
ag10
(g14
S"'\xdb\xf9\xbe\xe6Q>A"
p71
tp72
Rp73
ag10
(g14
S'y\xcd\x85\xe4$P>A'
p74
tp75
Rp76
asS'target'
p77
(lp78
g10
(g14
S'2\xb2\x9d\xef\xa7\xe6h@'
p79
tp80
Rp81
ag10
(g14
S'\xefQ\xb8\x1e\x85kl@'
p82
tp83
Rp84
ag10
(g14
S'S\x8f\xc2\xf5(\xe0k@'
p85
tp86
Rp87
ag10
(g14
S']=\n\xd7\xa3Lo@'
p88
tp89
Rp90
ag10
(g14
S'\x8c\xebQ\xb8\x1e1j@'
p91
tp92
Rp93
ag10
(g14
S'\xfa\xa9\xf1\xd2MBk@'
p94
tp95
Rp96
ag10
(g14
S'\xdcx\xe9&1\xe4l@'
p97
tp98
Rp99
ag10
(g14
S'\xd2"\xdb\xf9~:l@'
p100
tp101
Rp102
ag10
(g14
S'\x19\x85\xebQ\xb8ni@'
p103
tp104
Rp105
ag10
(g14
S'\x1f/\xdd$\x063m@'
p106
tp107
Rp108
ag10
(g14
S'_\x10X9\xb4\xeck@'
p109
tp110
Rp111
ag10
(g14
S'\xc5\xf5(\\\x8f\x14l@'
p112
tp113
Rp114
ag10
(g14
S'\x14\xd9\xce\xf7S\xf5j@'
p115
tp116
Rp117
ag10
(g14
S'\r-\xb2\x9d\xef\xcfj@'
p118
tp119
Rp120
ag10
(g14
S'i\xe5\xd0"\xdb1m@'
p121
tp122
Rp123
ag10
(g14
S'\x1f1\x08\xac\x1c>n@'
p124
tp125
Rp126
ag10
(g14
S'\x04V\x0e-\xb2?j@'
p127
tp128
Rp129
ag10
(g14
S'\xf0(\\\x8f\xc2\xa9i@'
p130
tp131
Rp132
ag10
(g14
S'\xbf\xa1E\xb6\xf35m@'
p133
tp134
Rp135
ag10
(g14
S'\rX9\xb4\xc8pj@'
p136
tp137
Rp138
asssss.