(dp0
S'../Data/sqlite_79.csv'
p1
(dp2
S'../Data/sqlite_18.csv'
p3
(dp4
F0.25
(dp5
S'abs_res'
p6
(dp7
S'bellwether'
p8
(lp9
cnumpy.core.multiarray
scalar
p10
(cnumpy
dtype
p11
(S'f8'
p12
I0
I1
tp13
Rp14
(I3
S'<'
p15
NNNI-1
I-1
I0
tp16
bS'\x1e\x85\xeb\xf1V =A'
p17
tp18
Rp19
ag10
(g14
S'\xba\xe6B\x82\t"=A'
p20
tp21
Rp22
ag10
(g14
S'/\xfb\xf0\xb9\xc1 =A'
p23
tp24
Rp25
ag10
(g14
S'\x96\x0bI\x83\x07!=A'
p26
tp27
Rp28
ag10
(g14
S';\xc3\xae\xf0\x0b$=A'
p29
tp30
Rp31
ag10
(g14
S'\xb1+@\x0ey"=A'
p32
tp33
Rp34
ag10
(g14
S'\x82PF_\xa3!=A'
p35
tp36
Rp37
ag10
(g14
S'\x95Rq6\xdb!=A'
p38
tp39
Rp40
ag10
(g14
S'\xb6rh\xc1\xa6!=A'
p41
tp42
Rp43
ag10
(g14
S'm\x91\xed<\xf1!=A'
p44
tp45
Rp46
ag10
(g14
S"\x0b\x02+'\x96\x1f=A"
p47
tp48
Rp49
ag10
(g14
S'\xe3O\x8d\x97\x9d =A'
p50
tp51
Rp52
ag10
(g14
S'\xec\xfd\xd4x\x84 =A'
p53
tp54
Rp55
ag10
(g14
S'\xb8I\x0c\x82\xc0 =A'
p56
tp57
Rp58
ag10
(g14
S'L\xf0`\x9e\xc3!=A'
p59
tp60
Rp61
ag10
(g14
S'7^\xba\xb9F"=A'
p62
tp63
Rp64
ag10
(g14
S'\xf9\xd2M\xd2\xdb!=A'
p65
tp66
Rp67
ag10
(g14
S'\x05\x02+W) =A'
p68
tp69
Rp70
ag10
(g14
S'\t\x1e\xccso =A'
p71
tp72
Rp73
ag10
(g14
S'\x08\x81\x95\x83\xf2 =A'
p74
tp75
Rp76
asS'target'
p77
(lp78
g10
(g14
S'Xfff&7\xce@'
p79
tp80
Rp81
ag10
(g14
S'\xd2\xcc\xcc\xcc,\x1e\xd0@'
p82
tp83
Rp84
ag10
(g14
S'\xd1\xcc\xcc\xcc\x9c(\xd0@'
p85
tp86
Rp87
ag10
(g14
S'0333#d\xd1@'
p88
tp89
Rp90
ag10
(g14
S'.333S\x9b\xd0@'
p91
tp92
Rp93
ag10
(g14
S'\xc7\xcc\xcc\xcc\x8c1\xd1@'
p94
tp95
Rp96
ag10
(g14
S'833339\xd0@'
p97
tp98
Rp99
ag10
(g14
S'\xce\xcc\xcc\xcc\x0c\xf0\xcf@'
p100
tp101
Rp102
ag10
(g14
S'3333\xd3<\xd1@'
p103
tp104
Rp105
ag10
(g14
S'A333sp\xcf@'
p106
tp107
Rp108
ag10
(g14
S'4333\xb3y\xcf@'
p109
tp110
Rp111
ag10
(g14
S'\x98\x99\x99\x99\x19X\xd0@'
p112
tp113
Rp114
ag10
(g14
S'`fff\xe6\r\xcf@'
p115
tp116
Rp117
ag10
(g14
S'cfff\xb6C\xd1@'
p118
tp119
Rp120
ag10
(g14
S'bfffF\r\xce@'
p121
tp122
Rp123
ag10
(g14
S'\xcd\xcc\xcc\xcc\xec\x0b\xcf@'
p124
tp125
Rp126
ag10
(g14
S'afff\xe6]\xcf@'
p127
tp128
Rp129
ag10
(g14
S'.333\x93\x92\xd0@'
p130
tp131
Rp132
ag10
(g14
S'ifff\xd6E\xd1@'
p133
tp134
Rp135
ag10
(g14
S'\xf9\xff\xff\xff\xbfi\xd0@'
p136
tp137
Rp138
asssss.