(dp0
S'../Data/sqlite_4.csv'
p1
(dp2
S'../Data/sqlite_48.csv'
p3
(dp4
F0.4
(dp5
S'abs_res'
p6
(dp7
S'bellwether'
p8
(lp9
cnumpy.core.multiarray
scalar
p10
(cnumpy
dtype
p11
(S'f8'
p12
I0
I1
tp13
Rp14
(I3
S'<'
p15
NNNI-1
I-1
I0
tp16
bS'\x98n\x12\xa3EA7A'
p17
tp18
Rp19
ag10
(g14
S'\xdb\xf9~\x8a\x8f>7A'
p20
tp21
Rp22
ag10
(g14
S'\x0ct\xda\xc0uB7A'
p23
tp24
Rp25
ag10
(g14
S'\x80\x07\xf3\xa4\xa5>7A'
p26
tp27
Rp28
ag10
(g14
S'\x8e%\xbfX/@7A'
p29
tp30
Rp31
ag10
(g14
S'\x8ePF/\x01@7A'
p32
tp33
Rp34
ag10
(g14
S"\x86\x88\x88\xe8'A7A"
p35
tp36
Rp37
ag10
(g14
S'2Q\xff&\xb3C7A'
p38
tp39
Rp40
ag10
(g14
S'I\x9aR\x11\xd5B7A'
p41
tp42
Rp43
ag10
(g14
S'\xf1`\x9ehFB7A'
p44
tp45
Rp46
ag10
(g14
S'|0O\x14\xd4@7A'
p47
tp48
Rp49
ag10
(g14
S'4z[\x96\x99A7A'
p50
tp51
Rp52
ag10
(g14
S'X9\xb4h\x04>7A'
p53
tp54
Rp55
ag10
(g14
S'\xdc1\xc1c\x1aA7A'
p56
tp57
Rp58
ag10
(g14
S'\xd9\x87\xcfP\x02@7A'
p59
tp60
Rp61
ag10
(g14
S'9m\xa0s\xf4A7A'
p62
tp63
Rp64
ag10
(g14
S'G\xb6\xf3\x9d\xa3A7A'
p65
tp66
Rp67
ag10
(g14
S'\xd7\x94\x8as\xd1@7A'
p68
tp69
Rp70
ag10
(g14
S'V\x80\xdc\xcb+B7A'
p71
tp72
Rp73
ag10
(g14
S'U\x1b\xe8\xf4eA7A'
p74
tp75
Rp76
asS'target'
p77
(lp78
g10
(g14
S'\xb7\xc8v\xbe\x9f\xa6k@'
p79
tp80
Rp81
ag10
(g14
S'\xe4\xa5\x9b\xc4 \x86k@'
p82
tp83
Rp84
ag10
(g14
S'\xb5\x1cZd;\xd7j@'
p85
tp86
Rp87
ag10
(g14
S'\x0b\xac\x1cZd\x9bi@'
p88
tp89
Rp90
ag10
(g14
S'\xa5\x1cZd;\x0fl@'
p91
tp92
Rp93
ag10
(g14
S'K\x0c\x02+\x87\x1cj@'
p94
tp95
Rp96
ag10
(g14
S'\x18\x85\xebQ\xb8\x8ek@'
p97
tp98
Rp99
ag10
(g14
S'\xbcI\x0c\x02++j@'
p100
tp101
Rp102
ag10
(g14
S'$\xdb\xf9~j$j@'
p103
tp104
Rp105
ag10
(g14
S'\xec\xa5\x9b\xc4 \xa4k@'
p106
tp107
Rp108
ag10
(g14
S'\x12\xd7\xa3p=vj@'
p109
tp110
Rp111
ag10
(g14
S'\x00\x00\x00\x00\x00Fk@'
p112
tp113
Rp114
ag10
(g14
S'z\x14\xaeG\xe1\x90j@'
p115
tp116
Rp117
ag10
(g14
S'\x0c\x02+\x87\x16\x05l@'
p118
tp119
Rp120
ag10
(g14
S'\x02\x7fj\xbct\xb5i@'
p121
tp122
Rp123
ag10
(g14
S'83333\xddj@'
p124
tp125
Rp126
ag10
(g14
S'n\x91\xed|?gk@'
p127
tp128
Rp129
ag10
(g14
S'\xadrh\x91\xed\xcel@'
p130
tp131
Rp132
ag10
(g14
S':5^\xbaI\x08m@'
p133
tp134
Rp135
ag10
(g14
S'\xb1G\xe1z\x14Hk@'
p136
tp137
Rp138
asssss.