(dp0
S'../Data/sqlite_67.csv'
p1
(dp2
S'../Data/sqlite_79.csv'
p3
(dp4
F0.2
(dp5
S'abs_res'
p6
(dp7
S'bellwether'
p8
(lp9
cnumpy.core.multiarray
scalar
p10
(cnumpy
dtype
p11
(S'f8'
p12
I0
I1
tp13
Rp14
(I3
S'<'
p15
NNNI-1
I-1
I0
tp16
bS'\x8c\xed|\xbf\xc0[!A'
p17
tp18
Rp19
ag10
(g14
S'\xac\xf1\xd2\x8d\xba[!A'
p20
tp21
Rp22
ag10
(g14
S'\xdd\xc1<\xd1r[!A'
p23
tp24
Rp25
ag10
(g14
S'\xf0\x8b%\x7f\xd2Z!A'
p26
tp27
Rp28
ag10
(g14
S'\x94\xb5:\xa6][!A'
p29
tp30
Rp31
ag10
(g14
S'Q\x0c\x02\xaby[!A'
p32
tp33
Rp34
ag10
(g14
S'\x12\xaeG\xe1\x94[!A'
p35
tp36
Rp37
ag10
(g14
S'\xc7\xbd\xe6\x82B[!A'
p38
tp39
Rp40
ag10
(g14
S"'\x87\x16\x99P\\!A"
p41
tp42
Rp43
ag10
(g14
S'\x83y\xa2\xbe\x9c\\!A'
p44
tp45
Rp46
ag10
(g14
S'\xb0+@\xee\x17]!A'
p47
tp48
Rp49
ag10
(g14
S'\x00\x00\x00@\x9cZ!A'
p50
tp51
Rp52
ag10
(g14
S'\xa3p=\xca\x12\\!A'
p53
tp54
Rp55
ag10
(g14
S'*\x96\xfcb\x9c[!A'
p56
tp57
Rp58
ag10
(g14
S'I\xf0`^t\\!A'
p59
tp60
Rp61
ag10
(g14
S'Lb\x10\x18f[!A'
p62
tp63
Rp64
ag10
(g14
S'\xc0X\xf2K\x81[!A'
p65
tp66
Rp67
ag10
(g14
S'Y\xd4\xbf\x11p[!A'
p68
tp69
Rp70
ag10
(g14
S'*\xdb\xf9>\xbe[!A'
p71
tp72
Rp73
ag10
(g14
S'`;\xdfO\xdc[!A'
p74
tp75
Rp76
asS'target'
p77
(lp78
g10
(g14
S'/\xb4\xc8v\xbe\x05t@'
p79
tp80
Rp81
ag10
(g14
S'\xda\xa5\x9b\xc4 Vs@'
p82
tp83
Rp84
ag10
(g14
S'0\x08\xac\x1cZ;r@'
p85
tp86
Rp87
ag10
(g14
S'L7\x89A`yq@'
p88
tp89
Rp90
ag10
(g14
S'\xe0O\x8d\x97n\xe2u@'
p91
tp92
Rp93
ag10
(g14
S'c\xbct\x93\x18\x1cv@'
p94
tp95
Rp96
ag10
(g14
S'\x7f\x95C\x8bl\x86r@'
p97
tp98
Rp99
ag10
(g14
S'\x11X9\xb4\xc8fp@'
p100
tp101
Rp102
ag10
(g14
S'\xfa\xff\xff\xff\xff{q@'
p103
tp104
Rp105
ag10
(g14
S'z?5^\xba*s@'
p106
tp107
Rp108
ag10
(g14
S'}\xebQ\xb8\x1e\ro@'
p109
tp110
Rp111
ag10
(g14
S'7\x89A`\xe5Dp@'
p112
tp113
Rp114
ag10
(g14
S'=`\xe5\xd0"\xfdq@'
p115
tp116
Rp117
ag10
(g14
S'\xb9I\x0c\x02+wt@'
p118
tp119
Rp120
ag10
(g14
S'\xb7\x9f\x1a/\xdd t@'
p121
tp122
Rp123
ag10
(g14
S'j=\n\xd7\xa3\xfcp@'
p124
tp125
Rp126
ag10
(g14
S'\xc3v\xbe\x9f\x1a\x7fp@'
p127
tp128
Rp129
ag10
(g14
S'\x9fG\xe1z\x14Fs@'
p130
tp131
Rp132
ag10
(g14
S'W\xe3\xa5\x9b\xc4\x1cq@'
p133
tp134
Rp135
ag10
(g14
S'\xc2\xca\xa1E\xb6^w@'
p136
tp137
Rp138
asssss.