(dp0
S'../Data/sqlite_15.csv'
p1
(dp2
S'../Data/sqlite_20.csv'
p3
(dp4
F0.25
(dp5
S'abs_res'
p6
(dp7
S'bellwether'
p8
(lp9
cnumpy.core.multiarray
scalar
p10
(cnumpy
dtype
p11
(S'f8'
p12
I0
I1
tp13
Rp14
(I3
S'<'
p15
NNNI-1
I-1
I0
tp16
bS'\xeeD\xfd\xdb\x02i<A'
p17
tp18
Rp19
ag10
(g14
S'\xb3\x1cZ\xa4<h<A'
p20
tp21
Rp22
ag10
(g14
S'X\x8f\xc2U\xebg<A'
p23
tp24
Rp25
ag10
(g14
S'C(\xa3wOg<A'
p26
tp27
Rp28
ag10
(g14
S'\xa7p=\xea\xbeg<A'
p29
tp30
Rp31
ag10
(g14
S'\x1c\xa1\x8c\x1e\xfbe<A'
p32
tp33
Rp34
ag10
(g14
S'r0O\x94\x02g<A'
p35
tp36
Rp37
ag10
(g14
S'\xc0\xbd\xe6b\xb7f<A'
p38
tp39
Rp40
ag10
(g14
S'\xb8\x1e\x85\x0bYi<A'
p41
tp42
Rp43
ag10
(g14
S'm\xda@\xc7\xb0h<A'
p44
tp45
Rp46
ag10
(g14
S'QUU\xb5\x0fg<A'
p47
tp48
Rp49
ag10
(g14
S'[\xe5\xd0\x82\x0eh<A'
p50
tp51
Rp52
ag10
(g14
S'k\xa0\xd3F\x88f<A'
p53
tp54
Rp55
ag10
(g14
S'\x03\xf3D](g<A'
p56
tp57
Rp58
ag10
(g14
S's\xbe\x9f\xda\x9cf<A'
p59
tp60
Rp61
ag10
(g14
S'\xa38\xfb0\x9bg<A'
p62
tp63
Rp64
ag10
(g14
S'l\xd8\x15`\xcbh<A'
p65
tp66
Rp67
ag10
(g14
S'\xd6x\xe9&(g<A'
p68
tp69
Rp70
ag10
(g14
S'w\xe9&\xd1\x80g<A'
p71
tp72
Rp73
ag10
(g14
S'\xe7B\xd24\xcch<A'
p74
tp75
Rp76
asS'target'
p77
(lp78
g10
(g14
S'\xf7\xa9\xf1\xd2Mcp@'
p79
tp80
Rp81
ag10
(g14
S'\xd2x\xe9&1\xdcn@'
p82
tp83
Rp84
ag10
(g14
S'`\x10X9\xb4Tp@'
p85
tp86
Rp87
ag10
(g14
S'v\xe7\xfb\xa9\xf1\xf6o@'
p88
tp89
Rp90
ag10
(g14
S'Yd;\xdfO>p@'
p91
tp92
Rp93
ag10
(g14
S'v=\n\xd7\xa3\xcco@'
p94
tp95
Rp96
ag10
(g14
S'\xda\xa3p=\nhp@'
p97
tp98
Rp99
ag10
(g14
S'\x91\xed|?5\xe6p@'
p100
tp101
Rp102
ag10
(g14
S'0\xb2\x9d\xef\xa7\xf8n@'
p103
tp104
Rp105
ag10
(g14
S'\xb1I\x0c\x02+\x07n@'
p106
tp107
Rp108
ag10
(g14
S'S\xb8\x1e\x85\xeb\xa1p@'
p109
tp110
Rp111
ag10
(g14
S'p=\n\xd7\xa3bp@'
p112
tp113
Rp114
ag10
(g14
S'\x89A`\xe5\xd0\xfam@'
p115
tp116
Rp117
ag10
(g14
S'/\xdd$\x06\x813p@'
p118
tp119
Rp120
ag10
(g14
S'\xb3rh\x91\xed\xban@'
p121
tp122
Rp123
ag10
(g14
S'\x15X9\xb4\xc8hq@'
p124
tp125
Rp126
ag10
(g14
S'\x7f\xe9&1\x08$p@'
p127
tp128
Rp129
ag10
(g14
S'2^\xbaI\x0c\xeao@'
p130
tp131
Rp132
ag10
(g14
S'7\x89A`\xe5\xdap@'
p133
tp134
Rp135
ag10
(g14
S'D`\xe5\xd0"co@'
p136
tp137
Rp138
asssss.