(dp0
S'../Data/sqlite_1.csv'
p1
(dp2
S'../Data/sqlite_31.csv'
p3
(dp4
F0.15
(dp5
S'abs_res'
p6
(dp7
S'bellwether'
p8
(lp9
cnumpy.core.multiarray
scalar
p10
(cnumpy
dtype
p11
(S'f8'
p12
I0
I1
tp13
Rp14
(I3
S'<'
p15
NNNI-1
I-1
I0
tp16
bS'\xd5"\xdb)\xfe9@A'
p17
tp18
Rp19
ag10
(g14
S',\x15g?{9@A'
p20
tp21
Rp22
ag10
(g14
S'\t\xac\x1c\xda/9@A'
p23
tp24
Rp25
ag10
(g14
S'\xe7\xd0"Km9@A'
p26
tp27
Rp28
ag10
(g14
S'\xd0\xf7SS\x059@A'
p29
tp30
Rp31
ag10
(g14
S'\xedQ\xb8\xce\xfb9@A'
p32
tp33
Rp34
ag10
(g14
S'\xdc$\x06\xb1\xcc9@A'
p35
tp36
Rp37
ag10
(g14
S'@`\xe5P\xdb9@A'
p38
tp39
Rp40
ag10
(g14
S'\xfd\xd4x\xa9\xb99@A'
p41
tp42
Rp43
ag10
(g14
S's=\n\xe7\xf18@A'
p44
tp45
Rp46
ag10
(g14
S'5\xa5\xe2\xdc\xff9@A'
p47
tp48
Rp49
ag10
(g14
S'g;\xdf\xcf\xc59@A'
p50
tp51
Rp52
ag10
(g14
S'\xe1\xec\xc3\xe7\x869@A'
p53
tp54
Rp55
ag10
(g14
S'\xbcI\x0cBF8@A'
p56
tp57
Rp58
ag10
(g14
S'\xdd$\x06\x91\x049@A'
p59
tp60
Rp61
ag10
(g14
S'w\xda@G\x1b9@A'
p62
tp63
Rp64
ag10
(g14
S'\xf6\xe13l\xf98@A'
p65
tp66
Rp67
ag10
(g14
S'\x98\xe0\xc1,\xc68@A'
p68
tp69
Rp70
ag10
(g14
S'\xc4\xd9\x87\xafo9@A'
p71
tp72
Rp73
ag10
(g14
S'\x1d/\xdd\x84h9@A'
p74
tp75
Rp76
asS'target'
p77
(lp78
g10
(g14
S'\xb2G\xe1z\x14\xaee@'
p79
tp80
Rp81
ag10
(g14
S'jffff\xb4e@'
p82
tp83
Rp84
ag10
(g14
S'p\x14\xaeG\xe1\xc2e@'
p85
tp86
Rp87
ag10
(g14
S'\t\xd5x\xe9&\xedf@'
p88
tp89
Rp90
ag10
(g14
S'\x88\xebQ\xb8\x1e5f@'
p91
tp92
Rp93
ag10
(g14
S'\xf6(\\\x8f\xc2\x15e@'
p94
tp95
Rp96
ag10
(g14
S'\xad\xf1\xd2Mb\x08g@'
p97
tp98
Rp99
ag10
(g14
S'f\x12\x83\xc0\xca\x01e@'
p100
tp101
Rp102
ag10
(g14
S'd\x91\xed|?\x17d@'
p103
tp104
Rp105
ag10
(g14
S'\xd5"\xdb\xf9~Je@'
p106
tp107
Rp108
ag10
(g14
S'9^\xbaI\x0c"h@'
p109
tp110
Rp111
ag10
(g14
S'\r\xd7\xa3p=Nd@'
p112
tp113
Rp114
ag10
(g14
S'\xb1G\xe1z\x14\xfad@'
p115
tp116
Rp117
ag10
(g14
S'(\xb0rh\x91\xb1g@'
p118
tp119
Rp120
ag10
(g14
S'\x84\x16\xd9\xce\xf7\xcbd@'
p121
tp122
Rp123
ag10
(g14
S'\xd7$\x06\x81\x95We@'
p124
tp125
Rp126
ag10
(g14
S'\xc3K7\x89A\xc6d@'
p127
tp128
Rp129
ag10
(g14
S'\xebQ\xb8\x1e\x85\xf1d@'
p130
tp131
Rp132
ag10
(g14
S'A\xdfO\x8d\x97\x98g@'
p133
tp134
Rp135
ag10
(g14
S'\x19X9\xb4\xc8>d@'
p136
tp137
Rp138
asssss.