(dp0
S'../Data/sqlite_5.csv'
p1
(dp2
S'../Data/sqlite_94.csv'
p3
(dp4
F0.35
(dp5
S'mmre'
p6
(dp7
S'bellwether'
p8
(lp9
cnumpy.core.multiarray
scalar
p10
(cnumpy
dtype
p11
(S'f8'
p12
I0
I1
tp13
Rp14
(I3
S'<'
p15
NNNI-1
I-1
I0
tp16
bS'\x85\xa43\x13\xf8YX@'
p17
tp18
Rp19
ag10
(g14
S'7o.~\x99YX@'
p20
tp21
Rp22
ag10
(g14
S"\xdbQ\xd6'\xc6VX@"
p23
tp24
Rp25
ag10
(g14
S'J\xc2\xdc\xe8qYX@'
p26
tp27
Rp28
ag10
(g14
S' ZF\xda}YX@'
p29
tp30
Rp31
ag10
(g14
S'\x89I.\xef:XX@'
p32
tp33
Rp34
ag10
(g14
S'[\x87^Z0ZX@'
p35
tp36
Rp37
ag10
(g14
S'\x07=\xdd\xd4\xafXX@'
p38
tp39
Rp40
ag10
(g14
S';\x96\x8aNP[X@'
p41
tp42
Rp43
ag10
(g14
S'y\xa9\xf9[6YX@'
p44
tp45
Rp46
ag10
(g14
S'\x1e\xf1\xa2\x08#YX@'
p47
tp48
Rp49
ag10
(g14
S'\xcd\xa3\xfa\xc2\xdcZX@'
p50
tp51
Rp52
ag10
(g14
S'\x9b\xfa\x8br\xa6ZX@'
p53
tp54
Rp55
ag10
(g14
S'>\xed\xc8\x8cKZX@'
p56
tp57
Rp58
ag10
(g14
S'\x07\x8d\x07a\xfdYX@'
p59
tp60
Rp61
ag10
(g14
S'\xd6\xb2\xf5foXX@'
p62
tp63
Rp64
ag10
(g14
S'\xabH\x15[FXX@'
p65
tp66
Rp67
ag10
(g14
S't\xc2\xb5\x0bgYX@'
p68
tp69
Rp70
ag10
(g14
S'*\x0b\xc0\x18sYX@'
p71
tp72
Rp73
ag10
(g14
S'\xf9\xa08\xd1\x16[X@'
p74
tp75
Rp76
asS'target'
p77
(lp78
g10
(g14
S']\xbd\x07|\x0b\xaeK@'
p79
tp80
Rp81
ag10
(g14
S'\xe8\x93E\x17\xe4\xf9M@'
p82
tp83
Rp84
ag10
(g14
S' %W1B\xa1P@'
p85
tp86
Rp87
ag10
(g14
S'\xcb\x19A\x8e\xd9\x8bT@'
p88
tp89
Rp90
ag10
(g14
S'\xb4\xa1\x0f\xc6\xc7jX@'
p91
tp92
Rp93
ag10
(g14
S'sL\xd2\xf4\x9c\xbaR@'
p94
tp95
Rp96
ag10
(g14
S'w\xc9\x92^\xcf\x8fO@'
p97
tp98
Rp99
ag10
(g14
S'\\\xda\xcca\x1a\xbdX@'
p100
tp101
Rp102
ag10
(g14
S'q\xb74\n\xcaDR@'
p103
tp104
Rp105
ag10
(g14
S'\xed\xd6!<&\x11S@'
p106
tp107
Rp108
ag10
(g14
S'\x0cs\x0eiJ[Q@'
p109
tp110
Rp111
ag10
(g14
S'fFI\xd4\xc2\xbbG@'
p112
tp113
Rp114
ag10
(g14
S'\xdenC\xb1\x8d\xd0M@'
p115
tp116
Rp117
ag10
(g14
S'\xe4\xb5\xcb:\x96\x1bQ@'
p118
tp119
Rp120
ag10
(g14
S'`O\xb1\xd9\r\xb6L@'
p121
tp122
Rp123
ag10
(g14
S' \xc9\x87S\xa3\xa7T@'
p124
tp125
Rp126
ag10
(g14
S'(\xf7y\x07\xc9\xfeN@'
p127
tp128
Rp129
ag10
(g14
S'W\x1c\x99\x9a\x01\x89K@'
p130
tp131
Rp132
ag10
(g14
S'\x0f\n8\x18\xf0\x7fR@'
p133
tp134
Rp135
ag10
(g14
S'9\xd6\xd0AS\x98Q@'
p136
tp137
Rp138
asssss.