(dp0
S'../Data/sqlite_47.csv'
p1
(dp2
S'../Data/sqlite_73.csv'
p3
(dp4
F0.3
(dp5
S'mmre'
p6
(dp7
S'bellwether'
p8
(lp9
cnumpy.core.multiarray
scalar
p10
(cnumpy
dtype
p11
(S'f8'
p12
I0
I1
tp13
Rp14
(I3
S'<'
p15
NNNI-1
I-1
I0
tp16
bS'z}\xfb\xc78*M@'
p17
tp18
Rp19
ag10
(g14
S'\xf0|^\na*M@'
p20
tp21
Rp22
ag10
(g14
S'\xb0:\xf9\xa8\x05;M@'
p23
tp24
Rp25
ag10
(g14
S"\xaf@\xaf\xe6\x9e'M@"
p26
tp27
Rp28
ag10
(g14
S'\xbeH\xad\x11\xa2EM@'
p29
tp30
Rp31
ag10
(g14
S'}\x8e\xf5\xef\xbf=M@'
p32
tp33
Rp34
ag10
(g14
S'0\x9f\xf9\xe8/KM@'
p35
tp36
Rp37
ag10
(g14
S'(>\x95\xea\xb13M@'
p38
tp39
Rp40
ag10
(g14
S'9\x91\x04\xdej\x1eM@'
p41
tp42
Rp43
ag10
(g14
S'0lg\x03@&M@'
p44
tp45
Rp46
ag10
(g14
S'\xbc<k\xfc->M@'
p47
tp48
Rp49
ag10
(g14
S'\xb9\x0c\x8b\xd3\x1f,M@'
p50
tp51
Rp52
ag10
(g14
S',.\xd8\x9c\x89,M@'
p53
tp54
Rp55
ag10
(g14
S'\xe0x\xfb\xf1\x85?M@'
p56
tp57
Rp58
ag10
(g14
S'\xa6q\x00Pm/M@'
p59
tp60
Rp61
ag10
(g14
S'K\x08\x88 \x18/M@'
p62
tp63
Rp64
ag10
(g14
S'gPk\x02\xcf0M@'
p65
tp66
Rp67
ag10
(g14
S'\xe2M\xc8L\xba:M@'
p68
tp69
Rp70
ag10
(g14
S'AR\xd8\xa6\xe5,M@'
p71
tp72
Rp73
ag10
(g14
S'\xa1>\x9eT\xc5/M@'
p74
tp75
Rp76
asS'target'
p77
(lp78
g10
(g14
S'G\xcf\xd7$\xf3\xb8,@'
p79
tp80
Rp81
ag10
(g14
S'\x88ay\x12\xc3\xc2-@'
p82
tp83
Rp84
ag10
(g14
S'\x10a\xce\x0fy\xa5+@'
p85
tp86
Rp87
ag10
(g14
S'\xadw\x12\xd5\x99~,@'
p88
tp89
Rp90
ag10
(g14
S'cuOn>\x10-@'
p91
tp92
Rp93
ag10
(g14
S'td0\xf3\xcf%*@'
p94
tp95
Rp96
ag10
(g14
S'9?\x7fZ\xb8\x8b*@'
p97
tp98
Rp99
ag10
(g14
S'\xe2\x8b\n\xabB\x12+@'
p100
tp101
Rp102
ag10
(g14
S'y\xf0\xbd\x14al,@'
p103
tp104
Rp105
ag10
(g14
S'\xbazp\x97z\x13/@'
p106
tp107
Rp108
ag10
(g14
S'\x08\xaab\xd6rX)@'
p109
tp110
Rp111
ag10
(g14
S'x\xea\xcf5\x05V+@'
p112
tp113
Rp114
ag10
(g14
S']\xd2C\xac\x82f,@'
p115
tp116
Rp117
ag10
(g14
S'\xbb>\xd9\x03\xd4u,@'
p118
tp119
Rp120
ag10
(g14
S'\x03\xc4\x13\x18G\xf2*@'
p121
tp122
Rp123
ag10
(g14
S'#\xc1\x88X\xb2[,@'
p124
tp125
Rp126
ag10
(g14
S'\xd5\xae\xa2\xf3)\x9e*@'
p127
tp128
Rp129
ag10
(g14
S'\xe8B\x94\xbb_v*@'
p130
tp131
Rp132
ag10
(g14
S'8\x05\x8e\xde\x088-@'
p133
tp134
Rp135
ag10
(g14
S'\xa6\x1d\xd2\x07\x82\x0f+@'
p136
tp137
Rp138
asssss.