(dp0
S'../Data/sqlite_8.csv'
p1
(dp2
S'../Data/sqlite_59.csv'
p3
(dp4
F0.15
(dp5
S'mmre'
p6
(dp7
S'bellwether'
p8
(lp9
cnumpy.core.multiarray
scalar
p10
(cnumpy
dtype
p11
(S'f8'
p12
I0
I1
tp13
Rp14
(I3
S'<'
p15
NNNI-1
I-1
I0
tp16
bS'S\x16\xab\xca\xed;T@'
p17
tp18
Rp19
ag10
(g14
S'm\xb5%\r\t;T@'
p20
tp21
Rp22
ag10
(g14
S'Z0X\x943:T@'
p23
tp24
Rp25
ag10
(g14
S'{\xdf\xea\x93v9T@'
p26
tp27
Rp28
ag10
(g14
S'qs\xdf\xb1n8T@'
p29
tp30
Rp31
ag10
(g14
S'\xebdq$\xe89T@'
p32
tp33
Rp34
ag10
(g14
S'n\xc9\xcb=><T@'
p35
tp36
Rp37
ag10
(g14
S'>o\x0cT\x9b9T@'
p38
tp39
Rp40
ag10
(g14
S'\x03<\x12\x01\xed:T@'
p41
tp42
Rp43
ag10
(g14
S'O\x0bUa\xec:T@'
p44
tp45
Rp46
ag10
(g14
S'GQ\xdc\x1c\x95<T@'
p47
tp48
Rp49
ag10
(g14
S'\xe5o\xf5\xa40<T@'
p50
tp51
Rp52
ag10
(g14
S'\t\xcd\xa0m\xa09T@'
p53
tp54
Rp55
ag10
(g14
S'\x05T\x19\xa2*;T@'
p56
tp57
Rp58
ag10
(g14
S'Sl\xd2\xfd27T@'
p59
tp60
Rp61
ag10
(g14
S'\xe4g\xdbH8<T@'
p62
tp63
Rp64
ag10
(g14
S"'\xda^\xbb\xd97T@"
p65
tp66
Rp67
ag10
(g14
S"q\xe4Bl'?T@"
p68
tp69
Rp70
ag10
(g14
S'\x17l\xc3\x80\xc29T@'
p71
tp72
Rp73
ag10
(g14
S'\xc4\x00\xa6\xeeV<T@'
p74
tp75
Rp76
asS'target'
p77
(lp78
g10
(g14
S'\x0e\xad\xd2\xeb4\xa0&@'
p79
tp80
Rp81
ag10
(g14
S'\x9a\x8c\xce\xdc\xf0m%@'
p82
tp83
Rp84
ag10
(g14
S'\xb1\xdf\x84\xc6\x1f\xaa$@'
p85
tp86
Rp87
ag10
(g14
S"u\x7f&\xfch,'@"
p88
tp89
Rp90
ag10
(g14
S"\xab\xe7c\xdb\x1e\x86'@"
p91
tp92
Rp93
ag10
(g14
S'\x88f\xb3I&\xf5$@'
p94
tp95
Rp96
ag10
(g14
S'\x19\n\x97\xf6\x83\x9e&@'
p97
tp98
Rp99
ag10
(g14
S'\x81\xcf\xe6*\x8er&@'
p100
tp101
Rp102
ag10
(g14
S'\x8d\x0b&\xb4\xbf\x90#@'
p103
tp104
Rp105
ag10
(g14
S'\xc9;J\x99U\xba%@'
p106
tp107
Rp108
ag10
(g14
S'0\xf8\xab\x85\xf0\xa5&@'
p109
tp110
Rp111
ag10
(g14
S'>\x95\xee\xa6\xfa\xd1%@'
p112
tp113
Rp114
ag10
(g14
S'\n(u\x1e\n0&@'
p115
tp116
Rp117
ag10
(g14
S'\xd0p\xd8P\x14\x8e%@'
p118
tp119
Rp120
ag10
(g14
S"\x1c\xc8\x11\xb4\xaaK'@"
p121
tp122
Rp123
ag10
(g14
S'K\xee\xd7\x8e\xe9:&@'
p124
tp125
Rp126
ag10
(g14
S']a\xb7\xea\x1c\x8d&@'
p127
tp128
Rp129
ag10
(g14
S'C\x93We\x99\xc2%@'
p130
tp131
Rp132
ag10
(g14
S'\x00r\x8a~\nC&@'
p133
tp134
Rp135
ag10
(g14
S'K\xa5yWlt$@'
p136
tp137
Rp138
asssss.