(dp0
S'../Data/sqlite_52.csv'
p1
(dp2
S'../Data/sqlite_88.csv'
p3
(dp4
F0.05
(dp5
S'abs_res'
p6
(dp7
S'bellwether'
p8
(lp9
cnumpy.core.multiarray
scalar
p10
(cnumpy
dtype
p11
(S'f8'
p12
I0
I1
tp13
Rp14
(I3
S'<'
p15
NNNI-1
I-1
I0
tp16
bS'\xa2p=F\xdfFdA'
p17
tp18
Rp19
ag10
(g14
S'.\\\x8f2/VdA'
p20
tp21
Rp22
ag10
(g14
S'433G\xb9JdA'
p23
tp24
Rp25
ag10
(g14
S'X\xb8\x1e\xd1\xd5OdA'
p26
tp27
Rp28
ag10
(g14
S'\xa6\xaa\xaa\xe2=@dA'
p29
tp30
Rp31
ag10
(g14
S'\xe1z\x14\xfegPdA'
p32
tp33
Rp34
ag10
(g14
S'\xc3X\xf2#iKdA'
p35
tp36
Rp37
ag10
(g14
S'\x1a\xaeG\x85\xc3XdA'
p38
tp39
Rp40
ag10
(g14
S'\xf8(\\\xf7\xd6JdA'
p41
tp42
Rp43
ag10
(g14
S'C\n\xd7\x9b\xbcJdA'
p44
tp45
Rp46
ag10
(g14
S'\xd3\xcc\xcc8>JdA'
p47
tp48
Rp49
ag10
(g14
S'\x98_,\x11\x18PdA'
p50
tp51
Rp52
ag10
(g14
S')\\\x8f*\xc2EdA'
p53
tp54
Rp55
ag10
(g14
S'\x06:m\xf0\xd4OdA'
p56
tp57
Rp58
ag10
(g14
S'\x81\x14\xae\xa7\x19DdA'
p59
tp60
Rp61
ag10
(g14
S'\xd8\xa3p\xd9\xadIdA'
p62
tp63
Rp64
ag10
(g14
S'\xed\xb4\x81\xa6\xf9[dA'
p65
tp66
Rp67
ag10
(g14
S'\xb0G\xe1B\x1dPdA'
p68
tp69
Rp70
ag10
(g14
S'\xdb\xa3p\xd1\x19>dA'
p71
tp72
Rp73
ag10
(g14
S'_\x8f\xc2\xc5UKdA'
p74
tp75
Rp76
asS'target'
p77
(lp78
g10
(g14
S'\xe4z\x14n\xcd\x075A'
p79
tp80
Rp81
ag10
(g14
S'\x16\xaeG!\xd3x4A'
p82
tp83
Rp84
ag10
(g14
S'\t\xd7\xa30\xfd\xe53A'
p85
tp86
Rp87
ag10
(g14
S'\x12\xaeGa\xf6X,A'
p88
tp89
Rp90
ag10
(g14
S'\xe1z\x14\xee\xd952A'
p91
tp92
Rp93
ag10
(g14
S'\x7f\x14\xae\x87\xd3\x803A'
p94
tp95
Rp96
ag10
(g14
S'\n\x00\x00\xc0\xde/<A'
p97
tp98
Rp99
ag10
(g14
S'\x9dG\xe1\xbay3:A'
p100
tp101
Rp102
ag10
(g14
S'>\n\xd7\x03~\x9aCA'
p103
tp104
Rp105
ag10
(g14
S'"\xaeG!\xa2\xe8;A'
p106
tp107
Rp108
ag10
(g14
S'\x01\xd7\xa3\x10o\xe8AA'
p109
tp110
Rp111
ag10
(g14
S'R\xb8\x1e\x05\xcaA-A'
p112
tp113
Rp114
ag10
(g14
S'\xc3\xf5(\xdc#\xe6#A'
p115
tp116
Rp117
ag10
(g14
S'733s\x8d\xc40A'
p118
tp119
Rp120
ag10
(g14
S'\xc3\xf5(\xdc\x1b\xac#A'
p121
tp122
Rp123
ag10
(g14
S'jff\xa6D\x973A'
p124
tp125
Rp126
ag10
(g14
S"\xa1p=\n\x98'4A"
p127
tp128
Rp129
ag10
(g14
S'\xd8z\x14\xee\xd6\xfe9A'
p130
tp131
Rp132
ag10
(g14
S'\xc1\xf5(\xdcYg,A'
p133
tp134
Rp135
ag10
(g14
S'\xa7p=\x8a\xf4t3A'
p136
tp137
Rp138
asssss.