(dp0
S'../Data/sqlite_57.csv'
p1
(dp2
S'../Data/sqlite_30.csv'
p3
(dp4
F0.2
(dp5
S'abs_res'
p6
(dp7
S'bellwether'
p8
(lp9
cnumpy.core.multiarray
scalar
p10
(cnumpy
dtype
p11
(S'f8'
p12
I0
I1
tp13
Rp14
(I3
S'<'
p15
NNNI-1
I-1
I0
tp16
bS'\x0b\xac\x1c\xa2\xe6DgA'
p17
tp18
Rp19
ag10
(g14
S'\x96\xed|o\xbfEgA'
p20
tp21
Rp22
ag10
(g14
S'\xfd~j\xd4\x0e@gA'
p23
tp24
Rp25
ag10
(g14
S'R9\xb4\xbc,PgA'
p26
tp27
Rp28
ag10
(g14
S'\x96\x97n\x86\xc5FgA'
p29
tp30
Rp31
ag10
(g14
S'A`\xe5\xf0uPgA'
p32
tp33
Rp34
ag10
(g14
S'\x8b\x97n\x86KOgA'
p35
tp36
Rp37
ag10
(g14
S'\x9f\x18\x04r\xf6GgA'
p38
tp39
Rp40
ag10
(g14
S'\xeeQ\xb8\xf2\x95MgA'
p41
tp42
Rp43
ag10
(g14
S')\xb2\x9d/%PgA'
p44
tp45
Rp46
ag10
(g14
S'833\x83\xf1TgA'
p47
tp48
Rp49
ag10
(g14
S'3\x08\xac\xac\xc6SgA'
p50
tp51
Rp52
ag10
(g14
S'\xe0\xa5\x9b,\xdcIgA'
p53
tp54
Rp55
ag10
(g14
S'\xe3\xa5\x9b\xe4\xacOgA'
p56
tp57
Rp58
ag10
(g14
S'\x94l\xe7\x7f_NgA'
p59
tp60
Rp61
ag10
(g14
S'\x91\xc2\xf5d\xadSgA'
p62
tp63
Rp64
ag10
(g14
S'r\xe9&\xf5\x1aFgA'
p65
tp66
Rp67
ag10
(g14
S'\x08\x81\x95\x8btNgA'
p68
tp69
Rp70
ag10
(g14
S'i\xe7\xfbu\xb6OgA'
p71
tp72
Rp73
ag10
(g14
S'\xf1\xa7\xc67GLgA'
p74
tp75
Rp76
asS'target'
p77
(lp78
g10
(g14
S'\xf8|?5^jB@'
p79
tp80
Rp81
ag10
(g14
S'\xb3rh\x91\xed\x8cB@'
p82
tp83
Rp84
ag10
(g14
S'*\xb0rh\x91\x8dE@'
p85
tp86
Rp87
ag10
(g14
S'\xf2~j\xbcts>@'
p88
tp89
Rp90
ag10
(g14
S'\x0e\xd7\xa3p=jC@'
p91
tp92
Rp93
ag10
(g14
S'\xf0\xfb\xa9\xf1\xd2m?@'
p94
tp95
Rp96
ag10
(g14
S'\xc8K7\x89A\x10@@'
p97
tp98
Rp99
ag10
(g14
S'\xeaQ\xb8\x1e\x85\x13A@'
p100
tp101
Rp102
ag10
(g14
S'033333@@'
p103
tp104
Rp105
ag10
(g14
S'.\xdd$\x06\x81\xf5E@'
p106
tp107
Rp108
ag10
(g14
S'\xf6|?5^:B@'
p109
tp110
Rp111
ag10
(g14
S'\xc0t\x93\x18\x04&@@'
p112
tp113
Rp114
ag10
(g14
S'a;\xdfO\x8d\xafC@'
p115
tp116
Rp117
ag10
(g14
S'\xda"\xdb\xf9~\xea?@'
p118
tp119
Rp120
ag10
(g14
S'}\xe9&1\x08T@@'
p121
tp122
Rp123
ag10
(g14
S"'\x85\xebQ\xb8\x0e>@"
p124
tp125
Rp126
ag10
(g14
S'F\xb6\xf3\xfd\xd4HE@'
p127
tp128
Rp129
ag10
(g14
S'p\xe7\xfb\xa9\xf1rE@'
p130
tp131
Rp132
ag10
(g14
S'C\x89A`\xe5`D@'
p133
tp134
Rp135
ag10
(g14
S'\x93\x99\x99\x99\x99\x11A@'
p136
tp137
Rp138
asssss.