(dp0
S'../Data/sqlite_47.csv'
p1
(dp2
S'../Data/sqlite_87.csv'
p3
(dp4
F0.1
(dp5
S'mmre'
p6
(dp7
S'bellwether'
p8
(lp9
cnumpy.core.multiarray
scalar
p10
(cnumpy
dtype
p11
(S'f8'
p12
I0
I1
tp13
Rp14
(I3
S'<'
p15
NNNI-1
I-1
I0
tp16
bS'\xac\x90u$\x8ejI@'
p17
tp18
Rp19
ag10
(g14
S'\xc9\xad\xe7\xbcUaI@'
p20
tp21
Rp22
ag10
(g14
S'3h\n\xfc\xa3GI@'
p23
tp24
Rp25
ag10
(g14
S'5\xafk\xc9\x96MI@'
p26
tp27
Rp28
ag10
(g14
S'\xf25\xbfE\xfc7I@'
p29
tp30
Rp31
ag10
(g14
S'\xa7\xa0\xfc\x95\xdf_I@'
p32
tp33
Rp34
ag10
(g14
S'\x02\xcaHC`WI@'
p35
tp36
Rp37
ag10
(g14
S'{\\\xf9\xf9CWI@'
p38
tp39
Rp40
ag10
(g14
S'\x121\x1d6\xac>I@'
p41
tp42
Rp43
ag10
(g14
S'\x9bc\xe6\xc6\x017I@'
p44
tp45
Rp46
ag10
(g14
S'\xe7e\x02rTEI@'
p47
tp48
Rp49
ag10
(g14
S'p\x89E\xd1;+I@'
p50
tp51
Rp52
ag10
(g14
S'j\x93\xc8+qGI@'
p53
tp54
Rp55
ag10
(g14
S'\xca\xd4\xdcd\x8b%I@'
p56
tp57
Rp58
ag10
(g14
S';y6\x97\xfdFI@'
p59
tp60
Rp61
ag10
(g14
S'\xda-s\xdcADI@'
p62
tp63
Rp64
ag10
(g14
S'i\xa7>e\x829I@'
p65
tp66
Rp67
ag10
(g14
S'\x12\x9es\xee>NI@'
p68
tp69
Rp70
ag10
(g14
S'K\xd5\xa3C\x82PI@'
p71
tp72
Rp73
ag10
(g14
S'g\xc8\x08\t\xc0KI@'
p74
tp75
Rp76
asS'target'
p77
(lp78
g10
(g14
S'<!\xa3\x19!\xc6G@'
p79
tp80
Rp81
ag10
(g14
S'\xb9\x19\x04\xb7\xf2\x8aK@'
p82
tp83
Rp84
ag10
(g14
S'y\xe3\x8e\xcc\x90\x9fN@'
p85
tp86
Rp87
ag10
(g14
S'\xbbR\xe6@=8T@'
p88
tp89
Rp90
ag10
(g14
S'^\x9a\x1a\x99\xbdaT@'
p91
tp92
Rp93
ag10
(g14
S'\xc9\xa3\xe5*\xa0yQ@'
p94
tp95
Rp96
ag10
(g14
S'\xfb#0\xa9\xc8kQ@'
p97
tp98
Rp99
ag10
(g14
S'\x85\xa2\xa7k?\\I@'
p100
tp101
Rp102
ag10
(g14
S'\xa0\xe3%\x84*\xa4G@'
p103
tp104
Rp105
ag10
(g14
S'P\r\xb1\xfc\xc2\x0eQ@'
p106
tp107
Rp108
ag10
(g14
S'\xab3\x850\xb5\xaaV@'
p109
tp110
Rp111
ag10
(g14
S'\x97\x98\x05\x0e\xed\xddN@'
p112
tp113
Rp114
ag10
(g14
S'\xceQ?([\xf3X@'
p115
tp116
Rp117
ag10
(g14
S'\x06JT\xfbaUM@'
p118
tp119
Rp120
ag10
(g14
S'\xdf\r\xe4@h\x83M@'
p121
tp122
Rp123
ag10
(g14
S'\xbeKz^\x11vT@'
p124
tp125
Rp126
ag10
(g14
S'\xab\x12>\x833\x8fM@'
p127
tp128
Rp129
ag10
(g14
S'\xc2w\x85\x9e\xe9IK@'
p130
tp131
Rp132
ag10
(g14
S'|\xcan\x9c\xd1\xbeK@'
p133
tp134
Rp135
ag10
(g14
S'b\x95\x1d\xe3\xb2LP@'
p136
tp137
Rp138
asssss.