(dp0
S'../Data/sqlite_91.csv'
p1
(dp2
S'../Data/sqlite_31.csv'
p3
(dp4
F0.1
(dp5
S'abs_res'
p6
(dp7
S'bellwether'
p8
(lp9
cnumpy.core.multiarray
scalar
p10
(cnumpy
dtype
p11
(S'f8'
p12
I0
I1
tp13
Rp14
(I3
S'<'
p15
NNNI-1
I-1
I0
tp16
bS')1\x08\xac|m&A'
p17
tp18
Rp19
ag10
(g14
S'\x1e/\xdd\xe4\xc8r&A'
p20
tp21
Rp22
ag10
(g14
S'\xbfK7Ip`&A'
p23
tp24
Rp25
ag10
(g14
S'C`\xe5\x904c&A'
p26
tp27
Rp28
ag10
(g14
S'uh\x91\xad\x93n&A'
p29
tp30
Rp31
ag10
(g14
S'\xdd\xce\xf7\x13\x8ei&A'
p32
tp33
Rp34
ag10
(g14
S'\xd0"\xdb9!g&A'
p35
tp36
Rp37
ag10
(g14
S'\xe3\xce\xf7\xd3\x0fo&A'
p38
tp39
Rp40
ag10
(g14
S'\xf57B\x19gd&A'
p41
tp42
Rp43
ag10
(g14
S'\xc6 \xb02\xabn&A'
p44
tp45
Rp46
ag10
(g14
S'\x1a\x83\xc0\n\x88\\&A'
p47
tp48
Rp49
ag10
(g14
S'o=\nW\xa7o&A'
p50
tp51
Rp52
ag10
(g14
S'w\xbe\x9f\x1a\x96o&A'
p53
tp54
Rp55
ag10
(g14
S'\x0b\x02+\x87\xc3[&A'
p56
tp57
Rp58
ag10
(g14
S'\x81\x95C\x8b*k&A'
p59
tp60
Rp61
ag10
(g14
S'\x8el\xe7\xbb\xf1w&A'
p62
tp63
Rp64
ag10
(g14
S'\x08\xd7\xa3\xb0Ot&A'
p65
tp66
Rp67
ag10
(g14
S'\xbb-kuW\x84&A'
p68
tp69
Rp70
ag10
(g14
S'h\x10X\xb9Vb&A'
p71
tp72
Rp73
ag10
(g14
S'7\n\xd7\xa3f\x83&A'
p74
tp75
Rp76
asS'target'
p77
(lp78
g10
(g14
S']\x10X9\xb4\xe0d@'
p79
tp80
Rp81
ag10
(g14
S'\x84\x14\xaeG\xe1\xf6f@'
p82
tp83
Rp84
ag10
(g14
S'\x8b\xc2\xf5(\\\xc7f@'
p85
tp86
Rp87
ag10
(g14
S'J\x0c\x02+\x87&e@'
p88
tp89
Rp90
ag10
(g14
S'\xc5K7\x89A\x9eg@'
p91
tp92
Rp93
ag10
(g14
S'\xed|?5^\x82h@'
p94
tp95
Rp96
ag10
(g14
S'C\x89A`\xe5\x98g@'
p97
tp98
Rp99
ag10
(g14
S'H\x0c\x02+\x87\x9ah@'
p100
tp101
Rp102
ag10
(g14
S'=\x0c\x02+\x87*f@'
p103
tp104
Rp105
ag10
(g14
S'\xbb\xca\xa1E\xb6\x07g@'
p106
tp107
Rp108
ag10
(g14
S'\xd3x\xe9&1\xd4e@'
p109
tp110
Rp111
ag10
(g14
S'W9\xb4\xc8v\x06g@'
p112
tp113
Rp114
ag10
(g14
S'\xc2v\xbe\x9f\x1a\x0bg@'
p115
tp116
Rp117
ag10
(g14
S'\xc2\xf5(\\\x8f2d@'
p118
tp119
Rp120
ag10
(g14
S'\x8fA`\xe5\xd0\xbal@'
p121
tp122
Rp123
ag10
(g14
S'\xda\xf9~j\xbc\xd4f@'
p124
tp125
Rp126
ag10
(g14
S'\xa0p=\n\xd7\x0bi@'
p127
tp128
Rp129
ag10
(g14
S'\xbbv\xbe\x9f\x1a\x9fg@'
p130
tp131
Rp132
ag10
(g14
S'\xd3\xf9~j\xbc\xbce@'
p133
tp134
Rp135
ag10
(g14
S'N\x8bl\xe7\xfbii@'
p136
tp137
Rp138
asssss.