(dp0
S'../Data/sqlite_32.csv'
p1
(dp2
S'../Data/sqlite_70.csv'
p3
(dp4
F0.25
(dp5
S'abs_res'
p6
(dp7
S'bellwether'
p8
(lp9
cnumpy.core.multiarray
scalar
p10
(cnumpy
dtype
p11
(S'f8'
p12
I0
I1
tp13
Rp14
(I3
S'<'
p15
NNNI-1
I-1
I0
tp16
bS'hffF\xb9AAA'
p17
tp18
Rp19
ag10
(g14
S'\x95\x99\x99\x89\nBAA'
p20
tp21
Rp22
ag10
(g14
S'\xd7x\xe9&\xd7>AA'
p23
tp24
Rp25
ag10
(g14
S')1\x08L\x97AAA'
p26
tp27
Rp28
ag10
(g14
S'233\xf3{BAA'
p29
tp30
Rp31
ag10
(g14
S'\xe3z\x14\xce\xd9@AA'
p32
tp33
Rp34
ag10
(g14
S'\xccK7\x19\x86>AA'
p35
tp36
Rp37
ag10
(g14
S'e;\xdfO\xd0@AA'
p38
tp39
Rp40
ag10
(g14
S'\x02+\x87f\xb8@AA'
p41
tp42
Rp43
ag10
(g14
S'\x1cZdk\x8e@AA'
p44
tp45
Rp46
ag10
(g14
S'\xe7&1H\xe4@AA'
p47
tp48
Rp49
ag10
(g14
S'y\x93\x18\x14SAAA'
p50
tp51
Rp52
ag10
(g14
S'\xd1"\xdbI AAA'
p53
tp54
Rp55
ag10
(g14
S'L\x8d\x97\xce\xc6AAA'
p56
tp57
Rp58
ag10
(g14
S'\x92\xc2\xf5\x08M@AA'
p59
tp60
Rp61
ag10
(g14
S'%1\x08\x8cTAAA'
p62
tp63
Rp64
ag10
(g14
S'F\x8bl\xf7\x92>AA'
p65
tp66
Rp67
ag10
(g14
S'\xd8\xa3p]\x05AAA'
p68
tp69
Rp70
ag10
(g14
S'>\xb4\xc8f\xf7@AA'
p71
tp72
Rp73
ag10
(g14
S'D\xb6\xf3-\xc6@AA'
p74
tp75
Rp76
asS'target'
p77
(lp78
g10
(g14
S'\xe5\xf9~j\xbc\x0c^@'
p79
tp80
Rp81
ag10
(g14
S'\x90\xef\xa7\xc6K\x97]@'
p82
tp83
Rp84
ag10
(g14
S'l\x14\xaeG\xe1\xa2]@'
p85
tp86
Rp87
ag10
(g14
S'\xc9v\xbe\x9f\x1a\x1f^@'
p88
tp89
Rp90
ag10
(g14
S'x\xbe\x9f\x1a/\xc5^@'
p91
tp92
Rp93
ag10
(g14
S'X\xe3\xa5\x9b\xc4\x88[@'
p94
tp95
Rp96
ag10
(g14
S'\x83\xebQ\xb8\x1e\x05\\@'
p97
tp98
Rp99
ag10
(g14
S'H\xbaI\x0c\x02\xd3_@'
p100
tp101
Rp102
ag10
(g14
S'\xb0G\xe1z\x14\x96]@'
p103
tp104
Rp105
ag10
(g14
S'Vd;\xdfOe\\@'
p106
tp107
Rp108
ag10
(g14
S'\x84\xebQ\xb8\x1e\x85\\@'
p109
tp110
Rp111
ag10
(g14
S'\xa0\x1a/\xdd$n[@'
p112
tp113
Rp114
ag10
(g14
S'\x96\x99\x99\x99\x99A^@'
p115
tp116
Rp117
ag10
(g14
S'\xa2\x1cZd;\xbb\\@'
p118
tp119
Rp120
ag10
(g14
S'\xc0I\x0c\x02+_\\@'
p121
tp122
Rp123
ag10
(g14
S'.\x08\xac\x1cZ\xd4[@'
p124
tp125
Rp126
ag10
(g14
S'\xa4\xf1\xd2Mb\xa0]@'
p127
tp128
Rp129
ag10
(g14
S'\x87\x95C\x8bl#]@'
p130
tp131
Rp132
ag10
(g14
S'\xaerh\x91\xed|[@'
p133
tp134
Rp135
ag10
(g14
S'\x96\x99\x99\x99\x99\xf1[@'
p136
tp137
Rp138
asssss.