(dp0
S'../Data/sqlite_32.csv'
p1
(dp2
S'../Data/sqlite_45.csv'
p3
(dp4
F0.25
(dp5
S'abs_res'
p6
(dp7
S'bellwether'
p8
(lp9
cnumpy.core.multiarray
scalar
p10
(cnumpy
dtype
p11
(S'f8'
p12
I0
I1
tp13
Rp14
(I3
S'<'
p15
NNNI-1
I-1
I0
tp16
bS'eff\xa6\xb8?AA'
p17
tp18
Rp19
ag10
(g14
S'\xfc\xd4xy\xf6@AA'
p20
tp21
Rp22
ag10
(g14
S'j;\xdf/Y@AA'
p23
tp24
Rp25
ag10
(g14
S'\xa3p=\x8a\xd6AAA'
p26
tp27
Rp28
ag10
(g14
S'533\xd3\x93BAA'
p29
tp30
Rp31
ag10
(g14
S'\x14\xd9\xce\x175AAA'
p32
tp33
Rp34
ag10
(g14
S'\xbc\x1e\x85+\xa7@AA'
p35
tp36
Rp37
ag10
(g14
S'\xc8K7\xa9\xcf@AA'
p38
tp39
Rp40
ag10
(g14
S'L\x0c\x02\xfb\xc8@AA'
p41
tp42
Rp43
ag10
(g14
S'\x85?5\x8eE@AA'
p44
tp45
Rp46
ag10
(g14
S'Vd;O\xd4@AA'
p47
tp48
Rp49
ag10
(g14
S'\x13X9\xb4\x1aBAA'
p50
tp51
Rp52
ag10
(g14
S':\x89A0\x87AAA'
p53
tp54
Rp55
ag10
(g14
S'\x10\xac\x1c\n\xb6@AA'
p56
tp57
Rp58
ag10
(g14
S'\xcd\xa1E\xd6\xc9@AA'
p59
tp60
Rp61
ag10
(g14
S'\x88l\xe7[\xa0AAA'
p62
tp63
Rp64
ag10
(g14
S'\x8cA`%\xd2AAA'
p65
tp66
Rp67
ag10
(g14
S'\x9e\x99\x99\xf9V@AA'
p68
tp69
Rp70
ag10
(g14
S'\x1f\x85\xeba\xd5@AA'
p71
tp72
Rp73
ag10
(g14
S'\xf9S\xe354AAA'
p74
tp75
Rp76
asS'target'
p77
(lp78
g10
(g14
S'\xd7O\x8d\x97n\xa6k@'
p79
tp80
Rp81
ag10
(g14
S'\x8b\xc2\xf5(\\]k@'
p82
tp83
Rp84
ag10
(g14
S'\xb3\x9f\x1a/\xdd4m@'
p85
tp86
Rp87
ag10
(g14
S'\r\xaeG\xe1z\xc4l@'
p88
tp89
Rp90
ag10
(g14
S'V\x8d\x97n\x127j@'
p91
tp92
Rp93
ag10
(g14
S'\x88A`\xe5\xd0bl@'
p94
tp95
Rp96
ag10
(g14
S'\x15-\xb2\x9d\xefkj@'
p97
tp98
Rp99
ag10
(g14
S'\x1c\x06\x81\x95C_m@'
p100
tp101
Rp102
ag10
(g14
S'\x04\xd7\xa3p=4l@'
p103
tp104
Rp105
ag10
(g14
S'\xca\xf7S\xe3\xa5\x9dl@'
p106
tp107
Rp108
ag10
(g14
S'\xf3\xa7\xc6K7\x89l@'
p109
tp110
Rp111
ag10
(g14
S'\xfa*\x87\x16\xd9\x8aj@'
p112
tp113
Rp114
ag10
(g14
S'\xf4\xa7\xc6K7\xb5l@'
p115
tp116
Rp117
ag10
(g14
S't\xbe\x9f\x1a/\xc3k@'
p118
tp119
Rp120
ag10
(g14
S'%\xb0rh\x91\xf9j@'
p121
tp122
Rp123
ag10
(g14
S'\xee\xd0"\xdb\xf9bj@'
p124
tp125
Rp126
ag10
(g14
S'\xc5\xca\xa1E\xb6\xcbm@'
p127
tp128
Rp129
ag10
(g14
S'\xdc\xd0"\xdb\xf9\xc6j@'
p130
tp131
Rp132
ag10
(g14
S'|?5^\xba\xd5j@'
p133
tp134
Rp135
ag10
(g14
S'633337o@'
p136
tp137
Rp138
asssss.