(dp0
S'../Data/sqlite_49.csv'
p1
(dp2
S'../Data/sqlite_76.csv'
p3
(dp4
F0.4
(dp5
S'mmre'
p6
(dp7
S'bellwether'
p8
(lp9
cnumpy.core.multiarray
scalar
p10
(cnumpy
dtype
p11
(S'f8'
p12
I0
I1
tp13
Rp14
(I3
S'<'
p15
NNNI-1
I-1
I0
tp16
bS'\x8fa\x85\xa2+oP@'
p17
tp18
Rp19
ag10
(g14
S'\x00P\xb6\xe5\x7frP@'
p20
tp21
Rp22
ag10
(g14
S'\xe3Q\x7f\x17\x92qP@'
p23
tp24
Rp25
ag10
(g14
S'\xe8\xdf8<\xd0fP@'
p26
tp27
Rp28
ag10
(g14
S'haG,\xddiP@'
p29
tp30
Rp31
ag10
(g14
S'\x8c\xeaI\xe04oP@'
p32
tp33
Rp34
ag10
(g14
S'\x83\x8dyX\xaavP@'
p35
tp36
Rp37
ag10
(g14
S'\xd8\xe0 \xe7\xffkP@'
p38
tp39
Rp40
ag10
(g14
S'*\xca\xdf-,pP@'
p41
tp42
Rp43
ag10
(g14
S'\xdbi&[o{P@'
p44
tp45
Rp46
ag10
(g14
S'\xd8\xb7\x8cQ;uP@'
p47
tp48
Rp49
ag10
(g14
S'f\xa4\xefn.oP@'
p50
tp51
Rp52
ag10
(g14
S'\xb7\xffo5]iP@'
p53
tp54
Rp55
ag10
(g14
S'\x8a\x9bDzGlP@'
p56
tp57
Rp58
ag10
(g14
S'T\xd1Y1\xf4mP@'
p59
tp60
Rp61
ag10
(g14
S'\x19\xd5\xed\xbdAqP@'
p62
tp63
Rp64
ag10
(g14
S'\xd8=\xfb\x0c\xaavP@'
p65
tp66
Rp67
ag10
(g14
S'\xc0\xe3\xe7S\x1bkP@'
p68
tp69
Rp70
ag10
(g14
S'\x0b\x1d/7\x9fmP@'
p71
tp72
Rp73
ag10
(g14
S'\xef\xc3\xce\xf1quP@'
p74
tp75
Rp76
asS'target'
p77
(lp78
g10
(g14
S';\xd9/a\xcd\xc91@'
p79
tp80
Rp81
ag10
(g14
S'V\xf0>\xea\x94H1@'
p82
tp83
Rp84
ag10
(g14
S']m\xac\xa9S61@'
p85
tp86
Rp87
ag10
(g14
S'\xeeCur\xc722@'
p88
tp89
Rp90
ag10
(g14
S'\xc0\xb2\xbfG\x8aP1@'
p91
tp92
Rp93
ag10
(g14
S'\xdb\xe7\x18\xa1"E2@'
p94
tp95
Rp96
ag10
(g14
S'\xfad \x0eR\x8a1@'
p97
tp98
Rp99
ag10
(g14
S'\x8dgsM&\x961@'
p100
tp101
Rp102
ag10
(g14
S'\xd1\xa5\xd6\x0e#\xfd1@'
p103
tp104
Rp105
ag10
(g14
S'\xb7\xbbog\xf1\xf80@'
p106
tp107
Rp108
ag10
(g14
S'\xa6\xbb\x02\xaaEj1@'
p109
tp110
Rp111
ag10
(g14
S'FY\x9b.Q\xc81@'
p112
tp113
Rp114
ag10
(g14
S'\xea\xd8\xd75Jo2@'
p115
tp116
Rp117
ag10
(g14
S'\x9c\xe4\xd33A\xe01@'
p118
tp119
Rp120
ag10
(g14
S'\xb9\x1c\xe3\x9f=\xf40@'
p121
tp122
Rp123
ag10
(g14
S'\x80LJ$Z21@'
p124
tp125
Rp126
ag10
(g14
S't\x0b\xd7\xee\xd1;1@'
p127
tp128
Rp129
ag10
(g14
S'\xa2_#\x98\x1eA1@'
p130
tp131
Rp132
ag10
(g14
S'\xff\x87\xb3A\x86\x970@'
p133
tp134
Rp135
ag10
(g14
S'x\x07\xf8\xb9\xddB1@'
p136
tp137
Rp138
asssss.