(dp0
S'../Data/sqlite_57.csv'
p1
(dp2
S'../Data/sqlite_21.csv'
p3
(dp4
F0.2
(dp5
S'abs_res'
p6
(dp7
S'bellwether'
p8
(lp9
cnumpy.core.multiarray
scalar
p10
(cnumpy
dtype
p11
(S'f8'
p12
I0
I1
tp13
Rp14
(I3
S'<'
p15
NNNI-1
I-1
I0
tp16
bS'\x84\xc0\xcaa\xe7KgA'
p17
tp18
Rp19
ag10
(g14
S'\x06\x00\x00XzMgA'
p20
tp21
Rp22
ag10
(g14
S'\x00\x00\x00\xbc\x1fEgA'
p23
tp24
Rp25
ag10
(g14
S'P\x0c\x02O\tEgA'
p26
tp27
Rp28
ag10
(g14
S'3\xb2\x9d;\x08BgA'
p29
tp30
Rp31
ag10
(g14
S'iff:\x86=gA'
p32
tp33
Rp34
ag10
(g14
S'\xb0p=\xfe[?gA'
p35
tp36
Rp37
ag10
(g14
S'C\xb6\xf3)"KgA'
p38
tp39
Rp40
ag10
(g14
S'\x7fj\xbc\xf0\x89GgA'
p41
tp42
Rp43
ag10
(g14
S'8\x89A\xa4yAgA'
p44
tp45
Rp46
ag10
(g14
S'I\xe1zX\x02IgA'
p47
tp48
Rp49
ag10
(g14
S'\x11\xaeG\xa5:MgA'
p50
tp51
Rp52
ag10
(g14
S'\xb5\xc8v\x1e\x91>gA'
p53
tp54
Rp55
ag10
(g14
S'\xa7\xc6K\xff\x8eHgA'
p56
tp57
Rp58
ag10
(g14
S'\xb8\xc8v\xa2tCgA'
p59
tp60
Rp61
ag10
(g14
S'\x17\x04V\xe2\xd7GgA'
p62
tp63
Rp64
ag10
(g14
S'\x15-\xb2\x91\xccUgA'
p65
tp66
Rp67
ag10
(g14
S'\t+\x87\xe6,HgA'
p68
tp69
Rp70
ag10
(g14
S'\t\xd7\xa3\x10\xc1AgA'
p71
tp72
Rp73
ag10
(g14
S'(\xb2\x9do\xf3?gA'
p74
tp75
Rp76
asS'target'
p77
(lp78
g10
(g14
S'\x1eZd;\xdfSg@'
p79
tp80
Rp81
ag10
(g14
S'\xe0x\xe9&1(f@'
p82
tp83
Rp84
ag10
(g14
S'Wd;\xdfO\xb9f@'
p85
tp86
Rp87
ag10
(g14
S'h\xbct\x93\x18\x00g@'
p88
tp89
Rp90
ag10
(g14
S'\x15X9\xb4\xc8Nf@'
p91
tp92
Rp93
ag10
(g14
S'\xaarh\x91\xed\xbaf@'
p94
tp95
Rp96
ag10
(g14
S'\xa4\x1a/\xdd$\xc6g@'
p97
tp98
Rp99
ag10
(g14
S'\xf9\xab\x1cZd\xdbf@'
p100
tp101
Rp102
ag10
(g14
S'\xfc(\\\x8f\xc2Wg@'
p103
tp104
Rp105
ag10
(g14
S'\x1eZd;\xdf\x9fe@'
p106
tp107
Rp108
ag10
(g14
S'\xc9\x9f\x1a/\xdd\xccf@'
p109
tp110
Rp111
ag10
(g14
S'^\xe5\xd0"\xdb\x01f@'
p112
tp113
Rp114
ag10
(g14
S'D\n\xd7\xa3p;i@'
p115
tp116
Rp117
ag10
(g14
S'?5^\xbaI\xa4f@'
p118
tp119
Rp120
ag10
(g14
S'\xdeO\x8d\x97nFi@'
p121
tp122
Rp123
ag10
(g14
S'\xc3I\x0c\x02+\x07g@'
p124
tp125
Rp126
ag10
(g14
S'\xcfK7\x89A\xd0f@'
p127
tp128
Rp129
ag10
(g14
S'\xc4t\x93\x18\x04\x1ah@'
p130
tp131
Rp132
ag10
(g14
S'\x04\x81\x95C\x8b`h@'
p133
tp134
Rp135
ag10
(g14
S'\xf4\xd2Mb\x102g@'
p136
tp137
Rp138
asssss.