(dp0
S'../Data/sqlite_68.csv'
p1
(dp2
S'../Data/sqlite_95.csv'
p3
(dp4
F0.3
(dp5
S'mmre'
p6
(dp7
S'bellwether'
p8
(lp9
cnumpy.core.multiarray
scalar
p10
(cnumpy
dtype
p11
(S'f8'
p12
I0
I1
tp13
Rp14
(I3
S'<'
p15
NNNI-1
I-1
I0
tp16
bS'\x03\\&t\xa96W@'
p17
tp18
Rp19
ag10
(g14
S'M\xbc\xef\xa6A=W@'
p20
tp21
Rp22
ag10
(g14
S'\xd0\xe0B\x08\xfb2W@'
p23
tp24
Rp25
ag10
(g14
S'\xfb1\x96\x0f\x939W@'
p26
tp27
Rp28
ag10
(g14
S'\xdc\xf3":\x148W@'
p29
tp30
Rp31
ag10
(g14
S'\xee\xce\n\x0b\x000W@'
p32
tp33
Rp34
ag10
(g14
S'\xb7c\xf4_\x8e:W@'
p35
tp36
Rp37
ag10
(g14
S'\xf0W\x94\x0f\xe66W@'
p38
tp39
Rp40
ag10
(g14
S'\x01\xdb\xadOB6W@'
p41
tp42
Rp43
ag10
(g14
S'<@X@\x147W@'
p44
tp45
Rp46
ag10
(g14
S'\xceM\x11\xe0}5W@'
p47
tp48
Rp49
ag10
(g14
S'$\xe4r \x187W@'
p50
tp51
Rp52
ag10
(g14
S'\x12\x1a\xfd\x9bh6W@'
p53
tp54
Rp55
ag10
(g14
S'e\x12s\xea\x191W@'
p56
tp57
Rp58
ag10
(g14
S'\xc0\xfa5\x88\xb7:W@'
p59
tp60
Rp61
ag10
(g14
S'\x124\xdc\x15I?W@'
p62
tp63
Rp64
ag10
(g14
S'N\xe9\xe5\x82\x8f1W@'
p65
tp66
Rp67
ag10
(g14
S"'\x86f\xfd\xa45W@"
p68
tp69
Rp70
ag10
(g14
S'6E\xb2G\xc52W@'
p71
tp72
Rp73
ag10
(g14
S')\xb8-x\xb93W@'
p74
tp75
Rp76
asS'target'
p77
(lp78
g10
(g14
S'\x92\xdd\xe4\x91\xb2O?@'
p79
tp80
Rp81
ag10
(g14
S'`1Z\x85\xda\xc7<@'
p82
tp83
Rp84
ag10
(g14
S'\xb5\x16\x97L\x17\x03C@'
p85
tp86
Rp87
ag10
(g14
S'\x15<\xb2sg\x80?@'
p88
tp89
Rp90
ag10
(g14
S'j\xdb0Ra\x80A@'
p91
tp92
Rp93
ag10
(g14
S'\xf3\xa8\xb6W0\x1aD@'
p94
tp95
Rp96
ag10
(g14
S'D\xf1\xa1\xec\xefk?@'
p97
tp98
Rp99
ag10
(g14
S'\x8a\n\x99TN\xd4>@'
p100
tp101
Rp102
ag10
(g14
S'I\xfa\xa3\xec\x13\xb1A@'
p103
tp104
Rp105
ag10
(g14
S'\x1c\x8ft\xcb9\x00A@'
p106
tp107
Rp108
ag10
(g14
S'f\xe4mj2qA@'
p109
tp110
Rp111
ag10
(g14
S'\xd2b\xca\x86\x1f\xe4@@'
p112
tp113
Rp114
ag10
(g14
S'\xcfi\xf8&\x9c\x1d?@'
p115
tp116
Rp117
ag10
(g14
S'\xf2\xfd\xaec\xc1_@@'
p118
tp119
Rp120
ag10
(g14
S'TxC3]cB@'
p121
tp122
Rp123
ag10
(g14
S'\x99\xbb\x03\x15?\xbd@@'
p124
tp125
Rp126
ag10
(g14
S'W\x10)\x03\x9aX>@'
p127
tp128
Rp129
ag10
(g14
S'pbU*\x85\x1a?@'
p130
tp131
Rp132
ag10
(g14
S'\xb1%~f\xd2\xa0B@'
p133
tp134
Rp135
ag10
(g14
S',\xf6\xbcn\x96&A@'
p136
tp137
Rp138
asssss.