(dp0
S'../Data/sqlite_35.csv'
p1
(dp2
S'../Data/sqlite_76.csv'
p3
(dp4
F0.35
(dp5
S'mmre'
p6
(dp7
S'bellwether'
p8
(lp9
cnumpy.core.multiarray
scalar
p10
(cnumpy
dtype
p11
(S'f8'
p12
I0
I1
tp13
Rp14
(I3
S'<'
p15
NNNI-1
I-1
I0
tp16
bS'?\x87s\xd6\x18TQ@'
p17
tp18
Rp19
ag10
(g14
S'\xb0\x08\x13\x9bMfQ@'
p20
tp21
Rp22
ag10
(g14
S'w\x8fQ_\x84cQ@'
p23
tp24
Rp25
ag10
(g14
S'\x8aN\x9f\xff\xba[Q@'
p26
tp27
Rp28
ag10
(g14
S'uA\xe1\xc1HYQ@'
p29
tp30
Rp31
ag10
(g14
S"\xba'E\xf2\xa2TQ@"
p32
tp33
Rp34
ag10
(g14
S'\xda\x1a\x81\xfab]Q@'
p35
tp36
Rp37
ag10
(g14
S'k\xbd\xaf\xf1\x95fQ@'
p38
tp39
Rp40
ag10
(g14
S'\xdfL}\x8d\x85XQ@'
p41
tp42
Rp43
ag10
(g14
S'<^\n\xe2\xd7XQ@'
p44
tp45
Rp46
ag10
(g14
S'7}&\x94\x17XQ@'
p47
tp48
Rp49
ag10
(g14
S'\x06\xd1\xa7\xb4\n]Q@'
p50
tp51
Rp52
ag10
(g14
S'\x9frU\xf5\x9eNQ@'
p53
tp54
Rp55
ag10
(g14
S'6kr\xae\xa4\\Q@'
p56
tp57
Rp58
ag10
(g14
S'b\xa9\x8e}\x06YQ@'
p59
tp60
Rp61
ag10
(g14
S'\xbb\x05\xbe"|[Q@'
p62
tp63
Rp64
ag10
(g14
S'\x1c\x99\x90\xfa$SQ@'
p65
tp66
Rp67
ag10
(g14
S'1\xa8\x97\x86\xf4`Q@'
p68
tp69
Rp70
ag10
(g14
S'o\x00\xc3\xa6l^Q@'
p71
tp72
Rp73
ag10
(g14
S'Ed\x88\xc2^[Q@'
p74
tp75
Rp76
asS'target'
p77
(lp78
g10
(g14
S'OHBm\xf4\\1@'
p79
tp80
Rp81
ag10
(g14
S'\xd0\xfe\xa8{\xd9p1@'
p82
tp83
Rp84
ag10
(g14
S'\xd5\x1e,\xfe@n0@'
p85
tp86
Rp87
ag10
(g14
S'@\x12\x80%|\xd71@'
p88
tp89
Rp90
ag10
(g14
S'g\x11\xd8\xb5\xc7J1@'
p91
tp92
Rp93
ag10
(g14
S'q\xd7\xd1\x0f\xd4x1@'
p94
tp95
Rp96
ag10
(g14
S'\x055\xd0cD\xb80@'
p97
tp98
Rp99
ag10
(g14
S'%\xf9\xe4\x10\x9b\xdf0@'
p100
tp101
Rp102
ag10
(g14
S'\x86\xeeY\xa2PS1@'
p103
tp104
Rp105
ag10
(g14
S'\x98\x9du\xcbX\xad1@'
p106
tp107
Rp108
ag10
(g14
S'u\xd2\xaa\xf5\x92Z1@'
p109
tp110
Rp111
ag10
(g14
S'V\xf5\xf7\xb9v\xbd0@'
p112
tp113
Rp114
ag10
(g14
S'[j\x84V\xbf\xd30@'
p115
tp116
Rp117
ag10
(g14
S'\xd9\x18\xbd\xba0\x831@'
p118
tp119
Rp120
ag10
(g14
S'U{\xcd\x98\xcf\xdd1@'
p121
tp122
Rp123
ag10
(g14
S'8\xcb\xc4\x19`z1@'
p124
tp125
Rp126
ag10
(g14
S'\xfe\xf1\x1b;0/2@'
p127
tp128
Rp129
ag10
(g14
S'~\xc6\xa2 \\;0@'
p130
tp131
Rp132
ag10
(g14
S'gI\x80\n\x9aK1@'
p133
tp134
Rp135
ag10
(g14
S'\xb9FH\xdb\x1a\xc60@'
p136
tp137
Rp138
asssss.