(dp0
S'../Data/sqlite_69.csv'
p1
(dp2
S'../Data/sqlite_85.csv'
p3
(dp4
F0.4
(dp5
S'abs_res'
p6
(dp7
S'bellwether'
p8
(lp9
cnumpy.core.multiarray
scalar
p10
(cnumpy
dtype
p11
(S'f8'
p12
I0
I1
tp13
Rp14
(I3
S'<'
p15
NNNI-1
I-1
I0
tp16
bS'\xe4\x17K\xde+_PA'
p17
tp18
Rp19
ag10
(g14
S"p=\n\xb7'EPA"
p20
tp21
Rp22
ag10
(g14
S'E\xe1zt?&PA'
p23
tp24
Rp25
ag10
(g14
S'yww/a7PA'
p26
tp27
Rp28
ag10
(g14
S'2\x96\xfc\xd2\x00&PA'
p29
tp30
Rp31
ag10
(g14
S'\xc0\xbb\xbbS_\x07PA'
p32
tp33
Rp34
ag10
(g14
S'\xa16\xd0\x81>jPA'
p35
tp36
Rp37
ag10
(g14
S'hff\x8e\xe46PA'
p38
tp39
Rp40
ag10
(g14
S'@\xa7\r\xbc\xb30PA'
p41
tp42
Rp43
ag10
(g14
S'\xd0\xcc\xcc\xec\xd3LPA'
p44
tp45
Rp46
ag10
(g14
S'\xf6\x8b%?#VPA'
p47
tp48
Rp49
ag10
(g14
S'\x03\x9d68+:PA'
p50
tp51
Rp52
ag10
(g14
S'\xdd@\xa7\x1d\x86#PA'
p53
tp54
Rp55
ag10
(g14
S'Z\xf2\x8bm<qPA'
p56
tp57
Rp58
ag10
(g14
S'\xf4Q\xb8f\xeaMPA'
p59
tp60
Rp61
ag10
(g14
S'd\x03\x9dfZMPA'
p62
tp63
Rp64
ag10
(g14
S'\xe8Q\xb8\x1e\x14\x07PA'
p65
tp66
Rp67
ag10
(g14
S'o\xa0\xd3Vc5PA'
p68
tp69
Rp70
ag10
(g14
S'>\xa7\r\x94\xf07PA'
p71
tp72
Rp73
ag10
(g14
S'b\x8f\xc2\xf5c2PA'
p74
tp75
Rp76
asS'target'
p77
(lp78
g10
(g14
S'O\xe1z\xd4\xb1&:A'
p79
tp80
Rp81
ag10
(g14
S'\xdf\xa3p=i;8A'
p82
tp83
Rp84
ag10
(g14
S'\x13\xaeG\xe1\xcd\x959A'
p85
tp86
Rp87
ag10
(g14
S'\xe1z\x14\xee\xe4\xad7A'
p88
tp89
Rp90
ag10
(g14
S'+\\\x8fB\xb9\xfe8A'
p91
tp92
Rp93
ag10
(g14
S'J\xe1z\x94\xf7\xab8A'
p94
tp95
Rp96
ag10
(g14
S'\xf8(\\\x8f\xe6\xd38A'
p97
tp98
Rp99
ag10
(g14
S'\xd8@\xa7\x8dz[7A'
p100
tp101
Rp102
ag10
(g14
S'aff&\x944?A'
p103
tp104
Rp105
ag10
(g14
S'i\x8f\xc2\xf5\xa6:=A'
p106
tp107
Rp108
ag10
(g14
S'Q\xe1z\x94\xe2 :A'
p109
tp110
Rp111
ag10
(g14
S'\n\xd7\xa3p\xe3A:A'
p112
tp113
Rp114
ag10
(g14
S',\\\x8f\x82#\xdb7A'
p115
tp116
Rp117
ag10
(g14
S'kff&\x8a\xc3;A'
p118
tp119
Rp120
ag10
(g14
S'\x02\x00\x00\x00\x14\xe68A'
p121
tp122
Rp123
ag10
(g14
S'\x8f\xc2\xf5h\x9d\xcf7A'
p124
tp125
Rp126
ag10
(g14
S'kff&A\x7f8A'
p127
tp128
Rp129
ag10
(g14
S'\xd5\xcc\xcc\x0c\x7f\x10:A'
p130
tp131
Rp132
ag10
(g14
S'\xc1\x1e\x85+\xe7\xd68A'
p133
tp134
Rp135
ag10
(g14
S's=\n\xd7TT9A'
p136
tp137
Rp138
asssss.