(dp0
S'../Data/sqlite_54.csv'
p1
(dp2
S'../Data/sqlite_1.csv'
p3
(dp4
F0.4
(dp5
S'abs_res'
p6
(dp7
S'bellwether'
p8
(lp9
cnumpy.core.multiarray
scalar
p10
(cnumpy
dtype
p11
(S'f8'
p12
I0
I1
tp13
Rp14
(I3
S'<'
p15
NNNI-1
I-1
I0
tp16
bS'T\xb8\x1e\xa5\x87z6A'
p17
tp18
Rp19
ag10
(g14
S';\x08\xacl0~6A'
p20
tp21
Rp22
ag10
(g14
S'\xfe*\x876\xb8{6A'
p23
tp24
Rp25
ag10
(g14
S'\xa1\xa8\x7f\x83V}6A'
p26
tp27
Rp28
ag10
(g14
S'\x06+\x87\xe6\x86|6A'
p29
tp30
Rp31
ag10
(g14
S'c\xad\x8e\t\n}6A'
p32
tp33
Rp34
ag10
(g14
S'\x8b\x97n\xc2\xd0{6A'
p35
tp36
Rp37
ag10
(g14
S'\xce \xb0\x92\xfa|6A'
p38
tp39
Rp40
ag10
(g14
S'\xb9\xac\xd5\xe1\x85{6A'
p41
tp42
Rp43
ag10
(g14
S'\x1f\xf7\x9a;\x9c}6A'
p44
tp45
Rp46
ag10
(g14
S'[\x0e-R\x96{6A'
p47
tp48
Rp49
ag10
(g14
S'\x0e\x11\x11\x11\r~6A'
p50
tp51
Rp52
ag10
(g14
S'\xab\xf1\xd2\x8d,{6A'
p53
tp54
Rp55
ag10
(g14
S'\\9\xb4\xc8\xf3|6A'
p56
tp57
Rp58
ag10
(g14
S'q\xf6\xe1S\x1f~6A'
p59
tp60
Rp61
ag10
(g14
S'\xe6$\x06qB{6A'
p62
tp63
Rp64
ag10
(g14
S'{L\xf0\x10\x03~6A'
p65
tp66
Rp67
ag10
(g14
S'\x1d\xe8\xb4\x81\xbb~6A'
p68
tp69
Rp70
ag10
(g14
S'\x9f\x0bIsL\x7f6A'
p71
tp72
Rp73
ag10
(g14
S'Jo\xcb\xfa\x17{6A'
p74
tp75
Rp76
asS'target'
p77
(lp78
g10
(g14
S'kfff\xe6\xd1\xc8@'
p79
tp80
Rp81
ag10
(g14
S'efff\x86\xcf\xc9@'
p82
tp83
Rp84
ag10
(g14
S'UUUU\x15\x1f\xcb@'
p85
tp86
Rp87
ag10
(g14
S'-3333U\xca@'
p88
tp89
Rp90
ag10
(g14
S'lffff8\xca@'
p91
tp92
Rp93
ag10
(g14
S'\x9e\x99\x99\x999\xf5\xca@'
p94
tp95
Rp96
ag10
(g14
S'ODDD\xe4;\xcb@'
p97
tp98
Rp99
ag10
(g14
S'4333\xb3O\xc9@'
p100
tp101
Rp102
ag10
(g14
S'\x05\x00\x00\x00 p\xca@'
p103
tp104
Rp105
ag10
(g14
S'pfff\xa6\xf8\xc8@'
p106
tp107
Rp108
ag10
(g14
S';333\xf3"\xca@'
p109
tp110
Rp111
ag10
(g14
S'\xcf\xcc\xcc\xcc\x8c\xd4\xc8@'
p112
tp113
Rp114
ag10
(g14
S'4333\x13\x04\xc9@'
p115
tp116
Rp117
ag10
(g14
S'bfff\xe6#\xca@'
p118
tp119
Rp120
ag10
(g14
S'@333s5\xc9@'
p121
tp122
Rp123
ag10
(g14
S'nfff\xa6u\xca@'
p124
tp125
Rp126
ag10
(g14
S'\x9e\x99\x99\x99\xd9\xa9\xcb@'
p127
tp128
Rp129
ag10
(g14
S'2333S{\xca@'
p130
tp131
Rp132
ag10
(g14
S'2333Su\xca@'
p133
tp134
Rp135
ag10
(g14
S'5333s\x88\xc9@'
p136
tp137
Rp138
asssss.