(dp0
S'../Data/sqlite_1.csv'
p1
(dp2
S'../Data/sqlite_72.csv'
p3
(dp4
F0.05
(dp5
S'abs_res'
p6
(dp7
S'bellwether'
p8
(lp9
cnumpy.core.multiarray
scalar
p10
(cnumpy
dtype
p11
(S'f8'
p12
I0
I1
tp13
Rp14
(I3
S'<'
p15
NNNI-1
I-1
I0
tp16
bS'h\x91\xed\x9c\xd6:BA'
p17
tp18
Rp19
ag10
(g14
S'\xa2\x9b\xc4\x80<;BA'
p20
tp21
Rp22
ag10
(g14
S'\x97\x99\x99y\x94:BA'
p23
tp24
Rp25
ag10
(g14
S'\xc9\xa1E\xf6\xeb:BA'
p26
tp27
Rp28
ag10
(g14
S"\xb1\xc6K'\xac:BA"
p29
tp30
Rp31
ag10
(g14
S'-M\xa9\xd8L:BA'
p32
tp33
Rp34
ag10
(g14
S'\xd8\xa3pM\xf5:BA'
p35
tp36
Rp37
ag10
(g14
S'\xe2\xfb\xa9A8;BA'
p38
tp39
Rp40
ag10
(g14
S'y=\n\x87\xc3:BA'
p41
tp42
Rp43
ag10
(g14
S'f\x12\x83 \xcf:BA'
p44
tp45
Rp46
ag10
(g14
S'\xc6v\xbe\x1f%;BA'
p47
tp48
Rp49
ag10
(g14
S'\xc5 \xb0r\xc8:BA'
p50
tp51
Rp52
ag10
(g14
S'@S*~\xa5:BA'
p53
tp54
Rp55
ag10
(g14
S'\x1a\x04V.\xee:BA'
p56
tp57
Rp58
ag10
(g14
S'9\n\xd7\x83\xc8:BA'
p59
tp60
Rp61
ag10
(g14
S'\n\x02+\x072;BA'
p62
tp63
Rp64
ag10
(g14
S'l\x842\xfa\x9c:BA'
p65
tp66
Rp67
ag10
(g14
S'd\x80\xdc\x8b\xd9:BA'
p68
tp69
Rp70
ag10
(g14
S's\xaf\xb9p\xb2:BA'
p71
tp72
Rp73
ag10
(g14
S'\xfdo\x84R2;BA'
p74
tp75
Rp76
asS'target'
p77
(lp78
g10
(g14
S'\xd1"\xdb\xf9~\xcaW@'
p79
tp80
Rp81
ag10
(g14
S'\xcf \xb0rh9W@'
p82
tp83
Rp84
ag10
(g14
S'\xeb\xfb\xa9\xf1\xd2EY@'
p85
tp86
Rp87
ag10
(g14
S'\x85\xe9&1\x08\xccX@'
p88
tp89
Rp90
ag10
(g14
S'\x8b\x16\xd9\xce\xf7\x13[@'
p91
tp92
Rp93
ag10
(g14
S'\xa3C\x8bl\xe7\xcbV@'
p94
tp95
Rp96
ag10
(g14
S'\x19/\xdd$\x06YV@'
p97
tp98
Rp99
ag10
(g14
S'\xe4\xa3p=\n_V@'
p100
tp101
Rp102
ag10
(g14
S' \x85\xebQ\xb8\xf6V@'
p103
tp104
Rp105
ag10
(g14
S'F5^\xbaI\xacV@'
p106
tp107
Rp108
ag10
(g14
S'\x17\x04V\x0e-\x12W@'
p109
tp110
Rp111
ag10
(g14
S'~\x12\x83\xc0\xcaaX@'
p112
tp113
Rp114
ag10
(g14
S']9\xb4\xc8vNW@'
p115
tp116
Rp117
ag10
(g14
S'\x98\xed|?5vX@'
p118
tp119
Rp120
ag10
(g14
S'a\xe5\xd0"\xdb\xf9V@'
p121
tp122
Rp123
ag10
(g14
S'\x84\x16\xd9\xce\xf7#Y@'
p124
tp125
Rp126
ag10
(g14
S'\xe6\xa5\x9b\xc4 \xf8W@'
p127
tp128
Rp129
ag10
(g14
S'Z\xe3\xa5\x9b\xc4\x18Y@'
p130
tp131
Rp132
ag10
(g14
S'a\xe5\xd0"\xdb\xc9W@'
p133
tp134
Rp135
ag10
(g14
S'\xbfrh\x91\xed\\U@'
p136
tp137
Rp138
asssss.