(dp0
S'../Data/sqlite_50.csv'
p1
(dp2
S'../Data/sqlite_59.csv'
p3
(dp4
F0.4
(dp5
S'mmre'
p6
(dp7
S'bellwether'
p8
(lp9
cnumpy.core.multiarray
scalar
p10
(cnumpy
dtype
p11
(S'f8'
p12
I0
I1
tp13
Rp14
(I3
S'<'
p15
NNNI-1
I-1
I0
tp16
bS'\xfe\xe2C\x14-%T@'
p17
tp18
Rp19
ag10
(g14
S'5\xa1E\xab\x87&T@'
p20
tp21
Rp22
ag10
(g14
S'P+\xdaU\x92 T@'
p23
tp24
Rp25
ag10
(g14
S'\x9f\x01FSn*T@'
p26
tp27
Rp28
ag10
(g14
S'\xe4\x91\xf39=/T@'
p29
tp30
Rp31
ag10
(g14
S'\xd1\x14\x98I/(T@'
p32
tp33
Rp34
ag10
(g14
S'\xab6\xcaW\xa3"T@'
p35
tp36
Rp37
ag10
(g14
S'\xd3a\xb1\xf7\x8a&T@'
p38
tp39
Rp40
ag10
(g14
S'\x01F\x1f\xcc\xff$T@'
p41
tp42
Rp43
ag10
(g14
S'\x1bx\xe3+\xae#T@'
p44
tp45
Rp46
ag10
(g14
S'`\x8eB\x0f+(T@'
p47
tp48
Rp49
ag10
(g14
S'C5\x8d\x8dn(T@'
p50
tp51
Rp52
ag10
(g14
S'\xdb7\xd5\xa1\xf4$T@'
p53
tp54
Rp55
ag10
(g14
S'$\x0b\x9c)g!T@'
p56
tp57
Rp58
ag10
(g14
S'\xfe|\x8f\x98\xfe&T@'
p59
tp60
Rp61
ag10
(g14
S'\xad\x977\xc9\xc3"T@'
p62
tp63
Rp64
ag10
(g14
S'\xfe\xabu\xf3\xf4&T@'
p65
tp66
Rp67
ag10
(g14
S'\xfdXC\xad$+T@'
p68
tp69
Rp70
ag10
(g14
S'\x9e\xc7\xc3\xbdG)T@'
p71
tp72
Rp73
ag10
(g14
S"{%\x08\xfc\r'T@"
p74
tp75
Rp76
asS'target'
p77
(lp78
g10
(g14
S'\xcd\xe6!\x10E\xd9&@'
p79
tp80
Rp81
ag10
(g14
S'\x15m#\x19#y&@'
p82
tp83
Rp84
ag10
(g14
S'K\x81\x82\x1aw\xab%@'
p85
tp86
Rp87
ag10
(g14
S'\x08\x06\xef3+\xdb%@'
p88
tp89
Rp90
ag10
(g14
S'\xd5)\x0f\xb8`\x0e$@'
p91
tp92
Rp93
ag10
(g14
S'\x0e\x04+\x8c&A$@'
p94
tp95
Rp96
ag10
(g14
S'F\x17\t\xd2\x17\xc2%@'
p97
tp98
Rp99
ag10
(g14
S'n^\xa6\xec\xc5I%@'
p100
tp101
Rp102
ag10
(g14
S'\xa1\x18\xd6\xcclv%@'
p103
tp104
Rp105
ag10
(g14
S"c\xd1\x97?:\xa2'@"
p106
tp107
Rp108
ag10
(g14
S'=6\xa97\x07\xa9%@'
p109
tp110
Rp111
ag10
(g14
S'\x99b\xb0\x15\x1fc&@'
p112
tp113
Rp114
ag10
(g14
S'\x02\xe8\x80\xbf\xc5\x8b&@'
p115
tp116
Rp117
ag10
(g14
S"v\x97b&,('@"
p118
tp119
Rp120
ag10
(g14
S'3 ;$.\x83%@'
p121
tp122
Rp123
ag10
(g14
S"!J\xbfH?\xc1'@"
p124
tp125
Rp126
ag10
(g14
S'8F\x14\xb6+u&@'
p127
tp128
Rp129
ag10
(g14
S'\x0cj\x9c1l\x01&@'
p130
tp131
Rp132
ag10
(g14
S'?\xde\x15\xac:i&@'
p133
tp134
Rp135
ag10
(g14
S'\x802\xf3\x0f\xb9\x8d%@'
p136
tp137
Rp138
asssss.