(dp0
S'../Data/sqlite_74.csv'
p1
(dp2
S'../Data/sqlite_50.csv'
p3
(dp4
F0.25
(dp5
S'abs_res'
p6
(dp7
S'bellwether'
p8
(lp9
cnumpy.core.multiarray
scalar
p10
(cnumpy
dtype
p11
(S'f8'
p12
I0
I1
tp13
Rp14
(I3
S'<'
p15
NNNI-1
I-1
I0
tp16
bS'\xf9\x1b\xa1\xac\xc4iiA'
p17
tp18
Rp19
ag10
(g14
S'\xea^s}3ciA'
p20
tp21
Rp22
ag10
(g14
S';B\x19\xa9DeiA'
p23
tp24
Rp25
ag10
(g14
S'a\xe5\xd0\x12uZiA'
p26
tp27
Rp28
ag10
(g14
S'\xc7K7\x9d\xd1biA'
p29
tp30
Rp31
ag10
(g14
S'\xcd\xe8mi\x01TiA'
p32
tp33
Rp34
ag10
(g14
S'm.$\x15\x8cpiA'
p35
tp36
Rp37
ag10
(g14
S'\xc0\x83y\x86\x8d]iA'
p38
tp39
Rp40
ag10
(g14
S'\xef\x19v\x05\x9emiA'
p41
tp42
Rp43
ag10
(g14
S'\xd4\xe8m\xe9xhiA'
p44
tp45
Rp46
ag10
(g14
S'aff25iiA'
p47
tp48
Rp49
ag10
(g14
S'4\xa5\xe2T\x19_iA'
p50
tp51
Rp52
ag10
(g14
S'\x92\x97n>\x93kiA'
p53
tp54
Rp55
ag10
(g14
S'\xb8:&\xf8-biA'
p56
tp57
Rp58
ag10
(g14
S'FQ\xff\xf6\\ViA'
p59
tp60
Rp61
ag10
(g14
S'\x0ft\xda\xb4\xe6eiA'
p62
tp63
Rp64
ag10
(g14
S'\xa8p=:CWiA'
p65
tp66
Rp67
ag10
(g14
S'\xb5\x904\x85X[iA'
p68
tp69
Rp70
ag10
(g14
S'=33\x87opiA'
p71
tp72
Rp73
ag10
(g14
S'\x14\xaeG\xa5\x92[iA'
p74
tp75
Rp76
asS'target'
p77
(lp78
g10
(g14
S'E\x8bl\xe7\xfb\x19\\@'
p79
tp80
Rp81
ag10
(g14
S'\x12\x83\xc0\xca\xa1\xc1W@'
p82
tp83
Rp84
ag10
(g14
S'z\x14\xaeG\xe1ZW@'
p85
tp86
Rp87
ag10
(g14
S'\xf2\xa7\xc6K71X@'
p88
tp89
Rp90
ag10
(g14
S'|\x14\xaeG\xe1\xc6V@'
p91
tp92
Rp93
ag10
(g14
S'\x05+\x87\x16\xd9\xbaW@'
p94
tp95
Rp96
ag10
(g14
S'\xb7\x1e\x85\xebQ\x08X@'
p97
tp98
Rp99
ag10
(g14
S'k\xbct\x93\x18\xd8X@'
p100
tp101
Rp102
ag10
(g14
S'F5^\xbaI\xa4X@'
p103
tp104
Rp105
ag10
(g14
S'\x91\x18\x04V\x0e\xb5V@'
p106
tp107
Rp108
ag10
(g14
S'\xca"\xdb\xf9~\x8aW@'
p109
tp110
Rp111
ag10
(g14
S'w\x93\x18\x04V\xbeX@'
p112
tp113
Rp114
ag10
(g14
S'\xb2\x9d\xef\xa7\xc6\xcbW@'
p115
tp116
Rp117
ag10
(g14
S'\xbc\xf3\xfd\xd4x\x19X@'
p118
tp119
Rp120
ag10
(g14
S'\xa9\xc6K7\x89\x01W@'
p121
tp122
Rp123
ag10
(g14
S'23333+X@'
p124
tp125
Rp126
ag10
(g14
S'\xc5\xca\xa1E\xb6\x9bW@'
p127
tp128
Rp129
ag10
(g14
S'~\xe9&1\x08<W@'
p130
tp131
Rp132
ag10
(g14
S'\x81\xe9&1\x08\x00X@'
p133
tp134
Rp135
ag10
(g14
S'\xacG\xe1z\x14\xb6X@'
p136
tp137
Rp138
asssss.