(dp0
S'../Data/sqlite_52.csv'
p1
(dp2
S'../Data/sqlite_88.csv'
p3
(dp4
F0.1
(dp5
S'abs_res'
p6
(dp7
S'bellwether'
p8
(lp9
cnumpy.core.multiarray
scalar
p10
(cnumpy
dtype
p11
(S'f8'
p12
I0
I1
tp13
Rp14
(I3
S'<'
p15
NNNI-1
I-1
I0
tp16
bS"\xa2\xd3\x06V':cA"
p17
tp18
Rp19
ag10
(g14
S'\xb9\x1e\x85\x0f\xc67cA'
p20
tp21
Rp22
ag10
(g14
S'}N\x1b\xe8\xfbRcA'
p23
tp24
Rp25
ag10
(g14
S'\x8f\xc2\xf5(VNcA'
p26
tp27
Rp28
ag10
(g14
S'9\x96\xfc\x8aKAcA'
p29
tp30
Rp31
ag10
(g14
S'\x96\xfcbY!`cA'
p32
tp33
Rp34
ag10
(g14
S'\x0b\xd7\xa3`\xe0RcA'
p35
tp36
Rp37
ag10
(g14
S'\xa5p=BdDcA'
p38
tp39
Rp40
ag10
(g14
S'W\xf2\x8bmzScA'
p41
tp42
Rp43
ag10
(g14
S'*\\\x8f\xae\x97@cA'
p44
tp45
Rp46
ag10
(g14
S'jff\xb6s=cA'
p47
tp48
Rp49
ag10
(g14
S'\xc0\x1e\x85\xd3\r>cA'
p50
tp51
Rp52
ag10
(g14
S'\\\x8f\xc2\xb5\xae+cA'
p53
tp54
Rp55
ag10
(g14
S'lff\x12F8cA'
p56
tp57
Rp58
ag10
(g14
S'\xa1p=J\x97GcA'
p59
tp60
Rp61
ag10
(g14
S'\xf1Q\xb8^\xe1(cA'
p62
tp63
Rp64
ag10
(g14
S'\xd5\xcc\xcc\x10N7cA'
p65
tp66
Rp67
ag10
(g14
S'^\x8f\xc2\x91\x947cA'
p68
tp69
Rp70
ag10
(g14
S'V\xb8\x1e\xdd"OcA'
p71
tp72
Rp73
ag10
(g14
S'\xe2z\x14*\x92=cA'
p74
tp75
Rp76
asS'target'
p77
(lp78
g10
(g14
S'533\xb3\x11\x946A'
p79
tp80
Rp81
ag10
(g14
S'\xa9G\xe1z\xba\xee/A'
p82
tp83
Rp84
ag10
(g14
S'\\\x8f\xc2u\x99*2A'
p85
tp86
Rp87
ag10
(g14
S'`ff&\x8fJ7A'
p88
tp89
Rp90
ag10
(g14
S'|\x14\xae\x87;\xfe4A'
p91
tp92
Rp93
ag10
(g14
S'$\x85\xebQ7\x83=A'
p94
tp95
Rp96
ag10
(g14
S'}\x14\xaeG\xf0V:A'
p97
tp98
Rp99
ag10
(g14
S'F\xe1z\x94\xd3\x9b<A'
p100
tp101
Rp102
ag10
(g14
S'\x02\xd7\xa3\xb0\xf19=A'
p103
tp104
Rp105
ag10
(g14
S'\xa4p=\x8aO"8A'
p106
tp107
Rp108
ag10
(g14
S'\x16\xaeG\xa1\x9c\xe46A'
p109
tp110
Rp111
ag10
(g14
S'\xacG\xe1\xfa\xd7\xb55A'
p112
tp113
Rp114
ag10
(g14
S'$\x85\xeb\xd1\x90f=A'
p115
tp116
Rp117
ag10
(g14
S'\x8d\xc2\xf5(\xeb\x8e?A'
p118
tp119
Rp120
ag10
(g14
S'\xeb(\\O\x02\xb37A'
p121
tp122
Rp123
ag10
(g14
S'\xd3\xa3p=\xb7\xce)A'
p124
tp125
Rp126
ag10
(g14
S'\xff\xff\xff?\xde\x042A'
p127
tp128
Rp129
ag10
(g14
S'\xf6(\\O\x1e`0A'
p130
tp131
Rp132
ag10
(g14
S'\xbf\xf5(\x9c\n\x81@A'
p133
tp134
Rp135
ag10
(g14
S"\xedQ\xb8^U'1A"
p136
tp137
Rp138
asssss.