(dp0
S'../Data/sqlite_70.csv'
p1
(dp2
S'../Data/sqlite_85.csv'
p3
(dp4
F0.3
(dp5
S'abs_res'
p6
(dp7
S'bellwether'
p8
(lp9
cnumpy.core.multiarray
scalar
p10
(cnumpy
dtype
p11
(S'f8'
p12
I0
I1
tp13
Rp14
(I3
S'<'
p15
NNNI-1
I-1
I0
tp16
bS'\xfcU\x0e\xcd\xe6,SA'
p17
tp18
Rp19
ag10
(g14
S'\x0b\x02+s\xcdYSA'
p20
tp21
Rp22
ag10
(g14
S'/\x08\xac(\x9eGSA'
p23
tp24
Rp25
ag10
(g14
S'\xfd\xd4x\x1d\x0bBSA'
p26
tp27
Rp28
ag10
(g14
S'\x1e\x04V\xda\xc0\x8dSA'
p29
tp30
Rp31
ag10
(g14
S'\x98\xed|\xabM\x04SA'
p32
tp33
Rp34
ag10
(g14
S'\x8bl\xe7\xcb;2SA'
p35
tp36
Rp37
ag10
(g14
S'\x89\x16\xd9\xfaW3SA'
p38
tp39
Rp40
ag10
(g14
S'!\x06\x81\xe93&SA'
p41
tp42
Rp43
ag10
(g14
S'\x14\xd9\xce\x13Q\x05SA'
p44
tp45
Rp46
ag10
(g14
S'N\x8d\x97\xc6jPSA'
p47
tp48
Rp49
ag10
(g14
S'w?5\x1a\xaftSA'
p50
tp51
Rp52
ag10
(g14
S'\xdc\xf9~j\x03gSA'
p53
tp54
Rp55
ag10
(g14
S'_\xbaIx%\x81SA'
p56
tp57
Rp58
ag10
(g14
S'\x96\x99\x99\xa1 ZSA'
p59
tp60
Rp61
ag10
(g14
S's=\n\xa3`8SA'
p62
tp63
Rp64
ag10
(g14
S'\xcc\xcc\xcc0\x93xSA'
p65
tp66
Rp67
ag10
(g14
S'\x16\x83\xc0\x8adgSA'
p68
tp69
Rp70
ag10
(g14
S'\x8c\x16\xd9.~mSA'
p71
tp72
Rp73
ag10
(g14
S'\x1a/\xdd49SSA'
p74
tp75
Rp76
asS'target'
p77
(lp78
g10
(g14
S'(\\\x8frhS@A'
p79
tp80
Rp81
ag10
(g14
S'W\x8f\xc25\xf3(<A'
p82
tp83
Rp84
ag10
(g14
S'\x84\xebQ\x98NN>A'
p85
tp86
Rp87
ag10
(g14
S'$\\\x8fBD4:A'
p88
tp89
Rp90
ag10
(g14
S'\xf0Q\xb8\xdeq=>A'
p91
tp92
Rp93
ag10
(g14
S'\x0e\xd7\xa3\xb03\x02?A'
p94
tp95
Rp96
ag10
(g14
S'w\x14\xaeW\xb24@A'
p97
tp98
Rp99
ag10
(g14
S'bUUU\x9b[>A'
p100
tp101
Rp102
ag10
(g14
S'\xbe\x1e\x85\xab3\xec<A'
p103
tp104
Rp105
ag10
(g14
S'\x0f\xd7\xa3\xb0\xfb\x1c?A'
p106
tp107
Rp108
ag10
(g14
S'A\xe1z\x94z8<A'
p109
tp110
Rp111
ag10
(g14
S'y=\n\xd7\xbe\x81;A'
p112
tp113
Rp114
ag10
(g14
S'\x9fp=J|\xe9<A'
p115
tp116
Rp117
ag10
(g14
S'>\n\xd7#.3<A'
p118
tp119
Rp120
ag10
(g14
S'\xecz\x14\xae\xe7\xc4:A'
p121
tp122
Rp123
ag10
(g14
S'k=\nWU\x02<A'
p124
tp125
Rp126
ag10
(g14
S'\x88\xebQ\xb8`\xab?A'
p127
tp128
Rp129
ag10
(g14
S'\xacG\xe1\xba\x1a\x11>A'
p130
tp131
Rp132
ag10
(g14
S'\xcc\xcc\xcc\xcc6);A'
p133
tp134
Rp135
ag10
(g14
S'\xf2(\\\x0f\x15P:A'
p136
tp137
Rp138
asssss.