(dp0
S'../Data/sqlite_15.csv'
p1
(dp2
S'../Data/sqlite_3.csv'
p3
(dp4
F0.25
(dp5
S'abs_res'
p6
(dp7
S'bellwether'
p8
(lp9
cnumpy.core.multiarray
scalar
p10
(cnumpy
dtype
p11
(S'f8'
p12
I0
I1
tp13
Rp14
(I3
S'<'
p15
NNNI-1
I-1
I0
tp16
bS'\xbf\x83y\xa25t<A'
p17
tp18
Rp19
ag10
(g14
S'"\\\x8f\xc2%t<A'
p20
tp21
Rp22
ag10
(g14
S'\x85\t\x1e\x0c#r<A'
p23
tp24
Rp25
ag10
(g14
S'\xb5I\x0c\xc27t<A'
p26
tp27
Rp28
ag10
(g14
S'\x11\x83\xc0J\x00u<A'
p29
tp30
Rp31
ag10
(g14
S'\x02\xc8\xbdF\xccs<A'
p32
tp33
Rp34
ag10
(g14
S'Y\xc7\x04\xcfwt<A'
p35
tp36
Rp37
ag10
(g14
S'\xef\x19v\xa5#r<A'
p38
tp39
Rp40
ag10
(g14
S'\xd6$\x06a\xafs<A'
p41
tp42
Rp43
ag10
(g14
S'433\xf3\xf5s<A'
p44
tp45
Rp46
ag10
(g14
S'\x06IS\xca\x0er<A'
p47
tp48
Rp49
ag10
(g14
S'\xf99m\xe0\xf0s<A'
p50
tp51
Rp52
ag10
(g14
S'z2z{\xdfu<A'
p53
tp54
Rp55
ag10
(g14
S'\xbc\xbb\xbb\xfb@t<A'
p56
tp57
Rp58
ag10
(g14
S'\xb6\x9d\xefG.s<A'
p59
tp60
Rp61
ag10
(g14
S'\xd9\xc1<\xf1Zr<A'
p62
tp63
Rp64
ag10
(g14
S'iY\xabc\xb5s<A'
p65
tp66
Rp67
ag10
(g14
S'\xf6\x9c6\x90~q<A'
p68
tp69
Rp70
ag10
(g14
S'833s\xd0t<A'
p71
tp72
Rp73
ag10
(g14
S'\xddmY\xab&r<A'
p74
tp75
Rp76
asS'target'
p77
(lp78
g10
(g14
S'\xeeS\xe3\xa5\x9b\x12k@'
p79
tp80
Rp81
ag10
(g14
S';\x89A`\xe5Hk@'
p82
tp83
Rp84
ag10
(g14
S'\xff\xa9\xf1\xd2M&j@'
p85
tp86
Rp87
ag10
(g14
S'\xa2\xef\xa7\xc6Kcn@'
p88
tp89
Rp90
ag10
(g14
S'd\x10X9\xb4\xael@'
p91
tp92
Rp93
ag10
(g14
S'\x85\xc0\xca\xa1E@n@'
p94
tp95
Rp96
ag10
(g14
S'\xacrh\x91\xed`h@'
p97
tp98
Rp99
ag10
(g14
S'\x95\xc4 \xb0r\x8ek@'
p100
tp101
Rp102
ag10
(g14
S'F5^\xbaI\x00k@'
p103
tp104
Rp105
ag10
(g14
S'03333\x13k@'
p106
tp107
Rp108
ag10
(g14
S'\xd5O\x8d\x97n\xaej@'
p109
tp110
Rp111
ag10
(g14
S'\xff\xff\xff\xff\xff\xedl@'
p112
tp113
Rp114
ag10
(g14
S'\x81\xc0\xca\xa1E\xf6m@'
p115
tp116
Rp117
ag10
(g14
S'\xc0 \xb0rh}j@'
p118
tp119
Rp120
ag10
(g14
S'"\\\x8f\xc2\xf5\x1aj@'
p121
tp122
Rp123
ag10
(g14
S'\xe3\xce\xf7S\xe3ml@'
p124
tp125
Rp126
ag10
(g14
S'\x00\x81\x95C\x8b\x18j@'
p127
tp128
Rp129
ag10
(g14
S'\xf1\xfd\xd4x\xe9\x16m@'
p130
tp131
Rp132
ag10
(g14
S'\x88\x16\xd9\xce\xf7\xedj@'
p133
tp134
Rp135
ag10
(g14
S'\x1dZd;\xdfwl@'
p136
tp137
Rp138
asssss.