(dp0
S'../Data/sqlite_41.csv'
p1
(dp2
S'../Data/sqlite_62.csv'
p3
(dp4
F0.05
(dp5
S'mmre'
p6
(dp7
S'bellwether'
p8
(lp9
cnumpy.core.multiarray
scalar
p10
(cnumpy
dtype
p11
(S'f8'
p12
I0
I1
tp13
Rp14
(I3
S'<'
p15
NNNI-1
I-1
I0
tp16
bS'\xdc\xd8h\x90\xaf4:@'
p17
tp18
Rp19
ag10
(g14
S'\xda\x12rm5M:@'
p20
tp21
Rp22
ag10
(g14
S'c%\xc4\xdf\x0bB:@'
p23
tp24
Rp25
ag10
(g14
S'dLcKV?:@'
p26
tp27
Rp28
ag10
(g14
S'H\xf1\xe3,\xee.:@'
p29
tp30
Rp31
ag10
(g14
S'\x1b\x98As\x8aE:@'
p32
tp33
Rp34
ag10
(g14
S'\x04\x01e4\xd5?:@'
p35
tp36
Rp37
ag10
(g14
S'\x8a#\x80\xcd\x01-:@'
p38
tp39
Rp40
ag10
(g14
S'\xaa-1\n\x12G:@'
p41
tp42
Rp43
ag10
(g14
S'\xae\xb5\xe6\x85\xca=:@'
p44
tp45
Rp46
ag10
(g14
S"\xb7\xa7'URG:@"
p47
tp48
Rp49
ag10
(g14
S'Q[Sz\xb6!:@'
p50
tp51
Rp52
ag10
(g14
S'7\xcb\xf2\xcdf<:@'
p53
tp54
Rp55
ag10
(g14
S'\x07\x99\x8a\x94)7:@'
p56
tp57
Rp58
ag10
(g14
S':\x15\xdee\x0e-:@'
p59
tp60
Rp61
ag10
(g14
S'\xb8\xa6\xf2\xc6\x16P:@'
p62
tp63
Rp64
ag10
(g14
S'\x16\xc6UmnA:@'
p65
tp66
Rp67
ag10
(g14
S'\xce{\xd4\xff7Y:@'
p68
tp69
Rp70
ag10
(g14
S'@ F\xa8\x892:@'
p71
tp72
Rp73
ag10
(g14
S'o\xec\x93P\\A:@'
p74
tp75
Rp76
asS'target'
p77
(lp78
g10
(g14
S'6,\x82\xfb6K#@'
p79
tp80
Rp81
ag10
(g14
S'\xac\xef7\xbaDN!@'
p82
tp83
Rp84
ag10
(g14
S'\x85\x12\xd0Igi @'
p85
tp86
Rp87
ag10
(g14
S'LEh\x9e\x02\xa5 @'
p88
tp89
Rp90
ag10
(g14
S'\x94+-+\xbaD @'
p91
tp92
Rp93
ag10
(g14
S'a\x89\x14\xee\xf3Z"@'
p94
tp95
Rp96
ag10
(g14
S'\xeb,\x9e\x16\x83\x0b"@'
p97
tp98
Rp99
ag10
(g14
S'\xfd\x02\xfc\xe1\x8c\x90$@'
p100
tp101
Rp102
ag10
(g14
S'.\xec\xca-<U"@'
p103
tp104
Rp105
ag10
(g14
S'F*m\xad\xda\x9b!@'
p106
tp107
Rp108
ag10
(g14
S'\x03\xf6W\xe4\x8a !@'
p109
tp110
Rp111
ag10
(g14
S' O\x05\xff\x99\x86#@'
p112
tp113
Rp114
ag10
(g14
S'\x96\x13\xb9\xe8\xed\xff"@'
p115
tp116
Rp117
ag10
(g14
S'm]\xfaxi\xf8$@'
p118
tp119
Rp120
ag10
(g14
S'\x86\x88\x9bD\x80-"@'
p121
tp122
Rp123
ag10
(g14
S'(\x18.\xc7\xeay @'
p124
tp125
Rp126
ag10
(g14
S'\x07\x12i\xd6~."@'
p127
tp128
Rp129
ag10
(g14
S'\xc3O\x9d\xa4\x95R @'
p130
tp131
Rp132
ag10
(g14
S'^_\x011%\x94!@'
p133
tp134
Rp135
ag10
(g14
S'F\xfcv6/\xd7!@'
p136
tp137
Rp138
asssss.