(dp0
S'../Data/sqlite_15.csv'
p1
(dp2
S'../Data/sqlite_6.csv'
p3
(dp4
F0.2
(dp5
S'abs_res'
p6
(dp7
S'bellwether'
p8
(lp9
cnumpy.core.multiarray
scalar
p10
(cnumpy
dtype
p11
(S'f8'
p12
I0
I1
tp13
Rp14
(I3
S'<'
p15
NNNI-1
I-1
I0
tp16
bS'C\x8bl\xe7\x04M>A'
p17
tp18
Rp19
ag10
(g14
S'X\xe3\xa5[ZL>A'
p20
tp21
Rp22
ag10
(g14
S'=\n\xd7\xc3\x1bM>A'
p23
tp24
Rp25
ag10
(g14
S'{0O\x94;L>A'
p26
tp27
Rp28
ag10
(g14
S'\xb4\x904\xe59L>A'
p29
tp30
Rp31
ag10
(g14
S'\xd3\xea\x98\x00KM>A'
p32
tp33
Rp34
ag10
(g14
S'\xc3<Q\x1fnM>A'
p35
tp36
Rp37
ag10
(g14
S'<\xa7\r\xb4fL>A'
p38
tp39
Rp40
ag10
(g14
S"'x0\x8f\xd4K>A"
p41
tp42
Rp43
ag10
(g14
S'\x9e\xc4 P\xb5L>A'
p44
tp45
Rp46
ag10
(g14
S'\xf4\xa7\xc6\x0bVM>A'
p47
tp48
Rp49
ag10
(g14
S'<\xd0i#?O>A'
p50
tp51
Rp52
ag10
(g14
S'\x86]\x01\x12\xfdK>A'
p53
tp54
Rp55
ag10
(g14
S'\xf3S\xe3\xe5\x80L>A'
p56
tp57
Rp58
ag10
(g14
S'i\x82\x073IL>A'
p59
tp60
Rp61
ag10
(g14
S'A\xb6\xf3=[L>A'
p62
tp63
Rp64
ag10
(g14
S'v\x05\xc8}\xcbL>A'
p65
tp66
Rp67
ag10
(g14
S'N\xd4\xbf\x915K>A'
p68
tp69
Rp70
ag10
(g14
S'\xfaS\xe3\xa5yL>A'
p71
tp72
Rp73
ag10
(g14
S'\xb1\x1e\x85\xab#N>A'
p74
tp75
Rp76
asS'target'
p77
(lp78
g10
(g14
S'\x94\x18\x04V\x0e=p@'
p79
tp80
Rp81
ag10
(g14
S'A5^\xbaI\xa6q@'
p82
tp83
Rp84
ag10
(g14
S'\xa2\x1a/\xdd$Vq@'
p85
tp86
Rp87
ag10
(g14
S'\xbc\xca\xa1E\xb6\x85r@'
p88
tp89
Rp90
ag10
(g14
S'6\x89A`\xe5\xcbq@'
p91
tp92
Rp93
ag10
(g14
S'\xd4x\xe9&1Dr@'
p94
tp95
Rp96
ag10
(g14
S'\x04+\x87\x16\xd9lr@'
p97
tp98
Rp99
ag10
(g14
S'\tV\x0e-\xb2\xafs@'
p100
tp101
Rp102
ag10
(g14
S'\xa4\x9b\xc4 \xb0\x94q@'
p103
tp104
Rp105
ag10
(g14
S'0\xb2\x9d\xef\xa7Rp@'
p106
tp107
Rp108
ag10
(g14
S'\xb6\xc8v\xbe\x9f\xc6p@'
p109
tp110
Rp111
ag10
(g14
S'\xa6\xef\xa7\xc6K\xe3q@'
p112
tp113
Rp114
ag10
(g14
S'Kb\x10X9&q@'
p115
tp116
Rp117
ag10
(g14
S'\n\xac\x1cZd7s@'
p118
tp119
Rp120
ag10
(g14
S'#\xdb\xf9~j\x94q@'
p121
tp122
Rp123
ag10
(g14
S'\x9bn\x12\x83\xc0\xdfp@'
p124
tp125
Rp126
ag10
(g14
S'E\x0c\x02+\x87\xc8p@'
p127
tp128
Rp129
ag10
(g14
S'!\x85\xebQ\xb8$q@'
p130
tp131
Rp132
ag10
(g14
S'\xbft\x93\x18\x04\xd6p@'
p133
tp134
Rp135
ag10
(g14
S'\x11X9\xb4\xc8\x84r@'
p136
tp137
Rp138
asssss.