(dp0
S'../Data/sqlite_64.csv'
p1
(dp2
S'../Data/sqlite_18.csv'
p3
(dp4
F0.35
(dp5
S'abs_res'
p6
(dp7
S'bellwether'
p8
(lp9
cnumpy.core.multiarray
scalar
p10
(cnumpy
dtype
p11
(S'f8'
p12
I0
I1
tp13
Rp14
(I3
S'<'
p15
NNNI-1
I-1
I0
tp16
bS'\xffF(\x93\x08.9A'
p17
tp18
Rp19
ag10
(g14
S'\x11\xe6\x89\xfa\xb2,9A'
p20
tp21
Rp22
ag10
(g14
S'\xac\xf1\xd2\xcd/,9A'
p23
tp24
Rp25
ag10
(g14
S'A\xfd\x1b\xe1\xaf,9A'
p26
tp27
Rp28
ag10
(g14
S'\x1a\xf7\x9aK\xc2)9A'
p29
tp30
Rp31
ag10
(g14
S'_W\x80\\1,9A'
p32
tp33
Rp34
ag10
(g14
S't\xbe\x9f*\xfe+9A'
p35
tp36
Rp37
ag10
(g14
S'\xd8z\x14\x8e\xb6,9A'
p38
tp39
Rp40
ag10
(g14
S'\x9a\x8c\xde&\x17,9A'
p41
tp42
Rp43
ag10
(g14
S';Q\xff\xd6\x86*9A'
p44
tp45
Rp46
ag10
(g14
S'}\x95Ck\xcf+9A'
p47
tp48
Rp49
ag10
(g14
S'\xdbk.4\x14+9A'
p50
tp51
Rp52
ag10
(g14
S'\xfeF(3\xc4,9A'
p53
tp54
Rp55
ag10
(g14
S'l\xd8\x15\x90V*9A'
p56
tp57
Rp58
ag10
(g14
S'\xab\x0f\x9fA\x0c,9A'
p59
tp60
Rp61
ag10
(g14
S'\x87]\x01RK+9A'
p62
tp63
Rp64
ag10
(g14
S'h\x10XYn,9A'
p65
tp66
Rp67
ag10
(g14
S'\x13\xd9\xceW\xcd*9A'
p68
tp69
Rp70
ag10
(g14
S'_\xbaIL{,9A'
p71
tp72
Rp73
ag10
(g14
S'n\xf4\xb6\x8c\x99,9A'
p74
tp75
Rp76
asS'target'
p77
(lp78
g10
(g14
S'jfff\xa63\xcb@'
p79
tp80
Rp81
ag10
(g14
S'jfff\x86<\xcd@'
p82
tp83
Rp84
ag10
(g14
S'3333\xb3l\xca@'
p85
tp86
Rp87
ag10
(g14
S'\x9f\x99\x99\x99\xf9@\xca@'
p88
tp89
Rp90
ag10
(g14
S'dfff\xc6\x85\xcb@'
p91
tp92
Rp93
ag10
(g14
S'5333\x93\t\xcb@'
p94
tp95
Rp96
ag10
(g14
S'-333\xd3\xd0\xcb@'
p97
tp98
Rp99
ag10
(g14
S'.333\xf3g\xcb@'
p100
tp101
Rp102
ag10
(g14
S'9333\x13\x8d\xcb@'
p103
tp104
Rp105
ag10
(g14
S'\x9a\x99\x99\x99\x99F\xcc@'
p106
tp107
Rp108
ag10
(g14
S'*333\xd3\x00\xcc@'
p109
tp110
Rp111
ag10
(g14
S'\x93\x99\x99\x99Y0\xca@'
p112
tp113
Rp114
ag10
(g14
S'bfff\x86u\xcb@'
p115
tp116
Rp117
ag10
(g14
S'bfff&\x83\xcb@'
p118
tp119
Rp120
ag10
(g14
S'\xa0\x99\x99\x99Y\xe2\xcb@'
p121
tp122
Rp123
ag10
(g14
S'gfff\xa6\xf3\xcc@'
p124
tp125
Rp126
ag10
(g14
S'6333S\x16\xcc@'
p127
tp128
Rp129
ag10
(g14
S'7333\x93I\xcc@'
p130
tp131
Rp132
ag10
(g14
S'\x06\x00\x00\x00\x80l\xce@'
p133
tp134
Rp135
ag10
(g14
S'\xfa\xff\xff\xff\xff\x93\xcb@'
p136
tp137
Rp138
asssss.