(dp0
S'../Data/sqlite_69.csv'
p1
(dp2
S'../Data/sqlite_77.csv'
p3
(dp4
F0.1
(dp5
S'mmre'
p6
(dp7
S'bellwether'
p8
(lp9
cnumpy.core.multiarray
scalar
p10
(cnumpy
dtype
p11
(S'f8'
p12
I0
I1
tp13
Rp14
(I3
S'<'
p15
NNNI-1
I-1
I0
tp16
bS'\xfe\xf4p\x8d\xc4\x84d@'
p17
tp18
Rp19
ag10
(g14
S'7?xjVcd@'
p20
tp21
Rp22
ag10
(g14
S'\x07\xe8\xcc\xc9\x82]d@'
p23
tp24
Rp25
ag10
(g14
S'SI\xc2\xb5\xdewd@'
p26
tp27
Rp28
ag10
(g14
S'YQa\xad\xdcvd@'
p29
tp30
Rp31
ag10
(g14
S'\xb4\x95e\xdc\x89\x88d@'
p32
tp33
Rp34
ag10
(g14
S'\xe3\xdd\xbeH\x9cjd@'
p35
tp36
Rp37
ag10
(g14
S'\x14\x1c\xdb\xdc\x9ehd@'
p38
tp39
Rp40
ag10
(g14
S'\xceya\xe4\xfaod@'
p41
tp42
Rp43
ag10
(g14
S'4m\x8d\xca3\\d@'
p44
tp45
Rp46
ag10
(g14
S'\x07H\x9d\xdc8[d@'
p47
tp48
Rp49
ag10
(g14
S'p{\x15\xcb\xaasd@'
p50
tp51
Rp52
ag10
(g14
S'\x17{\xfa9\xadsd@'
p53
tp54
Rp55
ag10
(g14
S'\xb9\xdd\xf6\xbbakd@'
p56
tp57
Rp58
ag10
(g14
S'\x00\xef\x10m\x8d\x80d@'
p59
tp60
Rp61
ag10
(g14
S'?F\xb7.Iud@'
p62
tp63
Rp64
ag10
(g14
S'3\xed9\x12\xb0pd@'
p65
tp66
Rp67
ag10
(g14
S'\x83\x02\x8f\x81\xb9cd@'
p68
tp69
Rp70
ag10
(g14
S'E)\xd4z\xa9qd@'
p71
tp72
Rp73
ag10
(g14
S'\xaf "\xa8\x17_d@'
p74
tp75
Rp76
asS'target'
p77
(lp78
g10
(g14
S'\xa2\x82OY097@'
p79
tp80
Rp81
ag10
(g14
S'\xad3\r\x7f\xbfy8@'
p82
tp83
Rp84
ag10
(g14
S'\x95o\xfd.=\xd35@'
p85
tp86
Rp87
ag10
(g14
S'\r\xb7z\x1b<;8@'
p88
tp89
Rp90
ag10
(g14
S'f\x8c4\xf0Rt6@'
p91
tp92
Rp93
ag10
(g14
S'5\xb5\x91P\xd8\xd86@'
p94
tp95
Rp96
ag10
(g14
S'\xa49\xb3m\x8bF6@'
p97
tp98
Rp99
ag10
(g14
S'\xfa\xcb\xfb\x05\xa4\x956@'
p100
tp101
Rp102
ag10
(g14
S'\xcevM\x15\\>5@'
p103
tp104
Rp105
ag10
(g14
S'\xa0\xf3O\xad\x8f\x875@'
p106
tp107
Rp108
ag10
(g14
S'f\x03\xfd\xdb;\xaa6@'
p109
tp110
Rp111
ag10
(g14
S'K\xb8\xcb+\xe8;8@'
p112
tp113
Rp114
ag10
(g14
S'\x04\xfb\x045{U7@'
p115
tp116
Rp117
ag10
(g14
S'\x81\xf58\xb4\x12\x8d4@'
p118
tp119
Rp120
ag10
(g14
S'\xc6\x8b\x834BK6@'
p121
tp122
Rp123
ag10
(g14
S'\x80A\xc0hmb7@'
p124
tp125
Rp126
ag10
(g14
S'\x1a7u;5\x865@'
p127
tp128
Rp129
ag10
(g14
S'\xe6a;M\xc4\xda3@'
p130
tp131
Rp132
ag10
(g14
S'~\xe7\xacw\xbf\xcf5@'
p133
tp134
Rp135
ag10
(g14
S'\xa4\x1a0\xca;;4@'
p136
tp137
Rp138
asssss.