(dp0
S'../Data/sqlite_57.csv'
p1
(dp2
S'../Data/sqlite_85.csv'
p3
(dp4
F0.4
(dp5
S'abs_res'
p6
(dp7
S'bellwether'
p8
(lp9
cnumpy.core.multiarray
scalar
p10
(cnumpy
dtype
p11
(S'f8'
p12
I0
I1
tp13
Rp14
(I3
S'<'
p15
NNNI-1
I-1
I0
tp16
bS'V\xb8\x1e\xa5AhRA'
p17
tp18
Rp19
ag10
(g14
S'\xf3(\\\xbf\x08qRA'
p20
tp21
Rp22
ag10
(g14
S'P\xb8\x1eU`\x81RA'
p23
tp24
Rp25
ag10
(g14
S'\xaeG\xe1\x9a|SRA'
p26
tp27
Rp28
ag10
(g14
S'\x12\xaeG\x11\x12\xc1RA'
p29
tp30
Rp31
ag10
(g14
S'\xb9\x1e\x85\xeb\x93\x9aRA'
p32
tp33
Rp34
ag10
(g14
S'\xfd\xff\xffOQgRA'
p35
tp36
Rp37
ag10
(g14
S'\xd0\xa3pm[}RA'
p38
tp39
Rp40
ag10
(g14
S'{\x14\xae\xf7\x92&RA'
p41
tp42
Rp43
ag10
(g14
S'\xaap=\xfa\xeerRA'
p44
tp45
Rp46
ag10
(g14
S'\xf8(\\oveRA'
p47
tp48
Rp49
ag10
(g14
S'p=\n\xb7\x8c\x8eRA'
p50
tp51
Rp52
ag10
(g14
S'\xd6\xa3p=\xe6iRA'
p53
tp54
Rp55
ag10
(g14
S'\x8d\xc2\xf5\x88\xb8]RA'
p56
tp57
Rp58
ag10
(g14
S'\x9a\x99\x99\xa9\xb3\xacRA'
p59
tp60
Rp61
ag10
(g14
S'\x90\xc2\xf5hlJRA'
p62
tp63
Rp64
ag10
(g14
S'r=\nwb\xc9RA'
p65
tp66
Rp67
ag10
(g14
S'lff\x16\xe5jRA'
p68
tp69
Rp70
ag10
(g14
S'\xce\xcc\xcc\xac\x9d\x87RA'
p71
tp72
Rp73
ag10
(g14
S'-\\\x8f\xb28\x81RA'
p74
tp75
Rp76
asS'target'
p77
(lp78
g10
(g14
S'q=\n7\x17\x9b9A'
p79
tp80
Rp81
ag10
(g14
S'\xe6z\x14\xeeB\xab9A'
p82
tp83
Rp84
ag10
(g14
S'\xc9\xf5(\\\xe0\x109A'
p85
tp86
Rp87
ag10
(g14
S'G\xe1zT\xbb6<A'
p88
tp89
Rp90
ag10
(g14
S'\x80\x14\xae\x875\x1c9A'
p91
tp92
Rp93
ag10
(g14
S'r=\nW~\xce8A'
p94
tp95
Rp96
ag10
(g14
S'\xb9\x81N\xdb\xd0C7A'
p97
tp98
Rp99
ag10
(g14
S':33\xd3<\x87:A'
p100
tp101
Rp102
ag10
(g14
S'&\x85\xeb1\x96\xbc:A'
p103
tp104
Rp105
ag10
(g14
S's=\n\x97x\xd57A'
p106
tp107
Rp108
ag10
(g14
S'\xca\x92_\xacX\x8e8A'
p109
tp110
Rp111
ag10
(g14
S'\x07\xd7\xa3p\xa0\xdc8A'
p112
tp113
Rp114
ag10
(g14
S"'33\xf3)):A"
p115
tp116
Rp117
ag10
(g14
S'\xeeQ\xb8\x1eJA8A'
p118
tp119
Rp120
ag10
(g14
S'>\n\xd7#7*8A'
p121
tp122
Rp123
ag10
(g14
S'\xbe\xf5(\x1c\n1<A'
p124
tp125
Rp126
ag10
(g14
S'\x06\x00\x00\x00L\x188A'
p127
tp128
Rp129
ag10
(g14
S'\xff\xff\xff\x7fy\x8d8A'
p130
tp131
Rp132
ag10
(g14
S'\xf4(\\OI\x1e9A'
p133
tp134
Rp135
ag10
(g14
S'\xadG\xe1:\xf9\xbf8A'
p136
tp137
Rp138
asssss.