(dp0
S'../Data/sqlite_25.csv'
p1
(dp2
S'../Data/sqlite_46.csv'
p3
(dp4
F0.25
(dp5
S'abs_res'
p6
(dp7
S'bellwether'
p8
(lp9
cnumpy.core.multiarray
scalar
p10
(cnumpy
dtype
p11
(S'f8'
p12
I0
I1
tp13
Rp14
(I3
S'<'
p15
NNNI-1
I-1
I0
tp16
bS'\xfeb\xc9\x8f\x0b$8A'
p17
tp18
Rp19
ag10
(g14
S'\x88%\xbf8-#8A'
p20
tp21
Rp22
ag10
(g14
S'\xc4\xf5(\x1c\x00#8A'
p23
tp24
Rp25
ag10
(g14
S';m\xa0\x93\xbe"8A'
p26
tp27
Rp28
ag10
(g14
S'\xd2\xcc\xcc,\x9f$8A'
p29
tp30
Rp31
ag10
(g14
S'\xd4\xa3p\x1d\xa1"8A'
p32
tp33
Rp34
ag10
(g14
S'Z\x8f\xc25>#8A'
p35
tp36
Rp37
ag10
(g14
S'\x1c\x85\xeb\x11\xc8#8A'
p38
tp39
Rp40
ag10
(g14
S'\x82ww\x17O#8A'
p41
tp42
Rp43
ag10
(g14
S'\x9d6\xd0\x89\xbc#8A'
p44
tp45
Rp46
ag10
(g14
S'~\x14\xae\x87u"8A'
p47
tp48
Rp49
ag10
(g14
S'b\xf2\x8b\xc5\xd7"8A'
p50
tp51
Rp52
ag10
(g14
S'[,\xf9E\xf2"8A'
p53
tp54
Rp55
ag10
(g14
S'8333I#8A'
p56
tp57
Rp58
ag10
(g14
S'\xce\xf5(\x9cQ$8A'
p59
tp60
Rp61
ag10
(g14
S'\xdcz\x14N\x03#8A'
p62
tp63
Rp64
ag10
(g14
S':m\xa0\x13<$8A'
p65
tp66
Rp67
ag10
(g14
S'"\xbfX\x12o%8A'
p68
tp69
Rp70
ag10
(g14
S'\x7f=\n\xd7\x92"8A'
p71
tp72
Rp73
ag10
(g14
S'\xa1\xd3\x06\x9a\xce"8A'
p74
tp75
Rp76
asS'target'
p77
(lp78
g10
(g14
S'\xc0\xcc\xcc\xcc\x8c&\xc5@'
p79
tp80
Rp81
ag10
(g14
S'\xa0\x99\x99\x99Y3\xc7@'
p82
tp83
Rp84
ag10
(g14
S'lfff\xe6\x0f\xc5@'
p85
tp86
Rp87
ag10
(g14
S'5333sp\xc7@'
p88
tp89
Rp90
ag10
(g14
S'63333\xa8\xc6@'
p91
tp92
Rp93
ag10
(g14
S'\x04\x00\x00\x00@\x03\xc6@'
p94
tp95
Rp96
ag10
(g14
S'nffff\xaa\xc4@'
p97
tp98
Rp99
ag10
(g14
S'03333s\xc6@'
p100
tp101
Rp102
ag10
(g14
S'\xfd\xff\xff\xff\x7f\x1b\xc8@'
p103
tp104
Rp105
ag10
(g14
S'efffF8\xc5@'
p106
tp107
Rp108
ag10
(g14
S'\xaa\x99\x99\x99\x19\xa0\xc5@'
p109
tp110
Rp111
ag10
(g14
S'3333\xf3P\xc5@'
p112
tp113
Rp114
ag10
(g14
S'\x9a\x99\x99\x99\xf9\x81\xc5@'
p115
tp116
Rp117
ag10
(g14
S'vfff\xa6\x99\xc7@'
p118
tp119
Rp120
ag10
(g14
S'13333\xca\xc6@'
p121
tp122
Rp123
ag10
(g14
S'\x9e\x99\x99\x99\x99\xc5\xc5@'
p124
tp125
Rp126
ag10
(g14
S'@3333\x08\xc8@'
p127
tp128
Rp129
ag10
(g14
S'\\fff\x06\x90\xc6@'
p130
tp131
Rp132
ag10
(g14
S'ifff&\xe6\xc5@'
p133
tp134
Rp135
ag10
(g14
S'kfff\xa6\x89\xc6@'
p136
tp137
Rp138
asssss.