(dp0
S'../Data/sqlite_14.csv'
p1
(dp2
S'../Data/sqlite_94.csv'
p3
(dp4
F0.15
(dp5
S'mmre'
p6
(dp7
S'bellwether'
p8
(lp9
cnumpy.core.multiarray
scalar
p10
(cnumpy
dtype
p11
(S'f8'
p12
I0
I1
tp13
Rp14
(I3
S'<'
p15
NNNI-1
I-1
I0
tp16
bS'\x91;\x8dBWmX@'
p17
tp18
Rp19
ag10
(g14
S'iqa\xa6TnX@'
p20
tp21
Rp22
ag10
(g14
S'\xb3n\xeb^UnX@'
p23
tp24
Rp25
ag10
(g14
S'\x16\x8di\xf5)mX@'
p26
tp27
Rp28
ag10
(g14
S'\xc0XW.:nX@'
p29
tp30
Rp31
ag10
(g14
S'\x98\xedeNpmX@'
p32
tp33
Rp34
ag10
(g14
S'^\xc5\xe8%\x00nX@'
p35
tp36
Rp37
ag10
(g14
S'\x93B\xa6^\x0fmX@'
p38
tp39
Rp40
ag10
(g14
S'\x16\\\x18E\xc1mX@'
p41
tp42
Rp43
ag10
(g14
S'-\xb6\x8a\xe0\x9cmX@'
p44
tp45
Rp46
ag10
(g14
S'qm\xfd\x8e\xfdnX@'
p47
tp48
Rp49
ag10
(g14
S'\xe0\x8f\xda\x8d\xe1mX@'
p50
tp51
Rp52
ag10
(g14
S'\x05\x93\xd5*\xf0mX@'
p53
tp54
Rp55
ag10
(g14
S'g\x89\xdb\xa5\xb7mX@'
p56
tp57
Rp58
ag10
(g14
S'\x07aM\xb6\xf5lX@'
p59
tp60
Rp61
ag10
(g14
S'\x0c\x95\xf4\xb9\x9bnX@'
p62
tp63
Rp64
ag10
(g14
S'\xda\xff\xec\x11VmX@'
p65
tp66
Rp67
ag10
(g14
S'Oc.j nX@'
p68
tp69
Rp70
ag10
(g14
S'\xb5\x04\x86\x18bnX@'
p71
tp72
Rp73
ag10
(g14
S'@\xd7\xf5\xc6\xc3mX@'
p74
tp75
Rp76
asS'target'
p77
(lp78
g10
(g14
S'1\xfd\xa3\xf5\xee`R@'
p79
tp80
Rp81
ag10
(g14
S'>\x183\xab\xd7\x17P@'
p82
tp83
Rp84
ag10
(g14
S'P(\xf2V4\x05H@'
p85
tp86
Rp87
ag10
(g14
S'n\xe5N\xebS\xc6U@'
p88
tp89
Rp90
ag10
(g14
S'\x04Vd\xfb+\xcbJ@'
p91
tp92
Rp93
ag10
(g14
S'\xf5\x80/\xf1\xd7C[@'
p94
tp95
Rp96
ag10
(g14
S'!\x1fp\n\x9b\xa9X@'
p97
tp98
Rp99
ag10
(g14
S'\x1by{er\xc4M@'
p100
tp101
Rp102
ag10
(g14
S'\x00\xd7e@n\xe7P@'
p103
tp104
Rp105
ag10
(g14
S'!\xae\x84\xf7>;X@'
p106
tp107
Rp108
ag10
(g14
S'\x8e\xe8evj\xb1I@'
p109
tp110
Rp111
ag10
(g14
S'\xa2c\x1f\r7\xb7M@'
p112
tp113
Rp114
ag10
(g14
S'\x9f)V\xf8\x18\xb2W@'
p115
tp116
Rp117
ag10
(g14
S'Zk\x82\x15\r\x14K@'
p118
tp119
Rp120
ag10
(g14
S'\x90\xfe\x95\x1b\xa4zQ@'
p121
tp122
Rp123
ag10
(g14
S'\xa8ID\x9b\xc04K@'
p124
tp125
Rp126
ag10
(g14
S'\x8d\xef\x9f\x93\x16\x8eJ@'
p127
tp128
Rp129
ag10
(g14
S'\x8a\xac\xa9 \xff\x04G@'
p130
tp131
Rp132
ag10
(g14
S'.{\xc3U\xfa\x0eH@'
p133
tp134
Rp135
ag10
(g14
S'\x9e\xb4\xe0\xc0\x0e\x95I@'
p136
tp137
Rp138
asssss.