(dp0
S'../Data/sqlite_66.csv'
p1
(dp2
S'../Data/sqlite_44.csv'
p3
(dp4
F0.15
(dp5
S'abs_res'
p6
(dp7
S'bellwether'
p8
(lp9
cnumpy.core.multiarray
scalar
p10
(cnumpy
dtype
p11
(S'f8'
p12
I0
I1
tp13
Rp14
(I3
S'<'
p15
NNNI-1
I-1
I0
tp16
bS'\xcd\xb0+@-9"A'
p17
tp18
Rp19
ag10
(g14
S'\x17\xaeG\xa1\xe68"A'
p20
tp21
Rp22
ag10
(g14
S'\x81A`\xa5\xf27"A'
p23
tp24
Rp25
ag10
(g14
S'\x83%\xbf\xd8a9"A'
p26
tp27
Rp28
ag10
(g14
S'\xd1\x85\xa4io8"A'
p29
tp30
Rp31
ag10
(g14
S'\xabG\xe1\xfaI8"A'
p32
tp33
Rp34
ag10
(g14
S'\xad\x7f#T\xe37"A'
p35
tp36
Rp37
ag10
(g14
S'\x17\xb0r\xa8<9"A'
p38
tp39
Rp40
ag10
(g14
S'\xb8\x02\xe4^=8"A'
p41
tp42
Rp43
ag10
(g14
S'\x92\x18\x04V49"A'
p44
tp45
Rp46
ag10
(g14
S'\x05e\xf4v=8"A'
p47
tp48
Rp49
ag10
(g14
S'?\x19\xbdm;9"A'
p50
tp51
Rp52
ag10
(g14
S'\x01\x00\x00@\x9e8"A'
p53
tp54
Rp55
ag10
(g14
S'\xe3z\x14.\xf78"A'
p56
tp57
Rp58
ag10
(g14
S'\x0e\x81\x95\x83?9"A'
p59
tp60
Rp61
ag10
(g14
S'\xe8|?\xf5Q8"A'
p62
tp63
Rp64
ag10
(g14
S'@\x8bl\xa7a8"A'
p65
tp66
Rp67
ag10
(g14
S'}?5^\xb28"A'
p68
tp69
Rp70
ag10
(g14
S'M\x8d\x97\xee\xd58"A'
p71
tp72
Rp73
ag10
(g14
S'\xd01\xc1\xc3~9"A'
p74
tp75
Rp76
asS'target'
p77
(lp78
g10
(g14
S'\xf8\xfd\xd4x\xe9\x96T@'
p79
tp80
Rp81
ag10
(g14
S'>\x89A`\xe5HP@'
p82
tp83
Rp84
ag10
(g14
S'\xa6\xc6K7\x89\x19L@'
p85
tp86
Rp87
ag10
(g14
S']\x8f\xc2\xf5($T@'
p88
tp89
Rp90
ag10
(g14
S'\x06\x02+\x87\x16\xd9Q@'
p91
tp92
Rp93
ag10
(g14
S']\x8f\xc2\xf5(\xfcP@'
p94
tp95
Rp96
ag10
(g14
S'\xe4x\xe9&1XO@'
p97
tp98
Rp99
ag10
(g14
S'\xcc\xf5(\\\x8fbT@'
p100
tp101
Rp102
ag10
(g14
S'\xba\x9d\xef\xa7\xc6\xc3L@'
p103
tp104
Rp105
ag10
(g14
S'\x85\x95C\x8blgO@'
p106
tp107
Rp108
ag10
(g14
S'\xacp=\n\xd7[T@'
p109
tp110
Rp111
ag10
(g14
S'\x00\x7fj\xbct\xf3R@'
p112
tp113
Rp114
ag10
(g14
S'Q\x8d\x97n\x12\xc3P@'
p115
tp116
Rp117
ag10
(g14
S'\xd7\xa3p=\n\xebQ@'
p118
tp119
Rp120
ag10
(g14
S'\x1a\x83\xc0\xca\xa1-Q@'
p121
tp122
Rp123
ag10
(g14
S'\xad\xc8v\xbe\x9fZQ@'
p124
tp125
Rp126
ag10
(g14
S'h\xe7\xfb\xa9\xf1\nS@'
p127
tp128
Rp129
ag10
(g14
S'4^\xbaI\x0c\x8eR@'
p130
tp131
Rp132
ag10
(g14
S'\xf3\xa7\xc6K7\x89Q@'
p133
tp134
Rp135
ag10
(g14
S'\xab\xc6K7\x89yP@'
p136
tp137
Rp138
asssss.