(dp0
S'../Data/sqlite_44.csv'
p1
(dp2
S'../Data/sqlite_97.csv'
p3
(dp4
F0.25
(dp5
S'mmre'
p6
(dp7
S'bellwether'
p8
(lp9
cnumpy.core.multiarray
scalar
p10
(cnumpy
dtype
p11
(S'f8'
p12
I0
I1
tp13
Rp14
(I3
S'<'
p15
NNNI-1
I-1
I0
tp16
bS'\xb7?\x9c\xb0\xbfyW@'
p17
tp18
Rp19
ag10
(g14
S'\x8a"\xbe\x81\x82{W@'
p20
tp21
Rp22
ag10
(g14
S'O_\xc4\xb5\xd9vW@'
p23
tp24
Rp25
ag10
(g14
S'V\xae\xb2\x05\xc1vW@'
p26
tp27
Rp28
ag10
(g14
S'\xe1\x89\xcd\xcb\xdc{W@'
p29
tp30
Rp31
ag10
(g14
S'\xbah/W\x84{W@'
p32
tp33
Rp34
ag10
(g14
S'J\xf4+ZqzW@'
p35
tp36
Rp37
ag10
(g14
S'\xbfl\xc9\x8c\x15yW@'
p38
tp39
Rp40
ag10
(g14
S'i\x8cS\x83!|W@'
p41
tp42
Rp43
ag10
(g14
S'\x8bm\xbf~\xb2tW@'
p44
tp45
Rp46
ag10
(g14
S'o\xaex\xe9nxW@'
p47
tp48
Rp49
ag10
(g14
S'\xbb\xc8e\x8b\x8b{W@'
p50
tp51
Rp52
ag10
(g14
S'\xb0\xf6H\xb66zW@'
p53
tp54
Rp55
ag10
(g14
S'g\xa67$4xW@'
p56
tp57
Rp58
ag10
(g14
S'j\xf1\x12\xb5\x84uW@'
p59
tp60
Rp61
ag10
(g14
S'`\x07\xffJ\x9f{W@'
p62
tp63
Rp64
ag10
(g14
S'\x80;qP,{W@'
p65
tp66
Rp67
ag10
(g14
S'X\xf5\x0e\x86&xW@'
p68
tp69
Rp70
ag10
(g14
S'\xb3RtP\xb6{W@'
p71
tp72
Rp73
ag10
(g14
S'\x84\xed\x01*qxW@'
p74
tp75
Rp76
asS'target'
p77
(lp78
g10
(g14
S'\xe4\x1do\xd3Q\x81P@'
p79
tp80
Rp81
ag10
(g14
S'\x92\x8a\xe5\x02\xcc;K@'
p82
tp83
Rp84
ag10
(g14
S'\xbf\xc5zL\x92\xed_@'
p85
tp86
Rp87
ag10
(g14
S'\xb3\xee`\xf9\xcc\x91X@'
p88
tp89
Rp90
ag10
(g14
S'\xc4\xa0\x96\x1b\xa9\xecW@'
p91
tp92
Rp93
ag10
(g14
S'\xc0\x1c\xe13\xb4\xfdS@'
p94
tp95
Rp96
ag10
(g14
S'BTH\xca\xd2\x13^@'
p97
tp98
Rp99
ag10
(g14
S'\xb3\xccBN\x95\\N@'
p100
tp101
Rp102
ag10
(g14
S'\xaf\xdas\x825\x83U@'
p103
tp104
Rp105
ag10
(g14
S'\xc5\xcdGd)`X@'
p106
tp107
Rp108
ag10
(g14
S'j+g\xb4\x18AT@'
p109
tp110
Rp111
ag10
(g14
S'\xd13\x88q`IP@'
p112
tp113
Rp114
ag10
(g14
S'/\x8e\x053M\xb1X@'
p115
tp116
Rp117
ag10
(g14
S'\x18\x9a<\x03A\xe1P@'
p118
tp119
Rp120
ag10
(g14
S'o\x96\x89\xb2\xdcl`@'
p121
tp122
Rp123
ag10
(g14
S'U|^uO\xf7Q@'
p124
tp125
Rp126
ag10
(g14
S'\xa6\x13\xfc7s\xbbR@'
p127
tp128
Rp129
ag10
(g14
S'\x8b^+>\x00\xc2R@'
p130
tp131
Rp132
ag10
(g14
S'@\x81\xe5+SBQ@'
p133
tp134
Rp135
ag10
(g14
S'\xae/\xa5\xe82\x1dX@'
p136
tp137
Rp138
asssss.