(dp0
S'../Data/sqlite_57.csv'
p1
(dp2
S'../Data/sqlite_23.csv'
p3
(dp4
F0.2
(dp5
S'abs_res'
p6
(dp7
S'bellwether'
p8
(lp9
cnumpy.core.multiarray
scalar
p10
(cnumpy
dtype
p11
(S'f8'
p12
I0
I1
tp13
Rp14
(I3
S'<'
p15
NNNI-1
I-1
I0
tp16
bS',\xdd$\xe6\xbfTgA'
p17
tp18
Rp19
ag10
(g14
S'\x80j\xbc\xb8uMgA'
p20
tp21
Rp22
ag10
(g14
S'\x18/\xdd\x0c#EgA'
p23
tp24
Rp25
ag10
(g14
S'\xc9"\xdb\xa9\xeeOgA'
p26
tp27
Rp28
ag10
(g14
S'\xd5x\xe9Z\x1fIgA'
p29
tp30
Rp31
ag10
(g14
S'_;\xdf\xa7\xbfPgA'
p32
tp33
Rp34
ag10
(g14
S'$\xb2\x9dK\x1bWgA'
p35
tp36
Rp37
ag10
(g14
S'<\n\xd7_RJgA'
p38
tp39
Rp40
ag10
(g14
S'\x03\xac\x1cR\x02KgA'
p41
tp42
Rp43
ag10
(g14
S'i\xbct[/PgA'
p44
tp45
Rp46
ag10
(g14
S'\xe4&1\x88\xf1SgA'
p47
tp48
Rp49
ag10
(g14
S'\x19X9$\x05OgA'
p50
tp51
Rp52
ag10
(g14
S':\xdfOENPgA'
p53
tp54
Rp55
ag10
(g14
S'"\x06\x81=sVgA'
p56
tp57
Rp58
ag10
(g14
S'\xfd\xff\xff\x9brVgA'
p59
tp60
Rp61
ag10
(g14
S'\x94\xed|\x97\x84HgA'
p62
tp63
Rp64
ag10
(g14
S'o\x91\xed\xb4\xccQgA'
p65
tp66
Rp67
ag10
(g14
S'\xdd\xa5\x9bp/LgA'
p68
tp69
Rp70
ag10
(g14
S'\xa3\x1a/\r\xebDgA'
p71
tp72
Rp73
ag10
(g14
S'\xb5\x9d\xef\xaf\x18LgA'
p74
tp75
Rp76
asS'target'
p77
(lp78
g10
(g14
S'*\x08\xac\x1cZ\xa4>@'
p79
tp80
Rp81
ag10
(g14
S'\xb5\xc8v\xbe\x9fZ@@'
p82
tp83
Rp84
ag10
(g14
S'\xf0\xa7\xc6K7\tA@'
p85
tp86
Rp87
ag10
(g14
S'\xc9K7\x89A\xe0>@'
p88
tp89
Rp90
ag10
(g14
S'\xab\xb9\x904\xa5\xe2<@'
p91
tp92
Rp93
ag10
(g14
S'w\xe7\xfb\xa9\xf1R>@'
p94
tp95
Rp96
ag10
(g14
S'\x98\xed|?5\x9e>@'
p97
tp98
Rp99
ag10
(g14
S'\x0f-\xb2\x9d\xefg?@'
p100
tp101
Rp102
ag10
(g14
S'E\x8bl\xe7\xfbi@@'
p103
tp104
Rp105
ag10
(g14
S'\x8fC\x8bl\xe7\x1b@@'
p106
tp107
Rp108
ag10
(g14
S'\x15\x83\xc0\xca\xa1\xe5;@'
p109
tp110
Rp111
ag10
(g14
S'Y9\xb4\xc8vN@@'
p112
tp113
Rp114
ag10
(g14
S'\xd5"\xdb\xf9~\xea=@'
p115
tp116
Rp117
ag10
(g14
S'\xdax\xe9&1\x88A@'
p118
tp119
Rp120
ag10
(g14
S'\xdaK7\x89A@>@'
p121
tp122
Rp123
ag10
(g14
S'\x05\xd7\xa3p=\x9a>@'
p124
tp125
Rp126
ag10
(g14
S'\xd0\xa1E\xb6\xf3\xad@@'
p127
tp128
Rp129
ag10
(g14
S'\xaf\x1cZd;o@@'
p130
tp131
Rp132
ag10
(g14
S'Zd;\xdfO\xadB@'
p133
tp134
Rp135
ag10
(g14
S'\xb6\xc8v\xbe\x9f*@@'
p136
tp137
Rp138
asssss.