(dp0
S'../Data/sqlite_18.csv'
p1
(dp2
S'../Data/sqlite_7.csv'
p3
(dp4
F0.4
(dp5
S'abs_res'
p6
(dp7
S'bellwether'
p8
(lp9
cnumpy.core.multiarray
scalar
p10
(cnumpy
dtype
p11
(S'f8'
p12
I0
I1
tp13
Rp14
(I3
S'<'
p15
NNNI-1
I-1
I0
tp16
bS'2\xc1\x83\x99L)7A'
p17
tp18
Rp19
ag10
(g14
S"\x96\xfcb\x89m'7A"
p20
tp21
Rp22
ag10
(g14
S'\xa48\xfb\x900(7A'
p23
tp24
Rp25
ag10
(g14
S'\xe2\xec\xc3\xc7W*7A'
p26
tp27
Rp28
ag10
(g14
S'A\xee57\xfc*7A'
p29
tp30
Rp31
ag10
(g14
S"eW\x80\xbc\x03'7A"
p32
tp33
Rp34
ag10
(g14
S'\xff7BY)*7A'
p35
tp36
Rp37
ag10
(g14
S'f\xe5\xd0b\xaa*7A'
p38
tp39
Rp40
ag10
(g14
S'\x83#\x94\x91@(7A'
p41
tp42
Rp43
ag10
(g14
S'\x9f\x1a/}\t)7A'
p44
tp45
Rp46
ag10
(g14
S'\xcc\x83yBh)7A'
p47
tp48
Rp49
ag10
(g14
S'\xd8\xbf\x11Jz(7A'
p50
tp51
Rp52
ag10
(g14
S'~\xdck\xce\xf4)7A'
p53
tp54
Rp55
ag10
(g14
S'"\xa1\x8c\xfeK+7A'
p56
tp57
Rp58
ag10
(g14
S'_\x0e-\xb2\xd5+7A'
p59
tp60
Rp61
ag10
(g14
S'\xac\x9b\xc4 \xd1*7A'
p62
tp63
Rp64
ag10
(g14
S"r0O\xb4\x12'7A"
p65
tp66
Rp67
ag10
(g14
S'*M\xa9\x18X)7A'
p68
tp69
Rp70
ag10
(g14
S'\xbe\xf5(<\xff(7A'
p71
tp72
Rp73
ag10
(g14
S'\x05\x1e\xcc\xf3\xf4(7A'
p74
tp75
Rp76
asS'target'
p77
(lp78
g10
(g14
S'jh\x91\xed|5d@'
p79
tp80
Rp81
ag10
(g14
S'Zd;\xdfO\xdbc@'
p82
tp83
Rp84
ag10
(g14
S'\x94n\x12\x83\xc0Bc@'
p85
tp86
Rp87
ag10
(g14
S'\xb5I\x0c\x02+\x1bc@'
p88
tp89
Rp90
ag10
(g14
S'\xfa\xfd\xd4x\xe9\xf8d@'
p91
tp92
Rp93
ag10
(g14
S'/\xb2\x9d\xef\xa7Nc@'
p94
tp95
Rp96
ag10
(g14
S'x\xe9&1\x08\xccb@'
p97
tp98
Rp99
ag10
(g14
S'\xb1rh\x91\xed\nd@'
p100
tp101
Rp102
ag10
(g14
S'\xf9S\xe3\xa5\x9b\x02d@'
p103
tp104
Rp105
ag10
(g14
S'\xba\xf5(\\\x8fpd@'
p106
tp107
Rp108
ag10
(g14
S'\xe5&1\x08\xac\x14d@'
p109
tp110
Rp111
ag10
(g14
S'X\xbaI\x0c\x02{c@'
p112
tp113
Rp114
ag10
(g14
S'\x8e\xed|?5^c@'
p115
tp116
Rp117
ag10
(g14
S'\xe4\xa5\x9b\xc4 Bc@'
p118
tp119
Rp120
ag10
(g14
S'\r\xe6\x89\xfa7be@'
p121
tp122
Rp123
ag10
(g14
S'\xc8 \xb0rhcd@'
p124
tp125
Rp126
ag10
(g14
S'\xca\xa1E\xb6\xf3id@'
p127
tp128
Rp129
ag10
(g14
S'\xf3|?5^\xa2c@'
p130
tp131
Rp132
ag10
(g14
S'\x18\x04V\x0e-\xf8b@'
p133
tp134
Rp135
ag10
(g14
S'\xe7\xd0"\xdb\xf9\x96c@'
p136
tp137
Rp138
asssss.