(dp0
S'../Data/sqlite_4.csv'
p1
(dp2
S'../Data/sqlite_64.csv'
p3
(dp4
F0.3
(dp5
S'abs_res'
p6
(dp7
S'bellwether'
p8
(lp9
cnumpy.core.multiarray
scalar
p10
(cnumpy
dtype
p11
(S'f8'
p12
I0
I1
tp13
Rp14
(I3
S'<'
p15
NNNI-1
I-1
I0
tp16
bS'G\xc3\xae\xe0wC;A'
p17
tp18
Rp19
ag10
(g14
S'\xb1G\xe1Z$B;A'
p20
tp21
Rp22
ag10
(g14
S'$\xf7\x9a\x0bpC;A'
p23
tp24
Rp25
ag10
(g14
S'\xd3\xa1EVMB;A'
p26
tp27
Rp28
ag10
(g14
S'Wd;?,A;A'
p29
tp30
Rp31
ag10
(g14
S'r\xe7\xfb)\xe3C;A'
p32
tp33
Rp34
ag10
(g14
S'G\xe1z\xf4\x06C;A'
p35
tp36
Rp37
ag10
(g14
S'\xb0\xaa\xaa\x8aFD;A'
p38
tp39
Rp40
ag10
(g14
S'\xce\xbb\xbb\xdbI@;A'
p41
tp42
Rp43
ag10
(g14
S'\xdd1\xc1\xc3\x99C;A'
p44
tp45
Rp46
ag10
(g14
S'\xafrhq\xc8A;A'
p47
tp48
Rp49
ag10
(g14
S'b\xd6\xeax4B;A'
p50
tp51
Rp52
ag10
(g14
S'\xbe<Q\x7f\x9cB;A'
p53
tp54
Rp55
ag10
(g14
S'\xda\xf9~\xaa\x82B;A'
p56
tp57
Rp58
ag10
(g14
S'b\x9e\xa8?\x8fA;A'
p59
tp60
Rp61
ag10
(g14
S'\xd6Mb\x10\xbfD;A'
p62
tp63
Rp64
ag10
(g14
S']\x1d\x13<!D;A'
p65
tp66
Rp67
ag10
(g14
S'\xfa\xfd\xd4\xb8\xf8A;A'
p68
tp69
Rp70
ag10
(g14
S'\xbde\xad\x8euA;A'
p71
tp72
Rp73
ag10
(g14
S'\xb5\x81N\xdb\x8bC;A'
p74
tp75
Rp76
asS'target'
p77
(lp78
g10
(g14
S'\x14-\xb2\x9d\xef\xd4t@'
p79
tp80
Rp81
ag10
(g14
S'+\\\x8f\xc2\xf5\x07r@'
p82
tp83
Rp84
ag10
(g14
S'\xc7K7\x89A\x04v@'
p85
tp86
Rp87
ag10
(g14
S'\x82\xc0\xca\xa1E\xe4s@'
p88
tp89
Rp90
ag10
(g14
S'#\x06\x81\x95C\xdcr@'
p91
tp92
Rp93
ag10
(g14
S';\x08\xac\x1cZ\rs@'
p94
tp95
Rp96
ag10
(g14
S'\x17\xaeG\xe1z8t@'
p97
tp98
Rp99
ag10
(g14
S'\\\x8f\xc2\xf5(\x04s@'
p100
tp101
Rp102
ag10
(g14
S'\xbbt\x93\x18\x04Vs@'
p103
tp104
Rp105
ag10
(g14
S'\xf1|?5^.u@'
p106
tp107
Rp108
ag10
(g14
S'A`\xe5\xd0"]t@'
p109
tp110
Rp111
ag10
(g14
S')\x87\x16\xd9\xce\xa5s@'
p112
tp113
Rp114
ag10
(g14
S'\xb6rh\x91\xed\x0bt@'
p115
tp116
Rp117
ag10
(g14
S'bffff\x06u@'
p118
tp119
Rp120
ag10
(g14
S'j\xe7\xfb\xa9\xf1\x0cr@'
p121
tp122
Rp123
ag10
(g14
S'\xc4v\xbe\x9f\x1a#u@'
p124
tp125
Rp126
ag10
(g14
S'\x14\x04V\x0e-\xcfs@'
p127
tp128
Rp129
ag10
(g14
S't\x93\x18\x04V\x08s@'
p130
tp131
Rp132
ag10
(g14
S'\xa1\x1a/\xdd$?t@'
p133
tp134
Rp135
ag10
(g14
S'\xa8E\xb6\xf3\xfdCt@'
p136
tp137
Rp138
asssss.