(dp0
S'../Data/sqlite_16.csv'
p1
(dp2
S'../Data/sqlite_95.csv'
p3
(dp4
F0.05
(dp5
S'abs_res'
p6
(dp7
S'bellwether'
p8
(lp9
cnumpy.core.multiarray
scalar
p10
(cnumpy
dtype
p11
(S'f8'
p12
I0
I1
tp13
Rp14
(I3
S'<'
p15
NNNI-1
I-1
I0
tp16
bS'\x9f\x99\x99\x99p\x1f<A'
p17
tp18
Rp19
ag10
(g14
S'\xdd\xa3p\rR\xe5;A'
p20
tp21
Rp22
ag10
(g14
S'\x08\x00\x00\xb0\xe0$<A'
p23
tp24
Rp25
ag10
(g14
S'\xc3\xca\xa1u\x91\x03<A'
p26
tp27
Rp28
ag10
(g14
S'H\x8bl\xe7\xa8.<A'
p29
tp30
Rp31
ag10
(g14
S'K\xb6\xf3\xedf\xfc;A'
p32
tp33
Rp34
ag10
(g14
S'j\xe5\xd0\x02\x99#<A'
p35
tp36
Rp37
ag10
(g14
S'>\xdfOM\xbe\x19<A'
p38
tp39
Rp40
ag10
(g14
S'=`\xe5\x101\x1b<A'
p41
tp42
Rp43
ag10
(g14
S'\x03T\xe3\xd5f\x15<A'
p44
tp45
Rp46
ag10
(g14
S'\xc6 \xb0B2A<A'
p47
tp48
Rp49
ag10
(g14
S'K\xa98;u\x0c<A'
p50
tp51
Rp52
ag10
(g14
S'&1\x08\x0c\xa85<A'
p53
tp54
Rp55
ag10
(g14
S'[9\xb4\xa8\xd6#<A'
p56
tp57
Rp58
ag10
(g14
S'\x10+\x87\xd6\x1a\x05<A'
p59
tp60
Rp61
ag10
(g14
S"'\xb0r\xe8\xd0\x11<A"
p62
tp63
Rp64
ag10
(g14
S'DQ\xff\xf6\x88\x18<A'
p65
tp66
Rp67
ag10
(g14
S'C\x0c\x02k\xcf)<A'
p68
tp69
Rp70
ag10
(g14
S'.O\xd4\x9f\x93!<A'
p71
tp72
Rp73
ag10
(g14
S'\x0c\x02+\x97A/<A'
p74
tp75
Rp76
asS'target'
p77
(lp78
g10
(g14
S'\xf3(\\\x8f8Y\x1cA'
p79
tp80
Rp81
ag10
(g14
S'\x13\xaeG\xe1g5%A'
p82
tp83
Rp84
ag10
(g14
S'\xa4p=\n!\x1c#A'
p85
tp86
Rp87
ag10
(g14
S'+\\\x8f\xc2\xd6,*A'
p88
tp89
Rp90
ag10
(g14
S'\xe2z\x14\xaeS\xe3\x1dA'
p91
tp92
Rp93
ag10
(g14
S'+333\x11y)A'
p94
tp95
Rp96
ag10
(g14
S'\xc7\xf5(\\\xd4{ A'
p97
tp98
Rp99
ag10
(g14
S'>\n\xd7\xa3\x96e A'
p100
tp101
Rp102
ag10
(g14
S'_fff\xac &A'
p103
tp104
Rp105
ag10
(g14
S'\x12\xaeG\xe1\xe8A!A'
p106
tp107
Rp108
ag10
(g14
S'v=\n\xd7\xee\xdf\x1bA'
p109
tp110
Rp111
ag10
(g14
S'\x11\xaeG\xe1w\x9f$A'
p112
tp113
Rp114
ag10
(g14
S'dffftG\x1fA'
p115
tp116
Rp117
ag10
(g14
S'\xec(\\\x0f\xc2x&A'
p118
tp119
Rp120
ag10
(g14
S"?\xe1z\x14&\xb3'A"
p121
tp122
Rp123
ag10
(g14
S'L\xe1z\x14\xe1\x03#A'
p124
tp125
Rp126
ag10
(g14
S'\x87\xebQ\xb8m:"A'
p127
tp128
Rp129
ag10
(g14
S'\x9bp=\n\x02^\x1dA'
p130
tp131
Rp132
ag10
(g14
S'\xc0\xf5(\xdc\xf4\x1b!A'
p133
tp134
Rp135
ag10
(g14
S'\x8a\xc2\xf5(7\xba\x1dA'
p136
tp137
Rp138
asssss.