(dp0
S'../Data/sqlite_4.csv'
p1
(dp2
S'../Data/sqlite_48.csv'
p3
(dp4
F0.35
(dp5
S'abs_res'
p6
(dp7
S'bellwether'
p8
(lp9
cnumpy.core.multiarray
scalar
p10
(cnumpy
dtype
p11
(S'f8'
p12
I0
I1
tp13
Rp14
(I3
S'<'
p15
NNNI-1
I-1
I0
tp16
bS'\xc5\xae\x00\xb9\\39A'
p17
tp18
Rp19
ag10
(g14
S'5\xdfOM\xc709A'
p20
tp21
Rp22
ag10
(g14
S'\x94A`\xa5829A'
p23
tp24
Rp25
ag10
(g14
S'\xc3\xd9\x87\xaf\xe609A'
p26
tp27
Rp28
ag10
(g14
S'\xfa(\\op09A'
p29
tp30
Rp31
ag10
(g14
S'K\x8d\x97n\xac09A'
p32
tp33
Rp34
ag10
(g14
S'{[\xd6\nF19A'
p35
tp36
Rp37
ag10
(g14
S',z[6\xa629A'
p38
tp39
Rp40
ag10
(g14
S'\x8f\t\x1e\xcc;19A'
p41
tp42
Rp43
ag10
(g14
S'\xc0g\xd8u%19A'
p44
tp45
Rp46
ag10
(g14
S'y\xbe\x9f\x1a719A'
p47
tp48
Rp49
ag10
(g14
S'\x03r\xaf\xf9\xcb19A'
p50
tp51
Rp52
ag10
(g14
S'R\xffFH\xa619A'
p53
tp54
Rp55
ag10
(g14
S'\xc6/\x96\xdc\xf009A'
p56
tp57
Rp58
ag10
(g14
S';\x89A\xe0N09A'
p59
tp60
Rp61
ag10
(g14
S'\xc4\x9f\x1a\xaf;19A'
p62
tp63
Rp64
ag10
(g14
S'\x1d"""H09A'
p65
tp66
Rp67
ag10
(g14
S'\x0f-\xb2\xbd\xe029A'
p68
tp69
Rp70
ag10
(g14
S'H(\xa3\x17\xaf19A'
p71
tp72
Rp73
ag10
(g14
S'\x17 \xf7:C19A'
p74
tp75
Rp76
asS'target'
p77
(lp78
g10
(g14
S'r\x12\x83\xc0\xcaao@'
p79
tp80
Rp81
ag10
(g14
S'\x1c\xd9\xce\xf7Ssm@'
p82
tp83
Rp84
ag10
(g14
S'\xa4E\xb6\xf3\xfd|m@'
p85
tp86
Rp87
ag10
(g14
S'\x80\xebQ\xb8\x1eOn@'
p88
tp89
Rp90
ag10
(g14
S'b\x0e-\xb2\x9d\x07l@'
p91
tp92
Rp93
ag10
(g14
S'\x0b\x1e\xcc\x13\xf59m@'
p94
tp95
Rp96
ag10
(g14
S'|j\xbct\x93jn@'
p97
tp98
Rp99
ag10
(g14
S'-\xb2\x9d\xef\xa7\xaam@'
p100
tp101
Rp102
ag10
(g14
S'\xf6|?5^^n@'
p103
tp104
Rp105
ag10
(g14
S'\x87\x14\xaeG\xe1@n@'
p106
tp107
Rp108
ag10
(g14
S'U\xb8\x1e\x85\xeb\x7fm@'
p109
tp110
Rp111
ag10
(g14
S'e;\xdfO\x8d{k@'
p112
tp113
Rp114
ag10
(g14
S'\xc1\xca\xa1E\xb6um@'
p115
tp116
Rp117
ag10
(g14
S'\x14/\xdd$\x06\xe5m@'
p118
tp119
Rp120
ag10
(g14
S'\xc6 \xb0rh\xafm@'
p121
tp122
Rp123
ag10
(g14
S'\xd0Mb\x10X\xe5m@'
p124
tp125
Rp126
ag10
(g14
S'P\x8d\x97n\x12ql@'
p127
tp128
Rp129
ag10
(g14
S'T9\xb4\xc8v\xe0m@'
p130
tp131
Rp132
ag10
(g14
S'\x0c\x02+\x87\x16\x9fj@'
p133
tp134
Rp135
ag10
(g14
S'&\x06\x81\x95C+m@'
p136
tp137
Rp138
asssss.