(dp0
S'../Data/sqlite_74.csv'
p1
(dp2
S'../Data/sqlite_19.csv'
p3
(dp4
F0.25
(dp5
S'abs_res'
p6
(dp7
S'bellwether'
p8
(lp9
cnumpy.core.multiarray
scalar
p10
(cnumpy
dtype
p11
(S'f8'
p12
I0
I1
tp13
Rp14
(I3
S'<'
p15
NNNI-1
I-1
I0
tp16
bS'\xea|?\xf5\xc1aiA'
p17
tp18
Rp19
ag10
(g14
S'&M\xa9\xd4\xc3`iA'
p20
tp21
Rp22
ag10
(g14
S'&\x15g7<aiA'
p23
tp24
Rp25
ag10
(g14
S'\x96\xc2\xf5(dfiA'
p26
tp27
Rp28
ag10
(g14
S'Y\xb8\x1e\t\xfdciA'
p29
tp30
Rp31
ag10
(g14
S'%\xdb\xf9jbViA'
p32
tp33
Rp34
ag10
(g14
S'\x14\xe6\x896\xb1ciA'
p35
tp36
Rp37
ag10
(g14
S'\x19\xf5o\xb4\n`iA'
p38
tp39
Rp40
ag10
(g14
S'\xbcI\x0c\x82HZiA'
p41
tp42
Rp43
ag10
(g14
S'\xf0o\x84\xeeZeiA'
p44
tp45
Rp46
ag10
(g14
S'\x99\t\x1e\x94\xc6giA'
p47
tp48
Rp49
ag10
(g14
S'\x03\xc6\x92\xa3aZiA'
p50
tp51
Rp52
ag10
(g14
S'&\xce>D`]iA'
p53
tp54
Rp55
ag10
(g14
S'\x8f\xde\x96U\xc1^iA'
p56
tp57
Rp58
ag10
(g14
S'\xb4\x1e\x85G\xb6`iA'
p59
tp60
Rp61
ag10
(g14
S'\xeeo\x84\xca>aiA'
p62
tp63
Rp64
ag10
(g14
S'\xccMb\x94\xf3ViA'
p65
tp66
Rp67
ag10
(g14
S'\x87A`\x99\x9c`iA'
p68
tp69
Rp70
ag10
(g14
S'w\xbe\x9f~]fiA'
p71
tp72
Rp73
ag10
(g14
S'0\xfb\xf09\xbd^iA'
p74
tp75
Rp76
asS'target'
p77
(lp78
g10
(g14
S'\x16\xd9\xce\xf7S+U@'
p79
tp80
Rp81
ag10
(g14
S'h\xe5\xd0"\xdb\xc1U@'
p82
tp83
Rp84
ag10
(g14
S'\x91A`\xe5\xd0:U@'
p85
tp86
Rp87
ag10
(g14
S'O\x0c\x02+\x87\x86U@'
p88
tp89
Rp90
ag10
(g14
S'\xccv\xbe\x9f\x1a\x8fU@'
p91
tp92
Rp93
ag10
(g14
S'\x0e\x81\x95C\x8b,U@'
p94
tp95
Rp96
ag10
(g14
S'\xe4\xa3p=\n\x8fV@'
p97
tp98
Rp99
ag10
(g14
S'K\x8bl\xe7\xfbiT@'
p100
tp101
Rp102
ag10
(g14
S'\xd2\xa3p=\nWU@'
p103
tp104
Rp105
ag10
(g14
S'\x11\x00\x00\x00\x004T@'
p106
tp107
Rp108
ag10
(g14
S'\xbf\xca\xa1E\xb6{W@'
p109
tp110
Rp111
ag10
(g14
S'Bb\x10X9\xdcV@'
p112
tp113
Rp114
ag10
(g14
S'\xcc\xa3p=\n\x07W@'
p115
tp116
Rp117
ag10
(g14
S'B5^\xbaI\xacU@'
p118
tp119
Rp120
ag10
(g14
S'~?5^\xbauU@'
p121
tp122
Rp123
ag10
(g14
S'\xa4\x99\x99\x99\x99\xcdW@'
p124
tp125
Rp126
ag10
(g14
S'D\xb6\xf3\xfd\xd4\x98T@'
p127
tp128
Rp129
ag10
(g14
S'\xd4\xce\xf7S\xe3eU@'
p130
tp131
Rp132
ag10
(g14
S'\x9c\xc4 \xb0r0U@'
p133
tp134
Rp135
ag10
(g14
S'\xf1Q\xb8\x1e\x85\xa3U@'
p136
tp137
Rp138
asssss.