(dp0
S'../Data/sqlite_75.csv'
p1
(dp2
S'../Data/sqlite_77.csv'
p3
(dp4
F0.3
(dp5
S'mmre'
p6
(dp7
S'bellwether'
p8
(lp9
cnumpy.core.multiarray
scalar
p10
(cnumpy
dtype
p11
(S'f8'
p12
I0
I1
tp13
Rp14
(I3
S'<'
p15
NNNI-1
I-1
I0
tp16
bS'\xc4\x9e\xda\x91\x00\\P@'
p17
tp18
Rp19
ag10
(g14
S'+\xbd["\x1ePP@'
p20
tp21
Rp22
ag10
(g14
S'\xee|)a\x8bJP@'
p23
tp24
Rp25
ag10
(g14
S'%N\xe1\x7f\xbeWP@'
p26
tp27
Rp28
ag10
(g14
S'\xb1\x12\xd9\x87\xccZP@'
p29
tp30
Rp31
ag10
(g14
S'u\xd6\xc6\x00|KP@'
p32
tp33
Rp34
ag10
(g14
S'\x02%\xfei\xfcRP@'
p35
tp36
Rp37
ag10
(g14
S'\x86\x94\x84\xf4\xa1VP@'
p38
tp39
Rp40
ag10
(g14
S'\xabg\xa3\x92\x16UP@'
p41
tp42
Rp43
ag10
(g14
S'\x01"\xb7Mc\\P@'
p44
tp45
Rp46
ag10
(g14
S'\x81\xbex\xd7)DP@'
p47
tp48
Rp49
ag10
(g14
S'\xa42\xee\xb9\xe8XP@'
p50
tp51
Rp52
ag10
(g14
S'~\xd4X\xa8RTP@'
p53
tp54
Rp55
ag10
(g14
S'\x9c\x81\xfa>\xf4TP@'
p56
tp57
Rp58
ag10
(g14
S':\xef\xae"\x00TP@'
p59
tp60
Rp61
ag10
(g14
S'd@5\n\xf9RP@'
p62
tp63
Rp64
ag10
(g14
S'\xf4d\xe6\xa5?PP@'
p65
tp66
Rp67
ag10
(g14
S'\xac\x82\x16\xa90JP@'
p68
tp69
Rp70
ag10
(g14
S"\xb82\xa8\x8b'YP@"
p71
tp72
Rp73
ag10
(g14
S'\x1d\x06n\xa8\xd3EP@'
p74
tp75
Rp76
asS'target'
p77
(lp78
g10
(g14
S'dD\x14t\x99\xd14@'
p79
tp80
Rp81
ag10
(g14
S'^B4\xdd\rw6@'
p82
tp83
Rp84
ag10
(g14
S'nj2\x0b&\x126@'
p85
tp86
Rp87
ag10
(g14
S'\xc0\x1a\tU\xccA4@'
p88
tp89
Rp90
ag10
(g14
S'd%\x97C(g6@'
p91
tp92
Rp93
ag10
(g14
S'\xe1j\xc5\x99\xb5\x966@'
p94
tp95
Rp96
ag10
(g14
S'\xf3\xf5\x8cX\xea\xe95@'
p97
tp98
Rp99
ag10
(g14
S'`\x00-\x9b\xa7\xcf5@'
p100
tp101
Rp102
ag10
(g14
S'P\x9e\x15\xd3M\xba5@'
p103
tp104
Rp105
ag10
(g14
S'\xee`|q\xddQ5@'
p106
tp107
Rp108
ag10
(g14
S'\t\x1a\xdf\xa9\x11\x936@'
p109
tp110
Rp111
ag10
(g14
S'\xbb\xc4]\xfe2g4@'
p112
tp113
Rp114
ag10
(g14
S'a\x1bEs\xe1\xde4@'
p115
tp116
Rp117
ag10
(g14
S'\xae\xd8\x18\x1dv56@'
p118
tp119
Rp120
ag10
(g14
S'GE\x7fr\x98\xa76@'
p121
tp122
Rp123
ag10
(g14
S'\xc0dx%t\xab6@'
p124
tp125
Rp126
ag10
(g14
S'\xd7\xbc\x1bY\xacc6@'
p127
tp128
Rp129
ag10
(g14
S'\x0c \x12\x08\xd1(6@'
p130
tp131
Rp132
ag10
(g14
S'\x92L\xd6\xc2\xa5\xa25@'
p133
tp134
Rp135
ag10
(g14
S"\xa0'\xca$\xd1\xcd7@"
p136
tp137
Rp138
asssss.