(dp0
S'../Data/sqlite_35.csv'
p1
(dp2
S'../Data/sqlite_43.csv'
p3
(dp4
F0.25
(dp5
S'abs_res'
p6
(dp7
S'bellwether'
p8
(lp9
cnumpy.core.multiarray
scalar
p10
(cnumpy
dtype
p11
(S'f8'
p12
I0
I1
tp13
Rp14
(I3
S'<'
p15
NNNI-1
I-1
I0
tp16
bS'\xe4B\xd2\x94l]<A'
p17
tp18
Rp19
ag10
(g14
S'Sb\x10(\xd7\\<A'
p20
tp21
Rp22
ag10
(g14
S'(/\xdd\x14\xe4]<A'
p23
tp24
Rp25
ag10
(g14
S'\xaf+@\x8e\xb5]<A'
p26
tp27
Rp28
ag10
(g14
S'e\xe5\xd0\xb2\xa6]<A'
p29
tp30
Rp31
ag10
(g14
S'\xa8E\xb6\x83Z\\<A'
p32
tp33
Rp34
ag10
(g14
S'\xaa\xf1\xd2m=^<A'
p35
tp36
Rp37
ag10
(g14
S'/x0O\x84]<A'
p38
tp39
Rp40
ag10
(g14
S'\xf8\x98\xe0\x81\xbd]<A'
p41
tp42
Rp43
ag10
(g14
S'!1\x08\x9c\x0f]<A'
p44
tp45
Rp46
ag10
(g14
S'?\xd0i\xb3\x9f]<A'
p47
tp48
Rp49
ag10
(g14
S'\x15t\xda\x10[]<A'
p50
tp51
Rp52
ag10
(g14
S'4O\xd4\xcf\xeb]<A'
p53
tp54
Rp55
ag10
(g14
S'_UU%+]<A'
p56
tp57
Rp58
ag10
(g14
S'\x12\x1e\xccc\xf5\\<A'
p59
tp60
Rp61
ag10
(g14
S'\xbf\x904\x85\xa0\\<A'
p62
tp63
Rp64
ag10
(g14
S'>B\x19m\t^<A'
p65
tp66
Rp67
ag10
(g14
S'c\x01r\x7f\xc9]<A'
p68
tp69
Rp70
ag10
(g14
S'X\xb8\x1eu}\\<A'
p71
tp72
Rp73
ag10
(g14
S'\xaa8\xfb`\xd1\\<A'
p74
tp75
Rp76
asS'target'
p77
(lp78
g10
(g14
S'\xcc\xcc\xcc\xcc\xcc\xaf\xc3@'
p79
tp80
Rp81
ag10
(g14
S'hfffF\xde\xc2@'
p82
tp83
Rp84
ag10
(g14
S'\xd1\xcc\xcc\xcc\x0c\xd6\xc2@'
p85
tp86
Rp87
ag10
(g14
S'\xfe\xff\xff\xff\x9f#\xc3@'
p88
tp89
Rp90
ag10
(g14
S'*"""\xe2\xcc\xc3@'
p91
tp92
Rp93
ag10
(g14
S'\xd8\xcc\xcc\xcc\x0c\xd8\xc2@'
p94
tp95
Rp96
ag10
(g14
S'\xd6\xcc\xcc\xcc\xcc\xe8\xc2@'
p97
tp98
Rp99
ag10
(g14
S'&333\xb34\xc3@'
p100
tp101
Rp102
ag10
(g14
S'2333\xb3q\xc2@'
p103
tp104
Rp105
ag10
(g14
S'\x9b\x99\x99\x99Y;\xc3@'
p106
tp107
Rp108
ag10
(g14
S'.3333\xae\xc3@'
p109
tp110
Rp111
ag10
(g14
S'1333\xf3B\xc3@'
p112
tp113
Rp114
ag10
(g14
S'efff&y\xc2@'
p115
tp116
Rp117
ag10
(g14
S'nfff\xa6\xd9\xc2@'
p118
tp119
Rp120
ag10
(g14
S'kffff\xc7\xc2@'
p121
tp122
Rp123
ag10
(g14
S'8333S\xd2\xc2@'
p124
tp125
Rp126
ag10
(g14
S'3333\x13V\xc3@'
p127
tp128
Rp129
ag10
(g14
S'@333sQ\xc2@'
p130
tp131
Rp132
ag10
(g14
S'efff\xa6\xe1\xc2@'
p133
tp134
Rp135
ag10
(g14
S'jfff\xa6\xbe\xc2@'
p136
tp137
Rp138
asssss.