(dp0
S'../Data/sqlite_60.csv'
p1
(dp2
S'../Data/sqlite_7.csv'
p3
(dp4
F0.25
(dp5
S'abs_res'
p6
(dp7
S'bellwether'
p8
(lp9
cnumpy.core.multiarray
scalar
p10
(cnumpy
dtype
p11
(S'f8'
p12
I0
I1
tp13
Rp14
(I3
S'<'
p15
NNNI-1
I-1
I0
tp16
bS'K\x0c\x02\x0f\xf4VeA'
p17
tp18
Rp19
ag10
(g14
S'k\x12\x83(\x0fUeA'
p20
tp21
Rp22
ag10
(g14
S'\x1a\x92\xa68\x92^eA'
p23
tp24
Rp25
ag10
(g14
S'p\xcbZ}\xeeWeA'
p26
tp27
Rp28
ag10
(g14
S']\xbaI\xb8}OeA'
p29
tp30
Rp31
ag10
(g14
S'\xf25\x17V\xd6XeA'
p32
tp33
Rp34
ag10
(g14
S'?\x8bl\x0f\x94_eA'
p35
tp36
Rp37
ag10
(g14
S'\xd6\x06:\xd9[ReA'
p38
tp39
Rp40
ag10
(g14
S'9\x89A8#PeA'
p41
tp42
Rp43
ag10
(g14
S'o\x12\x83\xacYYeA'
p44
tp45
Rp46
ag10
(g14
S'\n\xbb\x028#^eA'
p47
tp48
Rp49
ag10
(g14
S'C\xfd\x1b\x91\xc7VeA'
p50
tp51
Rp52
ag10
(g14
S',@\xee\xb1\x8b[eA'
p53
tp54
Rp55
ag10
(g14
S'\xd2\x85\xa4m\x11UeA'
p56
tp57
Rp58
ag10
(g14
S'o\x12\x83\xc86ZeA'
p59
tp60
Rp61
ag10
(g14
S'\xf9\x8dP\x16KWeA'
p62
tp63
Rp64
ag10
(g14
S'\xac\x1cZ\x00oWeA'
p65
tp66
Rp67
ag10
(g14
S'\x91n\x12{^UeA'
p68
tp69
Rp70
ag10
(g14
S'\x9c\x0bI75ReA'
p71
tp72
Rp73
ag10
(g14
S';5^\x1a5QeA'
p74
tp75
Rp76
asS'target'
p77
(lp78
g10
(g14
S'\x92l\xe7\xfb\xa9\x85f@'
p79
tp80
Rp81
ag10
(g14
S'K7\x89A`\xd1f@'
p82
tp83
Rp84
ag10
(g14
S'\x9aC\x8bl\xe7ek@'
p85
tp86
Rp87
ag10
(g14
S'\x96C\x8bl\xe7sh@'
p88
tp89
Rp90
ag10
(g14
S'\xb9\x1e\x85\xebQ\xeej@'
p91
tp92
Rp93
ag10
(g14
S'\x96n\x12\x83\xc0\xf2h@'
p94
tp95
Rp96
ag10
(g14
S'[\xbaI\x0c\x02\xbfh@'
p97
tp98
Rp99
ag10
(g14
S'\xdbx\xe9&1`g@'
p100
tp101
Rp102
ag10
(g14
S'\xc0\xf5(\\\x8f\x02f@'
p103
tp104
Rp105
ag10
(g14
S'\xfb\xa9\xf1\xd2M\x12j@'
p106
tp107
Rp108
ag10
(g14
S'\x8e\x99\x99\x99\x99Sh@'
p109
tp110
Rp111
ag10
(g14
S'\xd9\xf7S\xe3\xa5\xb1h@'
p112
tp113
Rp114
ag10
(g14
S'\t\xaa\xf1\xd2M\x08h@'
p115
tp116
Rp117
ag10
(g14
S'2\x89A`\xe54h@'
p118
tp119
Rp120
ag10
(g14
S'1\xdd$\x06\x81\xbdj@'
p121
tp122
Rp123
ag10
(g14
S'\xaa\xf1\xd2MbPf@'
p124
tp125
Rp126
ag10
(g14
S'\xdb$\x06\x81\x95\xdbi@'
p127
tp128
Rp129
ag10
(g14
S'w\x93\x18\x04V\xf4j@'
p130
tp131
Rp132
ag10
(g14
S'5^\xbaI\x0c\xd6h@'
p133
tp134
Rp135
ag10
(g14
S'\x8f\xed|?5vh@'
p136
tp137
Rp138
asssss.