(dp0
S'../Data/sqlite_29.csv'
p1
(dp2
S'../Data/sqlite_37.csv'
p3
(dp4
F0.35
(dp5
S'abs_res'
p6
(dp7
S'bellwether'
p8
(lp9
cnumpy.core.multiarray
scalar
p10
(cnumpy
dtype
p11
(S'f8'
p12
I0
I1
tp13
Rp14
(I3
S'<'
p15
NNNI-1
I-1
I0
tp16
bS'\xe85\x17\x12T+=A'
p17
tp18
Rp19
ag10
(g14
S'W\xabc\x82,-=A'
p20
tp21
Rp22
ag10
(g14
S'\x882z\x9b\xe8+=A'
p23
tp24
Rp25
ag10
(g14
S'7O\xd4\xdfK,=A'
p26
tp27
Rp28
ag10
(g14
S'\x8c2z\xfb\xc4+=A'
p29
tp30
Rp31
ag10
(g14
S'{!ijN,=A'
p32
tp33
Rp34
ag10
(g14
S'x\xa2\xfe\xcdG+=A'
p35
tp36
Rp37
ag10
(g14
S'\x01+\x87\x16}+=A'
p38
tp39
Rp40
ag10
(g14
S'w!i\n\xdc+=A'
p41
tp42
Rp43
ag10
(g14
S'\xab\x00\xb97\xe2*=A'
p44
tp45
Rp46
ag10
(g14
S'\xb3\x1cZ\x849+=A'
p47
tp48
Rp49
ag10
(g14
S'\xd7\xcc\xccl\x03*=A'
p50
tp51
Rp52
ag10
(g14
S'\xd3\x06:\r\xb5,=A'
p53
tp54
Rp55
ag10
(g14
S'X\x80\xdc+\xd2(=A'
p56
tp57
Rp58
ag10
(g14
S'F~\xb1d\x9f)=A'
p59
tp60
Rp61
ag10
(g14
S'HDD\xe4..=A'
p62
tp63
Rp64
ag10
(g14
S'Yd;\x9f]*=A'
p65
tp66
Rp67
ag10
(g14
S'\xb7\xc8v~\xd0*=A'
p68
tp69
Rp70
ag10
(g14
S'\xbe\x02\xe4\x1ek-=A'
p71
tp72
Rp73
ag10
(g14
S'pL\xf0\xc0W*=A'
p74
tp75
Rp76
asS'target'
p77
(lp78
g10
(g14
S'\xe0\xce\xf7S\xe3\xbdK@'
p79
tp80
Rp81
ag10
(g14
S'g\xe5\xd0"\xdbQG@'
p82
tp83
Rp84
ag10
(g14
S'\xa4\xc6K7\x891I@'
p85
tp86
Rp87
ag10
(g14
S'\x02+\x87\x16\xd9\xdeI@'
p88
tp89
Rp90
ag10
(g14
S'#\\\x8f\xc2\xf5\xf8H@'
p91
tp92
Rp93
ag10
(g14
S'\xb2\x1cZd;\xdfI@'
p94
tp95
Rp96
ag10
(g14
S'\xd5"\xdb\xf9~\x9aI@'
p97
tp98
Rp99
ag10
(g14
S'\xc8 \xb0rh\x89J@'
p100
tp101
Rp102
ag10
(g14
S'U\x0e-\xb2\x9d/J@'
p103
tp104
Rp105
ag10
(g14
S'q\x12\x83\xc0\xcaIJ@'
p106
tp107
Rp108
ag10
(g14
S'qh\x91\xed|\xc7I@'
p109
tp110
Rp111
ag10
(g14
S'\x9aE\xb6\xf3\xfd\xc4I@'
p112
tp113
Rp114
ag10
(g14
S'\t+\x87\x16\xd9\xaeI@'
p115
tp116
Rp117
ag10
(g14
S'j\x12\x83\xc0\xca\x89H@'
p118
tp119
Rp120
ag10
(g14
S'\x07\xd7\xa3p=\x1aI@'
p121
tp122
Rp123
ag10
(g14
S'h;\xdfO\x8d\x87I@'
p124
tp125
Rp126
ag10
(g14
S' \xdb\xf9~j\x84I@'
p127
tp128
Rp129
ag10
(g14
S'\x1fZd;\xdf/J@'
p130
tp131
Rp132
ag10
(g14
S'\t+\x87\x16\xd9\x1eI@'
p133
tp134
Rp135
ag10
(g14
S'\xf9\xd4x\xe9&1H@'
p136
tp137
Rp138
asssss.