(dp0
S'../Data/sqlite_85.csv'
p1
(dp2
S'../Data/sqlite_69.csv'
p3
(dp4
F0.25
(dp5
S'abs_res'
p6
(dp7
S'bellwether'
p8
(lp9
cnumpy.core.multiarray
scalar
p10
(cnumpy
dtype
p11
(S'f8'
p12
I0
I1
tp13
Rp14
(I3
S'<'
p15
NNNI-1
I-1
I0
tp16
bS'\x9a\xc2\xf5H\xb9MTA'
p17
tp18
Rp19
ag10
(g14
S'$\\\x8f\xf2\xc3mTA'
p20
tp21
Rp22
ag10
(g14
S'\xf0Q\xb8^O=TA'
p23
tp24
Rp25
ag10
(g14
S'\xda\xa3p]2oTA'
p26
tp27
Rp28
ag10
(g14
S'\x8f_,\x89\x0f(TA'
p29
tp30
Rp31
ag10
(g14
S'7m\xa0+\x9f\x91TA'
p32
tp33
Rp34
ag10
(g14
S'\x9e\xfcb\xa9\x1evTA'
p35
tp36
Rp37
ag10
(g14
S'\n:m0kZTA'
p38
tp39
Rp40
ag10
(g14
S'\r\xaeGY\xd6STA'
p41
tp42
Rp43
ag10
(g14
S'\xf4(\\O\xfcQTA'
p44
tp45
Rp46
ag10
(g14
S'nff>\x85eTA'
p47
tp48
Rp49
ag10
(g14
S'+\\\x8f\xaa\xd9ETA'
p50
tp51
Rp52
ag10
(g14
S'\xc6X\xf2{\x0beTA'
p53
tp54
Rp55
ag10
(g14
S'\xd4\x06:eHKTA'
p56
tp57
Rp58
ag10
(g14
S'e\xc9/.\x85gTA'
p59
tp60
Rp61
ag10
(g14
S'\x8b\x88\x88\xc8\x13wTA'
p62
tp63
Rp64
ag10
(g14
S'(\xf9\xc5z \x9fTA'
p65
tp66
Rp67
ag10
(g14
S'633\x1b\x94qTA'
p68
tp69
Rp70
ag10
(g14
S'\xab\xaa\xaa*\x9b\\TA'
p71
tp72
Rp73
ag10
(g14
S'\xc5/\x96T-dTA'
p74
tp75
Rp76
asS'target'
p77
(lp78
g10
(g14
S'\xe3z\x14\xaeG7\x91@'
p79
tp80
Rp81
ag10
(g14
S'\xacG\xe1z\x14\x00\x8d@'
p82
tp83
Rp84
ag10
(g14
S'\xc1\xa3p=\n\xc2\x8c@'
p85
tp86
Rp87
ag10
(g14
S'\x03\xd7\xa3p=j\x90@'
p88
tp89
Rp90
ag10
(g14
S'\xd5\xa3p=\x8a<\x90@'
p91
tp92
Rp93
ag10
(g14
S'\xa6p=\n\xd7\x02\x8f@'
p94
tp95
Rp96
ag10
(g14
S'\\\x8f\xc2\xf5(\x14\x90@'
p97
tp98
Rp99
ag10
(g14
S'~\xebQ\xb8\x1e\x14\x90@'
p100
tp101
Rp102
ag10
(g14
S'\xc3\xf5(\\\x8f\x98\x8c@'
p103
tp104
Rp105
ag10
(g14
S'\xd3\xcc\xcc\xcc\xcc/\x8e@'
p106
tp107
Rp108
ag10
(g14
S'\xa4G\xe1z\x94U\x91@'
p109
tp110
Rp111
ag10
(g14
S'jffff\xe9\x8c@'
p112
tp113
Rp114
ag10
(g14
S'\xe9z\x14\xaeG\xad\x8d@'
p115
tp116
Rp117
ag10
(g14
S'\xd4\xa3p=\n\x10\x90@'
p118
tp119
Rp120
ag10
(g14
S'\xba\x1e\x85\xebQ!\x8e@'
p121
tp122
Rp123
ag10
(g14
S'affff\x82\x8d@'
p124
tp125
Rp126
ag10
(g14
S'?3333\xed\x8b@'
p127
tp128
Rp129
ag10
(g14
S'\x8e\xebQ\xb8\x1ew\x8e@'
p130
tp131
Rp132
ag10
(g14
S'kffffJ\x91@'
p133
tp134
Rp135
ag10
(g14
S'\xecQ\xb8\x1e\x85\xd1\x8b@'
p136
tp137
Rp138
asssss.