(dp0
S'../Data/sqlite_34.csv'
p1
(dp2
S'../Data/sqlite_85.csv'
p3
(dp4
F0.3
(dp5
S'abs_res'
p6
(dp7
S'bellwether'
p8
(lp9
cnumpy.core.multiarray
scalar
p10
(cnumpy
dtype
p11
(S'f8'
p12
I0
I1
tp13
Rp14
(I3
S'<'
p15
NNNI-1
I-1
I0
tp16
bS'\xca\xd9\x87\x0f\xb7TSA'
p17
tp18
Rp19
ag10
(g14
S'{ww\xf3&cSA'
p20
tp21
Rp22
ag10
(g14
S'l\x1f>g\x8eASA'
p23
tp24
Rp25
ag10
(g14
S'\xebmY\x9fATSA'
p26
tp27
Rp28
ag10
(g14
S'\x90\xd1\xdb\xee\x00zSA'
p29
tp30
Rp31
ag10
(g14
S"0O\xd4'\xdf\x1aSA"
p32
tp33
Rp34
ag10
(g14
S'`s!\xd5\xc54SA'
p35
tp36
Rp37
ag10
(g14
S'N7\x89Y\xf0VSA'
p38
tp39
Rp40
ag10
(g14
S'D\xa7\r\x14\xb0>SA'
p41
tp42
Rp43
ag10
(g14
S'S\xf0`\xce\xec\\SA'
p44
tp45
Rp46
ag10
(g14
S'\xf0\x19v\xadopSA'
p47
tp48
Rp49
ag10
(g14
S'\xa0E\xb6\xa7\x06HSA'
p50
tp51
Rp52
ag10
(g14
S'\xf2\xdf\x08\xfd\xe5*SA'
p53
tp54
Rp55
ag10
(g14
S'!\xa1\x8c\xce\xf5aSA'
p56
tp57
Rp58
ag10
(g14
S'[\x1d\x13\xccRQSA'
p59
tp60
Rp61
ag10
(g14
S'\xbdI\x0c\xa6\xfeySA'
p62
tp63
Rp64
ag10
(g14
S'\xcc\xdb\xb2\x9ekPSA'
p65
tp66
Rp67
ag10
(g14
S'3z[\x0e\xa7SSA'
p68
tp69
Rp70
ag10
(g14
S'\xb6\xc8vN\xe2{SA'
p71
tp72
Rp73
ag10
(g14
S'\x99\x18\x04\x8e\xa5USA'
p74
tp75
Rp76
asS'target'
p77
(lp78
g10
(g14
S"\xcf\xcc\xccL'b>A"
p79
tp80
Rp81
ag10
(g14
S'\x08\x00\x00\xc0\xa1\xee:A'
p82
tp83
Rp84
ag10
(g14
S'\xe3z\x14.O\xed;A'
p85
tp86
Rp87
ag10
(g14
S'\xf2(\\\x8f:\x06@A'
p88
tp89
Rp90
ag10
(g14
S'\xd4\xa3p}\xcf+?A'
p91
tp92
Rp93
ag10
(g14
S'j=\nW \n?A'
p94
tp95
Rp96
ag10
(g14
S';\n\xd7\xc3M7@A'
p97
tp98
Rp99
ag10
(g14
S'\\\x8f\xc2\xf5\xb3j>A'
p100
tp101
Rp102
ag10
(g14
S'\x83\x14\xaeG\x9d<>A'
p103
tp104
Rp105
ag10
(g14
S'[\x8f\xc2u\xcf\x0f@A'
p106
tp107
Rp108
ag10
(g14
S'\x00\x00\x00\x00t\xa3;A'
p109
tp110
Rp111
ag10
(g14
S'\xcc\xcc\xccL]S;A'
p112
tp113
Rp114
ag10
(g14
S'\xdb\xa3p}\x0e\xfc=A'
p115
tp116
Rp117
ag10
(g14
S'\xaaG\xe1\xfaS\x89=A'
p118
tp119
Rp120
ag10
(g14
S'\x1e\x85\xebQ\x9d\xec<A'
p121
tp122
Rp123
ag10
(g14
S'L\xe1zT2i;A'
p124
tp125
Rp126
ag10
(g14
S'X\x8f\xc2\xb5y\xd6<A'
p127
tp128
Rp129
ag10
(g14
S'\x9f\x99\x99\x19\xe6!;A'
p130
tp131
Rp132
ag10
(g14
S'\xd7\xa3p}OM>A'
p133
tp134
Rp135
ag10
(g14
S'133S\x8f\x1d@A'
p136
tp137
Rp138
asssss.