(dp0
S'../Data/sqlite_8.csv'
p1
(dp2
S'../Data/sqlite_87.csv'
p3
(dp4
F0.4
(dp5
S'mmre'
p6
(dp7
S'bellwether'
p8
(lp9
cnumpy.core.multiarray
scalar
p10
(cnumpy
dtype
p11
(S'f8'
p12
I0
I1
tp13
Rp14
(I3
S'<'
p15
NNNI-1
I-1
I0
tp16
bS'\xc3\xaa\\q([S@'
p17
tp18
Rp19
ag10
(g14
S'\x1d}cRXnS@'
p20
tp21
Rp22
ag10
(g14
S'\x96\xe6\xaf\x81\xa4\x80S@'
p23
tp24
Rp25
ag10
(g14
S'\x8b\xf4\x11\x8c\x08\x8cS@'
p26
tp27
Rp28
ag10
(g14
S'\xd6ih\xcd\xadfS@'
p29
tp30
Rp31
ag10
(g14
S'\xd6\x81\xa6\xdb\x14\x80S@'
p32
tp33
Rp34
ag10
(g14
S'\x80YR\xcaNvS@'
p35
tp36
Rp37
ag10
(g14
S'\xd7\x1fI\x1bj]S@'
p38
tp39
Rp40
ag10
(g14
S'\x82^\x84\x82\xc6fS@'
p41
tp42
Rp43
ag10
(g14
S'\xa2?\x93qk_S@'
p44
tp45
Rp46
ag10
(g14
S"\x16\xc5'\xbbnQS@"
p47
tp48
Rp49
ag10
(g14
S'}A5\xba\xdf[S@'
p50
tp51
Rp52
ag10
(g14
S'\x9d\x14\xd7u\xa2dS@'
p53
tp54
Rp55
ag10
(g14
S'x\xa5\xa4\xe8\x95oS@'
p56
tp57
Rp58
ag10
(g14
S'\xfa\x0b\xcf<tgS@'
p59
tp60
Rp61
ag10
(g14
S'\xe6\xec\x93\xba6oS@'
p62
tp63
Rp64
ag10
(g14
S'\xf0\xdef6\x9djS@'
p65
tp66
Rp67
ag10
(g14
S"L\xf1M'5uS@"
p68
tp69
Rp70
ag10
(g14
S'\xf1\xc0\xcfg?eS@'
p71
tp72
Rp73
ag10
(g14
S'2)_\xfdDxS@'
p74
tp75
Rp76
asS'target'
p77
(lp78
g10
(g14
S'\xf9}\xc5af\x08S@'
p79
tp80
Rp81
ag10
(g14
S'\x8b\x04|J\xed\x9dI@'
p82
tp83
Rp84
ag10
(g14
S'\r\xe7\xfb\x9a\xb1\x01M@'
p85
tp86
Rp87
ag10
(g14
S'S\xf2y\rl\xdaG@'
p88
tp89
Rp90
ag10
(g14
S'\x99k\xbf\xbb\xdc#Q@'
p91
tp92
Rp93
ag10
(g14
S';\xea\xb2\xcd\xdbFR@'
p94
tp95
Rp96
ag10
(g14
S'\xba5\x98\x0f\x8e\xc0K@'
p97
tp98
Rp99
ag10
(g14
S'\x9dQ\xe3\x808SN@'
p100
tp101
Rp102
ag10
(g14
S'#\x06\x7f\xfbH\xf1N@'
p103
tp104
Rp105
ag10
(g14
S'^\xe8\x1a!C\xa3T@'
p106
tp107
Rp108
ag10
(g14
S'7~w7WrQ@'
p109
tp110
Rp111
ag10
(g14
S"'\x9d\xa4\r\xa6cQ@"
p112
tp113
Rp114
ag10
(g14
S'\x10J\xf6iZ\x18Q@'
p115
tp116
Rp117
ag10
(g14
S'D\x8cC\xc8\xaf\xb4Q@'
p118
tp119
Rp120
ag10
(g14
S'\r\xc1Ey-\x0eQ@'
p121
tp122
Rp123
ag10
(g14
S'\x05\xa1k\xee\xfa\x12P@'
p124
tp125
Rp126
ag10
(g14
S'_Kjo\xe5\x7fO@'
p127
tp128
Rp129
ag10
(g14
S'\x93\x97\xe8QU\xafP@'
p130
tp131
Rp132
ag10
(g14
S'\x8c\x92\xd7_\xf9\xe8R@'
p133
tp134
Rp135
ag10
(g14
S'\xba\xc3zK\xdc\xc9H@'
p136
tp137
Rp138
asssss.