(dp0
S'../Data/sqlite_92.csv'
p1
(dp2
S'../Data/sqlite_93.csv'
p3
(dp4
F0.4
(dp5
S'mmre'
p6
(dp7
S'bellwether'
p8
(lp9
cnumpy.core.multiarray
scalar
p10
(cnumpy
dtype
p11
(S'f8'
p12
I0
I1
tp13
Rp14
(I3
S'<'
p15
NNNI-1
I-1
I0
tp16
bS'\x9d\xee\xc2\xbc\x80ie@'
p17
tp18
Rp19
ag10
(g14
S'@S\x9c\x11CTe@'
p20
tp21
Rp22
ag10
(g14
S'\x1e\xc8\x11\x1d\x98re@'
p23
tp24
Rp25
ag10
(g14
S'\xeb\xb6\x9b\x85*Oe@'
p26
tp27
Rp28
ag10
(g14
S')l\xf0\xd1\xc4ue@'
p29
tp30
Rp31
ag10
(g14
S'mu\xc9w\xf2Ve@'
p32
tp33
Rp34
ag10
(g14
S'\x9e\xee =\x9e\x1ee@'
p35
tp36
Rp37
ag10
(g14
S'\x802\xa3+\xc4\x9ee@'
p38
tp39
Rp40
ag10
(g14
S'\xcb\xb5\x02C\x0f\x1ee@'
p41
tp42
Rp43
ag10
(g14
S'^\x85=FlRe@'
p44
tp45
Rp46
ag10
(g14
S's\x97\xdb\xa5\xd5de@'
p47
tp48
Rp49
ag10
(g14
S'\r\x9e\xa7O\x18ue@'
p50
tp51
Rp52
ag10
(g14
S'\x9f\xa2PR\x1d\\e@'
p53
tp54
Rp55
ag10
(g14
S'\xc8\x02\xf6\xae\xb9\x1ce@'
p56
tp57
Rp58
ag10
(g14
S'\xee_\xdf\xd2(se@'
p59
tp60
Rp61
ag10
(g14
S'eO\xe7.Fie@'
p62
tp63
Rp64
ag10
(g14
S'\xe5\x89\xb3\r\x18\x87e@'
p65
tp66
Rp67
ag10
(g14
S'\x87\xe2\x15\x1c\x8b,e@'
p68
tp69
Rp70
ag10
(g14
S'w\n\xca\xf5lae@'
p71
tp72
Rp73
ag10
(g14
S'\xdd\x8b$R\x1fue@'
p74
tp75
Rp76
asS'target'
p77
(lp78
g10
(g14
S'\xd8\xef\xcaOE\xb9S@'
p79
tp80
Rp81
ag10
(g14
S'\xee\xc5\xcb\x15\xbfKU@'
p82
tp83
Rp84
ag10
(g14
S'\xb9\xd0Zw\xbbkQ@'
p85
tp86
Rp87
ag10
(g14
S'\x0f\xb7\x80\xc9\x18YY@'
p88
tp89
Rp90
ag10
(g14
S'\xfdC3d\x95wZ@'
p91
tp92
Rp93
ag10
(g14
S'\xf8\xf5\xd6\xcat\xb6V@'
p94
tp95
Rp96
ag10
(g14
S'bq\x08\xf1mQR@'
p97
tp98
Rp99
ag10
(g14
S'4Z`\xf7\x89\xf6\\@'
p100
tp101
Rp102
ag10
(g14
S'\xf0+\xe9W\x1dCS@'
p103
tp104
Rp105
ag10
(g14
S'k\xad9la\xc5S@'
p106
tp107
Rp108
ag10
(g14
S'#1 >RDS@'
p109
tp110
Rp111
ag10
(g14
S'L\xf6\x16\xe6q\xeaR@'
p112
tp113
Rp114
ag10
(g14
S'\xc3h\x08F\xbc?W@'
p115
tp116
Rp117
ag10
(g14
S'R?C1!\x0cX@'
p118
tp119
Rp120
ag10
(g14
S'\xa3\xfd\x10\x19\xdf\xdfT@'
p121
tp122
Rp123
ag10
(g14
S'Oz\xa0]\xedSW@'
p124
tp125
Rp126
ag10
(g14
S'\x03\\\x0b\xda\xc4(Y@'
p127
tp128
Rp129
ag10
(g14
S'!uMv\xc3VP@'
p130
tp131
Rp132
ag10
(g14
S'\xfc!TG\x98\xf7S@'
p133
tp134
Rp135
ag10
(g14
S'\r9\xa5\x929`R@'
p136
tp137
Rp138
asssss.