(dp0
S'../Data/sqlite_57.csv'
p1
(dp2
S'../Data/sqlite_3.csv'
p3
(dp4
F0.1
(dp5
S'abs_res'
p6
(dp7
S'bellwether'
p8
(lp9
cnumpy.core.multiarray
scalar
p10
(cnumpy
dtype
p11
(S'f8'
p12
I0
I1
tp13
Rp14
(I3
S'<'
p15
NNNI-1
I-1
I0
tp16
bS'\xba\xca\xa1}\x1d0jA'
p17
tp18
Rp19
ag10
(g14
S'\x11\x04V\xd2\t1jA'
p20
tp21
Rp22
ag10
(g14
S'<^\xbaaM*jA'
p23
tp24
Rp25
ag10
(g14
S'u?5f\xca(jA'
p26
tp27
Rp28
ag10
(g14
S'\\\xbaI\x8c81jA'
p29
tp30
Rp31
ag10
(g14
S'\x1a\x85\xeb\x99`)jA'
p32
tp33
Rp34
ag10
(g14
S'-\xdd$2\xef1jA'
p35
tp36
Rp37
ag10
(g14
S'O\x0e-r6/jA'
p38
tp39
Rp40
ag10
(g14
S'\x85\x97nR\xb2.jA'
p41
tp42
Rp43
ag10
(g14
S'N\x8d\x97\x1a71jA'
p44
tp45
Rp46
ag10
(g14
S'O\x0e-\x96\xb90jA'
p47
tp48
Rp49
ag10
(g14
S'v\x14\xaeC-0jA'
p50
tp51
Rp52
ag10
(g14
S'\x10-\xb2m\xd9(jA'
p53
tp54
Rp55
ag10
(g14
S'\x00\xd5x=\x17*jA'
p56
tp57
Rp58
ag10
(g14
S'\x86\xebQh\xd2(jA'
p59
tp60
Rp61
ag10
(g14
S'133C ,jA'
p62
tp63
Rp64
ag10
(g14
S't\xe9&A(*jA'
p65
tp66
Rp67
ag10
(g14
S'\xa8G\xe1R\xab-jA'
p68
tp69
Rp70
ag10
(g14
S'bff\x92\\%jA'
p71
tp72
Rp73
ag10
(g14
S'2\x89A\x00\xa03jA'
p74
tp75
Rp76
asS'target'
p77
(lp78
g10
(g14
S'S\x8d\x97n\x12\xd7r@'
p79
tp80
Rp81
ag10
(g14
S'\x97\xc2\xf5(\\\x16q@'
p82
tp83
Rp84
ag10
(g14
S'2\xb2\x9d\xef\xa7\x1an@'
p85
tp86
Rp87
ag10
(g14
S'Q\x8d\x97n\x12\xefq@'
p88
tp89
Rp90
ag10
(g14
S'Yffff\xd6k@'
p91
tp92
Rp93
ag10
(g14
S'\x94C\x8bl\xe7\xebp@'
p94
tp95
Rp96
ag10
(g14
S'\n\x81\x95C\x8b<m@'
p97
tp98
Rp99
ag10
(g14
S'\x80\xebQ\xb8\x1e\xbfp@'
p100
tp101
Rp102
ag10
(g14
S'\xd8O\x8d\x97n\xeem@'
p103
tp104
Rp105
ag10
(g14
S'\xdfO\x8d\x97nTq@'
p106
tp107
Rp108
ag10
(g14
S'!\x06\x81\x95C\xcfr@'
p109
tp110
Rp111
ag10
(g14
S'b\xe5\xd0"\xdb1p@'
p112
tp113
Rp114
ag10
(g14
S'\x00\xd5x\xe9&\xd9p@'
p115
tp116
Rp117
ag10
(g14
S'N9\xb4\xc8v\x86k@'
p118
tp119
Rp120
ag10
(g14
S'\xbc\xca\xa1E\xb6\xffo@'
p121
tp122
Rp123
ag10
(g14
S',\xb2\x9d\xef\xa70q@'
p124
tp125
Rp126
ag10
(g14
S'\x17Zd;\xdf\xddq@'
p127
tp128
Rp129
ag10
(g14
S'\xca"\xdb\xf9~\x86o@'
p130
tp131
Rp132
ag10
(g14
S'\xc3 \xb0rh+p@'
p133
tp134
Rp135
ag10
(g14
S'9\xb4\xc8v\xbe?q@'
p136
tp137
Rp138
asssss.