(dp0
S'../Data/sqlite_70.csv'
p1
(dp2
S'../Data/sqlite_73.csv'
p3
(dp4
F0.2
(dp5
S'mmre'
p6
(dp7
S'bellwether'
p8
(lp9
cnumpy.core.multiarray
scalar
p10
(cnumpy
dtype
p11
(S'f8'
p12
I0
I1
tp13
Rp14
(I3
S'<'
p15
NNNI-1
I-1
I0
tp16
bS'\x80\x88\xb1\x92\xaeHE@'
p17
tp18
Rp19
ag10
(g14
S'&\nD\xb2\xe1=E@'
p20
tp21
Rp22
ag10
(g14
S':\x07:\x00\x14OE@'
p23
tp24
Rp25
ag10
(g14
S'T\xc9s\xce\xe6WE@'
p26
tp27
Rp28
ag10
(g14
S'F\xb7XneME@'
p29
tp30
Rp31
ag10
(g14
S'\xa7\xbd\xa2\xe35<E@'
p32
tp33
Rp34
ag10
(g14
S'W\xdaU\x17E@E@'
p35
tp36
Rp37
ag10
(g14
S'\xd4N\x97_\xc09E@'
p38
tp39
Rp40
ag10
(g14
S'\x08KL\x94~KE@'
p41
tp42
Rp43
ag10
(g14
S'\xab\xd4]\xa0\x0f[E@'
p44
tp45
Rp46
ag10
(g14
S"g?'\xb1\x8aJE@"
p47
tp48
Rp49
ag10
(g14
S'\xee\xf0i7\x96:E@'
p50
tp51
Rp52
ag10
(g14
S'\x96\xed\x00\x9c\xcbEE@'
p53
tp54
Rp55
ag10
(g14
S'd\x01&\x15\x0fIE@'
p56
tp57
Rp58
ag10
(g14
S'FP\x10f\xa3`E@'
p59
tp60
Rp61
ag10
(g14
S'\x86\xad\xde$GDE@'
p62
tp63
Rp64
ag10
(g14
S'\x96eXo!FE@'
p65
tp66
Rp67
ag10
(g14
S',\xb1\x04\x9f\xcb6E@'
p68
tp69
Rp70
ag10
(g14
S'\xfc7\x88j\xd2;E@'
p71
tp72
Rp73
ag10
(g14
S'\x02\xaeCf\xc3PE@'
p74
tp75
Rp76
asS'target'
p77
(lp78
g10
(g14
S'\xe2imA\\\xa7,@'
p79
tp80
Rp81
ag10
(g14
S'\xd8n\x97\xbe%\xe0*@'
p82
tp83
Rp84
ag10
(g14
S'x\xcbq\x86\xab\xaa+@'
p85
tp86
Rp87
ag10
(g14
S'\x1f\x1e\x94\xdd\xaaq+@'
p88
tp89
Rp90
ag10
(g14
S'0#\xea5dw*@'
p91
tp92
Rp93
ag10
(g14
S'\x1c+a\xde\xafQ+@'
p94
tp95
Rp96
ag10
(g14
S'\x8f/N\\>\xc3,@'
p97
tp98
Rp99
ag10
(g14
S'#\xb8`j@\xff+@'
p100
tp101
Rp102
ag10
(g14
S'\x8c,+\xf7Ow+@'
p103
tp104
Rp105
ag10
(g14
S'\xf1\xf8\x85\xfa\x89\x91*@'
p106
tp107
Rp108
ag10
(g14
S'+\xb1\x07\xe8\x00\xa2-@'
p109
tp110
Rp111
ag10
(g14
S'\xf9\xc7\xd5*\xc0\x13,@'
p112
tp113
Rp114
ag10
(g14
S'%;\xedw\x86\x95.@'
p115
tp116
Rp117
ag10
(g14
S'\x8b\x9c:\x83\x1f\xf8+@'
p118
tp119
Rp120
ag10
(g14
S't\x1d\x91(\x07C-@'
p121
tp122
Rp123
ag10
(g14
S'Na[%s\x80-@'
p124
tp125
Rp126
ag10
(g14
S'\x81\xb6\x00\x10t\xfd)@'
p127
tp128
Rp129
ag10
(g14
S'\x1e,\x12F. +@'
p130
tp131
Rp132
ag10
(g14
S'o6\xa5\x90\xb6\xa8+@'
p133
tp134
Rp135
ag10
(g14
S'@\xca\x86P\xd0\x8e+@'
p136
tp137
Rp138
asssss.