(dp0
S'../Data/sqlite_60.csv'
p1
(dp2
S'../Data/sqlite_35.csv'
p3
(dp4
F0.25
(dp5
S'abs_res'
p6
(dp7
S'bellwether'
p8
(lp9
cnumpy.core.multiarray
scalar
p10
(cnumpy
dtype
p11
(S'f8'
p12
I0
I1
tp13
Rp14
(I3
S'<'
p15
NNNI-1
I-1
I0
tp16
bS'\xf4\xb6\xac\x85OVeA'
p17
tp18
Rp19
ag10
(g14
S'hJ\xc51\xafTeA'
p20
tp21
Rp22
ag10
(g14
S'\xe4\x98\xe0\xbdW[eA'
p23
tp24
Rp25
ag10
(g14
S'H\x0c\x02O\x15]eA'
p26
tp27
Rp28
ag10
(g14
S'\xa7G\xe1j|XeA'
p29
tp30
Rp31
ag10
(g14
S"T\xc5\xd9'\xc8YeA"
p32
tp33
Rp34
ag10
(g14
S'B\xb4\xc8>NXeA'
p35
tp36
Rp37
ag10
(g14
S'C\x19\xbdI\xb0ZeA'
p38
tp39
Rp40
ag10
(g14
S'\x1d>\xc3jHMeA'
p41
tp42
Rp43
ag10
(g14
S'm\xaf\xb9\x10\x92ReA'
p44
tp45
Rp46
ag10
(g14
S'duL\x18\xc6VeA'
p47
tp48
Rp49
ag10
(g14
S'zww\xbb\x7f[eA'
p50
tp51
Rp52
ag10
(g14
S'\xc9\xa1E\xa6:TeA'
p53
tp54
Rp55
ag10
(g14
S"@\x98'.h\\eA"
p56
tp57
Rp58
ag10
(g14
S'\xd9O\x8d\x83\x1cWeA'
p59
tp60
Rp61
ag10
(g14
S'Zd;W&ZeA'
p62
tp63
Rp64
ag10
(g14
S'o\x842"tXeA'
p65
tp66
Rp67
ag10
(g14
S'(\x96\xfc\x1e\xf7YeA'
p68
tp69
Rp70
ag10
(g14
S'A\xe1z\x18\xc3UeA'
p71
tp72
Rp73
ag10
(g14
S'\x06\xb9\xd74^ReA'
p74
tp75
Rp76
asS'target'
p77
(lp78
g10
(g14
S'_ffff\xa6]@'
p79
tp80
Rp81
ag10
(g14
S'{\xebQ\xb8\x1e\x95\\@'
p82
tp83
Rp84
ag10
(g14
S'`\x8f\xc2\xf5(\x98_@'
p85
tp86
Rp87
ag10
(g14
S'\xe4\xfb\xa9\xf1\xd2\x05_@'
p88
tp89
Rp90
ag10
(g14
S'vh\x91\xed|W^@'
p91
tp92
Rp93
ag10
(g14
S'\xe2O\x8d\x97n\x92\\@'
p94
tp95
Rp96
ag10
(g14
S'\xf0|?5^*]@'
p97
tp98
Rp99
ag10
(g14
S'\xa0\x99\x99\x99\x99\xcd^@'
p100
tp101
Rp102
ag10
(g14
S'vA`\xe5\xd0\xba_@'
p103
tp104
Rp105
ag10
(g14
S'v\x91\xed|?\x15^@'
p106
tp107
Rp108
ag10
(g14
S'\x84\xed|?5\xb6]@'
p109
tp110
Rp111
ag10
(g14
S'"\xb0rh\x91)`@'
p112
tp113
Rp114
ag10
(g14
S'\xbfK7\x89A4]@'
p115
tp116
Rp117
ag10
(g14
S'\xfc\xd2Mb\x10\xa8^@'
p118
tp119
Rp120
ag10
(g14
S'\x98\xc4 \xb0rh\\@'
p121
tp122
Rp123
ag10
(g14
S'I\xb6\xf3\xfd\xd4h_@'
p124
tp125
Rp126
ag10
(g14
S'\xf8Q\xb8\x1e\x85\x9b\\@'
p127
tp128
Rp129
ag10
(g14
S'\x8c\xed|?5\x92\\@'
p130
tp131
Rp132
ag10
(g14
S'\x99\x99\x99\x99\x99Y^@'
p133
tp134
Rp135
ag10
(g14
S'x\xc2\xf5(\\\xaf_@'
p136
tp137
Rp138
asssss.