(dp0
S'../Data/sqlite_20.csv'
p1
(dp2
S'../Data/sqlite_54.csv'
p3
(dp4
F0.1
(dp5
S'mmre'
p6
(dp7
S'bellwether'
p8
(lp9
cnumpy.core.multiarray
scalar
p10
(cnumpy
dtype
p11
(S'f8'
p12
I0
I1
tp13
Rp14
(I3
S'<'
p15
NNNI-1
I-1
I0
tp16
bS'\xb7\x94\xb7[f{O@'
p17
tp18
Rp19
ag10
(g14
S'\xf0^\xa5m#rO@'
p20
tp21
Rp22
ag10
(g14
S'\xd9 D>\x1ctO@'
p23
tp24
Rp25
ag10
(g14
S'6\x1e\x10\xd0OrO@'
p26
tp27
Rp28
ag10
(g14
S'|\xe0T\xbf\xc4uO@'
p29
tp30
Rp31
ag10
(g14
S'\xf8F\xc8\xd2\xf6}O@'
p32
tp33
Rp34
ag10
(g14
S'.t}\xb8[rO@'
p35
tp36
Rp37
ag10
(g14
S'.C\x9c=\xecyO@'
p38
tp39
Rp40
ag10
(g14
S'/d\xe1=8xO@'
p41
tp42
Rp43
ag10
(g14
S'9\t\xb4\x88-tO@'
p44
tp45
Rp46
ag10
(g14
S'\x9e1\xe0$&vO@'
p47
tp48
Rp49
ag10
(g14
S'\x82\x8fw\xf8yrO@'
p50
tp51
Rp52
ag10
(g14
S'\\\xe6\x06W\xa9yO@'
p53
tp54
Rp55
ag10
(g14
S'\xd6^\xa9\x8c0uO@'
p56
tp57
Rp58
ag10
(g14
S'2/\xf3f\x0cwO@'
p59
tp60
Rp61
ag10
(g14
S'\xe4\xaa\xac\xc6|zO@'
p62
tp63
Rp64
ag10
(g14
S'"`3\x05\x16vO@'
p65
tp66
Rp67
ag10
(g14
S'pqsi\xffwO@'
p68
tp69
Rp70
ag10
(g14
S'N("3<sO@'
p71
tp72
Rp73
ag10
(g14
S'\xc0M%\xf0\xcasO@'
p74
tp75
Rp76
asS'target'
p77
(lp78
g10
(g14
S',\xff76\x03-\x04@'
p79
tp80
Rp81
ag10
(g14
S'#\xa0\x0c\xe7\xbc\xb0\x0f@'
p82
tp83
Rp84
ag10
(g14
S'\xaextR\xe4\x00\xff?'
p85
tp86
Rp87
ag10
(g14
S'\xb9\x8c\x82\x8f+P\xfd?'
p88
tp89
Rp90
ag10
(g14
S'b\xadJ4\xec\x97\x01@'
p91
tp92
Rp93
ag10
(g14
S'5\xcb<#\x7fY\xff?'
p94
tp95
Rp96
ag10
(g14
S'VI"\x95C]\x01@'
p97
tp98
Rp99
ag10
(g14
S'sj\xc7x\xb4B\xff?'
p100
tp101
Rp102
ag10
(g14
S'\xdb%\x9b\xd5t&\xfd?'
p103
tp104
Rp105
ag10
(g14
S'D\x00>_\xec\xb9\x05@'
p106
tp107
Rp108
ag10
(g14
S'\xbf\x8fv\xca]t\xff?'
p109
tp110
Rp111
ag10
(g14
S'\x03P\xd6\n\xf5\xb7\xff?'
p112
tp113
Rp114
ag10
(g14
S';\x02\xe3\xa9S^\x07@'
p115
tp116
Rp117
ag10
(g14
S'[,LG\x89\xe8\x00@'
p118
tp119
Rp120
ag10
(g14
S'\xbc\x94/8\x8d3\xfe?'
p121
tp122
Rp123
ag10
(g14
S'"\x8cr|\xbaW\x00@'
p124
tp125
Rp126
ag10
(g14
S'B\x9a\x15\xc0\x11\x05\xff?'
p127
tp128
Rp129
ag10
(g14
S'\x97\xdb4%\xc3\x1b\x00@'
p130
tp131
Rp132
ag10
(g14
S'\xa3\x13\xa0\xfa^\\\t@'
p133
tp134
Rp135
ag10
(g14
S'\x87\x1a\x89\xaa`&\xff?'
p136
tp137
Rp138
asssss.