(dp0
S'../Data/sqlite_7.csv'
p1
(dp2
S'../Data/sqlite_96.csv'
p3
(dp4
F0.15
(dp5
S'mmre'
p6
(dp7
S'bellwether'
p8
(lp9
cnumpy.core.multiarray
scalar
p10
(cnumpy
dtype
p11
(S'f8'
p12
I0
I1
tp13
Rp14
(I3
S'<'
p15
NNNI-1
I-1
I0
tp16
bS'n\xbd\xbaD\xbe:R@'
p17
tp18
Rp19
ag10
(g14
S'\xceQb\x01\xb2-R@'
p20
tp21
Rp22
ag10
(g14
S'$!\xf6\xafJ3R@'
p23
tp24
Rp25
ag10
(g14
S'\x98\x1c\x92\xa7\x085R@'
p26
tp27
Rp28
ag10
(g14
S'*\xaaV\xd9$9R@'
p29
tp30
Rp31
ag10
(g14
S':\x14\xb9\xedn,R@'
p32
tp33
Rp34
ag10
(g14
S'\xa2\xb3\xec\x98)2R@'
p35
tp36
Rp37
ag10
(g14
S'\xc6\xb25\x80\xf4-R@'
p38
tp39
Rp40
ag10
(g14
S'sXe\x93o9R@'
p41
tp42
Rp43
ag10
(g14
S'<\xad\xd2\xd2b;R@'
p44
tp45
Rp46
ag10
(g14
S'\xe4\x7f\xaa\x1d|:R@'
p47
tp48
Rp49
ag10
(g14
S'b\x90\x06\x8d\xf78R@'
p50
tp51
Rp52
ag10
(g14
S'\x99\xfb\x83>T)R@'
p53
tp54
Rp55
ag10
(g14
S'\xa0\xa6\x8f\xf3\xb57R@'
p56
tp57
Rp58
ag10
(g14
S'B\xa9\x1e\nV1R@'
p59
tp60
Rp61
ag10
(g14
S'-\xbc\xde:E4R@'
p62
tp63
Rp64
ag10
(g14
S'c\xa0\xd7\xc7\xbd;R@'
p65
tp66
Rp67
ag10
(g14
S'\xfa\r 5\xae7R@'
p68
tp69
Rp70
ag10
(g14
S'\x11V\x0b\x14\xd1-R@'
p71
tp72
Rp73
ag10
(g14
S'\x00\xce\xa7\xd2*9R@'
p74
tp75
Rp76
asS'target'
p77
(lp78
g10
(g14
S'\xa0\xcbr\x1e\xf2\x03H@'
p79
tp80
Rp81
ag10
(g14
S'U\xffo@\x03tZ@'
p82
tp83
Rp84
ag10
(g14
S'\xec0\x89i\xfc\x19Q@'
p85
tp86
Rp87
ag10
(g14
S'B\xda\xe11-bX@'
p88
tp89
Rp90
ag10
(g14
S'\x90\xe9\x8b\x10\xa6\x9aV@'
p91
tp92
Rp93
ag10
(g14
S'-o\x12f\xabHc@'
p94
tp95
Rp96
ag10
(g14
S'Lo4*\x98>U@'
p97
tp98
Rp99
ag10
(g14
S'\xab\xba\xf1a\xb9cc@'
p100
tp101
Rp102
ag10
(g14
S'\xff\x94\x86\xed\xaaVL@'
p103
tp104
Rp105
ag10
(g14
S'\xdcb|\x00\x11uP@'
p106
tp107
Rp108
ag10
(g14
S'O\x95a\x1a\xcb^K@'
p109
tp110
Rp111
ag10
(g14
S'\x9a\x1c\xc2KC\xe2Q@'
p112
tp113
Rp114
ag10
(g14
S'\xc9B%\xe3xY]@'
p115
tp116
Rp117
ag10
(g14
S'6\xf7Bk3QR@'
p118
tp119
Rp120
ag10
(g14
S'RSv\xb4.\xb3T@'
p121
tp122
Rp123
ag10
(g14
S' \xb32>\xa9\xe1b@'
p124
tp125
Rp126
ag10
(g14
S'\xf1Ud\x19\xda\x12Z@'
p127
tp128
Rp129
ag10
(g14
S'\xad\x13\x8b\xe6*pE@'
p130
tp131
Rp132
ag10
(g14
S'\xfa_\xefqR\xcfa@'
p133
tp134
Rp135
ag10
(g14
S'Z\x9aX\xc7\xd6\xefP@'
p136
tp137
Rp138
asssss.