(dp0
S'../Data/sqlite_64.csv'
p1
(dp2
S'../Data/sqlite_88.csv'
p3
(dp4
F0.3
(dp5
S'abs_res'
p6
(dp7
S'bellwether'
p8
(lp9
cnumpy.core.multiarray
scalar
p10
(cnumpy
dtype
p11
(S'f8'
p12
I0
I1
tp13
Rp14
(I3
S'<'
p15
NNNI-1
I-1
I0
tp16
bS'\x9c\xb5:b\xb8?_A'
p17
tp18
Rp19
ag10
(g14
S'\x92PF7F\xe9^A'
p20
tp21
Rp22
ag10
(g14
S'.\\\x8f&7\x18_A'
p23
tp24
Rp25
ag10
(g14
S'\xce"\xdb5\xfd%_A'
p26
tp27
Rp28
ag10
(g14
S'V\xffFT\xc4\xe5^A'
p29
tp30
Rp31
ag10
(g14
S'\xa0\xe2\xec\x93\xde0_A'
p32
tp33
Rp34
ag10
(g14
S'/\x89Ad\xed\xe0^A'
p35
tp36
Rp37
ag10
(g14
S'gff6g\r_A'
p38
tp39
Rp40
ag10
(g14
S'\x1fK~\x99\xeb\\_A'
p41
tp42
Rp43
ag10
(g14
S'\xf1\x19v\x19l&_A'
p44
tp45
Rp46
ag10
(g14
S'\x8f\xde\x96\x91\xcb\x0b_A'
p47
tp48
Rp49
ag10
(g14
S'%iJ\x99Q\xf1^A'
p50
tp51
Rp52
ag10
(g14
S'B\n\xd7\xabY\x1c_A'
p53
tp54
Rp55
ag10
(g14
S']\xad\x8e\x95\x88\xfa^A'
p56
tp57
Rp58
ag10
(g14
S"\xac)\x15O\r'_A"
p59
tp60
Rp61
ag10
(g14
S'=\n\xd7\x8b\xec\xe6^A'
p62
tp63
Rp64
ag10
(g14
S'\xae\x1cZ\x1c\xc7\x1c_A'
p65
tp66
Rp67
ag10
(g14
S'\x12\x02+#dk_A'
p68
tp69
Rp70
ag10
(g14
S'+\xf7\x9a\xfb\xcb-_A'
p71
tp72
Rp73
ag10
(g14
S"'\xbfXfz(_A"
p74
tp75
Rp76
asS'target'
p77
(lp78
g10
(g14
S'\x8b\xc2\xf5(#"-A'
p79
tp80
Rp81
ag10
(g14
S'\x11\xaeG\xe1\x1d\xd30A'
p82
tp83
Rp84
ag10
(g14
S'%\\\x8f\xc2}S-A'
p85
tp86
Rp87
ag10
(g14
S'dff\xa6<03A'
p88
tp89
Rp90
ag10
(g14
S'\xf3(\\\x0f\xb2\xca.A'
p91
tp92
Rp93
ag10
(g14
S'M\xb8\x1eEz\x7f3A'
p94
tp95
Rp96
ag10
(g14
S'3333\x97`&A'
p97
tp98
Rp99
ag10
(g14
S'\x1a\x85\xeb\xd1\xb4r,A'
p100
tp101
Rp102
ag10
(g14
S'\x9a\x99\x99\x190\xf61A'
p103
tp104
Rp105
ag10
(g14
S'\xc2\xf5(\xdc\r\x001A'
p106
tp107
Rp108
ag10
(g14
S'p=\n\xd7[z+A'
p109
tp110
Rp111
ag10
(g14
S'O\xb8\x1eE\xb550A'
p112
tp113
Rp114
ag10
(g14
S'2333\xa5\xe9,A'
p115
tp116
Rp117
ag10
(g14
S'\x84\xebQ\xb8\xa3/4A'
p118
tp119
Rp120
ag10
(g14
S'\x9a\x99\x99\x99\xe8k0A'
p121
tp122
Rp123
ag10
(g14
S'{\x14\xae\x87\x1dm1A'
p124
tp125
Rp126
ag10
(g14
S'=\n\xd7#f\xac0A'
p127
tp128
Rp129
ag10
(g14
S'\xebQ\xb8^\x8b\xc43A'
p130
tp131
Rp132
ag10
(g14
S'z\x14\xae\x87\xa9\xc62A'
p133
tp134
Rp135
ag10
(g14
S"S\xb8\x1e\x05\x0b\x9d'A"
p136
tp137
Rp138
asssss.