(dp0
S'../Data/sqlite_57.csv'
p1
(dp2
S'../Data/sqlite_6.csv'
p3
(dp4
F0.4
(dp5
S'abs_res'
p6
(dp7
S'bellwether'
p8
(lp9
cnumpy.core.multiarray
scalar
p10
(cnumpy
dtype
p11
(S'f8'
p12
I0
I1
tp13
Rp14
(I3
S'<'
p15
NNNI-1
I-1
I0
tp16
bS'\xc2\x9f\x1a3\xa5vaA'
p17
tp18
Rp19
ag10
(g14
S'9\n\xd7_\x9dnaA'
p20
tp21
Rp22
ag10
(g14
S'\xdfz\x14\xa6ZzaA'
p23
tp24
Rp25
ag10
(g14
S'\xa3E\xb6c\xadsaA'
p26
tp27
Rp28
ag10
(g14
S'X\x0e-2\xaepaA'
p29
tp30
Rp31
ag10
(g14
S'\x0c\x02+KmfaA'
p32
tp33
Rp34
ag10
(g14
S'K\xb6\xf3\x11\xcfnaA'
p35
tp36
Rp37
ag10
(g14
S'\x01+\x87\xc2bsaA'
p38
tp39
Rp40
ag10
(g14
S'\xfe\xa9\xf1\xb6-qaA'
p41
tp42
Rp43
ag10
(g14
S'<\x89A\x18\x83jaA'
p44
tp45
Rp46
ag10
(g14
S'\xf6\xfd\xd4\xd4JuaA'
p47
tp48
Rp49
ag10
(g14
S'{\x14\xaeWZ{aA'
p50
tp51
Rp52
ag10
(g14
S'\xad\xc6Kc\x86paA'
p53
tp54
Rp55
ag10
(g14
S'\x92\xc2\xf58(paA'
p56
tp57
Rp58
ag10
(g14
S'\xd1Mb\xfc\xc2uaA'
p59
tp60
Rp61
ag10
(g14
S'\\\x8f\xc2\xe5\xfaxaA'
p62
tp63
Rp64
ag10
(g14
S'\x9f\xef\xa7\x8a|saA'
p65
tp66
Rp67
ag10
(g14
S'f\xbaIld\x81aA'
p68
tp69
Rp70
ag10
(g14
S'\xcd"\xdb\xd5\xcboaA'
p71
tp72
Rp73
ag10
(g14
S'i=\n\xb7\x98waA'
p74
tp75
Rp76
asS'target'
p77
(lp78
g10
(g14
S'\xfe~j\xbct[i@'
p79
tp80
Rp81
ag10
(g14
S'\x9b\x1a/\xdd$\xbcj@'
p82
tp83
Rp84
ag10
(g14
S'$\xdb\xf9~jNj@'
p85
tp86
Rp87
ag10
(g14
S'\\d;\xdfO\xa9h@'
p88
tp89
Rp90
ag10
(g14
S'\xc6 \xb0rhEi@'
p91
tp92
Rp93
ag10
(g14
S'\xf4\xa7\xc6K7_k@'
p94
tp95
Rp96
ag10
(g14
S'Vd;\xdfO\xc1h@'
p97
tp98
Rp99
ag10
(g14
S'\x82j\xbct\x93\x88i@'
p100
tp101
Rp102
ag10
(g14
S' \x85\xebQ\xb8\xf6i@'
p103
tp104
Rp105
ag10
(g14
S'\x10\xd7\xa3p=zh@'
p106
tp107
Rp108
ag10
(g14
S'\x92\x18\x04V\x0e\x83j@'
p109
tp110
Rp111
ag10
(g14
S'\xcat\x93\x18\x04Ni@'
p112
tp113
Rp114
ag10
(g14
S'N\xb8\x1e\x85\xeb\xf5j@'
p115
tp116
Rp117
ag10
(g14
S'#\xb0rh\x91\x81j@'
p118
tp119
Rp120
ag10
(g14
S'\xac\xc6K7\x89\xe9h@'
p121
tp122
Rp123
ag10
(g14
S'\xab\xc8v\xbe\x9f\x1cj@'
p124
tp125
Rp126
ag10
(g14
S'\xf1\xa7\xc6K7Mk@'
p127
tp128
Rp129
ag10
(g14
S';\xb4\xc8v\xbe\xdfk@'
p130
tp131
Rp132
ag10
(g14
S'r\xe7\xfb\xa9\xf1zi@'
p133
tp134
Rp135
ag10
(g14
S'\xd1\xcc\xcc\xcc\xccZi@'
p136
tp137
Rp138
asssss.