(dp0
S'../Data/sqlite_61.csv'
p1
(dp2
S'../Data/sqlite_97.csv'
p3
(dp4
F0.3
(dp5
S'mmre'
p6
(dp7
S'bellwether'
p8
(lp9
cnumpy.core.multiarray
scalar
p10
(cnumpy
dtype
p11
(S'f8'
p12
I0
I1
tp13
Rp14
(I3
S'<'
p15
NNNI-1
I-1
I0
tp16
bS'\x12IE/4\x89R@'
p17
tp18
Rp19
ag10
(g14
S'\xec\xcf9\x1e\r\x80R@'
p20
tp21
Rp22
ag10
(g14
S'\xe7\xb7\x8e\xa7\xfcwR@'
p23
tp24
Rp25
ag10
(g14
S'M\xf4TfzuR@'
p26
tp27
Rp28
ag10
(g14
S'\x83\xb7P\xc1){R@'
p29
tp30
Rp31
ag10
(g14
S'\xf6\xc3\xb7\x00[}R@'
p32
tp33
Rp34
ag10
(g14
S'O)KzZkR@'
p35
tp36
Rp37
ag10
(g14
S'E1\x93\n\xbc\x91R@'
p38
tp39
Rp40
ag10
(g14
S'\xa8{\xc1\xa3\x9e\x84R@'
p41
tp42
Rp43
ag10
(g14
S'\xec\xe5\xaf8\xdb\x80R@'
p44
tp45
Rp46
ag10
(g14
S'\xfeA\xf2|\x0b\x8dR@'
p47
tp48
Rp49
ag10
(g14
S'\x81\xd2uj\xddhR@'
p50
tp51
Rp52
ag10
(g14
S'[}\x07\xdb\x06\x80R@'
p53
tp54
Rp55
ag10
(g14
S'e;\x8d\xc6\x10sR@'
p56
tp57
Rp58
ag10
(g14
S'H\xec&Sy\x87R@'
p59
tp60
Rp61
ag10
(g14
S'\xe8\xc2}B\x8c\x81R@'
p62
tp63
Rp64
ag10
(g14
S'\xeeW\xfb\xa7\x98\x88R@'
p65
tp66
Rp67
ag10
(g14
S"'\xda\xff\xa80xR@"
p68
tp69
Rp70
ag10
(g14
S'TFT\x95KzR@'
p71
tp72
Rp73
ag10
(g14
S'47\x8f\x98T}R@'
p74
tp75
Rp76
asS'target'
p77
(lp78
g10
(g14
S'\xb9\xaa&p\xf8"X@'
p79
tp80
Rp81
ag10
(g14
S'4\x05n \x1esW@'
p82
tp83
Rp84
ag10
(g14
S'O\xb2F\xfd\xee5S@'
p85
tp86
Rp87
ag10
(g14
S'\xba\xc4*\xaf\x11b\\@'
p88
tp89
Rp90
ag10
(g14
S'\xd0x\xe9\x13|XS@'
p91
tp92
Rp93
ag10
(g14
S'|\xd3\xfb\xd8F\xc6T@'
p94
tp95
Rp96
ag10
(g14
S'\x8egXU\xfaiU@'
p97
tp98
Rp99
ag10
(g14
S'[\xda )\x9dAK@'
p100
tp101
Rp102
ag10
(g14
S'C\xb9n\x8aq\xb0T@'
p103
tp104
Rp105
ag10
(g14
S'3\x98\x8dWUXL@'
p106
tp107
Rp108
ag10
(g14
S'\x9e\x10\x96\xbeF.T@'
p109
tp110
Rp111
ag10
(g14
S'\x8b\xcd\xe5\xd8\xf1\xe3W@'
p112
tp113
Rp114
ag10
(g14
S'\x1e\xaft\xf5f7L@'
p115
tp116
Rp117
ag10
(g14
S'\x1b)\x96Ou\xc4^@'
p118
tp119
Rp120
ag10
(g14
S'?kO\xbd\xc9TN@'
p121
tp122
Rp123
ag10
(g14
S'\x83\xdc\xfb\xb0h<U@'
p124
tp125
Rp126
ag10
(g14
S'\xb3\xf1\x9a4U\n[@'
p127
tp128
Rp129
ag10
(g14
S'\x9b\xa1JS\xda\xccQ@'
p130
tp131
Rp132
ag10
(g14
S'\xc9\x0b,\xb9\n\xb4^@'
p133
tp134
Rp135
ag10
(g14
S'o\x90~\xbb`\x1dS@'
p136
tp137
Rp138
asssss.