(dp0
S'../Data/sqlite_15.csv'
p1
(dp2
S'../Data/sqlite_6.csv'
p3
(dp4
F0.25
(dp5
S'abs_res'
p6
(dp7
S'bellwether'
p8
(lp9
cnumpy.core.multiarray
scalar
p10
(cnumpy
dtype
p11
(S'f8'
p12
I0
I1
tp13
Rp14
(I3
S'<'
p15
NNNI-1
I-1
I0
tp16
bS'\x88\xb3\x0f\xdf\x83h<A'
p17
tp18
Rp19
ag10
(g14
S'\xfc(\\/Qh<A'
p20
tp21
Rp22
ag10
(g14
S'\xd3x\xe9F\xffh<A'
p23
tp24
Rp25
ag10
(g14
S'_d;\xffYh<A'
p26
tp27
Rp28
ag10
(g14
S'+\x87\x169\xffg<A'
p29
tp30
Rp31
ag10
(g14
S'\x93\x99\x99\xd9dh<A'
p32
tp33
Rp34
ag10
(g14
S'g\x842\xbadh<A'
p35
tp36
Rp37
ag10
(g14
S'd\xc9/\x96\xb8f<A'
p38
tp39
Rp40
ag10
(g14
S'\x85A`\x85\xf9g<A'
p41
tp42
Rp43
ag10
(g14
S'\x8d\xc2\xf5\xe8Mh<A'
p44
tp45
Rp46
ag10
(g14
S'\xdd\xa3p\xdd\xfff<A'
p47
tp48
Rp49
ag10
(g14
S'%\xb2\x9d\x8f\x1ei<A'
p50
tp51
Rp52
ag10
(g14
S'\x83\x16\xd9\xaeBi<A'
p53
tp54
Rp55
ag10
(g14
S'l\xe7\xfb\t\xb2g<A'
p56
tp57
Rp58
ag10
(g14
S'\xdf\x17K\xbe>h<A'
p59
tp60
Rp61
ag10
(g14
S'U\xd4\xbf\xf1\x13h<A'
p62
tp63
Rp64
ag10
(g14
S'\xceZ\x1d\xf3\xc1f<A'
p65
tp66
Rp67
ag10
(g14
S'%\xb0rH\xe3f<A'
p68
tp69
Rp70
ag10
(g14
S't=\nWyh<A'
p71
tp72
Rp73
ag10
(g14
S'\x80\xebQ\xd8>i<A'
p74
tp75
Rp76
asS'target'
p77
(lp78
g10
(g14
S'X\xe3\xa5\x9b\xc4\xd0p@'
p79
tp80
Rp81
ag10
(g14
S'\x9e\xc4 \xb0r\x10q@'
p82
tp83
Rp84
ag10
(g14
S'\xd3"\xdb\xf9~\x05p@'
p85
tp86
Rp87
ag10
(g14
S'\x8dA`\xe5\xd0Zp@'
p88
tp89
Rp90
ag10
(g14
S'J7\x89A`\xc4p@'
p91
tp92
Rp93
ag10
(g14
S'\xf3\xd2Mb\x10\xa2o@'
p94
tp95
Rp96
ag10
(g14
S'\xed\xa7\xc6K7\x81p@'
p97
tp98
Rp99
ag10
(g14
S'\xa7\x1a/\xdd$<p@'
p100
tp101
Rp102
ag10
(g14
S'\xb0rh\x91\xed\xd0p@'
p103
tp104
Rp105
ag10
(g14
S'\xbd\x9f\x1a/\xddZn@'
p106
tp107
Rp108
ag10
(g14
S'lffff~q@'
p109
tp110
Rp111
ag10
(g14
S'O7\x89A`\x11p@'
p112
tp113
Rp114
ag10
(g14
S'\xd0"\xdb\xf9~\x80q@'
p115
tp116
Rp117
ag10
(g14
S'\xf0\xfd\xd4x\xe9\x04p@'
p118
tp119
Rp120
ag10
(g14
S'f;\xdfO\x8d{p@'
p121
tp122
Rp123
ag10
(g14
S'\x88A`\xe5\xd0\x06q@'
p124
tp125
Rp126
ag10
(g14
S'p\xbe\x9f\x1a/\x82p@'
p127
tp128
Rp129
ag10
(g14
S'\xe9\xfb\xa9\xf1\xd2\xe5o@'
p130
tp131
Rp132
ag10
(g14
S'J7\x89A`\xd1o@'
p133
tp134
Rp135
ag10
(g14
S'*\\\x8f\xc2\xf5@p@'
p136
tp137
Rp138
asssss.