(dp0
S'../Data/sqlite_57.csv'
p1
(dp2
S'../Data/sqlite_8.csv'
p3
(dp4
F0.1
(dp5
S'abs_res'
p6
(dp7
S'bellwether'
p8
(lp9
cnumpy.core.multiarray
scalar
p10
(cnumpy
dtype
p11
(S'f8'
p12
I0
I1
tp13
Rp14
(I3
S'<'
p15
NNNI-1
I-1
I0
tp16
bS'Z\xe5\xd0\xaas>jA'
p17
tp18
Rp19
ag10
(g14
S'\xd0K7\xf5\xd11jA'
p20
tp21
Rp22
ag10
(g14
S'\xbd\xf5(T 8jA'
p23
tp24
Rp25
ag10
(g14
S'\xa6p=\xca\x898jA'
p26
tp27
Rp28
ag10
(g14
S'\xfe\xff\xff\xf7<3jA'
p29
tp30
Rp31
ag10
(g14
S'\xf5\xd2M\xba%:jA'
p32
tp33
Rp34
ag10
(g14
S'dd;\xeb\x0b4jA'
p35
tp36
Rp37
ag10
(g14
S'\xc6\xf5(\x08\x100jA'
p38
tp39
Rp40
ag10
(g14
S'r\x91\xed\xc0\x824jA'
p41
tp42
Rp43
ag10
(g14
S'+\\\x8f\xe6\xa1-jA'
p44
tp45
Rp46
ag10
(g14
S'\\\xe3\xa5K\xf82jA'
p47
tp48
Rp49
ag10
(g14
S'|\xe9&\xe1~-jA'
p50
tp51
Rp52
ag10
(g14
S'\xf2\xfd\xd4\xd8\xf94jA'
p53
tp54
Rp55
ag10
(g14
S'\xa2p=NZ8jA'
p56
tp57
Rp58
ag10
(g14
S'\xc7v\xbe\x8b<,jA'
p59
tp60
Rp61
ag10
(g14
S'\xa4E\xb6\x0f\xf88jA'
p62
tp63
Rp64
ag10
(g14
S'+\x06\x81\x81l3jA'
p65
tp66
Rp67
ag10
(g14
S'\x15\xd9\xce3\xb13jA'
p68
tp69
Rp70
ag10
(g14
S'\xb6\x9d\xef[\x175jA'
p71
tp72
Rp73
ag10
(g14
S'\x91\x97n\x02\x91-jA'
p74
tp75
Rp76
asS'target'
p77
(lp78
g10
(g14
S'>\x89A`\xe5\x10Y@'
p79
tp80
Rp81
ag10
(g14
S'\xea\xfb\xa9\xf1\xd2\xbd]@'
p82
tp83
Rp84
ag10
(g14
S'\x86\x95C\x8bl\xf7_@'
p85
tp86
Rp87
ag10
(g14
S'\xfe*\x87\x16\xd9\x16\\@'
p88
tp89
Rp90
ag10
(g14
S'gffff\x96[@'
p91
tp92
Rp93
ag10
(g14
S'S\xb8\x1e\x85\xeb\xcdc@'
p94
tp95
Rp96
ag10
(g14
S'\xdc"\xdb\xf9~\x9a[@'
p97
tp98
Rp99
ag10
(g14
S'\xa6\x99\x99\x99\x99\xd9[@'
p100
tp101
Rp102
ag10
(g14
S'\xf0Q\xb8\x1e\x853Y@'
p103
tp104
Rp105
ag10
(g14
S'7\x89A`\xe5\xc4a@'
p106
tp107
Rp108
ag10
(g14
S'd\x10X9\xb4\x08_@'
p109
tp110
Rp111
ag10
(g14
S'\x06\xd7\xa3p=J\\@'
p112
tp113
Rp114
ag10
(g14
S'=\n\xd7\xa3p\xe9Y@'
p115
tp116
Rp117
ag10
(g14
S'\x1e\x04V\x0e-\xfa`@'
p118
tp119
Rp120
ag10
(g14
S'-\xdb\xf9~j<^@'
p121
tp122
Rp123
ag10
(g14
S'\x13\xaeG\xe1zL_@'
p124
tp125
Rp126
ag10
(g14
S'\xa0n\x12\x83\xc0:\\@'
p127
tp128
Rp129
ag10
(g14
S'73333[Z@'
p130
tp131
Rp132
ag10
(g14
S'@\n\xd7\xa3p\r]@'
p133
tp134
Rp135
ag10
(g14
S'\xd4\xce\xf7S\xe3\xadZ@'
p136
tp137
Rp138
asssss.