(dp0
S'../Data/sqlite_34.csv'
p1
(dp2
S'../Data/sqlite_73.csv'
p3
(dp4
F0.2
(dp5
S'mmre'
p6
(dp7
S'bellwether'
p8
(lp9
cnumpy.core.multiarray
scalar
p10
(cnumpy
dtype
p11
(S'f8'
p12
I0
I1
tp13
Rp14
(I3
S'<'
p15
NNNI-1
I-1
I0
tp16
bS'\xda\xe2\xdb\x82f5A@'
p17
tp18
Rp19
ag10
(g14
S'\xe4"\x92\xdf\xf7%A@'
p20
tp21
Rp22
ag10
(g14
S'o\x7f\x7fA\xf9;A@'
p23
tp24
Rp25
ag10
(g14
S'J\xa1\x8b\x87W5A@'
p26
tp27
Rp28
ag10
(g14
S'\x9a3\xe2\xbc\xf7>A@'
p29
tp30
Rp31
ag10
(g14
S'\x10\xa5\xb3C\x1e\x19A@'
p32
tp33
Rp34
ag10
(g14
S'w!Qu3XA@'
p35
tp36
Rp37
ag10
(g14
S'\x843\x83\xb1oTA@'
p38
tp39
Rp40
ag10
(g14
S'\xe6\x90\xcb\x88\xbfGA@'
p41
tp42
Rp43
ag10
(g14
S'VYG\x86\xed9A@'
p44
tp45
Rp46
ag10
(g14
S'z\xd2\xedC<?A@'
p47
tp48
Rp49
ag10
(g14
S'\x0c\xde\xa2\x02@EA@'
p50
tp51
Rp52
ag10
(g14
S'\xd0x\xe6OW@A@'
p53
tp54
Rp55
ag10
(g14
S'0$\xfee2LA@'
p56
tp57
Rp58
ag10
(g14
S'?\x02\\\xe5ELA@'
p59
tp60
Rp61
ag10
(g14
S'\xec*\x15cj:A@'
p62
tp63
Rp64
ag10
(g14
S'\xe2o\x19\x97 GA@'
p65
tp66
Rp67
ag10
(g14
S'\x1a\xb8\xec\x99\xcc>A@'
p68
tp69
Rp70
ag10
(g14
S'p\xa3rw(NA@'
p71
tp72
Rp73
ag10
(g14
S'\xd0@\x84X*/A@'
p74
tp75
Rp76
asS'target'
p77
(lp78
g10
(g14
S'\xf8\xfc\xf6\xcbO\xe8*@'
p79
tp80
Rp81
ag10
(g14
S'\xbc{\x8e\xfe\xa9}+@'
p82
tp83
Rp84
ag10
(g14
S'\xd6\xfc\x9eG\xcf\xb0,@'
p85
tp86
Rp87
ag10
(g14
S'\xe2)\xf6Rl\xea-@'
p88
tp89
Rp90
ag10
(g14
S'\xf9\x8c\xc7\xa9\xaf\xa1-@'
p91
tp92
Rp93
ag10
(g14
S',\xae)\x97\xd7e-@'
p94
tp95
Rp96
ag10
(g14
S'\xe8\xac\x92_\x07k,@'
p97
tp98
Rp99
ag10
(g14
S'^^p3\xd73+@'
p100
tp101
Rp102
ag10
(g14
S'\n\xc7\xfch\xe0\xae+@'
p103
tp104
Rp105
ag10
(g14
S'\x98\x03\xf6"\\\xe1,@'
p106
tp107
Rp108
ag10
(g14
S'\xc4Namc\xa1-@'
p109
tp110
Rp111
ag10
(g14
S'dn\x18\xcd\x86\x9c*@'
p112
tp113
Rp114
ag10
(g14
S'\nE\x16\x86\xc3Z,@'
p115
tp116
Rp117
ag10
(g14
S'2\x1a\xbb\x98\x7fL+@'
p118
tp119
Rp120
ag10
(g14
S'\x02\xa6i\xa9\x0c\xed*@'
p121
tp122
Rp123
ag10
(g14
S'\xb0L\xdf\x8c\x8a00@'
p124
tp125
Rp126
ag10
(g14
S'#;v\xd6P\xdb-@'
p127
tp128
Rp129
ag10
(g14
S'K\xbeVU*\xc4+@'
p130
tp131
Rp132
ag10
(g14
S'J\x0eQ\x12NB(@'
p133
tp134
Rp135
ag10
(g14
S'Z\xd6=heV,@'
p136
tp137
Rp138
asssss.