(dp0
S'../Data/sqlite_26.csv'
p1
(dp2
S'../Data/sqlite_59.csv'
p3
(dp4
F0.15
(dp5
S'mmre'
p6
(dp7
S'bellwether'
p8
(lp9
cnumpy.core.multiarray
scalar
p10
(cnumpy
dtype
p11
(S'f8'
p12
I0
I1
tp13
Rp14
(I3
S'<'
p15
NNNI-1
I-1
I0
tp16
bS'\x80O\xf8TH\x1fV@'
p17
tp18
Rp19
ag10
(g14
S'L\xe3\xe8\xf9G\xf3U@'
p20
tp21
Rp22
ag10
(g14
S'\xf1\xf8\xe9H\xac3V@'
p23
tp24
Rp25
ag10
(g14
S'\x93\x02\x8b\x07\xbbEV@'
p26
tp27
Rp28
ag10
(g14
S'\xef\xb0\t\xcd\xda!V@'
p29
tp30
Rp31
ag10
(g14
S'\xd5\x00L<\xf55V@'
p32
tp33
Rp34
ag10
(g14
S'\x11\x1c\x15\xc2b4V@'
p35
tp36
Rp37
ag10
(g14
S'Q\x16\x91\xb5\xa4"V@'
p38
tp39
Rp40
ag10
(g14
S'\x00\xfe?\xe6rBV@'
p41
tp42
Rp43
ag10
(g14
S'\x91\xfc\x18y":V@'
p44
tp45
Rp46
ag10
(g14
S'\xe4\xef@\x18\x9d1V@'
p47
tp48
Rp49
ag10
(g14
S'I3\x12\x05(1V@'
p50
tp51
Rp52
ag10
(g14
S'\xb4\xb5u\xc3\xb5AV@'
p53
tp54
Rp55
ag10
(g14
S'g\xd23\xf2\xef&V@'
p56
tp57
Rp58
ag10
(g14
S'\xf1\x01\xfe\x07\x9a/V@'
p59
tp60
Rp61
ag10
(g14
S'f(U\xa6\xfcIV@'
p62
tp63
Rp64
ag10
(g14
S'\x03\x81\xd5wz\x17V@'
p65
tp66
Rp67
ag10
(g14
S'{9\xfe\xc22#V@'
p68
tp69
Rp70
ag10
(g14
S'\n\x1bS\x80/6V@'
p71
tp72
Rp73
ag10
(g14
S'\xc9\xa8\xa2W\x97\x17V@'
p74
tp75
Rp76
asS'target'
p77
(lp78
g10
(g14
S"*Y\x9bH\xff'&@"
p79
tp80
Rp81
ag10
(g14
S'\x9b\x7fk\xc3r_%@'
p82
tp83
Rp84
ag10
(g14
S"\xd7\xea\xfb\x1a*o'@"
p85
tp86
Rp87
ag10
(g14
S'\x90d\xb6\xed\xf6\xeb&@'
p88
tp89
Rp90
ag10
(g14
S'\x0b\x8dH\x84^6&@'
p91
tp92
Rp93
ag10
(g14
S'm\xb2e\x1d\xebb%@'
p94
tp95
Rp96
ag10
(g14
S'\xf5\x13[\x88o!%@'
p97
tp98
Rp99
ag10
(g14
S'\xebc\xecs<C$@'
p100
tp101
Rp102
ag10
(g14
S'!\xac\x1c\xdc\x12t&@'
p103
tp104
Rp105
ag10
(g14
S"\x0b4\x03{5\xc8'@"
p106
tp107
Rp108
ag10
(g14
S'Z\xc6[C\xd01%@'
p109
tp110
Rp111
ag10
(g14
S'\xa0Q\xc3\x0bH\xd1&@'
p112
tp113
Rp114
ag10
(g14
S"Tw\xe2\x11\r&'@"
p115
tp116
Rp117
ag10
(g14
S'\xabH0$\xa44&@'
p118
tp119
Rp120
ag10
(g14
S'\xc5\r\x99[\xfaL%@'
p121
tp122
Rp123
ag10
(g14
S'8o]\xe0p^$@'
p124
tp125
Rp126
ag10
(g14
S'\x08\xf5UR\xac\xd0$@'
p127
tp128
Rp129
ag10
(g14
S'\xa0W\xf3Q\x06\xb1%@'
p130
tp131
Rp132
ag10
(g14
S'8 \xb5\x97s\xfb(@'
p133
tp134
Rp135
ag10
(g14
S'g\xc1\xbafKx%@'
p136
tp137
Rp138
asssss.