(dp0
S'../Data/sqlite_93.csv'
p1
(dp2
S'../Data/sqlite_76.csv'
p3
(dp4
F0.4
(dp5
S'mmre'
p6
(dp7
S'bellwether'
p8
(lp9
cnumpy.core.multiarray
scalar
p10
(cnumpy
dtype
p11
(S'f8'
p12
I0
I1
tp13
Rp14
(I3
S'<'
p15
NNNI-1
I-1
I0
tp16
bS'\xda\x81\x08G\xc6]W@'
p17
tp18
Rp19
ag10
(g14
S'Zp\x85p\x8dDW@'
p20
tp21
Rp22
ag10
(g14
S'X\xa0\x81\x945OW@'
p23
tp24
Rp25
ag10
(g14
S'WB\x1c}]FW@'
p26
tp27
Rp28
ag10
(g14
S'\xe7\xd0`\x04\x89bW@'
p29
tp30
Rp31
ag10
(g14
S'\x00\xe2*\xc02LW@'
p32
tp33
Rp34
ag10
(g14
S'\x1f\x020\\\xa7TW@'
p35
tp36
Rp37
ag10
(g14
S'\xbe\x7f\xf5\x8a\xb0TW@'
p38
tp39
Rp40
ag10
(g14
S'U\x94\x90\xaaLJW@'
p41
tp42
Rp43
ag10
(g14
S'HK\r2\xdcLW@'
p44
tp45
Rp46
ag10
(g14
S'\xc7]\xbcm\x9ajW@'
p47
tp48
Rp49
ag10
(g14
S'\xabaBE\x14JW@'
p50
tp51
Rp52
ag10
(g14
S'A\x0c(\xc2~_W@'
p53
tp54
Rp55
ag10
(g14
S'\x99\tj\xb1\xdbNW@'
p56
tp57
Rp58
ag10
(g14
S'\x8d\xb0@\x1e\xb0jW@'
p59
tp60
Rp61
ag10
(g14
S'8\xcb\r\xfdBOW@'
p62
tp63
Rp64
ag10
(g14
S'\x9c\x97\x88RFRW@'
p65
tp66
Rp67
ag10
(g14
S'8\xb8\xa8p\xc8ZW@'
p68
tp69
Rp70
ag10
(g14
S'\xeb\x80\x04k\x97]W@'
p71
tp72
Rp73
ag10
(g14
S'(r\r\xabJEW@'
p74
tp75
Rp76
asS'target'
p77
(lp78
g10
(g14
S'k\x89\x8chV\xa61@'
p79
tp80
Rp81
ag10
(g14
S'\x9d\xdcD\x95\xe7\x8f1@'
p82
tp83
Rp84
ag10
(g14
S'Q\x03>\x9d~\xab0@'
p85
tp86
Rp87
ag10
(g14
S'i\x0f@\x87\xcd\xbc1@'
p88
tp89
Rp90
ag10
(g14
S'7Y\xb6\x80`\x1b2@'
p91
tp92
Rp93
ag10
(g14
S'7F\xf7\xf0\xe012@'
p94
tp95
Rp96
ag10
(g14
S'\xfb\xb8 \xf0hD1@'
p97
tp98
Rp99
ag10
(g14
S'5\xb6~\x08!p1@'
p100
tp101
Rp102
ag10
(g14
S'9\xd8Q\xbd\t\xf31@'
p103
tp104
Rp105
ag10
(g14
S'\xce!g;\xe8\x041@'
p106
tp107
Rp108
ag10
(g14
S'\xae\xdd\xcd\r\x18\xdb1@'
p109
tp110
Rp111
ag10
(g14
S'\xd7\x1e\x92\x1d\xb9D2@'
p112
tp113
Rp114
ag10
(g14
S'}\xcd\x8d\x8fsy2@'
p115
tp116
Rp117
ag10
(g14
S'T\xf4\xee\xa3b\xf71@'
p118
tp119
Rp120
ag10
(g14
S'-=d\x0f\x9e\x801@'
p121
tp122
Rp123
ag10
(g14
S'\xc8\xba\x0b\xfa\xbb\xd00@'
p124
tp125
Rp126
ag10
(g14
S'\xdd\xeda\xb8\x7f\xd20@'
p127
tp128
Rp129
ag10
(g14
S'\x9cD\x91\xaa\x05\x1c0@'
p130
tp131
Rp132
ag10
(g14
S'n\x02\xe5\xed\xb2P1@'
p133
tp134
Rp135
ag10
(g14
S'\x05;\xdc\xfcP\xa10@'
p136
tp137
Rp138
asssss.