(dp0
S'../Data/sqlite_8.csv'
p1
(dp2
S'../Data/sqlite_76.csv'
p3
(dp4
F0.15
(dp5
S'mmre'
p6
(dp7
S'bellwether'
p8
(lp9
cnumpy.core.multiarray
scalar
p10
(cnumpy
dtype
p11
(S'f8'
p12
I0
I1
tp13
Rp14
(I3
S'<'
p15
NNNI-1
I-1
I0
tp16
bS'\xd7w\xc3J1AV@'
p17
tp18
Rp19
ag10
(g14
S'd\xdbt\x1dGDV@'
p20
tp21
Rp22
ag10
(g14
S'\xbc\xe6;\xe3\xf3@V@'
p23
tp24
Rp25
ag10
(g14
S'\xc2\xb7\xfe\x84\xb2BV@'
p26
tp27
Rp28
ag10
(g14
S'\x1e9\xe6\x140DV@'
p29
tp30
Rp31
ag10
(g14
S'\xe9\xee\xa8\x81:DV@'
p32
tp33
Rp34
ag10
(g14
S's\xf5\x98\x92\xcdAV@'
p35
tp36
Rp37
ag10
(g14
S'\x19\xcfk\xe3\xfeBV@'
p38
tp39
Rp40
ag10
(g14
S'p\xdeD\x93fBV@'
p41
tp42
Rp43
ag10
(g14
S'"\x16{pEAV@'
p44
tp45
Rp46
ag10
(g14
S'S~\xd8\xffeDV@'
p47
tp48
Rp49
ag10
(g14
S'\x8f&\xf1#~DV@'
p50
tp51
Rp52
ag10
(g14
S'X\xfez|\x9fDV@'
p53
tp54
Rp55
ag10
(g14
S'O6\xc1\x05\xa0BV@'
p56
tp57
Rp58
ag10
(g14
S'(#\xf7\xa5\x8aAV@'
p59
tp60
Rp61
ag10
(g14
S'\x0cY\x91\xc8\x8cBV@'
p62
tp63
Rp64
ag10
(g14
S'\xaf\x1eCm\x07CV@'
p65
tp66
Rp67
ag10
(g14
S'\xefb\xd8f\xa9AV@'
p68
tp69
Rp70
ag10
(g14
S'\xb6\xcd\t\x1e\xd8CV@'
p71
tp72
Rp73
ag10
(g14
S':\x1ec\xe57AV@'
p74
tp75
Rp76
asS'target'
p77
(lp78
g10
(g14
S'sb\x1e\xac\xe8\xfb2@'
p79
tp80
Rp81
ag10
(g14
S'\xd7\xb5\xf82\xfd\x971@'
p82
tp83
Rp84
ag10
(g14
S',\xd9\xdc\xfa|,1@'
p85
tp86
Rp87
ag10
(g14
S'\\\x1d\x1a\xec\xb1b1@'
p88
tp89
Rp90
ag10
(g14
S'\xd4iO\x15\x92\x142@'
p91
tp92
Rp93
ag10
(g14
S'D\x86\xbfy\x81\xf30@'
p94
tp95
Rp96
ag10
(g14
S'r\x91 \x83HA0@'
p97
tp98
Rp99
ag10
(g14
S'y@\xa1\x98\xc3T0@'
p100
tp101
Rp102
ag10
(g14
S'\x0c:\xdc\x8bL\xc22@'
p103
tp104
Rp105
ag10
(g14
S'\x8c\xff0\x90M\xc11@'
p106
tp107
Rp108
ag10
(g14
S'\xd1\x19\x98)\x9672@'
p109
tp110
Rp111
ag10
(g14
S'O\xc9&\xd5=,/@'
p112
tp113
Rp114
ag10
(g14
S"z[1'x\xbf0@"
p115
tp116
Rp117
ag10
(g14
S'~\n\xaa\xa0k;2@'
p118
tp119
Rp120
ag10
(g14
S'\xf3\xfav\xd6\xb4D0@'
p121
tp122
Rp123
ag10
(g14
S'\xae\xc6\x1d\xfa\xb8\x112@'
p124
tp125
Rp126
ag10
(g14
S'\x86\xcf\x07\x07\xba\xd21@'
p127
tp128
Rp129
ag10
(g14
S'\x82\ne\x17@91@'
p130
tp131
Rp132
ag10
(g14
S'\x97\xa3Z\xfe\xf2\xe11@'
p133
tp134
Rp135
ag10
(g14
S'\xb0\xac7\xe2\xd7r1@'
p136
tp137
Rp138
asssss.