(dp0
S'../Data/sqlite_71.csv'
p1
(dp2
S'../Data/sqlite_9.csv'
p3
(dp4
F0.2
(dp5
S'abs_res'
p6
(dp7
S'bellwether'
p8
(lp9
cnumpy.core.multiarray
scalar
p10
(cnumpy
dtype
p11
(S'f8'
p12
I0
I1
tp13
Rp14
(I3
S'<'
p15
NNNI-1
I-1
I0
tp16
bS'(\xdb\xf9\xeeSekA'
p17
tp18
Rp19
ag10
(g14
S'S\xe3\xa5\x9f\x1bckA'
p20
tp21
Rp22
ag10
(g14
S'\x0e<\x98\x8f\x19bkA'
p23
tp24
Rp25
ag10
(g14
S'\xed\x8b%S\x8f\\kA'
p26
tp27
Rp28
ag10
(g14
S'\xce\xa1Eb\x08pkA'
p29
tp30
Rp31
ag10
(g14
S'e\xbaI\x94\x84bkA'
p32
tp33
Rp34
ag10
(g14
S'\x0e\x90{\xe9\xd1_kA'
p35
tp36
Rp37
ag10
(g14
S'(z[\x06\xc9ckA'
p38
tp39
Rp40
ag10
(g14
S'\xfd\xa9\xf1\xf6\xf4\\kA'
p41
tp42
Rp43
ag10
(g14
S':m\xa0;\xa6^kA'
p44
tp45
Rp46
ag10
(g14
S'\x7f?5\x1e%bkA'
p47
tp48
Rp49
ag10
(g14
S']d;\x1f`ckA'
p50
tp51
Rp52
ag10
(g14
S'\xcd\x13\xf5\xa7CakA'
p53
tp54
Rp55
ag10
(g14
S'\x8d%\xbf\x107[kA'
p56
tp57
Rp58
ag10
(g14
S'D\x9aR\xfd,XkA'
p59
tp60
Rp61
ag10
(g14
S'\t\xb9\xd7t\x95fkA'
p62
tp63
Rp64
ag10
(g14
S'\xbet\x93\x10&ikA'
p65
tp66
Rp67
ag10
(g14
S'\xd1"\xdb\xd9\xe6ikA'
p68
tp69
Rp70
ag10
(g14
S'\x14/\xdd\xe0\xabekA'
p71
tp72
Rp73
ag10
(g14
S'F(\xa3\xe7\x03bkA'
p74
tp75
Rp76
asS'target'
p77
(lp78
g10
(g14
S'>\x89A`\xe5\x08B@'
p79
tp80
Rp81
ag10
(g14
S'\xde\xa3p=\n\x97B@'
p82
tp83
Rp84
ag10
(g14
S'g;\xdfO\x8d\x07B@'
p85
tp86
Rp87
ag10
(g14
S'\xa1n\x12\x83\xc0\xfaA@'
p88
tp89
Rp90
ag10
(g14
S'a\x80\xdck.\xa4C@'
p91
tp92
Rp93
ag10
(g14
S'j\x91\xed|?\xf5A@'
p94
tp95
Rp96
ag10
(g14
S'\t\xac\x1cZd\xdb=@'
p97
tp98
Rp99
ag10
(g14
S'c\xbaI\x0c\x02\xabA@'
p100
tp101
Rp102
ag10
(g14
S'\xb0\xf1\xd2Mb\x90A@'
p103
tp104
Rp105
ag10
(g14
S'$\xdb\xf9~j\xacA@'
p106
tp107
Rp108
ag10
(g14
S'\xbb\xc8v\xbe\x9fZB@'
p109
tp110
Rp111
ag10
(g14
S'\x8c\xebQ\xb8\x1e\xc5@@'
p112
tp113
Rp114
ag10
(g14
S'lffff6@@'
p115
tp116
Rp117
ag10
(g14
S'k\x91\xed|?5A@'
p118
tp119
Rp120
ag10
(g14
S'\xe5\xfb\xa9\xf1\xd2\rA@'
p121
tp122
Rp123
ag10
(g14
S'J\x8bl\xe7\xfb\tD@'
p124
tp125
Rp126
ag10
(g14
S'\x05V\x0e-\xb2]B@'
p127
tp128
Rp129
ag10
(g14
S'H5^\xbaI\xac=@'
p130
tp131
Rp132
ag10
(g14
S'/\xb2\x9d\xef\xa7\x06@@'
p133
tp134
Rp135
ag10
(g14
S'y\xbe\x9f\x1a/eC@'
p136
tp137
Rp138
asssss.