(dp0
S'../Data/sqlite_16.csv'
p1
(dp2
S'../Data/sqlite_59.csv'
p3
(dp4
F0.25
(dp5
S'mmre'
p6
(dp7
S'bellwether'
p8
(lp9
cnumpy.core.multiarray
scalar
p10
(cnumpy
dtype
p11
(S'f8'
p12
I0
I1
tp13
Rp14
(I3
S'<'
p15
NNNI-1
I-1
I0
tp16
bS'7\x15"\xbawVU@'
p17
tp18
Rp19
ag10
(g14
S'8?\xea\xc50VU@'
p20
tp21
Rp22
ag10
(g14
S':gbS\xb7SU@'
p23
tp24
Rp25
ag10
(g14
S'\xba\xfe\x9d\x19SYU@'
p26
tp27
Rp28
ag10
(g14
S'kJ\xff\xd8{TU@'
p29
tp30
Rp31
ag10
(g14
S'X\x13T5{WU@'
p32
tp33
Rp34
ag10
(g14
S'2wQy\xa3VU@'
p35
tp36
Rp37
ag10
(g14
S'\xc3\xc1\x12\x98\x85WU@'
p38
tp39
Rp40
ag10
(g14
S'\x11\xe4\x06MkUU@'
p41
tp42
Rp43
ag10
(g14
S'\x04:\xe4\xaapXU@'
p44
tp45
Rp46
ag10
(g14
S'\xac\xacK_\x96WU@'
p47
tp48
Rp49
ag10
(g14
S'\xa5\xd6\xc3\xe6\xa6XU@'
p50
tp51
Rp52
ag10
(g14
S'\x05T\x9a\x9e\xd5VU@'
p53
tp54
Rp55
ag10
(g14
S'\x13/\xab\xdf,VU@'
p56
tp57
Rp58
ag10
(g14
S'\n\xc1d\xf0UVU@'
p59
tp60
Rp61
ag10
(g14
S'\xb9\r\xfd)\x1eWU@'
p62
tp63
Rp64
ag10
(g14
S'\x9f\x02\xbc\n1YU@'
p65
tp66
Rp67
ag10
(g14
S'\x1b\xa7\x9d\xc5?XU@'
p68
tp69
Rp70
ag10
(g14
S'\xcf\x86 \xa5_SU@'
p71
tp72
Rp73
ag10
(g14
S'\x9ap#\x07DXU@'
p74
tp75
Rp76
asS'target'
p77
(lp78
g10
(g14
S"\xb5I\x84BL'%@"
p79
tp80
Rp81
ag10
(g14
S"\xbc\xe1\x92Gd\x1c'@"
p82
tp83
Rp84
ag10
(g14
S'\x11=\x9d\xdc\x10{&@'
p85
tp86
Rp87
ag10
(g14
S'@\x9f\t\x89\xf3\r%@'
p88
tp89
Rp90
ag10
(g14
S'\xc38FTm\xcb$@'
p91
tp92
Rp93
ag10
(g14
S'\xe8 TJ\xb1\xf3$@'
p94
tp95
Rp96
ag10
(g14
S'\xef\x80M\x00\xbdO$@'
p97
tp98
Rp99
ag10
(g14
S'?I\xd3tV\x91&@'
p100
tp101
Rp102
ag10
(g14
S"'\xb9@&\x9c\xeb%@"
p103
tp104
Rp105
ag10
(g14
S"R\x8e\x89\x15.@'@"
p106
tp107
Rp108
ag10
(g14
S'(\xf3\x91\xa86\x01&@'
p109
tp110
Rp111
ag10
(g14
S'~\x9c\xc8\xd5K0%@'
p112
tp113
Rp114
ag10
(g14
S"%\xe8\xe3<\xff~'@"
p115
tp116
Rp117
ag10
(g14
S'W\xa2\xf1\x17\xd6\xe2%@'
p118
tp119
Rp120
ag10
(g14
S'\xa5)x\x02Y-&@'
p121
tp122
Rp123
ag10
(g14
S'/\xf8\xa0\x01s\xb6&@'
p124
tp125
Rp126
ag10
(g14
S">\xcc\xd4S\x1bs'@"
p127
tp128
Rp129
ag10
(g14
S'\x9c\x02\xd9Y\x1d\xc9%@'
p130
tp131
Rp132
ag10
(g14
S"\xfb\x92\x1d\x99\x9eh'@"
p133
tp134
Rp135
ag10
(g14
S'2v\x89\x1d\x03\x81%@'
p136
tp137
Rp138
asssss.