(dp0
S'../Data/sqlite_6.csv'
p1
(dp2
S'../Data/sqlite_59.csv'
p3
(dp4
F0.1
(dp5
S'mmre'
p6
(dp7
S'bellwether'
p8
(lp9
cnumpy.core.multiarray
scalar
p10
(cnumpy
dtype
p11
(S'f8'
p12
I0
I1
tp13
Rp14
(I3
S'<'
p15
NNNI-1
I-1
I0
tp16
bS'\x9c\x98v]\xb62>@'
p17
tp18
Rp19
ag10
(g14
S'.)\xcc!\tS>@'
p20
tp21
Rp22
ag10
(g14
S'VCf\x070*>@'
p23
tp24
Rp25
ag10
(g14
S'\n,\x88%\x8f^>@'
p26
tp27
Rp28
ag10
(g14
S'|\xc5\x1e\x97DW>@'
p29
tp30
Rp31
ag10
(g14
S'V@v\xe6\x18;>@'
p32
tp33
Rp34
ag10
(g14
S'\xb1\x1cOo\xf1/>@'
p35
tp36
Rp37
ag10
(g14
S'}\xda\x91\xde3<>@'
p38
tp39
Rp40
ag10
(g14
S'y\xb1\xe5umU>@'
p41
tp42
Rp43
ag10
(g14
S'\xf9\x7f\xa2w[Z>@'
p44
tp45
Rp46
ag10
(g14
S'\xc7q9\xee&Z>@'
p47
tp48
Rp49
ag10
(g14
S'\xd0;X4\x89p>@'
p50
tp51
Rp52
ag10
(g14
S'N<(a\xdbG>@'
p53
tp54
Rp55
ag10
(g14
S'\x86\xfc\xe9\xcf\x8cF>@'
p56
tp57
Rp58
ag10
(g14
S'\xaaI\xa4F\xf4K>@'
p59
tp60
Rp61
ag10
(g14
S'g\xa94\x06\x9a+>@'
p62
tp63
Rp64
ag10
(g14
S'K\xecP \xdfT>@'
p65
tp66
Rp67
ag10
(g14
S'N\xf5\xd2}5/>@'
p68
tp69
Rp70
ag10
(g14
S'|s%\x81\xd6=>@'
p71
tp72
Rp73
ag10
(g14
S'D\xec\xed\xf3+S>@'
p74
tp75
Rp76
asS'target'
p77
(lp78
g10
(g14
S'\xe0\xa5\xaf\xe4\x01\xde%@'
p79
tp80
Rp81
ag10
(g14
S'G\xd9\xc6\xcb\x94\xb6"@'
p82
tp83
Rp84
ag10
(g14
S"`\xb7\xe4\xf1\xc8\x93'@"
p85
tp86
Rp87
ag10
(g14
S'\x03$\xc2Q\x13(&@'
p88
tp89
Rp90
ag10
(g14
S'\xd1\xc3\xd4\xb1\x8e\xe5%@'
p91
tp92
Rp93
ag10
(g14
S'\x12\x11\xf6\xfe\x82\xea&@'
p94
tp95
Rp96
ag10
(g14
S"\x1c\xe2\xff8n!'@"
p97
tp98
Rp99
ag10
(g14
S'N~\x8635\t+@'
p100
tp101
Rp102
ag10
(g14
S'\xad\xed\xdf\x90!\xff$@'
p103
tp104
Rp105
ag10
(g14
S'Gmkx\x8cA#@'
p106
tp107
Rp108
ag10
(g14
S'\xda\xcbd\x99\xac\x04$@'
p109
tp110
Rp111
ag10
(g14
S'p\xad\r\x9e\x08h#@'
p112
tp113
Rp114
ag10
(g14
S'\x1e\x8c\x7f\xe8.\xc8%@'
p115
tp116
Rp117
ag10
(g14
S'\xb0\xb8\x94\xb0\xbd9$@'
p118
tp119
Rp120
ag10
(g14
S"\xcdV\xe7\x8djF'@"
p121
tp122
Rp123
ag10
(g14
S"\x88\xcf\x02O\xaf\xe5'@"
p124
tp125
Rp126
ag10
(g14
S'V\xfa\xb7\xe1K#$@'
p127
tp128
Rp129
ag10
(g14
S'\xde\xbb\x92+$\xfc+@'
p130
tp131
Rp132
ag10
(g14
S'\x91\xcd\xff`\xf2\x9c&@'
p133
tp134
Rp135
ag10
(g14
S'?\x9ac\xf5\x95\xfe&@'
p136
tp137
Rp138
asssss.