(dp0
S'../Data/sqlite_37.csv'
p1
(dp2
S'../Data/sqlite_59.csv'
p3
(dp4
F0.05
(dp5
S'mmre'
p6
(dp7
S'bellwether'
p8
(lp9
cnumpy.core.multiarray
scalar
p10
(cnumpy
dtype
p11
(S'f8'
p12
I0
I1
tp13
Rp14
(I3
S'<'
p15
NNNI-1
I-1
I0
tp16
bS'Cg!\xa9hUW@'
p17
tp18
Rp19
ag10
(g14
S'bS\x8bJ\xe3TW@'
p20
tp21
Rp22
ag10
(g14
S')1|\x1d\xe9UW@'
p23
tp24
Rp25
ag10
(g14
S'\xe7\xd3\x86\xaegUW@'
p26
tp27
Rp28
ag10
(g14
S'O8\x97z\x00UW@'
p29
tp30
Rp31
ag10
(g14
S'~\xd4\xfb\\\xa2UW@'
p32
tp33
Rp34
ag10
(g14
S'\xd3\x01\xcfz\xc4UW@'
p35
tp36
Rp37
ag10
(g14
S'.\x12\xcdD\x12UW@'
p38
tp39
Rp40
ag10
(g14
S'J\x87\xe8\xfa\xffTW@'
p41
tp42
Rp43
ag10
(g14
S'K\xbf\xb1\xa9\xbcUW@'
p44
tp45
Rp46
ag10
(g14
S'\xa0]+\xb2\x0bVW@'
p47
tp48
Rp49
ag10
(g14
S'Z\x11\x1b7\x06UW@'
p50
tp51
Rp52
ag10
(g14
S'vq&(\x07UW@'
p53
tp54
Rp55
ag10
(g14
S'\xbb\xc2\xfa,\x03VW@'
p56
tp57
Rp58
ag10
(g14
S'\xeb\x91ui\xe0TW@'
p59
tp60
Rp61
ag10
(g14
S'\xd1Rf~\x93UW@'
p62
tp63
Rp64
ag10
(g14
S'e\xdfi\xa7\rTW@'
p65
tp66
Rp67
ag10
(g14
S'\xf3\x03C\xfewUW@'
p68
tp69
Rp70
ag10
(g14
S'`<\xack\x00UW@'
p71
tp72
Rp73
ag10
(g14
S'\xfdc\x05\x1d\x99UW@'
p74
tp75
Rp76
asS'target'
p77
(lp78
g10
(g14
S')\xc5!\x0b.:#@'
p79
tp80
Rp81
ag10
(g14
S'\xd0u\x8e\x0f\xa4\x16)@'
p82
tp83
Rp84
ag10
(g14
S"\x8e\x86By\xefd'@"
p85
tp86
Rp87
ag10
(g14
S'8\xbeWx\x04O%@'
p88
tp89
Rp90
ag10
(g14
S'\xe7CI\xb4\rD&@'
p91
tp92
Rp93
ag10
(g14
S'\x1bD\xb4?\xdb_%@'
p94
tp95
Rp96
ag10
(g14
S' \xea\xd8\xe0e\x81(@'
p97
tp98
Rp99
ag10
(g14
S'\r\x92\x98\xd1\x88H)@'
p100
tp101
Rp102
ag10
(g14
S'\xb0%G\xf3\xd68)@'
p103
tp104
Rp105
ag10
(g14
S'\xde\xcb\xfcoc\x94%@'
p106
tp107
Rp108
ag10
(g14
S'!\xa0Y\xc4u\xfe$@'
p109
tp110
Rp111
ag10
(g14
S"F\x11\x88N\x84@'@"
p112
tp113
Rp114
ag10
(g14
S'\x93\xd9\xac\t\x832*@'
p115
tp116
Rp117
ag10
(g14
S'71&\x12YP%@'
p118
tp119
Rp120
ag10
(g14
S'K1\xc6:\xa1\x9f(@'
p121
tp122
Rp123
ag10
(g14
S'r\x1e\xc2\x95\x8b\xdb&@'
p124
tp125
Rp126
ag10
(g14
S'\xd8\xdfJ3\x1a\x9d.@'
p127
tp128
Rp129
ag10
(g14
S'"\x17\x82b[\xf8\'@'
p130
tp131
Rp132
ag10
(g14
S'3\xb8W3\x92\xfd(@'
p133
tp134
Rp135
ag10
(g14
S'%&\x0c1{\x18&@'
p136
tp137
Rp138
asssss.