(dp0
S'../Data/sqlite_46.csv'
p1
(dp2
S'../Data/sqlite_44.csv'
p3
(dp4
F0.4
(dp5
S'abs_res'
p6
(dp7
S'bellwether'
p8
(lp9
cnumpy.core.multiarray
scalar
p10
(cnumpy
dtype
p11
(S'f8'
p12
I0
I1
tp13
Rp14
(I3
S'<'
p15
NNNI-1
I-1
I0
tp16
bS'\xd8x\xe9&\x9b<7A'
p17
tp18
Rp19
ag10
(g14
S'933\xb3\x18>7A'
p20
tp21
Rp22
ag10
(g14
S'C\n\xd7\x83\xf8=7A'
p23
tp24
Rp25
ag10
(g14
S'\x7fj\xbc4\xa2<7A'
p26
tp27
Rp28
ag10
(g14
S'&Zd[=>7A'
p29
tp30
Rp31
ag10
(g14
S'^\xe3\xa5\x9b\xa5<7A'
p32
tp33
Rp34
ag10
(g14
S'\x15\xaeG\xe1\x08=7A'
p35
tp36
Rp37
ag10
(g14
S'\xb3\xf3\xfd4\xf7<7A'
p38
tp39
Rp40
ag10
(g14
S'5\xdd$\xc6g>7A'
p41
tp42
Rp43
ag10
(g14
S'\x07\xd5x\t\xf4<7A'
p44
tp45
Rp46
ag10
(g14
S'\xe7$\x06\xc1\xcb<7A'
p47
tp48
Rp49
ag10
(g14
S'\x08V\x0e\r\x13=7A'
p50
tp51
Rp52
ag10
(g14
S'}?5^\xa4<7A'
p53
tp54
Rp55
ag10
(g14
S'fff\x86\xd5<7A'
p56
tp57
Rp58
ag10
(g14
S'$\x06\x81\xd5\xad=7A'
p59
tp60
Rp61
ag10
(g14
S'b\x8f\xc2\xf5\xdb;7A'
p62
tp63
Rp64
ag10
(g14
S'\x87\x14\xae\xe7}=7A'
p65
tp66
Rp67
ag10
(g14
S'\x1d\xaeG\x01`=7A'
p68
tp69
Rp70
ag10
(g14
S't\x12\x83\x00"=7A'
p71
tp72
Rp73
ag10
(g14
S'9\xb2\x9d\xcf\x9f<7A'
p74
tp75
Rp76
asS'target'
p77
(lp78
g10
(g14
S'\xb5\xc8v\xbe\x9f"F@'
p79
tp80
Rp81
ag10
(g14
S'2\x89A`\xe5XF@'
p82
tp83
Rp84
ag10
(g14
S'\x12\xaeG\xe1z\xd4E@'
p85
tp86
Rp87
ag10
(g14
S'\x90\x18\x04V\x0e}E@'
p88
tp89
Rp90
ag10
(g14
S'5\x89A`\xe5`D@'
p91
tp92
Rp93
ag10
(g14
S'K\xb8\x1e\x85\xebqE@'
p94
tp95
Rp96
ag10
(g14
S'\xdeO\x8d\x97n\xe2G@'
p97
tp98
Rp99
ag10
(g14
S'\x8f\xed|?5NE@'
p100
tp101
Rp102
ag10
(g14
S'[\x10X9\xb4\x80E@'
p103
tp104
Rp105
ag10
(g14
S'Jb\x10X9\x94D@'
p106
tp107
Rp108
ag10
(g14
S'55^\xbaI\xa4D@'
p109
tp110
Rp111
ag10
(g14
S'M\x0c\x02+\x87\xceE@'
p112
tp113
Rp114
ag10
(g14
S'\xf5|?5^JJ@'
p115
tp116
Rp117
ag10
(g14
S"'\xdb\xf9~j\xb4E@"
p118
tp119
Rp120
ag10
(g14
S'?5^\xbaI\xdcF@'
p121
tp122
Rp123
ag10
(g14
S'\t\x02+\x87\x16aG@'
p124
tp125
Rp126
ag10
(g14
S'Y\x8f\xc2\xf5(|E@'
p127
tp128
Rp129
ag10
(g14
S'c;\xdfO\x8d\x0fI@'
p130
tp131
Rp132
ag10
(g14
S'\x8aA`\xe5\xd0\x92F@'
p133
tp134
Rp135
ag10
(g14
S'\x07\x81\x95C\x8b\x0cF@'
p136
tp137
Rp138
asssss.