(dp0
S'../Data/sqlite_18.csv'
p1
(dp2
S'../Data/sqlite_58.csv'
p3
(dp4
F0.15
(dp5
S'abs_res'
p6
(dp7
S'bellwether'
p8
(lp9
cnumpy.core.multiarray
scalar
p10
(cnumpy
dtype
p11
(S'f8'
p12
I0
I1
tp13
Rp14
(I3
S'<'
p15
NNNI-1
I-1
I0
tp16
bS'\x90\xc2\xf5\xa8\x1e{@A'
p17
tp18
Rp19
ag10
(g14
S'.\xb2\x9d\xefAz@A'
p20
tp21
Rp22
ag10
(g14
S'\xa1\x1a/M\xf3z@A'
p23
tp24
Rp25
ag10
(g14
S's=\n\x87\xa5z@A'
p26
tp27
Rp28
ag10
(g14
S'_\x8f\xc25`z@A'
p29
tp30
Rp31
ag10
(g14
S'+\\\x8fRIz@A'
p32
tp33
Rp34
ag10
(g14
S'\t\x90{mG{@A'
p35
tp36
Rp37
ag10
(g14
S'\x81\x95C\x8b\r{@A'
p38
tp39
Rp40
ag10
(g14
S'\xc0\xae\x00\xb9\x9dz@A'
p41
tp42
Rp43
ag10
(g14
S'F(\xa3\xd7iz@A'
p44
tp45
Rp46
ag10
(g14
S'\xa4\xa8\x7fc\xb3z@A'
p47
tp48
Rp49
ag10
(g14
S'P\x8d\x97\xdepz@A'
p50
tp51
Rp52
ag10
(g14
S'\xa7\xc6K\xe7\xd8z@A'
p53
tp54
Rp55
ag10
(g14
S'\xaa\x7f#$\xe0z@A'
p56
tp57
Rp58
ag10
(g14
S'\xd3\\H\xba {@A'
p59
tp60
Rp61
ag10
(g14
S')\xdd$\xb6\xf5y@A'
p62
tp63
Rp64
ag10
(g14
S'\xdc\xa3p\xadLz@A'
p65
tp66
Rp67
ag10
(g14
S'\x8dPF\x0f\nz@A'
p68
tp69
Rp70
ag10
(g14
S'<\xa7\r\xf4sz@A'
p71
tp72
Rp73
ag10
(g14
S'\xc9v\xbe\x1f\x0b{@A'
p74
tp75
Rp76
asS'target'
p77
(lp78
g10
(g14
S'\xdf\xf9~j\xbc,X@'
p79
tp80
Rp81
ag10
(g14
S'Z\xe3\xa5\x9b\xc4lY@'
p82
tp83
Rp84
ag10
(g14
S'<\xb4\xc8v\xbe\x7fZ@'
p85
tp86
Rp87
ag10
(g14
S'\xc5x\xe9&1PW@'
p88
tp89
Rp90
ag10
(g14
S'R\xe3\xa5\x9b\xc4\x90Y@'
p91
tp92
Rp93
ag10
(g14
S'\xc5\xcc\xcc\xcc\xcc\xecY@'
p94
tp95
Rp96
ag10
(g14
S't\x93\x18\x04V\x8eW@'
p97
tp98
Rp99
ag10
(g14
S'\x94C\x8bl\xe7\x93W@'
p100
tp101
Rp102
ag10
(g14
S'^\xe5\xd0"\xdb\tX@'
p103
tp104
Rp105
ag10
(g14
S'\xf1|?5^\xfeX@'
p106
tp107
Rp108
ag10
(g14
S'\x85\x95C\x8bl\xc7Y@'
p109
tp110
Rp111
ag10
(g14
S'\x98\x18\x04V\x0e\x85X@'
p112
tp113
Rp114
ag10
(g14
S'^\xe5\xd0"\xdb\xc1W@'
p115
tp116
Rp117
ag10
(g14
S'&1\x08\xac\x1c\xe2W@'
p118
tp119
Rp120
ag10
(g14
S'\xbd\x9f\x1a/\xddtX@'
p121
tp122
Rp123
ag10
(g14
S'\xe2\xd0"\xdb\xf9\xeaV@'
p124
tp125
Rp126
ag10
(g14
S'U\x8f\xc2\xf5(\xe4X@'
p127
tp128
Rp129
ag10
(g14
S'\xd6O\x8d\x97n&[@'
p130
tp131
Rp132
ag10
(g14
S'\xac\x1cZd;\x87Y@'
p133
tp134
Rp135
ag10
(g14
S'\xdcMb\x10X\xa9W@'
p136
tp137
Rp138
asssss.