(dp0
S'../Data/sqlite_4.csv'
p1
(dp2
S'../Data/sqlite_93.csv'
p3
(dp4
F0.1
(dp5
S'mmre'
p6
(dp7
S'bellwether'
p8
(lp9
cnumpy.core.multiarray
scalar
p10
(cnumpy
dtype
p11
(S'f8'
p12
I0
I1
tp13
Rp14
(I3
S'<'
p15
NNNI-1
I-1
I0
tp16
bS'\xf0\xf8\xa6?fN\xf5@'
p17
tp18
Rp19
ag10
(g14
S'\xc5\x14\xf2\xe0\x89V\xf5@'
p20
tp21
Rp22
ag10
(g14
S'\x19\xc3\xb8q\xcb]\xf5@'
p23
tp24
Rp25
ag10
(g14
S'\xe9+8c\xe8K\xf5@'
p26
tp27
Rp28
ag10
(g14
S")$y'\xa2W\xf5@"
p29
tp30
Rp31
ag10
(g14
S'>x\xaaS\xd19\xf5@'
p32
tp33
Rp34
ag10
(g14
S'\xd7\xd4\x80s\xb0M\xf5@'
p35
tp36
Rp37
ag10
(g14
S'W\x90\xdaA\xffK\xf5@'
p38
tp39
Rp40
ag10
(g14
S'\rK\xb53u4\xf5@'
p41
tp42
Rp43
ag10
(g14
S'EV@\xb6\xbc9\xf5@'
p44
tp45
Rp46
ag10
(g14
S'\xc7GY\x04\x8c\x7f\xf5@'
p47
tp48
Rp49
ag10
(g14
S'\x8b\x89t.\xcb7\xf5@'
p50
tp51
Rp52
ag10
(g14
S'\x90s\xcc\x82W?\xf5@'
p53
tp54
Rp55
ag10
(g14
S'\xc4-\xcbL\x1e{\xf5@'
p56
tp57
Rp58
ag10
(g14
S'\x14@)M\x923\xf5@'
p59
tp60
Rp61
ag10
(g14
S'\x8a}<\xa7\xdd$\xf5@'
p62
tp63
Rp64
ag10
(g14
S'\xb7\\"\x01,O\xf5@'
p65
tp66
Rp67
ag10
(g14
S'\x18\xd1\xfe-/U\xf5@'
p68
tp69
Rp70
ag10
(g14
S'wU\xc3\x05@W\xf5@'
p71
tp72
Rp73
ag10
(g14
S"M'd#\xadK\xf5@"
p74
tp75
Rp76
asS'target'
p77
(lp78
g10
(g14
S'\xfe\xf9\xebP4\xcfQ@'
p79
tp80
Rp81
ag10
(g14
S'\x19@\xb3E\xe0\xf1T@'
p82
tp83
Rp84
ag10
(g14
S'\x97\xe9a"KLR@'
p85
tp86
Rp87
ag10
(g14
S'\xae\xaf\x1a9\r\x95Q@'
p88
tp89
Rp90
ag10
(g14
S'6iVn\x1f`U@'
p91
tp92
Rp93
ag10
(g14
S';\xeci\x94ASH@'
p94
tp95
Rp96
ag10
(g14
S'\xaf\xf1\xb9K\xeb\xe1T@'
p97
tp98
Rp99
ag10
(g14
S'/?\xac5r\x7fT@'
p100
tp101
Rp102
ag10
(g14
S'K\xd5\xc2-\x87xT@'
p103
tp104
Rp105
ag10
(g14
S'52G\r\xdd}U@'
p106
tp107
Rp108
ag10
(g14
S'\x18\xbd\xa2R\x8b\\P@'
p109
tp110
Rp111
ag10
(g14
S'\xf3\xa4I\x91\xaa\xc9A@'
p112
tp113
Rp114
ag10
(g14
S'7(\xc3Q\x98\x06H@'
p115
tp116
Rp117
ag10
(g14
S's\x9fV\x9dy\xa6_@'
p118
tp119
Rp120
ag10
(g14
S'\xbb=#\x9f\xa1aQ@'
p121
tp122
Rp123
ag10
(g14
S'\xce\xa3Cv\xc9\xfeA@'
p124
tp125
Rp126
ag10
(g14
S'\tz\xbct\x81pP@'
p127
tp128
Rp129
ag10
(g14
S'R\x08\xf3S\xe0\x8eS@'
p130
tp131
Rp132
ag10
(g14
S'\x80E)xP\x87P@'
p133
tp134
Rp135
ag10
(g14
S'M\xb1zyAS[@'
p136
tp137
Rp138
asssss.