(dp0
S'../Data/sqlite_67.csv'
p1
(dp2
S'../Data/sqlite_85.csv'
p3
(dp4
F0.2
(dp5
S'mmre'
p6
(dp7
S'bellwether'
p8
(lp9
cnumpy.core.multiarray
scalar
p10
(cnumpy
dtype
p11
(S'f8'
p12
I0
I1
tp13
Rp14
(I3
S'<'
p15
NNNI-1
I-1
I0
tp16
bS'\x822[5\xf6EU@'
p17
tp18
Rp19
ag10
(g14
S'\xaa\x7foy\x12iU@'
p20
tp21
Rp22
ag10
(g14
S'\xea.)u\xabgU@'
p23
tp24
Rp25
ag10
(g14
S'\xd5K\xfdN\x0eKU@'
p26
tp27
Rp28
ag10
(g14
S'\xa8R\xacsxPU@'
p29
tp30
Rp31
ag10
(g14
S'\xb8p\x1d\xb5\x13]U@'
p32
tp33
Rp34
ag10
(g14
S'\x0e0\xd1\x1a\xb4FU@'
p35
tp36
Rp37
ag10
(g14
S'\x8ev\xd3\xb7\xf9pU@'
p38
tp39
Rp40
ag10
(g14
S'_\x94\xb1\x84\x81^U@'
p41
tp42
Rp43
ag10
(g14
S'tN>\xd9\xe5MU@'
p44
tp45
Rp46
ag10
(g14
S'\xb7\x1e]\xf1\xa5PU@'
p47
tp48
Rp49
ag10
(g14
S'\nf\xa3\xd8\x1eZU@'
p50
tp51
Rp52
ag10
(g14
S'nAz\xab\x1dsU@'
p53
tp54
Rp55
ag10
(g14
S'&8k\xddu_U@'
p56
tp57
Rp58
ag10
(g14
S'\xfab/\x1a\xe7^U@'
p59
tp60
Rp61
ag10
(g14
S'U\xdb\x1cDATU@'
p62
tp63
Rp64
ag10
(g14
S'\x98q]\x02\x06OU@'
p65
tp66
Rp67
ag10
(g14
S'\xc3@\xe7!\x10bU@'
p68
tp69
Rp70
ag10
(g14
S'\xbcf\x06\xde\x84MU@'
p71
tp72
Rp73
ag10
(g14
S'\\\x1d*3\xa8`U@'
p74
tp75
Rp76
asS'target'
p77
(lp78
g10
(g14
S'\x1e\xd0x\x036\xb9U@'
p79
tp80
Rp81
ag10
(g14
S'@Y\xb0\xda\xf3\x1fR@'
p82
tp83
Rp84
ag10
(g14
S'gc\x04\xfb\xe2QT@'
p85
tp86
Rp87
ag10
(g14
S'hsc\xd2\xe7^T@'
p88
tp89
Rp90
ag10
(g14
S'\xf1\xe7\xbb\xec^fS@'
p91
tp92
Rp93
ag10
(g14
S'\x80\xc7\x8f$\xb4~S@'
p94
tp95
Rp96
ag10
(g14
S'\x99\xc2\x07_\xd1/T@'
p97
tp98
Rp99
ag10
(g14
S'\x1cFu\x93TWR@'
p100
tp101
Rp102
ag10
(g14
S'\xa3s"\x90\xd3\x96S@'
p103
tp104
Rp105
ag10
(g14
S'\xf6\xd6D\x1e\xb2|S@'
p106
tp107
Rp108
ag10
(g14
S'\xaem\x01\x80\xfc\xfdS@'
p109
tp110
Rp111
ag10
(g14
S'\x16\x87\xd8#\xde[T@'
p112
tp113
Rp114
ag10
(g14
S'\x98?)\x03b~R@'
p115
tp116
Rp117
ag10
(g14
S'\xca\x0c-u0\x88S@'
p118
tp119
Rp120
ag10
(g14
S'\x07\xb8r\x85\x0c\xbfS@'
p121
tp122
Rp123
ag10
(g14
S'\xde\x88-\x17\x1d&T@'
p124
tp125
Rp126
ag10
(g14
S'\xac\xb6\x0b\x8d8\xfeU@'
p127
tp128
Rp129
ag10
(g14
S'\xc0\xdde\xec\x04\xa5S@'
p130
tp131
Rp132
ag10
(g14
S'\x84\x99\xc0)+\xd4R@'
p133
tp134
Rp135
ag10
(g14
S'\xce9\xdaW\x1c\x88T@'
p136
tp137
Rp138
asssss.