(dp0
S'../Data/sqlite_44.csv'
p1
(dp2
S'../Data/sqlite_59.csv'
p3
(dp4
F0.4
(dp5
S'mmre'
p6
(dp7
S'bellwether'
p8
(lp9
cnumpy.core.multiarray
scalar
p10
(cnumpy
dtype
p11
(S'f8'
p12
I0
I1
tp13
Rp14
(I3
S'<'
p15
NNNI-1
I-1
I0
tp16
bS'\xe5\x15\xaf\xed\xf6TU@'
p17
tp18
Rp19
ag10
(g14
S'\t} J\xcfUU@'
p20
tp21
Rp22
ag10
(g14
S'{PI|\x8dPU@'
p23
tp24
Rp25
ag10
(g14
S'\xd4\xf2\xed(\xccSU@'
p26
tp27
Rp28
ag10
(g14
S'\xd4p\xf2\x89\xfeUU@'
p29
tp30
Rp31
ag10
(g14
S'\xf0\xca]\xd1\xabRU@'
p32
tp33
Rp34
ag10
(g14
S'\xe2(\xc8\r\xd7ZU@'
p35
tp36
Rp37
ag10
(g14
S'[C\xe2:.PU@'
p38
tp39
Rp40
ag10
(g14
S'\x10\x9c\xc1m\x17SU@'
p41
tp42
Rp43
ag10
(g14
S'\x06%\xd1,\x84WU@'
p44
tp45
Rp46
ag10
(g14
S'\xd9mm\xffzPU@'
p47
tp48
Rp49
ag10
(g14
S'\x04\xa6\x1c\x17]XU@'
p50
tp51
Rp52
ag10
(g14
S'ulpM7UU@'
p53
tp54
Rp55
ag10
(g14
S'\xe7\xcd\xeeR\xdaTU@'
p56
tp57
Rp58
ag10
(g14
S'\x00\xa1\xb4\\\x8dUU@'
p59
tp60
Rp61
ag10
(g14
S'\xf0\xd1^\xbdaRU@'
p62
tp63
Rp64
ag10
(g14
S'X\xdf\xd4\x03QSU@'
p65
tp66
Rp67
ag10
(g14
S'\xe0\xd1\xe8\x06lSU@'
p68
tp69
Rp70
ag10
(g14
S"E\x1b'\xf1\x0fRU@"
p71
tp72
Rp73
ag10
(g14
S'\xaa0g\x8c\x0bYU@'
p74
tp75
Rp76
asS'target'
p77
(lp78
g10
(g14
S"\xf2 4\xcdL\xeb'@"
p79
tp80
Rp81
ag10
(g14
S'\xde\x8c@8\x96s&@'
p82
tp83
Rp84
ag10
(g14
S"\xb4#\x99I2)'@"
p85
tp86
Rp87
ag10
(g14
S'\x013J\xe3lj%@'
p88
tp89
Rp90
ag10
(g14
S'\x03\xfa\xb1\xac9e%@'
p91
tp92
Rp93
ag10
(g14
S'FqEU\xae\xeb&@'
p94
tp95
Rp96
ag10
(g14
S'\xcf\xea\xb8w6f%@'
p97
tp98
Rp99
ag10
(g14
S'\xf3\xb3\xe0l~2&@'
p100
tp101
Rp102
ag10
(g14
S']\xf0\x86\xe7:\x85$@'
p103
tp104
Rp105
ag10
(g14
S'\x80\xd3e+rg%@'
p106
tp107
Rp108
ag10
(g14
S'\xa3&@\x11bm&@'
p109
tp110
Rp111
ag10
(g14
S'\x80\x03\x07\x10n\xd2%@'
p112
tp113
Rp114
ag10
(g14
S'lE\x10\xf03\xf2$@'
p115
tp116
Rp117
ag10
(g14
S'"\xd9\'\xfb\xde\x0e\'@'
p118
tp119
Rp120
ag10
(g14
S'{\x06M\x17\xd2?%@'
p121
tp122
Rp123
ag10
(g14
S' C\xea\xe5i\x08&@'
p124
tp125
Rp126
ag10
(g14
S'\xd2\x83\xba\x9f\xeb\x8a&@'
p127
tp128
Rp129
ag10
(g14
S'\xa8$\x03\x15e\xd5&@'
p130
tp131
Rp132
ag10
(g14
S']\xfc\xf9tq,&@'
p133
tp134
Rp135
ag10
(g14
S'\xcc\x84\x18\xd6N\xa4$@'
p136
tp137
Rp138
asssss.