(dp0
S'../Data/sqlite_57.csv'
p1
(dp2
S'../Data/sqlite_9.csv'
p3
(dp4
F0.1
(dp5
S'abs_res'
p6
(dp7
S'bellwether'
p8
(lp9
cnumpy.core.multiarray
scalar
p10
(cnumpy
dtype
p11
(S'f8'
p12
I0
I1
tp13
Rp14
(I3
S'<'
p15
NNNI-1
I-1
I0
tp16
bS'?5^\x9a^8jA'
p17
tp18
Rp19
ag10
(g14
S'F\xe1z\x8cI-jA'
p20
tp21
Rp22
ag10
(g14
S'P\xb8\x1e%J4jA'
p23
tp24
Rp25
ag10
(g14
S'\xd1v\xbe\xf3\xe63jA'
p26
tp27
Rp28
ag10
(g14
S'\xb9\xf5(\xb8\x125jA'
p29
tp30
Rp31
ag10
(g14
S'\x06\xd7\xa3H93jA'
p32
tp33
Rp34
ag10
(g14
S'@5^B\xd4+jA'
p35
tp36
Rp37
ag10
(g14
S'\x91l\xe7c|6jA'
p38
tp39
Rp40
ag10
(g14
S'\x8c\xebQd|4jA'
p41
tp42
Rp43
ag10
(g14
S'vj\xbc\x94\xcd0jA'
p44
tp45
Rp46
ag10
(g14
S'\x12\x83\xc0\x9a\x110jA'
p47
tp48
Rp49
ag10
(g14
S'\x9c\xef\xa7j\xd24jA'
p50
tp51
Rp52
ag10
(g14
S'\xdc\xf9~\xce\xc83jA'
p53
tp54
Rp55
ag10
(g14
S'\x0e\xaeGu53jA'
p56
tp57
Rp58
ag10
(g14
S'/1\x08D\x7f,jA'
p59
tp60
Rp61
ag10
(g14
S'e;\xdf\xab22jA'
p62
tp63
Rp64
ag10
(g14
S'g\xbctc\x984jA'
p65
tp66
Rp67
ag10
(g14
S'1\xdd$N\xf32jA'
p68
tp69
Rp70
ag10
(g14
S'\xb8I\x0c\xfe\x9a8jA'
p71
tp72
Rp73
ag10
(g14
S'2\x87\x16%d3jA'
p74
tp75
Rp76
asS'target'
p77
(lp78
g10
(g14
S'\\b\x10X9\xe4D@'
p79
tp80
Rp81
ag10
(g14
S'h\x10X9\xb4\x88G@'
p82
tp83
Rp84
ag10
(g14
S'3\xdd$\x06\x81\x05F@'
p85
tp86
Rp87
ag10
(g14
S'\xc0rh\x91\xedlC@'
p88
tp89
Rp90
ag10
(g14
S'E\xb4\xc8v\xbeGG@'
p91
tp92
Rp93
ag10
(g14
S'\x83h\x91\xed|\xcfM@'
p94
tp95
Rp96
ag10
(g14
S'H\xb6\xf3\xfd\xd4\xb8B@'
p97
tp98
Rp99
ag10
(g14
S'k;\xdfO\x8d\xb7A@'
p100
tp101
Rp102
ag10
(g14
S'\x8a\x16\xd9\xce\xf7\xd3B@'
p103
tp104
Rp105
ag10
(g14
S'F5^\xbaI\x9cA@'
p106
tp107
Rp108
ag10
(g14
S'\xc3I\x0c\x02+oB@'
p109
tp110
Rp111
ag10
(g14
S'\x8b\xebQ\xb8\x1e]D@'
p112
tp113
Rp114
ag10
(g14
S't\x12\x83\xc0\xcaqJ@'
p115
tp116
Rp117
ag10
(g14
S'\x98\x99\x99\x99\x99\x19E@'
p118
tp119
Rp120
ag10
(g14
S'\xa1\x1a/\xdd$FD@'
p121
tp122
Rp123
ag10
(g14
S'\xafrh\x91\xed\\E@'
p124
tp125
Rp126
ag10
(g14
S'\xcb \xb0rhaD@'
p127
tp128
Rp129
ag10
(g14
S'7\xdd$\x06\x81\xf5F@'
p130
tp131
Rp132
ag10
(g14
S'z\xbe\x9f\x1a/mB@'
p133
tp134
Rp135
ag10
(g14
S'cd;\xdfO}J@'
p136
tp137
Rp138
asssss.