(dp0
S'../Data/sqlite_36.csv'
p1
(dp2
S'../Data/sqlite_2.csv'
p3
(dp4
F0.3
(dp5
S'abs_res'
p6
(dp7
S'bellwether'
p8
(lp9
cnumpy.core.multiarray
scalar
p10
(cnumpy
dtype
p11
(S'f8'
p12
I0
I1
tp13
Rp14
(I3
S'<'
p15
NNNI-1
I-1
I0
tp16
bS'K\xfd\x1b\xa1\x8csr@'
p17
tp18
Rp19
ag10
(g14
S'2^\xbaI\x0c\x15r@'
p20
tp21
Rp22
ag10
(g14
S'UUUUUEr@'
p23
tp24
Rp25
ag10
(g14
S'\xb9X\xf2\x8b%Yr@'
p26
tp27
Rp28
ag10
(g14
S'\x18K~\xb1\xe4Ir@'
p29
tp30
Rp31
ag10
(g14
S'IS*\xce>\xfbq@'
p32
tp33
Rp34
ag10
(g14
S'\xe0$\x06\x81\x959r@'
p35
tp36
Rp37
ag10
(g14
S'\xe4\xd0"\xdb\xf9|r@'
p38
tp39
Rp40
ag10
(g14
S'\xa9\x1cZd;\xa3r@'
p41
tp42
Rp43
ag10
(g14
S']\xe5\xd0"\xdbIr@'
p44
tp45
Rp46
ag10
(g14
S'\xa3\x8c\xde\x96\xb5\x0fr@'
p47
tp48
Rp49
ag10
(g14
S'E\xd2\x94\x8a\xb3br@'
p50
tp51
Rp52
ag10
(g14
S'\xf7\x9a\x0bIS\x08r@'
p53
tp54
Rp55
ag10
(g14
S'\xca\xcc\xcc\xcc\xcc\xa5q@'
p56
tp57
Rp58
ag10
(g14
S'\xde\x17K~\xb1\x88r@'
p59
tp60
Rp61
ag10
(g14
S'\xe4\x17K~\xb1\x05r@'
p62
tp63
Rp64
ag10
(g14
S'\x10\xf5o\x842\x80r@'
p65
tp66
Rp67
ag10
(g14
S'\xae\xd51\xc1\x83Tr@'
p68
tp69
Rp70
ag10
(g14
S'=Q\xffF(\xa1r@'
p71
tp72
Rp73
ag10
(g14
S'GS*\xce>\xacr@'
p74
tp75
Rp76
asS'target'
p77
(lp78
g10
(g14
S'Y\x0e-\xb2\x9d\xafN@'
p79
tp80
Rp81
ag10
(g14
S'\xa9\xc6K7\x891O@'
p82
tp83
Rp84
ag10
(g14
S'\xf4~j\xbct\xbbL@'
p85
tp86
Rp87
ag10
(g14
S'C\x8bl\xe7\xfb1Q@'
p88
tp89
Rp90
ag10
(g14
S'\xf0\xa7\xc6K7\xa1O@'
p91
tp92
Rp93
ag10
(g14
S'\x1f\x85\xebQ\xb8\x9eL@'
p94
tp95
Rp96
ag10
(g14
S'\x8f\xed|?5\nQ@'
p97
tp98
Rp99
ag10
(g14
S'\xcd\xf7S\xe3\xa5{J@'
p100
tp101
Rp102
ag10
(g14
S'u\x93\x18\x04V^L@'
p103
tp104
Rp105
ag10
(g14
S'=^\xbaI\x0cbO@'
p106
tp107
Rp108
ag10
(g14
S'dffff&L@'
p109
tp110
Rp111
ag10
(g14
S'W\xe3\xa5\x9b\xc4\xc0L@'
p112
tp113
Rp114
ag10
(g14
S'\x1eZd;\xdfgN@'
p115
tp116
Rp117
ag10
(g14
S'\x18Zd;\xdfON@'
p118
tp119
Rp120
ag10
(g14
S'\x86l\xe7\xfb\xa9-P@'
p121
tp122
Rp123
ag10
(g14
S'\xbf\xc8v\xbe\x9fBL@'
p124
tp125
Rp126
ag10
(g14
S'\x8aA`\xe5\xd0jR@'
p127
tp128
Rp129
ag10
(g14
S'R\x0e-\xb2\x9d\x17Q@'
p130
tp131
Rp132
ag10
(g14
S'Z9\xb4\xc8v.O@'
p133
tp134
Rp135
ag10
(g14
S'\xc6K7\x89A\xb0M@'
p136
tp137
Rp138
asssss.