(dp0
S'../Data/sqlite_31.csv'
p1
(dp2
S'../Data/sqlite_91.csv'
p3
(dp4
F0.3
(dp5
S'mmre'
p6
(dp7
S'bellwether'
p8
(lp9
cnumpy.core.multiarray
scalar
p10
(cnumpy
dtype
p11
(S'f8'
p12
I0
I1
tp13
Rp14
(I3
S'<'
p15
NNNI-1
I-1
I0
tp16
bS'\x87)\xbc\xadVBX@'
p17
tp18
Rp19
ag10
(g14
S' \x80n\xdc\x03DX@'
p20
tp21
Rp22
ag10
(g14
S'\x0e+\x1b\xd4~9X@'
p23
tp24
Rp25
ag10
(g14
S'-O\xa1\x86\xbf3X@'
p26
tp27
Rp28
ag10
(g14
S"'\x00YJ\x05DX@"
p29
tp30
Rp31
ag10
(g14
S'\xb2\x03\x87_\xf4<X@'
p32
tp33
Rp34
ag10
(g14
S'>\x13\xbb\xe0\xfc>X@'
p35
tp36
Rp37
ag10
(g14
S'.\x1e\xe8\x0c(=X@'
p38
tp39
Rp40
ag10
(g14
S'\\\x19f\xbd\x114X@'
p41
tp42
Rp43
ag10
(g14
S'\x80b\xe9\xdb\xb99X@'
p44
tp45
Rp46
ag10
(g14
S'\x8a\xf4\xc8\x06\xea9X@'
p47
tp48
Rp49
ag10
(g14
S'\xe9\x044\xbaN8X@'
p50
tp51
Rp52
ag10
(g14
S'?\x87\x90*\xe9DX@'
p53
tp54
Rp55
ag10
(g14
S'\xb9\xe9\x93W\xa55X@'
p56
tp57
Rp58
ag10
(g14
S'\x9d\xfe_cy5X@'
p59
tp60
Rp61
ag10
(g14
S';\xa5\xc8W\x1e;X@'
p62
tp63
Rp64
ag10
(g14
S'\xe9KX\x1bN;X@'
p65
tp66
Rp67
ag10
(g14
S'\x02\n8\x93\x0f=X@'
p68
tp69
Rp70
ag10
(g14
S'\x9d\xf0\xd1OFGX@'
p71
tp72
Rp73
ag10
(g14
S'06\xc1\\\x1d7X@'
p74
tp75
Rp76
asS'target'
p77
(lp78
g10
(g14
S'\x07\xa8\xe0#\xec\x9cM@'
p79
tp80
Rp81
ag10
(g14
S'\x82 \x06\x0f\xe2\xbfL@'
p82
tp83
Rp84
ag10
(g14
S'w\xfe\xef\xa2l\xbcP@'
p85
tp86
Rp87
ag10
(g14
S'$\xc2\xae)\x06 Q@'
p88
tp89
Rp90
ag10
(g14
S'D7\xf7\xf9?\xfcL@'
p91
tp92
Rp93
ag10
(g14
S'\xc1\xd2\xe8\x01~[O@'
p94
tp95
Rp96
ag10
(g14
S'\x98J\xd6\xb2c6P@'
p97
tp98
Rp99
ag10
(g14
S'"\xe3\x7f\x16\xeb\x01M@'
p100
tp101
Rp102
ag10
(g14
S'\xed\xe3f\xc7FxP@'
p103
tp104
Rp105
ag10
(g14
S'\x84\xed\xf2\x895\xdbN@'
p106
tp107
Rp108
ag10
(g14
S"\\R<.'4M@"
p109
tp110
Rp111
ag10
(g14
S'\x1a;y\xaf\xe2\xfcP@'
p112
tp113
Rp114
ag10
(g14
S'jm\x88b\xd9\xd0J@'
p115
tp116
Rp117
ag10
(g14
S'\xd2!\x17\xc0X\xe7N@'
p118
tp119
Rp120
ag10
(g14
S't\xa5\x89\x18:\x1fM@'
p121
tp122
Rp123
ag10
(g14
S'\xd5avr\xd8\xc3M@'
p124
tp125
Rp126
ag10
(g14
S'\xde\x1fV\x1f\xa3\xc5L@'
p127
tp128
Rp129
ag10
(g14
S'^,:\xe7\xe6\xdfP@'
p130
tp131
Rp132
ag10
(g14
S'\x06!\x07A\xacHL@'
p133
tp134
Rp135
ag10
(g14
S'a\x12gS`\xffP@'
p136
tp137
Rp138
asssss.