(dp0
S'../Data/sqlite_1.csv'
p1
(dp2
S'../Data/sqlite_0.csv'
p3
(dp4
F0.1
(dp5
S'abs_res'
p6
(dp7
S'bellwether'
p8
(lp9
cnumpy.core.multiarray
scalar
p10
(cnumpy
dtype
p11
(S'f8'
p12
I0
I1
tp13
Rp14
(I3
S'<'
p15
NNNI-1
I-1
I0
tp16
bS'f\x12\x83`\x116AA'
p17
tp18
Rp19
ag10
(g14
S'`\xe5\xd0rB6AA'
p20
tp21
Rp22
ag10
(g14
S'\x19\xd9\xce7\x016AA'
p23
tp24
Rp25
ag10
(g14
S'\x03\x81\x95#U6AA'
p26
tp27
Rp28
ag10
(g14
S'\x80\x95C\xab\xb46AA'
p29
tp30
Rp31
ag10
(g14
S'g;\xdf\x9fw6AA'
p32
tp33
Rp34
ag10
(g14
S'D\xd2\x94\x9a:6AA'
p35
tp36
Rp37
ag10
(g14
S'\x18\xf5o\xe4 6AA'
p38
tp39
Rp40
ag10
(g14
S'?\xe1z4\xa66AA'
p41
tp42
Rp43
ag10
(g14
S'\xe6&1Xl6AA'
p44
tp45
Rp46
ag10
(g14
S'\xa4\rt\xfa[6AA'
p47
tp48
Rp49
ag10
(g14
S'\x07t\xda\xb0|6AA'
p50
tp51
Rp52
ag10
(g14
S'3\x96\xfc\xb2\x046AA'
p53
tp54
Rp55
ag10
(g14
S'\xb0\x9d\xef\xe7Z6AA'
p56
tp57
Rp58
ag10
(g14
S'\xb6\x1e\x85{[6AA'
p59
tp60
Rp61
ag10
(g14
S'\x06\xd7\xa3P\x996AA'
p62
tp63
Rp64
ag10
(g14
S']\xe5\xd0\xf2-6AA'
p65
tp66
Rp67
ag10
(g14
S'\xb4\xc8v.\x986AA'
p68
tp69
Rp70
ag10
(g14
S'k\x12\x83046AA'
p71
tp72
Rp73
ag10
(g14
S'\x15X9\xa4N6AA'
p74
tp75
Rp76
asS'target'
p77
(lp78
g10
(g14
S'\xfa\xa9\xf1\xd2M\x96i@'
p79
tp80
Rp81
ag10
(g14
S'\x1c/\xdd$\x065i@'
p82
tp83
Rp84
ag10
(g14
S'\xd4O\x8d\x97n\x02h@'
p85
tp86
Rp87
ag10
(g14
S'\xac\xf1\xd2Mb\x9cf@'
p88
tp89
Rp90
ag10
(g14
S'\xb0\xc6K7\x89\xe5e@'
p91
tp92
Rp93
ag10
(g14
S'\xe5\xf9~j\xbc\xdcg@'
p94
tp95
Rp96
ag10
(g14
S'Y\x8d\x97n\x12/i@'
p97
tp98
Rp99
ag10
(g14
S'\x0f\x83\xc0\xca\xa1yh@'
p100
tp101
Rp102
ag10
(g14
S'\x8b\x16\xd9\xce\xf7\xd3j@'
p103
tp104
Rp105
ag10
(g14
S'\xc6\xa1E\xb6\xf3\xa1i@'
p106
tp107
Rp108
ag10
(g14
S'T\x8d\x97n\x12\xcbh@'
p109
tp110
Rp111
ag10
(g14
S'\x86\xe9&1\x08\x8cj@'
p112
tp113
Rp114
ag10
(g14
S'\xc3 \xb0rh\xabj@'
p115
tp116
Rp117
ag10
(g14
S'\xef|?5^\xfah@'
p118
tp119
Rp120
ag10
(g14
S'\xdfz\x14\xaeG\x89k@'
p121
tp122
Rp123
ag10
(g14
S'Ab\x10X98f@'
p124
tp125
Rp126
ag10
(g14
S'\xdeO\x8d\x97n\x12i@'
p127
tp128
Rp129
ag10
(g14
S'\xa3p=\n\xd7\xb3g@'
p130
tp131
Rp132
ag10
(g14
S'f\xe5\xd0"\xdb\xcdf@'
p133
tp134
Rp135
ag10
(g14
S'?^\xbaI\x0c\x1en@'
p136
tp137
Rp138
asssss.