(dp0
S'../Data/sqlite_86.csv'
p1
(dp2
S'../Data/sqlite_77.csv'
p3
(dp4
F0.25
(dp5
S'mmre'
p6
(dp7
S'bellwether'
p8
(lp9
cnumpy.core.multiarray
scalar
p10
(cnumpy
dtype
p11
(S'f8'
p12
I0
I1
tp13
Rp14
(I3
S'<'
p15
NNNI-1
I-1
I0
tp16
bS'3\xd7\xbbH\x86QU@'
p17
tp18
Rp19
ag10
(g14
S'\x95\xae\x84G\x948U@'
p20
tp21
Rp22
ag10
(g14
S'\x10\x9d\xfcS\xc2?U@'
p23
tp24
Rp25
ag10
(g14
S'\xad\xfa\xf3\xae\x084U@'
p26
tp27
Rp28
ag10
(g14
S'\xaf3\x91\x03\xb4<U@'
p29
tp30
Rp31
ag10
(g14
S'\x04\x91\xe8c\x045U@'
p32
tp33
Rp34
ag10
(g14
S'\x0ec\xb7\xa4?EU@'
p35
tp36
Rp37
ag10
(g14
S'4|G\x85\xa7@U@'
p38
tp39
Rp40
ag10
(g14
S'9\xdchU\xe2GU@'
p41
tp42
Rp43
ag10
(g14
S'\xbeV\xa2Q\xafJU@'
p44
tp45
Rp46
ag10
(g14
S'Q\x04\x92c\xf1BU@'
p47
tp48
Rp49
ag10
(g14
S'\xb0\xf7m\x13\x874U@'
p50
tp51
Rp52
ag10
(g14
S'\x85-L0\xa7EU@'
p53
tp54
Rp55
ag10
(g14
S'\xd4\xbe\xe4g\x8fAU@'
p56
tp57
Rp58
ag10
(g14
S'\xbfsG9\x86KU@'
p59
tp60
Rp61
ag10
(g14
S'\xceC\xfe\x89$6U@'
p62
tp63
Rp64
ag10
(g14
S';\\\xe6\xb8\xca-U@'
p65
tp66
Rp67
ag10
(g14
S'\x8c\xafK\xcb"?U@'
p68
tp69
Rp70
ag10
(g14
S'\xc25\xd7\xbc\\,U@'
p71
tp72
Rp73
ag10
(g14
S'f\xefzF66U@'
p74
tp75
Rp76
asS'target'
p77
(lp78
g10
(g14
S'(\xc7\x9aN%\x0c8@'
p79
tp80
Rp81
ag10
(g14
S'K\xfc\x85\t%25@'
p82
tp83
Rp84
ag10
(g14
S'{C\xa3\xf6\xae>6@'
p85
tp86
Rp87
ag10
(g14
S'\x0f\xf9},e55@'
p88
tp89
Rp90
ag10
(g14
S'\x93\x062ui\xcd5@'
p91
tp92
Rp93
ag10
(g14
S'\x1ak\xfeR\xc7j6@'
p94
tp95
Rp96
ag10
(g14
S'`l\x9b/\x9327@'
p97
tp98
Rp99
ag10
(g14
S'\xe6\x01h\xada\xbf5@'
p100
tp101
Rp102
ag10
(g14
S'\x16r\x92|\xb3\x9c5@'
p103
tp104
Rp105
ag10
(g14
S'\xa24\x9cy\x01F6@'
p106
tp107
Rp108
ag10
(g14
S'\x04\xed\xecg.p5@'
p109
tp110
Rp111
ag10
(g14
S'1\x01J@\xe2\xfd5@'
p112
tp113
Rp114
ag10
(g14
S'\x17\x0e\xac\x89\x83\xfc5@'
p115
tp116
Rp117
ag10
(g14
S"\xa6'\x8c\xa1X\xe65@"
p118
tp119
Rp120
ag10
(g14
S'e\x80\xd3_\xa6\xed5@'
p121
tp122
Rp123
ag10
(g14
S'\xec\x12\xfeb]\xf85@'
p124
tp125
Rp126
ag10
(g14
S'S\x9fg\x0b\xe3\x8a4@'
p127
tp128
Rp129
ag10
(g14
S'\xca\xf6\xd9\x1a)[5@'
p130
tp131
Rp132
ag10
(g14
S'\xe0\rT\xc6\xdb\xcc4@'
p133
tp134
Rp135
ag10
(g14
S'\xefm\xab\xa0\x00\xb95@'
p136
tp137
Rp138
asssss.