(dp0
S'../Data/sqlite_30.csv'
p1
(dp2
S'../Data/sqlite_96.csv'
p3
(dp4
F0.4
(dp5
S'mmre'
p6
(dp7
S'bellwether'
p8
(lp9
cnumpy.core.multiarray
scalar
p10
(cnumpy
dtype
p11
(S'f8'
p12
I0
I1
tp13
Rp14
(I3
S'<'
p15
NNNI-1
I-1
I0
tp16
bS'~\xcd\x1e\t,2X@'
p17
tp18
Rp19
ag10
(g14
S'\x13.gV\xe04X@'
p20
tp21
Rp22
ag10
(g14
S'\xa6\x19\xac\x99)0X@'
p23
tp24
Rp25
ag10
(g14
S'\x104\xe4\xe592X@'
p26
tp27
Rp28
ag10
(g14
S'b\xcb\x0bX\xd2.X@'
p29
tp30
Rp31
ag10
(g14
S'\xa8\xb2\xfa.\xcc1X@'
p32
tp33
Rp34
ag10
(g14
S'\x80\x8c\xc9\xcc\x9b2X@'
p35
tp36
Rp37
ag10
(g14
S'\x8a\xf1=\x0c\x821X@'
p38
tp39
Rp40
ag10
(g14
S'\xcd\x12\xafa#1X@'
p41
tp42
Rp43
ag10
(g14
S'\xf3\xcao\xb6\xd10X@'
p44
tp45
Rp46
ag10
(g14
S'&\xaa\xfa\xf0\xa9.X@'
p47
tp48
Rp49
ag10
(g14
S'h\xa1D#\xbc3X@'
p50
tp51
Rp52
ag10
(g14
S'\xbb\x01;\xb2\xf9.X@'
p53
tp54
Rp55
ag10
(g14
S'r\xc0\xcf\xa5\x030X@'
p56
tp57
Rp58
ag10
(g14
S'>r\x9b\xc4T2X@'
p59
tp60
Rp61
ag10
(g14
S'\x83\xfeC<\x8c2X@'
p62
tp63
Rp64
ag10
(g14
S'\x8d\xab\xd3]\x9e2X@'
p65
tp66
Rp67
ag10
(g14
S'g\xf4\xb6E\x992X@'
p68
tp69
Rp70
ag10
(g14
S'c:g\xe7\xa63X@'
p71
tp72
Rp73
ag10
(g14
S'z\x18!\xa9\xd9.X@'
p74
tp75
Rp76
asS'target'
p77
(lp78
g10
(g14
S'\x89"j<*jQ@'
p79
tp80
Rp81
ag10
(g14
S'l\x02\xb0jXFS@'
p82
tp83
Rp84
ag10
(g14
S'\xca\x9f\xa3pT\xcdQ@'
p85
tp86
Rp87
ag10
(g14
S'\x80_\xc8\xf8DaS@'
p88
tp89
Rp90
ag10
(g14
S'\xb0\xe0QxgHW@'
p91
tp92
Rp93
ag10
(g14
S'\x91\x1f\xc4:4\xe3Q@'
p94
tp95
Rp96
ag10
(g14
S'[C`0\xcb\xf3N@'
p97
tp98
Rp99
ag10
(g14
S'M\xe1\xbc5\xd0&S@'
p100
tp101
Rp102
ag10
(g14
S'W\xac0<\xf2fT@'
p103
tp104
Rp105
ag10
(g14
S'\x98\x8e\xe9v\x13OR@'
p106
tp107
Rp108
ag10
(g14
S'z[\x02.V\x88T@'
p109
tp110
Rp111
ag10
(g14
S'\xbd<\xe0p9\x10M@'
p112
tp113
Rp114
ag10
(g14
S'%1\xbe%\xf2\xbfT@'
p115
tp116
Rp117
ag10
(g14
S'M\xa4\xf7\x90W\xa9P@'
p118
tp119
Rp120
ag10
(g14
S'\xc5\xb88\xa7\xe7\x13^@'
p121
tp122
Rp123
ag10
(g14
S'\xb0\xe6_@XlV@'
p124
tp125
Rp126
ag10
(g14
S'\x97\xc0\x83M\xa1HS@'
p127
tp128
Rp129
ag10
(g14
S'\xd1\xd4.4\x1ehS@'
p130
tp131
Rp132
ag10
(g14
S'4\xc0}M\x99/T@'
p133
tp134
Rp135
ag10
(g14
S'\x87@\x99:\xef\xf3W@'
p136
tp137
Rp138
asssss.