(dp0
S'../Data/sqlite_4.csv'
p1
(dp2
S'../Data/sqlite_6.csv'
p3
(dp4
F0.15
(dp5
S'abs_res'
p6
(dp7
S'bellwether'
p8
(lp9
cnumpy.core.multiarray
scalar
p10
(cnumpy
dtype
p11
(S'f8'
p12
I0
I1
tp13
Rp14
(I3
S'<'
p15
NNNI-1
I-1
I0
tp16
bS'w\xe9&a\xe2x@A'
p17
tp18
Rp19
ag10
(g14
S'\xb4\xc8v>>x@A'
p20
tp21
Rp22
ag10
(g14
S'\x7f\x95C;py@A'
p23
tp24
Rp25
ag10
(g14
S'\xc3v\xbe\xcf\xecx@A'
p26
tp27
Rp28
ag10
(g14
S'\xdc\xc1<1\x81x@A'
p29
tp30
Rp31
ag10
(g14
S'\xf1\x0c\xbb\xa29y@A'
p32
tp33
Rp34
ag10
(g14
S'\n\xd7\xa3@(y@A'
p35
tp36
Rp37
ag10
(g14
S'\x9b\x1a/\xdd\xcex@A'
p38
tp39
Rp40
ag10
(g14
S'\x82A`\x85iy@A'
p41
tp42
Rp43
ag10
(g14
S'\xa0T\x9c\xad\x9cy@A'
p44
tp45
Rp46
ag10
(g14
S'\xb0G\xe1J?y@A'
p47
tp48
Rp49
ag10
(g14
S'\xb4\x1e\x85\x9b\xd8x@A'
p50
tp51
Rp52
ag10
(g14
S'y\x95C\x0b\x1by@A'
p53
tp54
Rp55
ag10
(g14
S'a\x9e\xa8\x7fMy@A'
p56
tp57
Rp58
ag10
(g14
S'D\xb6\xf3\x9d\x88x@A'
p59
tp60
Rp61
ag10
(g14
S'\xcf"\xdb\xd9\xf1x@A'
p62
tp63
Rp64
ag10
(g14
S'\xa3\xfe\x8d\x80\xcdx@A'
p65
tp66
Rp67
ag10
(g14
S'j\xe7\xfb\thx@A'
p68
tp69
Rp70
ag10
(g14
S'\xe6`\x9exjy@A'
p71
tp72
Rp73
ag10
(g14
S'>DDt\x12y@A'
p74
tp75
Rp76
asS'target'
p77
(lp78
g10
(g14
S'i\xbct\x93\x18\x82q@'
p79
tp80
Rp81
ag10
(g14
S'(\x87\x16\xd9\xce\xcbr@'
p82
tp83
Rp84
ag10
(g14
S'm\x91\xed|?\x9fr@'
p85
tp86
Rp87
ag10
(g14
S'^\x8f\xc2\xf5(\x96t@'
p88
tp89
Rp90
ag10
(g14
S'O\xe1z\x14\xaewq@'
p91
tp92
Rp93
ag10
(g14
S'*\x87\x16\xd9\xce\xe9s@'
p94
tp95
Rp96
ag10
(g14
S'#/\xdd$\x06\xc3s@'
p97
tp98
Rp99
ag10
(g14
S'Z\x0e-\xb2\x9dQq@'
p100
tp101
Rp102
ag10
(g14
S'\x90\xed|?5"s@'
p103
tp104
Rp105
ag10
(g14
S'\xbeI\x0c\x02+\xb9q@'
p106
tp107
Rp108
ag10
(g14
S'\xf7|?5^\xd8r@'
p109
tp110
Rp111
ag10
(g14
S'b\xe5\xd0"\xdb\x91r@'
p112
tp113
Rp114
ag10
(g14
S'J\xe1z\x14\xae\x85r@'
p115
tp116
Rp117
ag10
(g14
S'\xc2\xca\xa1E\xb6\xfcp@'
p118
tp119
Rp120
ag10
(g14
S'\x9bn\x12\x83\xc0Rr@'
p121
tp122
Rp123
ag10
(g14
S'\x14\x83\xc0\xca\xa1qr@'
p124
tp125
Rp126
ag10
(g14
S'\x88A`\xe5\xd0Ns@'
p127
tp128
Rp129
ag10
(g14
S'\xbf \xb0rh\x13s@'
p130
tp131
Rp132
ag10
(g14
S'\t\x02+\x87\x16\x1br@'
p133
tp134
Rp135
ag10
(g14
S'\x1f\xb0rh\x91*r@'
p136
tp137
Rp138
asssss.