(dp0
S'../Data/sqlite_23.csv'
p1
(dp2
S'../Data/sqlite_92.csv'
p3
(dp4
F0.2
(dp5
S'mmre'
p6
(dp7
S'bellwether'
p8
(lp9
cnumpy.core.multiarray
scalar
p10
(cnumpy
dtype
p11
(S'f8'
p12
I0
I1
tp13
Rp14
(I3
S'<'
p15
NNNI-1
I-1
I0
tp16
bS'\xeb\xf1)cuPQ@'
p17
tp18
Rp19
ag10
(g14
S'\xfa\xc9Nl\x07FQ@'
p20
tp21
Rp22
ag10
(g14
S'\x9e\x8cE\x04hCQ@'
p23
tp24
Rp25
ag10
(g14
S'>N7L9GQ@'
p26
tp27
Rp28
ag10
(g14
S'\x99S\x1f~\x06UQ@'
p29
tp30
Rp31
ag10
(g14
S'ab\xa2\x04~TQ@'
p32
tp33
Rp34
ag10
(g14
S'\x19\xd2\xa4\x03\x1eaQ@'
p35
tp36
Rp37
ag10
(g14
S'2,\x90TdOQ@'
p38
tp39
Rp40
ag10
(g14
S'\xc1D6tCSQ@'
p41
tp42
Rp43
ag10
(g14
S'2.\x0c\xd8\x10YQ@'
p44
tp45
Rp46
ag10
(g14
S'\x10\x98\xb1\xeb\x19ZQ@'
p47
tp48
Rp49
ag10
(g14
S'\xea\xd6\x89/STQ@'
p50
tp51
Rp52
ag10
(g14
S'\x88&\xf9Z\xeb]Q@'
p53
tp54
Rp55
ag10
(g14
S'\x86^\xb7<\xe8MQ@'
p56
tp57
Rp58
ag10
(g14
S'l\\F\xf6\x84UQ@'
p59
tp60
Rp61
ag10
(g14
S'\xdf\x80\xb9\x1b\xd1UQ@'
p62
tp63
Rp64
ag10
(g14
S'\xd1\x00\x81[7_Q@'
p65
tp66
Rp67
ag10
(g14
S'\x8bO\\\xcf\x15PQ@'
p68
tp69
Rp70
ag10
(g14
S'\x91\x8c\x80\xcb\x91[Q@'
p71
tp72
Rp73
ag10
(g14
S'\x0f6\xe6\xe6\xa9CQ@'
p74
tp75
Rp76
asS'target'
p77
(lp78
g10
(g14
S'V%\x81\xeb-\x8ec@'
p79
tp80
Rp81
ag10
(g14
S'\xa2\xb3\xa9\x19\xac~R@'
p82
tp83
Rp84
ag10
(g14
S'E\x81\xcf\xe67\xdaM@'
p85
tp86
Rp87
ag10
(g14
S'\xd3){\x85R\xccN@'
p88
tp89
Rp90
ag10
(g14
S'c\xf4\xe6\x02\xc5\xb0J@'
p91
tp92
Rp93
ag10
(g14
S'|\x80\xf9\x8a*~V@'
p94
tp95
Rp96
ag10
(g14
S'CS\x86\x91\x97PK@'
p97
tp98
Rp99
ag10
(g14
S'\x11\xe0\xd8\xfb\xc2\xf9V@'
p100
tp101
Rp102
ag10
(g14
S'"\x88$d\x9e\xfaY@'
p103
tp104
Rp105
ag10
(g14
S'i\xed\\\xfc\xf9kP@'
p106
tp107
Rp108
ag10
(g14
S'\x126\x9f\xdfryT@'
p109
tp110
Rp111
ag10
(g14
S'0\xbde\x15\r\xc2P@'
p112
tp113
Rp114
ag10
(g14
S'\x0b\xdc\xdc\xe6\xa1\xe5P@'
p115
tp116
Rp117
ag10
(g14
S'X2\xdb~?dY@'
p118
tp119
Rp120
ag10
(g14
S'\xc3?\xd0V\xf3vP@'
p121
tp122
Rp123
ag10
(g14
S'z7p5+>T@'
p124
tp125
Rp126
ag10
(g14
S'b6:\xdb\x8d\x17V@'
p127
tp128
Rp129
ag10
(g14
S'\xdc\x89\xe52A#V@'
p130
tp131
Rp132
ag10
(g14
S'~\xbfA)\x8a\tR@'
p133
tp134
Rp135
ag10
(g14
S'"B\ry(\'Y@'
p136
tp137
Rp138
asssss.