(dp0
S'../Data/sqlite_26.csv'
p1
(dp2
S'../Data/sqlite_84.csv'
p3
(dp4
F0.15
(dp5
S'mmre'
p6
(dp7
S'bellwether'
p8
(lp9
cnumpy.core.multiarray
scalar
p10
(cnumpy
dtype
p11
(S'f8'
p12
I0
I1
tp13
Rp14
(I3
S'<'
p15
NNNI-1
I-1
I0
tp16
bS'\x07X!P\x1f(u@'
p17
tp18
Rp19
ag10
(g14
S'-hgX\x1f/u@'
p20
tp21
Rp22
ag10
(g14
S'\xfc\xfa\xa4\xcd\xfb\x08u@'
p23
tp24
Rp25
ag10
(g14
S'\xab\xa8\xb1\xdevIu@'
p26
tp27
Rp28
ag10
(g14
S'\xd6>Ty\xd9Fu@'
p29
tp30
Rp31
ag10
(g14
S'G\xf9\x8fDwbu@'
p32
tp33
Rp34
ag10
(g14
S'\x97\xb6\xbc\xef\xf7Ju@'
p35
tp36
Rp37
ag10
(g14
S'T\x0e\xe6\xeaHDu@'
p38
tp39
Rp40
ag10
(g14
S'\x00S\x8e\xdf\xbd_u@'
p41
tp42
Rp43
ag10
(g14
S'8\xc9B\xedE\x8fu@'
p44
tp45
Rp46
ag10
(g14
S'\x8a\x91\xae\xbb\xcb]u@'
p47
tp48
Rp49
ag10
(g14
S'\x04\x11<u`9u@'
p50
tp51
Rp52
ag10
(g14
S'`x\xb0\x12\\>u@'
p53
tp54
Rp55
ag10
(g14
S'i\xc4\x9aO\xb1Tu@'
p56
tp57
Rp58
ag10
(g14
S'\x0cr{\x90k$u@'
p59
tp60
Rp61
ag10
(g14
S'\xb8);,i\x97u@'
p62
tp63
Rp64
ag10
(g14
S'\x9e\xcc\xe16\xe5Uu@'
p65
tp66
Rp67
ag10
(g14
S'\xb9@\x10x\xea@u@'
p68
tp69
Rp70
ag10
(g14
S'\xff=P\xd4S?u@'
p71
tp72
Rp73
ag10
(g14
S'qT\x8a\xa7G\x1bu@'
p74
tp75
Rp76
asS'target'
p77
(lp78
g10
(g14
S'\xeb{\x03\xd9\x8c@Q@'
p79
tp80
Rp81
ag10
(g14
S'\x10\x83\x8b#\x9b\xb5O@'
p82
tp83
Rp84
ag10
(g14
S'r\xbc\x9bo\xa2\xf6J@'
p85
tp86
Rp87
ag10
(g14
S'\x03j8\xda\xa1\xb0I@'
p88
tp89
Rp90
ag10
(g14
S'\x04\x0e\x98\\\x9d(P@'
p91
tp92
Rp93
ag10
(g14
S'\xdcrZ\xfcp\x88M@'
p94
tp95
Rp96
ag10
(g14
S'E-\x19p\x00^I@'
p97
tp98
Rp99
ag10
(g14
S'3\x10G\xf9X%R@'
p100
tp101
Rp102
ag10
(g14
S'\xdb2v\x86\x9e\x88Q@'
p103
tp104
Rp105
ag10
(g14
S'#~?\xe6\xea\xb4J@'
p106
tp107
Rp108
ag10
(g14
S'\x15\xb1\xf1\xea\x8e(U@'
p109
tp110
Rp111
ag10
(g14
S'8\xb9\xcc\xe8\xc6+R@'
p112
tp113
Rp114
ag10
(g14
S'\x12\xa0\xf2Q\xef\x05S@'
p115
tp116
Rp117
ag10
(g14
S'\xc6rq\xa9K%S@'
p118
tp119
Rp120
ag10
(g14
S'\xd8$M\x1d\xaaLS@'
p121
tp122
Rp123
ag10
(g14
S'\x13\xac+D\x8a0T@'
p124
tp125
Rp126
ag10
(g14
S'\xfe\xe5\xa4Y\x1f\xbdF@'
p127
tp128
Rp129
ag10
(g14
S'\x8c\xf4\xfe)\xf0\xe7N@'
p130
tp131
Rp132
ag10
(g14
S'>\\\xf1eE\xdd[@'
p133
tp134
Rp135
ag10
(g14
S'GvYp\xbe\xb8L@'
p136
tp137
Rp138
asssss.