(dp0
S'../Data/sqlite_94.csv'
p1
(dp2
S'../Data/sqlite_72.csv'
p3
(dp4
F0.1
(dp5
S'abs_res'
p6
(dp7
S'bellwether'
p8
(lp9
cnumpy.core.multiarray
scalar
p10
(cnumpy
dtype
p11
(S'f8'
p12
I0
I1
tp13
Rp14
(I3
S'<'
p15
NNNI-1
I-1
I0
tp16
bS'\x17\xd9\xcew\xbd\xb5"A'
p17
tp18
Rp19
ag10
(g14
S'\xb6\xc8v>4\x85"A'
p20
tp21
Rp22
ag10
(g14
S'\xff\xff\xff\x7f\xf5\x96"A'
p23
tp24
Rp25
ag10
(g14
S'R9\xb4\x08O\xa3"A'
p26
tp27
Rp28
ag10
(g14
S'\xbd\x1e\x85k>\xa8"A'
p29
tp30
Rp31
ag10
(g14
S'\x03\x00\x00@y_"A'
p32
tp33
Rp34
ag10
(g14
S' 1\x08l\xc6\xc6"A'
p35
tp36
Rp37
ag10
(g14
S'\r-\xb2\x9d\x80\x8f"A'
p38
tp39
Rp40
ag10
(g14
S'%\xb0r\xe8ho"A'
p41
tp42
Rp43
ag10
(g14
S'\xcf\xcc\xcc\x8c\t\x9b"A'
p44
tp45
Rp46
ag10
(g14
S'Z\x8f\xc2\xf5\xa6|"A'
p47
tp48
Rp49
ag10
(g14
S'-33sD\xda"A'
p50
tp51
Rp52
ag10
(g14
S'3\x89A r\x91"A'
p53
tp54
Rp55
ag10
(g14
S'\xe4z\x14\xee\nf"A'
p56
tp57
Rp58
ag10
(g14
S'\xda\xf9~j\xc1\x8a"A'
p59
tp60
Rp61
ag10
(g14
S'\xbb\x1e\x85\xab_3"A'
p62
tp63
Rp64
ag10
(g14
S'\xa2p=\n\x90s"A'
p65
tp66
Rp67
ag10
(g14
S'\xaf\x9d\xefg\x90\x8a"A'
p68
tp69
Rp70
ag10
(g14
S'\xee|?5\x9b{"A'
p71
tp72
Rp73
ag10
(g14
S'1\xdd$\x86\x0fo"A'
p74
tp75
Rp76
asS'target'
p77
(lp78
g10
(g14
S'&\xb0rh\x91-U@'
p79
tp80
Rp81
ag10
(g14
S'\x12\xd9\xce\xf7SSS@'
p82
tp83
Rp84
ag10
(g14
S'\x19Zd;\xdf\xafV@'
p85
tp86
Rp87
ag10
(g14
S'\xea&1\x08\xactU@'
p88
tp89
Rp90
ag10
(g14
S'v\x91\xed|?\x9dV@'
p91
tp92
Rp93
ag10
(g14
S'P\xb6\xf3\xfd\xd4\x88T@'
p94
tp95
Rp96
ag10
(g14
S'\xcd"\xdb\xf9~bT@'
p97
tp98
Rp99
ag10
(g14
S'}j\xbct\x93HV@'
p100
tp101
Rp102
ag10
(g14
S'%/\xdd$\x06AT@'
p103
tp104
Rp105
ag10
(g14
S'\x84\x95C\x8bl\xefT@'
p106
tp107
Rp108
ag10
(g14
S'\xff\xd4x\xe9&UT@'
p109
tp110
Rp111
ag10
(g14
S'%\x04V\x0e-\xa2W@'
p112
tp113
Rp114
ag10
(g14
S'I\x89A`\xe5\xa8U@'
p115
tp116
Rp117
ag10
(g14
S'\xdb\xa3p=\n\xa7T@'
p118
tp119
Rp120
ag10
(g14
S'\x08\x02+\x87\x16\xb1U@'
p121
tp122
Rp123
ag10
(g14
S'1\x89A`\xe50U@'
p124
tp125
Rp126
ag10
(g14
S'cd;\xdfO\xedV@'
p127
tp128
Rp129
ag10
(g14
S'y\xbe\x9f\x1a/5W@'
p130
tp131
Rp132
ag10
(g14
S'\x86\x14\xaeG\xe1\xdaU@'
p133
tp134
Rp135
ag10
(g14
S'\xbet\x93\x18\x04\x1aU@'
p136
tp137
Rp138
asssss.