(dp0
S'../Data/sqlite_15.csv'
p1
(dp2
S'../Data/sqlite_19.csv'
p3
(dp4
F0.2
(dp5
S'abs_res'
p6
(dp7
S'bellwether'
p8
(lp9
cnumpy.core.multiarray
scalar
p10
(cnumpy
dtype
p11
(S'f8'
p12
I0
I1
tp13
Rp14
(I3
S'<'
p15
NNNI-1
I-1
I0
tp16
bS'b.$M\xcch>A'
p17
tp18
Rp19
ag10
(g14
S'\xeb\x98\xe0\xe1\xa3i>A'
p20
tp21
Rp22
ag10
(g14
S'4\x08\xac\x1cQi>A'
p23
tp24
Rp25
ag10
(g14
S'f\xd8\x15@\xd9i>A'
p26
tp27
Rp28
ag10
(g14
S'\xefo\x84\xd2*i>A'
p29
tp30
Rp31
ag10
(g14
S'\x06\x9d6\xf0 j>A'
p32
tp33
Rp34
ag10
(g14
S'+z[v\x0bi>A'
p35
tp36
Rp37
ag10
(g14
S'\x87\x07\xf3D1h>A'
p38
tp39
Rp40
ag10
(g14
S'\xb1rh\xd1Pi>A'
p41
tp42
Rp43
ag10
(g14
S'=\xe1z4^h>A'
p44
tp45
Rp46
ag10
(g14
S'D~\xb1\xc4&h>A'
p47
tp48
Rp49
ag10
(g14
S'8\xfb\xf09\x11i>A'
p50
tp51
Rp52
ag10
(g14
S'\xd3\xa3p=Uh>A'
p53
tp54
Rp55
ag10
(g14
S'#\xf7\x9aK\xb3j>A'
p56
tp57
Rp58
ag10
(g14
S'\x02\x1c\xa1l\x00j>A'
p59
tp60
Rp61
ag10
(g14
S'\xc7 \xb02\x85h>A'
p62
tp63
Rp64
ag10
(g14
S'\x12\xaeGa`j>A'
p65
tp66
Rp67
ag10
(g14
S'\x08\x90{M+j>A'
p68
tp69
Rp70
ag10
(g14
S'K\xb8\x1e%\x1bj>A'
p71
tp72
Rp73
ag10
(g14
S'\xd9\xce\xf7\xb3\xd2i>A'
p74
tp75
Rp76
asS'target'
p77
(lp78
g10
(g14
S'>\xb2\x9d\xef\xa7\xf6Z@'
p79
tp80
Rp81
ag10
(g14
S'9\x89A`\xe5\xd8V@'
p82
tp83
Rp84
ag10
(g14
S'\x12V\x0e-\xb2\x15X@'
p85
tp86
Rp87
ag10
(g14
S'\x85?5^\xba!V@'
p88
tp89
Rp90
ag10
(g14
S'\x98\xed|?5\xd6W@'
p91
tp92
Rp93
ag10
(g14
S'\xfe\xa9\xf1\xd2MRV@'
p94
tp95
Rp96
ag10
(g14
S'\x0f\x02+\x87\x16)W@'
p97
tp98
Rp99
ag10
(g14
S'\x02\x02+\x87\x16aW@'
p100
tp101
Rp102
ag10
(g14
S'\xee\xa7\xc6K7\xa9V@'
p103
tp104
Rp105
ag10
(g14
S'\xa7p=\n\xd7sY@'
p106
tp107
Rp108
ag10
(g14
S'M\x8f\xc2\xf5(\xe4X@'
p109
tp110
Rp111
ag10
(g14
S'P\x8d\x97n\x12\x0bU@'
p112
tp113
Rp114
ag10
(g14
S'\xf4\xa7\xc6K7\xc1V@'
p115
tp116
Rp117
ag10
(g14
S'&\xdd$\x06\x81uW@'
p118
tp119
Rp120
ag10
(g14
S'B\xdfO\x8d\x97\x8aX@'
p121
tp122
Rp123
ag10
(g14
S'\x8d\x95C\x8bl\xbfV@'
p124
tp125
Rp126
ag10
(g14
S'A\x89A`\xe5\xf8V@'
p127
tp128
Rp129
ag10
(g14
S'\x04V\x0e-\xb2\x05X@'
p130
tp131
Rp132
ag10
(g14
S'\xdbMb\x10X)W@'
p133
tp134
Rp135
ag10
(g14
S'H\xe1z\x14\xae\xc7U@'
p136
tp137
Rp138
asssss.