(dp0
S'../Data/sqlite_4.csv'
p1
(dp2
S'../Data/sqlite_75.csv'
p3
(dp4
F0.3
(dp5
S'abs_res'
p6
(dp7
S'bellwether'
p8
(lp9
cnumpy.core.multiarray
scalar
p10
(cnumpy
dtype
p11
(S'f8'
p12
I0
I1
tp13
Rp14
(I3
S'<'
p15
NNNI-1
I-1
I0
tp16
bS'\x1a\xf5o\x84_4;A'
p17
tp18
Rp19
ag10
(g14
S'+x0\x8f\x821;A'
p20
tp21
Rp22
ag10
(g14
S'\xfd7B\x19\x832;A'
p23
tp24
Rp25
ag10
(g14
S'v\xa2\xfems3;A'
p26
tp27
Rp28
ag10
(g14
S'=\x89A\x00\x033;A'
p29
tp30
Rp31
ag10
(g14
S'\xb9\x81N;\xa12;A'
p32
tp33
Rp34
ag10
(g14
S'7\x89A\xe0a4;A'
p35
tp36
Rp37
ag10
(g14
S'\xd2"\xdb\xd9\xc00;A'
p38
tp39
Rp40
ag10
(g14
S'\x05\xb9\xd7\xbcF4;A'
p41
tp42
Rp43
ag10
(g14
S'T\x8d\x97\x8e\xbc2;A'
p44
tp45
Rp46
ag10
(g14
S'"M\xa98\xc64;A'
p47
tp48
Rp49
ag10
(g14
S'\x1a\xaeG\xc1Y2;A'
p50
tp51
Rp52
ag10
(g14
S'UUU\xb5\xc53;A'
p53
tp54
Rp55
ag10
(g14
S'[d;\xff\x843;A'
p56
tp57
Rp58
ag10
(g14
S'\xb8\x904\xe5\xa62;A'
p59
tp60
Rp61
ag10
(g14
S'@\x19\xbdM\x9e3;A'
p62
tp63
Rp64
ag10
(g14
S'N\xe3\xa5\xdb?1;A'
p65
tp66
Rp67
ag10
(g14
S'\x87\t\x1eL$2;A'
p68
tp69
Rp70
ag10
(g14
S'\x8a\xfa7bb2;A'
p71
tp72
Rp73
ag10
(g14
S'\x88]\x01\xd2\x9e2;A'
p74
tp75
Rp76
asS'target'
p77
(lp78
g10
(g14
S'\xe4\xd2Mb\x10\x18U@'
p79
tp80
Rp81
ag10
(g14
S'\x7f\xbe\x9f\x1a/\x95U@'
p82
tp83
Rp84
ag10
(g14
S'\xeb\xfd\xd4x\xe9^U@'
p85
tp86
Rp87
ag10
(g14
S'\xf7~j\xbct\xcfU@'
p88
tp89
Rp90
ag10
(g14
S'2$M\xa98/U@'
p91
tp92
Rp93
ag10
(g14
S'\x96A`\xe5\xd0\nU@'
p94
tp95
Rp96
ag10
(g14
S'\x15\xd9\xce\xf7S\xa7U@'
p97
tp98
Rp99
ag10
(g14
S'=\n\xd7\xa3pEV@'
p100
tp101
Rp102
ag10
(g14
S'\xd9\xce\xf7S\xe3\xe5U@'
p103
tp104
Rp105
ag10
(g14
S'\xa8\x1a/\xdd$bV@'
p106
tp107
Rp108
ag10
(g14
S'\xae\xf1\xd2Mb\xa0U@'
p109
tp110
Rp111
ag10
(g14
S'\x15-\xb2\x9d\xef\xbfT@'
p112
tp113
Rp114
ag10
(g14
S'\xf7\xd2Mb\x10hU@'
p115
tp116
Rp117
ag10
(g14
S'7\x87\x16\xd9\xce;U@'
p118
tp119
Rp120
ag10
(g14
S'\xc4v\xbe\x9f\x1a\x8fU@'
p121
tp122
Rp123
ag10
(g14
S'\xbb\xca\xa1E\xb6\xdbV@'
p124
tp125
Rp126
ag10
(g14
S'A`\xe5\xd0"\x0fV@'
p127
tp128
Rp129
ag10
(g14
S'4\n\xd7\xa3p\xa1T@'
p130
tp131
Rp132
ag10
(g14
S'x\x95C\x8blsT@'
p133
tp134
Rp135
ag10
(g14
S'\xc5\xf5(\\\x8f\x8eV@'
p136
tp137
Rp138
asssss.