(dp0
S'../Data/sqlite_46.csv'
p1
(dp2
S'../Data/sqlite_9.csv'
p3
(dp4
F0.05
(dp5
S'abs_res'
p6
(dp7
S'bellwether'
p8
(lp9
cnumpy.core.multiarray
scalar
p10
(cnumpy
dtype
p11
(S'f8'
p12
I0
I1
tp13
Rp14
(I3
S'<'
p15
NNNI-1
I-1
I0
tp16
bS'"\xb0r(_jBA'
p17
tp18
Rp19
ag10
(g14
S'\xc4K7yujBA'
p20
tp21
Rp22
ag10
(g14
S'h\x91\xed\xbckjBA'
p23
tp24
Rp25
ag10
(g14
S'\xee\xd2M\x927jBA'
p26
tp27
Rp28
ag10
(g14
S'\xd2\xf7Sc\xfbiBA'
p29
tp30
Rp31
ag10
(g14
S'\xe0$\x06\xe1\xbfiBA'
p32
tp33
Rp34
ag10
(g14
S'9^\xba\xa9HjBA'
p35
tp36
Rp37
ag10
(g14
S'\x1f\x06\x81u\xafiBA'
p38
tp39
Rp40
ag10
(g14
S'\x96l\xe7[0jBA'
p41
tp42
Rp43
ag10
(g14
S'\xf1\xd2M\xe2\x7fjBA'
p44
tp45
Rp46
ag10
(g14
S'\x19\xaeGA?jBA'
p47
tp48
Rp49
ag10
(g14
S'W\xe3\xa5k]jBA'
p50
tp51
Rp52
ag10
(g14
S'\x8aA`\x85\xb1jBA'
p53
tp54
Rp55
ag10
(g14
S'\xf1|?E\x16jBA'
p56
tp57
Rp58
ag10
(g14
S'\x81j\xbcD0jBA'
p59
tp60
Rp61
ag10
(g14
S'z\xe9&\xb1BjBA'
p62
tp63
Rp64
ag10
(g14
S'\xfc\xff\xff_\xe8iBA'
p65
tp66
Rp67
ag10
(g14
S';^\xbaI\xe6iBA'
p68
tp69
Rp70
ag10
(g14
S'\xc9v\xbe\x9f\x13jBA'
p71
tp72
Rp73
ag10
(g14
S'\xe9\xfb\xa9\xe14jBA'
p74
tp75
Rp76
asS'target'
p77
(lp78
g10
(g14
S'K\x0c\x02+\x87&@@'
p79
tp80
Rp81
ag10
(g14
S'K5^\xbaI|@@'
p82
tp83
Rp84
ag10
(g14
S'ld;\xdfO-C@'
p85
tp86
Rp87
ag10
(g14
S'j\xe7\xfb\xa9\xf1\xa2E@'
p88
tp89
Rp90
ag10
(g14
S'\x04\xd5x\xe9&1H@'
p91
tp92
Rp93
ag10
(g14
S'H5^\xbaIlH@'
p94
tp95
Rp96
ag10
(g14
S'*1\x08\xac\x1cjD@'
p97
tp98
Rp99
ag10
(g14
S'\xe9x\xe9&1xM@'
p100
tp101
Rp102
ag10
(g14
S'T\xe3\xa5\x9b\xc4\xc0@@'
p103
tp104
Rp105
ag10
(g14
S'\xfc(\\\x8f\xc2\xa5@@'
p106
tp107
Rp108
ag10
(g14
S'\xc5t\x93\x18\x04v@@'
p109
tp110
Rp111
ag10
(g14
S'g\x8f\xc2\xf5(|A@'
p112
tp113
Rp114
ag10
(g14
S'\x92\xc2\xf5(\\\x1fE@'
p115
tp116
Rp117
ag10
(g14
S'%\xdb\xf9~j\xfcD@'
p118
tp119
Rp120
ag10
(g14
S"\x8a\x95C\x8bl'I@"
p121
tp122
Rp123
ag10
(g14
S'\x9en\x12\x83\xc0\xeaB@'
p124
tp125
Rp126
ag10
(g14
S'E\xb6\xf3\xfd\xd4\x98H@'
p127
tp128
Rp129
ag10
(g14
S'`\xe5\xd0"\xdb\xc9@@'
p130
tp131
Rp132
ag10
(g14
S'\x17\x04V\x0e-BA@'
p133
tp134
Rp135
ag10
(g14
S'n\xe5\xd0"\xdb\xc9L@'
p136
tp137
Rp138
asssss.